ARM GAS  C:\Users\VIDEOH~1\AppData\Local\Temp\ccEAPbdh.s 			page 1


   1              		.syntax unified
   2              		.cpu cortex-m0
   3              		.fpu softvfp
   4              		.eabi_attribute 20, 1
   5              		.eabi_attribute 21, 1
   6              		.eabi_attribute 23, 3
   7              		.eabi_attribute 24, 1
   8              		.eabi_attribute 25, 1
   9              		.eabi_attribute 26, 1
  10              		.eabi_attribute 30, 1
  11              		.eabi_attribute 34, 0
  12              		.eabi_attribute 18, 4
  13              		.thumb
  14              		.syntax unified
  15              		.file	"Bootloader.c"
  16              		.text
  17              	.Ltext0:
  18              		.cfi_sections	.debug_frame
  19              		.section	.text.Bootloader_CalcPacketChecksum,"ax",%progbits
  20              		.align	2
  21              		.code	16
  22              		.thumb_func
  23              		.type	Bootloader_CalcPacketChecksum, %function
  24              	Bootloader_CalcPacketChecksum:
  25              	.LFB32:
  26              		.file 1 "Generated_Source\\PSoC4\\Bootloader.c"
   1:Generated_Source\PSoC4/Bootloader.c **** /****************************************************************************//**
   2:Generated_Source\PSoC4/Bootloader.c **** * \file Bootloader.c
   3:Generated_Source\PSoC4/Bootloader.c **** * \version 1.60
   4:Generated_Source\PSoC4/Bootloader.c **** *
   5:Generated_Source\PSoC4/Bootloader.c **** * \brief
   6:Generated_Source\PSoC4/Bootloader.c **** *   Provides an API for the Bootloader component. The API includes functions
   7:Generated_Source\PSoC4/Bootloader.c **** *   for starting bootloading operations, validating the application and
   8:Generated_Source\PSoC4/Bootloader.c **** *   jumping to the application.
   9:Generated_Source\PSoC4/Bootloader.c **** *
  10:Generated_Source\PSoC4/Bootloader.c **** ********************************************************************************
  11:Generated_Source\PSoC4/Bootloader.c **** * \copyright
  12:Generated_Source\PSoC4/Bootloader.c **** * Copyright 2008-2018, Cypress Semiconductor Corporation.  All rights reserved.
  13:Generated_Source\PSoC4/Bootloader.c **** * You may use this file only in accordance with the license, terms, conditions,
  14:Generated_Source\PSoC4/Bootloader.c **** * disclaimers, and limitations in the end user license agreement accompanying
  15:Generated_Source\PSoC4/Bootloader.c **** * the software package with which this file was provided.
  16:Generated_Source\PSoC4/Bootloader.c **** *******************************************************************************/
  17:Generated_Source\PSoC4/Bootloader.c **** 
  18:Generated_Source\PSoC4/Bootloader.c **** #include "Bootloader_PVT.h"
  19:Generated_Source\PSoC4/Bootloader.c **** 
  20:Generated_Source\PSoC4/Bootloader.c **** 
  21:Generated_Source\PSoC4/Bootloader.c **** 
  22:Generated_Source\PSoC4/Bootloader.c **** #include "project.h"
  23:Generated_Source\PSoC4/Bootloader.c **** #include <string.h>
  24:Generated_Source\PSoC4/Bootloader.c **** 
  25:Generated_Source\PSoC4/Bootloader.c **** #if (CY_BOOT_VERSION < CY_BOOT_5_0)
  26:Generated_Source\PSoC4/Bootloader.c **** #error Component Bootloader_v1_60 requires cy_boot v5.00 or later
  27:Generated_Source\PSoC4/Bootloader.c **** #endif /* (CY_BOOT_VERSION >= CY_BOOT_5_0) */
  28:Generated_Source\PSoC4/Bootloader.c **** 
  29:Generated_Source\PSoC4/Bootloader.c **** /*******************************************************************************
  30:Generated_Source\PSoC4/Bootloader.c **** * The Checksum and SizeBytes are forcefully set in code. We then post process
  31:Generated_Source\PSoC4/Bootloader.c **** * the hex file from the linker and inject their values. When the hex file
ARM GAS  C:\Users\VIDEOH~1\AppData\Local\Temp\ccEAPbdh.s 			page 2


  32:Generated_Source\PSoC4/Bootloader.c **** * is loaded into the device, these two variables should have valid values.
  33:Generated_Source\PSoC4/Bootloader.c **** * Because the compiler can do optimization to remove the constant
  34:Generated_Source\PSoC4/Bootloader.c **** * accesses, these should not be accessed directly. Instead, the variables
  35:Generated_Source\PSoC4/Bootloader.c **** * CyBtldr_ChecksumAccess & CyBtldr_SizeBytesAccess should be used to get the
  36:Generated_Source\PSoC4/Bootloader.c **** * proper values at the runtime.
  37:Generated_Source\PSoC4/Bootloader.c **** *******************************************************************************/
  38:Generated_Source\PSoC4/Bootloader.c **** #if (CYDEV_PROJ_TYPE != CYDEV_PROJ_TYPE_LOADABLEANDBOOTLOADER)
  39:Generated_Source\PSoC4/Bootloader.c **** #if defined(__ARMCC_VERSION) || defined (__GNUC__)
  40:Generated_Source\PSoC4/Bootloader.c ****     __attribute__((section (".bootloader"), used))
  41:Generated_Source\PSoC4/Bootloader.c **** #elif defined (__ICCARM__)
  42:Generated_Source\PSoC4/Bootloader.c ****     #pragma location=".bootloader"
  43:Generated_Source\PSoC4/Bootloader.c **** #endif  /* defined(__ARMCC_VERSION) || defined (__GNUC__) */
  44:Generated_Source\PSoC4/Bootloader.c **** 
  45:Generated_Source\PSoC4/Bootloader.c **** #if defined(__ARMCC_VERSION) || defined (__GNUC__) || defined (__C51__)
  46:Generated_Source\PSoC4/Bootloader.c ****            const uint8  CYCODE Bootloader_Checksum = 0u;
  47:Generated_Source\PSoC4/Bootloader.c **** #elif defined (__ICCARM__)
  48:Generated_Source\PSoC4/Bootloader.c ****     __root const uint8  CYCODE Bootloader_Checksum = 0u;
  49:Generated_Source\PSoC4/Bootloader.c **** #endif  /* defined(__ARMCC_VERSION) || defined (__GNUC__) || defined (__C51__) */
  50:Generated_Source\PSoC4/Bootloader.c **** const uint8  CYCODE *Bootloader_ChecksumAccess  = (const uint8  CYCODE *)(&Bootloader_Checksum);
  51:Generated_Source\PSoC4/Bootloader.c **** 
  52:Generated_Source\PSoC4/Bootloader.c **** #if defined(__ARMCC_VERSION) || defined (__GNUC__)
  53:Generated_Source\PSoC4/Bootloader.c ****     __attribute__((section (".bootloader"), used))
  54:Generated_Source\PSoC4/Bootloader.c ****     const uint32 CYCODE Bootloader_SizeBytes = 0xFFFFFFFFu;
  55:Generated_Source\PSoC4/Bootloader.c **** #elif defined (__ICCARM__)
  56:Generated_Source\PSoC4/Bootloader.c ****     #pragma location=".bootloader"
  57:Generated_Source\PSoC4/Bootloader.c ****     __root const uint32 CYCODE Bootloader_SizeBytes = 0xFFFFFFFFu;
  58:Generated_Source\PSoC4/Bootloader.c **** #elif defined (__C51__)
  59:Generated_Source\PSoC4/Bootloader.c ****     const uint32 CYCODE Bootloader_SizeBytes = 0xFFFFFFFFu;
  60:Generated_Source\PSoC4/Bootloader.c **** #endif  /* defined(__ARMCC_VERSION) || defined (__GNUC__) */
  61:Generated_Source\PSoC4/Bootloader.c **** 
  62:Generated_Source\PSoC4/Bootloader.c **** const uint32 CYCODE *Bootloader_SizeBytesAccess = (const uint32 CYCODE *)(&Bootloader_SizeBytes);
  63:Generated_Source\PSoC4/Bootloader.c **** #endif /*(CYDEV_PROJ_TYPE != CYDEV_PROJ_TYPE_LOADABLEANDBOOTLOADER)*/
  64:Generated_Source\PSoC4/Bootloader.c **** 
  65:Generated_Source\PSoC4/Bootloader.c **** /**
  66:Generated_Source\PSoC4/Bootloader.c ****  \defgroup variables_group Variables
  67:Generated_Source\PSoC4/Bootloader.c ****  @{
  68:Generated_Source\PSoC4/Bootloader.c **** */
  69:Generated_Source\PSoC4/Bootloader.c **** #if (CYDEV_PROJ_TYPE == CYDEV_PROJ_TYPE_LOADABLEANDBOOTLOADER) 
  70:Generated_Source\PSoC4/Bootloader.c **** /**
  71:Generated_Source\PSoC4/Bootloader.c ****  *  This variable is intended to indicate that in-application 
  72:Generated_Source\PSoC4/Bootloader.c ****  *  bootloading initialization is done. The initialization itself is performed in the
  73:Generated_Source\PSoC4/Bootloader.c ****  *  Bootloader_Initialize() function. Once the initialization is done,
  74:Generated_Source\PSoC4/Bootloader.c ****  *  the variable is set and this prevents the functionality from reinitialization.
  75:Generated_Source\PSoC4/Bootloader.c ****  */
  76:Generated_Source\PSoC4/Bootloader.c **** uint8 Bootloader_initVar = Bootloader_BOOTLOADING_NOT_INITIALIZED;
  77:Generated_Source\PSoC4/Bootloader.c **** 
  78:Generated_Source\PSoC4/Bootloader.c **** /**
  79:Generated_Source\PSoC4/Bootloader.c ****  *  This variable is intended to keep the current application number. It applies
  80:Generated_Source\PSoC4/Bootloader.c ****  *  only to in-application bootloading.
  81:Generated_Source\PSoC4/Bootloader.c ****  */
  82:Generated_Source\PSoC4/Bootloader.c **** uint8 Bootloader_runningApp = Bootloader_RUNNING_APPLICATION_UNKNOWN;
  83:Generated_Source\PSoC4/Bootloader.c **** 
  84:Generated_Source\PSoC4/Bootloader.c **** /**
  85:Generated_Source\PSoC4/Bootloader.c ****  *  This variable is intended to indicate that 'Enter bootloader' command has
  86:Generated_Source\PSoC4/Bootloader.c ****  *  been received. It applies only to in-application bootloading.
  87:Generated_Source\PSoC4/Bootloader.c ****  */
  88:Generated_Source\PSoC4/Bootloader.c **** uint8 Bootloader_isBootloading = Bootloader_BOOTLOADING_COMPLETED;
ARM GAS  C:\Users\VIDEOH~1\AppData\Local\Temp\ccEAPbdh.s 			page 3


  89:Generated_Source\PSoC4/Bootloader.c **** #endif /*CYDEV_PROJ_TYPE == CYDEV_PROJ_TYPE_LOADABLEANDBOOTLOADER*/
  90:Generated_Source\PSoC4/Bootloader.c **** 
  91:Generated_Source\PSoC4/Bootloader.c **** #if ((0u != Bootloader_DUAL_APP_BOOTLOADER)  || (CYDEV_PROJ_TYPE == CYDEV_PROJ_TYPE_LOADABLEANDBOOT
  92:Generated_Source\PSoC4/Bootloader.c **** /**
  93:Generated_Source\PSoC4/Bootloader.c ****  *  This variable is intended to keep the active application number. It applies
  94:Generated_Source\PSoC4/Bootloader.c ****  *  to Classic Dual-app Bootloader and in-application bootloading.
  95:Generated_Source\PSoC4/Bootloader.c ****  */
  96:Generated_Source\PSoC4/Bootloader.c **** volatile uint8 Bootloader_activeApp = Bootloader_MD_BTLDB_ACTIVE_NONE;
  97:Generated_Source\PSoC4/Bootloader.c **** #else /*SINGLE-APP BOOTLOADER*/
  98:Generated_Source\PSoC4/Bootloader.c ****     #define Bootloader_activeApp      (Bootloader_MD_BTLDB_ACTIVE_0)
  99:Generated_Source\PSoC4/Bootloader.c **** #endif  /* (0u != Bootloader_DUAL_APP_BOOTLOADER) */
 100:Generated_Source\PSoC4/Bootloader.c **** 
 101:Generated_Source\PSoC4/Bootloader.c **** 
 102:Generated_Source\PSoC4/Bootloader.c **** #if (0u != Bootloader_SECURITY_KEY_AVAIL) 
 103:Generated_Source\PSoC4/Bootloader.c **** /**
 104:Generated_Source\PSoC4/Bootloader.c ****  *  This variable holds the security key for additional safety during communication.
 105:Generated_Source\PSoC4/Bootloader.c ****  */
 106:Generated_Source\PSoC4/Bootloader.c **** static const uint8 CYCODE Bootloader_securityKey[Bootloader_SECURITY_KEY_LENGTH] = {0x11u, 0x22u, 0
 107:Generated_Source\PSoC4/Bootloader.c **** #endif /*(0u != Bootloader_SECURITY_KEY_AVAIL)*/
 108:Generated_Source\PSoC4/Bootloader.c **** 
 109:Generated_Source\PSoC4/Bootloader.c **** #if ((CYDEV_PROJ_TYPE != CYDEV_PROJ_TYPE_LAUNCHER) && (!CY_PSOC3))
 110:Generated_Source\PSoC4/Bootloader.c **** /**
 111:Generated_Source\PSoC4/Bootloader.c ****  *  This variable holds the pointer on the user's callback-function that implements the custom 
 112:Generated_Source\PSoC4/Bootloader.c ****  *  bootloader command processing.
 113:Generated_Source\PSoC4/Bootloader.c ****  */
 114:Generated_Source\PSoC4/Bootloader.c **** static Bootloader_callback_type Bootloader_callback = NULL;
 115:Generated_Source\PSoC4/Bootloader.c **** #endif /*(CYDEV_PROJ_TYPE != CYDEV_PROJ_TYPE_LAUNCHER) && (!CY_PSOC3)*/
 116:Generated_Source\PSoC4/Bootloader.c **** /** @}*/
 117:Generated_Source\PSoC4/Bootloader.c ****  
 118:Generated_Source\PSoC4/Bootloader.c **** /***************************************
 119:Generated_Source\PSoC4/Bootloader.c **** *     Function Prototypes
 120:Generated_Source\PSoC4/Bootloader.c **** ***************************************/
 121:Generated_Source\PSoC4/Bootloader.c **** #if (CYDEV_PROJ_TYPE != CYDEV_PROJ_TYPE_LOADABLEANDBOOTLOADER)
 122:Generated_Source\PSoC4/Bootloader.c ****     static void  Bootloader_LaunchApplication(void) CYSMALL \
 123:Generated_Source\PSoC4/Bootloader.c ****                     ; 
 124:Generated_Source\PSoC4/Bootloader.c **** #if(!CY_PSOC3)
 125:Generated_Source\PSoC4/Bootloader.c ****     /* Implementation for PSoC 3 resides in Bootloader_psoc3.a51 file.  */
 126:Generated_Source\PSoC4/Bootloader.c ****     static void     Bootloader_LaunchBootloadable(uint32 appAddr);
 127:Generated_Source\PSoC4/Bootloader.c **** #endif  /* (!CY_PSOC3) */
 128:Generated_Source\PSoC4/Bootloader.c **** #endif /* CYDEV_PROJ_TYPE != CYDEV_PROJ_TYPE_LOADABLEANDBOOTLOADER */ 
 129:Generated_Source\PSoC4/Bootloader.c **** 
 130:Generated_Source\PSoC4/Bootloader.c **** #if (CYDEV_PROJ_TYPE != CYDEV_PROJ_TYPE_LAUNCHER)
 131:Generated_Source\PSoC4/Bootloader.c ****     static cystatus Bootloader_WritePacket(uint8 status, uint8 buffer[], uint16 size) CYSMALL \
 132:Generated_Source\PSoC4/Bootloader.c ****                                     ;
 133:Generated_Source\PSoC4/Bootloader.c **** 
 134:Generated_Source\PSoC4/Bootloader.c ****     static uint16   Bootloader_CalcPacketChecksum(const uint8 buffer[], uint16 size) CYSMALL \
 135:Generated_Source\PSoC4/Bootloader.c ****                                     ;
 136:Generated_Source\PSoC4/Bootloader.c ****                                     
 137:Generated_Source\PSoC4/Bootloader.c ****     #if (0u != Bootloader_CMD_VERIFY_FLS_ROW_AVAIL)
 138:Generated_Source\PSoC4/Bootloader.c ****     static uint8 Bootloader_VerifyRow(uint32 flashStart, const uint8 ramStart[], uint16 size) \
 139:Generated_Source\PSoC4/Bootloader.c ****                 CYSMALL ;                                
 140:Generated_Source\PSoC4/Bootloader.c ****     #endif /*(0u != Bootloader_CMD_VERIFY_FLS_ROW_AVAIL)*/            
 141:Generated_Source\PSoC4/Bootloader.c **** 
 142:Generated_Source\PSoC4/Bootloader.c **** #if (CYDEV_PROJ_TYPE != CYDEV_PROJ_TYPE_LOADABLEANDBOOTLOADER)                                    
 143:Generated_Source\PSoC4/Bootloader.c ****     static void Bootloader_HostLink(uint8 timeOut) CYLARGE ;
 144:Generated_Source\PSoC4/Bootloader.c **** #endif /* (CYDEV_PROJ_TYPE != CYDEV_PROJ_TYPE_LOADABLEANDBOOTLOADER) */                            
 145:Generated_Source\PSoC4/Bootloader.c **** #endif /*(CYDEV_PROJ_TYPE != CYDEV_PROJ_TYPE_LAUNCHER)*/
ARM GAS  C:\Users\VIDEOH~1\AppData\Local\Temp\ccEAPbdh.s 			page 4


 146:Generated_Source\PSoC4/Bootloader.c ****                                     
 147:Generated_Source\PSoC4/Bootloader.c **** #if (((0u != Bootloader_DUAL_APP_BOOTLOADER) && (CYDEV_PROJ_TYPE != CYDEV_PROJ_TYPE_LAUNCHER)) \
 148:Generated_Source\PSoC4/Bootloader.c ****                                           || (CYDEV_PROJ_TYPE == CYDEV_PROJ_TYPE_LOADABLEANDBOOTLOA
 149:Generated_Source\PSoC4/Bootloader.c ****     static uint8 Bootloader_CheckImage(uint8 appNumber, uint8 arrayNumber, uint16 row, uint16 rowNu
 150:Generated_Source\PSoC4/Bootloader.c ****                                     ;                                    
 151:Generated_Source\PSoC4/Bootloader.c **** #endif /*(((0u != Bootloader_DUAL_APP_BOOTLOADER) && (CYDEV_PROJ_TYPE != CYDEV_PROJ_TYPE_LAUNCHER))
 152:Generated_Source\PSoC4/Bootloader.c ****                                           || (CYDEV_PROJ_TYPE == CYDEV_PROJ_TYPE_LOADABLEANDBOOTLOA
 153:Generated_Source\PSoC4/Bootloader.c **** 
 154:Generated_Source\PSoC4/Bootloader.c **** #if ((CYDEV_PROJ_TYPE == CYDEV_PROJ_TYPE_LOADABLEANDBOOTLOADER) || (0u != Bootloader_DUAL_APP_BOOTL
 155:Generated_Source\PSoC4/Bootloader.c ****     static void Bootloader_SetActiveAppInMetadata(uint8 activeApp) CYSMALL \
 156:Generated_Source\PSoC4/Bootloader.c ****                 ;
 157:Generated_Source\PSoC4/Bootloader.c **** #endif /* (CYDEV_PROJ_TYPE == CYDEV_PROJ_TYPE_LOADABLEANDBOOTLOADER) || (0u != Bootloader_DUAL_APP_
 158:Generated_Source\PSoC4/Bootloader.c **** 
 159:Generated_Source\PSoC4/Bootloader.c **** #if ((CYDEV_PROJ_TYPE == CYDEV_PROJ_TYPE_LOADABLEANDBOOTLOADER) || \
 160:Generated_Source\PSoC4/Bootloader.c ****      (CYDEV_PROJ_TYPE == CYDEV_PROJ_TYPE_MULTIAPPBOOTLOADER) || \
 161:Generated_Source\PSoC4/Bootloader.c ****      (CYDEV_PROJ_TYPE == CYDEV_PROJ_TYPE_LAUNCHER))
 162:Generated_Source\PSoC4/Bootloader.c ****     static uint8 Bootloader_GetActiveAppFromMetadata(void) CYSMALL \
 163:Generated_Source\PSoC4/Bootloader.c ****                 ;                     
 164:Generated_Source\PSoC4/Bootloader.c **** #endif /*((CYDEV_PROJ_TYPE == CYDEV_PROJ_TYPE_LOADABLEANDBOOTLOADER) || \
 165:Generated_Source\PSoC4/Bootloader.c ****           (CYDEV_PROJ_TYPE == CYDEV_PROJ_TYPE_MULTIAPPBOOTLOADER) || \
 166:Generated_Source\PSoC4/Bootloader.c ****           (CYDEV_PROJ_TYPE == CYDEV_PROJ_TYPE_LAUNCHER)) */
 167:Generated_Source\PSoC4/Bootloader.c ****           
 168:Generated_Source\PSoC4/Bootloader.c **** #if (CYDEV_PROJ_TYPE == CYDEV_PROJ_TYPE_LAUNCHER)
 169:Generated_Source\PSoC4/Bootloader.c **** #if ((0u != Bootloader_COPIER_AVAIL) && (CY_PSOC4)) 
 170:Generated_Source\PSoC4/Bootloader.c ****     static cystatus Bootloader_CopyRow(uint16 srcRowNum, uint16 dstRowNum) \
 171:Generated_Source\PSoC4/Bootloader.c ****                  CYSMALL ;
 172:Generated_Source\PSoC4/Bootloader.c ****     static void Bootloader_Copier(void) CYSMALL ;
 173:Generated_Source\PSoC4/Bootloader.c **** #endif /*(0u != Bootloader_COPIER_AVAIL) && (CY_PSOC4)*/
 174:Generated_Source\PSoC4/Bootloader.c **** #endif /*(CYDEV_PROJ_TYPE == CYDEV_PROJ_TYPE_LAUNCHER)*/
 175:Generated_Source\PSoC4/Bootloader.c ****                        
 176:Generated_Source\PSoC4/Bootloader.c **** 
 177:Generated_Source\PSoC4/Bootloader.c **** /**
 178:Generated_Source\PSoC4/Bootloader.c ****  \defgroup functions_group Functions
 179:Generated_Source\PSoC4/Bootloader.c ****  @{
 180:Generated_Source\PSoC4/Bootloader.c **** */
 181:Generated_Source\PSoC4/Bootloader.c **** #if ((CYDEV_PROJ_TYPE == CYDEV_PROJ_TYPE_LOADABLEANDBOOTLOADER) || \
 182:Generated_Source\PSoC4/Bootloader.c ****                                   (0u != Bootloader_DUAL_APP_BOOTLOADER))                          
 183:Generated_Source\PSoC4/Bootloader.c **** /*******************************************************************************
 184:Generated_Source\PSoC4/Bootloader.c **** * Function Name: Bootloader_SetActiveAppInMetadata
 185:Generated_Source\PSoC4/Bootloader.c **** ****************************************************************************//**
 186:Generated_Source\PSoC4/Bootloader.c **** * \internal
 187:Generated_Source\PSoC4/Bootloader.c **** *
 188:Generated_Source\PSoC4/Bootloader.c **** * \brief
 189:Generated_Source\PSoC4/Bootloader.c **** *    This function sets the active application in metadata.
 190:Generated_Source\PSoC4/Bootloader.c **** *    The other application is set inactive. 
 191:Generated_Source\PSoC4/Bootloader.c **** *
 192:Generated_Source\PSoC4/Bootloader.c **** * \param activeApp
 193:Generated_Source\PSoC4/Bootloader.c **** *   The active application number (0 or 1). If the active application number is
 194:Generated_Source\PSoC4/Bootloader.c **** *   greater than 1, then nothing is done.  
 195:Generated_Source\PSoC4/Bootloader.c **** *
 196:Generated_Source\PSoC4/Bootloader.c **** * \endinternal
 197:Generated_Source\PSoC4/Bootloader.c **** *******************************************************************************/
 198:Generated_Source\PSoC4/Bootloader.c **** static void Bootloader_SetActiveAppInMetadata(uint8 activeApp) CYSMALL \
 199:Generated_Source\PSoC4/Bootloader.c ****                      
 200:Generated_Source\PSoC4/Bootloader.c **** {
 201:Generated_Source\PSoC4/Bootloader.c ****     if (Bootloader_MD_BTLDB_ACTIVE_NONE > activeApp)
 202:Generated_Source\PSoC4/Bootloader.c ****     {
ARM GAS  C:\Users\VIDEOH~1\AppData\Local\Temp\ccEAPbdh.s 			page 5


 203:Generated_Source\PSoC4/Bootloader.c ****         uint8 CYDATA idx;    
 204:Generated_Source\PSoC4/Bootloader.c ****     #if(!CY_PSOC4)      
 205:Generated_Source\PSoC4/Bootloader.c ****         if (CYRET_SUCCESS != CySetTemp())
 206:Generated_Source\PSoC4/Bootloader.c ****         {
 207:Generated_Source\PSoC4/Bootloader.c ****             CyHalt(0x00u);
 208:Generated_Source\PSoC4/Bootloader.c ****         }
 209:Generated_Source\PSoC4/Bootloader.c ****     #endif  /* (!CY_PSOC4) */    
 210:Generated_Source\PSoC4/Bootloader.c ****         for(idx = 0u; idx < Bootloader_MAX_NUM_OF_BTLDB; idx++)
 211:Generated_Source\PSoC4/Bootloader.c ****         {
 212:Generated_Source\PSoC4/Bootloader.c ****             (void)Bootloader_SetFlashByte((uint32) Bootloader_MD_BTLDB_ACTIVE_OFFSET(idx),
 213:Generated_Source\PSoC4/Bootloader.c ****                                                 (uint8)(idx == activeApp));
 214:Generated_Source\PSoC4/Bootloader.c ****         }
 215:Generated_Source\PSoC4/Bootloader.c ****     }    
 216:Generated_Source\PSoC4/Bootloader.c **** }
 217:Generated_Source\PSoC4/Bootloader.c **** #endif /* (CYDEV_PROJ_TYPE == CYDEV_PROJ_TYPE_LOADABLEANDBOOTLOADER) || 
 218:Generated_Source\PSoC4/Bootloader.c ****                            (0u != Bootloader_DUAL_APP_BOOTLOADER) */ 
 219:Generated_Source\PSoC4/Bootloader.c **** 
 220:Generated_Source\PSoC4/Bootloader.c **** #if ((CYDEV_PROJ_TYPE == CYDEV_PROJ_TYPE_LOADABLEANDBOOTLOADER) || \
 221:Generated_Source\PSoC4/Bootloader.c ****      (CYDEV_PROJ_TYPE == CYDEV_PROJ_TYPE_MULTIAPPBOOTLOADER) || \
 222:Generated_Source\PSoC4/Bootloader.c ****      (CYDEV_PROJ_TYPE == CYDEV_PROJ_TYPE_LAUNCHER))                   
 223:Generated_Source\PSoC4/Bootloader.c **** /*******************************************************************************
 224:Generated_Source\PSoC4/Bootloader.c **** * Function Name: Bootloader_GetActiveAppFromMetadata
 225:Generated_Source\PSoC4/Bootloader.c **** ****************************************************************************//**
 226:Generated_Source\PSoC4/Bootloader.c **** * \internal
 227:Generated_Source\PSoC4/Bootloader.c **** *
 228:Generated_Source\PSoC4/Bootloader.c **** * \brief
 229:Generated_Source\PSoC4/Bootloader.c **** *    This function performs reading of both metadata sections to
 230:Generated_Source\PSoC4/Bootloader.c **** *    identify an active application. If none application is set active, 
 231:Generated_Source\PSoC4/Bootloader.c **** *    then Bootloader_MD_BTLDB_ACTIVE_NONE (0x02) is returned.
 232:Generated_Source\PSoC4/Bootloader.c **** *
 233:Generated_Source\PSoC4/Bootloader.c **** * \return
 234:Generated_Source\PSoC4/Bootloader.c **** *   The number of active applications. In the case of error:
 235:Generated_Source\PSoC4/Bootloader.c **** *   -  Bootloader_MD_BTLDB_ACTIVE_NONE (0x02) - neither application is initialized;
 236:Generated_Source\PSoC4/Bootloader.c **** *   -  Bootloader_BOTH_ACTIVE (0x03) - both applications are set active;
 237:Generated_Source\PSoC4/Bootloader.c **** *
 238:Generated_Source\PSoC4/Bootloader.c **** * \endinternal 
 239:Generated_Source\PSoC4/Bootloader.c **** *******************************************************************************/
 240:Generated_Source\PSoC4/Bootloader.c **** static  uint8 Bootloader_GetActiveAppFromMetadata(void) CYSMALL \
 241:Generated_Source\PSoC4/Bootloader.c ****        
 242:Generated_Source\PSoC4/Bootloader.c **** {
 243:Generated_Source\PSoC4/Bootloader.c ****     uint8 CYDATA result;
 244:Generated_Source\PSoC4/Bootloader.c ****     uint8 CYDATA app0 = (uint8)Bootloader_GetMetadata(Bootloader_GET_BTLDB_ACTIVE, 
 245:Generated_Source\PSoC4/Bootloader.c ****                                                      Bootloader_MD_BTLDB_ACTIVE_0);
 246:Generated_Source\PSoC4/Bootloader.c ****     uint8 CYDATA app1 = (uint8)Bootloader_GetMetadata(Bootloader_GET_BTLDB_ACTIVE, 
 247:Generated_Source\PSoC4/Bootloader.c ****                                                      Bootloader_MD_BTLDB_ACTIVE_1);        
 248:Generated_Source\PSoC4/Bootloader.c **** 
 249:Generated_Source\PSoC4/Bootloader.c ****     if (0u != app0)                                                     
 250:Generated_Source\PSoC4/Bootloader.c ****     {
 251:Generated_Source\PSoC4/Bootloader.c ****         if (0u == app1)
 252:Generated_Source\PSoC4/Bootloader.c ****         {
 253:Generated_Source\PSoC4/Bootloader.c ****             /* app0 is active */
 254:Generated_Source\PSoC4/Bootloader.c ****             result = Bootloader_MD_BTLDB_ACTIVE_0;
 255:Generated_Source\PSoC4/Bootloader.c ****         }
 256:Generated_Source\PSoC4/Bootloader.c ****         else 
 257:Generated_Source\PSoC4/Bootloader.c ****         {
 258:Generated_Source\PSoC4/Bootloader.c ****             /* Both are active */
 259:Generated_Source\PSoC4/Bootloader.c ****             result = Bootloader_BOTH_ACTIVE;
ARM GAS  C:\Users\VIDEOH~1\AppData\Local\Temp\ccEAPbdh.s 			page 6


 260:Generated_Source\PSoC4/Bootloader.c ****         }
 261:Generated_Source\PSoC4/Bootloader.c ****     }
 262:Generated_Source\PSoC4/Bootloader.c ****     else /* (0u == app0) */
 263:Generated_Source\PSoC4/Bootloader.c ****     {
 264:Generated_Source\PSoC4/Bootloader.c ****         if (0u != app1)
 265:Generated_Source\PSoC4/Bootloader.c ****         {
 266:Generated_Source\PSoC4/Bootloader.c ****             /* app1 is active */
 267:Generated_Source\PSoC4/Bootloader.c ****             result = Bootloader_MD_BTLDB_ACTIVE_1;
 268:Generated_Source\PSoC4/Bootloader.c ****         }
 269:Generated_Source\PSoC4/Bootloader.c ****         else
 270:Generated_Source\PSoC4/Bootloader.c ****         {
 271:Generated_Source\PSoC4/Bootloader.c ****             /* Neither app is active. */
 272:Generated_Source\PSoC4/Bootloader.c ****             result = Bootloader_MD_BTLDB_ACTIVE_NONE;
 273:Generated_Source\PSoC4/Bootloader.c ****         }          
 274:Generated_Source\PSoC4/Bootloader.c ****     }
 275:Generated_Source\PSoC4/Bootloader.c **** 
 276:Generated_Source\PSoC4/Bootloader.c ****     return (result);
 277:Generated_Source\PSoC4/Bootloader.c **** }
 278:Generated_Source\PSoC4/Bootloader.c **** #endif /*((CYDEV_PROJ_TYPE == CYDEV_PROJ_TYPE_LOADABLEANDBOOTLOADER) || \
 279:Generated_Source\PSoC4/Bootloader.c ****           (CYDEV_PROJ_TYPE == CYDEV_PROJ_TYPE_MULTIAPPBOOTLOADER) || \
 280:Generated_Source\PSoC4/Bootloader.c ****           (CYDEV_PROJ_TYPE == CYDEV_PROJ_TYPE_LAUNCHER)) */
 281:Generated_Source\PSoC4/Bootloader.c ****         
 282:Generated_Source\PSoC4/Bootloader.c **** #if (CYDEV_PROJ_TYPE == CYDEV_PROJ_TYPE_LOADABLEANDBOOTLOADER)
 283:Generated_Source\PSoC4/Bootloader.c **** /*******************************************************************************
 284:Generated_Source\PSoC4/Bootloader.c **** * Function Name: Bootloader_Initialize
 285:Generated_Source\PSoC4/Bootloader.c **** ****************************************************************************//**
 286:Generated_Source\PSoC4/Bootloader.c **** * 
 287:Generated_Source\PSoC4/Bootloader.c **** * \brief 
 288:Generated_Source\PSoC4/Bootloader.c **** *   Used for in-app bootloading. This function updates the global variable 
 289:Generated_Source\PSoC4/Bootloader.c **** *   Bootloader_runningApp with a running application number.
 290:Generated_Source\PSoC4/Bootloader.c **** *
 291:Generated_Source\PSoC4/Bootloader.c **** *   If the running application number is valid (0 or 1), this function also 
 292:Generated_Source\PSoC4/Bootloader.c **** *   sets the global variable Bootloader_initVar that is used to determine 
 293:Generated_Source\PSoC4/Bootloader.c **** *   if the component can process bootloader commands or not.
 294:Generated_Source\PSoC4/Bootloader.c **** *   This function should be called once in the application project after a startup.
 295:Generated_Source\PSoC4/Bootloader.c **** *
 296:Generated_Source\PSoC4/Bootloader.c **** * \return
 297:Generated_Source\PSoC4/Bootloader.c **** *   Global variables: 
 298:Generated_Source\PSoC4/Bootloader.c **** *     - Bootloader_runningApp
 299:Generated_Source\PSoC4/Bootloader.c **** *     - Bootloader_activeApp
 300:Generated_Source\PSoC4/Bootloader.c **** *     - Bootloader_initVar
 301:Generated_Source\PSoC4/Bootloader.c **** *
 302:Generated_Source\PSoC4/Bootloader.c **** * \details 
 303:Generated_Source\PSoC4/Bootloader.c **** *   This API should be called first to be able to capture the active application 
 304:Generated_Source\PSoC4/Bootloader.c **** *   number that is actually the running application number.
 305:Generated_Source\PSoC4/Bootloader.c **** *******************************************************************************/
 306:Generated_Source\PSoC4/Bootloader.c **** void Bootloader_Initialize(void) CYSMALL \
 307:Generated_Source\PSoC4/Bootloader.c ****                                
 308:Generated_Source\PSoC4/Bootloader.c **** {
 309:Generated_Source\PSoC4/Bootloader.c ****     if (Bootloader_BOOTLOADING_NOT_INITIALIZED ==Bootloader_initVar)
 310:Generated_Source\PSoC4/Bootloader.c ****     {
 311:Generated_Source\PSoC4/Bootloader.c ****         Bootloader_activeApp = Bootloader_GetActiveAppFromMetadata();
 312:Generated_Source\PSoC4/Bootloader.c ****         
 313:Generated_Source\PSoC4/Bootloader.c ****         /* Updating with number of active application */    
 314:Generated_Source\PSoC4/Bootloader.c ****         if ((Bootloader_MD_BTLDB_ACTIVE_NONE != Bootloader_activeApp) &&
 315:Generated_Source\PSoC4/Bootloader.c ****             (Bootloader_BOTH_ACTIVE != Bootloader_activeApp))
 316:Generated_Source\PSoC4/Bootloader.c ****         {
ARM GAS  C:\Users\VIDEOH~1\AppData\Local\Temp\ccEAPbdh.s 			page 7


 317:Generated_Source\PSoC4/Bootloader.c ****             Bootloader_runningApp = Bootloader_activeApp;
 318:Generated_Source\PSoC4/Bootloader.c ****             
 319:Generated_Source\PSoC4/Bootloader.c ****             /* Bootloader commands are to be processed */
 320:Generated_Source\PSoC4/Bootloader.c ****             Bootloader_initVar = Bootloader_BOOTLADING_INITIALIZED;
 321:Generated_Source\PSoC4/Bootloader.c ****         }
 322:Generated_Source\PSoC4/Bootloader.c ****         else 
 323:Generated_Source\PSoC4/Bootloader.c ****         {
 324:Generated_Source\PSoC4/Bootloader.c ****             Bootloader_runningApp = Bootloader_RUNNING_APPLICATION_UNKNOWN;
 325:Generated_Source\PSoC4/Bootloader.c ****         }
 326:Generated_Source\PSoC4/Bootloader.c ****     }
 327:Generated_Source\PSoC4/Bootloader.c **** }
 328:Generated_Source\PSoC4/Bootloader.c **** 
 329:Generated_Source\PSoC4/Bootloader.c **** /*****************************************************************************
 330:Generated_Source\PSoC4/Bootloader.c **** * Function Name: Bootloader_GetRunningAppStatus
 331:Generated_Source\PSoC4/Bootloader.c **** **************************************************************************//**
 332:Generated_Source\PSoC4/Bootloader.c **** *
 333:Generated_Source\PSoC4/Bootloader.c **** * \brief 
 334:Generated_Source\PSoC4/Bootloader.c **** *   Used for dual-app or in-app bootloader. Returns the value of the global 
 335:Generated_Source\PSoC4/Bootloader.c **** *   variable Bootloader_runningApp. This function should be called only after the 
 336:Generated_Source\PSoC4/Bootloader.c **** *   Bootloader_Initialize() has been called once.
 337:Generated_Source\PSoC4/Bootloader.c **** *
 338:Generated_Source\PSoC4/Bootloader.c **** * \return 
 339:Generated_Source\PSoC4/Bootloader.c **** *   The application number that is currently being executed. Values are 0 or 1; 
 340:Generated_Source\PSoC4/Bootloader.c **** *     other values indicate "not defined".
 341:Generated_Source\PSoC4/Bootloader.c **** *
 342:Generated_Source\PSoC4/Bootloader.c **** *******************************************************************************/
 343:Generated_Source\PSoC4/Bootloader.c **** uint8 Bootloader_GetRunningAppStatus(void) CYSMALL \
 344:Generated_Source\PSoC4/Bootloader.c ****             
 345:Generated_Source\PSoC4/Bootloader.c **** {  
 346:Generated_Source\PSoC4/Bootloader.c ****     return (Bootloader_runningApp);
 347:Generated_Source\PSoC4/Bootloader.c **** }
 348:Generated_Source\PSoC4/Bootloader.c **** 
 349:Generated_Source\PSoC4/Bootloader.c **** 
 350:Generated_Source\PSoC4/Bootloader.c **** /*******************************************************************************
 351:Generated_Source\PSoC4/Bootloader.c **** * Function Name: Bootloader_GetActiveAppStatus
 352:Generated_Source\PSoC4/Bootloader.c **** ****************************************************************************//**
 353:Generated_Source\PSoC4/Bootloader.c **** *
 354:Generated_Source\PSoC4/Bootloader.c **** * \brief 
 355:Generated_Source\PSoC4/Bootloader.c **** *   Used for dual-app or in-app bootloader. Returns the value of the global 
 356:Generated_Source\PSoC4/Bootloader.c **** *   variable Bootloader_activeApp. This function should be called only after the 
 357:Generated_Source\PSoC4/Bootloader.c **** *   Bootloader_Initialize() has been called once.
 358:Generated_Source\PSoC4/Bootloader.c **** *
 359:Generated_Source\PSoC4/Bootloader.c **** * \return 
 360:Generated_Source\PSoC4/Bootloader.c **** *   The desired application to be executed. Values are 0 or 1; other values 
 361:Generated_Source\PSoC4/Bootloader.c **** *     indicate "not defined".
 362:Generated_Source\PSoC4/Bootloader.c **** *
 363:Generated_Source\PSoC4/Bootloader.c **** *******************************************************************************/
 364:Generated_Source\PSoC4/Bootloader.c **** uint8 Bootloader_GetActiveAppStatus(void) CYSMALL \
 365:Generated_Source\PSoC4/Bootloader.c ****       
 366:Generated_Source\PSoC4/Bootloader.c **** {  
 367:Generated_Source\PSoC4/Bootloader.c ****     /* Read active application number from metadata */
 368:Generated_Source\PSoC4/Bootloader.c ****     Bootloader_activeApp = Bootloader_GetActiveAppFromMetadata();
 369:Generated_Source\PSoC4/Bootloader.c ****     
 370:Generated_Source\PSoC4/Bootloader.c ****     return (Bootloader_activeApp);
 371:Generated_Source\PSoC4/Bootloader.c **** }
 372:Generated_Source\PSoC4/Bootloader.c **** #endif /*(CYDEV_PROJ_TYPE == CYDEV_PROJ_TYPE_LOADABLEANDBOOTLOADER)*/
 373:Generated_Source\PSoC4/Bootloader.c **** 
ARM GAS  C:\Users\VIDEOH~1\AppData\Local\Temp\ccEAPbdh.s 			page 8


 374:Generated_Source\PSoC4/Bootloader.c **** #if (CYDEV_PROJ_TYPE != CYDEV_PROJ_TYPE_LAUNCHER)
 375:Generated_Source\PSoC4/Bootloader.c **** /*******************************************************************************
 376:Generated_Source\PSoC4/Bootloader.c **** * Function Name: Bootloader_CalcPacketChecksum
 377:Generated_Source\PSoC4/Bootloader.c **** ****************************************************************************//**
 378:Generated_Source\PSoC4/Bootloader.c **** *  \internal
 379:Generated_Source\PSoC4/Bootloader.c **** *
 380:Generated_Source\PSoC4/Bootloader.c **** *  \brief
 381:Generated_Source\PSoC4/Bootloader.c **** *     This computes a 16-bit checksum for the provided number of bytes contained
 382:Generated_Source\PSoC4/Bootloader.c **** *     in the provided buffer.
 383:Generated_Source\PSoC4/Bootloader.c **** *
 384:Generated_Source\PSoC4/Bootloader.c **** *  \param buffer
 385:Generated_Source\PSoC4/Bootloader.c **** *     The buffer containing the data to compute the checksum.
 386:Generated_Source\PSoC4/Bootloader.c **** *  \param size
 387:Generated_Source\PSoC4/Bootloader.c **** *     The number of bytes in the buffer to compute the checksum.
 388:Generated_Source\PSoC4/Bootloader.c **** *
 389:Generated_Source\PSoC4/Bootloader.c **** *  \return 
 390:Generated_Source\PSoC4/Bootloader.c **** *     A 16-bit checksum for the provided data.
 391:Generated_Source\PSoC4/Bootloader.c **** *
 392:Generated_Source\PSoC4/Bootloader.c **** *  \endinternal
 393:Generated_Source\PSoC4/Bootloader.c **** *******************************************************************************/
 394:Generated_Source\PSoC4/Bootloader.c **** static uint16 Bootloader_CalcPacketChecksum(const uint8 buffer[], uint16 size) \
 395:Generated_Source\PSoC4/Bootloader.c ****                     CYSMALL 
 396:Generated_Source\PSoC4/Bootloader.c **** {
  27              		.loc 1 396 0
  28              		.cfi_startproc
  29              		@ args = 0, pretend = 0, frame = 0
  30              		@ frame_needed = 0, uses_anonymous_args = 0
  31              	.LVL0:
  32 0000 70B5     		push	{r4, r5, r6, lr}
  33              		.cfi_def_cfa_offset 16
  34              		.cfi_offset 4, -16
  35              		.cfi_offset 5, -12
  36              		.cfi_offset 6, -8
  37              		.cfi_offset 14, -4
  38              	.LVL1:
 397:Generated_Source\PSoC4/Bootloader.c ****     #if(0u != Bootloader_PACKET_CHECKSUM_CRC)
 398:Generated_Source\PSoC4/Bootloader.c **** 
 399:Generated_Source\PSoC4/Bootloader.c ****         uint16 CYDATA crc = Bootloader_CRC_CCITT_INITIAL_VALUE;
 400:Generated_Source\PSoC4/Bootloader.c ****         uint16 CYDATA tmp;
 401:Generated_Source\PSoC4/Bootloader.c ****         uint8  CYDATA i;
 402:Generated_Source\PSoC4/Bootloader.c ****         uint16 CYDATA tmpIndex = size;
 403:Generated_Source\PSoC4/Bootloader.c **** 
 404:Generated_Source\PSoC4/Bootloader.c ****         if(0u == size)
  39              		.loc 1 404 0
  40 0002 0029     		cmp	r1, #0
  41 0004 1FD0     		beq	.L8
  42 0006 0E00     		movs	r6, r1
  43 0008 104A     		ldr	r2, .L9
  44              	.LVL2:
  45              	.L7:
 405:Generated_Source\PSoC4/Bootloader.c ****         {
 406:Generated_Source\PSoC4/Bootloader.c ****             crc = ~crc;
 407:Generated_Source\PSoC4/Bootloader.c ****         }
 408:Generated_Source\PSoC4/Bootloader.c ****         else
 409:Generated_Source\PSoC4/Bootloader.c ****         {
 410:Generated_Source\PSoC4/Bootloader.c ****             do
 411:Generated_Source\PSoC4/Bootloader.c ****             {
ARM GAS  C:\Users\VIDEOH~1\AppData\Local\Temp\ccEAPbdh.s 			page 9


 412:Generated_Source\PSoC4/Bootloader.c ****                 tmp = buffer[tmpIndex - size];
  46              		.loc 1 412 0
  47 000a 8B1B     		subs	r3, r1, r6
  48 000c C45C     		ldrb	r4, [r0, r3]
  49              	.LVL3:
 413:Generated_Source\PSoC4/Bootloader.c **** 
 414:Generated_Source\PSoC4/Bootloader.c ****                 for (i = 0u; i < 8u; i++)
  50              		.loc 1 414 0
  51 000e 0023     		movs	r3, #0
  52 0010 0CE0     		b	.L3
  53              	.LVL4:
  54              	.L6:
 415:Generated_Source\PSoC4/Bootloader.c ****                 {
 416:Generated_Source\PSoC4/Bootloader.c ****                     if (0u != ((crc & 0x0001u) ^ (tmp & 0x0001u)))
  55              		.loc 1 416 0
  56 0012 1500     		movs	r5, r2
  57 0014 6540     		eors	r5, r4
  58 0016 ED07     		lsls	r5, r5, #31
  59 0018 04D5     		bpl	.L4
 417:Generated_Source\PSoC4/Bootloader.c ****                     {
 418:Generated_Source\PSoC4/Bootloader.c ****                         crc = (crc >> 1u) ^ Bootloader_CRC_CCITT_POLYNOMIAL;
  60              		.loc 1 418 0
  61 001a 5208     		lsrs	r2, r2, #1
  62              	.LVL5:
  63 001c 0C4D     		ldr	r5, .L9+4
  64 001e 6A40     		eors	r2, r5
  65 0020 92B2     		uxth	r2, r2
  66              	.LVL6:
  67 0022 00E0     		b	.L5
  68              	.L4:
 419:Generated_Source\PSoC4/Bootloader.c ****                     }
 420:Generated_Source\PSoC4/Bootloader.c ****                     else
 421:Generated_Source\PSoC4/Bootloader.c ****                     {
 422:Generated_Source\PSoC4/Bootloader.c ****                         crc >>= 1u;
  69              		.loc 1 422 0
  70 0024 5208     		lsrs	r2, r2, #1
  71              	.LVL7:
  72              	.L5:
 423:Generated_Source\PSoC4/Bootloader.c ****                     }
 424:Generated_Source\PSoC4/Bootloader.c **** 
 425:Generated_Source\PSoC4/Bootloader.c ****                     tmp >>= 1u;
  73              		.loc 1 425 0 discriminator 2
  74 0026 6408     		lsrs	r4, r4, #1
  75              	.LVL8:
 414:Generated_Source\PSoC4/Bootloader.c ****                 {
  76              		.loc 1 414 0 discriminator 2
  77 0028 0133     		adds	r3, r3, #1
  78              	.LVL9:
  79 002a DBB2     		uxtb	r3, r3
  80              	.LVL10:
  81              	.L3:
 414:Generated_Source\PSoC4/Bootloader.c ****                 {
  82              		.loc 1 414 0 is_stmt 0 discriminator 1
  83 002c 072B     		cmp	r3, #7
  84 002e F0D9     		bls	.L6
 426:Generated_Source\PSoC4/Bootloader.c ****                 }
 427:Generated_Source\PSoC4/Bootloader.c **** 
ARM GAS  C:\Users\VIDEOH~1\AppData\Local\Temp\ccEAPbdh.s 			page 10


 428:Generated_Source\PSoC4/Bootloader.c ****                 size--;
  85              		.loc 1 428 0 is_stmt 1
  86 0030 013E     		subs	r6, r6, #1
  87              	.LVL11:
  88 0032 B6B2     		uxth	r6, r6
  89              	.LVL12:
 429:Generated_Source\PSoC4/Bootloader.c ****             }
 430:Generated_Source\PSoC4/Bootloader.c ****             while(0u != size);
  90              		.loc 1 430 0
  91 0034 002E     		cmp	r6, #0
  92 0036 E8D1     		bne	.L7
 431:Generated_Source\PSoC4/Bootloader.c **** 
 432:Generated_Source\PSoC4/Bootloader.c ****             crc = ~crc;
  93              		.loc 1 432 0
  94 0038 D243     		mvns	r2, r2
  95              	.LVL13:
  96 003a 92B2     		uxth	r2, r2
  97              	.LVL14:
 433:Generated_Source\PSoC4/Bootloader.c ****             tmp = crc;
 434:Generated_Source\PSoC4/Bootloader.c ****             crc = ( uint16 )(crc << 8u) | (tmp >> 8u);
  98              		.loc 1 434 0
  99 003c 1002     		lsls	r0, r2, #8
 100              	.LVL15:
 101 003e 80B2     		uxth	r0, r0
 102 0040 120A     		lsrs	r2, r2, #8
 103              	.LVL16:
 104 0042 1043     		orrs	r0, r2
 105              	.LVL17:
 106 0044 00E0     		b	.L2
 107              	.LVL18:
 108              	.L8:
 406:Generated_Source\PSoC4/Bootloader.c ****         }
 109              		.loc 1 406 0
 110 0046 0020     		movs	r0, #0
 111              	.LVL19:
 112              	.L2:
 435:Generated_Source\PSoC4/Bootloader.c ****         }
 436:Generated_Source\PSoC4/Bootloader.c **** 
 437:Generated_Source\PSoC4/Bootloader.c ****         return(crc);
 438:Generated_Source\PSoC4/Bootloader.c **** 
 439:Generated_Source\PSoC4/Bootloader.c ****     #else
 440:Generated_Source\PSoC4/Bootloader.c **** 
 441:Generated_Source\PSoC4/Bootloader.c ****         uint16 CYDATA sum = 0u;
 442:Generated_Source\PSoC4/Bootloader.c **** 
 443:Generated_Source\PSoC4/Bootloader.c ****         while (size > 0u)
 444:Generated_Source\PSoC4/Bootloader.c ****         {
 445:Generated_Source\PSoC4/Bootloader.c ****             sum += buffer[size - 1u];
 446:Generated_Source\PSoC4/Bootloader.c ****             size--;
 447:Generated_Source\PSoC4/Bootloader.c ****         }
 448:Generated_Source\PSoC4/Bootloader.c **** 
 449:Generated_Source\PSoC4/Bootloader.c ****         return(( uint16 )1u + ( uint16 )(~sum));
 450:Generated_Source\PSoC4/Bootloader.c **** 
 451:Generated_Source\PSoC4/Bootloader.c ****     #endif /* (0u != Bootloader_PACKET_CHECKSUM_CRC) */
 452:Generated_Source\PSoC4/Bootloader.c **** }
 113              		.loc 1 452 0
 114              		@ sp needed
 115 0048 70BD     		pop	{r4, r5, r6, pc}
ARM GAS  C:\Users\VIDEOH~1\AppData\Local\Temp\ccEAPbdh.s 			page 11


 116              	.L10:
 117 004a C046     		.align	2
 118              	.L9:
 119 004c FFFF0000 		.word	65535
 120 0050 0884FFFF 		.word	-31736
 121              		.cfi_endproc
 122              	.LFE32:
 123              		.size	Bootloader_CalcPacketChecksum, .-Bootloader_CalcPacketChecksum
 124              		.section	.text.Bootloader_VerifyRow,"ax",%progbits
 125              		.align	2
 126              		.code	16
 127              		.thumb_func
 128              		.type	Bootloader_VerifyRow, %function
 129              	Bootloader_VerifyRow:
 130              	.LFB34:
 453:Generated_Source\PSoC4/Bootloader.c **** 
 454:Generated_Source\PSoC4/Bootloader.c **** #if (!CY_PSOC3)
 455:Generated_Source\PSoC4/Bootloader.c **** /*******************************************************************************
 456:Generated_Source\PSoC4/Bootloader.c **** * Function Name: Bootloader_InitCallback
 457:Generated_Source\PSoC4/Bootloader.c **** ****************************************************************************//**
 458:Generated_Source\PSoC4/Bootloader.c **** *
 459:Generated_Source\PSoC4/Bootloader.c **** * \brief
 460:Generated_Source\PSoC4/Bootloader.c **** *  This function initializes the callback functionality.
 461:Generated_Source\PSoC4/Bootloader.c **** *  
 462:Generated_Source\PSoC4/Bootloader.c **** * \param userCallback
 463:Generated_Source\PSoC4/Bootloader.c **** *  The user's callback function.
 464:Generated_Source\PSoC4/Bootloader.c **** *
 465:Generated_Source\PSoC4/Bootloader.c **** *******************************************************************************/
 466:Generated_Source\PSoC4/Bootloader.c **** void Bootloader_InitCallback(Bootloader_callback_type userCallback) \
 467:Generated_Source\PSoC4/Bootloader.c ****            CYSMALL 
 468:Generated_Source\PSoC4/Bootloader.c **** {
 469:Generated_Source\PSoC4/Bootloader.c ****     Bootloader_callback = userCallback;
 470:Generated_Source\PSoC4/Bootloader.c **** }
 471:Generated_Source\PSoC4/Bootloader.c **** #endif /* (!CY_PSOC3) */
 472:Generated_Source\PSoC4/Bootloader.c **** 
 473:Generated_Source\PSoC4/Bootloader.c **** 
 474:Generated_Source\PSoC4/Bootloader.c **** #if (0u != Bootloader_CMD_VERIFY_FLS_ROW_AVAIL)
 475:Generated_Source\PSoC4/Bootloader.c **** /*******************************************************************************
 476:Generated_Source\PSoC4/Bootloader.c **** * Function Name: Bootloader_VerifyRow
 477:Generated_Source\PSoC4/Bootloader.c **** ****************************************************************************//**
 478:Generated_Source\PSoC4/Bootloader.c **** *  \internal
 479:Generated_Source\PSoC4/Bootloader.c **** * 
 480:Generated_Source\PSoC4/Bootloader.c **** *  \brief
 481:Generated_Source\PSoC4/Bootloader.c **** *   This API performs a byte to byte verifying of the flash row against the data 
 482:Generated_Source\PSoC4/Bootloader.c **** *   in the input buffer. 
 483:Generated_Source\PSoC4/Bootloader.c **** *
 484:Generated_Source\PSoC4/Bootloader.c **** *  \param flashStart 
 485:Generated_Source\PSoC4/Bootloader.c **** *        The start address of a row in flash.
 486:Generated_Source\PSoC4/Bootloader.c **** *  \param ramStart 
 487:Generated_Source\PSoC4/Bootloader.c **** *        The start address of corresponding data to compare in the RAM buffer.
 488:Generated_Source\PSoC4/Bootloader.c **** *  \param size 
 489:Generated_Source\PSoC4/Bootloader.c **** *        The data length (common for both arrays).
 490:Generated_Source\PSoC4/Bootloader.c **** *
 491:Generated_Source\PSoC4/Bootloader.c **** *  \return
 492:Generated_Source\PSoC4/Bootloader.c **** *   CYRET_SUCCESS - If all data matches.
 493:Generated_Source\PSoC4/Bootloader.c **** *  \n Bootloader_ERR_VERIFY - If there is any mismatch.
 494:Generated_Source\PSoC4/Bootloader.c **** *
ARM GAS  C:\Users\VIDEOH~1\AppData\Local\Temp\ccEAPbdh.s 			page 12


 495:Generated_Source\PSoC4/Bootloader.c **** * \endinternal 
 496:Generated_Source\PSoC4/Bootloader.c **** *******************************************************************************/
 497:Generated_Source\PSoC4/Bootloader.c **** static uint8 Bootloader_VerifyRow(uint32 flashStart, const uint8 ramStart[], uint16 size) \
 498:Generated_Source\PSoC4/Bootloader.c ****                 CYSMALL 
 499:Generated_Source\PSoC4/Bootloader.c **** {
 131              		.loc 1 499 0
 132              		.cfi_startproc
 133              		@ args = 0, pretend = 0, frame = 0
 134              		@ frame_needed = 0, uses_anonymous_args = 0
 135              	.LVL20:
 136 0000 30B5     		push	{r4, r5, lr}
 137              		.cfi_def_cfa_offset 12
 138              		.cfi_offset 4, -12
 139              		.cfi_offset 5, -8
 140              		.cfi_offset 14, -4
 141              	.LVL21:
 500:Generated_Source\PSoC4/Bootloader.c ****     uint8 CYDATA result = CYRET_SUCCESS;
 501:Generated_Source\PSoC4/Bootloader.c ****     uint16 CYDATA idx;
 502:Generated_Source\PSoC4/Bootloader.c **** 
 503:Generated_Source\PSoC4/Bootloader.c ****     for(idx = 0u; idx < size; idx++)
 142              		.loc 1 503 0
 143 0002 0023     		movs	r3, #0
 144 0004 07E0     		b	.L12
 145              	.LVL22:
 146              	.L14:
 504:Generated_Source\PSoC4/Bootloader.c ****     {
 505:Generated_Source\PSoC4/Bootloader.c ****         if (CY_GET_XTND_REG8((uint8 CYFAR *)(flashStart + idx)) != ramStart[idx])
 147              		.loc 1 505 0
 148 0006 1C18     		adds	r4, r3, r0
 149 0008 2478     		ldrb	r4, [r4]
 150 000a E4B2     		uxtb	r4, r4
 151 000c CD5C     		ldrb	r5, [r1, r3]
 152 000e AC42     		cmp	r4, r5
 153 0010 05D1     		bne	.L15
 503:Generated_Source\PSoC4/Bootloader.c ****     {
 154              		.loc 1 503 0 discriminator 2
 155 0012 0133     		adds	r3, r3, #1
 156              	.LVL23:
 157 0014 9BB2     		uxth	r3, r3
 158              	.LVL24:
 159              	.L12:
 503:Generated_Source\PSoC4/Bootloader.c ****     {
 160              		.loc 1 503 0 is_stmt 0 discriminator 1
 161 0016 9342     		cmp	r3, r2
 162 0018 F5D3     		bcc	.L14
 500:Generated_Source\PSoC4/Bootloader.c ****     uint8 CYDATA result = CYRET_SUCCESS;
 163              		.loc 1 500 0 is_stmt 1
 164 001a 0020     		movs	r0, #0
 165              	.LVL25:
 166 001c 00E0     		b	.L13
 167              	.LVL26:
 168              	.L15:
 506:Generated_Source\PSoC4/Bootloader.c ****         {
 507:Generated_Source\PSoC4/Bootloader.c ****             result = Bootloader_ERR_VERIFY;
 169              		.loc 1 507 0
 170 001e 0220     		movs	r0, #2
 171              	.LVL27:
ARM GAS  C:\Users\VIDEOH~1\AppData\Local\Temp\ccEAPbdh.s 			page 13


 172              	.L13:
 508:Generated_Source\PSoC4/Bootloader.c ****             break;
 509:Generated_Source\PSoC4/Bootloader.c ****         }    
 510:Generated_Source\PSoC4/Bootloader.c ****     }
 511:Generated_Source\PSoC4/Bootloader.c **** 
 512:Generated_Source\PSoC4/Bootloader.c ****     return (result);
 513:Generated_Source\PSoC4/Bootloader.c **** }
 173              		.loc 1 513 0
 174              		@ sp needed
 175 0020 30BD     		pop	{r4, r5, pc}
 176              		.cfi_endproc
 177              	.LFE34:
 178              		.size	Bootloader_VerifyRow, .-Bootloader_VerifyRow
 179 0022 C046     		.section	.text.Bootloader_LaunchBootloadable,"ax",%progbits
 180              		.align	2
 181              		.code	16
 182              		.thumb_func
 183              		.type	Bootloader_LaunchBootloadable, %function
 184              	Bootloader_LaunchBootloadable:
 185              	.LFB40:
 514:Generated_Source\PSoC4/Bootloader.c **** #endif /*(0u != Bootloader_CMD_VERIFY_FLS_ROW_AVAIL)*/
 515:Generated_Source\PSoC4/Bootloader.c **** #endif /*CYDEV_PROJ_TYPE != CYDEV_PROJ_TYPE_LAUNCHER*/
 516:Generated_Source\PSoC4/Bootloader.c **** 
 517:Generated_Source\PSoC4/Bootloader.c **** 
 518:Generated_Source\PSoC4/Bootloader.c **** /*******************************************************************************
 519:Generated_Source\PSoC4/Bootloader.c **** * Function Name: Bootloader_Calc8BitSum
 520:Generated_Source\PSoC4/Bootloader.c **** ****************************************************************************//**
 521:Generated_Source\PSoC4/Bootloader.c **** *
 522:Generated_Source\PSoC4/Bootloader.c **** * \brief
 523:Generated_Source\PSoC4/Bootloader.c **** *  This computes an 8-bit sum for the provided number of bytes contained in
 524:Generated_Source\PSoC4/Bootloader.c **** *  flash (if baseAddr equals CY_FLASH_BASE) or EEPROM (if baseAddr equals
 525:Generated_Source\PSoC4/Bootloader.c **** *  CY_EEPROM_BASE).
 526:Generated_Source\PSoC4/Bootloader.c **** *
 527:Generated_Source\PSoC4/Bootloader.c **** * \param baseAddr
 528:Generated_Source\PSoC4/Bootloader.c **** *   CY_FLASH_BASE
 529:Generated_Source\PSoC4/Bootloader.c **** *   CY_EEPROM_BASE - applicable only for PSoC 3 / PSoC 5LP devices.
 530:Generated_Source\PSoC4/Bootloader.c **** *
 531:Generated_Source\PSoC4/Bootloader.c **** * \param start
 532:Generated_Source\PSoC4/Bootloader.c **** *     The starting address to start summing data.
 533:Generated_Source\PSoC4/Bootloader.c **** * \param size
 534:Generated_Source\PSoC4/Bootloader.c **** *     The number of bytes to read and compute the sum.
 535:Generated_Source\PSoC4/Bootloader.c **** *
 536:Generated_Source\PSoC4/Bootloader.c **** * \return
 537:Generated_Source\PSoC4/Bootloader.c **** *   An 8-bit sum for the provided data.
 538:Generated_Source\PSoC4/Bootloader.c **** *
 539:Generated_Source\PSoC4/Bootloader.c **** *******************************************************************************/
 540:Generated_Source\PSoC4/Bootloader.c **** uint8 Bootloader_Calc8BitSum(uint32 baseAddr, uint32 start, uint32 size) \
 541:Generated_Source\PSoC4/Bootloader.c ****                 CYSMALL 
 542:Generated_Source\PSoC4/Bootloader.c **** {
 543:Generated_Source\PSoC4/Bootloader.c ****     uint8 CYDATA sum = 0u;
 544:Generated_Source\PSoC4/Bootloader.c **** 
 545:Generated_Source\PSoC4/Bootloader.c ****     #if(!CY_PSOC4)
 546:Generated_Source\PSoC4/Bootloader.c ****         CYASSERT((baseAddr == CY_EEPROM_BASE) || (baseAddr == CY_FLASH_BASE));
 547:Generated_Source\PSoC4/Bootloader.c ****     #else
 548:Generated_Source\PSoC4/Bootloader.c ****         CYASSERT(baseAddr == CY_FLASH_BASE);
 549:Generated_Source\PSoC4/Bootloader.c ****     #endif  /* (!CY_PSOC4) */
 550:Generated_Source\PSoC4/Bootloader.c **** 
ARM GAS  C:\Users\VIDEOH~1\AppData\Local\Temp\ccEAPbdh.s 			page 14


 551:Generated_Source\PSoC4/Bootloader.c ****     while (size > 0u)
 552:Generated_Source\PSoC4/Bootloader.c ****     {
 553:Generated_Source\PSoC4/Bootloader.c ****         size--;
 554:Generated_Source\PSoC4/Bootloader.c ****         sum += CY_GET_XTND_REG8((uint8 CYFAR *)(baseAddr + start + size));
 555:Generated_Source\PSoC4/Bootloader.c ****     }
 556:Generated_Source\PSoC4/Bootloader.c **** 
 557:Generated_Source\PSoC4/Bootloader.c ****     return(sum);
 558:Generated_Source\PSoC4/Bootloader.c **** }
 559:Generated_Source\PSoC4/Bootloader.c **** 
 560:Generated_Source\PSoC4/Bootloader.c **** 
 561:Generated_Source\PSoC4/Bootloader.c **** #if (CYDEV_PROJ_TYPE == CYDEV_PROJ_TYPE_LAUNCHER)
 562:Generated_Source\PSoC4/Bootloader.c **** #if ((0u != Bootloader_COPIER_AVAIL) && (CY_PSOC4)) 
 563:Generated_Source\PSoC4/Bootloader.c **** /*******************************************************************************
 564:Generated_Source\PSoC4/Bootloader.c **** * Function Name: Bootloader_CopyRow
 565:Generated_Source\PSoC4/Bootloader.c **** ****************************************************************************//**
 566:Generated_Source\PSoC4/Bootloader.c **** * \internal
 567:Generated_Source\PSoC4/Bootloader.c **** *
 568:Generated_Source\PSoC4/Bootloader.c **** * \brief
 569:Generated_Source\PSoC4/Bootloader.c **** *   This function performs copying of a specified row to specified 
 570:Generated_Source\PSoC4/Bootloader.c **** *     location.
 571:Generated_Source\PSoC4/Bootloader.c **** *
 572:Generated_Source\PSoC4/Bootloader.c **** * \param
 573:Generated_Source\PSoC4/Bootloader.c **** *   srcRowNum - The number of a row to copy from.
 574:Generated_Source\PSoC4/Bootloader.c **** * \param             
 575:Generated_Source\PSoC4/Bootloader.c **** *   dstRowNum - The number of a row to be copied to.
 576:Generated_Source\PSoC4/Bootloader.c **** *
 577:Generated_Source\PSoC4/Bootloader.c **** * \return
 578:Generated_Source\PSoC4/Bootloader.c **** *   \n CYRET_SUCCESS - If everything went right. 
 579:Generated_Source\PSoC4/Bootloader.c **** *   \n Otherwise, produce an error code indicating a problem.  
 580:Generated_Source\PSoC4/Bootloader.c **** * 
 581:Generated_Source\PSoC4/Bootloader.c **** * \endinternal
 582:Generated_Source\PSoC4/Bootloader.c **** *******************************************************************************/
 583:Generated_Source\PSoC4/Bootloader.c **** static cystatus Bootloader_CopyRow(uint16 srcRowNum, uint16 dstRowNum) \
 584:Generated_Source\PSoC4/Bootloader.c ****                  CYSMALL 
 585:Generated_Source\PSoC4/Bootloader.c **** {
 586:Generated_Source\PSoC4/Bootloader.c ****     /*Buffer for row copy procedure*/
 587:Generated_Source\PSoC4/Bootloader.c ****     uint8  rowBuffer[CYDEV_FLS_ROW_SIZE];
 588:Generated_Source\PSoC4/Bootloader.c ****     cystatus result = CYRET_SUCCESS;
 589:Generated_Source\PSoC4/Bootloader.c **** 
 590:Generated_Source\PSoC4/Bootloader.c ****     uint32 srcBaseAddr = CYDEV_FLASH_BASE + srcRowNum * CYDEV_FLS_ROW_SIZE;
 591:Generated_Source\PSoC4/Bootloader.c ****     uint16 idx;
 592:Generated_Source\PSoC4/Bootloader.c **** 
 593:Generated_Source\PSoC4/Bootloader.c ****     for(idx = 0u; idx < CYDEV_FLS_ROW_SIZE; idx++)
 594:Generated_Source\PSoC4/Bootloader.c ****     {
 595:Generated_Source\PSoC4/Bootloader.c ****         rowBuffer[idx] = Bootloader_GET_CODE_BYTE(srcBaseAddr + idx);
 596:Generated_Source\PSoC4/Bootloader.c ****     }
 597:Generated_Source\PSoC4/Bootloader.c ****     
 598:Generated_Source\PSoC4/Bootloader.c ****     result = CySysFlashWriteRow((uint16) dstRowNum, rowBuffer);
 599:Generated_Source\PSoC4/Bootloader.c ****     
 600:Generated_Source\PSoC4/Bootloader.c ****     return (result);
 601:Generated_Source\PSoC4/Bootloader.c **** }
 602:Generated_Source\PSoC4/Bootloader.c **** 
 603:Generated_Source\PSoC4/Bootloader.c **** /*******************************************************************************
 604:Generated_Source\PSoC4/Bootloader.c **** * Function Name: Bootloader_Copier
 605:Generated_Source\PSoC4/Bootloader.c **** ****************************************************************************//**
 606:Generated_Source\PSoC4/Bootloader.c **** *  \internal
 607:Generated_Source\PSoC4/Bootloader.c **** *  
ARM GAS  C:\Users\VIDEOH~1\AppData\Local\Temp\ccEAPbdh.s 			page 15


 608:Generated_Source\PSoC4/Bootloader.c **** *  \brief
 609:Generated_Source\PSoC4/Bootloader.c **** *    This option is specific for Launcher-Combination architecture only and to 
 610:Generated_Source\PSoC4/Bootloader.c **** *    the case when there is a large communication component like BLE. To save 
 611:Generated_Source\PSoC4/Bootloader.c **** *    flash space for the user application, such a large communication component 
 612:Generated_Source\PSoC4/Bootloader.c **** *    is present only in the first application (Stack application) and is "shared" 
 613:Generated_Source\PSoC4/Bootloader.c **** *    with the second application (the user's application actually) by "Code 
 614:Generated_Source\PSoC4/Bootloader.c **** *    sharing feature" (See code sharing and BLE Upgradable Stack example project). 
 615:Generated_Source\PSoC4/Bootloader.c **** *
 616:Generated_Source\PSoC4/Bootloader.c **** * \n If this option is enabled and the "need-to-copy" flag is set in the second 
 617:Generated_Source\PSoC4/Bootloader.c **** *    application's metadata, Copier performs copying of a previously saved Stack 
 618:Generated_Source\PSoC4/Bootloader.c **** *    application image from a "temporary location" to the app#1 flash 
 619:Generated_Source\PSoC4/Bootloader.c **** *    space (over the current app#1).
 620:Generated_Source\PSoC4/Bootloader.c **** *   
 621:Generated_Source\PSoC4/Bootloader.c **** * \n Before performing the copying operation the new Stack application image 
 622:Generated_Source\PSoC4/Bootloader.c **** *    should be received and stored at the temporary location by the current 
 623:Generated_Source\PSoC4/Bootloader.c **** *    Stack application. The "need-to-copy" flag should be set in app#2 metadata 
 624:Generated_Source\PSoC4/Bootloader.c **** *    indicating that copying operation is required.
 625:Generated_Source\PSoC4/Bootloader.c **** *
 626:Generated_Source\PSoC4/Bootloader.c **** * \n The temporary location is half of the flash space that left after Launcher 
 627:Generated_Source\PSoC4/Bootloader.c **** *    and 2 metadata rows. This implies that Stack application should fit in 
 628:Generated_Source\PSoC4/Bootloader.c **** *    that half of the flash space. 
 629:Generated_Source\PSoC4/Bootloader.c **** *
 630:Generated_Source\PSoC4/Bootloader.c **** * \n The destination for the copy operation is obtained as the first row after 
 631:Generated_Source\PSoC4/Bootloader.c **** *    Launcher (from app#1 metadata). 
 632:Generated_Source\PSoC4/Bootloader.c **** *
 633:Generated_Source\PSoC4/Bootloader.c **** * \n The source of copy operation is the first row of temporary location that 
 634:Generated_Source\PSoC4/Bootloader.c **** *    is calculated by the following formula: 
 635:Generated_Source\PSoC4/Bootloader.c **** * \n     srcRow = (((CY_FLASH_NUMBER_ROWS - dstRow - metaRows) / 2) + dstRow);
 636:Generated_Source\PSoC4/Bootloader.c **** * \n     where:
 637:Generated_Source\PSoC4/Bootloader.c **** *          - dstRow - the destination's first row (mentioned above);
 638:Generated_Source\PSoC4/Bootloader.c **** *          - CY_FLASH_NUMBER_ROWS - number of all flash rows; 
 639:Generated_Source\PSoC4/Bootloader.c **** *          - metaRows - 2 metadata rows;   
 640:Generated_Source\PSoC4/Bootloader.c **** *
 641:Generated_Source\PSoC4/Bootloader.c **** * \n Copying itself means row-by-row copying of the stored application's image.
 642:Generated_Source\PSoC4/Bootloader.c **** *    If it fails to copy some row, there is a defined number of attempts 
 643:Generated_Source\PSoC4/Bootloader.c **** *    (Bootloader_MAX_ATTEMPTS) to try again. In case of no success, 
 644:Generated_Source\PSoC4/Bootloader.c **** *    a user callback function Launcher_CopierCallback() is called. 
 645:Generated_Source\PSoC4/Bootloader.c **** *    If it is not defined, then the device is going to be halted.
 646:Generated_Source\PSoC4/Bootloader.c **** * 
 647:Generated_Source\PSoC4/Bootloader.c **** * \n After performing the application image copying, in case of success 
 648:Generated_Source\PSoC4/Bootloader.c **** *    the app#2 metadata is copied in the stead of app#1 metadata and then
 649:Generated_Source\PSoC4/Bootloader.c **** *    app#2 metadata is cleared.
 650:Generated_Source\PSoC4/Bootloader.c **** *
 651:Generated_Source\PSoC4/Bootloader.c **** * \n A "need-to-copy" flag is cleared just after performing the app#1 image
 652:Generated_Source\PSoC4/Bootloader.c **** *    copying from the temporary location to avoid another consecutive 
 653:Generated_Source\PSoC4/Bootloader.c **** *    copying operation.
 654:Generated_Source\PSoC4/Bootloader.c **** *   
 655:Generated_Source\PSoC4/Bootloader.c **** * \endinternal 
 656:Generated_Source\PSoC4/Bootloader.c **** *******************************************************************************/
 657:Generated_Source\PSoC4/Bootloader.c **** static void Bootloader_Copier(void) CYSMALL \
 658:Generated_Source\PSoC4/Bootloader.c ****            
 659:Generated_Source\PSoC4/Bootloader.c **** {
 660:Generated_Source\PSoC4/Bootloader.c ****     uint16 idx = 0u;
 661:Generated_Source\PSoC4/Bootloader.c **** 
 662:Generated_Source\PSoC4/Bootloader.c ****     /* Number of attempts to perform copying again */
 663:Generated_Source\PSoC4/Bootloader.c ****     uint8 copierAttempts;
 664:Generated_Source\PSoC4/Bootloader.c ****     
ARM GAS  C:\Users\VIDEOH~1\AppData\Local\Temp\ccEAPbdh.s 			page 16


 665:Generated_Source\PSoC4/Bootloader.c ****     /* "need-to-copy" flag from second application metadata */
 666:Generated_Source\PSoC4/Bootloader.c ****     uint8 copyFlag = Bootloader_GetMetadata(Bootloader_GET_BTLDB_COPY_FLAG, Bootloader_MD_BTLDB_ACT
 667:Generated_Source\PSoC4/Bootloader.c **** 
 668:Generated_Source\PSoC4/Bootloader.c ****     /* Buffer to temporary hold metadata before flashing */
 669:Generated_Source\PSoC4/Bootloader.c ****     uint8 metaBuf[CYDEV_FLS_ROW_SIZE];
 670:Generated_Source\PSoC4/Bootloader.c **** 
 671:Generated_Source\PSoC4/Bootloader.c ****     /* Launcher's last row number */
 672:Generated_Source\PSoC4/Bootloader.c ****     uint16 launcherLastRow = Bootloader_GetMetadata(Bootloader_GET_BTLDR_LAST_ROW, Bootloader_MD_BT
 673:Generated_Source\PSoC4/Bootloader.c **** 
 674:Generated_Source\PSoC4/Bootloader.c ****     /* Calculating destination's start row number (first row of app#1) */
 675:Generated_Source\PSoC4/Bootloader.c ****     uint16 dstRow = launcherLastRow + 1u;
 676:Generated_Source\PSoC4/Bootloader.c ****     
 677:Generated_Source\PSoC4/Bootloader.c ****     /* Calculating the source's/temporary location's start row number */
 678:Generated_Source\PSoC4/Bootloader.c ****     uint16 srcRow = ((((CY_FLASH_NUMBER_ROWS - dstRow - 2u) + 1u) >> 1u) + dstRow); 
 679:Generated_Source\PSoC4/Bootloader.c ****     
 680:Generated_Source\PSoC4/Bootloader.c ****     /* Taking length from app#2's metadata*/
 681:Generated_Source\PSoC4/Bootloader.c ****     uint32 srcLength = Bootloader_GetMetadata(Bootloader_GET_BTLDB_LENGTH, Bootloader_MD_BTLDB_ACTI
 682:Generated_Source\PSoC4/Bootloader.c **** 
 683:Generated_Source\PSoC4/Bootloader.c ****     /* Copy operation status initialization */
 684:Generated_Source\PSoC4/Bootloader.c ****     cystatus copyStatus = CYRET_SUCCESS;
 685:Generated_Source\PSoC4/Bootloader.c ****     
 686:Generated_Source\PSoC4/Bootloader.c ****     /* Calculating number of rows for copying */
 687:Generated_Source\PSoC4/Bootloader.c ****     uint16 numberOfRows = srcLength / CYDEV_FLS_ROW_SIZE;
 688:Generated_Source\PSoC4/Bootloader.c ****     
 689:Generated_Source\PSoC4/Bootloader.c ****     if (0u != (srcLength % CYDEV_FLS_ROW_SIZE))
 690:Generated_Source\PSoC4/Bootloader.c ****     {
 691:Generated_Source\PSoC4/Bootloader.c ****         numberOfRows++;
 692:Generated_Source\PSoC4/Bootloader.c ****     }
 693:Generated_Source\PSoC4/Bootloader.c ****         
 694:Generated_Source\PSoC4/Bootloader.c ****     /*************************************************************************
 695:Generated_Source\PSoC4/Bootloader.c ****     * Copying the number of rows from source (temporary location) to destination.
 696:Generated_Source\PSoC4/Bootloader.c ****     * If the operation is unsuccessful, there will be a few more attempts to
 697:Generated_Source\PSoC4/Bootloader.c ****     * perform the copying operation (a number is defined by Bootloader_MAX_ATTEMPTS)
 698:Generated_Source\PSoC4/Bootloader.c ****     ***************************************************************************/
 699:Generated_Source\PSoC4/Bootloader.c ****     for(idx = 0; idx < numberOfRows; idx++)
 700:Generated_Source\PSoC4/Bootloader.c ****     {
 701:Generated_Source\PSoC4/Bootloader.c ****         copierAttempts = Bootloader_MAX_ATTEMPTS;
 702:Generated_Source\PSoC4/Bootloader.c ****         
 703:Generated_Source\PSoC4/Bootloader.c ****         do 
 704:Generated_Source\PSoC4/Bootloader.c ****         {
 705:Generated_Source\PSoC4/Bootloader.c ****             /* Copying row */
 706:Generated_Source\PSoC4/Bootloader.c ****             copyStatus = Bootloader_CopyRow(srcRow + idx, dstRow + idx);
 707:Generated_Source\PSoC4/Bootloader.c ****             
 708:Generated_Source\PSoC4/Bootloader.c ****             /* Decrementing counter of attempts to repeat copying operation */
 709:Generated_Source\PSoC4/Bootloader.c ****             copierAttempts--;       
 710:Generated_Source\PSoC4/Bootloader.c ****         } while ((CYRET_SUCCESS != copyStatus) && (0u != copierAttempts));
 711:Generated_Source\PSoC4/Bootloader.c **** 
 712:Generated_Source\PSoC4/Bootloader.c ****         
 713:Generated_Source\PSoC4/Bootloader.c ****         /*************************************************************************
 714:Generated_Source\PSoC4/Bootloader.c ****         * If a problem occurs, when a row can't be copied, "CopyFlag" should be
 715:Generated_Source\PSoC4/Bootloader.c ****         * cleared to prevent the recurrent copying that might follow the software reset.        
 716:Generated_Source\PSoC4/Bootloader.c ****         ***************************************************************************/
 717:Generated_Source\PSoC4/Bootloader.c ****         if (CYRET_SUCCESS != copyStatus)
 718:Generated_Source\PSoC4/Bootloader.c ****         {
 719:Generated_Source\PSoC4/Bootloader.c ****             /* Clear copy flag in metadata#1 */
 720:Generated_Source\PSoC4/Bootloader.c ****             Bootloader_SetFlashByte(Bootloader_MD_BTLDB_COPY_FLAG_OFFSET(Bootloader_MD_BTLDB_ACTIVE
 721:Generated_Source\PSoC4/Bootloader.c ****                                          (copyFlag & (~Bootloader_NEED_TO_COPY_SET_BIT)));
ARM GAS  C:\Users\VIDEOH~1\AppData\Local\Temp\ccEAPbdh.s 			page 17


 722:Generated_Source\PSoC4/Bootloader.c ****                 
 723:Generated_Source\PSoC4/Bootloader.c ****             /* Callback macro definition */
 724:Generated_Source\PSoC4/Bootloader.c ****             #if (0u != LAUNCHER_COPIER_CALLBACK)
 725:Generated_Source\PSoC4/Bootloader.c ****                 Bootloader_CopierCallback();
 726:Generated_Source\PSoC4/Bootloader.c ****             #endif /* 0u != LAUNCHER_COPIER_CALLBACK */ 
 727:Generated_Source\PSoC4/Bootloader.c ****             
 728:Generated_Source\PSoC4/Bootloader.c ****             /*************************************************************************
 729:Generated_Source\PSoC4/Bootloader.c ****             * If the copying operation was unsuccessful after certain number of attempts
 730:Generated_Source\PSoC4/Bootloader.c ****             * and Bootloader_CopierCallback() is either undefined or returns, then the
 731:Generated_Source\PSoC4/Bootloader.c ****             * device should be halted.
 732:Generated_Source\PSoC4/Bootloader.c ****             *************************************************************************/
 733:Generated_Source\PSoC4/Bootloader.c ****             CyHalt(0x00u);
 734:Generated_Source\PSoC4/Bootloader.c ****         }
 735:Generated_Source\PSoC4/Bootloader.c ****     }    
 736:Generated_Source\PSoC4/Bootloader.c ****     
 737:Generated_Source\PSoC4/Bootloader.c ****     /* Copy metadata app#2 -> app#1*/
 738:Generated_Source\PSoC4/Bootloader.c ****     if (CYRET_SUCCESS == copyStatus)
 739:Generated_Source\PSoC4/Bootloader.c ****     {
 740:Generated_Source\PSoC4/Bootloader.c ****         /******************************************************************************
 741:Generated_Source\PSoC4/Bootloader.c ****         *                               Metadata#1 update             
 742:Generated_Source\PSoC4/Bootloader.c ****         ******************************************************************************/
 743:Generated_Source\PSoC4/Bootloader.c ****         /* Getting start address of metadata #2 */
 744:Generated_Source\PSoC4/Bootloader.c ****         uint32 metaStartAddr = Bootloader_MD_BASE_ADDR(Bootloader_MD_BTLDB_ACTIVE_1) + 
 745:Generated_Source\PSoC4/Bootloader.c ****                                Bootloader_MD_SIZEOF - CYDEV_FLS_ROW_SIZE; 
 746:Generated_Source\PSoC4/Bootloader.c ****         
 747:Generated_Source\PSoC4/Bootloader.c ****         /* Read all data from metadata #2 */
 748:Generated_Source\PSoC4/Bootloader.c ****         for (idx = 0u; idx < CYDEV_FLS_ROW_SIZE; idx++)
 749:Generated_Source\PSoC4/Bootloader.c ****         {
 750:Generated_Source\PSoC4/Bootloader.c ****             metaBuf[idx] = Bootloader_GET_CODE_BYTE(metaStartAddr + idx);
 751:Generated_Source\PSoC4/Bootloader.c ****         }
 752:Generated_Source\PSoC4/Bootloader.c ****         
 753:Generated_Source\PSoC4/Bootloader.c ****         /* Setting 'Copier available' flag (copyFlag field) in buffer to be stored in metadata#1 */
 754:Generated_Source\PSoC4/Bootloader.c ****         metaBuf[Bootloader_MD_BUFFER_START_OFFSET + Bootloader_MD_COPY_FLAG_BYTE_OFFSET] = Bootload
 755:Generated_Source\PSoC4/Bootloader.c **** 
 756:Generated_Source\PSoC4/Bootloader.c ****         /* Set active app#1 */
 757:Generated_Source\PSoC4/Bootloader.c ****         Bootloader_activeApp = Bootloader_MD_BTLDB_ACTIVE_0;
 758:Generated_Source\PSoC4/Bootloader.c ****         
 759:Generated_Source\PSoC4/Bootloader.c ****         /* Setting app#1 as active application in buffer to be stored in metadata#1 */
 760:Generated_Source\PSoC4/Bootloader.c ****         metaBuf[Bootloader_MD_BUFFER_START_OFFSET + Bootloader_MD_ACTIVE_APP_BYTE_OFFSET] = 0x01u; 
 761:Generated_Source\PSoC4/Bootloader.c **** 
 762:Generated_Source\PSoC4/Bootloader.c ****         /* Setting app#1 as valid for 'Fast validation' to be stored in metadata#1 */
 763:Generated_Source\PSoC4/Bootloader.c ****         metaBuf[Bootloader_MD_BUFFER_START_OFFSET + Bootloader_MD_FAST_VALID_BYTE_OFFSET] = 0x01u; 
 764:Generated_Source\PSoC4/Bootloader.c **** 
 765:Generated_Source\PSoC4/Bootloader.c ****         /* Update metadata#1 in flash */
 766:Generated_Source\PSoC4/Bootloader.c ****         copyStatus = CySysFlashWriteRow((uint16) (CY_FLASH_NUMBER_ROWS - 1u), metaBuf);  
 767:Generated_Source\PSoC4/Bootloader.c **** 
 768:Generated_Source\PSoC4/Bootloader.c ****         /******************************************************************************
 769:Generated_Source\PSoC4/Bootloader.c ****         *                               Metadata#2 update  
 770:Generated_Source\PSoC4/Bootloader.c ****         * Clear the whole buffer for metadata#2, which will make it invalid. 
 771:Generated_Source\PSoC4/Bootloader.c ****         * The 'Need-to-copy' flag will be cleared and app#2 will be set as non-active. 
 772:Generated_Source\PSoC4/Bootloader.c ****         *******************************************************************************/
 773:Generated_Source\PSoC4/Bootloader.c ****         (void) memset(&metaBuf, 0x00u, sizeof(metaBuf));
 774:Generated_Source\PSoC4/Bootloader.c ****         
 775:Generated_Source\PSoC4/Bootloader.c ****         /* Updating metadata#2 in flash */
 776:Generated_Source\PSoC4/Bootloader.c ****         copyStatus |= CySysFlashWriteRow((uint16) (CY_FLASH_NUMBER_ROWS - 2u), metaBuf);          
 777:Generated_Source\PSoC4/Bootloader.c ****     }
 778:Generated_Source\PSoC4/Bootloader.c ****     
ARM GAS  C:\Users\VIDEOH~1\AppData\Local\Temp\ccEAPbdh.s 			page 18


 779:Generated_Source\PSoC4/Bootloader.c ****     if (CYRET_SUCCESS == copyStatus)
 780:Generated_Source\PSoC4/Bootloader.c ****     {
 781:Generated_Source\PSoC4/Bootloader.c ****         /* Schedule*/
 782:Generated_Source\PSoC4/Bootloader.c ****         Bootloader_SET_RUN_TYPE(Bootloader_SCHEDULE_BTLDB);
 783:Generated_Source\PSoC4/Bootloader.c **** 
 784:Generated_Source\PSoC4/Bootloader.c ****         /* Software reset */
 785:Generated_Source\PSoC4/Bootloader.c ****         CySoftwareReset();
 786:Generated_Source\PSoC4/Bootloader.c ****     }
 787:Generated_Source\PSoC4/Bootloader.c ****     else
 788:Generated_Source\PSoC4/Bootloader.c ****     {
 789:Generated_Source\PSoC4/Bootloader.c ****         /* Halt device */
 790:Generated_Source\PSoC4/Bootloader.c ****         CyHalt(0x00u);
 791:Generated_Source\PSoC4/Bootloader.c ****     }
 792:Generated_Source\PSoC4/Bootloader.c **** }
 793:Generated_Source\PSoC4/Bootloader.c **** #endif /*(0u != Bootloader_COPIER_AVAIL) && (CY_PSOC4)*/
 794:Generated_Source\PSoC4/Bootloader.c **** #endif /*(CYDEV_PROJ_TYPE == CYDEV_PROJ_TYPE_LAUNCHER)*/
 795:Generated_Source\PSoC4/Bootloader.c **** 
 796:Generated_Source\PSoC4/Bootloader.c **** 
 797:Generated_Source\PSoC4/Bootloader.c **** /*******************************************************************************
 798:Generated_Source\PSoC4/Bootloader.c **** * Function Name: Bootloader_Start
 799:Generated_Source\PSoC4/Bootloader.c **** ****************************************************************************//**
 800:Generated_Source\PSoC4/Bootloader.c **** * \brief
 801:Generated_Source\PSoC4/Bootloader.c **** *  This function is called to execute the following algorithm:
 802:Generated_Source\PSoC4/Bootloader.c **** *
 803:Generated_Source\PSoC4/Bootloader.c **** * -    Validate the Bootloadable application for the Classic Single-app Bootloader or 
 804:Generated_Source\PSoC4/Bootloader.c **** *   both Bootloadable/Combination applications for the Classic Dual-app Bootloader/
 805:Generated_Source\PSoC4/Bootloader.c **** *   Launch-only Bootloader (Launcher for short) respectively.
 806:Generated_Source\PSoC4/Bootloader.c **** *  
 807:Generated_Source\PSoC4/Bootloader.c **** * -    For the Classic Single-app Bootloader: if the Bootloadable application is valid, 
 808:Generated_Source\PSoC4/Bootloader.c **** *   then the flow switches to it after a software reset. Otherwise it stays in 
 809:Generated_Source\PSoC4/Bootloader.c **** *   the Bootloader, waiting for a command(s) from the host.
 810:Generated_Source\PSoC4/Bootloader.c **** * 
 811:Generated_Source\PSoC4/Bootloader.c **** * -    For the Classic Dual-app Bootloader: the flow acts according to the switching table 
 812:Generated_Source\PSoC4/Bootloader.c **** *  (see in the code below) and enabled/disabled options (for instance, auto-switching).
 813:Generated_Source\PSoC4/Bootloader.c **** *   NOTE If the valid Bootloadable application is identified, then the control is passed 
 814:Generated_Source\PSoC4/Bootloader.c **** *   to it after a software reset. Otherwise it stays in the Classic Dual-app Bootloader 
 815:Generated_Source\PSoC4/Bootloader.c **** *   waiting for a command(s) from the host.
 816:Generated_Source\PSoC4/Bootloader.c **** * 
 817:Generated_Source\PSoC4/Bootloader.c **** * -    For the Launcher: the flow acts according to the switching table (see below) and 
 818:Generated_Source\PSoC4/Bootloader.c **** *   enabled/disabled options. NOTE If the valid Combination application is identified, then 
 819:Generated_Source\PSoC4/Bootloader.c **** *   the control is passed to it after a software reset. Otherwise it stays in the Launcher 
 820:Generated_Source\PSoC4/Bootloader.c **** *   forever.
 821:Generated_Source\PSoC4/Bootloader.c **** * 
 822:Generated_Source\PSoC4/Bootloader.c **** * -    Validate the Bootloader/Launcher application(s) (design-time configurable, Bootloader 
 823:Generated_Source\PSoC4/Bootloader.c **** *   application validation option of the component customizer).
 824:Generated_Source\PSoC4/Bootloader.c **** * 
 825:Generated_Source\PSoC4/Bootloader.c **** * -    Run a communication subroutine (design-time configurable, the Wait for command 
 826:Generated_Source\PSoC4/Bootloader.c **** *   option of the component customizer). NOTE This is NOT applicable for the Launcher.
 827:Generated_Source\PSoC4/Bootloader.c **** *
 828:Generated_Source\PSoC4/Bootloader.c **** * -    Schedule the Bootloadable and reset the device.
 829:Generated_Source\PSoC4/Bootloader.c **** *
 830:Generated_Source\PSoC4/Bootloader.c **** *  \ref page_switching_logic
 831:Generated_Source\PSoC4/Bootloader.c **** *
 832:Generated_Source\PSoC4/Bootloader.c **** * \return
 833:Generated_Source\PSoC4/Bootloader.c **** *  This method will never return. It will either load a new application and
 834:Generated_Source\PSoC4/Bootloader.c **** *  reset the device or jump directly to the existing application. The CPU is
 835:Generated_Source\PSoC4/Bootloader.c **** *  halted, if the validation fails when the "Bootloader application validation" 
ARM GAS  C:\Users\VIDEOH~1\AppData\Local\Temp\ccEAPbdh.s 			page 19


 836:Generated_Source\PSoC4/Bootloader.c **** *  option is enabled.
 837:Generated_Source\PSoC4/Bootloader.c **** *  PSoC 3/PSoC 5: The CPU is halted if flash initialization fails.
 838:Generated_Source\PSoC4/Bootloader.c **** *
 839:Generated_Source\PSoC4/Bootloader.c **** * \details
 840:Generated_Source\PSoC4/Bootloader.c **** *  If the "Bootloader application validation" option is enabled and this method
 841:Generated_Source\PSoC4/Bootloader.c **** *  determines that the Bootloader application itself is corrupt, this method
 842:Generated_Source\PSoC4/Bootloader.c **** *  will not return, instead it will simply hang the application.   
 843:Generated_Source\PSoC4/Bootloader.c **** *******************************************************************************/
 844:Generated_Source\PSoC4/Bootloader.c **** void Bootloader_Start(void) CYSMALL 
 845:Generated_Source\PSoC4/Bootloader.c **** {
 846:Generated_Source\PSoC4/Bootloader.c **** 
 847:Generated_Source\PSoC4/Bootloader.c **** #if (CYDEV_PROJ_TYPE != CYDEV_PROJ_TYPE_LOADABLEANDBOOTLOADER)
 848:Generated_Source\PSoC4/Bootloader.c **** 
 849:Generated_Source\PSoC4/Bootloader.c ****     #if(0u != Bootloader_DUAL_APP_BOOTLOADER)
 850:Generated_Source\PSoC4/Bootloader.c ****         cystatus app0Status = CYRET_BAD_DATA;
 851:Generated_Source\PSoC4/Bootloader.c ****         cystatus app1Status = CYRET_BAD_DATA;  
 852:Generated_Source\PSoC4/Bootloader.c ****     #endif /*0u != Bootloader_DUAL_APP_BOOTLOADER*/
 853:Generated_Source\PSoC4/Bootloader.c ****     
 854:Generated_Source\PSoC4/Bootloader.c ****     cystatus validApp  = CYRET_BAD_DATA;
 855:Generated_Source\PSoC4/Bootloader.c **** 
 856:Generated_Source\PSoC4/Bootloader.c ****     #if(0u != Bootloader_BOOTLOADER_APP_VALIDATION)
 857:Generated_Source\PSoC4/Bootloader.c ****         uint8 CYDATA calcedChecksum;
 858:Generated_Source\PSoC4/Bootloader.c ****     #endif    /* (0u != Bootloader_BOOTLOADER_APP_VALIDATION) */
 859:Generated_Source\PSoC4/Bootloader.c **** 
 860:Generated_Source\PSoC4/Bootloader.c ****     #if(!CY_PSOC4)
 861:Generated_Source\PSoC4/Bootloader.c ****         #if(0u != Bootloader_FAST_APP_VALIDATION)
 862:Generated_Source\PSoC4/Bootloader.c ****             /* Initialize flash subsystem for non-PSoC 4 devices */
 863:Generated_Source\PSoC4/Bootloader.c ****             if (CYRET_SUCCESS != CySetTemp())
 864:Generated_Source\PSoC4/Bootloader.c ****             {
 865:Generated_Source\PSoC4/Bootloader.c ****                 CyHalt(0x00u);
 866:Generated_Source\PSoC4/Bootloader.c ****             }
 867:Generated_Source\PSoC4/Bootloader.c **** 
 868:Generated_Source\PSoC4/Bootloader.c ****             #if !defined(CY_BOOT_VERSION)
 869:Generated_Source\PSoC4/Bootloader.c ****                 /* Not required with cy_boot 4.20 */
 870:Generated_Source\PSoC4/Bootloader.c ****                 if (CYRET_SUCCESS != CySetFlashEEBuffer(Bootloader_flashBuffer))
 871:Generated_Source\PSoC4/Bootloader.c ****                 {
 872:Generated_Source\PSoC4/Bootloader.c ****                     CyHalt(0x00u);
 873:Generated_Source\PSoC4/Bootloader.c ****                 }
 874:Generated_Source\PSoC4/Bootloader.c **** 
 875:Generated_Source\PSoC4/Bootloader.c ****                 uint8 CYXDATA Bootloader_flashBuffer[Bootloader_FROW_SIZE];
 876:Generated_Source\PSoC4/Bootloader.c ****             #endif /* !defined(CY_BOOT_VERSION) */
 877:Generated_Source\PSoC4/Bootloader.c ****         #endif  /* (0u != Bootloader_FAST_APP_VALIDATION) */
 878:Generated_Source\PSoC4/Bootloader.c ****     #endif  /* (!CY_PSOC4) */
 879:Generated_Source\PSoC4/Bootloader.c **** 
 880:Generated_Source\PSoC4/Bootloader.c ****     #if (CYDEV_PROJ_TYPE == CYDEV_PROJ_TYPE_LAUNCHER) 
 881:Generated_Source\PSoC4/Bootloader.c ****     #if ((0u != Bootloader_COPIER_AVAIL) && (CY_PSOC4))
 882:Generated_Source\PSoC4/Bootloader.c ****         /* Checking "need-to-copy" flag in metadata#1. If it is set, then copy operation is require
 883:Generated_Source\PSoC4/Bootloader.c ****         uint8 needToCopyFlag = Bootloader_GetMetadata(Bootloader_GET_BTLDB_COPY_FLAG, 
 884:Generated_Source\PSoC4/Bootloader.c ****                                                         Bootloader_MD_BTLDB_ACTIVE_1);             
 885:Generated_Source\PSoC4/Bootloader.c ****         
 886:Generated_Source\PSoC4/Bootloader.c ****         /* Checking "Need to copy" flag in metadata#1 */
 887:Generated_Source\PSoC4/Bootloader.c ****         if (0u != (needToCopyFlag & Bootloader_NEED_TO_COPY_MASK))
 888:Generated_Source\PSoC4/Bootloader.c ****         {
 889:Generated_Source\PSoC4/Bootloader.c ****             /* Note that this function never returns */
 890:Generated_Source\PSoC4/Bootloader.c ****             Bootloader_Copier();
 891:Generated_Source\PSoC4/Bootloader.c ****         }
 892:Generated_Source\PSoC4/Bootloader.c ****     #endif  /* (CYDEV_PROJ_TYPE == CYDEV_PROJ_TYPE_LAUNCHER) */
ARM GAS  C:\Users\VIDEOH~1\AppData\Local\Temp\ccEAPbdh.s 			page 20


 893:Generated_Source\PSoC4/Bootloader.c ****     #endif  /* (0u != Bootloader_COPIER_AVAIL) && (CY_PSOC4)*/
 894:Generated_Source\PSoC4/Bootloader.c ****         
 895:Generated_Source\PSoC4/Bootloader.c ****     /* Identify active Bootloadable/Combination application */
 896:Generated_Source\PSoC4/Bootloader.c ****     #if (0u != Bootloader_DUAL_APP_BOOTLOADER)
 897:Generated_Source\PSoC4/Bootloader.c ****         app0Status = Bootloader_ValidateBootloadable(Bootloader_MD_BTLDB_ACTIVE_0);
 898:Generated_Source\PSoC4/Bootloader.c ****         app1Status = Bootloader_ValidateBootloadable(Bootloader_MD_BTLDB_ACTIVE_1);  
 899:Generated_Source\PSoC4/Bootloader.c **** 
 900:Generated_Source\PSoC4/Bootloader.c ****         /* Assumes no active Bootloadable application. Bootloader is active. */
 901:Generated_Source\PSoC4/Bootloader.c ****         Bootloader_activeApp = Bootloader_MD_BTLDB_ACTIVE_NONE;
 902:Generated_Source\PSoC4/Bootloader.c **** 
 903:Generated_Source\PSoC4/Bootloader.c ****         /* Bootloadable app#1 is active */
 904:Generated_Source\PSoC4/Bootloader.c ****         if(Bootloader_GetMetadata(Bootloader_GET_BTLDB_ACTIVE, Bootloader_MD_BTLDB_ACTIVE_0) == \
 905:Generated_Source\PSoC4/Bootloader.c ****                                                                            Bootloader_MD_BTLDB_IS_A
 906:Generated_Source\PSoC4/Bootloader.c ****         {
 907:Generated_Source\PSoC4/Bootloader.c ****             /**************************************************************************************
 908:Generated_Source\PSoC4/Bootloader.c ****             * -------------------------------------------------------------------------------------
 909:Generated_Source\PSoC4/Bootloader.c ****             * |      |      app#1     |      app#2     |        Classic Dual-app       |     Launch
 910:Generated_Source\PSoC4/Bootloader.c ****             * | Case |---------------------------------|          Bootloader           |           
 911:Generated_Source\PSoC4/Bootloader.c ****             * |      | Active | Valid | Active | Valid |                               |           
 912:Generated_Source\PSoC4/Bootloader.c ****             * |------------------------------------------------------------------------------------
 913:Generated_Source\PSoC4/Bootloader.c ****             * |  9   |    1   |   0   |   0    |   0   | Bootloader                    | Launcher  
 914:Generated_Source\PSoC4/Bootloader.c ****             * |  10  |    1   |   0   |   0    |   1   | app#2, except if auto-app     | app#2     
 915:Generated_Source\PSoC4/Bootloader.c ****             * |      |        |       |        |       | switching is disabled, then   |           
 916:Generated_Source\PSoC4/Bootloader.c ****             * |      |        |       |        |       | stay in Bootloader            |           
 917:Generated_Source\PSoC4/Bootloader.c ****             * |  11  |    1   |   0   |   1    |   0   | Bootloader                    | Launcher  
 918:Generated_Source\PSoC4/Bootloader.c ****             * |  12  |    1   |   0   |   1    |   1   | app#2                         | app#2     
 919:Generated_Source\PSoC4/Bootloader.c ****             * |  13  |    1   |   1   |   0    |   0   | app#1                         | app#1     
 920:Generated_Source\PSoC4/Bootloader.c ****             * |  14  |    1   |   1   |   0    |   1   | app#1                         | app#1     
 921:Generated_Source\PSoC4/Bootloader.c ****             * |  15  |    1   |   1   |   1    |   0   | app#1                         | app#1     
 922:Generated_Source\PSoC4/Bootloader.c ****             * |  16  |    1   |   1   |   1    |   1   | app#1                         | app#1     
 923:Generated_Source\PSoC4/Bootloader.c ****             * -------------------------------------------------------------------------------------
 924:Generated_Source\PSoC4/Bootloader.c ****             ***************************************************************************************
 925:Generated_Source\PSoC4/Bootloader.c ****             if (CYRET_SUCCESS == app0Status)
 926:Generated_Source\PSoC4/Bootloader.c ****             {
 927:Generated_Source\PSoC4/Bootloader.c ****                 /* Cases # 13,  14, 15, and 16 */
 928:Generated_Source\PSoC4/Bootloader.c ****                 Bootloader_activeApp = Bootloader_MD_BTLDB_ACTIVE_0;
 929:Generated_Source\PSoC4/Bootloader.c ****                 validApp = CYRET_SUCCESS;
 930:Generated_Source\PSoC4/Bootloader.c ****             }
 931:Generated_Source\PSoC4/Bootloader.c ****             else /*Bootloadable app#1 is not valid*/
 932:Generated_Source\PSoC4/Bootloader.c ****             {
 933:Generated_Source\PSoC4/Bootloader.c ****                 #if (((1u == Bootloader_AUTO_SWITCHING_AVAIL) &&  \
 934:Generated_Source\PSoC4/Bootloader.c ****                       (CYDEV_PROJ_TYPE == CYDEV_PROJ_TYPE_MULTIAPPBOOTLOADER)) || \
 935:Generated_Source\PSoC4/Bootloader.c ****                       (CYDEV_PROJ_TYPE == CYDEV_PROJ_TYPE_LAUNCHER)) 
 936:Generated_Source\PSoC4/Bootloader.c ****                 if (CYRET_SUCCESS == app1Status )
 937:Generated_Source\PSoC4/Bootloader.c ****                 {
 938:Generated_Source\PSoC4/Bootloader.c ****                     /* Cases # 10 and 12 */
 939:Generated_Source\PSoC4/Bootloader.c ****                     Bootloader_activeApp = Bootloader_MD_BTLDB_ACTIVE_1;
 940:Generated_Source\PSoC4/Bootloader.c ****                     validApp = CYRET_SUCCESS;
 941:Generated_Source\PSoC4/Bootloader.c ****                 }
 942:Generated_Source\PSoC4/Bootloader.c ****                 #endif /*((1u == Bootloader_AUTO_SWITCHING_AVAIL) && 
 943:Generated_Source\PSoC4/Bootloader.c ****                           (CYDEV_PROJ_TYPE == CYDEV_PROJ_TYPE_MULTIAPPBOOTLOADER)) || 
 944:Generated_Source\PSoC4/Bootloader.c ****                           (CYDEV_PROJ_TYPE == CYDEV_PROJ_TYPE_LAUNCHER)*/
 945:Generated_Source\PSoC4/Bootloader.c ****             }
 946:Generated_Source\PSoC4/Bootloader.c ****         }
 947:Generated_Source\PSoC4/Bootloader.c **** 
 948:Generated_Source\PSoC4/Bootloader.c ****         /*  Active Bootloadable application is not identified */
 949:Generated_Source\PSoC4/Bootloader.c ****         if(Bootloader_activeApp == Bootloader_MD_BTLDB_ACTIVE_NONE)
ARM GAS  C:\Users\VIDEOH~1\AppData\Local\Temp\ccEAPbdh.s 			page 21


 950:Generated_Source\PSoC4/Bootloader.c ****         {
 951:Generated_Source\PSoC4/Bootloader.c ****             /**************************************************************************************
 952:Generated_Source\PSoC4/Bootloader.c ****             * -------------------------------------------------------------------------------------
 953:Generated_Source\PSoC4/Bootloader.c ****             * |      |       app#1    |       app#2    |        Classic Dual-app       |     Launch
 954:Generated_Source\PSoC4/Bootloader.c ****             * | Case |---------------------------------|          Bootloader           |           
 955:Generated_Source\PSoC4/Bootloader.c ****             * |      | Active | Valid | Active | Valid |                               |           
 956:Generated_Source\PSoC4/Bootloader.c ****             * |------|-----------------------------------------------------------------------------
 957:Generated_Source\PSoC4/Bootloader.c ****             * |  1   |    0   |   0   |   0    |   0   | Bootloader                    | Launcher  
 958:Generated_Source\PSoC4/Bootloader.c ****             * |  2   |    0   |   0   |   0    |   1   | Bootloader                    | app#2     
 959:Generated_Source\PSoC4/Bootloader.c ****             * |  3   |    0   |   0   |   1    |   0   | Bootloader                    | Launcher  
 960:Generated_Source\PSoC4/Bootloader.c ****             * |  4   |    0   |   0   |   1    |   1   | app#2                         | app#2     
 961:Generated_Source\PSoC4/Bootloader.c ****             * |  5   |    0   |   1   |   0    |   0   | Bootloader                    | app#1     
 962:Generated_Source\PSoC4/Bootloader.c ****             * |  6   |    0   |   1   |   0    |   1   | Bootloader                    | app#1     
 963:Generated_Source\PSoC4/Bootloader.c ****             * |  7   |    0   |   1   |   1    |   0   | app#1, except if auto-app     | app#1     
 964:Generated_Source\PSoC4/Bootloader.c ****             * |      |        |       |        |       | switching is disabled, then   |           
 965:Generated_Source\PSoC4/Bootloader.c ****             * |      |        |       |        |       | stay in Bootloader            |           
 966:Generated_Source\PSoC4/Bootloader.c ****             * |  8   |    0   |   1   |   1    |   1   | app#2                         | app#2     
 967:Generated_Source\PSoC4/Bootloader.c ****             * -------------------------------------------------------------------------------------
 968:Generated_Source\PSoC4/Bootloader.c ****             ***************************************************************************************
 969:Generated_Source\PSoC4/Bootloader.c ****             if (Bootloader_GetMetadata(Bootloader_GET_BTLDB_ACTIVE, 1u) ==
 970:Generated_Source\PSoC4/Bootloader.c ****                     Bootloader_MD_BTLDB_IS_ACTIVE)
 971:Generated_Source\PSoC4/Bootloader.c ****             {
 972:Generated_Source\PSoC4/Bootloader.c ****                 /* Cases # 3, 4, 7, and 8 */
 973:Generated_Source\PSoC4/Bootloader.c ****                 if (CYRET_SUCCESS == app1Status)
 974:Generated_Source\PSoC4/Bootloader.c ****                 {
 975:Generated_Source\PSoC4/Bootloader.c ****                     /* Cases # 4 and 8 */
 976:Generated_Source\PSoC4/Bootloader.c ****                     Bootloader_activeApp = Bootloader_MD_BTLDB_ACTIVE_1;
 977:Generated_Source\PSoC4/Bootloader.c ****                     validApp = CYRET_SUCCESS;
 978:Generated_Source\PSoC4/Bootloader.c ****                 }
 979:Generated_Source\PSoC4/Bootloader.c ****                 else
 980:Generated_Source\PSoC4/Bootloader.c ****                 {
 981:Generated_Source\PSoC4/Bootloader.c ****                  #if (((1u == Bootloader_AUTO_SWITCHING_AVAIL) && \
 982:Generated_Source\PSoC4/Bootloader.c ****                        (CYDEV_PROJ_TYPE == CYDEV_PROJ_TYPE_MULTIAPPBOOTLOADER)) \
 983:Generated_Source\PSoC4/Bootloader.c ****                     || (CYDEV_PROJ_TYPE == CYDEV_PROJ_TYPE_LAUNCHER)) 
 984:Generated_Source\PSoC4/Bootloader.c ****                     if (CYRET_SUCCESS == app0Status)
 985:Generated_Source\PSoC4/Bootloader.c ****                     {
 986:Generated_Source\PSoC4/Bootloader.c ****                         /* Cases # 7 */
 987:Generated_Source\PSoC4/Bootloader.c ****                         Bootloader_activeApp = Bootloader_MD_BTLDB_ACTIVE_0;
 988:Generated_Source\PSoC4/Bootloader.c ****                         validApp = CYRET_SUCCESS;
 989:Generated_Source\PSoC4/Bootloader.c ****                     }
 990:Generated_Source\PSoC4/Bootloader.c ****                     #endif /*(((1u == Bootloader_AUTO_SWITCHING_AVAIL) && \
 991:Generated_Source\PSoC4/Bootloader.c ****                                (CYDEV_PROJ_TYPE == CYDEV_PROJ_TYPE_MULTIAPPBOOTLOADER)) \
 992:Generated_Source\PSoC4/Bootloader.c ****                             || (CYDEV_PROJ_TYPE == CYDEV_PROJ_TYPE_LAUNCHER))*/
 993:Generated_Source\PSoC4/Bootloader.c ****                 }
 994:Generated_Source\PSoC4/Bootloader.c ****             }
 995:Generated_Source\PSoC4/Bootloader.c ****         }
 996:Generated_Source\PSoC4/Bootloader.c ****         
 997:Generated_Source\PSoC4/Bootloader.c ****         #if (CYDEV_PROJ_TYPE == CYDEV_PROJ_TYPE_LAUNCHER) 
 998:Generated_Source\PSoC4/Bootloader.c ****             /*None of applications is active*/
 999:Generated_Source\PSoC4/Bootloader.c ****             if (Bootloader_MD_BTLDB_ACTIVE_NONE ==Bootloader_activeApp)
1000:Generated_Source\PSoC4/Bootloader.c ****             {
1001:Generated_Source\PSoC4/Bootloader.c ****                 /*case#5, case#6: pass control to Bootloadable app#1*/
1002:Generated_Source\PSoC4/Bootloader.c ****                 if(CYRET_SUCCESS == app0Status)
1003:Generated_Source\PSoC4/Bootloader.c ****                 {
1004:Generated_Source\PSoC4/Bootloader.c ****                     Bootloader_activeApp = Bootloader_MD_BTLDB_ACTIVE_0;
1005:Generated_Source\PSoC4/Bootloader.c ****                     validApp = CYRET_SUCCESS;
1006:Generated_Source\PSoC4/Bootloader.c ****                 }
ARM GAS  C:\Users\VIDEOH~1\AppData\Local\Temp\ccEAPbdh.s 			page 22


1007:Generated_Source\PSoC4/Bootloader.c ****                 /*case#2: pass control to Bootloadable app#2*/
1008:Generated_Source\PSoC4/Bootloader.c ****                 else if (CYRET_SUCCESS == app1Status)
1009:Generated_Source\PSoC4/Bootloader.c ****                 {
1010:Generated_Source\PSoC4/Bootloader.c ****                     Bootloader_activeApp = Bootloader_MD_BTLDB_ACTIVE_1;
1011:Generated_Source\PSoC4/Bootloader.c ****                     validApp = CYRET_SUCCESS;
1012:Generated_Source\PSoC4/Bootloader.c ****                 }
1013:Generated_Source\PSoC4/Bootloader.c ****                 else
1014:Generated_Source\PSoC4/Bootloader.c ****                 {
1015:Generated_Source\PSoC4/Bootloader.c ****                     /* case#1, case#3, case#9, case#11: very bad situation, no valid application */
1016:Generated_Source\PSoC4/Bootloader.c ****                     /* Do nothing, stay in Bootloader/Launcher */
1017:Generated_Source\PSoC4/Bootloader.c ****                 }
1018:Generated_Source\PSoC4/Bootloader.c ****             }
1019:Generated_Source\PSoC4/Bootloader.c **** 
1020:Generated_Source\PSoC4/Bootloader.c **** 
1021:Generated_Source\PSoC4/Bootloader.c ****              /*********************************************************************************
1022:Generated_Source\PSoC4/Bootloader.c ****             * The next logic is an invalidation of the non-active application in the metadata
1023:Generated_Source\PSoC4/Bootloader.c ****             * section, because there could be a situation due to some error, when both  
1024:Generated_Source\PSoC4/Bootloader.c ****             * applications are set active (cases #12,15,16). Only one application can be active.
1025:Generated_Source\PSoC4/Bootloader.c ****             * This logic also stores the active application number in the metadata section.        
1026:Generated_Source\PSoC4/Bootloader.c ****             *********************************************************************************/
1027:Generated_Source\PSoC4/Bootloader.c ****             if (CYRET_SUCCESS == validApp)
1028:Generated_Source\PSoC4/Bootloader.c ****             {
1029:Generated_Source\PSoC4/Bootloader.c ****                 Bootloader_SetActiveAppInMetadata(Bootloader_activeApp);      
1030:Generated_Source\PSoC4/Bootloader.c ****             }
1031:Generated_Source\PSoC4/Bootloader.c ****         #endif /* CYDEV_PROJ_TYPE == CYDEV_PROJ_TYPE_LAUNCHER */
1032:Generated_Source\PSoC4/Bootloader.c ****     #else /*SINGLE_APP BOOTLOADER*/
1033:Generated_Source\PSoC4/Bootloader.c ****         if (CYRET_SUCCESS == Bootloader_ValidateBootloadable(Bootloader_MD_BTLDB_ACTIVE_0))
1034:Generated_Source\PSoC4/Bootloader.c ****         {
1035:Generated_Source\PSoC4/Bootloader.c ****             validApp = CYRET_SUCCESS;
1036:Generated_Source\PSoC4/Bootloader.c ****         }
1037:Generated_Source\PSoC4/Bootloader.c ****     #endif  /* (0u != Bootloader_DUAL_APP_BOOTLOADER) */
1038:Generated_Source\PSoC4/Bootloader.c **** 
1039:Generated_Source\PSoC4/Bootloader.c ****     
1040:Generated_Source\PSoC4/Bootloader.c ****     /***********************************************************************
1041:Generated_Source\PSoC4/Bootloader.c ****     * Bootloader Application Validation
1042:Generated_Source\PSoC4/Bootloader.c ****     *
1043:Generated_Source\PSoC4/Bootloader.c ****     * Halt the device if:
1044:Generated_Source\PSoC4/Bootloader.c ****     *  - A calculated checksum does not match the one stored in the metadata
1045:Generated_Source\PSoC4/Bootloader.c ****     *     section.
1046:Generated_Source\PSoC4/Bootloader.c ****     *  - There is an invalid pointer to the place where the Bootloader
1047:Generated_Source\PSoC4/Bootloader.c ****     *    application ends.
1048:Generated_Source\PSoC4/Bootloader.c ****     *  - The flash subsystem was not initialized correctly.
1049:Generated_Source\PSoC4/Bootloader.c ****     ***********************************************************************/
1050:Generated_Source\PSoC4/Bootloader.c ****     #if(0u != Bootloader_BOOTLOADER_APP_VALIDATION)
1051:Generated_Source\PSoC4/Bootloader.c **** 
1052:Generated_Source\PSoC4/Bootloader.c ****         /* Calculate Bootloader application checksum */
1053:Generated_Source\PSoC4/Bootloader.c ****         calcedChecksum = Bootloader_Calc8BitSum(CY_FLASH_BASE,
1054:Generated_Source\PSoC4/Bootloader.c ****                 Bootloader_MD_BTLDR_ADDR_PTR,
1055:Generated_Source\PSoC4/Bootloader.c ****                 *Bootloader_SizeBytesAccess - Bootloader_MD_BTLDR_ADDR_PTR);
1056:Generated_Source\PSoC4/Bootloader.c **** 
1057:Generated_Source\PSoC4/Bootloader.c ****         /* We included checksum, so remove it */
1058:Generated_Source\PSoC4/Bootloader.c ****         calcedChecksum -= *Bootloader_ChecksumAccess;
1059:Generated_Source\PSoC4/Bootloader.c ****         calcedChecksum = ( uint8 )1u + ( uint8 )(~calcedChecksum);
1060:Generated_Source\PSoC4/Bootloader.c **** 
1061:Generated_Source\PSoC4/Bootloader.c ****         /* Checksum and pointer to Bootloader verification */
1062:Generated_Source\PSoC4/Bootloader.c ****         if((calcedChecksum != *Bootloader_ChecksumAccess) ||
1063:Generated_Source\PSoC4/Bootloader.c ****            (0u == *Bootloader_SizeBytesAccess))
ARM GAS  C:\Users\VIDEOH~1\AppData\Local\Temp\ccEAPbdh.s 			page 23


1064:Generated_Source\PSoC4/Bootloader.c ****         {
1065:Generated_Source\PSoC4/Bootloader.c ****             /***********************************************************************
1066:Generated_Source\PSoC4/Bootloader.c ****             * If the Bootloader/Launcher application calculated checksum does not match
1067:Generated_Source\PSoC4/Bootloader.c ****             * the checksum stored in special Bootloader_Checksum constant 
1068:Generated_Source\PSoC4/Bootloader.c ****             * (accessed through Bootloader_ChecksumAccess) constant or its size 
1069:Generated_Source\PSoC4/Bootloader.c ****             * stored in Bootloader_SizeBytes constant (accessed through
1070:Generated_Source\PSoC4/Bootloader.c ****             * Bootloader_SizeBytesAccess) then CPU is halted, all software 
1071:Generated_Source\PSoC4/Bootloader.c ****             * processing stops. 
1072:Generated_Source\PSoC4/Bootloader.c ****             ***********************************************************************/
1073:Generated_Source\PSoC4/Bootloader.c ****             CyHalt(0x00u);
1074:Generated_Source\PSoC4/Bootloader.c ****         }
1075:Generated_Source\PSoC4/Bootloader.c **** 
1076:Generated_Source\PSoC4/Bootloader.c ****     #endif /* 0u != Bootloader_BOOTLOADER_APP_VALIDATION */
1077:Generated_Source\PSoC4/Bootloader.c **** #endif /* CYDEV_PROJ_TYPE != CYDEV_PROJ_TYPE_LOADABLEANDBOOTLOADER*/ 
1078:Generated_Source\PSoC4/Bootloader.c **** 
1079:Generated_Source\PSoC4/Bootloader.c **** #if (CYDEV_PROJ_TYPE != CYDEV_PROJ_TYPE_LAUNCHER)    
1080:Generated_Source\PSoC4/Bootloader.c ****     /***********************************************************************
1081:Generated_Source\PSoC4/Bootloader.c ****     * If the active Bootloadable application is invalid or scheduled - do the following:
1082:Generated_Source\PSoC4/Bootloader.c ****     *  - schedule the Bootloader application to be run after a software reset;
1083:Generated_Source\PSoC4/Bootloader.c ****     *  - go to the communication subroutine. The HostLink() will wait for
1084:Generated_Source\PSoC4/Bootloader.c ****     *    commands forever.
1085:Generated_Source\PSoC4/Bootloader.c ****     ***********************************************************************/
1086:Generated_Source\PSoC4/Bootloader.c ****     if ((Bootloader_GET_RUN_TYPE == Bootloader_SCHEDULE_BTLDR) 
1087:Generated_Source\PSoC4/Bootloader.c **** #if (CYDEV_PROJ_TYPE != CYDEV_PROJ_TYPE_LOADABLEANDBOOTLOADER)        
1088:Generated_Source\PSoC4/Bootloader.c ****         || (CYRET_SUCCESS != validApp)
1089:Generated_Source\PSoC4/Bootloader.c **** #endif        
1090:Generated_Source\PSoC4/Bootloader.c ****         )
1091:Generated_Source\PSoC4/Bootloader.c ****     {
1092:Generated_Source\PSoC4/Bootloader.c ****         Bootloader_SET_RUN_TYPE(Bootloader_SCHEDULE_BTLDR_INIT_STATE);
1093:Generated_Source\PSoC4/Bootloader.c **** 
1094:Generated_Source\PSoC4/Bootloader.c ****         Bootloader_HostLink(Bootloader_WAIT_FOR_COMMAND_FOREVER);
1095:Generated_Source\PSoC4/Bootloader.c ****     }
1096:Generated_Source\PSoC4/Bootloader.c **** 
1097:Generated_Source\PSoC4/Bootloader.c ****     /* Go to communication subroutine. Will wait for commands for specified time */
1098:Generated_Source\PSoC4/Bootloader.c ****     #if(0u != Bootloader_WAIT_FOR_COMMAND)
1099:Generated_Source\PSoC4/Bootloader.c **** 
1100:Generated_Source\PSoC4/Bootloader.c ****         /* Timeout is in 100s of milliseconds */
1101:Generated_Source\PSoC4/Bootloader.c ****         Bootloader_HostLink(Bootloader_WAIT_FOR_COMMAND_TIME);
1102:Generated_Source\PSoC4/Bootloader.c **** 
1103:Generated_Source\PSoC4/Bootloader.c ****     #endif  /* (0u != Bootloader_WAIT_FOR_COMMAND) */
1104:Generated_Source\PSoC4/Bootloader.c **** #else /* Launcher */
1105:Generated_Source\PSoC4/Bootloader.c ****     /* If none Bootloadable application is valid */
1106:Generated_Source\PSoC4/Bootloader.c ****     if (CYRET_SUCCESS != validApp)
1107:Generated_Source\PSoC4/Bootloader.c ****     {   
1108:Generated_Source\PSoC4/Bootloader.c ****         CyHalt(0x00u);
1109:Generated_Source\PSoC4/Bootloader.c ****     }         
1110:Generated_Source\PSoC4/Bootloader.c **** #endif /*CYDEV_PROJ_TYPE != CYDEV_PROJ_TYPE_LAUNCHER*/    
1111:Generated_Source\PSoC4/Bootloader.c **** 
1112:Generated_Source\PSoC4/Bootloader.c **** #if (CYDEV_PROJ_TYPE != CYDEV_PROJ_TYPE_LOADABLEANDBOOTLOADER)             
1113:Generated_Source\PSoC4/Bootloader.c ****     /* Schedule Bootloadable application and perform software reset */
1114:Generated_Source\PSoC4/Bootloader.c ****     Bootloader_LaunchApplication();
1115:Generated_Source\PSoC4/Bootloader.c **** #endif /*(CYDEV_PROJ_TYPE != CYDEV_PROJ_TYPE_LOADABLEANDBOOTLOADER)*/    
1116:Generated_Source\PSoC4/Bootloader.c **** }
1117:Generated_Source\PSoC4/Bootloader.c **** 
1118:Generated_Source\PSoC4/Bootloader.c **** #if (CYDEV_PROJ_TYPE != CYDEV_PROJ_TYPE_LOADABLEANDBOOTLOADER)
1119:Generated_Source\PSoC4/Bootloader.c **** /*******************************************************************************
1120:Generated_Source\PSoC4/Bootloader.c **** * Function Name: Bootloader_LaunchApplication
ARM GAS  C:\Users\VIDEOH~1\AppData\Local\Temp\ccEAPbdh.s 			page 24


1121:Generated_Source\PSoC4/Bootloader.c **** ****************************************************************************//**
1122:Generated_Source\PSoC4/Bootloader.c **** * \internal
1123:Generated_Source\PSoC4/Bootloader.c **** *
1124:Generated_Source\PSoC4/Bootloader.c **** * \brief
1125:Generated_Source\PSoC4/Bootloader.c **** *  Schedules the Bootloadable application and resets the device.
1126:Generated_Source\PSoC4/Bootloader.c **** *
1127:Generated_Source\PSoC4/Bootloader.c **** * \return
1128:Generated_Source\PSoC4/Bootloader.c **** *  This method will never return.
1129:Generated_Source\PSoC4/Bootloader.c **** *
1130:Generated_Source\PSoC4/Bootloader.c **** * \endinternal
1131:Generated_Source\PSoC4/Bootloader.c **** *******************************************************************************/
1132:Generated_Source\PSoC4/Bootloader.c **** static void Bootloader_LaunchApplication(void) CYSMALL \
1133:Generated_Source\PSoC4/Bootloader.c ****                     
1134:Generated_Source\PSoC4/Bootloader.c **** {
1135:Generated_Source\PSoC4/Bootloader.c ****     /* Schedule Bootloadable to start after a reset */
1136:Generated_Source\PSoC4/Bootloader.c ****     Bootloader_SET_RUN_TYPE(Bootloader_SCHEDULE_BTLDB);
1137:Generated_Source\PSoC4/Bootloader.c **** 
1138:Generated_Source\PSoC4/Bootloader.c ****     CySoftwareReset();
1139:Generated_Source\PSoC4/Bootloader.c **** }
1140:Generated_Source\PSoC4/Bootloader.c **** #endif /*(CYDEV_PROJ_TYPE != CYDEV_PROJ_TYPE_LOADABLEANDBOOTLOADER)*/
1141:Generated_Source\PSoC4/Bootloader.c **** 
1142:Generated_Source\PSoC4/Bootloader.c **** /*******************************************************************************
1143:Generated_Source\PSoC4/Bootloader.c **** * Function Name: Bootloader_Exit
1144:Generated_Source\PSoC4/Bootloader.c **** ****************************************************************************//**
1145:Generated_Source\PSoC4/Bootloader.c **** *
1146:Generated_Source\PSoC4/Bootloader.c **** *\brief
1147:Generated_Source\PSoC4/Bootloader.c **** *  Schedules the specified application and performs a software reset to launch
1148:Generated_Source\PSoC4/Bootloader.c **** *  a specified application.
1149:Generated_Source\PSoC4/Bootloader.c **** *
1150:Generated_Source\PSoC4/Bootloader.c **** *  If the specified application is not valid, the Bootloader (the result of the
1151:Generated_Source\PSoC4/Bootloader.c **** *  ValidateBootloadable() function execution returns other than CYRET_SUCCESS,
1152:Generated_Source\PSoC4/Bootloader.c **** *  the Bootloader application is launched.
1153:Generated_Source\PSoC4/Bootloader.c **** *
1154:Generated_Source\PSoC4/Bootloader.c **** * \param appId 
1155:Generated_Source\PSoC4/Bootloader.c **** *   The application to be started:
1156:Generated_Source\PSoC4/Bootloader.c **** *   - Bootloader_EXIT_TO_BTLDR - The Bootloader application will be started on
1157:Generated_Source\PSoC4/Bootloader.c **** *                                     a software reset.
1158:Generated_Source\PSoC4/Bootloader.c **** *   - Bootloader_EXIT_TO_BTLDB;
1159:Generated_Source\PSoC4/Bootloader.c **** *   - Bootloader_EXIT_TO_BTLDB_1 - Bootloadable application # 1 will be
1160:Generated_Source\PSoC4/Bootloader.c **** *                                     started on a software reset.
1161:Generated_Source\PSoC4/Bootloader.c **** *   - Bootloader_EXIT_TO_BTLDB_2 - Bootloadable application # 2 will be
1162:Generated_Source\PSoC4/Bootloader.c **** *                                     started on a software reset. Available only
1163:Generated_Source\PSoC4/Bootloader.c **** *                                     if the "Dual-application" option is enabled in
1164:Generated_Source\PSoC4/Bootloader.c **** *                                     the component customizer.
1165:Generated_Source\PSoC4/Bootloader.c **** * \return
1166:Generated_Source\PSoC4/Bootloader.c **** *  This function never returns.
1167:Generated_Source\PSoC4/Bootloader.c **** *
1168:Generated_Source\PSoC4/Bootloader.c **** *******************************************************************************/
1169:Generated_Source\PSoC4/Bootloader.c **** void Bootloader_Exit(uint8 appId) CYSMALL 
1170:Generated_Source\PSoC4/Bootloader.c **** {
1171:Generated_Source\PSoC4/Bootloader.c ****     if(Bootloader_EXIT_TO_BTLDR == appId)
1172:Generated_Source\PSoC4/Bootloader.c ****     {
1173:Generated_Source\PSoC4/Bootloader.c ****         Bootloader_SET_RUN_TYPE(Bootloader_SCHEDULE_BTLDR_INIT_STATE);
1174:Generated_Source\PSoC4/Bootloader.c ****     }
1175:Generated_Source\PSoC4/Bootloader.c ****     else
1176:Generated_Source\PSoC4/Bootloader.c ****     {
1177:Generated_Source\PSoC4/Bootloader.c ****         if(CYRET_SUCCESS == Bootloader_ValidateBootloadable(appId))
ARM GAS  C:\Users\VIDEOH~1\AppData\Local\Temp\ccEAPbdh.s 			page 25


1178:Generated_Source\PSoC4/Bootloader.c ****         {
1179:Generated_Source\PSoC4/Bootloader.c ****             /* Set active application in metadata */
1180:Generated_Source\PSoC4/Bootloader.c ****             uint8 CYDATA idx;
1181:Generated_Source\PSoC4/Bootloader.c ****             for(idx = 0u; idx < Bootloader_MAX_NUM_OF_BTLDB; idx++)
1182:Generated_Source\PSoC4/Bootloader.c ****             {
1183:Generated_Source\PSoC4/Bootloader.c ****                 Bootloader_SetFlashByte((uint32) Bootloader_MD_BTLDB_ACTIVE_OFFSET(idx),
1184:Generated_Source\PSoC4/Bootloader.c ****                                               (uint8 )(idx == appId));
1185:Generated_Source\PSoC4/Bootloader.c ****             }
1186:Generated_Source\PSoC4/Bootloader.c **** 
1187:Generated_Source\PSoC4/Bootloader.c ****         #if((0u != Bootloader_DUAL_APP_BOOTLOADER) || \
1188:Generated_Source\PSoC4/Bootloader.c ****             (CYDEV_PROJ_TYPE == CYDEV_PROJ_TYPE_LOADABLEANDBOOTLOADER))
1189:Generated_Source\PSoC4/Bootloader.c ****             Bootloader_activeApp = appId;
1190:Generated_Source\PSoC4/Bootloader.c ****         #endif /* (0u != Bootloader_DUAL_APP_BOOTLOADER) || 
1191:Generated_Source\PSoC4/Bootloader.c ****                   (CYDEV_PROJ_TYPE == CYDEV_PROJ_TYPE_LOADABLEANDBOOTLOADER))*/
1192:Generated_Source\PSoC4/Bootloader.c **** 
1193:Generated_Source\PSoC4/Bootloader.c ****             Bootloader_SET_RUN_TYPE(Bootloader_SCHEDULE_BTLDB);
1194:Generated_Source\PSoC4/Bootloader.c ****         }
1195:Generated_Source\PSoC4/Bootloader.c ****         else
1196:Generated_Source\PSoC4/Bootloader.c ****         {
1197:Generated_Source\PSoC4/Bootloader.c ****             Bootloader_SET_RUN_TYPE(Bootloader_SCHEDULE_BTLDR_INIT_STATE);
1198:Generated_Source\PSoC4/Bootloader.c ****         }
1199:Generated_Source\PSoC4/Bootloader.c ****     }
1200:Generated_Source\PSoC4/Bootloader.c **** 
1201:Generated_Source\PSoC4/Bootloader.c ****     CySoftwareReset();
1202:Generated_Source\PSoC4/Bootloader.c **** }
1203:Generated_Source\PSoC4/Bootloader.c **** 
1204:Generated_Source\PSoC4/Bootloader.c **** #if (CYDEV_PROJ_TYPE != CYDEV_PROJ_TYPE_LOADABLEANDBOOTLOADER)
1205:Generated_Source\PSoC4/Bootloader.c **** /*******************************************************************************
1206:Generated_Source\PSoC4/Bootloader.c **** * Function Name: CyBtldr_CheckLaunch
1207:Generated_Source\PSoC4/Bootloader.c **** ****************************************************************************//**
1208:Generated_Source\PSoC4/Bootloader.c **** * \internal
1209:Generated_Source\PSoC4/Bootloader.c **** *
1210:Generated_Source\PSoC4/Bootloader.c **** * \brief
1211:Generated_Source\PSoC4/Bootloader.c **** *  This routine checks if the Bootloader or Bootloadable application has to
1212:Generated_Source\PSoC4/Bootloader.c **** *  be run.  If the application has to be run, it will start executing.
1213:Generated_Source\PSoC4/Bootloader.c **** *  If the Bootloader has to be run, it will return, so the Bootloader can
1214:Generated_Source\PSoC4/Bootloader.c **** *  continue starting up.
1215:Generated_Source\PSoC4/Bootloader.c **** *
1216:Generated_Source\PSoC4/Bootloader.c **** * \return
1217:Generated_Source\PSoC4/Bootloader.c **** *  It will not return if it determines that the Bootloadable application should
1218:Generated_Source\PSoC4/Bootloader.c **** *  be run.
1219:Generated_Source\PSoC4/Bootloader.c **** *
1220:Generated_Source\PSoC4/Bootloader.c **** * \endinternal
1221:Generated_Source\PSoC4/Bootloader.c **** *******************************************************************************/
1222:Generated_Source\PSoC4/Bootloader.c **** void CyBtldr_CheckLaunch(void) CYSMALL 
1223:Generated_Source\PSoC4/Bootloader.c **** {
1224:Generated_Source\PSoC4/Bootloader.c **** 
1225:Generated_Source\PSoC4/Bootloader.c **** #if(CY_PSOC4)
1226:Generated_Source\PSoC4/Bootloader.c **** 
1227:Generated_Source\PSoC4/Bootloader.c ****     /*******************************************************************************
1228:Generated_Source\PSoC4/Bootloader.c ****     * Set cyBtldrRunType to zero in the case of a non-software reset. This means
1229:Generated_Source\PSoC4/Bootloader.c ****     * that the Bootloader application is scheduled - the initial clean state. The
1230:Generated_Source\PSoC4/Bootloader.c ****     * value of cyBtldrRunType is valid only in the case of a software reset.
1231:Generated_Source\PSoC4/Bootloader.c ****     *******************************************************************************/
1232:Generated_Source\PSoC4/Bootloader.c ****     if (0u == (Bootloader_RES_CAUSE_REG & Bootloader_RES_CAUSE_RESET_SOFT))
1233:Generated_Source\PSoC4/Bootloader.c ****     {
1234:Generated_Source\PSoC4/Bootloader.c ****         cyBtldrRunType = Bootloader_SCHEDULE_BTLDR_INIT_STATE;
ARM GAS  C:\Users\VIDEOH~1\AppData\Local\Temp\ccEAPbdh.s 			page 26


1235:Generated_Source\PSoC4/Bootloader.c ****     }
1236:Generated_Source\PSoC4/Bootloader.c **** 
1237:Generated_Source\PSoC4/Bootloader.c **** #endif /* (CY_PSOC4) */
1238:Generated_Source\PSoC4/Bootloader.c **** 
1239:Generated_Source\PSoC4/Bootloader.c **** 
1240:Generated_Source\PSoC4/Bootloader.c ****     if (Bootloader_GET_RUN_TYPE == Bootloader_SCHEDULE_BTLDB)
1241:Generated_Source\PSoC4/Bootloader.c ****     {
1242:Generated_Source\PSoC4/Bootloader.c **** 
1243:Generated_Source\PSoC4/Bootloader.c **** 
1244:Generated_Source\PSoC4/Bootloader.c ****     #if (CYDEV_PROJ_TYPE != CYDEV_PROJ_TYPE_LAUNCHER)
1245:Generated_Source\PSoC4/Bootloader.c ****         /******************************************************************************* 
1246:Generated_Source\PSoC4/Bootloader.c ****         * Classic Single-app or Dual-app Bootloader use cases.
1247:Generated_Source\PSoC4/Bootloader.c ****         * The active application number is taken from Bootloader_activeApp not
1248:Generated_Source\PSoC4/Bootloader.c ****         * to break backward compatibility.
1249:Generated_Source\PSoC4/Bootloader.c ****         *******************************************************************************/
1250:Generated_Source\PSoC4/Bootloader.c ****         uint8 activeApp = Bootloader_activeApp;
1251:Generated_Source\PSoC4/Bootloader.c ****         
1252:Generated_Source\PSoC4/Bootloader.c ****         
1253:Generated_Source\PSoC4/Bootloader.c ****         /******************************************************************************* 
1254:Generated_Source\PSoC4/Bootloader.c ****         * Classic Dual-app Bootloader with 2 Combination projects use case.
1255:Generated_Source\PSoC4/Bootloader.c ****         * In this use case Classic Dual-app Bootloader is not the only one, who switches
1256:Generated_Source\PSoC4/Bootloader.c ****         * between applications. So if there is no valid value for Bootloader_activeApp,
1257:Generated_Source\PSoC4/Bootloader.c ****         * then we should additionally check the metadata if one of the Combination application
1258:Generated_Source\PSoC4/Bootloader.c ****         * has set a value there.
1259:Generated_Source\PSoC4/Bootloader.c ****         *******************************************************************************/ 
1260:Generated_Source\PSoC4/Bootloader.c ****         #if (CYDEV_PROJ_TYPE == CYDEV_PROJ_TYPE_MULTIAPPBOOTLOADER)
1261:Generated_Source\PSoC4/Bootloader.c ****         if (activeApp >= Bootloader_MD_BTLDB_ACTIVE_NONE) 
1262:Generated_Source\PSoC4/Bootloader.c ****         {
1263:Generated_Source\PSoC4/Bootloader.c ****             activeApp = Bootloader_GetActiveAppFromMetadata();
1264:Generated_Source\PSoC4/Bootloader.c ****         }
1265:Generated_Source\PSoC4/Bootloader.c ****         #endif /*(CYDEV_PROJ_TYPE == CYDEV_PROJ_TYPE_MULTIAPPBOOTLOADER)*/ 
1266:Generated_Source\PSoC4/Bootloader.c ****     #else 
1267:Generated_Source\PSoC4/Bootloader.c ****         /* Launcher use case.  The active application number is taken from metadata. */
1268:Generated_Source\PSoC4/Bootloader.c ****         uint8 activeApp = Bootloader_GetActiveAppFromMetadata(); 
1269:Generated_Source\PSoC4/Bootloader.c ****     #endif /* (CYDEV_PROJ_TYPE != CYDEV_PROJ_TYPE_LAUNCHER) */
1270:Generated_Source\PSoC4/Bootloader.c ****         
1271:Generated_Source\PSoC4/Bootloader.c ****         Bootloader_SET_RUN_TYPE(Bootloader_SCHEDULE_BTLDR_INIT_STATE);
1272:Generated_Source\PSoC4/Bootloader.c **** 
1273:Generated_Source\PSoC4/Bootloader.c ****         /*******************************************************************************
1274:Generated_Source\PSoC4/Bootloader.c ****         * Indicates that we have told ourselves to jump to the application because we have
1275:Generated_Source\PSoC4/Bootloader.c ****         * already told ourselves to jump, we do not do any expensive verification of the
1276:Generated_Source\PSoC4/Bootloader.c ****         * application. We just check to make sure that the value at CY_APP_ADDR_ADDRESS
1277:Generated_Source\PSoC4/Bootloader.c ****         * is something other than 0 and active application is valid.
1278:Generated_Source\PSoC4/Bootloader.c ****         *******************************************************************************/
1279:Generated_Source\PSoC4/Bootloader.c ****         if ((0u != Bootloader_GetMetadata(Bootloader_GET_BTLDB_ADDR, activeApp)) 
1280:Generated_Source\PSoC4/Bootloader.c ****     #if (CYDEV_PROJ_TYPE != CYDEV_PROJ_TYPE_BOOTLOADER)
1281:Generated_Source\PSoC4/Bootloader.c ****             && (activeApp < Bootloader_MD_BTLDB_ACTIVE_NONE)
1282:Generated_Source\PSoC4/Bootloader.c ****     #endif /* (CYDEV_PROJ_TYPE != CYDEV_PROJ_TYPE_BOOTLOADER) */        
1283:Generated_Source\PSoC4/Bootloader.c ****             )
1284:Generated_Source\PSoC4/Bootloader.c ****         {
1285:Generated_Source\PSoC4/Bootloader.c ****             /* Never returns from this method */
1286:Generated_Source\PSoC4/Bootloader.c ****             Bootloader_LaunchBootloadable(Bootloader_GetMetadata(Bootloader_GET_BTLDB_ADDR,
1287:Generated_Source\PSoC4/Bootloader.c ****                                                                              activeApp));
1288:Generated_Source\PSoC4/Bootloader.c ****         }
1289:Generated_Source\PSoC4/Bootloader.c ****     }
1290:Generated_Source\PSoC4/Bootloader.c **** }
1291:Generated_Source\PSoC4/Bootloader.c **** 
ARM GAS  C:\Users\VIDEOH~1\AppData\Local\Temp\ccEAPbdh.s 			page 27


1292:Generated_Source\PSoC4/Bootloader.c **** 
1293:Generated_Source\PSoC4/Bootloader.c **** /* Moves argument appAddr (RO) into PC, moving execution to appAddr */
1294:Generated_Source\PSoC4/Bootloader.c **** #if defined (__ARMCC_VERSION)
1295:Generated_Source\PSoC4/Bootloader.c **** 
1296:Generated_Source\PSoC4/Bootloader.c ****     __asm static void Bootloader_LaunchBootloadable(uint32 appAddr)
1297:Generated_Source\PSoC4/Bootloader.c ****     {
1298:Generated_Source\PSoC4/Bootloader.c ****         BX  R0
1299:Generated_Source\PSoC4/Bootloader.c ****         ALIGN
1300:Generated_Source\PSoC4/Bootloader.c ****     }
1301:Generated_Source\PSoC4/Bootloader.c **** 
1302:Generated_Source\PSoC4/Bootloader.c **** #elif defined(__GNUC__)
1303:Generated_Source\PSoC4/Bootloader.c **** 
1304:Generated_Source\PSoC4/Bootloader.c ****     __attribute__((noinline)) /* Workaround for GCC toolchain bug with inlining */
1305:Generated_Source\PSoC4/Bootloader.c ****     __attribute__((naked))
1306:Generated_Source\PSoC4/Bootloader.c ****     static void Bootloader_LaunchBootloadable(uint32 appAddr)
1307:Generated_Source\PSoC4/Bootloader.c ****     {
 186              		.loc 1 1307 0
 187              		.cfi_startproc
 188              		@ Naked Function: prologue and epilogue provided by programmer.
 189              		@ args = 0, pretend = 0, frame = 0
 190              		@ frame_needed = 0, uses_anonymous_args = 0
 191              	.LVL28:
1308:Generated_Source\PSoC4/Bootloader.c ****         __asm volatile("    BX  R0\n");
 192              		.loc 1 1308 0
 193              		.syntax divided
 194              	@ 1308 "Generated_Source\PSoC4\Bootloader.c" 1
 195 0000 0047     		    BX  R0
 196              	
 197              	@ 0 "" 2
1309:Generated_Source\PSoC4/Bootloader.c ****     }
 198              		.loc 1 1309 0
 199              		.thumb
 200              		.syntax unified
 201              		.cfi_endproc
 202              	.LFE40:
 203              		.size	Bootloader_LaunchBootloadable, .-Bootloader_LaunchBootloadable
 204              		.section	.text.Bootloader_LaunchApplication,"ax",%progbits
 205              		.align	2
 206              		.code	16
 207              		.thumb_func
 208              		.type	Bootloader_LaunchApplication, %function
 209              	Bootloader_LaunchApplication:
 210              	.LFB37:
1134:Generated_Source\PSoC4/Bootloader.c ****     /* Schedule Bootloadable to start after a reset */
 211              		.loc 1 1134 0
 212              		.cfi_startproc
 213              		@ args = 0, pretend = 0, frame = 0
 214              		@ frame_needed = 0, uses_anonymous_args = 0
 215 0000 10B5     		push	{r4, lr}
 216              		.cfi_def_cfa_offset 8
 217              		.cfi_offset 4, -8
 218              		.cfi_offset 14, -4
1136:Generated_Source\PSoC4/Bootloader.c **** 
 219              		.loc 1 1136 0
 220 0002 8022     		movs	r2, #128
 221 0004 024B     		ldr	r3, .L18
 222 0006 1A60     		str	r2, [r3]
ARM GAS  C:\Users\VIDEOH~1\AppData\Local\Temp\ccEAPbdh.s 			page 28


1138:Generated_Source\PSoC4/Bootloader.c **** }
 223              		.loc 1 1138 0
 224 0008 FFF7FEFF 		bl	CySoftwareReset
 225              	.LVL29:
1139:Generated_Source\PSoC4/Bootloader.c **** #endif /*(CYDEV_PROJ_TYPE != CYDEV_PROJ_TYPE_LOADABLEANDBOOTLOADER)*/
 226              		.loc 1 1139 0
 227              		@ sp needed
 228 000c 10BD     		pop	{r4, pc}
 229              	.L19:
 230 000e C046     		.align	2
 231              	.L18:
 232 0010 00000000 		.word	cyBtldrRunType
 233              		.cfi_endproc
 234              	.LFE37:
 235              		.size	Bootloader_LaunchApplication, .-Bootloader_LaunchApplication
 236              		.section	.text.Bootloader_WritePacket,"ax",%progbits
 237              		.align	2
 238              		.code	16
 239              		.thumb_func
 240              		.type	Bootloader_WritePacket, %function
 241              	Bootloader_WritePacket:
 242              	.LFB43:
1310:Generated_Source\PSoC4/Bootloader.c **** 
1311:Generated_Source\PSoC4/Bootloader.c **** #elif defined (__ICCARM__)
1312:Generated_Source\PSoC4/Bootloader.c **** 
1313:Generated_Source\PSoC4/Bootloader.c ****     static void Bootloader_LaunchBootloadable(uint32 appAddr)
1314:Generated_Source\PSoC4/Bootloader.c ****     {
1315:Generated_Source\PSoC4/Bootloader.c ****         __asm volatile("    BX  R0\n");
1316:Generated_Source\PSoC4/Bootloader.c ****     }
1317:Generated_Source\PSoC4/Bootloader.c **** 
1318:Generated_Source\PSoC4/Bootloader.c **** #endif  /* (__ARMCC_VERSION) */
1319:Generated_Source\PSoC4/Bootloader.c **** #endif /* (CYDEV_PROJ_TYPE != CYDEV_PROJ_TYPE_LOADABLEANDBOOTLOADER)*/
1320:Generated_Source\PSoC4/Bootloader.c **** 
1321:Generated_Source\PSoC4/Bootloader.c **** /*******************************************************************************
1322:Generated_Source\PSoC4/Bootloader.c **** * Function Name: Bootloader_ValidateBootloadable
1323:Generated_Source\PSoC4/Bootloader.c **** ****************************************************************************//**
1324:Generated_Source\PSoC4/Bootloader.c **** * \brief
1325:Generated_Source\PSoC4/Bootloader.c **** *  Performs the Bootloadable application validation by calculating the
1326:Generated_Source\PSoC4/Bootloader.c **** *  application image checksum and comparing it with the checksum value stored
1327:Generated_Source\PSoC4/Bootloader.c **** *  in the Bootloadable Application Checksum field of the metadata section.
1328:Generated_Source\PSoC4/Bootloader.c **** *
1329:Generated_Source\PSoC4/Bootloader.c **** *  If the "Fast bootloadable application validation" option is enabled in the
1330:Generated_Source\PSoC4/Bootloader.c **** *  component customizer and Bootloadable application successfully passes
1331:Generated_Source\PSoC4/Bootloader.c **** *  validation, the Bootloadable Application Verification Status field of the
1332:Generated_Source\PSoC4/Bootloader.c **** *  metadata section is updated. Refer to the "Metadata Layout" section for the
1333:Generated_Source\PSoC4/Bootloader.c **** *  details.
1334:Generated_Source\PSoC4/Bootloader.c **** *
1335:Generated_Source\PSoC4/Bootloader.c **** *  If the "Fast bootloadable application validation" option is enabled and
1336:Generated_Source\PSoC4/Bootloader.c **** *  the Bootloadable Application Verification Status field of the metadata section
1337:Generated_Source\PSoC4/Bootloader.c **** *  claims that the Bootloadable application is valid, the function returns
1338:Generated_Source\PSoC4/Bootloader.c **** *  CYRET_SUCCESS without further checksum calculation.
1339:Generated_Source\PSoC4/Bootloader.c **** *
1340:Generated_Source\PSoC4/Bootloader.c **** *  \param appId
1341:Generated_Source\PSoC4/Bootloader.c **** *  The number of the Bootloadable application should be 0 for the normal
1342:Generated_Source\PSoC4/Bootloader.c **** *  bootloader and 0 or 1 for the dual-application bootloader.
1343:Generated_Source\PSoC4/Bootloader.c **** *
1344:Generated_Source\PSoC4/Bootloader.c **** * \return
ARM GAS  C:\Users\VIDEOH~1\AppData\Local\Temp\ccEAPbdh.s 			page 29


1345:Generated_Source\PSoC4/Bootloader.c **** *  CYRET_SUCCESS - If the specified the Bootloadable application is valid.
1346:Generated_Source\PSoC4/Bootloader.c **** *  CYRET_BAD_DATA is returned if the input parameter is out of the specified range
1347:Generated_Source\PSoC4/Bootloader.c **** *      or the calculated checksum does not match the stored checksum.
1348:Generated_Source\PSoC4/Bootloader.c **** *******************************************************************************/
1349:Generated_Source\PSoC4/Bootloader.c **** cystatus Bootloader_ValidateBootloadable(uint8 appId) CYSMALL \
1350:Generated_Source\PSoC4/Bootloader.c **** 
1351:Generated_Source\PSoC4/Bootloader.c ****     {
1352:Generated_Source\PSoC4/Bootloader.c ****         uint32 CYDATA idx;
1353:Generated_Source\PSoC4/Bootloader.c **** 
1354:Generated_Source\PSoC4/Bootloader.c ****         uint32 CYDATA end   = Bootloader_FIRST_APP_BYTE(appId) +
1355:Generated_Source\PSoC4/Bootloader.c ****                               Bootloader_GetMetadata(Bootloader_GET_BTLDB_LENGTH, appId);
1356:Generated_Source\PSoC4/Bootloader.c **** 
1357:Generated_Source\PSoC4/Bootloader.c ****         CYBIT  valid = 0u; /* Assume bad flash image */
1358:Generated_Source\PSoC4/Bootloader.c ****         uint8  CYDATA calcedChecksum = 0u;
1359:Generated_Source\PSoC4/Bootloader.c **** 
1360:Generated_Source\PSoC4/Bootloader.c **** 
1361:Generated_Source\PSoC4/Bootloader.c ****         #if(0u != Bootloader_DUAL_APP_BOOTLOADER)
1362:Generated_Source\PSoC4/Bootloader.c **** 
1363:Generated_Source\PSoC4/Bootloader.c ****             if(appId > 1u)
1364:Generated_Source\PSoC4/Bootloader.c ****             {
1365:Generated_Source\PSoC4/Bootloader.c ****                 return(CYRET_BAD_DATA);
1366:Generated_Source\PSoC4/Bootloader.c ****             }
1367:Generated_Source\PSoC4/Bootloader.c **** 
1368:Generated_Source\PSoC4/Bootloader.c ****         #endif  /* (0u != Bootloader_DUAL_APP_BOOTLOADER) */
1369:Generated_Source\PSoC4/Bootloader.c **** 
1370:Generated_Source\PSoC4/Bootloader.c **** 
1371:Generated_Source\PSoC4/Bootloader.c ****         #if(0u != Bootloader_FAST_APP_VALIDATION)
1372:Generated_Source\PSoC4/Bootloader.c ****             if(Bootloader_GetMetadata(Bootloader_GET_BTLDB_STATUS, appId) ==
1373:Generated_Source\PSoC4/Bootloader.c ****                Bootloader_MD_BTLDB_IS_VERIFIED)
1374:Generated_Source\PSoC4/Bootloader.c ****             {
1375:Generated_Source\PSoC4/Bootloader.c ****                 return(CYRET_SUCCESS);
1376:Generated_Source\PSoC4/Bootloader.c ****             }
1377:Generated_Source\PSoC4/Bootloader.c ****         #endif  /* (0u != Bootloader_FAST_APP_VALIDATION) */
1378:Generated_Source\PSoC4/Bootloader.c **** 
1379:Generated_Source\PSoC4/Bootloader.c **** 
1380:Generated_Source\PSoC4/Bootloader.c ****         /* Calculate checksum of bootloadable image */
1381:Generated_Source\PSoC4/Bootloader.c ****         for(idx = Bootloader_FIRST_APP_BYTE(appId); idx < end; ++idx)
1382:Generated_Source\PSoC4/Bootloader.c ****         {
1383:Generated_Source\PSoC4/Bootloader.c ****             uint8 CYDATA curByte = Bootloader_GET_CODE_BYTE(idx);
1384:Generated_Source\PSoC4/Bootloader.c **** 
1385:Generated_Source\PSoC4/Bootloader.c ****             if((curByte != 0u) && (curByte != 0xFFu))
1386:Generated_Source\PSoC4/Bootloader.c ****             {
1387:Generated_Source\PSoC4/Bootloader.c ****                 valid = 1u;
1388:Generated_Source\PSoC4/Bootloader.c ****             }
1389:Generated_Source\PSoC4/Bootloader.c **** 
1390:Generated_Source\PSoC4/Bootloader.c ****             calcedChecksum += curByte;
1391:Generated_Source\PSoC4/Bootloader.c ****         }
1392:Generated_Source\PSoC4/Bootloader.c **** 
1393:Generated_Source\PSoC4/Bootloader.c **** 
1394:Generated_Source\PSoC4/Bootloader.c ****         /***************************************************************************
1395:Generated_Source\PSoC4/Bootloader.c ****         * We do not compute a checksum over the meta data section, so no need to
1396:Generated_Source\PSoC4/Bootloader.c ****         * subtract App Verified or App Active information here like we do when
1397:Generated_Source\PSoC4/Bootloader.c ****         * verifying a row.
1398:Generated_Source\PSoC4/Bootloader.c ****         ***************************************************************************/
1399:Generated_Source\PSoC4/Bootloader.c **** 
1400:Generated_Source\PSoC4/Bootloader.c ****         #if((!CY_PSOC4) && (CYDEV_ECC_ENABLE == 0u))
1401:Generated_Source\PSoC4/Bootloader.c **** 
ARM GAS  C:\Users\VIDEOH~1\AppData\Local\Temp\ccEAPbdh.s 			page 30


1402:Generated_Source\PSoC4/Bootloader.c ****             /* Add ECC data to checksum */
1403:Generated_Source\PSoC4/Bootloader.c ****             idx = ((Bootloader_FIRST_APP_BYTE(appId)) >> 3u);
1404:Generated_Source\PSoC4/Bootloader.c **** 
1405:Generated_Source\PSoC4/Bootloader.c ****             /* Flash may run into meta data, so ECC does not use full row */
1406:Generated_Source\PSoC4/Bootloader.c ****             end = (end == (CY_FLASH_SIZE - Bootloader_MD_SIZEOF))
1407:Generated_Source\PSoC4/Bootloader.c ****                 ? (CY_FLASH_SIZE >> 3u)
1408:Generated_Source\PSoC4/Bootloader.c ****                 : (end >> 3u);
1409:Generated_Source\PSoC4/Bootloader.c **** 
1410:Generated_Source\PSoC4/Bootloader.c ****             for (; idx < end; ++idx)
1411:Generated_Source\PSoC4/Bootloader.c ****             {
1412:Generated_Source\PSoC4/Bootloader.c ****                 calcedChecksum += CY_GET_XTND_REG8((volatile uint8 *)(CYDEV_ECC_BASE + idx));
1413:Generated_Source\PSoC4/Bootloader.c ****             }
1414:Generated_Source\PSoC4/Bootloader.c **** 
1415:Generated_Source\PSoC4/Bootloader.c ****         #endif  /* ((!CY_PSOC4) && (CYDEV_ECC_ENABLE == 0u)) */
1416:Generated_Source\PSoC4/Bootloader.c **** 
1417:Generated_Source\PSoC4/Bootloader.c ****         calcedChecksum = ( uint8 )1u + ( uint8 )(~calcedChecksum);
1418:Generated_Source\PSoC4/Bootloader.c **** 
1419:Generated_Source\PSoC4/Bootloader.c ****         if((calcedChecksum != Bootloader_GetMetadata(Bootloader_GET_BTLDB_CHECKSUM, appId)) ||
1420:Generated_Source\PSoC4/Bootloader.c ****            (0u == valid))
1421:Generated_Source\PSoC4/Bootloader.c ****         {
1422:Generated_Source\PSoC4/Bootloader.c ****             return(CYRET_BAD_DATA);
1423:Generated_Source\PSoC4/Bootloader.c ****         }
1424:Generated_Source\PSoC4/Bootloader.c **** 
1425:Generated_Source\PSoC4/Bootloader.c **** 
1426:Generated_Source\PSoC4/Bootloader.c ****         #if(0u != Bootloader_FAST_APP_VALIDATION)
1427:Generated_Source\PSoC4/Bootloader.c ****             Bootloader_SetFlashByte((uint32) Bootloader_MD_BTLDB_VERIFIED_OFFSET(appId),
1428:Generated_Source\PSoC4/Bootloader.c ****                                           Bootloader_MD_BTLDB_IS_VERIFIED);
1429:Generated_Source\PSoC4/Bootloader.c ****         #endif  /* (0u != Bootloader_FAST_APP_VALIDATION) */
1430:Generated_Source\PSoC4/Bootloader.c **** 
1431:Generated_Source\PSoC4/Bootloader.c **** 
1432:Generated_Source\PSoC4/Bootloader.c ****         return(CYRET_SUCCESS);
1433:Generated_Source\PSoC4/Bootloader.c **** }
1434:Generated_Source\PSoC4/Bootloader.c **** 
1435:Generated_Source\PSoC4/Bootloader.c **** #if (((0u != Bootloader_DUAL_APP_BOOTLOADER) && (CYDEV_PROJ_TYPE != CYDEV_PROJ_TYPE_LAUNCHER)) \
1436:Generated_Source\PSoC4/Bootloader.c ****                                           || (CYDEV_PROJ_TYPE == CYDEV_PROJ_TYPE_LOADABLEANDBOOTLOA
1437:Generated_Source\PSoC4/Bootloader.c **** /*******************************************************************************
1438:Generated_Source\PSoC4/Bootloader.c **** * Function Name: Bootloader_CheckImage
1439:Generated_Source\PSoC4/Bootloader.c **** ********************************************************************************
1440:Generated_Source\PSoC4/Bootloader.c **** * \internal
1441:Generated_Source\PSoC4/Bootloader.c **** *
1442:Generated_Source\PSoC4/Bootloader.c **** * \brief 
1443:Generated_Source\PSoC4/Bootloader.c **** *   This API checks if there is a permission to write to a certain image.
1444:Generated_Source\PSoC4/Bootloader.c **** *   It is used to check the active application as well as to check the Golden image.
1445:Generated_Source\PSoC4/Bootloader.c **** *
1446:Generated_Source\PSoC4/Bootloader.c **** * \param 
1447:Generated_Source\PSoC4/Bootloader.c **** *   appNumber - The application number.
1448:Generated_Source\PSoC4/Bootloader.c **** * \param 
1449:Generated_Source\PSoC4/Bootloader.c **** *   arrayNumber - The number of the flash page to write to.
1450:Generated_Source\PSoC4/Bootloader.c **** * \param 
1451:Generated_Source\PSoC4/Bootloader.c **** *   row - The row number to write to the flash.
1452:Generated_Source\PSoC4/Bootloader.c **** * \param 
1453:Generated_Source\PSoC4/Bootloader.c **** *   rowNumInArray - The row number inside the array.
1454:Generated_Source\PSoC4/Bootloader.c **** *
1455:Generated_Source\PSoC4/Bootloader.c **** * \return 
1456:Generated_Source\PSoC4/Bootloader.c **** *   CYRET_SUCCESS - Writing to a specified image is permitted.
1457:Generated_Source\PSoC4/Bootloader.c **** *   Bootloader_ERR_ACTIVE - Writing to this image is NOT permitted
1458:Generated_Source\PSoC4/Bootloader.c **** *   because the specified image is active or Golden.
ARM GAS  C:\Users\VIDEOH~1\AppData\Local\Temp\ccEAPbdh.s 			page 31


1459:Generated_Source\PSoC4/Bootloader.c **** *
1460:Generated_Source\PSoC4/Bootloader.c **** * \endinternal
1461:Generated_Source\PSoC4/Bootloader.c **** *******************************************************************************/
1462:Generated_Source\PSoC4/Bootloader.c **** static uint8 Bootloader_CheckImage(uint8 appNumber, uint8 arrayNumber, uint16 row, uint16 rowNumInA
1463:Generated_Source\PSoC4/Bootloader.c ****                                          
1464:Generated_Source\PSoC4/Bootloader.c **** {
1465:Generated_Source\PSoC4/Bootloader.c ****     uint16 CYDATA firstRow = 0xFFFFu;
1466:Generated_Source\PSoC4/Bootloader.c ****     uint16 CYDATA lastRow = 0xFFFFu;
1467:Generated_Source\PSoC4/Bootloader.c ****     uint8 CYDATA ackCode = CYRET_SUCCESS;
1468:Generated_Source\PSoC4/Bootloader.c **** 
1469:Generated_Source\PSoC4/Bootloader.c ****     if (appNumber < Bootloader_MAX_NUM_OF_BTLDB)
1470:Generated_Source\PSoC4/Bootloader.c ****     {    
1471:Generated_Source\PSoC4/Bootloader.c ****         /*******************************************************************************
1472:Generated_Source\PSoC4/Bootloader.c ****         * For the first Bootloadable application - gets the last flash row occupied by
1473:Generated_Source\PSoC4/Bootloader.c ****         * the Bootloader application image:
1474:Generated_Source\PSoC4/Bootloader.c ****         *  ---------------------------------------------------------------------------
1475:Generated_Source\PSoC4/Bootloader.c ****         * | Bootloader   | Bootloadable # 1 |     | Bootloadable # 2 |     | M2 | M1 |
1476:Generated_Source\PSoC4/Bootloader.c ****         *  ---------------------------------------------------------------------------
1477:Generated_Source\PSoC4/Bootloader.c ****         * |<--firstRow---|>
1478:Generated_Source\PSoC4/Bootloader.c ****         *
1479:Generated_Source\PSoC4/Bootloader.c ****         * For the second Bootloadable application - gets the last flash row occupied by
1480:Generated_Source\PSoC4/Bootloader.c ****         * the first Bootloadable application:
1481:Generated_Source\PSoC4/Bootloader.c ****         *  ---------------------------------------------------------------------------
1482:Generated_Source\PSoC4/Bootloader.c ****         * | Bootloader   | Bootloadable # 1 |     | Bootloadable # 2 |     | M2 | M1 |
1483:Generated_Source\PSoC4/Bootloader.c ****         *  ---------------------------------------------------------------------------
1484:Generated_Source\PSoC4/Bootloader.c ****         * |<-------------firstRow-----------------|>
1485:Generated_Source\PSoC4/Bootloader.c ****         *
1486:Generated_Source\PSoC4/Bootloader.c ****         * Incremented by 1 to get the first available row.
1487:Generated_Source\PSoC4/Bootloader.c ****         *
1488:Generated_Source\PSoC4/Bootloader.c ****         * NOTE M1 and M2 stand for metadata # 1 and metadata # 2, metadata 
1489:Generated_Source\PSoC4/Bootloader.c ****         * sections for the 1st and 2nd Bootloadable applications.
1490:Generated_Source\PSoC4/Bootloader.c ****         *******************************************************************************/
1491:Generated_Source\PSoC4/Bootloader.c ****         firstRow = (uint16) 1u +
1492:Generated_Source\PSoC4/Bootloader.c ****             (uint16) Bootloader_GetMetadata(Bootloader_GET_BTLDR_LAST_ROW,  appNumber);
1493:Generated_Source\PSoC4/Bootloader.c **** 
1494:Generated_Source\PSoC4/Bootloader.c ****     
1495:Generated_Source\PSoC4/Bootloader.c ****     /***********************************************************************************
1496:Generated_Source\PSoC4/Bootloader.c ****     * If this is the Upgradable Stack use case, then Stack application and User application
1497:Generated_Source\PSoC4/Bootloader.c ****     * do not occupy the half of flash each, as the other applications do for Classic Dual-app 
1498:Generated_Source\PSoC4/Bootloader.c ****     * and the general Launcher-Combination use cases. Another approach for calculation 
1499:Generated_Source\PSoC4/Bootloader.c ****     * lastRow is used for the Upgradable Stack use case. See Bootloader datasheet for more 
1500:Generated_Source\PSoC4/Bootloader.c ****     * details (use cases description).
1501:Generated_Source\PSoC4/Bootloader.c ****     ***********************************************************************************/
1502:Generated_Source\PSoC4/Bootloader.c **** 
1503:Generated_Source\PSoC4/Bootloader.c ****     
1504:Generated_Source\PSoC4/Bootloader.c ****     #if ((CYDEV_PROJ_TYPE == CYDEV_PROJ_TYPE_LOADABLEANDBOOTLOADER) && \
1505:Generated_Source\PSoC4/Bootloader.c ****          (0u != Bootloader_IS_STACK_APPLICATION))
1506:Generated_Source\PSoC4/Bootloader.c ****         /*******************************************************************************
1507:Generated_Source\PSoC4/Bootloader.c ****         * The Upgradable Stack application case implies that only this application can 
1508:Generated_Source\PSoC4/Bootloader.c ****         * perform a bootloading operation (the other one can't). So a verification 
1509:Generated_Source\PSoC4/Bootloader.c ****         * will be run to check if the Stack application is not overwritten. 
1510:Generated_Source\PSoC4/Bootloader.c ****         *
1511:Generated_Source\PSoC4/Bootloader.c ****         * The Stack application is defined as the first application.
1512:Generated_Source\PSoC4/Bootloader.c ****           * The User application is defined as the second application.
1513:Generated_Source\PSoC4/Bootloader.c ****         *
1514:Generated_Source\PSoC4/Bootloader.c ****         * This check is intended for the case when the Stack application is active
1515:Generated_Source\PSoC4/Bootloader.c ****         * and performs bootloading for the User application:
ARM GAS  C:\Users\VIDEOH~1\AppData\Local\Temp\ccEAPbdh.s 			page 32


1516:Generated_Source\PSoC4/Bootloader.c ****         *  ---------------------------------------------------------------------------
1517:Generated_Source\PSoC4/Bootloader.c ****         * |   Launcher   |       Stack     |           User app            | M2 | M1 |
1518:Generated_Source\PSoC4/Bootloader.c ****         *  ---------------------------------------------------------------------------
1519:Generated_Source\PSoC4/Bootloader.c ****         *                |<-------------------lastRow -------------------->|
1520:Generated_Source\PSoC4/Bootloader.c ****         *******************************************************************************/
1521:Generated_Source\PSoC4/Bootloader.c ****         lastRow = (uint16) Bootloader_GetMetadata(Bootloader_GET_BTLDR_LAST_ROW,
1522:Generated_Source\PSoC4/Bootloader.c ****                                                         Bootloader_USER_APPLICATION);    
1523:Generated_Source\PSoC4/Bootloader.c ****     
1524:Generated_Source\PSoC4/Bootloader.c ****     #else /* Classic Dual-app and the general Launcher-Combination use cases */    
1525:Generated_Source\PSoC4/Bootloader.c ****         /*******************************************************************************
1526:Generated_Source\PSoC4/Bootloader.c ****         * The number of flash rows available for both Bootloadable applications:
1527:Generated_Source\PSoC4/Bootloader.c ****         *
1528:Generated_Source\PSoC4/Bootloader.c ****         * The first Bootloadable application is active:
1529:Generated_Source\PSoC4/Bootloader.c ****         *  ---------------------------------------------------------------------------
1530:Generated_Source\PSoC4/Bootloader.c ****         * | Bootloader   | Bootloadable # 1 |     | Bootloadable # 2 |     | M2 | M1 |
1531:Generated_Source\PSoC4/Bootloader.c ****         *  ---------------------------------------------------------------------------
1532:Generated_Source\PSoC4/Bootloader.c ****         *                |<-------------------lastRow -------------------->|
1533:Generated_Source\PSoC4/Bootloader.c ****         *
1534:Generated_Source\PSoC4/Bootloader.c ****         * The second Bootloadable application is active:
1535:Generated_Source\PSoC4/Bootloader.c ****         *  ---------------------------------------------------------------------------
1536:Generated_Source\PSoC4/Bootloader.c ****         * | Bootloader   | Bootloadable # 1 |     | Bootloadable # 2 |     | M2 | M1 |
1537:Generated_Source\PSoC4/Bootloader.c ****         *  ---------------------------------------------------------------------------
1538:Generated_Source\PSoC4/Bootloader.c ****         *                                         |<-------lastRow-------->|
1539:Generated_Source\PSoC4/Bootloader.c ****         *******************************************************************************/
1540:Generated_Source\PSoC4/Bootloader.c ****         lastRow = (uint16)(CY_FLASH_NUMBER_ROWS - Bootloader_NUMBER_OF_METADATA_ROWS - firstRow);
1541:Generated_Source\PSoC4/Bootloader.c **** 
1542:Generated_Source\PSoC4/Bootloader.c ****         /*******************************************************************************
1543:Generated_Source\PSoC4/Bootloader.c ****         * The number of flash rows available for the active Bootloadable application:
1544:Generated_Source\PSoC4/Bootloader.c ****         *
1545:Generated_Source\PSoC4/Bootloader.c ****         * The first Bootloadable application is active: the number of flash rows available
1546:Generated_Source\PSoC4/Bootloader.c ****         * for both Bootloadable applications should be divided by 2, meaning 2 
1547:Generated_Source\PSoC4/Bootloader.c ****         * Bootloadable applications should fit there.
1548:Generated_Source\PSoC4/Bootloader.c ****         *
1549:Generated_Source\PSoC4/Bootloader.c ****         * The second Bootloadable application is active: the number of flash rows available
1550:Generated_Source\PSoC4/Bootloader.c ****         * for both Bootloadable applications should be divided by 1, meaning 1 
1551:Generated_Source\PSoC4/Bootloader.c ****         * Bootloadable application should fit there.
1552:Generated_Source\PSoC4/Bootloader.c ****         *******************************************************************************/
1553:Generated_Source\PSoC4/Bootloader.c ****         lastRow = (uint16)(lastRow / (uint8)(Bootloader_NUMBER_OF_BTLDBLE_APPS - appNumber));
1554:Generated_Source\PSoC4/Bootloader.c **** 
1555:Generated_Source\PSoC4/Bootloader.c ****         /*******************************************************************************
1556:Generated_Source\PSoC4/Bootloader.c ****         * The last row equals the first row plus the number of rows available for
1557:Generated_Source\PSoC4/Bootloader.c ****         * each Bootloadable application. That gives the flash row number right
1558:Generated_Source\PSoC4/Bootloader.c ****         * beyond the valid range, so we subtract 1.
1559:Generated_Source\PSoC4/Bootloader.c ****         *
1560:Generated_Source\PSoC4/Bootloader.c ****         * The first Bootloadable application is active:
1561:Generated_Source\PSoC4/Bootloader.c ****         *  ---------------------------------------------------------------------------
1562:Generated_Source\PSoC4/Bootloader.c ****         * | Bootloader   | Bootloadable # 1 |     | Bootloadable # 2 |     | M2 | M1 |
1563:Generated_Source\PSoC4/Bootloader.c ****         *  ---------------------------------------------------------------------------
1564:Generated_Source\PSoC4/Bootloader.c ****         * |<----------------lastRow ------------->|
1565:Generated_Source\PSoC4/Bootloader.c ****         *
1566:Generated_Source\PSoC4/Bootloader.c ****         * The second Bootloadable application is active:
1567:Generated_Source\PSoC4/Bootloader.c ****         *  ---------------------------------------------------------------------------
1568:Generated_Source\PSoC4/Bootloader.c ****         * | Bootloader   | Bootloadable # 1 |     | Bootloadable # 2 |     | M2 | M1 |
1569:Generated_Source\PSoC4/Bootloader.c ****         *  ---------------------------------------------------------------------------
1570:Generated_Source\PSoC4/Bootloader.c ****         * |<-----------------------------lastRow-------------------------->|
1571:Generated_Source\PSoC4/Bootloader.c ****         *******************************************************************************/
1572:Generated_Source\PSoC4/Bootloader.c ****         lastRow = (firstRow + lastRow) - 1u;
ARM GAS  C:\Users\VIDEOH~1\AppData\Local\Temp\ccEAPbdh.s 			page 33


1573:Generated_Source\PSoC4/Bootloader.c ****     #endif /*(0u == Bootloader_IS_STACK_APPLICATION)*/    
1574:Generated_Source\PSoC4/Bootloader.c **** 
1575:Generated_Source\PSoC4/Bootloader.c ****         /*******************************************************************************
1576:Generated_Source\PSoC4/Bootloader.c ****         * 1. Refuses to write a row within the range of the active application.
1577:Generated_Source\PSoC4/Bootloader.c ****         *
1578:Generated_Source\PSoC4/Bootloader.c ****         *  The first Bootloadable application is active:
1579:Generated_Source\PSoC4/Bootloader.c ****         *   ---------------------------------------------------------------------------
1580:Generated_Source\PSoC4/Bootloader.c ****         *  | Bootloader   | Bootloadable # 1 |     | Bootloadable # 2 |     | M2 | M1 |
1581:Generated_Source\PSoC4/Bootloader.c ****         *   ---------------------------------------------------------------------------
1582:Generated_Source\PSoC4/Bootloader.c ****         *  |<----------------lastRow ------------->|
1583:Generated_Source\PSoC4/Bootloader.c ****         *  |<--firstRow---|>
1584:Generated_Source\PSoC4/Bootloader.c ****         *                 |<-------protected------>|
1585:Generated_Source\PSoC4/Bootloader.c ****         *
1586:Generated_Source\PSoC4/Bootloader.c ****         *  the second Bootloadable application is active:
1587:Generated_Source\PSoC4/Bootloader.c ****         *   ---------------------------------------------------------------------------
1588:Generated_Source\PSoC4/Bootloader.c ****         *  | Bootloader   | Bootloadable # 1 |     | Bootloadable # 2 |     | M2 | M1 |
1589:Generated_Source\PSoC4/Bootloader.c ****         *   ---------------------------------------------------------------------------
1590:Generated_Source\PSoC4/Bootloader.c ****         *  |<-------------firstRow-----------------|>
1591:Generated_Source\PSoC4/Bootloader.c ****         *  |<-----------------------------lastRow-------------------------->|
1592:Generated_Source\PSoC4/Bootloader.c ****         *                                          |<-------protected------>|
1593:Generated_Source\PSoC4/Bootloader.c ****         *
1594:Generated_Source\PSoC4/Bootloader.c ****         * 2. Refuses to write to the row that contains metadata of the active
1595:Generated_Source\PSoC4/Bootloader.c ****         *    Bootloadable application.
1596:Generated_Source\PSoC4/Bootloader.c ****         *
1597:Generated_Source\PSoC4/Bootloader.c ****         *******************************************************************************/
1598:Generated_Source\PSoC4/Bootloader.c ****         if (((row >= firstRow) && (row <= lastRow)) || ((arrayNumber == Bootloader_MD_FLASH_ARRAY_N
1599:Generated_Source\PSoC4/Bootloader.c ****             (rowNumInArray == Bootloader_MD_ROW_NUM(appNumber))))
1600:Generated_Source\PSoC4/Bootloader.c ****         {
1601:Generated_Source\PSoC4/Bootloader.c ****             ackCode = Bootloader_ERR_ACTIVE;
1602:Generated_Source\PSoC4/Bootloader.c ****         }
1603:Generated_Source\PSoC4/Bootloader.c ****     }
1604:Generated_Source\PSoC4/Bootloader.c ****     else /*(appNumber < Bootloader_MAX_NUM_OF_BTLDB)*/
1605:Generated_Source\PSoC4/Bootloader.c ****     {
1606:Generated_Source\PSoC4/Bootloader.c ****         ackCode = Bootloader_ERR_ACTIVE;
1607:Generated_Source\PSoC4/Bootloader.c ****     }
1608:Generated_Source\PSoC4/Bootloader.c ****     
1609:Generated_Source\PSoC4/Bootloader.c ****     return ackCode;
1610:Generated_Source\PSoC4/Bootloader.c **** }
1611:Generated_Source\PSoC4/Bootloader.c **** #endif  /* (0u != Bootloader_DUAL_APP_BOOTLOADER) || \
1612:Generated_Source\PSoC4/Bootloader.c ****            (CYDEV_PROJ_TYPE == CYDEV_PROJ_TYPE_LOADABLEANDBOOTLOADER) */
1613:Generated_Source\PSoC4/Bootloader.c **** 
1614:Generated_Source\PSoC4/Bootloader.c **** #if (CYDEV_PROJ_TYPE != CYDEV_PROJ_TYPE_LAUNCHER)
1615:Generated_Source\PSoC4/Bootloader.c **** /*******************************************************************************
1616:Generated_Source\PSoC4/Bootloader.c **** * Function Name: Bootloader_HostLink
1617:Generated_Source\PSoC4/Bootloader.c **** ****************************************************************************//**
1618:Generated_Source\PSoC4/Bootloader.c **** *
1619:Generated_Source\PSoC4/Bootloader.c **** * \brief
1620:Generated_Source\PSoC4/Bootloader.c **** *  Causes the Bootloader to attempt to read data being transmitted by the
1621:Generated_Source\PSoC4/Bootloader.c **** *  host application.  If data is sent from the host, this establishes the
1622:Generated_Source\PSoC4/Bootloader.c **** *  communication interface to process all requests.
1623:Generated_Source\PSoC4/Bootloader.c **** *
1624:Generated_Source\PSoC4/Bootloader.c **** * \param
1625:Generated_Source\PSoC4/Bootloader.c **** *  timeOut:
1626:Generated_Source\PSoC4/Bootloader.c **** *   The amount of time to listen for data before giving up. The timeout is
1627:Generated_Source\PSoC4/Bootloader.c **** *   measured in 10s of ms.  Use 0 for an infinite wait.
1628:Generated_Source\PSoC4/Bootloader.c **** * 
1629:Generated_Source\PSoC4/Bootloader.c **** * \details
ARM GAS  C:\Users\VIDEOH~1\AppData\Local\Temp\ccEAPbdh.s 			page 34


1630:Generated_Source\PSoC4/Bootloader.c **** *  This function is public only for Launcher-Combination architecture. For 
1631:Generated_Source\PSoC4/Bootloader.c **** *  Classic Bootloader it is static, meaning private. 
1632:Generated_Source\PSoC4/Bootloader.c **** *******************************************************************************/
1633:Generated_Source\PSoC4/Bootloader.c **** #if (CYDEV_PROJ_TYPE != CYDEV_PROJ_TYPE_LOADABLEANDBOOTLOADER)
1634:Generated_Source\PSoC4/Bootloader.c **** static void Bootloader_HostLink(uint8 timeOut) CYLARGE 
1635:Generated_Source\PSoC4/Bootloader.c ****                    
1636:Generated_Source\PSoC4/Bootloader.c **** #else
1637:Generated_Source\PSoC4/Bootloader.c **** void Bootloader_HostLink(uint8 timeOut) CYLARGE 
1638:Generated_Source\PSoC4/Bootloader.c ****                    
1639:Generated_Source\PSoC4/Bootloader.c **** #endif /*(CYDEV_PROJ_TYPE != CYDEV_PROJ_TYPE_LOADABLEANDBOOTLOADER)*/    
1640:Generated_Source\PSoC4/Bootloader.c **** {
1641:Generated_Source\PSoC4/Bootloader.c ****     uint16    CYDATA numberRead;
1642:Generated_Source\PSoC4/Bootloader.c ****     uint16    CYDATA rspSize;
1643:Generated_Source\PSoC4/Bootloader.c ****     uint8     CYDATA ackCode;
1644:Generated_Source\PSoC4/Bootloader.c ****     uint16    CYDATA pktChecksum;
1645:Generated_Source\PSoC4/Bootloader.c ****     cystatus  CYDATA readStat;
1646:Generated_Source\PSoC4/Bootloader.c ****     uint16    CYDATA pktSize    = 0u;
1647:Generated_Source\PSoC4/Bootloader.c ****     uint8     CYDATA timeOutCnt = 10u;
1648:Generated_Source\PSoC4/Bootloader.c **** 
1649:Generated_Source\PSoC4/Bootloader.c ****     #if(0u != Bootloader_FAST_APP_VALIDATION)
1650:Generated_Source\PSoC4/Bootloader.c ****         uint8 CYDATA clearedMetaData = 0u;
1651:Generated_Source\PSoC4/Bootloader.c ****     #endif  /* (0u != Bootloader_FAST_APP_VALIDATION) */
1652:Generated_Source\PSoC4/Bootloader.c **** 
1653:Generated_Source\PSoC4/Bootloader.c **** #if (CYDEV_PROJ_TYPE == CYDEV_PROJ_TYPE_LOADABLEANDBOOTLOADER)
1654:Generated_Source\PSoC4/Bootloader.c ****     static  CYBIT communicationState = Bootloader_COMMUNICATION_STATE_IDLE; 
1655:Generated_Source\PSoC4/Bootloader.c ****     static uint16 CYDATA dataOffset = 0u; 
1656:Generated_Source\PSoC4/Bootloader.c ****     uint16  CYDATA btldrLastRow = 0xFFFFu;
1657:Generated_Source\PSoC4/Bootloader.c ****     uint8 needToCopyFlag = 0u;
1658:Generated_Source\PSoC4/Bootloader.c ****     uint32 app2StartAddress = Bootloader_GetMetadata(Bootloader_GET_BTLDB_ADDR, 
1659:Generated_Source\PSoC4/Bootloader.c ****                               Bootloader_MD_BTLDB_ACTIVE_1);
1660:Generated_Source\PSoC4/Bootloader.c **** #else
1661:Generated_Source\PSoC4/Bootloader.c ****     CYBIT     communicationState = Bootloader_COMMUNICATION_STATE_IDLE;
1662:Generated_Source\PSoC4/Bootloader.c ****     uint16 CYDATA dataOffset = 0u; 
1663:Generated_Source\PSoC4/Bootloader.c **** #endif /*CYDEV_PROJ_TYPE == CYDEV_PROJ_TYPE_LOADABLEANDBOOTLOADER*/
1664:Generated_Source\PSoC4/Bootloader.c **** 
1665:Generated_Source\PSoC4/Bootloader.c ****     uint8     packetBuffer[Bootloader_SIZEOF_COMMAND_BUFFER];
1666:Generated_Source\PSoC4/Bootloader.c ****     uint8     dataBuffer  [Bootloader_SIZEOF_COMMAND_BUFFER];
1667:Generated_Source\PSoC4/Bootloader.c **** 
1668:Generated_Source\PSoC4/Bootloader.c **** 
1669:Generated_Source\PSoC4/Bootloader.c ****     #if(!CY_PSOC4)
1670:Generated_Source\PSoC4/Bootloader.c ****         #if(0u == Bootloader_FAST_APP_VALIDATION)
1671:Generated_Source\PSoC4/Bootloader.c ****             #if !defined(CY_BOOT_VERSION)
1672:Generated_Source\PSoC4/Bootloader.c **** 
1673:Generated_Source\PSoC4/Bootloader.c ****                 /* Not required with cy_boot 4.20 */
1674:Generated_Source\PSoC4/Bootloader.c ****                 uint8 CYXDATA Bootloader_flashBuffer[Bootloader_FROW_SIZE];
1675:Generated_Source\PSoC4/Bootloader.c **** 
1676:Generated_Source\PSoC4/Bootloader.c ****             #endif /* !defined(CY_BOOT_VERSION) */
1677:Generated_Source\PSoC4/Bootloader.c ****         #endif  /* (0u == Bootloader_FAST_APP_VALIDATION) */
1678:Generated_Source\PSoC4/Bootloader.c ****     #endif  /* (CY_PSOC4) */
1679:Generated_Source\PSoC4/Bootloader.c **** 
1680:Generated_Source\PSoC4/Bootloader.c **** 
1681:Generated_Source\PSoC4/Bootloader.c **** 
1682:Generated_Source\PSoC4/Bootloader.c ****     #if(!CY_PSOC4)
1683:Generated_Source\PSoC4/Bootloader.c ****         #if((0u == Bootloader_FAST_APP_VALIDATION) || \
1684:Generated_Source\PSoC4/Bootloader.c ****             (CYDEV_PROJ_TYPE == CYDEV_PROJ_TYPE_LOADABLEANDBOOTLOADER))
1685:Generated_Source\PSoC4/Bootloader.c **** 
1686:Generated_Source\PSoC4/Bootloader.c ****             /* Initialize flash subsystem for non-PSoC 4 devices */
ARM GAS  C:\Users\VIDEOH~1\AppData\Local\Temp\ccEAPbdh.s 			page 35


1687:Generated_Source\PSoC4/Bootloader.c ****             if (CYRET_SUCCESS != CySetTemp())
1688:Generated_Source\PSoC4/Bootloader.c ****             {
1689:Generated_Source\PSoC4/Bootloader.c ****                 CyHalt(0x00u);
1690:Generated_Source\PSoC4/Bootloader.c ****             }
1691:Generated_Source\PSoC4/Bootloader.c **** 
1692:Generated_Source\PSoC4/Bootloader.c ****         #endif  /* (0u == Bootloader_FAST_APP_VALIDATION) ||
1693:Generated_Source\PSoC4/Bootloader.c ****                    (CYDEV_PROJ_TYPE == CYDEV_PROJ_TYPE_LOADABLEANDBOOTLOADER) */
1694:Generated_Source\PSoC4/Bootloader.c ****     #endif  /* (CY_PSOC4) */
1695:Generated_Source\PSoC4/Bootloader.c **** 
1696:Generated_Source\PSoC4/Bootloader.c ****     /* Initialize communications channel. */
1697:Generated_Source\PSoC4/Bootloader.c ****     CyBtldrCommStart();
1698:Generated_Source\PSoC4/Bootloader.c **** 
1699:Generated_Source\PSoC4/Bootloader.c ****     /* Enable global interrupts */
1700:Generated_Source\PSoC4/Bootloader.c ****     CyGlobalIntEnable;
1701:Generated_Source\PSoC4/Bootloader.c **** 
1702:Generated_Source\PSoC4/Bootloader.c ****     do
1703:Generated_Source\PSoC4/Bootloader.c ****     {
1704:Generated_Source\PSoC4/Bootloader.c ****         ackCode = CYRET_SUCCESS;
1705:Generated_Source\PSoC4/Bootloader.c **** 
1706:Generated_Source\PSoC4/Bootloader.c ****         do
1707:Generated_Source\PSoC4/Bootloader.c ****         {
1708:Generated_Source\PSoC4/Bootloader.c ****             readStat = CyBtldrCommRead(packetBuffer,
1709:Generated_Source\PSoC4/Bootloader.c ****                                         Bootloader_SIZEOF_COMMAND_BUFFER,
1710:Generated_Source\PSoC4/Bootloader.c ****                                         &numberRead,
1711:Generated_Source\PSoC4/Bootloader.c ****                                         (0u == timeOut) ? 0xFFu : timeOut);
1712:Generated_Source\PSoC4/Bootloader.c ****             if (0u != timeOut)
1713:Generated_Source\PSoC4/Bootloader.c ****             {
1714:Generated_Source\PSoC4/Bootloader.c ****                 timeOutCnt--;
1715:Generated_Source\PSoC4/Bootloader.c ****             }
1716:Generated_Source\PSoC4/Bootloader.c **** 
1717:Generated_Source\PSoC4/Bootloader.c ****         } while ( (0u != timeOutCnt) && (readStat != CYRET_SUCCESS) );
1718:Generated_Source\PSoC4/Bootloader.c **** 
1719:Generated_Source\PSoC4/Bootloader.c **** 
1720:Generated_Source\PSoC4/Bootloader.c ****         if( readStat != CYRET_SUCCESS )
1721:Generated_Source\PSoC4/Bootloader.c ****         {
1722:Generated_Source\PSoC4/Bootloader.c ****             continue;
1723:Generated_Source\PSoC4/Bootloader.c ****         }
1724:Generated_Source\PSoC4/Bootloader.c **** 
1725:Generated_Source\PSoC4/Bootloader.c ****         if((numberRead < Bootloader_MIN_PKT_SIZE) ||
1726:Generated_Source\PSoC4/Bootloader.c ****            (packetBuffer[Bootloader_SOP_ADDR] != Bootloader_SOP))
1727:Generated_Source\PSoC4/Bootloader.c ****         {
1728:Generated_Source\PSoC4/Bootloader.c ****             ackCode = Bootloader_ERR_DATA;
1729:Generated_Source\PSoC4/Bootloader.c ****         }
1730:Generated_Source\PSoC4/Bootloader.c ****         else
1731:Generated_Source\PSoC4/Bootloader.c ****         {
1732:Generated_Source\PSoC4/Bootloader.c ****             pktSize = ((uint16)((uint16)packetBuffer[Bootloader_SIZE_ADDR + 1u] << 8u)) |
1733:Generated_Source\PSoC4/Bootloader.c ****                                packetBuffer[Bootloader_SIZE_ADDR];
1734:Generated_Source\PSoC4/Bootloader.c **** 
1735:Generated_Source\PSoC4/Bootloader.c **** 
1736:Generated_Source\PSoC4/Bootloader.c ****             /**************************************************************************************
1737:Generated_Source\PSoC4/Bootloader.c ****             * If the whole packet length exceeds the number of bytes that have been read by the com
1738:Generated_Source\PSoC4/Bootloader.c ****             * component or the size of the buffer that is reserved for the packet, then give an err
1739:Generated_Source\PSoC4/Bootloader.c ****             **************************************************************************************/
1740:Generated_Source\PSoC4/Bootloader.c ****             if (((pktSize + Bootloader_MIN_PKT_SIZE) > numberRead) || 
1741:Generated_Source\PSoC4/Bootloader.c ****                 ((pktSize + Bootloader_MIN_PKT_SIZE) > Bootloader_SIZEOF_COMMAND_BUFFER)) 
1742:Generated_Source\PSoC4/Bootloader.c ****             {
1743:Generated_Source\PSoC4/Bootloader.c ****                 ackCode = Bootloader_ERR_LENGTH;
ARM GAS  C:\Users\VIDEOH~1\AppData\Local\Temp\ccEAPbdh.s 			page 36


1744:Generated_Source\PSoC4/Bootloader.c ****             }
1745:Generated_Source\PSoC4/Bootloader.c ****             else /* Packet length is OK*/
1746:Generated_Source\PSoC4/Bootloader.c ****             {
1747:Generated_Source\PSoC4/Bootloader.c ****                 pktChecksum = ((uint16)((uint16)packetBuffer[Bootloader_CHK_ADDR(pktSize) + 1u] << 
1748:Generated_Source\PSoC4/Bootloader.c ****                                    packetBuffer[Bootloader_CHK_ADDR(pktSize)];
1749:Generated_Source\PSoC4/Bootloader.c ****    
1750:Generated_Source\PSoC4/Bootloader.c ****                 if (packetBuffer[Bootloader_EOP_ADDR(pktSize)] != Bootloader_EOP)
1751:Generated_Source\PSoC4/Bootloader.c ****                 {
1752:Generated_Source\PSoC4/Bootloader.c ****                     ackCode = Bootloader_ERR_DATA;
1753:Generated_Source\PSoC4/Bootloader.c ****                 }
1754:Generated_Source\PSoC4/Bootloader.c ****                 else if(pktChecksum != Bootloader_CalcPacketChecksum(packetBuffer,
1755:Generated_Source\PSoC4/Bootloader.c ****                                                                         pktSize + Bootloader_DATA_A
1756:Generated_Source\PSoC4/Bootloader.c ****                 {
1757:Generated_Source\PSoC4/Bootloader.c ****                     ackCode = Bootloader_ERR_CHECKSUM;
1758:Generated_Source\PSoC4/Bootloader.c ****                 }
1759:Generated_Source\PSoC4/Bootloader.c ****                 else
1760:Generated_Source\PSoC4/Bootloader.c ****                 {
1761:Generated_Source\PSoC4/Bootloader.c ****                     /* Empty section */
1762:Generated_Source\PSoC4/Bootloader.c ****                 }
1763:Generated_Source\PSoC4/Bootloader.c ****             }    
1764:Generated_Source\PSoC4/Bootloader.c ****         }
1765:Generated_Source\PSoC4/Bootloader.c **** 
1766:Generated_Source\PSoC4/Bootloader.c ****         rspSize = Bootloader_RSP_SIZE_0;
1767:Generated_Source\PSoC4/Bootloader.c ****         if(ackCode == CYRET_SUCCESS)
1768:Generated_Source\PSoC4/Bootloader.c ****         {
1769:Generated_Source\PSoC4/Bootloader.c ****             uint8 CYDATA btldrData = packetBuffer[Bootloader_DATA_ADDR];
1770:Generated_Source\PSoC4/Bootloader.c **** 
1771:Generated_Source\PSoC4/Bootloader.c ****             ackCode = Bootloader_ERR_DATA;
1772:Generated_Source\PSoC4/Bootloader.c ****             switch(packetBuffer[Bootloader_CMD_ADDR])
1773:Generated_Source\PSoC4/Bootloader.c ****             {
1774:Generated_Source\PSoC4/Bootloader.c **** 
1775:Generated_Source\PSoC4/Bootloader.c **** 
1776:Generated_Source\PSoC4/Bootloader.c ****             /***************************************************************************
1777:Generated_Source\PSoC4/Bootloader.c ****             *   Get metadata (0x3C)
1778:Generated_Source\PSoC4/Bootloader.c ****             ***************************************************************************/
1779:Generated_Source\PSoC4/Bootloader.c ****             #if(0u != Bootloader_CMD_GET_METADATA)
1780:Generated_Source\PSoC4/Bootloader.c **** 
1781:Generated_Source\PSoC4/Bootloader.c ****                 case Bootloader_COMMAND_GET_METADATA:
1782:Generated_Source\PSoC4/Bootloader.c **** 
1783:Generated_Source\PSoC4/Bootloader.c ****                     if((Bootloader_COMMUNICATION_STATE_ACTIVE == communicationState) && (pktSize ==
1784:Generated_Source\PSoC4/Bootloader.c ****                     {
1785:Generated_Source\PSoC4/Bootloader.c ****                         if (btldrData >= Bootloader_MAX_NUM_OF_BTLDB)
1786:Generated_Source\PSoC4/Bootloader.c ****                         {
1787:Generated_Source\PSoC4/Bootloader.c ****                             ackCode = Bootloader_ERR_APP;
1788:Generated_Source\PSoC4/Bootloader.c ****                         }
1789:Generated_Source\PSoC4/Bootloader.c ****                         else if(CYRET_SUCCESS == Bootloader_ValidateBootloadable(btldrData))
1790:Generated_Source\PSoC4/Bootloader.c ****                         {
1791:Generated_Source\PSoC4/Bootloader.c ****                             #if(CY_PSOC3)
1792:Generated_Source\PSoC4/Bootloader.c ****                                 (void) memcpy(&packetBuffer[Bootloader_DATA_ADDR],
1793:Generated_Source\PSoC4/Bootloader.c ****                                             ((uint8  CYCODE *) (Bootloader_MD_BASE_ADDR(btldrData))
1794:Generated_Source\PSoC4/Bootloader.c ****                                             (int8)Bootloader_GET_METADATA_RESPONSE_SIZE);
1795:Generated_Source\PSoC4/Bootloader.c ****                             #else
1796:Generated_Source\PSoC4/Bootloader.c ****                                 (void) memcpy(&packetBuffer[Bootloader_DATA_ADDR],
1797:Generated_Source\PSoC4/Bootloader.c ****                                             (uint8 *) Bootloader_MD_BASE_ADDR(btldrData),
1798:Generated_Source\PSoC4/Bootloader.c ****                                             Bootloader_GET_METADATA_RESPONSE_SIZE);
1799:Generated_Source\PSoC4/Bootloader.c ****                             #endif  /* (CY_PSOC3) */
1800:Generated_Source\PSoC4/Bootloader.c **** 
ARM GAS  C:\Users\VIDEOH~1\AppData\Local\Temp\ccEAPbdh.s 			page 37


1801:Generated_Source\PSoC4/Bootloader.c ****                             rspSize = Bootloader_RSP_SIZE_GET_METADATA;
1802:Generated_Source\PSoC4/Bootloader.c ****                             ackCode = CYRET_SUCCESS;
1803:Generated_Source\PSoC4/Bootloader.c ****                         }
1804:Generated_Source\PSoC4/Bootloader.c ****                         else
1805:Generated_Source\PSoC4/Bootloader.c ****                         {
1806:Generated_Source\PSoC4/Bootloader.c ****                             ackCode = Bootloader_ERR_APP;
1807:Generated_Source\PSoC4/Bootloader.c ****                         }
1808:Generated_Source\PSoC4/Bootloader.c ****                     }
1809:Generated_Source\PSoC4/Bootloader.c ****                     break;
1810:Generated_Source\PSoC4/Bootloader.c **** 
1811:Generated_Source\PSoC4/Bootloader.c ****             #endif  /* (0u != Bootloader_CMD_GET_METADATA) */
1812:Generated_Source\PSoC4/Bootloader.c **** 
1813:Generated_Source\PSoC4/Bootloader.c **** 
1814:Generated_Source\PSoC4/Bootloader.c ****             /***************************************************************************
1815:Generated_Source\PSoC4/Bootloader.c ****             *   Verify application checksum (0x31)
1816:Generated_Source\PSoC4/Bootloader.c ****             ***************************************************************************/
1817:Generated_Source\PSoC4/Bootloader.c ****         #if (0u != Bootloader_CMD_VERIFY_APP_CHKSUM_AVAIL)     
1818:Generated_Source\PSoC4/Bootloader.c ****             case Bootloader_COMMAND_CHECKSUM:
1819:Generated_Source\PSoC4/Bootloader.c **** 
1820:Generated_Source\PSoC4/Bootloader.c ****                 if((Bootloader_COMMUNICATION_STATE_ACTIVE == communicationState) && (pktSize == 0u)
1821:Generated_Source\PSoC4/Bootloader.c ****                 {
1822:Generated_Source\PSoC4/Bootloader.c ****                     packetBuffer[Bootloader_DATA_ADDR] =
1823:Generated_Source\PSoC4/Bootloader.c ****                             (uint8)(Bootloader_ValidateBootloadable(Bootloader_activeApp) == CYRET_
1824:Generated_Source\PSoC4/Bootloader.c **** 
1825:Generated_Source\PSoC4/Bootloader.c ****                     rspSize = Bootloader_RSP_SIZE_VERIFY_CHKSM;
1826:Generated_Source\PSoC4/Bootloader.c ****                     ackCode = CYRET_SUCCESS;
1827:Generated_Source\PSoC4/Bootloader.c ****                 }
1828:Generated_Source\PSoC4/Bootloader.c ****                 break;
1829:Generated_Source\PSoC4/Bootloader.c ****         #endif /* (0u != Bootloader_CMD_VERIFY_APP_CHKSUM_AVAIL) */
1830:Generated_Source\PSoC4/Bootloader.c **** 
1831:Generated_Source\PSoC4/Bootloader.c ****             /*****************************************************************************
1832:Generated_Source\PSoC4/Bootloader.c ****             *   Verify row (0x45u)
1833:Generated_Source\PSoC4/Bootloader.c ****             ***************************************************************************/
1834:Generated_Source\PSoC4/Bootloader.c ****         #if(0u != Bootloader_CMD_VERIFY_FLS_ROW_AVAIL)
1835:Generated_Source\PSoC4/Bootloader.c ****             case Bootloader_COMMAND_VERIFY_FLS_ROW:
1836:Generated_Source\PSoC4/Bootloader.c **** 
1837:Generated_Source\PSoC4/Bootloader.c ****                 /* Packet size is either 3 (data is already in buffer) or (3u + Bootloader_FROW_SIZ
1838:Generated_Source\PSoC4/Bootloader.c ****                  * then data is in packetBuffer[]*/
1839:Generated_Source\PSoC4/Bootloader.c ****                 if ((Bootloader_COMMUNICATION_STATE_ACTIVE == communicationState) && ((3u == pktSiz
1840:Generated_Source\PSoC4/Bootloader.c ****                    ((3u + Bootloader_FROW_SIZE) == pktSize)))
1841:Generated_Source\PSoC4/Bootloader.c ****                 {
1842:Generated_Source\PSoC4/Bootloader.c ****                     uint16 CYDATA rowNum = ((uint16)((uint16)packetBuffer[Bootloader_DATA_ADDR + 2u
1843:Generated_Source\PSoC4/Bootloader.c ****                                                              packetBuffer[Bootloader_DATA_ADDR + 1u
1844:Generated_Source\PSoC4/Bootloader.c ****                     
1845:Generated_Source\PSoC4/Bootloader.c ****                     uint32 CYDATA startAddr;
1846:Generated_Source\PSoC4/Bootloader.c ****                     uint16 upperRange = 0u;
1847:Generated_Source\PSoC4/Bootloader.c ****                 #if (!CY_PSOC4)
1848:Generated_Source\PSoC4/Bootloader.c ****                     uint16 CYDATA rowSize; 
1849:Generated_Source\PSoC4/Bootloader.c ****                 #endif /*(!CY_PSOC4)*/    
1850:Generated_Source\PSoC4/Bootloader.c ****                     
1851:Generated_Source\PSoC4/Bootloader.c ****                     ackCode = CYRET_SUCCESS;
1852:Generated_Source\PSoC4/Bootloader.c ****                     rspSize = Bootloader_RSP_SIZE_0;
1853:Generated_Source\PSoC4/Bootloader.c ****                         
1854:Generated_Source\PSoC4/Bootloader.c ****                     if (3u == pktSize)
1855:Generated_Source\PSoC4/Bootloader.c ****                     {
1856:Generated_Source\PSoC4/Bootloader.c ****                         /* Do nothing, data is already in dataBuffer[] */
1857:Generated_Source\PSoC4/Bootloader.c ****                     }
ARM GAS  C:\Users\VIDEOH~1\AppData\Local\Temp\ccEAPbdh.s 			page 38


1858:Generated_Source\PSoC4/Bootloader.c ****                     else 
1859:Generated_Source\PSoC4/Bootloader.c ****                     {
1860:Generated_Source\PSoC4/Bootloader.c ****                     #if (CY_PSOC3)
1861:Generated_Source\PSoC4/Bootloader.c ****                         /*Data is in packetBuffer[], needs to be copied to dataBuffer[]*/
1862:Generated_Source\PSoC4/Bootloader.c ****                         (void) memcpy(dataBuffer, &packetBuffer[Bootloader_DATA_ADDR + 3u],
1863:Generated_Source\PSoC4/Bootloader.c ****                                       (int16)pktSize - 3);
1864:Generated_Source\PSoC4/Bootloader.c ****                     #else              
1865:Generated_Source\PSoC4/Bootloader.c ****                         /*Data is in packetBuffer[], needs to be copied to dataBuffer[]*/
1866:Generated_Source\PSoC4/Bootloader.c ****                         (void) memcpy(dataBuffer, &packetBuffer[Bootloader_DATA_ADDR + 3u],
1867:Generated_Source\PSoC4/Bootloader.c ****                                       (uint32)pktSize - 3u);
1868:Generated_Source\PSoC4/Bootloader.c ****                     #endif /*CY_PSOC3)*/              
1869:Generated_Source\PSoC4/Bootloader.c ****                     }
1870:Generated_Source\PSoC4/Bootloader.c ****                         
1871:Generated_Source\PSoC4/Bootloader.c ****                 #if (!CY_PSOC4) 
1872:Generated_Source\PSoC4/Bootloader.c ****                     if((btldrData >= Bootloader_FIRST_EE_ARRAYID) &&
1873:Generated_Source\PSoC4/Bootloader.c ****                        (btldrData <= Bootloader_LAST_EE_ARRAYID))
1874:Generated_Source\PSoC4/Bootloader.c ****                     {
1875:Generated_Source\PSoC4/Bootloader.c ****                         /* EEPROM */
1876:Generated_Source\PSoC4/Bootloader.c ****                         /* Both PSoC 3 and PSoC 5LP architecture have one EEPROM array. */
1877:Generated_Source\PSoC4/Bootloader.c ****                         startAddr = CY_EEPROM_BASE + ((uint32)rowNum * CYDEV_EEPROM_ROW_SIZE);
1878:Generated_Source\PSoC4/Bootloader.c ****                         rowSize = CYDEV_EEPROM_ROW_SIZE;
1879:Generated_Source\PSoC4/Bootloader.c ****                         upperRange = Bootloader_NUMBER_OF_EEPROM_SECTORS * Bootloader_NUMBER_OF_ROW
1880:Generated_Source\PSoC4/Bootloader.c ****                     }
1881:Generated_Source\PSoC4/Bootloader.c ****                     else if (btldrData < CY_FLASH_NUMBER_ARRAYS)    
1882:Generated_Source\PSoC4/Bootloader.c ****                     {
1883:Generated_Source\PSoC4/Bootloader.c ****                         startAddr = CY_FLASH_BASE + ((uint32)btldrData * CYDEV_FLS_SECTOR_SIZE) +
1884:Generated_Source\PSoC4/Bootloader.c ****                                                      ((uint32)rowNum * CYDEV_FLS_ROW_SIZE);
1885:Generated_Source\PSoC4/Bootloader.c ****                         rowSize = CYDEV_FLS_ROW_SIZE;        
1886:Generated_Source\PSoC4/Bootloader.c ****                         upperRange = Bootloader_NUMBER_OF_ROWS_IN_ARRAY;                        
1887:Generated_Source\PSoC4/Bootloader.c ****                     }
1888:Generated_Source\PSoC4/Bootloader.c ****                     else
1889:Generated_Source\PSoC4/Bootloader.c ****                     {
1890:Generated_Source\PSoC4/Bootloader.c ****                         ackCode = Bootloader_ERR_ARRAY;
1891:Generated_Source\PSoC4/Bootloader.c ****                         break;                              
1892:Generated_Source\PSoC4/Bootloader.c ****                     }
1893:Generated_Source\PSoC4/Bootloader.c **** 
1894:Generated_Source\PSoC4/Bootloader.c ****                     /*Checking if row number is within array address range*/
1895:Generated_Source\PSoC4/Bootloader.c ****                     ackCode = Bootloader_CHECK_ROW_NUMBER(rowNum, upperRange);
1896:Generated_Source\PSoC4/Bootloader.c ****                     
1897:Generated_Source\PSoC4/Bootloader.c ****                     if (CYRET_SUCCESS != ackCode)
1898:Generated_Source\PSoC4/Bootloader.c ****                     {
1899:Generated_Source\PSoC4/Bootloader.c ****                         break;
1900:Generated_Source\PSoC4/Bootloader.c ****                     }
1901:Generated_Source\PSoC4/Bootloader.c ****                     
1902:Generated_Source\PSoC4/Bootloader.c ****                     ackCode = Bootloader_VerifyRow(startAddr, dataBuffer, rowSize);
1903:Generated_Source\PSoC4/Bootloader.c ****                     
1904:Generated_Source\PSoC4/Bootloader.c ****                     /******************************************************************************
1905:Generated_Source\PSoC4/Bootloader.c ****                     * If flash row check has completed successfully and ECC is disabled and there i
1906:Generated_Source\PSoC4/Bootloader.c ****                     * data in the buffer for ECC row.
1907:Generated_Source\PSoC4/Bootloader.c ****                     *******************************************************************************
1908:Generated_Source\PSoC4/Bootloader.c ****                     #if (CYDEV_ECC_ENABLE == 0u)
1909:Generated_Source\PSoC4/Bootloader.c ****                         if ((CYRET_SUCCESS == ackCode) && (btldrData < CY_FLASH_NUMBER_ARRAYS) && (
1910:Generated_Source\PSoC4/Bootloader.c ****                         {
1911:Generated_Source\PSoC4/Bootloader.c ****                             startAddr = CYDEV_ECC_BASE + ((uint32)btldrData * (CYDEV_FLS_SECTOR_SIZ
1912:Generated_Source\PSoC4/Bootloader.c ****                                         ((uint32)rowNum * CYDEV_ECC_ROW_SIZE);
1913:Generated_Source\PSoC4/Bootloader.c ****                                                 
1914:Generated_Source\PSoC4/Bootloader.c ****                             ackCode = Bootloader_VerifyRow(startAddr, &dataBuffer[rowSize], (uint16
ARM GAS  C:\Users\VIDEOH~1\AppData\Local\Temp\ccEAPbdh.s 			page 39


1915:Generated_Source\PSoC4/Bootloader.c ****                         }
1916:Generated_Source\PSoC4/Bootloader.c ****                     #endif /*(CYDEV_ECC_ENABLE == 0u)*/
1917:Generated_Source\PSoC4/Bootloader.c ****                     
1918:Generated_Source\PSoC4/Bootloader.c ****                 #else /*CY_PSOC4*/
1919:Generated_Source\PSoC4/Bootloader.c ****                     if (btldrData < CY_FLASH_NUMBER_ARRAYS)
1920:Generated_Source\PSoC4/Bootloader.c ****                     {
1921:Generated_Source\PSoC4/Bootloader.c ****                         startAddr = CY_FLASH_BASE + ((uint32)btldrData * CYDEV_FLS_SECTOR_SIZE)
1922:Generated_Source\PSoC4/Bootloader.c ****                                             + ((uint32)rowNum * CYDEV_FLS_ROW_SIZE);
1923:Generated_Source\PSoC4/Bootloader.c **** 
1924:Generated_Source\PSoC4/Bootloader.c ****                         upperRange = Bootloader_NUMBER_OF_ROWS_IN_ARRAY;         
1925:Generated_Source\PSoC4/Bootloader.c ****                         
1926:Generated_Source\PSoC4/Bootloader.c ****                         /*Checking if row number is within array address range*/
1927:Generated_Source\PSoC4/Bootloader.c ****                         ackCode = Bootloader_CHECK_ROW_NUMBER(rowNum, upperRange);
1928:Generated_Source\PSoC4/Bootloader.c ****                     
1929:Generated_Source\PSoC4/Bootloader.c ****                         if (CYRET_SUCCESS != ackCode)
1930:Generated_Source\PSoC4/Bootloader.c ****                         {
1931:Generated_Source\PSoC4/Bootloader.c ****                             break;
1932:Generated_Source\PSoC4/Bootloader.c ****                         }
1933:Generated_Source\PSoC4/Bootloader.c ****                         
1934:Generated_Source\PSoC4/Bootloader.c ****                         ackCode = Bootloader_VerifyRow(startAddr, dataBuffer, (uint16)CYDEV_FLS_ROW
1935:Generated_Source\PSoC4/Bootloader.c ****                     }
1936:Generated_Source\PSoC4/Bootloader.c ****                     else
1937:Generated_Source\PSoC4/Bootloader.c ****                     {
1938:Generated_Source\PSoC4/Bootloader.c ****                         ackCode = Bootloader_ERR_ARRAY;
1939:Generated_Source\PSoC4/Bootloader.c ****                         break;                     
1940:Generated_Source\PSoC4/Bootloader.c ****                     }
1941:Generated_Source\PSoC4/Bootloader.c ****                 #endif  /* (!CY_PSOC4) */
1942:Generated_Source\PSoC4/Bootloader.c ****                 
1943:Generated_Source\PSoC4/Bootloader.c ****                 } 
1944:Generated_Source\PSoC4/Bootloader.c ****                 break;
1945:Generated_Source\PSoC4/Bootloader.c ****         #endif /*(0u != Bootloader_CMD_VERIFY_ROW_FLS_AVAIL)*/
1946:Generated_Source\PSoC4/Bootloader.c **** 
1947:Generated_Source\PSoC4/Bootloader.c ****             /***************************************************************************
1948:Generated_Source\PSoC4/Bootloader.c ****             *   Get flash size (0x32)
1949:Generated_Source\PSoC4/Bootloader.c ****             ***************************************************************************/
1950:Generated_Source\PSoC4/Bootloader.c ****             #if(0u != Bootloader_CMD_GET_FLASH_SIZE_AVAIL)
1951:Generated_Source\PSoC4/Bootloader.c **** 
1952:Generated_Source\PSoC4/Bootloader.c ****                 case Bootloader_COMMAND_REPORT_SIZE:
1953:Generated_Source\PSoC4/Bootloader.c **** 
1954:Generated_Source\PSoC4/Bootloader.c ****                     /* btldrData - holds flash array ID sent by host */
1955:Generated_Source\PSoC4/Bootloader.c ****                     if((Bootloader_COMMUNICATION_STATE_ACTIVE == communicationState) && (pktSize ==
1956:Generated_Source\PSoC4/Bootloader.c ****                     {
1957:Generated_Source\PSoC4/Bootloader.c ****                         if(btldrData < CY_FLASH_NUMBER_ARRAYS)
1958:Generated_Source\PSoC4/Bootloader.c ****                         {
1959:Generated_Source\PSoC4/Bootloader.c ****                             uint16 CYDATA startRow;
1960:Generated_Source\PSoC4/Bootloader.c ****                             uint8  CYDATA arrayIdBtlderEnds;
1961:Generated_Source\PSoC4/Bootloader.c **** 
1962:Generated_Source\PSoC4/Bootloader.c ****                             /**********************************************************************
1963:Generated_Source\PSoC4/Bootloader.c ****                             * - For the flash array where the Bootloader application ends, returns 
1964:Generated_Source\PSoC4/Bootloader.c ****                             *   full row after the Bootloader application.
1965:Generated_Source\PSoC4/Bootloader.c ****                             *
1966:Generated_Source\PSoC4/Bootloader.c ****                             * - For a fully occupied flash array, the number of rows in the array i
1967:Generated_Source\PSoC4/Bootloader.c ****                             *   because there is no space for the Bootloadable application in this 
1968:Generated_Source\PSoC4/Bootloader.c ****                             *
1969:Generated_Source\PSoC4/Bootloader.c ****                             * - For the arrays next to the occupied array, zero is returned.
1970:Generated_Source\PSoC4/Bootloader.c ****                             *   The Bootloadable application can be written from those arrays begin
1971:Generated_Source\PSoC4/Bootloader.c ****                             *
ARM GAS  C:\Users\VIDEOH~1\AppData\Local\Temp\ccEAPbdh.s 			page 40


1972:Generated_Source\PSoC4/Bootloader.c ****                             *   If this is a Bootloader that is located in an application (Combinat
1973:Generated_Source\PSoC4/Bootloader.c ****                             *   then we do not use the Bootloader_SizeBytes and Bootloader_SizeByte
1974:Generated_Source\PSoC4/Bootloader.c ****                             *   variables, instead we take the Launcher's last row from metadata.
1975:Generated_Source\PSoC4/Bootloader.c ****                             ***********************************************************************
1976:Generated_Source\PSoC4/Bootloader.c ****                         #if (CYDEV_PROJ_TYPE != CYDEV_PROJ_TYPE_LOADABLEANDBOOTLOADER) 
1977:Generated_Source\PSoC4/Bootloader.c ****                             arrayIdBtlderEnds = (uint8) (*Bootloader_SizeBytesAccess / CY_FLASH_SIZ
1978:Generated_Source\PSoC4/Bootloader.c **** 
1979:Generated_Source\PSoC4/Bootloader.c ****                             if (btldrData == arrayIdBtlderEnds)
1980:Generated_Source\PSoC4/Bootloader.c ****                             {
1981:Generated_Source\PSoC4/Bootloader.c ****                                 startRow = (uint16) (*Bootloader_SizeBytesAccess / CY_FLASH_SIZEOF_
1982:Generated_Source\PSoC4/Bootloader.c ****                                             Bootloader_NUMBER_OF_ROWS_IN_ARRAY;
1983:Generated_Source\PSoC4/Bootloader.c ****                             }
1984:Generated_Source\PSoC4/Bootloader.c ****                         #else /*Combination project type*/   
1985:Generated_Source\PSoC4/Bootloader.c ****                             btldrLastRow = (uint16)(Bootloader_GetMetadata(Bootloader_GET_BTLDR_LAS
1986:Generated_Source\PSoC4/Bootloader.c ****                                                                                 Bootloader_MD_BTLDB
1987:Generated_Source\PSoC4/Bootloader.c ****                             arrayIdBtlderEnds = (uint8) (((uint32)btldrLastRow * CY_FLASH_SIZEOF_RO
1988:Generated_Source\PSoC4/Bootloader.c ****                             if (btldrData == arrayIdBtlderEnds)
1989:Generated_Source\PSoC4/Bootloader.c ****                             {
1990:Generated_Source\PSoC4/Bootloader.c ****                                 startRow = (uint16)((btldrLastRow) % Bootloader_NUMBER_OF_ROWS_IN_A
1991:Generated_Source\PSoC4/Bootloader.c ****                             }
1992:Generated_Source\PSoC4/Bootloader.c ****                         #endif /*(CYDEV_PROJ_TYPE != CYDEV_PROJ_TYPE_LOADABLEANDBOOTLOADER)*/
1993:Generated_Source\PSoC4/Bootloader.c ****                         
1994:Generated_Source\PSoC4/Bootloader.c ****                             else if (btldrData > arrayIdBtlderEnds)
1995:Generated_Source\PSoC4/Bootloader.c ****                             {
1996:Generated_Source\PSoC4/Bootloader.c ****                                 startRow = Bootloader_FIRST_ROW_IN_ARRAY;
1997:Generated_Source\PSoC4/Bootloader.c ****                             }
1998:Generated_Source\PSoC4/Bootloader.c ****                             else /* (btldrData < ArrayIdBtlderEnds) */
1999:Generated_Source\PSoC4/Bootloader.c ****                             {
2000:Generated_Source\PSoC4/Bootloader.c ****                                 startRow = Bootloader_NUMBER_OF_ROWS_IN_ARRAY;
2001:Generated_Source\PSoC4/Bootloader.c ****                             }
2002:Generated_Source\PSoC4/Bootloader.c **** 
2003:Generated_Source\PSoC4/Bootloader.c ****                             packetBuffer[Bootloader_DATA_ADDR]      = LO8(startRow);
2004:Generated_Source\PSoC4/Bootloader.c ****                             packetBuffer[Bootloader_DATA_ADDR + 1u] = HI8(startRow);
2005:Generated_Source\PSoC4/Bootloader.c **** 
2006:Generated_Source\PSoC4/Bootloader.c ****                             packetBuffer[Bootloader_DATA_ADDR + 2u] =
2007:Generated_Source\PSoC4/Bootloader.c ****                                         LO8(Bootloader_NUMBER_OF_ROWS_IN_ARRAY - 1u);
2008:Generated_Source\PSoC4/Bootloader.c **** 
2009:Generated_Source\PSoC4/Bootloader.c ****                             packetBuffer[Bootloader_DATA_ADDR + 3u] =
2010:Generated_Source\PSoC4/Bootloader.c ****                                         HI8(Bootloader_NUMBER_OF_ROWS_IN_ARRAY - 1u);
2011:Generated_Source\PSoC4/Bootloader.c **** 
2012:Generated_Source\PSoC4/Bootloader.c ****                             rspSize = Bootloader_RSP_SIZE_GET_FLASH_SIZE;
2013:Generated_Source\PSoC4/Bootloader.c ****                             ackCode = CYRET_SUCCESS;
2014:Generated_Source\PSoC4/Bootloader.c ****                         }
2015:Generated_Source\PSoC4/Bootloader.c **** 
2016:Generated_Source\PSoC4/Bootloader.c ****                     }
2017:Generated_Source\PSoC4/Bootloader.c ****                     break;
2018:Generated_Source\PSoC4/Bootloader.c **** 
2019:Generated_Source\PSoC4/Bootloader.c ****             #endif  /* (0u != Bootloader_CMD_GET_FLASH_SIZE_AVAIL) */
2020:Generated_Source\PSoC4/Bootloader.c **** 
2021:Generated_Source\PSoC4/Bootloader.c **** 
2022:Generated_Source\PSoC4/Bootloader.c ****             /***************************************************************************
2023:Generated_Source\PSoC4/Bootloader.c ****             *   Get application status (0x33)
2024:Generated_Source\PSoC4/Bootloader.c ****             ***************************************************************************/
2025:Generated_Source\PSoC4/Bootloader.c ****             #if ((0u != Bootloader_DUAL_APP_BOOTLOADER) || (CYDEV_PROJ_TYPE == CYDEV_PROJ_TYPE_LOAD
2026:Generated_Source\PSoC4/Bootloader.c **** 
2027:Generated_Source\PSoC4/Bootloader.c ****                 #if(0u != Bootloader_CMD_GET_APP_STATUS_AVAIL)
2028:Generated_Source\PSoC4/Bootloader.c **** 
ARM GAS  C:\Users\VIDEOH~1\AppData\Local\Temp\ccEAPbdh.s 			page 41


2029:Generated_Source\PSoC4/Bootloader.c ****                     case Bootloader_COMMAND_APP_STATUS:
2030:Generated_Source\PSoC4/Bootloader.c **** 
2031:Generated_Source\PSoC4/Bootloader.c ****                         if((Bootloader_COMMUNICATION_STATE_ACTIVE == communicationState) && (1u == 
2032:Generated_Source\PSoC4/Bootloader.c ****                         {
2033:Generated_Source\PSoC4/Bootloader.c **** 
2034:Generated_Source\PSoC4/Bootloader.c ****                             packetBuffer[Bootloader_DATA_ADDR] =
2035:Generated_Source\PSoC4/Bootloader.c ****                                 (uint8)Bootloader_ValidateBootloadable(btldrData);
2036:Generated_Source\PSoC4/Bootloader.c **** 
2037:Generated_Source\PSoC4/Bootloader.c ****                             packetBuffer[Bootloader_DATA_ADDR + 1u] =
2038:Generated_Source\PSoC4/Bootloader.c ****                                 (uint8) Bootloader_GetMetadata(Bootloader_GET_BTLDB_ACTIVE, btldrDa
2039:Generated_Source\PSoC4/Bootloader.c **** 
2040:Generated_Source\PSoC4/Bootloader.c ****                             rspSize = Bootloader_RSP_SIZE_GET_APP_STATUS;
2041:Generated_Source\PSoC4/Bootloader.c ****                             ackCode = CYRET_SUCCESS;
2042:Generated_Source\PSoC4/Bootloader.c ****                         }
2043:Generated_Source\PSoC4/Bootloader.c ****                         break;
2044:Generated_Source\PSoC4/Bootloader.c **** 
2045:Generated_Source\PSoC4/Bootloader.c ****                 #endif  /* (0u != Bootloader_CMD_GET_APP_STATUS_AVAIL) */
2046:Generated_Source\PSoC4/Bootloader.c **** 
2047:Generated_Source\PSoC4/Bootloader.c ****             #endif  /* (0u != Bootloader_DUAL_APP_BOOTLOADER || (CYDEV_PROJ_TYPE == CYDEV_PROJ_TYPE
2048:Generated_Source\PSoC4/Bootloader.c **** 
2049:Generated_Source\PSoC4/Bootloader.c ****             /***************************************************************************
2050:Generated_Source\PSoC4/Bootloader.c ****             *   Program / Erase row (0x39 / 0x34)
2051:Generated_Source\PSoC4/Bootloader.c ****             ***************************************************************************/
2052:Generated_Source\PSoC4/Bootloader.c ****             case Bootloader_COMMAND_PROGRAM:
2053:Generated_Source\PSoC4/Bootloader.c **** 
2054:Generated_Source\PSoC4/Bootloader.c ****             /* btldrData variable holds Flash Array ID */
2055:Generated_Source\PSoC4/Bootloader.c **** 
2056:Generated_Source\PSoC4/Bootloader.c ****         #if (0u != Bootloader_CMD_ERASE_ROW_AVAIL)
2057:Generated_Source\PSoC4/Bootloader.c **** 
2058:Generated_Source\PSoC4/Bootloader.c ****             case Bootloader_COMMAND_ERASE:
2059:Generated_Source\PSoC4/Bootloader.c ****                 if (Bootloader_COMMAND_ERASE == packetBuffer[Bootloader_CMD_ADDR])
2060:Generated_Source\PSoC4/Bootloader.c ****                 {
2061:Generated_Source\PSoC4/Bootloader.c ****                     if ((Bootloader_COMMUNICATION_STATE_ACTIVE == communicationState) && (pktSize =
2062:Generated_Source\PSoC4/Bootloader.c ****                     {
2063:Generated_Source\PSoC4/Bootloader.c ****                         #if(!CY_PSOC4)
2064:Generated_Source\PSoC4/Bootloader.c ****                             if((btldrData >= Bootloader_FIRST_EE_ARRAYID) &&
2065:Generated_Source\PSoC4/Bootloader.c ****                                (btldrData <= Bootloader_LAST_EE_ARRAYID))
2066:Generated_Source\PSoC4/Bootloader.c ****                             {
2067:Generated_Source\PSoC4/Bootloader.c ****                                 /* Size of EEPROM row */
2068:Generated_Source\PSoC4/Bootloader.c ****                                 dataOffset = CY_EEPROM_SIZEOF_ROW;
2069:Generated_Source\PSoC4/Bootloader.c ****                             }
2070:Generated_Source\PSoC4/Bootloader.c ****                             else
2071:Generated_Source\PSoC4/Bootloader.c ****                             {
2072:Generated_Source\PSoC4/Bootloader.c ****                                 /* Size of flash row (depends on ECC configuration) */
2073:Generated_Source\PSoC4/Bootloader.c ****                                 dataOffset = Bootloader_FROW_SIZE;
2074:Generated_Source\PSoC4/Bootloader.c ****                             }
2075:Generated_Source\PSoC4/Bootloader.c ****                         #else
2076:Generated_Source\PSoC4/Bootloader.c ****                             /* Size of flash row (no ECC available) */
2077:Generated_Source\PSoC4/Bootloader.c ****                             dataOffset = Bootloader_FROW_SIZE;
2078:Generated_Source\PSoC4/Bootloader.c ****                         #endif  /* (!CY_PSOC4) */
2079:Generated_Source\PSoC4/Bootloader.c **** 
2080:Generated_Source\PSoC4/Bootloader.c ****                         #if(CY_PSOC3)
2081:Generated_Source\PSoC4/Bootloader.c ****                             (void) memset(dataBuffer, (char8) 0, (int16) dataOffset);
2082:Generated_Source\PSoC4/Bootloader.c ****                         #else
2083:Generated_Source\PSoC4/Bootloader.c ****                             (void) memset(dataBuffer, 0, (uint32) dataOffset);
2084:Generated_Source\PSoC4/Bootloader.c ****                         #endif  /* (CY_PSOC3) */
2085:Generated_Source\PSoC4/Bootloader.c ****                     }
ARM GAS  C:\Users\VIDEOH~1\AppData\Local\Temp\ccEAPbdh.s 			page 42


2086:Generated_Source\PSoC4/Bootloader.c ****                     else
2087:Generated_Source\PSoC4/Bootloader.c ****                     {
2088:Generated_Source\PSoC4/Bootloader.c ****                         break;
2089:Generated_Source\PSoC4/Bootloader.c ****                     }
2090:Generated_Source\PSoC4/Bootloader.c ****                 }
2091:Generated_Source\PSoC4/Bootloader.c **** 
2092:Generated_Source\PSoC4/Bootloader.c ****         #endif  /* (0u != Bootloader_CMD_ERASE_ROW_AVAIL) */
2093:Generated_Source\PSoC4/Bootloader.c **** 
2094:Generated_Source\PSoC4/Bootloader.c **** 
2095:Generated_Source\PSoC4/Bootloader.c ****                 if((Bootloader_COMMUNICATION_STATE_ACTIVE == communicationState) && (pktSize >= 3u)
2096:Generated_Source\PSoC4/Bootloader.c ****                 {
2097:Generated_Source\PSoC4/Bootloader.c ****                     uint16 upperRange;
2098:Generated_Source\PSoC4/Bootloader.c **** 
2099:Generated_Source\PSoC4/Bootloader.c ****                     /* Command may be sent along with last block of data, to program row. */
2100:Generated_Source\PSoC4/Bootloader.c ****                     #if(CY_PSOC3)
2101:Generated_Source\PSoC4/Bootloader.c ****                         (void) memcpy(&dataBuffer[dataOffset],
2102:Generated_Source\PSoC4/Bootloader.c ****                                       &packetBuffer[Bootloader_DATA_ADDR + 3u],
2103:Generated_Source\PSoC4/Bootloader.c ****                                       (int16) pktSize - 3);
2104:Generated_Source\PSoC4/Bootloader.c ****                     #else
2105:Generated_Source\PSoC4/Bootloader.c ****                         (void) memcpy(&dataBuffer[dataOffset],
2106:Generated_Source\PSoC4/Bootloader.c ****                                       &packetBuffer[Bootloader_DATA_ADDR + 3u],
2107:Generated_Source\PSoC4/Bootloader.c ****                                       (uint32) pktSize - 3u);
2108:Generated_Source\PSoC4/Bootloader.c ****                     #endif  /* (CY_PSOC3) */
2109:Generated_Source\PSoC4/Bootloader.c **** 
2110:Generated_Source\PSoC4/Bootloader.c ****                     dataOffset += (pktSize - 3u);
2111:Generated_Source\PSoC4/Bootloader.c **** 
2112:Generated_Source\PSoC4/Bootloader.c ****                     #if(!CY_PSOC4)
2113:Generated_Source\PSoC4/Bootloader.c ****                         if((btldrData >= Bootloader_FIRST_EE_ARRAYID) &&
2114:Generated_Source\PSoC4/Bootloader.c ****                            (btldrData <= Bootloader_LAST_EE_ARRAYID))
2115:Generated_Source\PSoC4/Bootloader.c ****                         {
2116:Generated_Source\PSoC4/Bootloader.c ****                             CyEEPROM_Start();
2117:Generated_Source\PSoC4/Bootloader.c **** 
2118:Generated_Source\PSoC4/Bootloader.c ****                             /* Size of EEPROM row */
2119:Generated_Source\PSoC4/Bootloader.c ****                             pktSize = CY_EEPROM_SIZEOF_ROW;                            
2120:Generated_Source\PSoC4/Bootloader.c ****                             upperRange = Bootloader_NUMBER_OF_EEPROM_SECTORS * Bootloader_NUMBER_OF
2121:Generated_Source\PSoC4/Bootloader.c ****                         }
2122:Generated_Source\PSoC4/Bootloader.c ****                         else
2123:Generated_Source\PSoC4/Bootloader.c ****                         {
2124:Generated_Source\PSoC4/Bootloader.c ****                             /* Size of flash row (depends on ECC configuration) */
2125:Generated_Source\PSoC4/Bootloader.c ****                             pktSize = Bootloader_FROW_SIZE;                            
2126:Generated_Source\PSoC4/Bootloader.c ****                             upperRange = Bootloader_NUMBER_OF_ROWS_IN_ARRAY;
2127:Generated_Source\PSoC4/Bootloader.c ****                         }
2128:Generated_Source\PSoC4/Bootloader.c ****                     #else
2129:Generated_Source\PSoC4/Bootloader.c ****                         /* Size of flash row (no ECC available) */
2130:Generated_Source\PSoC4/Bootloader.c ****                         pktSize = Bootloader_FROW_SIZE;                            
2131:Generated_Source\PSoC4/Bootloader.c ****                         upperRange = Bootloader_NUMBER_OF_ROWS_IN_ARRAY;
2132:Generated_Source\PSoC4/Bootloader.c ****                     #endif  /* (!CY_PSOC4) */
2133:Generated_Source\PSoC4/Bootloader.c **** 
2134:Generated_Source\PSoC4/Bootloader.c ****                     /* Check if we have all data to program */
2135:Generated_Source\PSoC4/Bootloader.c ****                     if(dataOffset == pktSize)
2136:Generated_Source\PSoC4/Bootloader.c ****                     {
2137:Generated_Source\PSoC4/Bootloader.c ****                         uint16 row;
2138:Generated_Source\PSoC4/Bootloader.c ****                         uint16 firstRow;    
2139:Generated_Source\PSoC4/Bootloader.c ****                     #if ((0u != Bootloader_DUAL_APP_BOOTLOADER) && \
2140:Generated_Source\PSoC4/Bootloader.c ****                           (1u == Bootloader_GOLDEN_IMAGE_AVAIL))
2141:Generated_Source\PSoC4/Bootloader.c ****                         cystatus goldenImageValid;
2142:Generated_Source\PSoC4/Bootloader.c ****                     #endif /*(((0u != Bootloader_DUAL_APP_BOOTLOADER) &&
ARM GAS  C:\Users\VIDEOH~1\AppData\Local\Temp\ccEAPbdh.s 			page 43


2143:Generated_Source\PSoC4/Bootloader.c ****                                (1u == Bootloader_GOLDEN_IMAGE_AVAIL))*/
2144:Generated_Source\PSoC4/Bootloader.c **** 
2145:Generated_Source\PSoC4/Bootloader.c ****                         /* Get flash/EEPROM row number inside array */
2146:Generated_Source\PSoC4/Bootloader.c ****                         dataOffset = ((uint16)((uint16)packetBuffer[Bootloader_DATA_ADDR + 2u] << 8
2147:Generated_Source\PSoC4/Bootloader.c ****                                               packetBuffer[Bootloader_DATA_ADDR + 1u];
2148:Generated_Source\PSoC4/Bootloader.c **** 
2149:Generated_Source\PSoC4/Bootloader.c ****                         /*Checking if row number is within array address range*/
2150:Generated_Source\PSoC4/Bootloader.c ****                         ackCode = Bootloader_CHECK_ROW_NUMBER(dataOffset, upperRange);
2151:Generated_Source\PSoC4/Bootloader.c ****                     
2152:Generated_Source\PSoC4/Bootloader.c ****                         if (CYRET_SUCCESS != ackCode)
2153:Generated_Source\PSoC4/Bootloader.c ****                         {
2154:Generated_Source\PSoC4/Bootloader.c ****                             break;
2155:Generated_Source\PSoC4/Bootloader.c ****                         }
2156:Generated_Source\PSoC4/Bootloader.c ****                         
2157:Generated_Source\PSoC4/Bootloader.c ****                         /* Metadata section resides in flash (cannot be in EEPROM). */
2158:Generated_Source\PSoC4/Bootloader.c ****                         #if(!CY_PSOC4)
2159:Generated_Source\PSoC4/Bootloader.c ****                             if(btldrData <= Bootloader_LAST_FLASH_ARRAYID)
2160:Generated_Source\PSoC4/Bootloader.c ****                             {
2161:Generated_Source\PSoC4/Bootloader.c ****                         #endif  /* (!CY_PSOC4) */
2162:Generated_Source\PSoC4/Bootloader.c ****                 
2163:Generated_Source\PSoC4/Bootloader.c ****                         /* btldrData  - holds flash array Id sent by host */
2164:Generated_Source\PSoC4/Bootloader.c ****                         /* dataOffset - holds flash row Id sent by host   */
2165:Generated_Source\PSoC4/Bootloader.c ****                         row = (uint16)(btldrData * Bootloader_NUMBER_OF_ROWS_IN_ARRAY) + dataOffset
2166:Generated_Source\PSoC4/Bootloader.c ****                 
2167:Generated_Source\PSoC4/Bootloader.c ****                         /**************************************************************************
2168:Generated_Source\PSoC4/Bootloader.c ****                         * Refuse to write to the row within range of the bootloader application
2169:Generated_Source\PSoC4/Bootloader.c ****                         ***************************************************************************
2170:Generated_Source\PSoC4/Bootloader.c **** 
2171:Generated_Source\PSoC4/Bootloader.c ****                         /* First empty flash row after Bootloader application */
2172:Generated_Source\PSoC4/Bootloader.c ****                         #if (CYDEV_PROJ_TYPE != CYDEV_PROJ_TYPE_LOADABLEANDBOOTLOADER)    
2173:Generated_Source\PSoC4/Bootloader.c ****                             firstRow = (uint16) (*Bootloader_SizeBytesAccess / CYDEV_FLS_ROW_SIZE);
2174:Generated_Source\PSoC4/Bootloader.c ****                             if ((*Bootloader_SizeBytesAccess % CYDEV_FLS_ROW_SIZE) != 0u)
2175:Generated_Source\PSoC4/Bootloader.c ****                             {
2176:Generated_Source\PSoC4/Bootloader.c ****                                 firstRow++;
2177:Generated_Source\PSoC4/Bootloader.c ****                             }
2178:Generated_Source\PSoC4/Bootloader.c ****                         #else /*Combination project type*/                       
2179:Generated_Source\PSoC4/Bootloader.c ****                             
2180:Generated_Source\PSoC4/Bootloader.c ****                             if (Bootloader_RUNNING_APPLICATION_0 == Bootloader_runningApp) 
2181:Generated_Source\PSoC4/Bootloader.c ****                             {
2182:Generated_Source\PSoC4/Bootloader.c ****                                 btldrLastRow = (uint16)Bootloader_GetMetadata(Bootloader_GET_BTLDR_
2183:Generated_Source\PSoC4/Bootloader.c ****                                                                             Bootloader_MD_BTLDB_ACT
2184:Generated_Source\PSoC4/Bootloader.c ****                             }    
2185:Generated_Source\PSoC4/Bootloader.c ****                             else /*(Bootloader_RUNNING_APPLICATION_1 == Bootloader_runningApp)*/
2186:Generated_Source\PSoC4/Bootloader.c ****                             {
2187:Generated_Source\PSoC4/Bootloader.c ****                                 btldrLastRow = (uint16)Bootloader_GetMetadata(Bootloader_GET_BTLDR_
2188:Generated_Source\PSoC4/Bootloader.c ****                                                                             Bootloader_MD_BTLDB_ACT
2189:Generated_Source\PSoC4/Bootloader.c ****                             }
2190:Generated_Source\PSoC4/Bootloader.c ****                                                 
2191:Generated_Source\PSoC4/Bootloader.c ****                             firstRow = (uint16)(btldrLastRow + 1u); 
2192:Generated_Source\PSoC4/Bootloader.c ****                         #endif /*(CYDEV_PROJ_TYPE != CYDEV_PROJ_TYPE_LOADABLEANDBOOTLOADER)*/      
2193:Generated_Source\PSoC4/Bootloader.c **** 
2194:Generated_Source\PSoC4/Bootloader.c ****                             /* Check to see if a row to be programmed will not corrupt the Bootload
2195:Generated_Source\PSoC4/Bootloader.c ****                             if(row < firstRow)
2196:Generated_Source\PSoC4/Bootloader.c ****                             {
2197:Generated_Source\PSoC4/Bootloader.c ****                                 ackCode = Bootloader_ERR_ROW;
2198:Generated_Source\PSoC4/Bootloader.c ****                                 dataOffset = 0u;
2199:Generated_Source\PSoC4/Bootloader.c ****                                 break;
ARM GAS  C:\Users\VIDEOH~1\AppData\Local\Temp\ccEAPbdh.s 			page 44


2200:Generated_Source\PSoC4/Bootloader.c ****                             }
2201:Generated_Source\PSoC4/Bootloader.c ****                         
2202:Generated_Source\PSoC4/Bootloader.c ****                         #if ((0u != Bootloader_DUAL_APP_BOOTLOADER) || \
2203:Generated_Source\PSoC4/Bootloader.c ****                              (CYDEV_PROJ_TYPE == CYDEV_PROJ_TYPE_LOADABLEANDBOOTLOADER))
2204:Generated_Source\PSoC4/Bootloader.c ****                             
2205:Generated_Source\PSoC4/Bootloader.c ****                             /**********************************************************************
2206:Generated_Source\PSoC4/Bootloader.c ****                             * No check is required in case when there is no app#1 present in Upgrad
2207:Generated_Source\PSoC4/Bootloader.c ****                             * use case (no user application downloaded yet).                       
2208:Generated_Source\PSoC4/Bootloader.c ****                             ***********************************************************************
2209:Generated_Source\PSoC4/Bootloader.c ****                             #if (CYDEV_PROJ_TYPE == CYDEV_PROJ_TYPE_LOADABLEANDBOOTLOADER)
2210:Generated_Source\PSoC4/Bootloader.c ****                             if (0u != app2StartAddress) 
2211:Generated_Source\PSoC4/Bootloader.c ****                             {
2212:Generated_Source\PSoC4/Bootloader.c ****                             #endif /*(CYDEV_PROJ_TYPE == CYDEV_PROJ_TYPE_LOADABLEANDBOOTLOADER)*/
2213:Generated_Source\PSoC4/Bootloader.c ****                             
2214:Generated_Source\PSoC4/Bootloader.c ****                                 if(Bootloader_activeApp < Bootloader_MD_BTLDB_ACTIVE_NONE)    
2215:Generated_Source\PSoC4/Bootloader.c ****                                 {
2216:Generated_Source\PSoC4/Bootloader.c ****                                     /* Refuse to write to active image */
2217:Generated_Source\PSoC4/Bootloader.c ****                                     ackCode = Bootloader_CheckImage(Bootloader_activeApp, 
2218:Generated_Source\PSoC4/Bootloader.c ****                                                                        btldrData, /*array number*/
2219:Generated_Source\PSoC4/Bootloader.c ****                                                                        row,  /*row number*/
2220:Generated_Source\PSoC4/Bootloader.c ****                                                                        dataOffset); /*row number in
2221:Generated_Source\PSoC4/Bootloader.c ****                                 
2222:Generated_Source\PSoC4/Bootloader.c ****                                     if (Bootloader_ERR_ACTIVE == ackCode)
2223:Generated_Source\PSoC4/Bootloader.c ****                                     {
2224:Generated_Source\PSoC4/Bootloader.c ****                                         dataOffset = 0u;
2225:Generated_Source\PSoC4/Bootloader.c ****                                         break;                                
2226:Generated_Source\PSoC4/Bootloader.c ****                                     }
2227:Generated_Source\PSoC4/Bootloader.c ****                                 }
2228:Generated_Source\PSoC4/Bootloader.c ****                             #if (CYDEV_PROJ_TYPE == CYDEV_PROJ_TYPE_LOADABLEANDBOOTLOADER)
2229:Generated_Source\PSoC4/Bootloader.c ****                             }
2230:Generated_Source\PSoC4/Bootloader.c ****                             #endif /*(CYDEV_PROJ_TYPE == CYDEV_PROJ_TYPE_LOADABLEANDBOOTLOADER)*/
2231:Generated_Source\PSoC4/Bootloader.c **** 
2232:Generated_Source\PSoC4/Bootloader.c ****                             /*This option is available for classic Dual-app bootloader only*/
2233:Generated_Source\PSoC4/Bootloader.c ****                             #if ((0u != Bootloader_DUAL_APP_BOOTLOADER) && \
2234:Generated_Source\PSoC4/Bootloader.c ****                                  (1u == Bootloader_GOLDEN_IMAGE_AVAIL))
2235:Generated_Source\PSoC4/Bootloader.c ****                             /* Check if this is an attempt to overwrite Golden image */
2236:Generated_Source\PSoC4/Bootloader.c ****                             ackCode = Bootloader_CheckImage(Bootloader_GOLDEN_IMAGE, 
2237:Generated_Source\PSoC4/Bootloader.c ****                                                                   btldrData, /*array number*/
2238:Generated_Source\PSoC4/Bootloader.c ****                                                                   row, /*row number*/
2239:Generated_Source\PSoC4/Bootloader.c ****                                                                   dataOffset); /*row number in scop
2240:Generated_Source\PSoC4/Bootloader.c ****                             
2241:Generated_Source\PSoC4/Bootloader.c ****                             
2242:Generated_Source\PSoC4/Bootloader.c ****                             /**********************************************************************
2243:Generated_Source\PSoC4/Bootloader.c ****                             * If an image to write is intended to update the Golden image and Golde
2244:Generated_Source\PSoC4/Bootloader.c ****                             * itself is valid, then give an error that it is active/Golden, otherwi
2245:Generated_Source\PSoC4/Bootloader.c ****                             * (invalid Golden image) let the Golden image to be overwritten.
2246:Generated_Source\PSoC4/Bootloader.c ****                             ***********************************************************************
2247:Generated_Source\PSoC4/Bootloader.c ****                             goldenImageValid = Bootloader_ValidateBootloadable(Bootloader_GOLDEN_IM
2248:Generated_Source\PSoC4/Bootloader.c ****                             if ((Bootloader_ERR_ACTIVE == ackCode) && (CYRET_SUCCESS == goldenImage
2249:Generated_Source\PSoC4/Bootloader.c ****                             {
2250:Generated_Source\PSoC4/Bootloader.c ****                                 dataOffset = 0u;
2251:Generated_Source\PSoC4/Bootloader.c ****                                 break;                                
2252:Generated_Source\PSoC4/Bootloader.c ****                             }
2253:Generated_Source\PSoC4/Bootloader.c ****                             else /* It is OK to overwrite corrupted Golden image */
2254:Generated_Source\PSoC4/Bootloader.c ****                             {
2255:Generated_Source\PSoC4/Bootloader.c ****                                 ackCode = CYRET_SUCCESS;
2256:Generated_Source\PSoC4/Bootloader.c ****                             }
ARM GAS  C:\Users\VIDEOH~1\AppData\Local\Temp\ccEAPbdh.s 			page 45


2257:Generated_Source\PSoC4/Bootloader.c ****                             #endif /*((0u != Bootloader_DUAL_APP_BOOTLOADER) &&
2258:Generated_Source\PSoC4/Bootloader.c ****                                       (1u == Bootloader_GOLDEN_IMAGE_AVAIL)) */
2259:Generated_Source\PSoC4/Bootloader.c ****                         #endif /*(0u != Bootloader_DUAL_APP_BOOTLOADER) ||
2260:Generated_Source\PSoC4/Bootloader.c ****                                  (CYDEV_PROJ_TYPE == CYDEV_PROJ_TYPE_LOADABLEANDBOOTLOADER)*/    
2261:Generated_Source\PSoC4/Bootloader.c ****   
2262:Generated_Source\PSoC4/Bootloader.c **** 
2263:Generated_Source\PSoC4/Bootloader.c ****                         /**************************************************************************
2264:Generated_Source\PSoC4/Bootloader.c ****                         * Clear a row that contains metadata, when the "Fast bootloadable applicati
2265:Generated_Source\PSoC4/Bootloader.c ****                         * validation" option is enabled.
2266:Generated_Source\PSoC4/Bootloader.c ****                         *
2267:Generated_Source\PSoC4/Bootloader.c ****                         * If the "Fast bootloadable application validation" option is enabled, the
2268:Generated_Source\PSoC4/Bootloader.c ****                         * bootloader only computes the checksum the first time and assumes that it
2269:Generated_Source\PSoC4/Bootloader.c ****                         * remains valid in each future startup. The metadata row is cleared because
2270:Generated_Source\PSoC4/Bootloader.c ****                         * Bootloadable application might become corrupted during update, while
2271:Generated_Source\PSoC4/Bootloader.c ****                         * the "Bootloadable Application Verification Status" field will still repor
2272:Generated_Source\PSoC4/Bootloader.c ****                         * the application is valid.
2273:Generated_Source\PSoC4/Bootloader.c ****                         ***************************************************************************
2274:Generated_Source\PSoC4/Bootloader.c ****                         #if(0u != Bootloader_FAST_APP_VALIDATION)
2275:Generated_Source\PSoC4/Bootloader.c **** 
2276:Generated_Source\PSoC4/Bootloader.c ****                             if(0u == clearedMetaData)
2277:Generated_Source\PSoC4/Bootloader.c ****                             {
2278:Generated_Source\PSoC4/Bootloader.c ****                                 /* Metadata section must be filled with zeros */
2279:Generated_Source\PSoC4/Bootloader.c **** 
2280:Generated_Source\PSoC4/Bootloader.c ****                                 uint8 erase[Bootloader_FROW_SIZE];
2281:Generated_Source\PSoC4/Bootloader.c ****                                 uint8 Bootloader_notActiveApp;
2282:Generated_Source\PSoC4/Bootloader.c **** 
2283:Generated_Source\PSoC4/Bootloader.c **** 
2284:Generated_Source\PSoC4/Bootloader.c ****                                 #if(CY_PSOC3)
2285:Generated_Source\PSoC4/Bootloader.c ****                                     (void) memset(erase, (char8) 0, (int16) Bootloader_FROW_SIZE);
2286:Generated_Source\PSoC4/Bootloader.c ****                                 #else
2287:Generated_Source\PSoC4/Bootloader.c ****                                     (void) memset(erase, 0, Bootloader_FROW_SIZE);
2288:Generated_Source\PSoC4/Bootloader.c ****                                 #endif  /* (CY_PSOC3) */
2289:Generated_Source\PSoC4/Bootloader.c **** 
2290:Generated_Source\PSoC4/Bootloader.c **** 
2291:Generated_Source\PSoC4/Bootloader.c ****                                 #if ((0u != Bootloader_DUAL_APP_BOOTLOADER) || \
2292:Generated_Source\PSoC4/Bootloader.c ****                                      (CYDEV_PROJ_TYPE == CYDEV_PROJ_TYPE_LOADABLEANDBOOTLOADER))
2293:Generated_Source\PSoC4/Bootloader.c ****                                     if (Bootloader_MD_BTLDB_ACTIVE_0 == Bootloader_activeApp)
2294:Generated_Source\PSoC4/Bootloader.c ****                                     {
2295:Generated_Source\PSoC4/Bootloader.c ****                                         Bootloader_notActiveApp = Bootloader_MD_BTLDB_ACTIVE_1;
2296:Generated_Source\PSoC4/Bootloader.c ****                                     }
2297:Generated_Source\PSoC4/Bootloader.c ****                                     else
2298:Generated_Source\PSoC4/Bootloader.c ****                                     {
2299:Generated_Source\PSoC4/Bootloader.c ****                                         Bootloader_notActiveApp = Bootloader_MD_BTLDB_ACTIVE_0;
2300:Generated_Source\PSoC4/Bootloader.c ****                                     }
2301:Generated_Source\PSoC4/Bootloader.c ****                                 #else
2302:Generated_Source\PSoC4/Bootloader.c ****                                     Bootloader_notActiveApp = Bootloader_MD_BTLDB_ACTIVE_0;
2303:Generated_Source\PSoC4/Bootloader.c ****                                 #endif /* (0u != Bootloader_DUAL_APP_BOOTLOADER) */
2304:Generated_Source\PSoC4/Bootloader.c **** 
2305:Generated_Source\PSoC4/Bootloader.c **** 
2306:Generated_Source\PSoC4/Bootloader.c ****                                 #if(CY_PSOC4)
2307:Generated_Source\PSoC4/Bootloader.c ****                                     (void) CySysFlashWriteRow(
2308:Generated_Source\PSoC4/Bootloader.c ****                                             Bootloader_MD_ROW_NUM(Bootloader_notActiveApp),
2309:Generated_Source\PSoC4/Bootloader.c ****                                             erase);
2310:Generated_Source\PSoC4/Bootloader.c ****                                 #else
2311:Generated_Source\PSoC4/Bootloader.c ****                                     (void) CyWriteRowFull(
2312:Generated_Source\PSoC4/Bootloader.c ****                                             (uint8)  Bootloader_MD_FLASH_ARRAY_NUM,
2313:Generated_Source\PSoC4/Bootloader.c ****                                             (uint16) Bootloader_MD_ROW_NUM(Bootloader_notActiveApp)
ARM GAS  C:\Users\VIDEOH~1\AppData\Local\Temp\ccEAPbdh.s 			page 46


2314:Generated_Source\PSoC4/Bootloader.c ****                                             erase,
2315:Generated_Source\PSoC4/Bootloader.c ****                                             Bootloader_FROW_SIZE);
2316:Generated_Source\PSoC4/Bootloader.c ****                                 #endif  /* (CY_PSOC4) */
2317:Generated_Source\PSoC4/Bootloader.c **** 
2318:Generated_Source\PSoC4/Bootloader.c ****                                 /* PSoC 5: Do not care about flushing cache as flash row has been e
2319:Generated_Source\PSoC4/Bootloader.c **** 
2320:Generated_Source\PSoC4/Bootloader.c ****                                 /* Set up flag that metadata was cleared */
2321:Generated_Source\PSoC4/Bootloader.c ****                                 clearedMetaData = 1u;
2322:Generated_Source\PSoC4/Bootloader.c ****                             }
2323:Generated_Source\PSoC4/Bootloader.c **** 
2324:Generated_Source\PSoC4/Bootloader.c ****                         #endif  /* (0u != Bootloader_FAST_APP_VALIDATION) */
2325:Generated_Source\PSoC4/Bootloader.c **** 
2326:Generated_Source\PSoC4/Bootloader.c **** 
2327:Generated_Source\PSoC4/Bootloader.c ****                         #if(!CY_PSOC4)
2328:Generated_Source\PSoC4/Bootloader.c ****                             }   /* (btldrData <= Bootloader_LAST_FLASH_ARRAYID) */
2329:Generated_Source\PSoC4/Bootloader.c ****                         #endif  /* (!CY_PSOC4) */
2330:Generated_Source\PSoC4/Bootloader.c **** 
2331:Generated_Source\PSoC4/Bootloader.c **** 
2332:Generated_Source\PSoC4/Bootloader.c ****                         #if(CY_PSOC4)
2333:Generated_Source\PSoC4/Bootloader.c ****                             ackCode = (CYRET_SUCCESS != CySysFlashWriteRow((uint32) row, dataBuffer
2334:Generated_Source\PSoC4/Bootloader.c ****                                 ? Bootloader_ERR_ROW \
2335:Generated_Source\PSoC4/Bootloader.c ****                                 : CYRET_SUCCESS;
2336:Generated_Source\PSoC4/Bootloader.c ****                         #else
2337:Generated_Source\PSoC4/Bootloader.c ****                             ackCode = (CYRET_SUCCESS != CyWriteRowFull(btldrData, dataOffset, dataB
2338:Generated_Source\PSoC4/Bootloader.c ****                                 ? Bootloader_ERR_ROW \
2339:Generated_Source\PSoC4/Bootloader.c ****                                 : CYRET_SUCCESS;
2340:Generated_Source\PSoC4/Bootloader.c ****                         #endif  /* (CY_PSOC4) */
2341:Generated_Source\PSoC4/Bootloader.c **** 
2342:Generated_Source\PSoC4/Bootloader.c **** 
2343:Generated_Source\PSoC4/Bootloader.c ****                         #if(CY_PSOC5)
2344:Generated_Source\PSoC4/Bootloader.c ****                             /**********************************************************************
2345:Generated_Source\PSoC4/Bootloader.c ****                             * When writing to flash, data in the instruction cache can become stale
2346:Generated_Source\PSoC4/Bootloader.c ****                             * Therefore, the cache data does not correlate to the data just written
2347:Generated_Source\PSoC4/Bootloader.c ****                             * flash. A call to CyFlushCache() is required to invalidate the data in
2348:Generated_Source\PSoC4/Bootloader.c ****                             * cache and force fresh information to be loaded from flash.
2349:Generated_Source\PSoC4/Bootloader.c ****                             ***********************************************************************
2350:Generated_Source\PSoC4/Bootloader.c ****                             CyFlushCache();
2351:Generated_Source\PSoC4/Bootloader.c ****                         #endif /* (CY_PSOC5) */
2352:Generated_Source\PSoC4/Bootloader.c **** 
2353:Generated_Source\PSoC4/Bootloader.c ****                     }
2354:Generated_Source\PSoC4/Bootloader.c ****                     else
2355:Generated_Source\PSoC4/Bootloader.c ****                     {
2356:Generated_Source\PSoC4/Bootloader.c ****                         ackCode = Bootloader_ERR_LENGTH;
2357:Generated_Source\PSoC4/Bootloader.c ****                     }
2358:Generated_Source\PSoC4/Bootloader.c **** 
2359:Generated_Source\PSoC4/Bootloader.c ****                     dataOffset = 0u;
2360:Generated_Source\PSoC4/Bootloader.c ****                 }
2361:Generated_Source\PSoC4/Bootloader.c ****                 break;
2362:Generated_Source\PSoC4/Bootloader.c **** 
2363:Generated_Source\PSoC4/Bootloader.c **** 
2364:Generated_Source\PSoC4/Bootloader.c ****             /***************************************************************************
2365:Generated_Source\PSoC4/Bootloader.c ****             *   Sync bootloader (0x35)
2366:Generated_Source\PSoC4/Bootloader.c ****             ***************************************************************************/
2367:Generated_Source\PSoC4/Bootloader.c ****             #if(0u != Bootloader_CMD_SYNC_BOOTLOADER_AVAIL)
2368:Generated_Source\PSoC4/Bootloader.c **** 
2369:Generated_Source\PSoC4/Bootloader.c ****             case Bootloader_COMMAND_SYNC:
2370:Generated_Source\PSoC4/Bootloader.c **** 
ARM GAS  C:\Users\VIDEOH~1\AppData\Local\Temp\ccEAPbdh.s 			page 47


2371:Generated_Source\PSoC4/Bootloader.c ****                 if(Bootloader_COMMUNICATION_STATE_ACTIVE == communicationState)
2372:Generated_Source\PSoC4/Bootloader.c ****                 {
2373:Generated_Source\PSoC4/Bootloader.c ****                     /* If something failed, Host would send this command to reset Bootloader. */
2374:Generated_Source\PSoC4/Bootloader.c ****                     dataOffset = 0u;
2375:Generated_Source\PSoC4/Bootloader.c **** 
2376:Generated_Source\PSoC4/Bootloader.c ****                     /* Don't acknowledge the packet, just get ready to accept the next one */
2377:Generated_Source\PSoC4/Bootloader.c ****                     continue;
2378:Generated_Source\PSoC4/Bootloader.c ****                 }
2379:Generated_Source\PSoC4/Bootloader.c ****                 break;
2380:Generated_Source\PSoC4/Bootloader.c **** 
2381:Generated_Source\PSoC4/Bootloader.c ****             #endif  /* (0u != Bootloader_CMD_SYNC_BOOTLOADER_AVAIL) */
2382:Generated_Source\PSoC4/Bootloader.c **** 
2383:Generated_Source\PSoC4/Bootloader.c **** 
2384:Generated_Source\PSoC4/Bootloader.c ****             /***************************************************************************
2385:Generated_Source\PSoC4/Bootloader.c ****             *   Set an active application (0x36)
2386:Generated_Source\PSoC4/Bootloader.c ****             ***************************************************************************/
2387:Generated_Source\PSoC4/Bootloader.c ****             #if ((0u != Bootloader_DUAL_APP_BOOTLOADER) || \
2388:Generated_Source\PSoC4/Bootloader.c ****                  (CYDEV_PROJ_TYPE == CYDEV_PROJ_TYPE_LOADABLEANDBOOTLOADER))    
2389:Generated_Source\PSoC4/Bootloader.c **** 
2390:Generated_Source\PSoC4/Bootloader.c ****                 case Bootloader_COMMAND_APP_ACTIVE:
2391:Generated_Source\PSoC4/Bootloader.c **** 
2392:Generated_Source\PSoC4/Bootloader.c ****                     if((Bootloader_COMMUNICATION_STATE_ACTIVE == communicationState) && (pktSize ==
2393:Generated_Source\PSoC4/Bootloader.c ****                     {
2394:Generated_Source\PSoC4/Bootloader.c ****                         if(CYRET_SUCCESS == Bootloader_ValidateBootloadable(btldrData))
2395:Generated_Source\PSoC4/Bootloader.c ****                         {
2396:Generated_Source\PSoC4/Bootloader.c ****                             Bootloader_SetActiveAppInMetadata(btldrData);
2397:Generated_Source\PSoC4/Bootloader.c ****                             Bootloader_activeApp = btldrData;
2398:Generated_Source\PSoC4/Bootloader.c ****                             ackCode = CYRET_SUCCESS;
2399:Generated_Source\PSoC4/Bootloader.c ****                         }
2400:Generated_Source\PSoC4/Bootloader.c ****                         else
2401:Generated_Source\PSoC4/Bootloader.c ****                         {
2402:Generated_Source\PSoC4/Bootloader.c ****                             ackCode = Bootloader_ERR_APP;
2403:Generated_Source\PSoC4/Bootloader.c ****                         }
2404:Generated_Source\PSoC4/Bootloader.c ****                     }
2405:Generated_Source\PSoC4/Bootloader.c ****                     break;
2406:Generated_Source\PSoC4/Bootloader.c **** 
2407:Generated_Source\PSoC4/Bootloader.c ****             #endif  /* (0u != Bootloader_DUAL_APP_BOOTLOADER) || 
2408:Generated_Source\PSoC4/Bootloader.c ****                        (CYDEV_PROJ_TYPE == CYDEV_PROJ_TYPE_LOADABLEANDBOOTLOADER) */
2409:Generated_Source\PSoC4/Bootloader.c **** 
2410:Generated_Source\PSoC4/Bootloader.c **** 
2411:Generated_Source\PSoC4/Bootloader.c ****             /***************************************************************************
2412:Generated_Source\PSoC4/Bootloader.c ****             *   Send data (0x37)
2413:Generated_Source\PSoC4/Bootloader.c ****             ***************************************************************************/
2414:Generated_Source\PSoC4/Bootloader.c ****             #if (0u != Bootloader_CMD_SEND_DATA_AVAIL)
2415:Generated_Source\PSoC4/Bootloader.c **** 
2416:Generated_Source\PSoC4/Bootloader.c ****                 case Bootloader_COMMAND_DATA:
2417:Generated_Source\PSoC4/Bootloader.c **** 
2418:Generated_Source\PSoC4/Bootloader.c ****                     if(Bootloader_COMMUNICATION_STATE_ACTIVE == communicationState)
2419:Generated_Source\PSoC4/Bootloader.c ****                     {
2420:Generated_Source\PSoC4/Bootloader.c ****                         /*  Make sure that dataOffset is valid before copying data */
2421:Generated_Source\PSoC4/Bootloader.c ****                         if((dataOffset + pktSize) <= Bootloader_SIZEOF_COMMAND_BUFFER)
2422:Generated_Source\PSoC4/Bootloader.c ****                         {
2423:Generated_Source\PSoC4/Bootloader.c ****                             ackCode = CYRET_SUCCESS;
2424:Generated_Source\PSoC4/Bootloader.c **** 
2425:Generated_Source\PSoC4/Bootloader.c ****                             #if(CY_PSOC3)
2426:Generated_Source\PSoC4/Bootloader.c ****                                 (void) memcpy(&dataBuffer[dataOffset],
2427:Generated_Source\PSoC4/Bootloader.c ****                                               &packetBuffer[Bootloader_DATA_ADDR],
ARM GAS  C:\Users\VIDEOH~1\AppData\Local\Temp\ccEAPbdh.s 			page 48


2428:Generated_Source\PSoC4/Bootloader.c ****                                               ( int16 )pktSize);
2429:Generated_Source\PSoC4/Bootloader.c ****                             #else
2430:Generated_Source\PSoC4/Bootloader.c ****                                 (void) memcpy(&dataBuffer[dataOffset],
2431:Generated_Source\PSoC4/Bootloader.c ****                                               &packetBuffer[Bootloader_DATA_ADDR],
2432:Generated_Source\PSoC4/Bootloader.c ****                                               (uint32) pktSize);
2433:Generated_Source\PSoC4/Bootloader.c ****                             #endif  /* (CY_PSOC3) */
2434:Generated_Source\PSoC4/Bootloader.c **** 
2435:Generated_Source\PSoC4/Bootloader.c ****                             dataOffset += pktSize;
2436:Generated_Source\PSoC4/Bootloader.c ****                         }
2437:Generated_Source\PSoC4/Bootloader.c ****                         else
2438:Generated_Source\PSoC4/Bootloader.c ****                         {
2439:Generated_Source\PSoC4/Bootloader.c ****                             ackCode = Bootloader_ERR_LENGTH;
2440:Generated_Source\PSoC4/Bootloader.c ****                         }
2441:Generated_Source\PSoC4/Bootloader.c ****                     }
2442:Generated_Source\PSoC4/Bootloader.c **** 
2443:Generated_Source\PSoC4/Bootloader.c ****                     break;
2444:Generated_Source\PSoC4/Bootloader.c **** 
2445:Generated_Source\PSoC4/Bootloader.c ****             #endif  /* (0u != Bootloader_CMD_SEND_DATA_AVAIL) */
2446:Generated_Source\PSoC4/Bootloader.c **** 
2447:Generated_Source\PSoC4/Bootloader.c **** 
2448:Generated_Source\PSoC4/Bootloader.c ****             /***************************************************************************
2449:Generated_Source\PSoC4/Bootloader.c ****             *   Enter bootloader (0x38)
2450:Generated_Source\PSoC4/Bootloader.c ****             ***************************************************************************/
2451:Generated_Source\PSoC4/Bootloader.c ****             case Bootloader_COMMAND_ENTER:
2452:Generated_Source\PSoC4/Bootloader.c **** 
2453:Generated_Source\PSoC4/Bootloader.c ****         #if (Bootloader_SECURITY_KEY_AVAIL == 1u)    
2454:Generated_Source\PSoC4/Bootloader.c ****             if(pktSize == 6u) /*Security key*/
2455:Generated_Source\PSoC4/Bootloader.c ****         #else    
2456:Generated_Source\PSoC4/Bootloader.c ****             if(pktSize == 0u) /*Security key is not demanded*/
2457:Generated_Source\PSoC4/Bootloader.c ****         #endif /*(Bootloader_SECURITY_KEY_AVAIL == 1u)*/   
2458:Generated_Source\PSoC4/Bootloader.c ****                 {
2459:Generated_Source\PSoC4/Bootloader.c ****                     #if(CY_PSOC3)
2460:Generated_Source\PSoC4/Bootloader.c **** 
2461:Generated_Source\PSoC4/Bootloader.c ****                         Bootloader_ENTER CYDATA BtldrVersion =
2462:Generated_Source\PSoC4/Bootloader.c ****                             {CYSWAP_ENDIAN32(CYDEV_CHIP_JTAG_ID), CYDEV_CHIP_REV_EXPECT, Bootloader
2463:Generated_Source\PSoC4/Bootloader.c **** 
2464:Generated_Source\PSoC4/Bootloader.c ****                     #else
2465:Generated_Source\PSoC4/Bootloader.c **** 
2466:Generated_Source\PSoC4/Bootloader.c ****                         Bootloader_ENTER CYDATA BtldrVersion =
2467:Generated_Source\PSoC4/Bootloader.c ****                             {CYDEV_CHIP_JTAG_ID, CYDEV_CHIP_REV_EXPECT, Bootloader_VERSION};
2468:Generated_Source\PSoC4/Bootloader.c ****             #endif  /* (CY_PSOC3) */
2469:Generated_Source\PSoC4/Bootloader.c **** 
2470:Generated_Source\PSoC4/Bootloader.c ****             #if (Bootloader_SECURITY_KEY_AVAIL == 1u)
2471:Generated_Source\PSoC4/Bootloader.c ****                 
2472:Generated_Source\PSoC4/Bootloader.c ****                 /*Security key checking*/
2473:Generated_Source\PSoC4/Bootloader.c ****                 uint8 idx = Bootloader_SECURITY_KEY_LENGTH;
2474:Generated_Source\PSoC4/Bootloader.c ****                 ackCode = CYRET_SUCCESS;
2475:Generated_Source\PSoC4/Bootloader.c ****                 
2476:Generated_Source\PSoC4/Bootloader.c ****                 do
2477:Generated_Source\PSoC4/Bootloader.c ****                 {
2478:Generated_Source\PSoC4/Bootloader.c ****                     idx--;                     
2479:Generated_Source\PSoC4/Bootloader.c ****                     if (Bootloader_securityKey[idx] != packetBuffer[Bootloader_DATA_ADDR + idx])
2480:Generated_Source\PSoC4/Bootloader.c ****                     {
2481:Generated_Source\PSoC4/Bootloader.c ****                         ackCode = Bootloader_ERR_DATA;
2482:Generated_Source\PSoC4/Bootloader.c ****                         break;
2483:Generated_Source\PSoC4/Bootloader.c ****                     }
2484:Generated_Source\PSoC4/Bootloader.c ****                     
ARM GAS  C:\Users\VIDEOH~1\AppData\Local\Temp\ccEAPbdh.s 			page 49


2485:Generated_Source\PSoC4/Bootloader.c ****                 } while(0u != idx);
2486:Generated_Source\PSoC4/Bootloader.c ****                 
2487:Generated_Source\PSoC4/Bootloader.c ****                 if (Bootloader_ERR_DATA == ackCode)
2488:Generated_Source\PSoC4/Bootloader.c ****                 {
2489:Generated_Source\PSoC4/Bootloader.c ****                     break;
2490:Generated_Source\PSoC4/Bootloader.c ****                 }
2491:Generated_Source\PSoC4/Bootloader.c ****             #endif /*(Bootloader_SECURITY_KEY_AVAIL == 1u)*/
2492:Generated_Source\PSoC4/Bootloader.c ****                 
2493:Generated_Source\PSoC4/Bootloader.c ****                 #if (CYDEV_PROJ_TYPE == CYDEV_PROJ_TYPE_LOADABLEANDBOOTLOADER) 
2494:Generated_Source\PSoC4/Bootloader.c ****                     Bootloader_isBootloading = Bootloader_BOOTLOADING_IN_PROGRESS;
2495:Generated_Source\PSoC4/Bootloader.c ****                 #endif /*(CYDEV_PROJ_TYPE == CYDEV_PROJ_TYPE_LOADABLEANDBOOTLOADER)*/    
2496:Generated_Source\PSoC4/Bootloader.c ****                 
2497:Generated_Source\PSoC4/Bootloader.c ****                     communicationState = Bootloader_COMMUNICATION_STATE_ACTIVE;
2498:Generated_Source\PSoC4/Bootloader.c **** 
2499:Generated_Source\PSoC4/Bootloader.c ****                     rspSize = sizeof(Bootloader_ENTER);
2500:Generated_Source\PSoC4/Bootloader.c ****                     dataOffset = 0u; 
2501:Generated_Source\PSoC4/Bootloader.c ****                     
2502:Generated_Source\PSoC4/Bootloader.c ****                     #if(CY_PSOC3)
2503:Generated_Source\PSoC4/Bootloader.c ****                         (void) memcpy(&packetBuffer[Bootloader_DATA_ADDR],
2504:Generated_Source\PSoC4/Bootloader.c ****                                       &BtldrVersion,
2505:Generated_Source\PSoC4/Bootloader.c ****                                       ( int16 )rspSize);
2506:Generated_Source\PSoC4/Bootloader.c ****                     #else
2507:Generated_Source\PSoC4/Bootloader.c ****                         (void) memcpy(&packetBuffer[Bootloader_DATA_ADDR],
2508:Generated_Source\PSoC4/Bootloader.c ****                                       &BtldrVersion,
2509:Generated_Source\PSoC4/Bootloader.c ****                                       (uint32) rspSize);
2510:Generated_Source\PSoC4/Bootloader.c ****                     #endif  /* (CY_PSOC3) */
2511:Generated_Source\PSoC4/Bootloader.c **** 
2512:Generated_Source\PSoC4/Bootloader.c ****                     ackCode = CYRET_SUCCESS;
2513:Generated_Source\PSoC4/Bootloader.c ****                 }
2514:Generated_Source\PSoC4/Bootloader.c ****                 else /* Packet length does not match*/
2515:Generated_Source\PSoC4/Bootloader.c ****                 {
2516:Generated_Source\PSoC4/Bootloader.c ****                     ackCode = Bootloader_ERR_DATA;
2517:Generated_Source\PSoC4/Bootloader.c ****                 }
2518:Generated_Source\PSoC4/Bootloader.c ****                 break;
2519:Generated_Source\PSoC4/Bootloader.c **** 
2520:Generated_Source\PSoC4/Bootloader.c **** 
2521:Generated_Source\PSoC4/Bootloader.c ****             /***************************************************************************
2522:Generated_Source\PSoC4/Bootloader.c ****             *   Get row checksum (0x3A)
2523:Generated_Source\PSoC4/Bootloader.c ****             ***************************************************************************/
2524:Generated_Source\PSoC4/Bootloader.c ****             #if (0u != Bootloader_CMD_GET_ROW_CHKSUM_AVAIL)
2525:Generated_Source\PSoC4/Bootloader.c **** 
2526:Generated_Source\PSoC4/Bootloader.c ****             case Bootloader_COMMAND_GET_ROW_CHKSUM:
2527:Generated_Source\PSoC4/Bootloader.c **** 
2528:Generated_Source\PSoC4/Bootloader.c ****                 if((Bootloader_COMMUNICATION_STATE_ACTIVE == communicationState) && (pktSize == 3u)
2529:Generated_Source\PSoC4/Bootloader.c ****                 {
2530:Generated_Source\PSoC4/Bootloader.c ****                     /* Get flash/EEPROM row number */
2531:Generated_Source\PSoC4/Bootloader.c ****                     uint16 CYDATA rowNum = ((uint16)((uint16)packetBuffer[Bootloader_DATA_ADDR + 2u
2532:Generated_Source\PSoC4/Bootloader.c ****                                                     packetBuffer[Bootloader_DATA_ADDR + 1u];
2533:Generated_Source\PSoC4/Bootloader.c ****                     
2534:Generated_Source\PSoC4/Bootloader.c ****                     uint16 CYDATA tmpRowNum; 
2535:Generated_Source\PSoC4/Bootloader.c ****                     #if(!CY_PSOC4)
2536:Generated_Source\PSoC4/Bootloader.c **** 
2537:Generated_Source\PSoC4/Bootloader.c ****                         uint32 CYDATA rowAddr;
2538:Generated_Source\PSoC4/Bootloader.c ****                         uint8 CYDATA checksum;
2539:Generated_Source\PSoC4/Bootloader.c **** 
2540:Generated_Source\PSoC4/Bootloader.c ****                         if((btldrData >= Bootloader_FIRST_EE_ARRAYID) &&
2541:Generated_Source\PSoC4/Bootloader.c ****                            (btldrData <= Bootloader_LAST_EE_ARRAYID))
ARM GAS  C:\Users\VIDEOH~1\AppData\Local\Temp\ccEAPbdh.s 			page 50


2542:Generated_Source\PSoC4/Bootloader.c ****                         {
2543:Generated_Source\PSoC4/Bootloader.c ****                             /* EEPROM */
2544:Generated_Source\PSoC4/Bootloader.c ****                             CyEEPROM_Start();
2545:Generated_Source\PSoC4/Bootloader.c ****                             /* Both PSoC 3 and PSoC 5LP architecture have one EEPROM array. */
2546:Generated_Source\PSoC4/Bootloader.c ****                             rowAddr = (uint32)rowNum * CYDEV_EEPROM_ROW_SIZE;
2547:Generated_Source\PSoC4/Bootloader.c ****                             
2548:Generated_Source\PSoC4/Bootloader.c ****                             /* Checking if row number is within array address range */
2549:Generated_Source\PSoC4/Bootloader.c ****                             ackCode = Bootloader_CHECK_ROW_NUMBER(rowNum, 
2550:Generated_Source\PSoC4/Bootloader.c ****                                 (Bootloader_NUMBER_OF_EEPROM_SECTORS * Bootloader_NUMBER_OF_ROWS_IN
2551:Generated_Source\PSoC4/Bootloader.c ****                     
2552:Generated_Source\PSoC4/Bootloader.c ****                             if (CYRET_SUCCESS != ackCode)
2553:Generated_Source\PSoC4/Bootloader.c ****                             {
2554:Generated_Source\PSoC4/Bootloader.c ****                                 break;
2555:Generated_Source\PSoC4/Bootloader.c ****                             }
2556:Generated_Source\PSoC4/Bootloader.c **** 
2557:Generated_Source\PSoC4/Bootloader.c ****                             checksum = Bootloader_Calc8BitSum(CY_EEPROM_BASE, rowAddr, CYDEV_EEPROM
2558:Generated_Source\PSoC4/Bootloader.c ****                         }
2559:Generated_Source\PSoC4/Bootloader.c ****                         else
2560:Generated_Source\PSoC4/Bootloader.c ****                         {
2561:Generated_Source\PSoC4/Bootloader.c ****                             /* flash */ 
2562:Generated_Source\PSoC4/Bootloader.c ****                             rowAddr = ((uint32)btldrData * CYDEV_FLS_SECTOR_SIZE)
2563:Generated_Source\PSoC4/Bootloader.c ****                                        + ((uint32)rowNum * CYDEV_FLS_ROW_SIZE);
2564:Generated_Source\PSoC4/Bootloader.c **** 
2565:Generated_Source\PSoC4/Bootloader.c ****                             /* Checking if row number is within array address range */
2566:Generated_Source\PSoC4/Bootloader.c ****                             ackCode = Bootloader_CHECK_ROW_NUMBER(rowNum, 
2567:Generated_Source\PSoC4/Bootloader.c ****                                                        Bootloader_NUMBER_OF_ROWS_IN_ARRAY);
2568:Generated_Source\PSoC4/Bootloader.c ****                     
2569:Generated_Source\PSoC4/Bootloader.c ****                             if (CYRET_SUCCESS != ackCode)
2570:Generated_Source\PSoC4/Bootloader.c ****                             {
2571:Generated_Source\PSoC4/Bootloader.c ****                                 break;
2572:Generated_Source\PSoC4/Bootloader.c ****                             }                            
2573:Generated_Source\PSoC4/Bootloader.c **** 
2574:Generated_Source\PSoC4/Bootloader.c ****                             checksum = Bootloader_Calc8BitSum(CY_FLASH_BASE, rowAddr, CYDEV_FLS_ROW
2575:Generated_Source\PSoC4/Bootloader.c ****                         }
2576:Generated_Source\PSoC4/Bootloader.c **** 
2577:Generated_Source\PSoC4/Bootloader.c ****                     #else
2578:Generated_Source\PSoC4/Bootloader.c **** 
2579:Generated_Source\PSoC4/Bootloader.c ****                         uint32 CYDATA rowAddr = ((uint32)btldrData * CYDEV_FLS_SECTOR_SIZE)
2580:Generated_Source\PSoC4/Bootloader.c ****                                             + ((uint32)rowNum * CYDEV_FLS_ROW_SIZE);
2581:Generated_Source\PSoC4/Bootloader.c ****                         
2582:Generated_Source\PSoC4/Bootloader.c ****                         uint8 CYDATA checksum;
2583:Generated_Source\PSoC4/Bootloader.c ****                          
2584:Generated_Source\PSoC4/Bootloader.c ****                         /* Checking if row number is within array address range */
2585:Generated_Source\PSoC4/Bootloader.c ****                         ackCode = Bootloader_CHECK_ROW_NUMBER(rowNum, 
2586:Generated_Source\PSoC4/Bootloader.c ****                                                        Bootloader_NUMBER_OF_ROWS_IN_ARRAY);
2587:Generated_Source\PSoC4/Bootloader.c ****                     
2588:Generated_Source\PSoC4/Bootloader.c ****                         if (CYRET_SUCCESS != ackCode)
2589:Generated_Source\PSoC4/Bootloader.c ****                         {
2590:Generated_Source\PSoC4/Bootloader.c ****                             break;
2591:Generated_Source\PSoC4/Bootloader.c ****                         }                     
2592:Generated_Source\PSoC4/Bootloader.c **** 
2593:Generated_Source\PSoC4/Bootloader.c ****                         checksum = Bootloader_Calc8BitSum(CY_FLASH_BASE, rowAddr, CYDEV_FLS_ROW_SIZ
2594:Generated_Source\PSoC4/Bootloader.c **** 
