ARM GAS  C:\Users\VIDEOH~1\AppData\Local\Temp\cc9HpMPY.s 			page 1


   1              		.syntax unified
   2              		.cpu cortex-m0
   3              		.fpu softvfp
   4              		.eabi_attribute 20, 1
   5              		.eabi_attribute 21, 1
   6              		.eabi_attribute 23, 3
   7              		.eabi_attribute 24, 1
   8              		.eabi_attribute 25, 1
   9              		.eabi_attribute 26, 1
  10              		.eabi_attribute 30, 1
  11              		.eabi_attribute 34, 0
  12              		.eabi_attribute 18, 4
  13              		.thumb
  14              		.syntax unified
  15              		.file	"CyLFClk.c"
  16              		.text
  17              	.Ltext0:
  18              		.cfi_sections	.debug_frame
  19              		.section	.text.CySysClkIloEnabled,"ax",%progbits
  20              		.align	2
  21              		.code	16
  22              		.thumb_func
  23              		.type	CySysClkIloEnabled, %function
  24              	CySysClkIloEnabled:
  25              	.LFB5:
  26              		.file 1 "Generated_Source\\PSoC4\\CyLFClk.c"
   1:Generated_Source\PSoC4/CyLFClk.c **** /***************************************************************************//**
   2:Generated_Source\PSoC4/CyLFClk.c **** * \file .c
   3:Generated_Source\PSoC4/CyLFClk.c **** * \version 1.20
   4:Generated_Source\PSoC4/CyLFClk.c **** *
   5:Generated_Source\PSoC4/CyLFClk.c **** * \brief
   6:Generated_Source\PSoC4/CyLFClk.c **** *  This file provides the source code for configuring watchdog timers WDTs, 
   7:Generated_Source\PSoC4/CyLFClk.c **** *  low frequency clocks (LFCLK) and the Real-time Clock (RTC) component in
   8:Generated_Source\PSoC4/CyLFClk.c **** *  PSoC Creator for the PSoC 4 families.
   9:Generated_Source\PSoC4/CyLFClk.c **** *
  10:Generated_Source\PSoC4/CyLFClk.c **** ********************************************************************************
  11:Generated_Source\PSoC4/CyLFClk.c **** * \copyright
  12:Generated_Source\PSoC4/CyLFClk.c **** * Copyright 2008-2017, Cypress Semiconductor Corporation.  All rights reserved.
  13:Generated_Source\PSoC4/CyLFClk.c **** * You may use this file only in accordance with the license, terms, conditions,
  14:Generated_Source\PSoC4/CyLFClk.c **** * disclaimers, and limitations in the end user license agreement accompanying
  15:Generated_Source\PSoC4/CyLFClk.c **** * the software package with which this file was provided.
  16:Generated_Source\PSoC4/CyLFClk.c **** *******************************************************************************/
  17:Generated_Source\PSoC4/CyLFClk.c **** 
  18:Generated_Source\PSoC4/CyLFClk.c **** 
  19:Generated_Source\PSoC4/CyLFClk.c **** #include "CyLFClk.h"
  20:Generated_Source\PSoC4/CyLFClk.c **** #include "CyLib.h"
  21:Generated_Source\PSoC4/CyLFClk.c **** 
  22:Generated_Source\PSoC4/CyLFClk.c **** #if (CY_IP_WCO && CY_IP_SRSSV2)
  23:Generated_Source\PSoC4/CyLFClk.c ****     static uint32 CySysClkGetLfclkSource(void);
  24:Generated_Source\PSoC4/CyLFClk.c **** #endif /* (CY_IP_WCO && CY_IP_SRSSV2) */
  25:Generated_Source\PSoC4/CyLFClk.c **** 
  26:Generated_Source\PSoC4/CyLFClk.c **** 
  27:Generated_Source\PSoC4/CyLFClk.c **** #if(CY_IP_SRSSV2 && (!CY_IP_CPUSS))
  28:Generated_Source\PSoC4/CyLFClk.c ****     /* Default Ilo Trim Register value for ILO trimming*/
  29:Generated_Source\PSoC4/CyLFClk.c ****     static volatile uint16 defaultIloTrimRegValue = CY_SYS_CLK_ILO_TRIM_DEFAULT_VALUE;
  30:Generated_Source\PSoC4/CyLFClk.c **** #endif /* (CY_IP_SRSSV2 && (!CY_IP_CPUSS)) */
  31:Generated_Source\PSoC4/CyLFClk.c **** 
ARM GAS  C:\Users\VIDEOH~1\AppData\Local\Temp\cc9HpMPY.s 			page 2


  32:Generated_Source\PSoC4/CyLFClk.c **** #if(CY_IP_SRSSV2)
  33:Generated_Source\PSoC4/CyLFClk.c ****     /* CySysClkLfclkPosedgeCatch() / CySysClkLfclkPosedgeRestore() */
  34:Generated_Source\PSoC4/CyLFClk.c ****     static uint32 lfclkPosedgeWdtCounter0Enabled = 0u;
  35:Generated_Source\PSoC4/CyLFClk.c ****     static uint32 lfclkPosedgeWdtCounter0Mode    = CY_SYS_WDT_MODE_NONE;
  36:Generated_Source\PSoC4/CyLFClk.c **** 
  37:Generated_Source\PSoC4/CyLFClk.c ****     static volatile uint32 disableServicedIsr = 0uL;
  38:Generated_Source\PSoC4/CyLFClk.c ****     static volatile uint32 wdtIsrMask = CY_SYS_WDT_COUNTER0_INT |\
  39:Generated_Source\PSoC4/CyLFClk.c ****                                         CY_SYS_WDT_COUNTER1_INT |\
  40:Generated_Source\PSoC4/CyLFClk.c ****                                         CY_SYS_WDT_COUNTER2_INT;
  41:Generated_Source\PSoC4/CyLFClk.c **** 
  42:Generated_Source\PSoC4/CyLFClk.c ****     static const uint32 counterIntMaskTbl[CY_WDT_NUM_OF_WDT] = {CY_SYS_WDT_COUNTER0_INT,
  43:Generated_Source\PSoC4/CyLFClk.c ****                                                                 CY_SYS_WDT_COUNTER1_INT,
  44:Generated_Source\PSoC4/CyLFClk.c ****                                                                 CY_SYS_WDT_COUNTER2_INT};
  45:Generated_Source\PSoC4/CyLFClk.c **** 
  46:Generated_Source\PSoC4/CyLFClk.c ****     static void CySysClkLfclkPosedgeCatch(void);
  47:Generated_Source\PSoC4/CyLFClk.c ****     static void CySysClkLfclkPosedgeRestore(void);
  48:Generated_Source\PSoC4/CyLFClk.c **** 
  49:Generated_Source\PSoC4/CyLFClk.c ****     static uint32 CySysWdtLocked(void);
  50:Generated_Source\PSoC4/CyLFClk.c ****     static uint32 CySysClkIloEnabled(void);
  51:Generated_Source\PSoC4/CyLFClk.c **** #endif /* (CY_IP_SRSSV2) */
  52:Generated_Source\PSoC4/CyLFClk.c **** 
  53:Generated_Source\PSoC4/CyLFClk.c **** #if (CY_IP_SRSSLT && CY_IP_WCO && CY_IP_WCO_WDT_EN)
  54:Generated_Source\PSoC4/CyLFClk.c ****     static uint32 CySysClkGetTimerSource(void);
  55:Generated_Source\PSoC4/CyLFClk.c ****     static volatile uint32 disableTimerServicedIsr = 0uL;
  56:Generated_Source\PSoC4/CyLFClk.c ****     static volatile uint32 timerIsrMask = CY_SYS_TIMER0_INT |\
  57:Generated_Source\PSoC4/CyLFClk.c ****                                           CY_SYS_TIMER1_INT |\
  58:Generated_Source\PSoC4/CyLFClk.c ****                                           CY_SYS_TIMER2_INT;
  59:Generated_Source\PSoC4/CyLFClk.c **** 
  60:Generated_Source\PSoC4/CyLFClk.c ****     static const uint32 counterTimerIntMaskTbl[CY_SYS_NUM_OF_TIMERS] = {CY_SYS_TIMER0_INT,
  61:Generated_Source\PSoC4/CyLFClk.c ****                                                                         CY_SYS_TIMER1_INT,
  62:Generated_Source\PSoC4/CyLFClk.c ****                                                                         CY_SYS_TIMER2_INT};
  63:Generated_Source\PSoC4/CyLFClk.c **** 
  64:Generated_Source\PSoC4/CyLFClk.c ****     static cyTimerCallback cySysTimerCallback[CY_SYS_NUM_OF_TIMERS] = {(void *)0, (void *)0, (void 
  65:Generated_Source\PSoC4/CyLFClk.c **** #endif /* (CY_IP_SRSSLT && CY_IP_WCO && CY_IP_WCO_DWT_EN) */
  66:Generated_Source\PSoC4/CyLFClk.c **** 
  67:Generated_Source\PSoC4/CyLFClk.c **** #if(CY_IP_SRSSV2)
  68:Generated_Source\PSoC4/CyLFClk.c ****     static cyWdtCallback cySysWdtCallback[CY_WDT_NUM_OF_WDT] = {(void *)0, (void *)0, (void *)0};
  69:Generated_Source\PSoC4/CyLFClk.c **** #else
  70:Generated_Source\PSoC4/CyLFClk.c ****     static cyWdtCallback cySysWdtCallback = (void *)0;
  71:Generated_Source\PSoC4/CyLFClk.c **** #endif /* (CY_IP_SRSSV2) */
  72:Generated_Source\PSoC4/CyLFClk.c **** 
  73:Generated_Source\PSoC4/CyLFClk.c **** 
  74:Generated_Source\PSoC4/CyLFClk.c **** /*******************************************************************************
  75:Generated_Source\PSoC4/CyLFClk.c **** * Function Name: CySysClkIloStart
  76:Generated_Source\PSoC4/CyLFClk.c **** ****************************************************************************//**
  77:Generated_Source\PSoC4/CyLFClk.c **** * \brief
  78:Generated_Source\PSoC4/CyLFClk.c **** *  Enables ILO.
  79:Generated_Source\PSoC4/CyLFClk.c **** *
  80:Generated_Source\PSoC4/CyLFClk.c **** *  Refer to the device datasheet for the ILO startup time.
  81:Generated_Source\PSoC4/CyLFClk.c **** *
  82:Generated_Source\PSoC4/CyLFClk.c **** *******************************************************************************/
  83:Generated_Source\PSoC4/CyLFClk.c **** void CySysClkIloStart(void)
  84:Generated_Source\PSoC4/CyLFClk.c **** {
  85:Generated_Source\PSoC4/CyLFClk.c ****     CY_SYS_CLK_ILO_CONFIG_REG |= CY_SYS_CLK_ILO_CONFIG_ENABLE;
  86:Generated_Source\PSoC4/CyLFClk.c **** }
  87:Generated_Source\PSoC4/CyLFClk.c **** 
  88:Generated_Source\PSoC4/CyLFClk.c **** 
ARM GAS  C:\Users\VIDEOH~1\AppData\Local\Temp\cc9HpMPY.s 			page 3


  89:Generated_Source\PSoC4/CyLFClk.c **** /*******************************************************************************
  90:Generated_Source\PSoC4/CyLFClk.c **** * Function Name: CySysClkIloStop
  91:Generated_Source\PSoC4/CyLFClk.c **** ****************************************************************************//**
  92:Generated_Source\PSoC4/CyLFClk.c **** * \brief
  93:Generated_Source\PSoC4/CyLFClk.c **** *  Disables the ILO.
  94:Generated_Source\PSoC4/CyLFClk.c **** *
  95:Generated_Source\PSoC4/CyLFClk.c **** *  This function has no effect if WDT is locked (CySysWdtLock() is
  96:Generated_Source\PSoC4/CyLFClk.c **** *  called). Call CySysWdtUnlock() to unlock WDT and stop ILO.
  97:Generated_Source\PSoC4/CyLFClk.c **** *
  98:Generated_Source\PSoC4/CyLFClk.c **** *  PSoC 4100 / PSoC 4200: Note that ILO is required for WDT's operation.
  99:Generated_Source\PSoC4/CyLFClk.c **** *
 100:Generated_Source\PSoC4/CyLFClk.c **** *  PSoC 4100 BLE / PSoC 4200 BLE / PSoC 4200L / PSoC 4100M / 
 101:Generated_Source\PSoC4/CyLFClk.c **** *  PSoC 4200M:
 102:Generated_Source\PSoC4/CyLFClk.c **** *  Stopping ILO affects the peripheral clocked by LFCLK, if
 103:Generated_Source\PSoC4/CyLFClk.c **** *  LFCLK is configured to be sourced by ILO.
 104:Generated_Source\PSoC4/CyLFClk.c **** *
 105:Generated_Source\PSoC4/CyLFClk.c **** *  If the ILO is disabled, all blocks run by ILO will stop functioning.
 106:Generated_Source\PSoC4/CyLFClk.c **** *
 107:Generated_Source\PSoC4/CyLFClk.c **** *******************************************************************************/
 108:Generated_Source\PSoC4/CyLFClk.c **** void CySysClkIloStop(void)
 109:Generated_Source\PSoC4/CyLFClk.c **** {
 110:Generated_Source\PSoC4/CyLFClk.c ****     #if(CY_IP_SRSSV2)
 111:Generated_Source\PSoC4/CyLFClk.c ****         uint8  interruptState;
 112:Generated_Source\PSoC4/CyLFClk.c **** 
 113:Generated_Source\PSoC4/CyLFClk.c ****         /* Do nothing if WDT is locked or ILO is disabled */
 114:Generated_Source\PSoC4/CyLFClk.c ****         if (0u == CySysWdtLocked())
 115:Generated_Source\PSoC4/CyLFClk.c ****         {
 116:Generated_Source\PSoC4/CyLFClk.c ****             if (0u != CySysClkIloEnabled())
 117:Generated_Source\PSoC4/CyLFClk.c ****             {
 118:Generated_Source\PSoC4/CyLFClk.c **** 
 119:Generated_Source\PSoC4/CyLFClk.c ****             #if (CY_IP_WCO)
 120:Generated_Source\PSoC4/CyLFClk.c ****                 if (CY_SYS_CLK_LFCLK_SRC_ILO == CySysClkGetLfclkSource())
 121:Generated_Source\PSoC4/CyLFClk.c ****                 {
 122:Generated_Source\PSoC4/CyLFClk.c ****             #endif /* (CY_IP_WCO) */
 123:Generated_Source\PSoC4/CyLFClk.c **** 
 124:Generated_Source\PSoC4/CyLFClk.c ****                 interruptState = CyEnterCriticalSection();
 125:Generated_Source\PSoC4/CyLFClk.c ****                 CySysClkLfclkPosedgeCatch();
 126:Generated_Source\PSoC4/CyLFClk.c ****                 CY_SYS_CLK_ILO_CONFIG_REG &= (uint32) ( ~(uint32)CY_SYS_CLK_ILO_CONFIG_ENABLE);
 127:Generated_Source\PSoC4/CyLFClk.c ****                 CySysClkLfclkPosedgeRestore();
 128:Generated_Source\PSoC4/CyLFClk.c ****                 CyExitCriticalSection(interruptState);
 129:Generated_Source\PSoC4/CyLFClk.c **** 
 130:Generated_Source\PSoC4/CyLFClk.c ****             #if (CY_IP_WCO)
 131:Generated_Source\PSoC4/CyLFClk.c ****                 }
 132:Generated_Source\PSoC4/CyLFClk.c ****                 else /* Safe to disable - shortened pulse does not impact peripheral */
 133:Generated_Source\PSoC4/CyLFClk.c ****                 {
 134:Generated_Source\PSoC4/CyLFClk.c ****                     CY_SYS_CLK_ILO_CONFIG_REG &= (uint32) ( ~(uint32)CY_SYS_CLK_ILO_CONFIG_ENABLE);
 135:Generated_Source\PSoC4/CyLFClk.c ****                 }
 136:Generated_Source\PSoC4/CyLFClk.c ****             #endif /* (CY_IP_WCO) */
 137:Generated_Source\PSoC4/CyLFClk.c **** 
 138:Generated_Source\PSoC4/CyLFClk.c ****             }
 139:Generated_Source\PSoC4/CyLFClk.c ****         }
 140:Generated_Source\PSoC4/CyLFClk.c ****     #else
 141:Generated_Source\PSoC4/CyLFClk.c ****         CY_SYS_CLK_ILO_CONFIG_REG &= ( uint32 ) ( ~( uint32 )CY_SYS_CLK_ILO_CONFIG_ENABLE);
 142:Generated_Source\PSoC4/CyLFClk.c ****     #endif /* (CY_IP_SRSSV2) */
 143:Generated_Source\PSoC4/CyLFClk.c **** }
 144:Generated_Source\PSoC4/CyLFClk.c **** 
 145:Generated_Source\PSoC4/CyLFClk.c **** 
ARM GAS  C:\Users\VIDEOH~1\AppData\Local\Temp\cc9HpMPY.s 			page 4


 146:Generated_Source\PSoC4/CyLFClk.c **** /******************************************************************************
 147:Generated_Source\PSoC4/CyLFClk.c **** * Function Name: CySysClkIloStartMeasurement
 148:Generated_Source\PSoC4/CyLFClk.c **** ***************************************************************************//**
 149:Generated_Source\PSoC4/CyLFClk.c **** * \brief
 150:Generated_Source\PSoC4/CyLFClk.c **** * Starts the ILO accuracy measurement.
 151:Generated_Source\PSoC4/CyLFClk.c **** *
 152:Generated_Source\PSoC4/CyLFClk.c **** * This function is non-blocking and needs to be called before using the 
 153:Generated_Source\PSoC4/CyLFClk.c **** * CySysClkIloTrim() and CySysClkIloCompensate() API.
 154:Generated_Source\PSoC4/CyLFClk.c **** *
 155:Generated_Source\PSoC4/CyLFClk.c **** * This API configures measurement counters to be sourced by SysClk (Counter 1)
 156:Generated_Source\PSoC4/CyLFClk.c **** * and ILO (Counter 2). 
 157:Generated_Source\PSoC4/CyLFClk.c **** *
 158:Generated_Source\PSoC4/CyLFClk.c **** * \note SysClk should be sourced by IMO. Otherwise CySysClkIloTrim() and 
 159:Generated_Source\PSoC4/CyLFClk.c **** * CySysClkIloCompensate() API can give incorrect results.
 160:Generated_Source\PSoC4/CyLFClk.c **** *
 161:Generated_Source\PSoC4/CyLFClk.c **** * In addition, this API stores the factory ILO trim settings on the first call 
 162:Generated_Source\PSoC4/CyLFClk.c **** * after reset. This stored factory setting is used by the 
 163:Generated_Source\PSoC4/CyLFClk.c **** * CySysClkIloRestoreFactoryTrim() API to restore the ILO factory trim. 
 164:Generated_Source\PSoC4/CyLFClk.c **** * Hence, it is important to call this API before restoring the ILO 
 165:Generated_Source\PSoC4/CyLFClk.c **** * factory trim settings.
 166:Generated_Source\PSoC4/CyLFClk.c **** *
 167:Generated_Source\PSoC4/CyLFClk.c **** ******************************************************************************/
 168:Generated_Source\PSoC4/CyLFClk.c **** void CySysClkIloStartMeasurement(void)
 169:Generated_Source\PSoC4/CyLFClk.c **** {
 170:Generated_Source\PSoC4/CyLFClk.c **** #if(CY_IP_SRSSV2 && (!CY_IP_CPUSS))
 171:Generated_Source\PSoC4/CyLFClk.c ****     static uint8 iloTrimTrig = 0u;
 172:Generated_Source\PSoC4/CyLFClk.c **** 
 173:Generated_Source\PSoC4/CyLFClk.c ****     /* Write default ILO trim value while ILO starting ( Cypress ID 225244 )*/
 174:Generated_Source\PSoC4/CyLFClk.c ****     if (0u == iloTrimTrig)
 175:Generated_Source\PSoC4/CyLFClk.c ****     {
 176:Generated_Source\PSoC4/CyLFClk.c ****         defaultIloTrimRegValue = ((uint8)(CY_SYS_CLK_ILO_TRIM_REG & CY_SYS_CLK_ILO_TRIM_MASK));
 177:Generated_Source\PSoC4/CyLFClk.c ****         iloTrimTrig = 1u;
 178:Generated_Source\PSoC4/CyLFClk.c ****     }
 179:Generated_Source\PSoC4/CyLFClk.c **** #endif /* (CY_IP_SRSSV2 && (!CY_IP_CPUSS)) */
 180:Generated_Source\PSoC4/CyLFClk.c **** 
 181:Generated_Source\PSoC4/CyLFClk.c ****     /* Configure measurement counters to source by SysClk (Counter 1) and ILO (Counter 2)*/
 182:Generated_Source\PSoC4/CyLFClk.c ****     CY_SYS_CLK_DFT_REG = (CY_SYS_CLK_DFT_REG & (uint32) ~CY_SYS_CLK_DFT_SELECT_DEFAULT_MASK) |
 183:Generated_Source\PSoC4/CyLFClk.c ****                             CY_SYS_CLK_SEL_ILO_DFT_SOURCE; 
 184:Generated_Source\PSoC4/CyLFClk.c **** 
 185:Generated_Source\PSoC4/CyLFClk.c ****     CY_SYS_TST_DDFT_CTRL_REG = (CY_SYS_TST_DDFT_CTRL_REG & (uint32) ~ CY_SYS_TST_DDFT_CTRL_REG_DEFA
 186:Generated_Source\PSoC4/CyLFClk.c ****                             CY_SYS_TST_DDFT_CTRL_REG_SEL2_CLK1;
 187:Generated_Source\PSoC4/CyLFClk.c **** }
 188:Generated_Source\PSoC4/CyLFClk.c **** 
 189:Generated_Source\PSoC4/CyLFClk.c **** 
 190:Generated_Source\PSoC4/CyLFClk.c **** /******************************************************************************
 191:Generated_Source\PSoC4/CyLFClk.c **** * Function Name: CySysClkIloStopMeasurement
 192:Generated_Source\PSoC4/CyLFClk.c **** ***************************************************************************//**
 193:Generated_Source\PSoC4/CyLFClk.c **** * \brief
 194:Generated_Source\PSoC4/CyLFClk.c **** * Stops the ILO accuracy measurement.
 195:Generated_Source\PSoC4/CyLFClk.c **** *
 196:Generated_Source\PSoC4/CyLFClk.c **** * Calling this function immediately stops the the ILO frequency measurement.
 197:Generated_Source\PSoC4/CyLFClk.c **** * This function should be called before placing the device to deepsleep, if 
 198:Generated_Source\PSoC4/CyLFClk.c **** * CySysClkIloStartMeasurement() API was called before. 
 199:Generated_Source\PSoC4/CyLFClk.c **** *
 200:Generated_Source\PSoC4/CyLFClk.c **** ******************************************************************************/
 201:Generated_Source\PSoC4/CyLFClk.c **** void CySysClkIloStopMeasurement(void)
 202:Generated_Source\PSoC4/CyLFClk.c **** {
ARM GAS  C:\Users\VIDEOH~1\AppData\Local\Temp\cc9HpMPY.s 			page 5


 203:Generated_Source\PSoC4/CyLFClk.c ****     /* Set default configurations in 11...8 DFT register bits to zero */
 204:Generated_Source\PSoC4/CyLFClk.c ****     CY_SYS_CLK_DFT_REG &= ~CY_SYS_CLK_DFT_SELECT_DEFAULT_MASK;
 205:Generated_Source\PSoC4/CyLFClk.c ****     #if(CY_IP_SRSSLT)
 206:Generated_Source\PSoC4/CyLFClk.c ****         CY_SYS_TST_DDFT_CTRL_REG &= ((uint32) CY_SYS_TST_DDFT_CTRL_REG_DEFAULT_MASK);
 207:Generated_Source\PSoC4/CyLFClk.c ****     #endif /* (CY_IP_SRSSLT) */
 208:Generated_Source\PSoC4/CyLFClk.c **** }
 209:Generated_Source\PSoC4/CyLFClk.c **** 
 210:Generated_Source\PSoC4/CyLFClk.c **** 
 211:Generated_Source\PSoC4/CyLFClk.c **** /******************************************************************************
 212:Generated_Source\PSoC4/CyLFClk.c **** * Function Name: CySysClkIloCompensate
 213:Generated_Source\PSoC4/CyLFClk.c **** ***************************************************************************//**
 214:Generated_Source\PSoC4/CyLFClk.c **** * \brief
 215:Generated_Source\PSoC4/CyLFClk.c **** * This API measures the current ILO accuracy.
 216:Generated_Source\PSoC4/CyLFClk.c **** *
 217:Generated_Source\PSoC4/CyLFClk.c **** * Basing on the measured frequency the required number of ILO cycles for a 
 218:Generated_Source\PSoC4/CyLFClk.c **** * given delay (in microseconds) is obtained. The desired delay that needs to 
 219:Generated_Source\PSoC4/CyLFClk.c **** * be compensated is passed through the desiredDelay parameter. The compensated 
 220:Generated_Source\PSoC4/CyLFClk.c **** * cycle count is returned through the compesatedCycles pointer.
 221:Generated_Source\PSoC4/CyLFClk.c **** * The compensated ILO cycles can then be used to define the WDT period value, 
 222:Generated_Source\PSoC4/CyLFClk.c **** * effectively compensating for the ILO inaccuracy and allowing a more 
 223:Generated_Source\PSoC4/CyLFClk.c **** * accurate WDT interrupt generation.
 224:Generated_Source\PSoC4/CyLFClk.c **** *
 225:Generated_Source\PSoC4/CyLFClk.c **** * CySysClkIloStartMeasurement() API should be called prior to calling this API. 
 226:Generated_Source\PSoC4/CyLFClk.c **** *
 227:Generated_Source\PSoC4/CyLFClk.c **** * \note SysClk should be sourced by IMO. Otherwise CySysClkIloTrim() and 
 228:Generated_Source\PSoC4/CyLFClk.c **** * CySysClkIloCompensate() API can give incorrect results.
 229:Generated_Source\PSoC4/CyLFClk.c **** *
 230:Generated_Source\PSoC4/CyLFClk.c **** * \note If the System clock frequency is changed in runtime, the CyDelayFreq() 
 231:Generated_Source\PSoC4/CyLFClk.c **** * with the appropriate parameter (Frequency of bus clock in Hertz) should be 
 232:Generated_Source\PSoC4/CyLFClk.c **** * called before calling a next CySysClkIloCompensate().
 233:Generated_Source\PSoC4/CyLFClk.c **** *
 234:Generated_Source\PSoC4/CyLFClk.c **** * \warning Do not enter deep sleep mode until the function returns CYRET_SUCCESS.
 235:Generated_Source\PSoC4/CyLFClk.c **** *
 236:Generated_Source\PSoC4/CyLFClk.c **** * \param desiredDelay Required delay in microseconds.
 237:Generated_Source\PSoC4/CyLFClk.c **** *
 238:Generated_Source\PSoC4/CyLFClk.c **** * \param *compensatedCycles The pointer to the variable in which the required
 239:Generated_Source\PSoC4/CyLFClk.c **** * number of ILO cycles for the given delay will be returned.
 240:Generated_Source\PSoC4/CyLFClk.c **** *
 241:Generated_Source\PSoC4/CyLFClk.c **** * \details
 242:Generated_Source\PSoC4/CyLFClk.c **** * The value returned in *compensatedCycles pointer is not valid until the 
 243:Generated_Source\PSoC4/CyLFClk.c **** * function returns CYRET_SUCCESS.
 244:Generated_Source\PSoC4/CyLFClk.c **** *
 245:Generated_Source\PSoC4/CyLFClk.c **** * The desiredDelay parameter value should be in next range: <br>From 100 to 
 246:Generated_Source\PSoC4/CyLFClk.c **** * 2 000 000 microseconds for PSoC 4000 / PSoC 4000S / PSoC 4100S / PSoC Analog 
 247:Generated_Source\PSoC4/CyLFClk.c **** * Coprocessor devices.<br>From 100 to 4 000 000 000 microseconds for 
 248:Generated_Source\PSoC4/CyLFClk.c **** * PSoC 4100 / PSoC 4200 / PSoC 4100 BLE / PSoC 4200 BLE / PRoC BLE /
 249:Generated_Source\PSoC4/CyLFClk.c **** * PSoC 4200L / PSoC 4100M /PSoC 4200M devices.
 250:Generated_Source\PSoC4/CyLFClk.c **** *
 251:Generated_Source\PSoC4/CyLFClk.c **** * \return CYRET_SUCCESS - The compensation process is complete and the 
 252:Generated_Source\PSoC4/CyLFClk.c **** * compensated cycles value is returned in the compensatedCycles pointer.
 253:Generated_Source\PSoC4/CyLFClk.c **** *
 254:Generated_Source\PSoC4/CyLFClk.c **** * \return CYRET_STARTED - Indicates measurement is in progress. It is 
 255:Generated_Source\PSoC4/CyLFClk.c **** * strongly recommended to do not make pauses between API calling. The 
 256:Generated_Source\PSoC4/CyLFClk.c **** * function should be called repeatedly until the API returns CYRET_SUCCESS.
 257:Generated_Source\PSoC4/CyLFClk.c **** *
 258:Generated_Source\PSoC4/CyLFClk.c **** * \return CYRET_INVALID_STATE - Indicates that measurement not started. 
 259:Generated_Source\PSoC4/CyLFClk.c **** * The user should call CySysClkIloStartMeasurement() API before calling 
ARM GAS  C:\Users\VIDEOH~1\AppData\Local\Temp\cc9HpMPY.s 			page 6


 260:Generated_Source\PSoC4/CyLFClk.c **** * this API.
 261:Generated_Source\PSoC4/CyLFClk.c **** *
 262:Generated_Source\PSoC4/CyLFClk.c **** * \note For a correct WDT or DeepSleep Timers functioning with ILO compensating 
 263:Generated_Source\PSoC4/CyLFClk.c **** * the CySysClkIloCompensate() should be called before WDT or DeepSleep Timers 
 264:Generated_Source\PSoC4/CyLFClk.c **** * enabling.
 265:Generated_Source\PSoC4/CyLFClk.c **** *
 266:Generated_Source\PSoC4/CyLFClk.c **** *******************************************************************************/
 267:Generated_Source\PSoC4/CyLFClk.c **** cystatus CySysClkIloCompensate(uint32 desiredDelay , uint32* compensatedCycles)
 268:Generated_Source\PSoC4/CyLFClk.c **** {
 269:Generated_Source\PSoC4/CyLFClk.c ****     uint32 iloCompensatedCycles;
 270:Generated_Source\PSoC4/CyLFClk.c ****     uint32 desiredDelayInCounts;
 271:Generated_Source\PSoC4/CyLFClk.c ****     static uint32 compensateRunningStatus = CY_SYS_CLK_TRIM_OR_COMP_FINISHED;
 272:Generated_Source\PSoC4/CyLFClk.c ****     uint32 checkStatus;
 273:Generated_Source\PSoC4/CyLFClk.c ****     cystatus returnStatus;
 274:Generated_Source\PSoC4/CyLFClk.c **** 
 275:Generated_Source\PSoC4/CyLFClk.c ****     checkStatus = (uint32) (CY_SYS_CLK_DFT_REG & (uint32) CY_SYS_TST_DDFT_CTRL_REG_DEFAULT_MASK);
 276:Generated_Source\PSoC4/CyLFClk.c **** 
 277:Generated_Source\PSoC4/CyLFClk.c ****     /* Check if CySysStartMeasurement was called before */
 278:Generated_Source\PSoC4/CyLFClk.c ****     if((checkStatus == CY_SYS_CLK_SEL_ILO_DFT_SOURCE) && 
 279:Generated_Source\PSoC4/CyLFClk.c ****        (CY_SYS_TST_DDFT_CTRL_REG == CY_SYS_TST_DDFT_CTRL_REG_SEL2_CLK1) &&
 280:Generated_Source\PSoC4/CyLFClk.c ****        (CY_SYS_CLK_MAX_DELAY_US >= desiredDelay) &&
 281:Generated_Source\PSoC4/CyLFClk.c ****        (CY_SYS_CLK_MIN_DELAY_US <= desiredDelay) &&
 282:Generated_Source\PSoC4/CyLFClk.c ****        (compensatedCycles !=  NULL))
 283:Generated_Source\PSoC4/CyLFClk.c ****     {
 284:Generated_Source\PSoC4/CyLFClk.c ****         if(CY_SYS_CLK_TRIM_OR_COMP_FINISHED != compensateRunningStatus)
 285:Generated_Source\PSoC4/CyLFClk.c ****         {
 286:Generated_Source\PSoC4/CyLFClk.c ****             /* Wait until counter 1 stopped counting and after it calculate compensated cycles */
 287:Generated_Source\PSoC4/CyLFClk.c ****             if(0u != (CY_SYS_CNT_REG1_REG & CY_SYS_CLK_ILO_CALIBR_COMPLETE_MASK))
 288:Generated_Source\PSoC4/CyLFClk.c ****             {
 289:Generated_Source\PSoC4/CyLFClk.c ****                 if (0u != CY_SYS_CNT_REG2_REG)
 290:Generated_Source\PSoC4/CyLFClk.c ****                 {
 291:Generated_Source\PSoC4/CyLFClk.c ****                     /* Calculate required number of ILO cycles for given delay */
 292:Generated_Source\PSoC4/CyLFClk.c ****                     #if(CY_IP_SRSSV2)
 293:Generated_Source\PSoC4/CyLFClk.c ****                         if (CY_SYS_CLK_DELAY_COUNTS_LIMIT < desiredDelay)
 294:Generated_Source\PSoC4/CyLFClk.c ****                         {
 295:Generated_Source\PSoC4/CyLFClk.c ****                             desiredDelayInCounts = (desiredDelay / CY_SYS_CLK_ILO_PERIOD);
 296:Generated_Source\PSoC4/CyLFClk.c ****                             iloCompensatedCycles = 
 297:Generated_Source\PSoC4/CyLFClk.c ****                             (((CY_SYS_CNT_REG2_REG * cydelayFreqHz) / (cydelayFreqHz >> CY_SYS_CLK_
 298:Generated_Source\PSoC4/CyLFClk.c ****                                 CY_SYS_CLK_ILO_FREQ_2MSB) * (desiredDelayInCounts / CY_SYS_CLK_ILO_
 299:Generated_Source\PSoC4/CyLFClk.c ****                         }
 300:Generated_Source\PSoC4/CyLFClk.c ****                         else
 301:Generated_Source\PSoC4/CyLFClk.c ****                         {
 302:Generated_Source\PSoC4/CyLFClk.c ****                             desiredDelayInCounts = ((desiredDelay * CY_SYS_CLK_COEF_PHUNDRED) + 
 303:Generated_Source\PSoC4/CyLFClk.c ****                                                      CY_SYS_CLK_HALF_OF_CLOCK) / CY_SYS_CLK_ILO_PER
 304:Generated_Source\PSoC4/CyLFClk.c **** 
 305:Generated_Source\PSoC4/CyLFClk.c ****                             iloCompensatedCycles = (((CY_SYS_CNT_REG2_REG * cydelayFreqHz) / 
 306:Generated_Source\PSoC4/CyLFClk.c ****                                                      (cydelayFreqHz >> CY_SYS_CLK_SYS_CLK_DEVIDER))
 307:Generated_Source\PSoC4/CyLFClk.c ****                                                      desiredDelayInCounts) / CY_SYS_CLK_ILO_DESIRED
 308:Generated_Source\PSoC4/CyLFClk.c ****                         }
 309:Generated_Source\PSoC4/CyLFClk.c ****                     #else /* (CY_IP_SRSSLT) */
 310:Generated_Source\PSoC4/CyLFClk.c ****                         desiredDelayInCounts = ((desiredDelay * CY_SYS_CLK_COEF_PHUNDRED) + CY_SYS_
 311:Generated_Source\PSoC4/CyLFClk.c ****                                                                                            CY_SYS_C
 312:Generated_Source\PSoC4/CyLFClk.c ****                         if(CY_SYS_CLK_MAX_LITE_NUMBER < desiredDelayInCounts)
 313:Generated_Source\PSoC4/CyLFClk.c ****                         {
 314:Generated_Source\PSoC4/CyLFClk.c ****                             iloCompensatedCycles = (((CY_SYS_CNT_REG2_REG * cydelayFreqHz) / (cydel
 315:Generated_Source\PSoC4/CyLFClk.c ****                                                    CY_SYS_CLK_SYS_CLK_DEVIDER)) / CY_SYS_CLK_ILO_FR
 316:Generated_Source\PSoC4/CyLFClk.c ****                                                    (desiredDelayInCounts / CY_SYS_CLK_ILO_FREQ_3LSB
ARM GAS  C:\Users\VIDEOH~1\AppData\Local\Temp\cc9HpMPY.s 			page 7


 317:Generated_Source\PSoC4/CyLFClk.c ****                         }
 318:Generated_Source\PSoC4/CyLFClk.c ****                         else
 319:Generated_Source\PSoC4/CyLFClk.c ****                         {
 320:Generated_Source\PSoC4/CyLFClk.c ****                             iloCompensatedCycles = (((CY_SYS_CNT_REG2_REG * cydelayFreqHz) / 
 321:Generated_Source\PSoC4/CyLFClk.c ****                                                      (cydelayFreqHz >> CY_SYS_CLK_SYS_CLK_DEVIDER))
 322:Generated_Source\PSoC4/CyLFClk.c ****                                                      desiredDelayInCounts) / CY_SYS_CLK_ILO_DESIRED
 323:Generated_Source\PSoC4/CyLFClk.c ****                         }
 324:Generated_Source\PSoC4/CyLFClk.c ****                     #endif /* (CY_IP_SRSSV2) */
 325:Generated_Source\PSoC4/CyLFClk.c **** 
 326:Generated_Source\PSoC4/CyLFClk.c ****                     *compensatedCycles = iloCompensatedCycles;
 327:Generated_Source\PSoC4/CyLFClk.c ****                     compensateRunningStatus = CY_SYS_CLK_TRIM_OR_COMP_FINISHED;
 328:Generated_Source\PSoC4/CyLFClk.c ****                     returnStatus = CYRET_SUCCESS;
 329:Generated_Source\PSoC4/CyLFClk.c ****                 }
 330:Generated_Source\PSoC4/CyLFClk.c ****                 else
 331:Generated_Source\PSoC4/CyLFClk.c ****                 {
 332:Generated_Source\PSoC4/CyLFClk.c ****                     returnStatus  = CYRET_INVALID_STATE;
 333:Generated_Source\PSoC4/CyLFClk.c ****                 }
 334:Generated_Source\PSoC4/CyLFClk.c ****             }
 335:Generated_Source\PSoC4/CyLFClk.c ****             else
 336:Generated_Source\PSoC4/CyLFClk.c ****             {
 337:Generated_Source\PSoC4/CyLFClk.c ****                 returnStatus = CYRET_STARTED;
 338:Generated_Source\PSoC4/CyLFClk.c ****             }
 339:Generated_Source\PSoC4/CyLFClk.c ****         }
 340:Generated_Source\PSoC4/CyLFClk.c ****         else
 341:Generated_Source\PSoC4/CyLFClk.c ****         {
 342:Generated_Source\PSoC4/CyLFClk.c ****             /* Reload CNTR 1 count value for next measurement cycle*/
 343:Generated_Source\PSoC4/CyLFClk.c ****             CY_SYS_CNT_REG1_REG = (cydelayFreqHz >> CY_SYS_CLK_SYS_CLK_DEVIDER);
 344:Generated_Source\PSoC4/CyLFClk.c ****             compensateRunningStatus = CY_SYS_CLK_TRIM_OR_COMP_STARTED;
 345:Generated_Source\PSoC4/CyLFClk.c ****             returnStatus = CYRET_STARTED;
 346:Generated_Source\PSoC4/CyLFClk.c ****         }
 347:Generated_Source\PSoC4/CyLFClk.c ****     }
 348:Generated_Source\PSoC4/CyLFClk.c ****     else
 349:Generated_Source\PSoC4/CyLFClk.c ****     {
 350:Generated_Source\PSoC4/CyLFClk.c ****         returnStatus = CYRET_INVALID_STATE;
 351:Generated_Source\PSoC4/CyLFClk.c ****     }
 352:Generated_Source\PSoC4/CyLFClk.c **** 
 353:Generated_Source\PSoC4/CyLFClk.c ****     return (returnStatus);
 354:Generated_Source\PSoC4/CyLFClk.c **** }
 355:Generated_Source\PSoC4/CyLFClk.c **** 
 356:Generated_Source\PSoC4/CyLFClk.c **** 
 357:Generated_Source\PSoC4/CyLFClk.c **** #if(CY_IP_SRSSV2)
 358:Generated_Source\PSoC4/CyLFClk.c ****     /*******************************************************************************
 359:Generated_Source\PSoC4/CyLFClk.c ****     * Function Name: CySysClkIloEnabled
 360:Generated_Source\PSoC4/CyLFClk.c ****     ****************************************************************************//**
 361:Generated_Source\PSoC4/CyLFClk.c ****     *
 362:Generated_Source\PSoC4/CyLFClk.c ****     * \internal
 363:Generated_Source\PSoC4/CyLFClk.c ****     * Reports the ILO enable state.
 364:Generated_Source\PSoC4/CyLFClk.c ****     *
 365:Generated_Source\PSoC4/CyLFClk.c ****     * \return
 366:Generated_Source\PSoC4/CyLFClk.c ****     * 1 if ILO is enabled, and 0 if ILO is disabled.
 367:Generated_Source\PSoC4/CyLFClk.c ****     *
 368:Generated_Source\PSoC4/CyLFClk.c ****     * \endinternal
 369:Generated_Source\PSoC4/CyLFClk.c ****     ********************************************************************************/
 370:Generated_Source\PSoC4/CyLFClk.c ****     static uint32 CySysClkIloEnabled(void)
 371:Generated_Source\PSoC4/CyLFClk.c ****     {
  27              		.loc 1 371 0
  28              		.cfi_startproc
ARM GAS  C:\Users\VIDEOH~1\AppData\Local\Temp\cc9HpMPY.s 			page 8


  29              		@ args = 0, pretend = 0, frame = 0
  30              		@ frame_needed = 0, uses_anonymous_args = 0
  31              		@ link register save eliminated.
 372:Generated_Source\PSoC4/CyLFClk.c ****         /* Prohibits writing to WDT registers and ILO/WCO registers when not equal to 0 */
 373:Generated_Source\PSoC4/CyLFClk.c ****         return ((0u != (CY_SYS_CLK_ILO_CONFIG_REG & (uint32)(CY_SYS_CLK_ILO_CONFIG_ENABLE))) ?
  32              		.loc 1 373 0
  33 0000 034B     		ldr	r3, .L4
  34 0002 1B68     		ldr	r3, [r3]
 374:Generated_Source\PSoC4/CyLFClk.c ****             (uint32) 1u :
  35              		.loc 1 374 0
  36 0004 002B     		cmp	r3, #0
  37 0006 01DA     		bge	.L3
  38 0008 0120     		movs	r0, #1
  39 000a 00E0     		b	.L2
  40              	.L3:
  41 000c 0020     		movs	r0, #0
  42              	.L2:
 375:Generated_Source\PSoC4/CyLFClk.c ****             (uint32) 0u);
 376:Generated_Source\PSoC4/CyLFClk.c ****     }
  43              		.loc 1 376 0
  44              		@ sp needed
  45 000e 7047     		bx	lr
  46              	.L5:
  47              		.align	2
  48              	.L4:
  49 0010 04010B40 		.word	1074462980
  50              		.cfi_endproc
  51              	.LFE5:
  52              		.size	CySysClkIloEnabled, .-CySysClkIloEnabled
  53              		.section	.text.CySysWdtLocked,"ax",%progbits
  54              		.align	2
  55              		.code	16
  56              		.thumb_func
  57              		.type	CySysWdtLocked, %function
  58              	CySysWdtLocked:
  59              	.LFB7:
 377:Generated_Source\PSoC4/CyLFClk.c **** #endif /* (CY_IP_SRSSV2) */
 378:Generated_Source\PSoC4/CyLFClk.c **** 
 379:Generated_Source\PSoC4/CyLFClk.c **** 
 380:Generated_Source\PSoC4/CyLFClk.c **** #if(CY_IP_SRSSV2 && (!CY_IP_CPUSS))
 381:Generated_Source\PSoC4/CyLFClk.c **** /********************************************************************************
 382:Generated_Source\PSoC4/CyLFClk.c **** * Function Name: CySysClkIloTrim
 383:Generated_Source\PSoC4/CyLFClk.c **** *****************************************************************************//**
 384:Generated_Source\PSoC4/CyLFClk.c **** * \brief
 385:Generated_Source\PSoC4/CyLFClk.c **** * The API trims the ILO frequency to +/- 10% accuracy range using accurate 
 386:Generated_Source\PSoC4/CyLFClk.c **** * SysClk.
 387:Generated_Source\PSoC4/CyLFClk.c **** *
 388:Generated_Source\PSoC4/CyLFClk.c **** * The API can be blocking or non-blocking depending on the value of the mode 
 389:Generated_Source\PSoC4/CyLFClk.c **** * parameter passed. The accuracy of ILO after trimming in parts per thousand 
 390:Generated_Source\PSoC4/CyLFClk.c **** * is returned through the iloAccuracyInPPT pointer. A positive number indicates 
 391:Generated_Source\PSoC4/CyLFClk.c **** * that the ILO is running fast and a negative number indicates that the ILO is 
 392:Generated_Source\PSoC4/CyLFClk.c **** * running slowly. This error is relative to the error in the reference clock 
 393:Generated_Source\PSoC4/CyLFClk.c **** * (SysClk), so the absolute error will be higher and depends on the accuracy 
 394:Generated_Source\PSoC4/CyLFClk.c **** * of the reference.
 395:Generated_Source\PSoC4/CyLFClk.c **** *
 396:Generated_Source\PSoC4/CyLFClk.c **** * The CySysClkIloStartMeasurement() API should be called prior to calling this 
 397:Generated_Source\PSoC4/CyLFClk.c **** * API. Otherwise it will return CYRET_INVALID_STATE as the measurement was not 
ARM GAS  C:\Users\VIDEOH~1\AppData\Local\Temp\cc9HpMPY.s 			page 9


 398:Generated_Source\PSoC4/CyLFClk.c **** * started.
 399:Generated_Source\PSoC4/CyLFClk.c **** *
 400:Generated_Source\PSoC4/CyLFClk.c **** * \note SysClk should be sourced by IMO. Otherwise CySysClkIloTrim() and 
 401:Generated_Source\PSoC4/CyLFClk.c **** * CySysClkIloCompensate() API can give incorrect results.
 402:Generated_Source\PSoC4/CyLFClk.c **** *
 403:Generated_Source\PSoC4/CyLFClk.c **** * \note If System clock frequency is changed in runtime, the CyDelayFreq() 
 404:Generated_Source\PSoC4/CyLFClk.c **** * with the appropriate parameter (Frequency of bus clock in Hertz) should be 
 405:Generated_Source\PSoC4/CyLFClk.c **** * called before next CySysClkIloCompensate() usage.
 406:Generated_Source\PSoC4/CyLFClk.c **** *
 407:Generated_Source\PSoC4/CyLFClk.c **** * \warning Do not enter deep sleep mode until the function returns CYRET_SUCCESS
 408:Generated_Source\PSoC4/CyLFClk.c **** * or CYRET_TIMEOUT.
 409:Generated_Source\PSoC4/CyLFClk.c **** *
 410:Generated_Source\PSoC4/CyLFClk.c **** * Available for all PSoC 4 devices with ILO trim capability. This excludes 
 411:Generated_Source\PSoC4/CyLFClk.c **** * PSoC 4000 / PSoC 4100 / PSoC 4200 / PSoC 4000S / PSoC 4100S / PSoC
 412:Generated_Source\PSoC4/CyLFClk.c **** * Analog Coprocessor devices.
 413:Generated_Source\PSoC4/CyLFClk.c **** *
 414:Generated_Source\PSoC4/CyLFClk.c **** * \param mode
 415:Generated_Source\PSoC4/CyLFClk.c **** *  CY_SYS_CLK_BLOCKING -  The function does not return until the ILO is 
 416:Generated_Source\PSoC4/CyLFClk.c **** * within +/-10% accuracy range or time out has occurred.<br>
 417:Generated_Source\PSoC4/CyLFClk.c **** * CY_SYS_CLK_NON_BLOCKING - The function returns immediately after 
 418:Generated_Source\PSoC4/CyLFClk.c **** * performing a single iteration of the trim process. The function should be 
 419:Generated_Source\PSoC4/CyLFClk.c **** * called repeatedly until the trimming is completed successfully.
 420:Generated_Source\PSoC4/CyLFClk.c **** *
 421:Generated_Source\PSoC4/CyLFClk.c **** * \param *iloAccuracyInPPT Pointer to an integer in which the trimmed ILO 
 422:Generated_Source\PSoC4/CyLFClk.c **** * accuracy will be returned.
 423:Generated_Source\PSoC4/CyLFClk.c **** *
 424:Generated_Source\PSoC4/CyLFClk.c **** * \details The value returned in *iloAccuracyInPPT pointer is not valid 
 425:Generated_Source\PSoC4/CyLFClk.c **** * until the function returns CYRET_SUCCESS. ILO accuracy in PPT is given by:
 426:Generated_Source\PSoC4/CyLFClk.c **** *
 427:Generated_Source\PSoC4/CyLFClk.c **** * IloAccuracyInPPT = ((MeasuredIloFreq - DesiredIloFreq) * 
 428:Generated_Source\PSoC4/CyLFClk.c **** * CY_SYS_CLK_PERTHOUSAND) / DesiredIloFreq);
 429:Generated_Source\PSoC4/CyLFClk.c **** *
 430:Generated_Source\PSoC4/CyLFClk.c **** * DesiredIloFreq  = 32000, CY_SYS_CLK_PERTHOUSAND = 1000;
 431:Generated_Source\PSoC4/CyLFClk.c **** *
 432:Generated_Source\PSoC4/CyLFClk.c **** * \return CYRET_SUCCESS - Indicates trimming is complete. This value indicates 
 433:Generated_Source\PSoC4/CyLFClk.c **** * trimming is successful and iloAccuracyInPPT is within +/- 10%.
 434:Generated_Source\PSoC4/CyLFClk.c **** *
 435:Generated_Source\PSoC4/CyLFClk.c **** * \return CYRET_STARTED - Indicates measurement is in progress. This is applicable 
 436:Generated_Source\PSoC4/CyLFClk.c **** * only for non-blocking mode.
 437:Generated_Source\PSoC4/CyLFClk.c **** *
 438:Generated_Source\PSoC4/CyLFClk.c **** * \return CYRET_INVALID_STATE - Indicates trimming was unsuccessful. You should 
 439:Generated_Source\PSoC4/CyLFClk.c **** * call CySysClkIloStartMeasurement() before calling this API.
 440:Generated_Source\PSoC4/CyLFClk.c **** *
 441:Generated_Source\PSoC4/CyLFClk.c **** * \return CYRET_TIMEOUT - Indicates trimming was unsuccessful. This is applicable 
 442:Generated_Source\PSoC4/CyLFClk.c **** * only for blocking mode. Timeout means the trimming was tried 5 times without 
 443:Generated_Source\PSoC4/CyLFClk.c **** * success (i.e. ILO accuracy > +/- 10%). The user can call the API again for 
 444:Generated_Source\PSoC4/CyLFClk.c **** * another try or wait for some time before calling it again (to let the system 
 445:Generated_Source\PSoC4/CyLFClk.c **** * to settle to another operating point change in temperature etc.) and continue 
 446:Generated_Source\PSoC4/CyLFClk.c **** * using the previous trim value till the next call.
 447:Generated_Source\PSoC4/CyLFClk.c **** *
 448:Generated_Source\PSoC4/CyLFClk.c **** **********************************************************************************/
 449:Generated_Source\PSoC4/CyLFClk.c **** cystatus CySysClkIloTrim(uint32 mode, int32* iloAccuracyInPPT)
 450:Generated_Source\PSoC4/CyLFClk.c **** {
 451:Generated_Source\PSoC4/CyLFClk.c ****     uint32 timeOutClocks = CY_SYS_CLK_TIMEOUT;
 452:Generated_Source\PSoC4/CyLFClk.c ****     uint32 waitUntilCntr1Stops;
 453:Generated_Source\PSoC4/CyLFClk.c ****     static uint32 trimRunningStatus = CY_SYS_CLK_TRIM_OR_COMP_FINISHED;
 454:Generated_Source\PSoC4/CyLFClk.c ****     uint32 checkStatus;
ARM GAS  C:\Users\VIDEOH~1\AppData\Local\Temp\cc9HpMPY.s 			page 10


 455:Generated_Source\PSoC4/CyLFClk.c ****     cystatus returnStatus;
 456:Generated_Source\PSoC4/CyLFClk.c **** 
 457:Generated_Source\PSoC4/CyLFClk.c ****     checkStatus = (uint32) (CY_SYS_CLK_DFT_REG & (uint32) CY_SYS_TST_DDFT_CTRL_REG_DEFAULT_MASK);
 458:Generated_Source\PSoC4/CyLFClk.c **** 
 459:Generated_Source\PSoC4/CyLFClk.c ****     /* Check if DFT and CTRL registers were configures in CySysStartMeasurement*/
 460:Generated_Source\PSoC4/CyLFClk.c ****     if((checkStatus == CY_SYS_CLK_SEL_ILO_DFT_SOURCE) &&
 461:Generated_Source\PSoC4/CyLFClk.c ****        (CY_SYS_TST_DDFT_CTRL_REG == CY_SYS_TST_DDFT_CTRL_REG_SEL2_CLK1) &&
 462:Generated_Source\PSoC4/CyLFClk.c ****        (iloAccuracyInPPT != NULL))
 463:Generated_Source\PSoC4/CyLFClk.c ****     {
 464:Generated_Source\PSoC4/CyLFClk.c ****         if(CY_SYS_CLK_BLOCKING == mode)
 465:Generated_Source\PSoC4/CyLFClk.c ****         {
 466:Generated_Source\PSoC4/CyLFClk.c ****             waitUntilCntr1Stops = cydelayFreqHz >> CY_SYS_CLK_SYS_CLK_DEVIDER;
 467:Generated_Source\PSoC4/CyLFClk.c ****             do
 468:Generated_Source\PSoC4/CyLFClk.c ****             {
 469:Generated_Source\PSoC4/CyLFClk.c ****                 /* Reload CNTR 1 count value for measuring cycle*/
 470:Generated_Source\PSoC4/CyLFClk.c ****                 CY_SYS_CNT_REG1_REG = cydelayFreqHz >> CY_SYS_CLK_SYS_CLK_DEVIDER; 
 471:Generated_Source\PSoC4/CyLFClk.c **** 
 472:Generated_Source\PSoC4/CyLFClk.c ****                 /* Wait until counter CNTR 1 will finish down-counting */
 473:Generated_Source\PSoC4/CyLFClk.c ****                 while (0u == (CY_SYS_CNT_REG1_REG & CY_SYS_CLK_ILO_CALIBR_COMPLETE_MASK))
 474:Generated_Source\PSoC4/CyLFClk.c ****                 {
 475:Generated_Source\PSoC4/CyLFClk.c ****                     waitUntilCntr1Stops--;
 476:Generated_Source\PSoC4/CyLFClk.c ****                     if (0u == waitUntilCntr1Stops)
 477:Generated_Source\PSoC4/CyLFClk.c ****                     {
 478:Generated_Source\PSoC4/CyLFClk.c ****                         break;
 479:Generated_Source\PSoC4/CyLFClk.c ****                     }
 480:Generated_Source\PSoC4/CyLFClk.c ****                 }
 481:Generated_Source\PSoC4/CyLFClk.c ****                 trimRunningStatus = CySysClkIloUpdateTrimReg(iloAccuracyInPPT);
 482:Generated_Source\PSoC4/CyLFClk.c ****                 timeOutClocks--;
 483:Generated_Source\PSoC4/CyLFClk.c **** 
 484:Generated_Source\PSoC4/CyLFClk.c ****             /* Untill ILO accuracy will be in range less than +/- 10% or timeout occurs*/
 485:Generated_Source\PSoC4/CyLFClk.c ****             } while((CYRET_SUCCESS != trimRunningStatus) && 
 486:Generated_Source\PSoC4/CyLFClk.c ****               (CYRET_INVALID_STATE != trimRunningStatus) && 
 487:Generated_Source\PSoC4/CyLFClk.c ****                                (0u != timeOutClocks));
 488:Generated_Source\PSoC4/CyLFClk.c **** 
 489:Generated_Source\PSoC4/CyLFClk.c ****             if (CYRET_SUCCESS == trimRunningStatus)
 490:Generated_Source\PSoC4/CyLFClk.c ****             {
 491:Generated_Source\PSoC4/CyLFClk.c ****                 returnStatus = CYRET_SUCCESS;
 492:Generated_Source\PSoC4/CyLFClk.c ****             }
 493:Generated_Source\PSoC4/CyLFClk.c ****             else
 494:Generated_Source\PSoC4/CyLFClk.c ****             {
 495:Generated_Source\PSoC4/CyLFClk.c ****                 if(0u == timeOutClocks)
 496:Generated_Source\PSoC4/CyLFClk.c ****                 {
 497:Generated_Source\PSoC4/CyLFClk.c ****                     trimRunningStatus = CY_SYS_CLK_TRIM_OR_COMP_FINISHED;
 498:Generated_Source\PSoC4/CyLFClk.c ****                     returnStatus = CYRET_TIMEOUT;
 499:Generated_Source\PSoC4/CyLFClk.c ****                 }
 500:Generated_Source\PSoC4/CyLFClk.c ****                 else
 501:Generated_Source\PSoC4/CyLFClk.c ****                 {
 502:Generated_Source\PSoC4/CyLFClk.c ****                     returnStatus = CYRET_INVALID_STATE;
 503:Generated_Source\PSoC4/CyLFClk.c ****                 }
 504:Generated_Source\PSoC4/CyLFClk.c ****             }
 505:Generated_Source\PSoC4/CyLFClk.c ****         }
 506:Generated_Source\PSoC4/CyLFClk.c ****         /* Non - blocking mode */
 507:Generated_Source\PSoC4/CyLFClk.c ****         else
 508:Generated_Source\PSoC4/CyLFClk.c ****         {
 509:Generated_Source\PSoC4/CyLFClk.c ****             if (CY_SYS_CLK_TRIM_OR_COMP_FINISHED != trimRunningStatus)
 510:Generated_Source\PSoC4/CyLFClk.c ****             {
 511:Generated_Source\PSoC4/CyLFClk.c ****                 /* Checking if the counter CNTR 1 finished down-counting */
ARM GAS  C:\Users\VIDEOH~1\AppData\Local\Temp\cc9HpMPY.s 			page 11


 512:Generated_Source\PSoC4/CyLFClk.c ****                 if(0u != (CY_SYS_CNT_REG1_REG & CY_SYS_CLK_ILO_CALIBR_COMPLETE_MASK))
 513:Generated_Source\PSoC4/CyLFClk.c ****                 {
 514:Generated_Source\PSoC4/CyLFClk.c ****                     returnStatus = CySysClkIloUpdateTrimReg(iloAccuracyInPPT);
 515:Generated_Source\PSoC4/CyLFClk.c ****                     trimRunningStatus = CY_SYS_CLK_TRIM_OR_COMP_FINISHED;
 516:Generated_Source\PSoC4/CyLFClk.c ****                 }
 517:Generated_Source\PSoC4/CyLFClk.c ****                 else
 518:Generated_Source\PSoC4/CyLFClk.c ****                 {
 519:Generated_Source\PSoC4/CyLFClk.c ****                     returnStatus = CYRET_STARTED;
 520:Generated_Source\PSoC4/CyLFClk.c ****                 }
 521:Generated_Source\PSoC4/CyLFClk.c ****             }
 522:Generated_Source\PSoC4/CyLFClk.c ****             else
 523:Generated_Source\PSoC4/CyLFClk.c ****             {
 524:Generated_Source\PSoC4/CyLFClk.c ****                 /* Reload CNTR 1 count value for next measuring */
 525:Generated_Source\PSoC4/CyLFClk.c ****                 CY_SYS_CNT_REG1_REG = cydelayFreqHz >> CY_SYS_CLK_SYS_CLK_DEVIDER;
 526:Generated_Source\PSoC4/CyLFClk.c ****                 trimRunningStatus = CY_SYS_CLK_TRIM_OR_COMP_STARTED;
 527:Generated_Source\PSoC4/CyLFClk.c ****                 returnStatus = CYRET_STARTED;
 528:Generated_Source\PSoC4/CyLFClk.c ****             }
 529:Generated_Source\PSoC4/CyLFClk.c ****         }
 530:Generated_Source\PSoC4/CyLFClk.c ****     }
 531:Generated_Source\PSoC4/CyLFClk.c ****     else
 532:Generated_Source\PSoC4/CyLFClk.c ****     {
 533:Generated_Source\PSoC4/CyLFClk.c ****         returnStatus = CYRET_INVALID_STATE;
 534:Generated_Source\PSoC4/CyLFClk.c ****     }
 535:Generated_Source\PSoC4/CyLFClk.c **** 
 536:Generated_Source\PSoC4/CyLFClk.c ****     return (returnStatus);
 537:Generated_Source\PSoC4/CyLFClk.c **** }
 538:Generated_Source\PSoC4/CyLFClk.c **** 
 539:Generated_Source\PSoC4/CyLFClk.c **** 
 540:Generated_Source\PSoC4/CyLFClk.c **** /********************************************************************************
 541:Generated_Source\PSoC4/CyLFClk.c **** * Function Name: CySysClkIloUpdateTrimReg
 542:Generated_Source\PSoC4/CyLFClk.c **** *********************************************************************************
 543:Generated_Source\PSoC4/CyLFClk.c **** *
 544:Generated_Source\PSoC4/CyLFClk.c **** * \internal
 545:Generated_Source\PSoC4/CyLFClk.c **** * Function calculates ILO accuracy and check is error range is higher than 
 546:Generated_Source\PSoC4/CyLFClk.c **** * +/- 10%. If Measured frequency is higher than +/- 10% function updates 
 547:Generated_Source\PSoC4/CyLFClk.c **** * ILO Trim register.
 548:Generated_Source\PSoC4/CyLFClk.c **** *
 549:Generated_Source\PSoC4/CyLFClk.c **** * \param
 550:Generated_Source\PSoC4/CyLFClk.c **** * iloAccuracyInPPT Pointer to an integer in which the trimmed ILO 
 551:Generated_Source\PSoC4/CyLFClk.c **** * accuracy will be returned. The value returned in this pointer is not valid 
 552:Generated_Source\PSoC4/CyLFClk.c **** * until the function returns CYRET_SUCCESS. If ILO frequency error is lower 
 553:Generated_Source\PSoC4/CyLFClk.c **** * than +/- 10% then the value returned in this pointer will be updated.
 554:Generated_Source\PSoC4/CyLFClk.c **** *
 555:Generated_Source\PSoC4/CyLFClk.c **** * \return CYRET_SUCCESS - Indicates that ILO frequency error is lower than 
 556:Generated_Source\PSoC4/CyLFClk.c **** * +/- 10% and no actions are required.
 557:Generated_Source\PSoC4/CyLFClk.c **** *
 558:Generated_Source\PSoC4/CyLFClk.c **** * \return  CYRET_STARTED - Indicates that ILO frequency error is higher than 
 559:Generated_Source\PSoC4/CyLFClk.c **** * +/- 10% and ILO Trim register was updated.
 560:Generated_Source\PSoC4/CyLFClk.c **** *
 561:Generated_Source\PSoC4/CyLFClk.c **** * \return CYRET_INVALID_STATE - Indicates trimming was unsuccessful.
 562:Generated_Source\PSoC4/CyLFClk.c **** *
 563:Generated_Source\PSoC4/CyLFClk.c **** * Post #1 - To obtain 10% ILO accuracy the calculated accuracy should be equal 
 564:Generated_Source\PSoC4/CyLFClk.c **** * CY_SYS_CLK_ERROR_RANGE = 5.6%. Error value should take to account IMO error of 
 565:Generated_Source\PSoC4/CyLFClk.c **** * +/-2% (+/-0.64kHz), trim step of 2.36kHz (+/-1.18kHz) and error while ILO 
 566:Generated_Source\PSoC4/CyLFClk.c **** * frequency measuring.
 567:Generated_Source\PSoC4/CyLFClk.c **** *
 568:Generated_Source\PSoC4/CyLFClk.c **** * \endinternal
ARM GAS  C:\Users\VIDEOH~1\AppData\Local\Temp\cc9HpMPY.s 			page 12


 569:Generated_Source\PSoC4/CyLFClk.c **** *
 570:Generated_Source\PSoC4/CyLFClk.c **** **********************************************************************************/
 571:Generated_Source\PSoC4/CyLFClk.c **** cystatus CySysClkIloUpdateTrimReg(int32* iloAccuracyInPPT)
 572:Generated_Source\PSoC4/CyLFClk.c **** {
 573:Generated_Source\PSoC4/CyLFClk.c ****     uint32 measuredIloFreq;
 574:Generated_Source\PSoC4/CyLFClk.c ****     uint32 currentIloTrimValue;
 575:Generated_Source\PSoC4/CyLFClk.c ****     int32 iloAccuracyValue;
 576:Generated_Source\PSoC4/CyLFClk.c ****     int32 trimStep;
 577:Generated_Source\PSoC4/CyLFClk.c ****     cystatus errorRangeStatus;
 578:Generated_Source\PSoC4/CyLFClk.c **** 
 579:Generated_Source\PSoC4/CyLFClk.c ****     if(0u != CY_SYS_CNT_REG2_REG)
 580:Generated_Source\PSoC4/CyLFClk.c ****     {
 581:Generated_Source\PSoC4/CyLFClk.c ****         measuredIloFreq = (CY_SYS_CNT_REG2_REG * cydelayFreqHz) / (cydelayFreqHz >> CY_SYS_CLK_SYS_
 582:Generated_Source\PSoC4/CyLFClk.c **** 
 583:Generated_Source\PSoC4/CyLFClk.c ****         /* Calculate value of error in PPT according to formula - 
 584:Generated_Source\PSoC4/CyLFClk.c ****         *       ((measuredIlofrequency - iloDesired frequency) * 1000 / iloDesired frequency) */
 585:Generated_Source\PSoC4/CyLFClk.c ****         iloAccuracyValue = (((int32) measuredIloFreq - (int32) CY_SYS_CLK_ILO_DESIRED_FREQ_HZ) * \
 586:Generated_Source\PSoC4/CyLFClk.c ****                             ((int32) CY_SYS_CLK_PERTHOUSAND)) / ((int32) CY_SYS_CLK_ILO_DESIRED_FRE
 587:Generated_Source\PSoC4/CyLFClk.c **** 
 588:Generated_Source\PSoC4/CyLFClk.c ****         /* Check if ILO accuracy is more than +/- CY_SYS_CLK_ERROR_RANGE. See post #1 of API descri
 589:Generated_Source\PSoC4/CyLFClk.c ****         if(CY_SYS_CLK_ERROR_RANGE < (uint32) (CY_SYS_CLK_ABS_MACRO(iloAccuracyValue)))
 590:Generated_Source\PSoC4/CyLFClk.c ****         {
 591:Generated_Source\PSoC4/CyLFClk.c ****             if (0 < iloAccuracyValue)
 592:Generated_Source\PSoC4/CyLFClk.c ****             {
 593:Generated_Source\PSoC4/CyLFClk.c ****                 trimStep = (int32) (((iloAccuracyValue * (int32) CY_SYS_CLK_ERROR_COEF) + 
 594:Generated_Source\PSoC4/CyLFClk.c ****                 CY_SYS_CLK_HALF_OF_STEP) / CY_SYS_CLK_ERROR_STEP);
 595:Generated_Source\PSoC4/CyLFClk.c ****             }
 596:Generated_Source\PSoC4/CyLFClk.c ****             else
 597:Generated_Source\PSoC4/CyLFClk.c ****             {
 598:Generated_Source\PSoC4/CyLFClk.c ****                 trimStep = (int32) (((iloAccuracyValue * (int32) CY_SYS_CLK_ERROR_COEF) - 
 599:Generated_Source\PSoC4/CyLFClk.c ****                 CY_SYS_CLK_HALF_OF_STEP) / CY_SYS_CLK_ERROR_STEP);
 600:Generated_Source\PSoC4/CyLFClk.c ****             }
 601:Generated_Source\PSoC4/CyLFClk.c ****             currentIloTrimValue = (CY_SYS_CLK_ILO_TRIM_REG & CY_SYS_CLK_ILO_TRIM_MASK);
 602:Generated_Source\PSoC4/CyLFClk.c ****             trimStep = (int32) currentIloTrimValue - trimStep;
 603:Generated_Source\PSoC4/CyLFClk.c **** 
 604:Generated_Source\PSoC4/CyLFClk.c ****             if(trimStep > CY_SYS_CLK_FOURBITS_MAX)
 605:Generated_Source\PSoC4/CyLFClk.c ****             {
 606:Generated_Source\PSoC4/CyLFClk.c ****                 trimStep = CY_SYS_CLK_FOURBITS_MAX;
 607:Generated_Source\PSoC4/CyLFClk.c ****             }
 608:Generated_Source\PSoC4/CyLFClk.c ****             if(trimStep < 0)
 609:Generated_Source\PSoC4/CyLFClk.c ****             {
 610:Generated_Source\PSoC4/CyLFClk.c ****                 trimStep = 0;
 611:Generated_Source\PSoC4/CyLFClk.c ****             }
 612:Generated_Source\PSoC4/CyLFClk.c ****             CY_SYS_CLK_ILO_TRIM_REG = (CY_SYS_CLK_ILO_TRIM_REG & (uint32)(~CY_SYS_CLK_ILO_TRIM_MASK
 613:Generated_Source\PSoC4/CyLFClk.c ****                                                                  ((uint32) trimStep);
 614:Generated_Source\PSoC4/CyLFClk.c ****             errorRangeStatus = CYRET_STARTED;
 615:Generated_Source\PSoC4/CyLFClk.c ****         } /* Else return success because error is in +/- 10% range*/
 616:Generated_Source\PSoC4/CyLFClk.c ****         else
 617:Generated_Source\PSoC4/CyLFClk.c ****         {
 618:Generated_Source\PSoC4/CyLFClk.c ****             /* Write trimmed ILO accuracy through pointer. */
 619:Generated_Source\PSoC4/CyLFClk.c ****             *iloAccuracyInPPT = iloAccuracyValue;
 620:Generated_Source\PSoC4/CyLFClk.c ****             errorRangeStatus = CYRET_SUCCESS;
 621:Generated_Source\PSoC4/CyLFClk.c ****         }
 622:Generated_Source\PSoC4/CyLFClk.c ****     }
 623:Generated_Source\PSoC4/CyLFClk.c ****     else
 624:Generated_Source\PSoC4/CyLFClk.c ****     {
 625:Generated_Source\PSoC4/CyLFClk.c ****         errorRangeStatus = CYRET_INVALID_STATE;
ARM GAS  C:\Users\VIDEOH~1\AppData\Local\Temp\cc9HpMPY.s 			page 13


 626:Generated_Source\PSoC4/CyLFClk.c ****     }
 627:Generated_Source\PSoC4/CyLFClk.c **** return (errorRangeStatus);
 628:Generated_Source\PSoC4/CyLFClk.c **** }
 629:Generated_Source\PSoC4/CyLFClk.c **** 
 630:Generated_Source\PSoC4/CyLFClk.c **** 
 631:Generated_Source\PSoC4/CyLFClk.c **** /*******************************************************************************
 632:Generated_Source\PSoC4/CyLFClk.c **** * Function Name: CySysClkIloRestoreFactoryTrim
 633:Generated_Source\PSoC4/CyLFClk.c **** ****************************************************************************//**
 634:Generated_Source\PSoC4/CyLFClk.c **** * \brief
 635:Generated_Source\PSoC4/CyLFClk.c **** * Restores the ILO Trim Register to factory value.
 636:Generated_Source\PSoC4/CyLFClk.c **** *
 637:Generated_Source\PSoC4/CyLFClk.c **** * The CySysClkIloStartMeasurement() API should be called prior to 
 638:Generated_Source\PSoC4/CyLFClk.c **** * calling this API. Otherwise CYRET_UNKNOWN will be returned.
 639:Generated_Source\PSoC4/CyLFClk.c **** *
 640:Generated_Source\PSoC4/CyLFClk.c **** * Available for all PSoC 4 devices except for PSoC 4000 / PSoC 4100 / PSoC 4200 
 641:Generated_Source\PSoC4/CyLFClk.c **** * / PSoC 4000S / PSoC 4100S / PSoC Analog Coprocessor devices.
 642:Generated_Source\PSoC4/CyLFClk.c **** *
 643:Generated_Source\PSoC4/CyLFClk.c **** * \return CYRET_SUCCESS - Operation was successful. 
 644:Generated_Source\PSoC4/CyLFClk.c **** * \return CYRET_UNKNOWN - CySysClkIloStartMeasurement() was not called 
 645:Generated_Source\PSoC4/CyLFClk.c **** * before this API. Hence the trim value cannot be updated.
 646:Generated_Source\PSoC4/CyLFClk.c **** *
 647:Generated_Source\PSoC4/CyLFClk.c **** ******************************************************************************/
 648:Generated_Source\PSoC4/CyLFClk.c **** cystatus CySysClkIloRestoreFactoryTrim(void)
 649:Generated_Source\PSoC4/CyLFClk.c **** {
 650:Generated_Source\PSoC4/CyLFClk.c ****     cystatus returnStatus = CYRET_SUCCESS;
 651:Generated_Source\PSoC4/CyLFClk.c **** 
 652:Generated_Source\PSoC4/CyLFClk.c ****     /* Check was defaultIloTrimRegValue modified in CySysClkIloStartMeasurement */
 653:Generated_Source\PSoC4/CyLFClk.c ****     if(CY_SYS_CLK_ILO_TRIM_DEFAULT_VALUE != defaultIloTrimRegValue)
 654:Generated_Source\PSoC4/CyLFClk.c ****         {
 655:Generated_Source\PSoC4/CyLFClk.c ****             CY_SYS_CLK_ILO_TRIM_REG = ((CY_SYS_CLK_ILO_TRIM_REG & (uint32)(~CY_SYS_CLK_ILO_TRIM_MAS
 656:Generated_Source\PSoC4/CyLFClk.c ****                                        (defaultIloTrimRegValue & CY_SYS_CLK_ILO_TRIM_MASK));
 657:Generated_Source\PSoC4/CyLFClk.c ****         }
 658:Generated_Source\PSoC4/CyLFClk.c ****         else
 659:Generated_Source\PSoC4/CyLFClk.c ****         {
 660:Generated_Source\PSoC4/CyLFClk.c ****             returnStatus = CYRET_UNKNOWN;
 661:Generated_Source\PSoC4/CyLFClk.c ****         }
 662:Generated_Source\PSoC4/CyLFClk.c **** 
 663:Generated_Source\PSoC4/CyLFClk.c ****         return (returnStatus);
 664:Generated_Source\PSoC4/CyLFClk.c **** }
 665:Generated_Source\PSoC4/CyLFClk.c **** #endif /* (CY_IP_SRSSV2 && (!CY_IP_CPUSS)) */
 666:Generated_Source\PSoC4/CyLFClk.c **** 
 667:Generated_Source\PSoC4/CyLFClk.c **** 
 668:Generated_Source\PSoC4/CyLFClk.c **** #if (CY_IP_WCO && CY_IP_SRSSV2)
 669:Generated_Source\PSoC4/CyLFClk.c ****     /*******************************************************************************
 670:Generated_Source\PSoC4/CyLFClk.c ****     * Function Name: CySysClkGetLfclkSource
 671:Generated_Source\PSoC4/CyLFClk.c ****     ********************************************************************************
 672:Generated_Source\PSoC4/CyLFClk.c ****     *
 673:Generated_Source\PSoC4/CyLFClk.c ****     * \internal
 674:Generated_Source\PSoC4/CyLFClk.c ****     *  Gets the clock source for the LFCLK clock.
 675:Generated_Source\PSoC4/CyLFClk.c ****     *  The function is applicable only for PSoC 4100 BLE / PSoC 4200 BLE / 
 676:Generated_Source\PSoC4/CyLFClk.c ****     *  PSoC 4100M / PSoC 4200M / PSoC 4200L.
 677:Generated_Source\PSoC4/CyLFClk.c ****     *
 678:Generated_Source\PSoC4/CyLFClk.c ****     * \return The LFCLK source:
 679:Generated_Source\PSoC4/CyLFClk.c ****     * CY_SYS_CLK_LFCLK_SRC_ILO Internal Low Frequency (32 kHz) Oscillator (ILO)
 680:Generated_Source\PSoC4/CyLFClk.c ****     * CY_SYS_CLK_LFCLK_SRC_WCO Low Frequency Watch Crystal Oscillator (WCO)
 681:Generated_Source\PSoC4/CyLFClk.c ****     *
 682:Generated_Source\PSoC4/CyLFClk.c ****     * \endinternal
ARM GAS  C:\Users\VIDEOH~1\AppData\Local\Temp\cc9HpMPY.s 			page 14


 683:Generated_Source\PSoC4/CyLFClk.c ****     *
 684:Generated_Source\PSoC4/CyLFClk.c ****     *******************************************************************************/
 685:Generated_Source\PSoC4/CyLFClk.c ****     static uint32 CySysClkGetLfclkSource(void)
 686:Generated_Source\PSoC4/CyLFClk.c ****     {
 687:Generated_Source\PSoC4/CyLFClk.c ****         uint32 lfclkSource;
 688:Generated_Source\PSoC4/CyLFClk.c ****         lfclkSource = CY_SYS_WDT_CONFIG_REG & CY_SYS_CLK_LFCLK_SEL_MASK;
 689:Generated_Source\PSoC4/CyLFClk.c ****         return (lfclkSource);
 690:Generated_Source\PSoC4/CyLFClk.c ****     }
 691:Generated_Source\PSoC4/CyLFClk.c **** 
 692:Generated_Source\PSoC4/CyLFClk.c **** 
 693:Generated_Source\PSoC4/CyLFClk.c ****     /*******************************************************************************
 694:Generated_Source\PSoC4/CyLFClk.c ****     * Function Name: CySysClkSetLfclkSource
 695:Generated_Source\PSoC4/CyLFClk.c ****     ****************************************************************************//**
 696:Generated_Source\PSoC4/CyLFClk.c ****     * \brief
 697:Generated_Source\PSoC4/CyLFClk.c ****     *  Sets the clock source for the LFCLK clock.
 698:Generated_Source\PSoC4/CyLFClk.c ****     *
 699:Generated_Source\PSoC4/CyLFClk.c ****     * The switch between LFCLK sources must be done between the positive edges of
 700:Generated_Source\PSoC4/CyLFClk.c ****     * LFCLK, because the glitch risk is around the LFCLK positive edge. To ensure
 701:Generated_Source\PSoC4/CyLFClk.c ****     * that the switch can be done safely, the WDT counter value is read until it
 702:Generated_Source\PSoC4/CyLFClk.c ****     * changes.
 703:Generated_Source\PSoC4/CyLFClk.c ****     *
 704:Generated_Source\PSoC4/CyLFClk.c ****     * That means that the positive edge just finished and the switch is performed.
 705:Generated_Source\PSoC4/CyLFClk.c ****     * The enabled WDT counter is used for that purpose. If no counters are enabled,
 706:Generated_Source\PSoC4/CyLFClk.c ****     * counter 0 is enabled. And after the LFCLK source is switched, counter 0
 707:Generated_Source\PSoC4/CyLFClk.c ****     * configuration is restored.
 708:Generated_Source\PSoC4/CyLFClk.c ****     *
 709:Generated_Source\PSoC4/CyLFClk.c ****     *  The function is applicable only for devices with more than one source for 
 710:Generated_Source\PSoC4/CyLFClk.c ****     * LFCLK - PSoC 4100 BLE / PSoC 4200 BLE / PRoC BLE / PSoC 4100M / PSoC 4200M / 
 711:Generated_Source\PSoC4/CyLFClk.c ****     * PSoC 4200L.
 712:Generated_Source\PSoC4/CyLFClk.c ****     *
 713:Generated_Source\PSoC4/CyLFClk.c ****     * \note For PSoC 4000S / PSoC 4100S / PSoC Analog Coprocessor devices LFCLK can
 714:Generated_Source\PSoC4/CyLFClk.c ****     * only be sourced from ILO even though WCO is available.
 715:Generated_Source\PSoC4/CyLFClk.c ****     *
 716:Generated_Source\PSoC4/CyLFClk.c ****     * \param
 717:Generated_Source\PSoC4/CyLFClk.c ****     * source
 718:Generated_Source\PSoC4/CyLFClk.c ****     * CY_SYS_CLK_LFCLK_SRC_ILO - Internal Low Frequency (32 kHz) 
 719:Generated_Source\PSoC4/CyLFClk.c ****     * Oscillator (ILO).<br>
 720:Generated_Source\PSoC4/CyLFClk.c ****     * CY_SYS_CLK_LFCLK_SRC_WCO - Low Frequency Watch Crystal Oscillator (WCO).
 721:Generated_Source\PSoC4/CyLFClk.c ****     *
 722:Generated_Source\PSoC4/CyLFClk.c ****     * \details
 723:Generated_Source\PSoC4/CyLFClk.c ****     * This function has no effect if WDT is locked (CySysWdtLock() is called). 
 724:Generated_Source\PSoC4/CyLFClk.c ****     * Call CySysWdtUnlock() to unlock WDT.
 725:Generated_Source\PSoC4/CyLFClk.c ****     *
 726:Generated_Source\PSoC4/CyLFClk.c ****     * Both the current source and the new source must be running and stable before
 727:Generated_Source\PSoC4/CyLFClk.c ****     * calling this function.
 728:Generated_Source\PSoC4/CyLFClk.c ****     *
 729:Generated_Source\PSoC4/CyLFClk.c ****     * Changing the LFCLK clock source may change the LFCLK clock frequency and
 730:Generated_Source\PSoC4/CyLFClk.c ****     * affect the functionality that uses this clock. For example, watchdog timer
 731:Generated_Source\PSoC4/CyLFClk.c ****     * "uses this clock" or "this clock uses" (WDT) is clocked by LFCLK.
 732:Generated_Source\PSoC4/CyLFClk.c ****     *
 733:Generated_Source\PSoC4/CyLFClk.c ****     *******************************************************************************/
 734:Generated_Source\PSoC4/CyLFClk.c ****     void CySysClkSetLfclkSource(uint32 source)
 735:Generated_Source\PSoC4/CyLFClk.c ****     {
 736:Generated_Source\PSoC4/CyLFClk.c ****         uint8  interruptState;
 737:Generated_Source\PSoC4/CyLFClk.c **** 
 738:Generated_Source\PSoC4/CyLFClk.c ****         if (CySysClkGetLfclkSource() != source)
 739:Generated_Source\PSoC4/CyLFClk.c ****         {
ARM GAS  C:\Users\VIDEOH~1\AppData\Local\Temp\cc9HpMPY.s 			page 15


 740:Generated_Source\PSoC4/CyLFClk.c ****             interruptState = CyEnterCriticalSection();
 741:Generated_Source\PSoC4/CyLFClk.c ****             CySysClkLfclkPosedgeCatch();
 742:Generated_Source\PSoC4/CyLFClk.c ****             CY_SYS_WDT_CONFIG_REG = (CY_SYS_WDT_CONFIG_REG & (uint32)(~CY_SYS_CLK_LFCLK_SEL_MASK)) 
 743:Generated_Source\PSoC4/CyLFClk.c ****                                     (source & CY_SYS_CLK_LFCLK_SEL_MASK);
 744:Generated_Source\PSoC4/CyLFClk.c ****             CySysClkLfclkPosedgeRestore();
 745:Generated_Source\PSoC4/CyLFClk.c ****             CyExitCriticalSection(interruptState);
 746:Generated_Source\PSoC4/CyLFClk.c ****         }
 747:Generated_Source\PSoC4/CyLFClk.c ****     }
 748:Generated_Source\PSoC4/CyLFClk.c **** #endif /* (CY_IP_WCO && CY_IP_SRSSV2) */
 749:Generated_Source\PSoC4/CyLFClk.c **** 
 750:Generated_Source\PSoC4/CyLFClk.c **** 
 751:Generated_Source\PSoC4/CyLFClk.c **** #if (CY_IP_WCO)
 752:Generated_Source\PSoC4/CyLFClk.c ****     /*******************************************************************************
 753:Generated_Source\PSoC4/CyLFClk.c ****     * Function Name: CySysClkWcoStart
 754:Generated_Source\PSoC4/CyLFClk.c ****     ****************************************************************************//**
 755:Generated_Source\PSoC4/CyLFClk.c ****     * \brief
 756:Generated_Source\PSoC4/CyLFClk.c ****     *  Enables Watch Crystal Oscillator (WCO).
 757:Generated_Source\PSoC4/CyLFClk.c ****     * 
 758:Generated_Source\PSoC4/CyLFClk.c ****     * This API enables WCO which is used as a source for LFCLK. Similar to ILO, 
 759:Generated_Source\PSoC4/CyLFClk.c ****     * WCO is also available in all modes except Hibernate and Stop modes.
 760:Generated_Source\PSoC4/CyLFClk.c ****     * \note In PSoC 4000S / PSoC 4100S / PSoC Analog Coprocessor devices
 761:Generated_Source\PSoC4/CyLFClk.c ****     * WCO cannot be a source for the LFCLK. 
 762:Generated_Source\PSoC4/CyLFClk.c ****     *
 763:Generated_Source\PSoC4/CyLFClk.c ****     *  WCO is always enabled in High Power Mode (HPM). Refer to the device
 764:Generated_Source\PSoC4/CyLFClk.c ****     *  datasheet for the  WCO startup time. Once WCO becomes stable it can be
 765:Generated_Source\PSoC4/CyLFClk.c ****     *  switched to Low Power Mode (LPM). Note that oscillator can be unstable
 766:Generated_Source\PSoC4/CyLFClk.c ****     *  during a switch and hence its output should not be used at that moment.
 767:Generated_Source\PSoC4/CyLFClk.c ****     *
 768:Generated_Source\PSoC4/CyLFClk.c ****     *  The CySysClkWcoSetPowerMode() function configures the WCO power mode.
 769:Generated_Source\PSoC4/CyLFClk.c ****     *
 770:Generated_Source\PSoC4/CyLFClk.c ****     *******************************************************************************/
 771:Generated_Source\PSoC4/CyLFClk.c ****     void CySysClkWcoStart(void)
 772:Generated_Source\PSoC4/CyLFClk.c ****     {
 773:Generated_Source\PSoC4/CyLFClk.c ****         CySysClkWcoSetHighPowerMode();
 774:Generated_Source\PSoC4/CyLFClk.c ****         CY_SYS_CLK_WCO_CONFIG_REG |= CY_SYS_CLK_WCO_CONFIG_LPM_ENABLE;
 775:Generated_Source\PSoC4/CyLFClk.c ****     }
 776:Generated_Source\PSoC4/CyLFClk.c **** 
 777:Generated_Source\PSoC4/CyLFClk.c **** 
 778:Generated_Source\PSoC4/CyLFClk.c ****     /*******************************************************************************
 779:Generated_Source\PSoC4/CyLFClk.c ****     * Function Name: CySysClkWcoStop
 780:Generated_Source\PSoC4/CyLFClk.c ****     ****************************************************************************//**
 781:Generated_Source\PSoC4/CyLFClk.c ****     * \brief
 782:Generated_Source\PSoC4/CyLFClk.c ****     * Disables the 32 KHz Crystal Oscillator.
 783:Generated_Source\PSoC4/CyLFClk.c ****     *
 784:Generated_Source\PSoC4/CyLFClk.c ****     * API switch of WCO.
 785:Generated_Source\PSoC4/CyLFClk.c ****     * \note PSoC 4100S / PSoC Analog Coprocessor: WCO is required for DeepSleep 
 786:Generated_Source\PSoC4/CyLFClk.c ****     * Timer's operation.
 787:Generated_Source\PSoC4/CyLFClk.c ****     *
 788:Generated_Source\PSoC4/CyLFClk.c ****     *******************************************************************************/
 789:Generated_Source\PSoC4/CyLFClk.c ****     void  CySysClkWcoStop(void)
 790:Generated_Source\PSoC4/CyLFClk.c ****     {
 791:Generated_Source\PSoC4/CyLFClk.c ****         #if (CY_IP_SRSSV2)
 792:Generated_Source\PSoC4/CyLFClk.c ****             uint8  interruptState;
 793:Generated_Source\PSoC4/CyLFClk.c ****         #endif /* (CY_IP_SRSSV2) */
 794:Generated_Source\PSoC4/CyLFClk.c **** 
 795:Generated_Source\PSoC4/CyLFClk.c ****         if (0u != CySysClkWcoEnabled())
 796:Generated_Source\PSoC4/CyLFClk.c ****         {
ARM GAS  C:\Users\VIDEOH~1\AppData\Local\Temp\cc9HpMPY.s 			page 16


 797:Generated_Source\PSoC4/CyLFClk.c ****             #if (CY_IP_SRSSV2)
 798:Generated_Source\PSoC4/CyLFClk.c ****                 if (CY_SYS_CLK_LFCLK_SRC_WCO == CySysClkGetLfclkSource())
 799:Generated_Source\PSoC4/CyLFClk.c ****                 {
 800:Generated_Source\PSoC4/CyLFClk.c ****                     interruptState = CyEnterCriticalSection();
 801:Generated_Source\PSoC4/CyLFClk.c ****                     CySysClkLfclkPosedgeCatch();
 802:Generated_Source\PSoC4/CyLFClk.c ****                     CY_SYS_CLK_WCO_CONFIG_REG &= (uint32) ~CY_SYS_CLK_WCO_CONFIG_LPM_ENABLE;
 803:Generated_Source\PSoC4/CyLFClk.c ****                     CySysClkLfclkPosedgeRestore();
 804:Generated_Source\PSoC4/CyLFClk.c ****                     CyExitCriticalSection(interruptState);
 805:Generated_Source\PSoC4/CyLFClk.c ****                 }
 806:Generated_Source\PSoC4/CyLFClk.c ****                 else /* Safe to disable - shortened pulse does not impact peripheral */
 807:Generated_Source\PSoC4/CyLFClk.c ****             #endif /* (CY_IP_SRSSV2) */
 808:Generated_Source\PSoC4/CyLFClk.c ****             {
 809:Generated_Source\PSoC4/CyLFClk.c ****                 CY_SYS_CLK_WCO_CONFIG_REG &= (uint32) ~CY_SYS_CLK_WCO_CONFIG_LPM_ENABLE;
 810:Generated_Source\PSoC4/CyLFClk.c ****             }
 811:Generated_Source\PSoC4/CyLFClk.c ****         } /* Otherwise do nothing. WCO configuration cannot be changed. */
 812:Generated_Source\PSoC4/CyLFClk.c ****     }
 813:Generated_Source\PSoC4/CyLFClk.c **** 
 814:Generated_Source\PSoC4/CyLFClk.c **** 
 815:Generated_Source\PSoC4/CyLFClk.c ****     /*******************************************************************************
 816:Generated_Source\PSoC4/CyLFClk.c ****     * Function Name: CySysClkWcoEnabled
 817:Generated_Source\PSoC4/CyLFClk.c ****     ****************************************************************************//**
 818:Generated_Source\PSoC4/CyLFClk.c ****     * \internal Reports the WCO enable state.
 819:Generated_Source\PSoC4/CyLFClk.c ****     *
 820:Generated_Source\PSoC4/CyLFClk.c ****     * \return 1 if WCO is enabled
 821:Generated_Source\PSoC4/CyLFClk.c ****     * \return 0 if WCO is disabled.
 822:Generated_Source\PSoC4/CyLFClk.c ****     * \endinternal
 823:Generated_Source\PSoC4/CyLFClk.c ****     *******************************************************************************/
 824:Generated_Source\PSoC4/CyLFClk.c ****     uint32 CySysClkWcoEnabled(void)
 825:Generated_Source\PSoC4/CyLFClk.c ****     {
 826:Generated_Source\PSoC4/CyLFClk.c ****         return ((0u != (CY_SYS_CLK_WCO_CONFIG_REG & (uint32)(CY_SYS_CLK_WCO_CONFIG_LPM_ENABLE))) ?
 827:Generated_Source\PSoC4/CyLFClk.c ****                 (uint32) 1u :
 828:Generated_Source\PSoC4/CyLFClk.c ****                 (uint32) 0u);
 829:Generated_Source\PSoC4/CyLFClk.c ****     }
 830:Generated_Source\PSoC4/CyLFClk.c **** 
 831:Generated_Source\PSoC4/CyLFClk.c **** 
 832:Generated_Source\PSoC4/CyLFClk.c ****     /*******************************************************************************
 833:Generated_Source\PSoC4/CyLFClk.c ****     * Function Name: CySysClkWcoSetPowerMode
 834:Generated_Source\PSoC4/CyLFClk.c ****     ****************************************************************************//**
 835:Generated_Source\PSoC4/CyLFClk.c ****     * \brief
 836:Generated_Source\PSoC4/CyLFClk.c ****     * Sets the power mode for the 32 KHz WCO.
 837:Generated_Source\PSoC4/CyLFClk.c ****     *
 838:Generated_Source\PSoC4/CyLFClk.c ****     * By default (if this function is not called), the WCO is in High power mode 
 839:Generated_Source\PSoC4/CyLFClk.c ****     * during Active and device's low power modes
 840:Generated_Source\PSoC4/CyLFClk.c ****     *
 841:Generated_Source\PSoC4/CyLFClk.c ****     * \param mode
 842:Generated_Source\PSoC4/CyLFClk.c ****     * CY_SYS_CLK_WCO_HPM - The High Power mode.<br>
 843:Generated_Source\PSoC4/CyLFClk.c ****     * CY_SYS_CLK_WCO_LPM - The Low Power mode.
 844:Generated_Source\PSoC4/CyLFClk.c ****     *
 845:Generated_Source\PSoC4/CyLFClk.c ****     * \return A previous power mode. The same as the parameters.
 846:Generated_Source\PSoC4/CyLFClk.c ****     *
 847:Generated_Source\PSoC4/CyLFClk.c ****     * \note
 848:Generated_Source\PSoC4/CyLFClk.c ****     * The WCO Low Power mode is applicable for PSoC 4100 BLE / PSoC 4200 BLE devices.
 849:Generated_Source\PSoC4/CyLFClk.c ****     *
 850:Generated_Source\PSoC4/CyLFClk.c ****     *******************************************************************************/
 851:Generated_Source\PSoC4/CyLFClk.c ****     uint32 CySysClkWcoSetPowerMode(uint32 mode)
 852:Generated_Source\PSoC4/CyLFClk.c ****     {
 853:Generated_Source\PSoC4/CyLFClk.c ****         uint32 powerModeStatus;
ARM GAS  C:\Users\VIDEOH~1\AppData\Local\Temp\cc9HpMPY.s 			page 17


 854:Generated_Source\PSoC4/CyLFClk.c **** 
 855:Generated_Source\PSoC4/CyLFClk.c ****         powerModeStatus = CY_SYS_CLK_WCO_CONFIG_REG & CY_SYS_CLK_WCO_CONFIG_LPM_EN;
 856:Generated_Source\PSoC4/CyLFClk.c **** 
 857:Generated_Source\PSoC4/CyLFClk.c ****         switch(mode)
 858:Generated_Source\PSoC4/CyLFClk.c ****         {
 859:Generated_Source\PSoC4/CyLFClk.c ****         case CY_SYS_CLK_WCO_HPM:
 860:Generated_Source\PSoC4/CyLFClk.c ****                 CySysClkWcoSetHighPowerMode();
 861:Generated_Source\PSoC4/CyLFClk.c ****             break;
 862:Generated_Source\PSoC4/CyLFClk.c **** 
 863:Generated_Source\PSoC4/CyLFClk.c ****         #if(CY_IP_BLESS)
 864:Generated_Source\PSoC4/CyLFClk.c ****             case CY_SYS_CLK_WCO_LPM:
 865:Generated_Source\PSoC4/CyLFClk.c ****                     CySysClkWcoSetLowPowerMode();
 866:Generated_Source\PSoC4/CyLFClk.c ****                 break;
 867:Generated_Source\PSoC4/CyLFClk.c ****         #endif /* (CY_IP_BLESS) */
 868:Generated_Source\PSoC4/CyLFClk.c **** 
 869:Generated_Source\PSoC4/CyLFClk.c ****         default:
 870:Generated_Source\PSoC4/CyLFClk.c ****             CYASSERT(0u != 0u);
 871:Generated_Source\PSoC4/CyLFClk.c ****             break;
 872:Generated_Source\PSoC4/CyLFClk.c ****         }
 873:Generated_Source\PSoC4/CyLFClk.c **** 
 874:Generated_Source\PSoC4/CyLFClk.c ****         return (powerModeStatus);
 875:Generated_Source\PSoC4/CyLFClk.c ****     }
 876:Generated_Source\PSoC4/CyLFClk.c **** 
 877:Generated_Source\PSoC4/CyLFClk.c **** 
 878:Generated_Source\PSoC4/CyLFClk.c ****     /*******************************************************************************
 879:Generated_Source\PSoC4/CyLFClk.c ****     * Function Name: CySysClkWcoClockOutSelect
 880:Generated_Source\PSoC4/CyLFClk.c ****     ****************************************************************************//**
 881:Generated_Source\PSoC4/CyLFClk.c ****     * \brief
 882:Generated_Source\PSoC4/CyLFClk.c ****     * Selects the WCO block output source.
 883:Generated_Source\PSoC4/CyLFClk.c ****     *
 884:Generated_Source\PSoC4/CyLFClk.c ****     * In addition to generating 32.768 kHz clock from external crystals, WCO 
 885:Generated_Source\PSoC4/CyLFClk.c ****     * can be sourced by external clock source using wco_out pin. The API help to
 886:Generated_Source\PSoC4/CyLFClk.c ****     * lets you select between the sources: External crystal or external pin.
 887:Generated_Source\PSoC4/CyLFClk.c ****     *
 888:Generated_Source\PSoC4/CyLFClk.c ****     * If you want to use external pin to drive WCO the next procedure is required:
 889:Generated_Source\PSoC4/CyLFClk.c ****     * <br> 1) Disable the WCO.
 890:Generated_Source\PSoC4/CyLFClk.c ****     * <br> 2) Drive the wco_out pin to an external signal source.
 891:Generated_Source\PSoC4/CyLFClk.c ****     * <br> 3) Call CySysClkWcoClockOutSelect(CY_SYS_CLK_WCO_SEL_PIN).
 892:Generated_Source\PSoC4/CyLFClk.c ****     * <br> 4) Enable the WCO and wait for 15 us before clocking the XO pad at the high 
 893:Generated_Source\PSoC4/CyLFClk.c ****     * potential. Let's assume you are using the 1.6v clock amplitude, then the
 894:Generated_Source\PSoC4/CyLFClk.c ****     * sequence would start at 1.6v, then 0v, then 1.6v etc at a chosen frequency.
 895:Generated_Source\PSoC4/CyLFClk.c ****     *
 896:Generated_Source\PSoC4/CyLFClk.c ****     * If you want to use WCO after using an external pin source:
 897:Generated_Source\PSoC4/CyLFClk.c ****     * <br> 1) Disable the WCO.
 898:Generated_Source\PSoC4/CyLFClk.c ****     * <br> 2) Drive off wco_out pin with external signal source.
 899:Generated_Source\PSoC4/CyLFClk.c ****     * <br> 3) Call CySysClkWcoClockOutSelect(CY_SYS_CLK_WCO_SEL_CRYSTAL).
 900:Generated_Source\PSoC4/CyLFClk.c ****     * <br> 4) Enable the WCO.
 901:Generated_Source\PSoC4/CyLFClk.c ****     *
 902:Generated_Source\PSoC4/CyLFClk.c ****     * \warning 
 903:Generated_Source\PSoC4/CyLFClk.c ****     * Do not use the oscillator output clock prior to a 15uS delay in your system.
 904:Generated_Source\PSoC4/CyLFClk.c ****     * There are no limitations on the external clock frequency.
 905:Generated_Source\PSoC4/CyLFClk.c ****     * \warning 
 906:Generated_Source\PSoC4/CyLFClk.c ****     * When external clock source was selected to drive WCO block the IMO can be 
 907:Generated_Source\PSoC4/CyLFClk.c ****     * trimmed only when external clock source period is equal to WCO external
 908:Generated_Source\PSoC4/CyLFClk.c ****     * crystal period. Also external clock source accuracy should be higher 
 909:Generated_Source\PSoC4/CyLFClk.c ****     * or equal to WCO external crystal accuracy.
 910:Generated_Source\PSoC4/CyLFClk.c ****     *
ARM GAS  C:\Users\VIDEOH~1\AppData\Local\Temp\cc9HpMPY.s 			page 18


 911:Generated_Source\PSoC4/CyLFClk.c ****     * \param clockSel
 912:Generated_Source\PSoC4/CyLFClk.c ****     * CY_SYS_CLK_WCO_SEL_CRYSTAL - Selects External crystal as clock 
 913:Generated_Source\PSoC4/CyLFClk.c ****     * source of WCO.<br>
 914:Generated_Source\PSoC4/CyLFClk.c ****     * CY_SYS_CLK_WCO_SEL_PIN - Selects External clock input on wco_in pin as 
 915:Generated_Source\PSoC4/CyLFClk.c ****     * clock source of WCO.
 916:Generated_Source\PSoC4/CyLFClk.c ****     *
 917:Generated_Source\PSoC4/CyLFClk.c ****     *******************************************************************************/
 918:Generated_Source\PSoC4/CyLFClk.c ****     void CySysClkWcoClockOutSelect(uint32 clockSel)
 919:Generated_Source\PSoC4/CyLFClk.c ****     {
 920:Generated_Source\PSoC4/CyLFClk.c ****         if (0u != CySysClkWcoEnabled())
 921:Generated_Source\PSoC4/CyLFClk.c ****         {
 922:Generated_Source\PSoC4/CyLFClk.c ****             if (1u >= clockSel)
 923:Generated_Source\PSoC4/CyLFClk.c ****             {
 924:Generated_Source\PSoC4/CyLFClk.c ****                 CY_SYS_CLK_WCO_CONFIG_REG = (CY_SYS_CLK_WCO_CONFIG_REG & (uint32)(~CY_SYS_CLK_WCO_S
 925:Generated_Source\PSoC4/CyLFClk.c ****                                         (clockSel << CY_SYS_CLK_WCO_SELECT_PIN_OFFSET);
 926:Generated_Source\PSoC4/CyLFClk.c ****             }
 927:Generated_Source\PSoC4/CyLFClk.c ****             else
 928:Generated_Source\PSoC4/CyLFClk.c ****             {
 929:Generated_Source\PSoC4/CyLFClk.c ****                 CYASSERT(0u != 0u);
 930:Generated_Source\PSoC4/CyLFClk.c ****             }
 931:Generated_Source\PSoC4/CyLFClk.c ****         }
 932:Generated_Source\PSoC4/CyLFClk.c ****     }
 933:Generated_Source\PSoC4/CyLFClk.c **** #endif  /* (CY_IP_WCO) */
 934:Generated_Source\PSoC4/CyLFClk.c **** 
 935:Generated_Source\PSoC4/CyLFClk.c **** 
 936:Generated_Source\PSoC4/CyLFClk.c **** #if(CY_IP_SRSSV2)
 937:Generated_Source\PSoC4/CyLFClk.c ****     /*******************************************************************************
 938:Generated_Source\PSoC4/CyLFClk.c ****     * Function Name: CySysWdtLock
 939:Generated_Source\PSoC4/CyLFClk.c ****     ****************************************************************************//**
 940:Generated_Source\PSoC4/CyLFClk.c ****     * \brief
 941:Generated_Source\PSoC4/CyLFClk.c ****     * Locks out configuration changes to the Watchdog timer registers and ILO
 942:Generated_Source\PSoC4/CyLFClk.c ****     * configuration register.
 943:Generated_Source\PSoC4/CyLFClk.c ****     *
 944:Generated_Source\PSoC4/CyLFClk.c ****     * After this function is called, ILO clock can't be disabled until
 945:Generated_Source\PSoC4/CyLFClk.c ****     * CySysWdtUnlock() is called.
 946:Generated_Source\PSoC4/CyLFClk.c ****     *
 947:Generated_Source\PSoC4/CyLFClk.c ****     *******************************************************************************/
 948:Generated_Source\PSoC4/CyLFClk.c ****     void CySysWdtLock(void)
 949:Generated_Source\PSoC4/CyLFClk.c ****     {
 950:Generated_Source\PSoC4/CyLFClk.c ****         uint8 interruptState;
 951:Generated_Source\PSoC4/CyLFClk.c ****         interruptState = CyEnterCriticalSection();
 952:Generated_Source\PSoC4/CyLFClk.c **** 
 953:Generated_Source\PSoC4/CyLFClk.c ****         CY_SYS_CLK_SELECT_REG = (CY_SYS_CLK_SELECT_REG & (uint32)(~CY_SYS_WDT_CLK_LOCK_BITS_MASK)) 
 954:Generated_Source\PSoC4/CyLFClk.c ****                  CY_SYS_WDT_CLK_LOCK_BITS_MASK;
 955:Generated_Source\PSoC4/CyLFClk.c **** 
 956:Generated_Source\PSoC4/CyLFClk.c ****         CyExitCriticalSection(interruptState);
 957:Generated_Source\PSoC4/CyLFClk.c ****     }
 958:Generated_Source\PSoC4/CyLFClk.c **** 
 959:Generated_Source\PSoC4/CyLFClk.c **** 
 960:Generated_Source\PSoC4/CyLFClk.c ****     /*******************************************************************************
 961:Generated_Source\PSoC4/CyLFClk.c ****     * Function Name: CySysWdtLocked
 962:Generated_Source\PSoC4/CyLFClk.c ****     ****************************************************************************//**
 963:Generated_Source\PSoC4/CyLFClk.c ****     * \internal
 964:Generated_Source\PSoC4/CyLFClk.c ****     * Reports the WDT lock state.
 965:Generated_Source\PSoC4/CyLFClk.c ****     *
 966:Generated_Source\PSoC4/CyLFClk.c ****     * \return 1 - WDT is locked, and 0 - WDT is unlocked.
 967:Generated_Source\PSoC4/CyLFClk.c ****     * \endinternal
ARM GAS  C:\Users\VIDEOH~1\AppData\Local\Temp\cc9HpMPY.s 			page 19


 968:Generated_Source\PSoC4/CyLFClk.c ****     *******************************************************************************/
 969:Generated_Source\PSoC4/CyLFClk.c ****     static uint32 CySysWdtLocked(void)
 970:Generated_Source\PSoC4/CyLFClk.c ****     {
  60              		.loc 1 970 0
  61              		.cfi_startproc
  62              		@ args = 0, pretend = 0, frame = 0
  63              		@ frame_needed = 0, uses_anonymous_args = 0
  64              		@ link register save eliminated.
 971:Generated_Source\PSoC4/CyLFClk.c ****         /* Prohibits writing to WDT registers and ILO/WCO registers when not equal 0 */
 972:Generated_Source\PSoC4/CyLFClk.c ****         return ((0u != (CY_SYS_CLK_SELECT_REG & (uint32)(CY_SYS_WDT_CLK_LOCK_BITS_MASK))) ? (uint32
  65              		.loc 1 972 0
  66 0000 034B     		ldr	r3, .L8
  67 0002 1868     		ldr	r0, [r3]
  68 0004 C023     		movs	r3, #192
  69 0006 1B02     		lsls	r3, r3, #8
  70 0008 1840     		ands	r0, r3
  71 000a 00D0     		beq	.L7
  72 000c 0120     		movs	r0, #1
  73              	.L7:
 973:Generated_Source\PSoC4/CyLFClk.c ****     }
  74              		.loc 1 973 0 discriminator 4
  75              		@ sp needed
  76 000e 7047     		bx	lr
  77              	.L9:
  78              		.align	2
  79              	.L8:
  80 0010 00010B40 		.word	1074462976
  81              		.cfi_endproc
  82              	.LFE7:
  83              		.size	CySysWdtLocked, .-CySysWdtLocked
  84              		.section	.text.CySysClkIloStart,"ax",%progbits
  85              		.align	2
  86              		.global	CySysClkIloStart
  87              		.code	16
  88              		.thumb_func
  89              		.type	CySysClkIloStart, %function
  90              	CySysClkIloStart:
  91              	.LFB0:
  84:Generated_Source\PSoC4/CyLFClk.c ****     CY_SYS_CLK_ILO_CONFIG_REG |= CY_SYS_CLK_ILO_CONFIG_ENABLE;
  92              		.loc 1 84 0
  93              		.cfi_startproc
  94              		@ args = 0, pretend = 0, frame = 0
  95              		@ frame_needed = 0, uses_anonymous_args = 0
  96              		@ link register save eliminated.
  85:Generated_Source\PSoC4/CyLFClk.c **** }
  97              		.loc 1 85 0
  98 0000 034A     		ldr	r2, .L11
  99 0002 1368     		ldr	r3, [r2]
 100 0004 8021     		movs	r1, #128
 101 0006 0906     		lsls	r1, r1, #24
 102 0008 0B43     		orrs	r3, r1
 103 000a 1360     		str	r3, [r2]
  86:Generated_Source\PSoC4/CyLFClk.c **** 
 104              		.loc 1 86 0
 105              		@ sp needed
 106 000c 7047     		bx	lr
 107              	.L12:
ARM GAS  C:\Users\VIDEOH~1\AppData\Local\Temp\cc9HpMPY.s 			page 20


 108 000e C046     		.align	2
 109              	.L11:
 110 0010 04010B40 		.word	1074462980
 111              		.cfi_endproc
 112              	.LFE0:
 113              		.size	CySysClkIloStart, .-CySysClkIloStart
 114              		.section	.text.CySysClkIloStartMeasurement,"ax",%progbits
 115              		.align	2
 116              		.global	CySysClkIloStartMeasurement
 117              		.code	16
 118              		.thumb_func
 119              		.type	CySysClkIloStartMeasurement, %function
 120              	CySysClkIloStartMeasurement:
 121              	.LFB2:
 169:Generated_Source\PSoC4/CyLFClk.c **** #if(CY_IP_SRSSV2 && (!CY_IP_CPUSS))
 122              		.loc 1 169 0
 123              		.cfi_startproc
 124              		@ args = 0, pretend = 0, frame = 0
 125              		@ frame_needed = 0, uses_anonymous_args = 0
 126              		@ link register save eliminated.
 182:Generated_Source\PSoC4/CyLFClk.c ****                             CY_SYS_CLK_SEL_ILO_DFT_SOURCE; 
 127              		.loc 1 182 0
 128 0000 074A     		ldr	r2, .L14
 129 0002 1168     		ldr	r1, [r2]
 130 0004 074B     		ldr	r3, .L14+4
 131 0006 0B40     		ands	r3, r1
 132 0008 8021     		movs	r1, #128
 133 000a 4900     		lsls	r1, r1, #1
 134 000c 0B43     		orrs	r3, r1
 135 000e 1360     		str	r3, [r2]
 185:Generated_Source\PSoC4/CyLFClk.c ****                             CY_SYS_TST_DDFT_CTRL_REG_SEL2_CLK1;
 136              		.loc 1 185 0
 137 0010 054A     		ldr	r2, .L14+8
 138 0012 1168     		ldr	r1, [r2]
 139 0014 054B     		ldr	r3, .L14+12
 140 0016 0B40     		ands	r3, r1
 141 0018 0549     		ldr	r1, .L14+16
 142 001a 0B43     		orrs	r3, r1
 143 001c 1360     		str	r3, [r2]
 187:Generated_Source\PSoC4/CyLFClk.c **** 
 144              		.loc 1 187 0
 145              		@ sp needed
 146 001e 7047     		bx	lr
 147              	.L15:
 148              		.align	2
 149              	.L14:
 150 0020 10010B40 		.word	1074462992
 151 0024 FFF0FFFF 		.word	-3841
 152 0028 08000340 		.word	1073938440
 153 002c C0C0FFFF 		.word	-16192
 154 0030 01020000 		.word	513
 155              		.cfi_endproc
 156              	.LFE2:
 157              		.size	CySysClkIloStartMeasurement, .-CySysClkIloStartMeasurement
 158              		.section	.text.CySysClkIloStopMeasurement,"ax",%progbits
 159              		.align	2
 160              		.global	CySysClkIloStopMeasurement
ARM GAS  C:\Users\VIDEOH~1\AppData\Local\Temp\cc9HpMPY.s 			page 21


 161              		.code	16
 162              		.thumb_func
 163              		.type	CySysClkIloStopMeasurement, %function
 164              	CySysClkIloStopMeasurement:
 165              	.LFB3:
 202:Generated_Source\PSoC4/CyLFClk.c ****     /* Set default configurations in 11...8 DFT register bits to zero */
 166              		.loc 1 202 0
 167              		.cfi_startproc
 168              		@ args = 0, pretend = 0, frame = 0
 169              		@ frame_needed = 0, uses_anonymous_args = 0
 170              		@ link register save eliminated.
 204:Generated_Source\PSoC4/CyLFClk.c ****     #if(CY_IP_SRSSLT)
 171              		.loc 1 204 0
 172 0000 024A     		ldr	r2, .L17
 173 0002 1168     		ldr	r1, [r2]
 174 0004 024B     		ldr	r3, .L17+4
 175 0006 0B40     		ands	r3, r1
 176 0008 1360     		str	r3, [r2]
 208:Generated_Source\PSoC4/CyLFClk.c **** 
 177              		.loc 1 208 0
 178              		@ sp needed
 179 000a 7047     		bx	lr
 180              	.L18:
 181              		.align	2
 182              	.L17:
 183 000c 10010B40 		.word	1074462992
 184 0010 FFF0FFFF 		.word	-3841
 185              		.cfi_endproc
 186              	.LFE3:
 187              		.size	CySysClkIloStopMeasurement, .-CySysClkIloStopMeasurement
 188              		.global	__aeabi_uidiv
 189              		.section	.text.CySysClkIloCompensate,"ax",%progbits
 190              		.align	2
 191              		.global	CySysClkIloCompensate
 192              		.code	16
 193              		.thumb_func
 194              		.type	CySysClkIloCompensate, %function
 195              	CySysClkIloCompensate:
 196              	.LFB4:
 268:Generated_Source\PSoC4/CyLFClk.c ****     uint32 iloCompensatedCycles;
 197              		.loc 1 268 0
 198              		.cfi_startproc
 199              		@ args = 0, pretend = 0, frame = 0
 200              		@ frame_needed = 0, uses_anonymous_args = 0
 201              	.LVL0:
 202 0000 70B5     		push	{r4, r5, r6, lr}
 203              		.cfi_def_cfa_offset 16
 204              		.cfi_offset 4, -16
 205              		.cfi_offset 5, -12
 206              		.cfi_offset 6, -8
 207              		.cfi_offset 14, -4
 208 0002 0400     		movs	r4, r0
 209 0004 0D00     		movs	r5, r1
 275:Generated_Source\PSoC4/CyLFClk.c **** 
 210              		.loc 1 275 0
 211 0006 324B     		ldr	r3, .L31
 212 0008 1A68     		ldr	r2, [r3]
ARM GAS  C:\Users\VIDEOH~1\AppData\Local\Temp\cc9HpMPY.s 			page 22


 213 000a 324B     		ldr	r3, .L31+4
 214 000c 1340     		ands	r3, r2
 215              	.LVL1:
 278:Generated_Source\PSoC4/CyLFClk.c ****        (CY_SYS_TST_DDFT_CTRL_REG == CY_SYS_TST_DDFT_CTRL_REG_SEL2_CLK1) &&
 216              		.loc 1 278 0
 217 000e 8022     		movs	r2, #128
 218 0010 5200     		lsls	r2, r2, #1
 219 0012 9342     		cmp	r3, r2
 220 0014 4ED1     		bne	.L24
 279:Generated_Source\PSoC4/CyLFClk.c ****        (CY_SYS_CLK_MAX_DELAY_US >= desiredDelay) &&
 221              		.loc 1 279 0 discriminator 1
 222 0016 304B     		ldr	r3, .L31+8
 223              	.LVL2:
 224 0018 1A68     		ldr	r2, [r3]
 278:Generated_Source\PSoC4/CyLFClk.c ****        (CY_SYS_TST_DDFT_CTRL_REG == CY_SYS_TST_DDFT_CTRL_REG_SEL2_CLK1) &&
 225              		.loc 1 278 0 discriminator 1
 226 001a 304B     		ldr	r3, .L31+12
 227 001c 9A42     		cmp	r2, r3
 228 001e 4BD1     		bne	.L25
 279:Generated_Source\PSoC4/CyLFClk.c ****        (CY_SYS_CLK_MAX_DELAY_US >= desiredDelay) &&
 229              		.loc 1 279 0
 230 0020 2F4B     		ldr	r3, .L31+16
 231 0022 9842     		cmp	r0, r3
 232 0024 4AD8     		bhi	.L26
 280:Generated_Source\PSoC4/CyLFClk.c ****        (CY_SYS_CLK_MIN_DELAY_US <= desiredDelay) &&
 233              		.loc 1 280 0
 234 0026 6328     		cmp	r0, #99
 235 0028 4AD9     		bls	.L27
 281:Generated_Source\PSoC4/CyLFClk.c ****        (compensatedCycles !=  NULL))
 236              		.loc 1 281 0
 237 002a 0029     		cmp	r1, #0
 238 002c 4AD0     		beq	.L28
 284:Generated_Source\PSoC4/CyLFClk.c ****         {
 239              		.loc 1 284 0
 240 002e 2D4B     		ldr	r3, .L31+20
 241 0030 1B68     		ldr	r3, [r3]
 242 0032 002B     		cmp	r3, #0
 243 0034 34D0     		beq	.L21
 287:Generated_Source\PSoC4/CyLFClk.c ****             {
 244              		.loc 1 287 0
 245 0036 2C4B     		ldr	r3, .L31+24
 246 0038 1B68     		ldr	r3, [r3]
 247 003a 002B     		cmp	r3, #0
 248 003c 44DA     		bge	.L29
 289:Generated_Source\PSoC4/CyLFClk.c ****                 {
 249              		.loc 1 289 0
 250 003e 2B4B     		ldr	r3, .L31+28
 251 0040 1B68     		ldr	r3, [r3]
 252 0042 002B     		cmp	r3, #0
 253 0044 42D0     		beq	.L30
 293:Generated_Source\PSoC4/CyLFClk.c ****                         {
 254              		.loc 1 293 0
 255 0046 2A4B     		ldr	r3, .L31+32
 256 0048 9842     		cmp	r0, r3
 257 004a 0ED9     		bls	.L22
 258              	.LVL3:
 297:Generated_Source\PSoC4/CyLFClk.c ****                                 CY_SYS_CLK_ILO_FREQ_2MSB) * (desiredDelayInCounts / CY_SYS_CLK_ILO_
ARM GAS  C:\Users\VIDEOH~1\AppData\Local\Temp\cc9HpMPY.s 			page 23


 259              		.loc 1 297 0
 260 004c 274B     		ldr	r3, .L31+28
 261 004e 1868     		ldr	r0, [r3]
 262              	.LVL4:
 263 0050 284B     		ldr	r3, .L31+36
 264 0052 1968     		ldr	r1, [r3]
 265              	.LVL5:
 266 0054 4843     		muls	r0, r1
 267 0056 890A     		lsrs	r1, r1, #10
 268 0058 FFF7FEFF 		bl	__aeabi_uidiv
 269              	.LVL6:
 270 005c 4609     		lsrs	r6, r0, #5
 298:Generated_Source\PSoC4/CyLFClk.c ****                         }
 271              		.loc 1 298 0
 272 005e 2649     		ldr	r1, .L31+40
 273 0060 2000     		movs	r0, r4
 274 0062 FFF7FEFF 		bl	__aeabi_uidiv
 275              	.LVL7:
 296:Generated_Source\PSoC4/CyLFClk.c ****                             (((CY_SYS_CNT_REG2_REG * cydelayFreqHz) / (cydelayFreqHz >> CY_SYS_CLK_
 276              		.loc 1 296 0
 277 0066 7043     		muls	r0, r6
 278              	.LVL8:
 279 0068 15E0     		b	.L23
 280              	.LVL9:
 281              	.L22:
 302:Generated_Source\PSoC4/CyLFClk.c ****                                                      CY_SYS_CLK_HALF_OF_CLOCK) / CY_SYS_CLK_ILO_PER
 282              		.loc 1 302 0
 283 006a 6420     		movs	r0, #100
 284              	.LVL10:
 285 006c 6043     		muls	r0, r4
 286 006e 234B     		ldr	r3, .L31+44
 287 0070 9C46     		mov	ip, r3
 288 0072 6044     		add	r0, r0, ip
 289 0074 2249     		ldr	r1, .L31+48
 290              	.LVL11:
 291 0076 FFF7FEFF 		bl	__aeabi_uidiv
 292              	.LVL12:
 293 007a 0400     		movs	r4, r0
 294              	.LVL13:
 305:Generated_Source\PSoC4/CyLFClk.c ****                                                      (cydelayFreqHz >> CY_SYS_CLK_SYS_CLK_DEVIDER))
 295              		.loc 1 305 0
 296 007c 1B4B     		ldr	r3, .L31+28
 297 007e 1868     		ldr	r0, [r3]
 298              	.LVL14:
 299 0080 1C4B     		ldr	r3, .L31+36
 300 0082 1968     		ldr	r1, [r3]
 301 0084 4843     		muls	r0, r1
 306:Generated_Source\PSoC4/CyLFClk.c ****                                                      desiredDelayInCounts) / CY_SYS_CLK_ILO_DESIRED
 302              		.loc 1 306 0
 303 0086 890A     		lsrs	r1, r1, #10
 305:Generated_Source\PSoC4/CyLFClk.c ****                                                      (cydelayFreqHz >> CY_SYS_CLK_SYS_CLK_DEVIDER))
 304              		.loc 1 305 0
 305 0088 FFF7FEFF 		bl	__aeabi_uidiv
 306              	.LVL15:
 306:Generated_Source\PSoC4/CyLFClk.c ****                                                      desiredDelayInCounts) / CY_SYS_CLK_ILO_DESIRED
 307              		.loc 1 306 0
 308 008c 6043     		muls	r0, r4
ARM GAS  C:\Users\VIDEOH~1\AppData\Local\Temp\cc9HpMPY.s 			page 24


 305:Generated_Source\PSoC4/CyLFClk.c ****                                                      (cydelayFreqHz >> CY_SYS_CLK_SYS_CLK_DEVIDER))
 309              		.loc 1 305 0
 310 008e FA21     		movs	r1, #250
 311 0090 C901     		lsls	r1, r1, #7
 312 0092 FFF7FEFF 		bl	__aeabi_uidiv
 313              	.LVL16:
 314              	.L23:
 326:Generated_Source\PSoC4/CyLFClk.c ****                     compensateRunningStatus = CY_SYS_CLK_TRIM_OR_COMP_FINISHED;
 315              		.loc 1 326 0
 316 0096 2860     		str	r0, [r5]
 327:Generated_Source\PSoC4/CyLFClk.c ****                     returnStatus = CYRET_SUCCESS;
 317              		.loc 1 327 0
 318 0098 0020     		movs	r0, #0
 319              	.LVL17:
 320 009a 124B     		ldr	r3, .L31+20
 321 009c 1860     		str	r0, [r3]
 322              	.LVL18:
 323 009e 16E0     		b	.L20
 324              	.LVL19:
 325              	.L21:
 343:Generated_Source\PSoC4/CyLFClk.c ****             compensateRunningStatus = CY_SYS_CLK_TRIM_OR_COMP_STARTED;
 326              		.loc 1 343 0
 327 00a0 144B     		ldr	r3, .L31+36
 328 00a2 1B68     		ldr	r3, [r3]
 329 00a4 9B0A     		lsrs	r3, r3, #10
 330 00a6 104A     		ldr	r2, .L31+24
 331 00a8 1360     		str	r3, [r2]
 344:Generated_Source\PSoC4/CyLFClk.c ****             returnStatus = CYRET_STARTED;
 332              		.loc 1 344 0
 333 00aa 0122     		movs	r2, #1
 334 00ac 0D4B     		ldr	r3, .L31+20
 335 00ae 1A60     		str	r2, [r3]
 336              	.LVL20:
 345:Generated_Source\PSoC4/CyLFClk.c ****         }
 337              		.loc 1 345 0
 338 00b0 0720     		movs	r0, #7
 339              	.LVL21:
 340 00b2 0CE0     		b	.L20
 341              	.LVL22:
 342              	.L24:
 350:Generated_Source\PSoC4/CyLFClk.c ****     }
 343              		.loc 1 350 0
 344 00b4 1120     		movs	r0, #17
 345              	.LVL23:
 346 00b6 0AE0     		b	.L20
 347              	.LVL24:
 348              	.L25:
 349 00b8 1120     		movs	r0, #17
 350              	.LVL25:
 351 00ba 08E0     		b	.L20
 352              	.LVL26:
 353              	.L26:
 354 00bc 1120     		movs	r0, #17
 355              	.LVL27:
 356 00be 06E0     		b	.L20
 357              	.LVL28:
 358              	.L27:
ARM GAS  C:\Users\VIDEOH~1\AppData\Local\Temp\cc9HpMPY.s 			page 25


 359 00c0 1120     		movs	r0, #17
 360              	.LVL29:
 361 00c2 04E0     		b	.L20
 362              	.LVL30:
 363              	.L28:
 364 00c4 1120     		movs	r0, #17
 365              	.LVL31:
 366 00c6 02E0     		b	.L20
 367              	.LVL32:
 368              	.L29:
 337:Generated_Source\PSoC4/CyLFClk.c ****             }
 369              		.loc 1 337 0
 370 00c8 0720     		movs	r0, #7
 371              	.LVL33:
 372 00ca 00E0     		b	.L20
 373              	.LVL34:
 374              	.L30:
 332:Generated_Source\PSoC4/CyLFClk.c ****                 }
 375              		.loc 1 332 0
 376 00cc 1120     		movs	r0, #17
 377              	.LVL35:
 378              	.L20:
 354:Generated_Source\PSoC4/CyLFClk.c **** 
 379              		.loc 1 354 0
 380              		@ sp needed
 381              	.LVL36:
 382 00ce 70BD     		pop	{r4, r5, r6, pc}
 383              	.L32:
 384              		.align	2
 385              	.L31:
 386 00d0 10010B40 		.word	1074462992
 387 00d4 3F3F0000 		.word	16191
 388 00d8 08000340 		.word	1073938440
 389 00dc 01020000 		.word	513
 390 00e0 00286BEE 		.word	-294967296
 391 00e4 00000000 		.word	.LANCHOR0
 392 00e8 18000340 		.word	1073938456
 393 00ec 1C000340 		.word	1073938460
 394 00f0 60D10000 		.word	53600
 395 00f4 00000000 		.word	cydelayFreqHz
 396 00f8 18790000 		.word	31000
 397 00fc 0D030000 		.word	781
 398 0100 350C0000 		.word	3125
 399              		.cfi_endproc
 400              	.LFE4:
 401              		.size	CySysClkIloCompensate, .-CySysClkIloCompensate
 402              		.section	.text.CySysWdtLock,"ax",%progbits
 403              		.align	2
 404              		.global	CySysWdtLock
 405              		.code	16
 406              		.thumb_func
 407              		.type	CySysWdtLock, %function
 408              	CySysWdtLock:
 409              	.LFB6:
 949:Generated_Source\PSoC4/CyLFClk.c ****         uint8 interruptState;
 410              		.loc 1 949 0
 411              		.cfi_startproc
ARM GAS  C:\Users\VIDEOH~1\AppData\Local\Temp\cc9HpMPY.s 			page 26


 412              		@ args = 0, pretend = 0, frame = 0
 413              		@ frame_needed = 0, uses_anonymous_args = 0
 414 0000 10B5     		push	{r4, lr}
 415              		.cfi_def_cfa_offset 8
 416              		.cfi_offset 4, -8
 417              		.cfi_offset 14, -4
 951:Generated_Source\PSoC4/CyLFClk.c **** 
 418              		.loc 1 951 0
 419 0002 FFF7FEFF 		bl	CyEnterCriticalSection
 420              	.LVL37:
 953:Generated_Source\PSoC4/CyLFClk.c ****                  CY_SYS_WDT_CLK_LOCK_BITS_MASK;
 421              		.loc 1 953 0
 422 0006 044A     		ldr	r2, .L34
 423 0008 1368     		ldr	r3, [r2]
 424 000a C021     		movs	r1, #192
 425 000c 0902     		lsls	r1, r1, #8
 426 000e 0B43     		orrs	r3, r1
 427 0010 1360     		str	r3, [r2]
 956:Generated_Source\PSoC4/CyLFClk.c ****     }
 428              		.loc 1 956 0
 429 0012 FFF7FEFF 		bl	CyExitCriticalSection
 430              	.LVL38:
 957:Generated_Source\PSoC4/CyLFClk.c **** 
 431              		.loc 1 957 0
 432              		@ sp needed
 433 0016 10BD     		pop	{r4, pc}
 434              	.L35:
 435              		.align	2
 436              	.L34:
 437 0018 00010B40 		.word	1074462976
 438              		.cfi_endproc
 439              	.LFE6:
 440              		.size	CySysWdtLock, .-CySysWdtLock
 441              		.section	.text.CySysWdtUnlock,"ax",%progbits
 442              		.align	2
 443              		.global	CySysWdtUnlock
 444              		.code	16
 445              		.thumb_func
 446              		.type	CySysWdtUnlock, %function
 447              	CySysWdtUnlock:
 448              	.LFB8:
 974:Generated_Source\PSoC4/CyLFClk.c **** 
 975:Generated_Source\PSoC4/CyLFClk.c **** 
 976:Generated_Source\PSoC4/CyLFClk.c ****     /*******************************************************************************
 977:Generated_Source\PSoC4/CyLFClk.c ****     * Function Name: CySysWdtUnlock
 978:Generated_Source\PSoC4/CyLFClk.c ****     ****************************************************************************//**
 979:Generated_Source\PSoC4/CyLFClk.c ****     * \brief
 980:Generated_Source\PSoC4/CyLFClk.c ****     *  Unlocks the Watchdog Timer configuration register.
 981:Generated_Source\PSoC4/CyLFClk.c ****     *
 982:Generated_Source\PSoC4/CyLFClk.c ****     *******************************************************************************/
 983:Generated_Source\PSoC4/CyLFClk.c ****     void CySysWdtUnlock(void)
 984:Generated_Source\PSoC4/CyLFClk.c ****     {
 449              		.loc 1 984 0
 450              		.cfi_startproc
 451              		@ args = 0, pretend = 0, frame = 0
 452              		@ frame_needed = 0, uses_anonymous_args = 0
 453 0000 10B5     		push	{r4, lr}
ARM GAS  C:\Users\VIDEOH~1\AppData\Local\Temp\cc9HpMPY.s 			page 27


 454              		.cfi_def_cfa_offset 8
 455              		.cfi_offset 4, -8
 456              		.cfi_offset 14, -4
 985:Generated_Source\PSoC4/CyLFClk.c ****         uint8 interruptState;
 986:Generated_Source\PSoC4/CyLFClk.c ****         interruptState = CyEnterCriticalSection();
 457              		.loc 1 986 0
 458 0002 FFF7FEFF 		bl	CyEnterCriticalSection
 459              	.LVL39:
 987:Generated_Source\PSoC4/CyLFClk.c **** 
 988:Generated_Source\PSoC4/CyLFClk.c ****         /* Removing WDT lock requires two writes */
 989:Generated_Source\PSoC4/CyLFClk.c ****         CY_SYS_CLK_SELECT_REG = ((CY_SYS_CLK_SELECT_REG & (uint32)(~CY_SYS_WDT_CLK_LOCK_BITS_MASK))
 460              		.loc 1 989 0
 461 0006 0849     		ldr	r1, .L37
 462 0008 0A68     		ldr	r2, [r1]
 463 000a 084B     		ldr	r3, .L37+4
 464 000c 1A40     		ands	r2, r3
 465 000e 8024     		movs	r4, #128
 466 0010 E401     		lsls	r4, r4, #7
 467 0012 2243     		orrs	r2, r4
 468 0014 0A60     		str	r2, [r1]
 990:Generated_Source\PSoC4/CyLFClk.c ****                 CY_SYS_WDT_CLK_LOCK_BIT0);
 991:Generated_Source\PSoC4/CyLFClk.c **** 
 992:Generated_Source\PSoC4/CyLFClk.c ****         CY_SYS_CLK_SELECT_REG = ((CY_SYS_CLK_SELECT_REG & (uint32)(~CY_SYS_WDT_CLK_LOCK_BITS_MASK))
 469              		.loc 1 992 0
 470 0016 0A68     		ldr	r2, [r1]
 471 0018 1340     		ands	r3, r2
 472 001a 8022     		movs	r2, #128
 473 001c 1202     		lsls	r2, r2, #8
 474 001e 1343     		orrs	r3, r2
 475 0020 0B60     		str	r3, [r1]
 993:Generated_Source\PSoC4/CyLFClk.c ****                 CY_SYS_WDT_CLK_LOCK_BIT1);
 994:Generated_Source\PSoC4/CyLFClk.c **** 
 995:Generated_Source\PSoC4/CyLFClk.c ****         CyExitCriticalSection(interruptState);
 476              		.loc 1 995 0
 477 0022 FFF7FEFF 		bl	CyExitCriticalSection
 478              	.LVL40:
 996:Generated_Source\PSoC4/CyLFClk.c ****     }
 479              		.loc 1 996 0
 480              		@ sp needed
 481 0026 10BD     		pop	{r4, pc}
 482              	.L38:
 483              		.align	2
 484              	.L37:
 485 0028 00010B40 		.word	1074462976
 486 002c FF3FFFFF 		.word	-49153
 487              		.cfi_endproc
 488              	.LFE8:
 489              		.size	CySysWdtUnlock, .-CySysWdtUnlock
 490              		.section	.text.CySysWdtGetEnabledStatus,"ax",%progbits
 491              		.align	2
 492              		.global	CySysWdtGetEnabledStatus
 493              		.code	16
 494              		.thumb_func
 495              		.type	CySysWdtGetEnabledStatus, %function
 496              	CySysWdtGetEnabledStatus:
 497              	.LFB9:
 997:Generated_Source\PSoC4/CyLFClk.c **** 
ARM GAS  C:\Users\VIDEOH~1\AppData\Local\Temp\cc9HpMPY.s 			page 28


 998:Generated_Source\PSoC4/CyLFClk.c **** 
 999:Generated_Source\PSoC4/CyLFClk.c ****     /*******************************************************************************
1000:Generated_Source\PSoC4/CyLFClk.c ****     * Function Name: CySysWdtGetEnabledStatus
1001:Generated_Source\PSoC4/CyLFClk.c ****     ****************************************************************************//**
1002:Generated_Source\PSoC4/CyLFClk.c ****     * \brief
1003:Generated_Source\PSoC4/CyLFClk.c ****     *  Reads the enabled status of one of the three WDT counters.
1004:Generated_Source\PSoC4/CyLFClk.c ****     *
1005:Generated_Source\PSoC4/CyLFClk.c ****     * \param counterNum: Valid range [0-2].  The number of the WDT counter.
1006:Generated_Source\PSoC4/CyLFClk.c ****     *
1007:Generated_Source\PSoC4/CyLFClk.c ****     * \return The status of the WDT counter:
1008:Generated_Source\PSoC4/CyLFClk.c ****     * \return 0 - If the counter is disabled.
1009:Generated_Source\PSoC4/CyLFClk.c ****     * \return 1 - If the counter is enabled.
1010:Generated_Source\PSoC4/CyLFClk.c ****     *
1011:Generated_Source\PSoC4/CyLFClk.c ****     * \details
1012:Generated_Source\PSoC4/CyLFClk.c ****     * This function returns an actual WDT counter status from the status register. It may
1013:Generated_Source\PSoC4/CyLFClk.c ****     * take up to 3 LFCLK cycles for the WDT status register to contain actual data
1014:Generated_Source\PSoC4/CyLFClk.c ****     * after the WDT counter is enabled.
1015:Generated_Source\PSoC4/CyLFClk.c ****     *
1016:Generated_Source\PSoC4/CyLFClk.c ****     *******************************************************************************/
1017:Generated_Source\PSoC4/CyLFClk.c ****     uint32 CySysWdtGetEnabledStatus(uint32 counterNum)
1018:Generated_Source\PSoC4/CyLFClk.c ****     {
 498              		.loc 1 1018 0
 499              		.cfi_startproc
 500              		@ args = 0, pretend = 0, frame = 0
 501              		@ frame_needed = 0, uses_anonymous_args = 0
 502              	.LVL41:
 503 0000 10B5     		push	{r4, lr}
 504              		.cfi_def_cfa_offset 8
 505              		.cfi_offset 4, -8
 506              		.cfi_offset 14, -4
 507 0002 0400     		movs	r4, r0
1019:Generated_Source\PSoC4/CyLFClk.c ****         CYASSERT(counterNum < CY_SYS_WDT_COUNTERS_MAX);
 508              		.loc 1 1019 0
 509 0004 0228     		cmp	r0, #2
 510 0006 02D9     		bls	.L40
 511              		.loc 1 1019 0 is_stmt 0 discriminator 1
 512 0008 0020     		movs	r0, #0
 513              	.LVL42:
 514 000a FFF7FEFF 		bl	CyHalt
 515              	.LVL43:
 516              	.L40:
1020:Generated_Source\PSoC4/CyLFClk.c ****         return ((CY_SYS_WDT_CONTROL_REG >> ((CY_SYS_WDT_CNT_SHIFT * counterNum) + CY_SYS_WDT_CNT_ST
 517              		.loc 1 1020 0 is_stmt 1
 518 000e 044B     		ldr	r3, .L41
 519 0010 1868     		ldr	r0, [r3]
 520 0012 E400     		lsls	r4, r4, #3
 521              	.LVL44:
 522 0014 0134     		adds	r4, r4, #1
 523 0016 E040     		lsrs	r0, r0, r4
 524 0018 0123     		movs	r3, #1
 525 001a 1840     		ands	r0, r3
1021:Generated_Source\PSoC4/CyLFClk.c ****     }
 526              		.loc 1 1021 0
 527              		@ sp needed
 528 001c 10BD     		pop	{r4, pc}
 529              	.L42:
 530 001e C046     		.align	2
ARM GAS  C:\Users\VIDEOH~1\AppData\Local\Temp\cc9HpMPY.s 			page 29


 531              	.L41:
 532 0020 10020B40 		.word	1074463248
 533              		.cfi_endproc
 534              	.LFE9:
 535              		.size	CySysWdtGetEnabledStatus, .-CySysWdtGetEnabledStatus
 536              		.section	.text.CySysWdtSetMode,"ax",%progbits
 537              		.align	2
 538              		.global	CySysWdtSetMode
 539              		.code	16
 540              		.thumb_func
 541              		.type	CySysWdtSetMode, %function
 542              	CySysWdtSetMode:
 543              	.LFB10:
1022:Generated_Source\PSoC4/CyLFClk.c **** 
1023:Generated_Source\PSoC4/CyLFClk.c **** 
1024:Generated_Source\PSoC4/CyLFClk.c ****     /*******************************************************************************
1025:Generated_Source\PSoC4/CyLFClk.c ****     * Function Name: CySysWdtSetMode
1026:Generated_Source\PSoC4/CyLFClk.c ****     ****************************************************************************//**
1027:Generated_Source\PSoC4/CyLFClk.c ****     * \brief
1028:Generated_Source\PSoC4/CyLFClk.c ****     * Writes the mode of one of the three WDT counters.
1029:Generated_Source\PSoC4/CyLFClk.c ****     *
1030:Generated_Source\PSoC4/CyLFClk.c ****     * \param counterNum: Valid range [0-2].  The number of the WDT counter.
1031:Generated_Source\PSoC4/CyLFClk.c ****     *
1032:Generated_Source\PSoC4/CyLFClk.c ****     * \param mode
1033:Generated_Source\PSoC4/CyLFClk.c ****     *  CY_SYS_WDT_MODE_NONE - Free running.<br>
1034:Generated_Source\PSoC4/CyLFClk.c ****     * CY_SYS_WDT_MODE_INT - The interrupt generated on match for counter 0
1035:Generated_Source\PSoC4/CyLFClk.c ****     * and 1, and on bit toggle for counter 2.<br>
1036:Generated_Source\PSoC4/CyLFClk.c ****     * CY_SYS_WDT_MODE_RESET - Reset on match (valid for counter 0 and 1 only).<br>
1037:Generated_Source\PSoC4/CyLFClk.c ****     * CY_SYS_WDT_MODE_INT_RESET - Generate an interrupt.  Generate a reset on
1038:Generated_Source\PSoC4/CyLFClk.c ****     * the 3rd non-handled interrupt (valid for counter 0 and counter 1 only).
1039:Generated_Source\PSoC4/CyLFClk.c ****     *
1040:Generated_Source\PSoC4/CyLFClk.c ****     * \details
1041:Generated_Source\PSoC4/CyLFClk.c ****     * WDT counter counterNum should be disabled to set a mode. Otherwise, this
1042:Generated_Source\PSoC4/CyLFClk.c ****     * function call has no effect. If the specified counter is enabled,
1043:Generated_Source\PSoC4/CyLFClk.c ****     * call the CySysWdtDisable() function with the corresponding parameter to
1044:Generated_Source\PSoC4/CyLFClk.c ****     * disable the specified counter and wait for it to stop.
1045:Generated_Source\PSoC4/CyLFClk.c ****     *
1046:Generated_Source\PSoC4/CyLFClk.c ****     *******************************************************************************/
1047:Generated_Source\PSoC4/CyLFClk.c ****     void CySysWdtSetMode(uint32 counterNum, uint32 mode)
1048:Generated_Source\PSoC4/CyLFClk.c ****     {
 544              		.loc 1 1048 0
 545              		.cfi_startproc
 546              		@ args = 0, pretend = 0, frame = 0
 547              		@ frame_needed = 0, uses_anonymous_args = 0
 548              	.LVL45:
 549 0000 70B5     		push	{r4, r5, r6, lr}
 550              		.cfi_def_cfa_offset 16
 551              		.cfi_offset 4, -16
 552              		.cfi_offset 5, -12
 553              		.cfi_offset 6, -8
 554              		.cfi_offset 14, -4
 555 0002 0400     		movs	r4, r0
 556 0004 0D00     		movs	r5, r1
1049:Generated_Source\PSoC4/CyLFClk.c ****         uint32 configRegValue;
1050:Generated_Source\PSoC4/CyLFClk.c **** 
1051:Generated_Source\PSoC4/CyLFClk.c ****         CYASSERT(counterNum < CY_SYS_WDT_COUNTERS_MAX);
 557              		.loc 1 1051 0
ARM GAS  C:\Users\VIDEOH~1\AppData\Local\Temp\cc9HpMPY.s 			page 30


 558 0006 0228     		cmp	r0, #2
 559 0008 02D9     		bls	.L44
 560              		.loc 1 1051 0 is_stmt 0 discriminator 1
 561 000a 0020     		movs	r0, #0
 562              	.LVL46:
 563 000c FFF7FEFF 		bl	CyHalt
 564              	.LVL47:
 565              	.L44:
1052:Generated_Source\PSoC4/CyLFClk.c **** 
1053:Generated_Source\PSoC4/CyLFClk.c ****         if(0u == CySysWdtGetEnabledStatus(counterNum))
 566              		.loc 1 1053 0 is_stmt 1
 567 0010 2000     		movs	r0, r4
 568 0012 FFF7FEFF 		bl	CySysWdtGetEnabledStatus
 569              	.LVL48:
 570 0016 0028     		cmp	r0, #0
 571 0018 0AD1     		bne	.L43
1054:Generated_Source\PSoC4/CyLFClk.c ****         {
1055:Generated_Source\PSoC4/CyLFClk.c ****             configRegValue = CY_SYS_WDT_CONFIG_REG &
 572              		.loc 1 1055 0
 573 001a 064A     		ldr	r2, .L46
 574 001c 1368     		ldr	r3, [r2]
1056:Generated_Source\PSoC4/CyLFClk.c ****                                 (uint32)~((uint32)(CY_SYS_WDT_MODE_MASK << (counterNum * CY_SYS_WDT
 575              		.loc 1 1056 0
 576 001e E400     		lsls	r4, r4, #3
 577              	.LVL49:
 578 0020 0321     		movs	r1, #3
 579 0022 0800     		movs	r0, r1
 580 0024 A040     		lsls	r0, r0, r4
1055:Generated_Source\PSoC4/CyLFClk.c ****                                 (uint32)~((uint32)(CY_SYS_WDT_MODE_MASK << (counterNum * CY_SYS_WDT
 581              		.loc 1 1055 0
 582 0026 8343     		bics	r3, r0
 583              	.LVL50:
1057:Generated_Source\PSoC4/CyLFClk.c ****             configRegValue |= (uint32)((mode & CY_SYS_WDT_MODE_MASK) << (counterNum * CY_SYS_WDT_CN
 584              		.loc 1 1057 0
 585 0028 0D40     		ands	r5, r1
 586              	.LVL51:
 587 002a A540     		lsls	r5, r5, r4
 588 002c 1D43     		orrs	r5, r3
 589              	.LVL52:
1058:Generated_Source\PSoC4/CyLFClk.c ****             CY_SYS_WDT_CONFIG_REG = configRegValue;
 590              		.loc 1 1058 0
 591 002e 1560     		str	r5, [r2]
 592              	.LVL53:
 593              	.L43:
1059:Generated_Source\PSoC4/CyLFClk.c ****         }
1060:Generated_Source\PSoC4/CyLFClk.c ****     }
 594              		.loc 1 1060 0
 595              		@ sp needed
 596 0030 70BD     		pop	{r4, r5, r6, pc}
 597              	.L47:
 598 0032 C046     		.align	2
 599              	.L46:
 600 0034 0C020B40 		.word	1074463244
 601              		.cfi_endproc
 602              	.LFE10:
 603              		.size	CySysWdtSetMode, .-CySysWdtSetMode
 604              		.section	.text.CySysClkLfclkPosedgeRestore,"ax",%progbits
ARM GAS  C:\Users\VIDEOH~1\AppData\Local\Temp\cc9HpMPY.s 			page 31


 605              		.align	2
 606              		.code	16
 607              		.thumb_func
 608              		.type	CySysClkLfclkPosedgeRestore, %function
 609              	CySysClkLfclkPosedgeRestore:
 610              	.LFB33:
1061:Generated_Source\PSoC4/CyLFClk.c **** 
1062:Generated_Source\PSoC4/CyLFClk.c **** 
1063:Generated_Source\PSoC4/CyLFClk.c ****     /*******************************************************************************
1064:Generated_Source\PSoC4/CyLFClk.c ****     * Function Name: CySysWdtGetMode
1065:Generated_Source\PSoC4/CyLFClk.c ****     ****************************************************************************//**
1066:Generated_Source\PSoC4/CyLFClk.c ****     * 
1067:Generated_Source\PSoC4/CyLFClk.c ****     * \brief Reads the mode of one of the three WDT counters.
1068:Generated_Source\PSoC4/CyLFClk.c ****     *
1069:Generated_Source\PSoC4/CyLFClk.c ****     * \param counterNum Valid range [0-2]. The number of the WDT counter.
1070:Generated_Source\PSoC4/CyLFClk.c ****     *
1071:Generated_Source\PSoC4/CyLFClk.c ****     * \return The mode of the counter. The same enumerated values as the mode 
1072:Generated_Source\PSoC4/CyLFClk.c ****     * parameter used in CySysWdtSetMode().
1073:Generated_Source\PSoC4/CyLFClk.c ****     *
1074:Generated_Source\PSoC4/CyLFClk.c ****     *******************************************************************************/
1075:Generated_Source\PSoC4/CyLFClk.c ****     uint32 CySysWdtGetMode(uint32 counterNum)
1076:Generated_Source\PSoC4/CyLFClk.c ****     {
1077:Generated_Source\PSoC4/CyLFClk.c ****         return ((CY_SYS_WDT_CONFIG_REG >> (counterNum * CY_SYS_WDT_CNT_SHIFT)) & CY_SYS_WDT_MODE_MA
1078:Generated_Source\PSoC4/CyLFClk.c ****     }
1079:Generated_Source\PSoC4/CyLFClk.c **** 
1080:Generated_Source\PSoC4/CyLFClk.c **** 
1081:Generated_Source\PSoC4/CyLFClk.c ****     /*******************************************************************************
1082:Generated_Source\PSoC4/CyLFClk.c ****     * Function Name: CySysWdtSetClearOnMatch
1083:Generated_Source\PSoC4/CyLFClk.c ****     ****************************************************************************//**
1084:Generated_Source\PSoC4/CyLFClk.c ****     * 
1085:Generated_Source\PSoC4/CyLFClk.c ****     * \brief Configures the WDT counter "clear on match" setting.
1086:Generated_Source\PSoC4/CyLFClk.c ****     *
1087:Generated_Source\PSoC4/CyLFClk.c ****     * If configured to "clear on match", the counter counts from 0 to MatchValue
1088:Generated_Source\PSoC4/CyLFClk.c ****     * giving it a period of (MatchValue + 1).
1089:Generated_Source\PSoC4/CyLFClk.c ****     *
1090:Generated_Source\PSoC4/CyLFClk.c ****     * \param counterNum
1091:Generated_Source\PSoC4/CyLFClk.c ****     * Valid range [0-1]. The number of the WDT counter. The match values are not
1092:Generated_Source\PSoC4/CyLFClk.c ****     * supported by counter 2.
1093:Generated_Source\PSoC4/CyLFClk.c ****     *
1094:Generated_Source\PSoC4/CyLFClk.c ****     * \param enable 0 to disable appropriate counter <br>
1095:Generated_Source\PSoC4/CyLFClk.c ****     *  1 to enable appropriate counter
1096:Generated_Source\PSoC4/CyLFClk.c ****     *
1097:Generated_Source\PSoC4/CyLFClk.c ****     * \details
1098:Generated_Source\PSoC4/CyLFClk.c ****     * WDT counter counterNum should be disabled. Otherwise this function call
1099:Generated_Source\PSoC4/CyLFClk.c ****     * has no effect. If the specified counter is enabled, call the CySysWdtDisable()
1100:Generated_Source\PSoC4/CyLFClk.c ****     * function with the corresponding parameter to disable the specified counter and
1101:Generated_Source\PSoC4/CyLFClk.c ****     * wait for it to stop. This may take up to three LFCLK cycles.
1102:Generated_Source\PSoC4/CyLFClk.c ****     *
1103:Generated_Source\PSoC4/CyLFClk.c ****     *******************************************************************************/
1104:Generated_Source\PSoC4/CyLFClk.c ****     void CySysWdtSetClearOnMatch(uint32 counterNum, uint32 enable)
1105:Generated_Source\PSoC4/CyLFClk.c ****     {
1106:Generated_Source\PSoC4/CyLFClk.c ****         uint32 configRegValue;
1107:Generated_Source\PSoC4/CyLFClk.c **** 
1108:Generated_Source\PSoC4/CyLFClk.c ****         CYASSERT((counterNum == CY_SYS_WDT_COUNTER0) ||
1109:Generated_Source\PSoC4/CyLFClk.c ****                  (counterNum == CY_SYS_WDT_COUNTER1));
1110:Generated_Source\PSoC4/CyLFClk.c **** 
1111:Generated_Source\PSoC4/CyLFClk.c ****         if(0u == CySysWdtGetEnabledStatus(counterNum))
ARM GAS  C:\Users\VIDEOH~1\AppData\Local\Temp\cc9HpMPY.s 			page 32


1112:Generated_Source\PSoC4/CyLFClk.c ****         {
1113:Generated_Source\PSoC4/CyLFClk.c ****             configRegValue = CY_SYS_WDT_CONFIG_REG & (uint32)~((uint32)((uint32)1u << 
1114:Generated_Source\PSoC4/CyLFClk.c ****                                      ((counterNum * CY_SYS_WDT_CNT_SHIFT) + CY_SYS_WDT_CNT_MATCH_CL
1115:Generated_Source\PSoC4/CyLFClk.c **** 
1116:Generated_Source\PSoC4/CyLFClk.c ****             configRegValue
1117:Generated_Source\PSoC4/CyLFClk.c ****                 |= (uint32)(enable << ((counterNum * CY_SYS_WDT_CNT_SHIFT) + CY_SYS_WDT_CNT_MATCH_C
1118:Generated_Source\PSoC4/CyLFClk.c **** 
1119:Generated_Source\PSoC4/CyLFClk.c ****             CY_SYS_WDT_CONFIG_REG = configRegValue;
1120:Generated_Source\PSoC4/CyLFClk.c ****         }
1121:Generated_Source\PSoC4/CyLFClk.c ****     }
1122:Generated_Source\PSoC4/CyLFClk.c **** 
1123:Generated_Source\PSoC4/CyLFClk.c **** 
1124:Generated_Source\PSoC4/CyLFClk.c ****     /*******************************************************************************
1125:Generated_Source\PSoC4/CyLFClk.c ****     * Function Name: CySysWdtGetClearOnMatch
1126:Generated_Source\PSoC4/CyLFClk.c ****     ****************************************************************************//**
1127:Generated_Source\PSoC4/CyLFClk.c ****     * \brief
1128:Generated_Source\PSoC4/CyLFClk.c ****     * Reads the "clear on match" setting for the specified counter.
1129:Generated_Source\PSoC4/CyLFClk.c ****     *
1130:Generated_Source\PSoC4/CyLFClk.c ****     * \param
1131:Generated_Source\PSoC4/CyLFClk.c ****     * counterNum Valid range [0-1]. The number of the WDT counter. The match values
1132:Generated_Source\PSoC4/CyLFClk.c ****     * are not supported by counter 2.
1133:Generated_Source\PSoC4/CyLFClk.c ****     *
1134:Generated_Source\PSoC4/CyLFClk.c ****     * \return The "clear on match" status: <br>1 if enabled <br>0 if disabled
1135:Generated_Source\PSoC4/CyLFClk.c ****     *
1136:Generated_Source\PSoC4/CyLFClk.c ****     *******************************************************************************/
1137:Generated_Source\PSoC4/CyLFClk.c ****     uint32 CySysWdtGetClearOnMatch(uint32 counterNum)
1138:Generated_Source\PSoC4/CyLFClk.c ****     {
1139:Generated_Source\PSoC4/CyLFClk.c ****         CYASSERT((counterNum == CY_SYS_WDT_COUNTER0) ||
1140:Generated_Source\PSoC4/CyLFClk.c ****                  (counterNum == CY_SYS_WDT_COUNTER1));
1141:Generated_Source\PSoC4/CyLFClk.c **** 
1142:Generated_Source\PSoC4/CyLFClk.c ****         return (uint32)((CY_SYS_WDT_CONFIG_REG >>
1143:Generated_Source\PSoC4/CyLFClk.c ****                         ((counterNum * CY_SYS_WDT_CNT_SHIFT) + CY_SYS_WDT_CNT_MATCH_CLR_SHIFT)) & 0
1144:Generated_Source\PSoC4/CyLFClk.c ****     }
1145:Generated_Source\PSoC4/CyLFClk.c **** 
1146:Generated_Source\PSoC4/CyLFClk.c **** 
1147:Generated_Source\PSoC4/CyLFClk.c ****     /*******************************************************************************
1148:Generated_Source\PSoC4/CyLFClk.c ****     * Function Name: CySysWdtEnable
1149:Generated_Source\PSoC4/CyLFClk.c ****     ****************************************************************************//**
1150:Generated_Source\PSoC4/CyLFClk.c ****     *
1151:Generated_Source\PSoC4/CyLFClk.c ****     * \brief Enables the specified WDT counters.
1152:Generated_Source\PSoC4/CyLFClk.c ****     *
1153:Generated_Source\PSoC4/CyLFClk.c ****     * All the counters specified in the mask are enabled.
1154:Generated_Source\PSoC4/CyLFClk.c ****     *
1155:Generated_Source\PSoC4/CyLFClk.c ****     * \param counterMask
1156:Generated_Source\PSoC4/CyLFClk.c ****     *  CY_SYS_WDT_COUNTER0_MASK - The mask for counter 0 to enable.<br>
1157:Generated_Source\PSoC4/CyLFClk.c ****     * CY_SYS_WDT_COUNTER1_MASK - The mask for counter 1 to enable.<br>
1158:Generated_Source\PSoC4/CyLFClk.c ****     * CY_SYS_WDT_COUNTER2_MASK - The mask for counter 2 to enable.
1159:Generated_Source\PSoC4/CyLFClk.c ****     *
1160:Generated_Source\PSoC4/CyLFClk.c ****     * \details
1161:Generated_Source\PSoC4/CyLFClk.c ****     * Enabling or disabling WDT requires 3 LFCLK cycles to come into effect.
1162:Generated_Source\PSoC4/CyLFClk.c ****     * Therefore, the WDT enable state must not be changed more than once in
1163:Generated_Source\PSoC4/CyLFClk.c ****     * that period.
1164:Generated_Source\PSoC4/CyLFClk.c ****     *
1165:Generated_Source\PSoC4/CyLFClk.c ****     * After WDT is enabled, it is illegal to write WDT configuration (WDT_CONFIG)
1166:Generated_Source\PSoC4/CyLFClk.c ****     * and control (WDT_CONTROL) registers. This means that all WDT functions that
1167:Generated_Source\PSoC4/CyLFClk.c ****     * contain 'write' in the name (with the exception of CySysWdtSetMatch()
1168:Generated_Source\PSoC4/CyLFClk.c ****     * function) are illegal to call if WDT is enabled.
ARM GAS  C:\Users\VIDEOH~1\AppData\Local\Temp\cc9HpMPY.s 			page 33


1169:Generated_Source\PSoC4/CyLFClk.c ****     *
1170:Generated_Source\PSoC4/CyLFClk.c ****     * PSoC 4100 / PSoC 4200: This function enables ILO.
1171:Generated_Source\PSoC4/CyLFClk.c ****     *
1172:Generated_Source\PSoC4/CyLFClk.c ****     * PSoC 4100 BLE / PSoC 4200 BLE / PSoC4200L / PSoC 4100M 
1173:Generated_Source\PSoC4/CyLFClk.c ****     * / PSoC 4200M:
1174:Generated_Source\PSoC4/CyLFClk.c ****     * LFLCK should be configured before calling this function. The desired
1175:Generated_Source\PSoC4/CyLFClk.c ****     * source should be enabled and configured to be the source for LFCLK.
1176:Generated_Source\PSoC4/CyLFClk.c ****     *
1177:Generated_Source\PSoC4/CyLFClk.c ****     *******************************************************************************/
1178:Generated_Source\PSoC4/CyLFClk.c ****     void CySysWdtEnable(uint32 counterMask)
1179:Generated_Source\PSoC4/CyLFClk.c ****     {
1180:Generated_Source\PSoC4/CyLFClk.c ****         #if (!CY_IP_WCO)
1181:Generated_Source\PSoC4/CyLFClk.c ****             CySysClkIloStart();
1182:Generated_Source\PSoC4/CyLFClk.c ****         #endif /* (!CY_IP_WCO) */
1183:Generated_Source\PSoC4/CyLFClk.c **** 
1184:Generated_Source\PSoC4/CyLFClk.c ****         CY_SYS_WDT_CONTROL_REG |= counterMask;
1185:Generated_Source\PSoC4/CyLFClk.c **** 
1186:Generated_Source\PSoC4/CyLFClk.c ****         if(0u != (counterMask & CY_SYS_WDT_COUNTER0_MASK))
1187:Generated_Source\PSoC4/CyLFClk.c ****         {
1188:Generated_Source\PSoC4/CyLFClk.c ****             while (0u == CySysWdtGetEnabledStatus(CY_SYS_WDT_COUNTER0))
1189:Generated_Source\PSoC4/CyLFClk.c ****             {
1190:Generated_Source\PSoC4/CyLFClk.c ****                 /* Wait for changes to come into effect */
1191:Generated_Source\PSoC4/CyLFClk.c ****             }
1192:Generated_Source\PSoC4/CyLFClk.c ****         }
1193:Generated_Source\PSoC4/CyLFClk.c **** 
1194:Generated_Source\PSoC4/CyLFClk.c ****         if(0u != (counterMask & CY_SYS_WDT_COUNTER1_MASK))
1195:Generated_Source\PSoC4/CyLFClk.c ****         {
1196:Generated_Source\PSoC4/CyLFClk.c ****             while (0u == CySysWdtGetEnabledStatus(CY_SYS_WDT_COUNTER1))
1197:Generated_Source\PSoC4/CyLFClk.c ****             {
1198:Generated_Source\PSoC4/CyLFClk.c ****                 /* Wait for changes to come into effect */
1199:Generated_Source\PSoC4/CyLFClk.c ****             }
1200:Generated_Source\PSoC4/CyLFClk.c ****         }
1201:Generated_Source\PSoC4/CyLFClk.c **** 
1202:Generated_Source\PSoC4/CyLFClk.c ****         if(0u != (counterMask & CY_SYS_WDT_COUNTER2_MASK))
1203:Generated_Source\PSoC4/CyLFClk.c ****         {
1204:Generated_Source\PSoC4/CyLFClk.c ****             while (0u == CySysWdtGetEnabledStatus(CY_SYS_WDT_COUNTER2))
1205:Generated_Source\PSoC4/CyLFClk.c ****             {
1206:Generated_Source\PSoC4/CyLFClk.c ****                 /* Wait for changes to come into effect */
1207:Generated_Source\PSoC4/CyLFClk.c ****             }
1208:Generated_Source\PSoC4/CyLFClk.c ****         }
1209:Generated_Source\PSoC4/CyLFClk.c ****     }
1210:Generated_Source\PSoC4/CyLFClk.c **** 
1211:Generated_Source\PSoC4/CyLFClk.c **** 
1212:Generated_Source\PSoC4/CyLFClk.c ****     /*******************************************************************************
1213:Generated_Source\PSoC4/CyLFClk.c ****     * Function Name: CySysWdtDisable
1214:Generated_Source\PSoC4/CyLFClk.c ****     ****************************************************************************//**
1215:Generated_Source\PSoC4/CyLFClk.c ****     *
1216:Generated_Source\PSoC4/CyLFClk.c ****     * \brief Disables the specified WDT counters.
1217:Generated_Source\PSoC4/CyLFClk.c ****     * All the counters specified in the mask are disabled. The function waits for 
1218:Generated_Source\PSoC4/CyLFClk.c ****     * the changes to come into effect.
1219:Generated_Source\PSoC4/CyLFClk.c ****     *
1220:Generated_Source\PSoC4/CyLFClk.c ****     * \param counterMask
1221:Generated_Source\PSoC4/CyLFClk.c ****     * CY_SYS_WDT_COUNTER0_MASK - The mask for counter 0 to disable. <br>
1222:Generated_Source\PSoC4/CyLFClk.c ****     * CY_SYS_WDT_COUNTER1_MASK - The mask for counter 1 to disable. <br>
1223:Generated_Source\PSoC4/CyLFClk.c ****     * CY_SYS_WDT_COUNTER2_MASK - The mask for counter 2 to disable.
1224:Generated_Source\PSoC4/CyLFClk.c ****     *
1225:Generated_Source\PSoC4/CyLFClk.c ****     *******************************************************************************/
ARM GAS  C:\Users\VIDEOH~1\AppData\Local\Temp\cc9HpMPY.s 			page 34


1226:Generated_Source\PSoC4/CyLFClk.c ****     void CySysWdtDisable(uint32 counterMask)
1227:Generated_Source\PSoC4/CyLFClk.c ****     {
1228:Generated_Source\PSoC4/CyLFClk.c ****         if (0uL == CySysWdtLocked())
1229:Generated_Source\PSoC4/CyLFClk.c ****         {
1230:Generated_Source\PSoC4/CyLFClk.c ****             CY_SYS_WDT_CONTROL_REG &= ~counterMask;
1231:Generated_Source\PSoC4/CyLFClk.c **** 
1232:Generated_Source\PSoC4/CyLFClk.c ****             if(0u != (counterMask & CY_SYS_WDT_COUNTER0_MASK))
1233:Generated_Source\PSoC4/CyLFClk.c ****             {
1234:Generated_Source\PSoC4/CyLFClk.c ****                 while (0u != CySysWdtGetEnabledStatus(CY_SYS_WDT_COUNTER0))
1235:Generated_Source\PSoC4/CyLFClk.c ****                 {
1236:Generated_Source\PSoC4/CyLFClk.c ****                     /* Wait for changes to come into effect */
1237:Generated_Source\PSoC4/CyLFClk.c ****                 }
1238:Generated_Source\PSoC4/CyLFClk.c ****             }
1239:Generated_Source\PSoC4/CyLFClk.c **** 
1240:Generated_Source\PSoC4/CyLFClk.c ****             if(0u != (counterMask & CY_SYS_WDT_COUNTER1_MASK))
1241:Generated_Source\PSoC4/CyLFClk.c ****             {
1242:Generated_Source\PSoC4/CyLFClk.c ****                 while (0u != CySysWdtGetEnabledStatus(CY_SYS_WDT_COUNTER1))
1243:Generated_Source\PSoC4/CyLFClk.c ****                 {
1244:Generated_Source\PSoC4/CyLFClk.c ****                     /* Wait for changes to come into effect */
1245:Generated_Source\PSoC4/CyLFClk.c ****                 }
1246:Generated_Source\PSoC4/CyLFClk.c ****             }
1247:Generated_Source\PSoC4/CyLFClk.c **** 
1248:Generated_Source\PSoC4/CyLFClk.c ****             if(0u != (counterMask & CY_SYS_WDT_COUNTER2_MASK))
1249:Generated_Source\PSoC4/CyLFClk.c ****             {
1250:Generated_Source\PSoC4/CyLFClk.c ****                 while (0u != CySysWdtGetEnabledStatus(CY_SYS_WDT_COUNTER2))
1251:Generated_Source\PSoC4/CyLFClk.c ****                 {
1252:Generated_Source\PSoC4/CyLFClk.c ****                     /* Wait for changes to come into effect */
1253:Generated_Source\PSoC4/CyLFClk.c ****                 }
1254:Generated_Source\PSoC4/CyLFClk.c ****             }
1255:Generated_Source\PSoC4/CyLFClk.c ****         }
1256:Generated_Source\PSoC4/CyLFClk.c ****     }
1257:Generated_Source\PSoC4/CyLFClk.c **** 
1258:Generated_Source\PSoC4/CyLFClk.c **** 
1259:Generated_Source\PSoC4/CyLFClk.c ****     /*******************************************************************************
1260:Generated_Source\PSoC4/CyLFClk.c ****     * Function Name: CySysWdtSetCascade
1261:Generated_Source\PSoC4/CyLFClk.c ****     ****************************************************************************//**
1262:Generated_Source\PSoC4/CyLFClk.c ****     * \brief
1263:Generated_Source\PSoC4/CyLFClk.c ****     * Writes the two WDT cascade values based on the combination of mask values
1264:Generated_Source\PSoC4/CyLFClk.c ****     * specified.
1265:Generated_Source\PSoC4/CyLFClk.c ****     *
1266:Generated_Source\PSoC4/CyLFClk.c ****     * \param cascadeMask The mask value used to set or clear the cascade values:
1267:Generated_Source\PSoC4/CyLFClk.c ****     * CY_SYS_WDT_CASCADE_NONE - Neither <br>
1268:Generated_Source\PSoC4/CyLFClk.c ****     * CY_SYS_WDT_CASCADE_01 - Cascade 01 <br>
1269:Generated_Source\PSoC4/CyLFClk.c ****     * CY_SYS_WDT_CASCADE_12 - Cascade 12
1270:Generated_Source\PSoC4/CyLFClk.c ****     *
1271:Generated_Source\PSoC4/CyLFClk.c ****     * If only one cascade mask is specified, the second cascade is disabled.
1272:Generated_Source\PSoC4/CyLFClk.c ****     * To set both cascade modes, two defines should be ORed:
1273:Generated_Source\PSoC4/CyLFClk.c ****     * (CY_SYS_TIMER_CASCADE_01 | CY_SYS_TIMER_CASCADE_12).
1274:Generated_Source\PSoC4/CyLFClk.c ****     * \note If CySysWdtSetCascade() was called with ORed defines it is necessary 
1275:Generated_Source\PSoC4/CyLFClk.c ****     * to call CySysWdtSetClearOnMatch(1,1). It is needed to make sure that 
1276:Generated_Source\PSoC4/CyLFClk.c ****     * Counter 2 will be updated in the expected way.
1277:Generated_Source\PSoC4/CyLFClk.c ****     *
1278:Generated_Source\PSoC4/CyLFClk.c ****     * WDT counters that are part of the specified cascade should be disabled.
1279:Generated_Source\PSoC4/CyLFClk.c ****     * Otherwise this function call has no effect. If the specified
1280:Generated_Source\PSoC4/CyLFClk.c ****     * counter is enabled, call CySysWdtDisable() function with the corresponding
1281:Generated_Source\PSoC4/CyLFClk.c ****     * parameter to disable the specified counter and wait for it to stop. This may
1282:Generated_Source\PSoC4/CyLFClk.c ****     * take up to 3 LFCLK cycles.
ARM GAS  C:\Users\VIDEOH~1\AppData\Local\Temp\cc9HpMPY.s 			page 35


1283:Generated_Source\PSoC4/CyLFClk.c ****     *
1284:Generated_Source\PSoC4/CyLFClk.c ****     *******************************************************************************/
1285:Generated_Source\PSoC4/CyLFClk.c ****     void CySysWdtSetCascade(uint32 cascadeMask)
1286:Generated_Source\PSoC4/CyLFClk.c ****     {
1287:Generated_Source\PSoC4/CyLFClk.c ****         uint32 configRegValue;
1288:Generated_Source\PSoC4/CyLFClk.c ****         uint32 countersEnableStatus;
1289:Generated_Source\PSoC4/CyLFClk.c **** 
1290:Generated_Source\PSoC4/CyLFClk.c ****         countersEnableStatus = CySysWdtGetEnabledStatus(CY_SYS_WDT_COUNTER0) |
1291:Generated_Source\PSoC4/CyLFClk.c ****                             CySysWdtGetEnabledStatus(CY_SYS_WDT_COUNTER1) |
1292:Generated_Source\PSoC4/CyLFClk.c ****                             CySysWdtGetEnabledStatus(CY_SYS_WDT_COUNTER2);
1293:Generated_Source\PSoC4/CyLFClk.c **** 
1294:Generated_Source\PSoC4/CyLFClk.c ****         if (0u == countersEnableStatus)
1295:Generated_Source\PSoC4/CyLFClk.c ****         {
1296:Generated_Source\PSoC4/CyLFClk.c ****             configRegValue = CY_SYS_WDT_CONFIG_REG;
1297:Generated_Source\PSoC4/CyLFClk.c ****             configRegValue &= ((uint32)(~(CY_SYS_WDT_CASCADE_01|CY_SYS_WDT_CASCADE_12)));
1298:Generated_Source\PSoC4/CyLFClk.c ****             configRegValue |= cascadeMask;
1299:Generated_Source\PSoC4/CyLFClk.c ****             CY_SYS_WDT_CONFIG_REG = configRegValue;
1300:Generated_Source\PSoC4/CyLFClk.c ****         }
1301:Generated_Source\PSoC4/CyLFClk.c ****     }
1302:Generated_Source\PSoC4/CyLFClk.c **** 
1303:Generated_Source\PSoC4/CyLFClk.c **** 
1304:Generated_Source\PSoC4/CyLFClk.c ****     /*******************************************************************************
1305:Generated_Source\PSoC4/CyLFClk.c ****     * Function Name: CySysWdtGetCascade
1306:Generated_Source\PSoC4/CyLFClk.c ****     ****************************************************************************//**
1307:Generated_Source\PSoC4/CyLFClk.c ****     *
1308:Generated_Source\PSoC4/CyLFClk.c ****     * \brief Reads the two WDT cascade values returning a mask of the bits set.
1309:Generated_Source\PSoC4/CyLFClk.c ****     *
1310:Generated_Source\PSoC4/CyLFClk.c ****     * \return The mask of the cascade values set.
1311:Generated_Source\PSoC4/CyLFClk.c ****     * \return CY_SYS_WDT_CASCADE_NONE - Neither
1312:Generated_Source\PSoC4/CyLFClk.c ****     * \return CY_SYS_WDT_CASCADE_01 - Cascade 01
1313:Generated_Source\PSoC4/CyLFClk.c ****     * \return CY_SYS_WDT_CASCADE_12 - Cascade 12
1314:Generated_Source\PSoC4/CyLFClk.c ****     *
1315:Generated_Source\PSoC4/CyLFClk.c ****     *******************************************************************************/
1316:Generated_Source\PSoC4/CyLFClk.c ****     uint32 CySysWdtGetCascade(void)
1317:Generated_Source\PSoC4/CyLFClk.c ****     {
1318:Generated_Source\PSoC4/CyLFClk.c ****         return (CY_SYS_WDT_CONFIG_REG & (CY_SYS_WDT_CASCADE_01 | CY_SYS_WDT_CASCADE_12));
1319:Generated_Source\PSoC4/CyLFClk.c ****     }
1320:Generated_Source\PSoC4/CyLFClk.c **** 
1321:Generated_Source\PSoC4/CyLFClk.c **** 
1322:Generated_Source\PSoC4/CyLFClk.c ****     /*******************************************************************************
1323:Generated_Source\PSoC4/CyLFClk.c ****     * Function Name: CySysWdtSetMatch
1324:Generated_Source\PSoC4/CyLFClk.c ****     ****************************************************************************//**
1325:Generated_Source\PSoC4/CyLFClk.c ****     *
1326:Generated_Source\PSoC4/CyLFClk.c ****     * \brief Configures the WDT counter match comparison value.
1327:Generated_Source\PSoC4/CyLFClk.c ****     *
1328:Generated_Source\PSoC4/CyLFClk.c ****     * \param counterNum
1329:Generated_Source\PSoC4/CyLFClk.c ****     * Valid range [0-1]. The number of the WDT counter. The match values are not
1330:Generated_Source\PSoC4/CyLFClk.c ****     * supported by counter 2.
1331:Generated_Source\PSoC4/CyLFClk.c ****     *
1332:Generated_Source\PSoC4/CyLFClk.c ****     * \param match
1333:Generated_Source\PSoC4/CyLFClk.c ****     * Valid range [0-65535]. The value to be used to match against the counter.
1334:Generated_Source\PSoC4/CyLFClk.c ****     *
1335:Generated_Source\PSoC4/CyLFClk.c ****     *******************************************************************************/
1336:Generated_Source\PSoC4/CyLFClk.c ****     void CySysWdtSetMatch(uint32 counterNum, uint32 match)
1337:Generated_Source\PSoC4/CyLFClk.c ****     {
1338:Generated_Source\PSoC4/CyLFClk.c ****         uint32 regValue;
1339:Generated_Source\PSoC4/CyLFClk.c **** 
ARM GAS  C:\Users\VIDEOH~1\AppData\Local\Temp\cc9HpMPY.s 			page 36


1340:Generated_Source\PSoC4/CyLFClk.c ****         CYASSERT((counterNum == CY_SYS_WDT_COUNTER0) ||
1341:Generated_Source\PSoC4/CyLFClk.c ****                  (counterNum == CY_SYS_WDT_COUNTER1));
1342:Generated_Source\PSoC4/CyLFClk.c **** 
1343:Generated_Source\PSoC4/CyLFClk.c ****         /* Wait for previous changes to come into effect */
1344:Generated_Source\PSoC4/CyLFClk.c ****         CyDelayUs(CY_SYS_WDT_3LFCLK_DELAY_US);
1345:Generated_Source\PSoC4/CyLFClk.c **** 
1346:Generated_Source\PSoC4/CyLFClk.c ****         regValue = CY_SYS_WDT_MATCH_REG;
1347:Generated_Source\PSoC4/CyLFClk.c ****         regValue &= (uint32)~((uint32)(CY_SYS_WDT_LOWER_16BITS_MASK << (counterNum * CY_SYS_WDT_CNT
1348:Generated_Source\PSoC4/CyLFClk.c ****         CY_SYS_WDT_MATCH_REG = (regValue | (match << (counterNum * CY_SYS_WDT_CNT_MATCH_SHIFT)));
1349:Generated_Source\PSoC4/CyLFClk.c **** 
1350:Generated_Source\PSoC4/CyLFClk.c ****         /* Make sure match synchronization has started */
1351:Generated_Source\PSoC4/CyLFClk.c ****         CyDelayUs(CY_SYS_WDT_1LFCLK_DELAY_US);
1352:Generated_Source\PSoC4/CyLFClk.c ****     }
1353:Generated_Source\PSoC4/CyLFClk.c **** 
1354:Generated_Source\PSoC4/CyLFClk.c **** 
1355:Generated_Source\PSoC4/CyLFClk.c ****     /*******************************************************************************
1356:Generated_Source\PSoC4/CyLFClk.c ****     * Function Name: CySysWdtSetToggleBit
1357:Generated_Source\PSoC4/CyLFClk.c ****     ****************************************************************************//**
1358:Generated_Source\PSoC4/CyLFClk.c ****     * \brief
1359:Generated_Source\PSoC4/CyLFClk.c ****     * Configures which bit in WDT counter 2 to monitor for a toggle.
1360:Generated_Source\PSoC4/CyLFClk.c ****     *
1361:Generated_Source\PSoC4/CyLFClk.c ****     * When that bit toggles, an interrupt is generated if the mode for counter 2 has
1362:Generated_Source\PSoC4/CyLFClk.c ****     * enabled interrupts.
1363:Generated_Source\PSoC4/CyLFClk.c ****     *
1364:Generated_Source\PSoC4/CyLFClk.c ****     * \param bits Valid range [0-31].  Counter 2 bit to monitor for a toggle.
1365:Generated_Source\PSoC4/CyLFClk.c ****     *
1366:Generated_Source\PSoC4/CyLFClk.c ****     * \details
1367:Generated_Source\PSoC4/CyLFClk.c ****     * WDT Counter 2 should be disabled. Otherwise this function call has no
1368:Generated_Source\PSoC4/CyLFClk.c ****     * effect.
1369:Generated_Source\PSoC4/CyLFClk.c ****     *
1370:Generated_Source\PSoC4/CyLFClk.c ****     * If the specified counter is enabled, call the CySysWdtDisable() function with
1371:Generated_Source\PSoC4/CyLFClk.c ****     * the corresponding parameter to disable the specified counter and wait for it to
1372:Generated_Source\PSoC4/CyLFClk.c ****     * stop. This may take up to 3 LFCLK cycles.
1373:Generated_Source\PSoC4/CyLFClk.c ****     *
1374:Generated_Source\PSoC4/CyLFClk.c ****     *******************************************************************************/
1375:Generated_Source\PSoC4/CyLFClk.c ****     void CySysWdtSetToggleBit(uint32 bits)
1376:Generated_Source\PSoC4/CyLFClk.c ****     {
1377:Generated_Source\PSoC4/CyLFClk.c ****         uint32 configRegValue;
1378:Generated_Source\PSoC4/CyLFClk.c **** 
1379:Generated_Source\PSoC4/CyLFClk.c ****         if (0u == CySysWdtGetEnabledStatus(CY_SYS_WDT_COUNTER2))
1380:Generated_Source\PSoC4/CyLFClk.c ****         {
1381:Generated_Source\PSoC4/CyLFClk.c ****             configRegValue = CY_SYS_WDT_CONFIG_REG;
1382:Generated_Source\PSoC4/CyLFClk.c ****             configRegValue &= (uint32)(~((uint32)(CY_SYS_WDT_CONFIG_BITS2_MASK << CY_SYS_WDT_CONFIG
1383:Generated_Source\PSoC4/CyLFClk.c ****             configRegValue |= ((bits & CY_SYS_WDT_CONFIG_BITS2_MASK) << CY_SYS_WDT_CONFIG_BITS2_POS
1384:Generated_Source\PSoC4/CyLFClk.c ****             CY_SYS_WDT_CONFIG_REG = configRegValue;
1385:Generated_Source\PSoC4/CyLFClk.c ****         }
1386:Generated_Source\PSoC4/CyLFClk.c ****     }
1387:Generated_Source\PSoC4/CyLFClk.c **** 
1388:Generated_Source\PSoC4/CyLFClk.c **** 
1389:Generated_Source\PSoC4/CyLFClk.c ****     /*******************************************************************************
1390:Generated_Source\PSoC4/CyLFClk.c ****     * Function Name: CySysWdtGetToggleBit
1391:Generated_Source\PSoC4/CyLFClk.c ****     ****************************************************************************//**
1392:Generated_Source\PSoC4/CyLFClk.c ****     * \brief
1393:Generated_Source\PSoC4/CyLFClk.c ****     * Reads which bit in WDT counter 2 is monitored for a toggle.
1394:Generated_Source\PSoC4/CyLFClk.c ****     *
1395:Generated_Source\PSoC4/CyLFClk.c ****     * \return The bit that is monitored (range of 0 to 31)
1396:Generated_Source\PSoC4/CyLFClk.c ****     *
ARM GAS  C:\Users\VIDEOH~1\AppData\Local\Temp\cc9HpMPY.s 			page 37


1397:Generated_Source\PSoC4/CyLFClk.c ****     *******************************************************************************/
1398:Generated_Source\PSoC4/CyLFClk.c ****     uint32 CySysWdtGetToggleBit(void)
1399:Generated_Source\PSoC4/CyLFClk.c ****     {
1400:Generated_Source\PSoC4/CyLFClk.c ****         return ((CY_SYS_WDT_CONFIG_REG >> CY_SYS_WDT_CONFIG_BITS2_POS) & CY_SYS_WDT_CONFIG_BITS2_MA
1401:Generated_Source\PSoC4/CyLFClk.c ****     }
1402:Generated_Source\PSoC4/CyLFClk.c **** 
1403:Generated_Source\PSoC4/CyLFClk.c **** 
1404:Generated_Source\PSoC4/CyLFClk.c ****     /*******************************************************************************
1405:Generated_Source\PSoC4/CyLFClk.c ****     * Function Name: CySysWdtGetMatch
1406:Generated_Source\PSoC4/CyLFClk.c ****     ****************************************************************************//**
1407:Generated_Source\PSoC4/CyLFClk.c ****     *
1408:Generated_Source\PSoC4/CyLFClk.c ****     * \brief Reads the WDT counter match comparison value.
1409:Generated_Source\PSoC4/CyLFClk.c ****     *
1410:Generated_Source\PSoC4/CyLFClk.c ****     * \param counterNum Valid range [0-1].  The number of the WDT counter. The match
1411:Generated_Source\PSoC4/CyLFClk.c ****     * values are not supported by counter 2.
1412:Generated_Source\PSoC4/CyLFClk.c ****     *
1413:Generated_Source\PSoC4/CyLFClk.c ****     * \return A 16-bit match value.
1414:Generated_Source\PSoC4/CyLFClk.c ****     *
1415:Generated_Source\PSoC4/CyLFClk.c ****     *******************************************************************************/
1416:Generated_Source\PSoC4/CyLFClk.c ****     uint32 CySysWdtGetMatch(uint32 counterNum)
1417:Generated_Source\PSoC4/CyLFClk.c ****     {
1418:Generated_Source\PSoC4/CyLFClk.c ****         CYASSERT((counterNum == CY_SYS_WDT_COUNTER0) ||
1419:Generated_Source\PSoC4/CyLFClk.c ****                  (counterNum == CY_SYS_WDT_COUNTER1));
1420:Generated_Source\PSoC4/CyLFClk.c **** 
1421:Generated_Source\PSoC4/CyLFClk.c ****         return ((uint32)(CY_SYS_WDT_MATCH_REG >> 
1422:Generated_Source\PSoC4/CyLFClk.c ****                                             (counterNum * CY_SYS_WDT_CNT_MATCH_SHIFT)) & CY_SYS_WDT
1423:Generated_Source\PSoC4/CyLFClk.c ****     }
1424:Generated_Source\PSoC4/CyLFClk.c **** 
1425:Generated_Source\PSoC4/CyLFClk.c **** 
1426:Generated_Source\PSoC4/CyLFClk.c ****     /*******************************************************************************
1427:Generated_Source\PSoC4/CyLFClk.c ****     * Function Name: CySysWdtGetCount
1428:Generated_Source\PSoC4/CyLFClk.c ****     ****************************************************************************//**
1429:Generated_Source\PSoC4/CyLFClk.c ****     *
1430:Generated_Source\PSoC4/CyLFClk.c ****     * \brief Reads the current WDT counter value.
1431:Generated_Source\PSoC4/CyLFClk.c ****     *
1432:Generated_Source\PSoC4/CyLFClk.c ****     * \param counterNum: Valid range [0-2]. The number of the WDT counter.
1433:Generated_Source\PSoC4/CyLFClk.c ****     *
1434:Generated_Source\PSoC4/CyLFClk.c ****     * \return A live counter value.  Counter 0 and Counter 1 are 16 bit counters 
1435:Generated_Source\PSoC4/CyLFClk.c ****     * and counter 2 is a 32 bit counter.
1436:Generated_Source\PSoC4/CyLFClk.c ****     *
1437:Generated_Source\PSoC4/CyLFClk.c ****     *******************************************************************************/
1438:Generated_Source\PSoC4/CyLFClk.c ****     uint32 CySysWdtGetCount(uint32 counterNum)
1439:Generated_Source\PSoC4/CyLFClk.c ****     {
1440:Generated_Source\PSoC4/CyLFClk.c ****         uint32 regValue = 0u;
1441:Generated_Source\PSoC4/CyLFClk.c **** 
1442:Generated_Source\PSoC4/CyLFClk.c ****         switch(counterNum)
1443:Generated_Source\PSoC4/CyLFClk.c ****         {
1444:Generated_Source\PSoC4/CyLFClk.c ****             /* WDT Counter 0 */
1445:Generated_Source\PSoC4/CyLFClk.c ****             case 0u:
1446:Generated_Source\PSoC4/CyLFClk.c ****                 regValue = CY_SYS_WDT_CTRLOW_REG & CY_SYS_WDT_LOWER_16BITS_MASK;
1447:Generated_Source\PSoC4/CyLFClk.c ****             break;
1448:Generated_Source\PSoC4/CyLFClk.c **** 
1449:Generated_Source\PSoC4/CyLFClk.c ****             /* WDT Counter 1 */
1450:Generated_Source\PSoC4/CyLFClk.c ****             case 1u:
1451:Generated_Source\PSoC4/CyLFClk.c ****                 regValue = (CY_SYS_WDT_CTRLOW_REG >> CY_SYS_WDT_CNT_MATCH_SHIFT) & CY_SYS_WDT_LOWER
1452:Generated_Source\PSoC4/CyLFClk.c ****             break;
1453:Generated_Source\PSoC4/CyLFClk.c **** 
ARM GAS  C:\Users\VIDEOH~1\AppData\Local\Temp\cc9HpMPY.s 			page 38


1454:Generated_Source\PSoC4/CyLFClk.c ****             /* WDT Counter 2 */
1455:Generated_Source\PSoC4/CyLFClk.c ****             case 2u:
1456:Generated_Source\PSoC4/CyLFClk.c ****                 regValue = CY_SYS_WDT_CTRHIGH_REG;
1457:Generated_Source\PSoC4/CyLFClk.c ****             break;
1458:Generated_Source\PSoC4/CyLFClk.c **** 
1459:Generated_Source\PSoC4/CyLFClk.c ****             default:
1460:Generated_Source\PSoC4/CyLFClk.c ****                 CYASSERT(0u != 0u);
1461:Generated_Source\PSoC4/CyLFClk.c ****             break;
1462:Generated_Source\PSoC4/CyLFClk.c ****         }
1463:Generated_Source\PSoC4/CyLFClk.c **** 
1464:Generated_Source\PSoC4/CyLFClk.c ****         return (regValue);
1465:Generated_Source\PSoC4/CyLFClk.c ****     }
1466:Generated_Source\PSoC4/CyLFClk.c **** 
1467:Generated_Source\PSoC4/CyLFClk.c **** 
1468:Generated_Source\PSoC4/CyLFClk.c ****     /*******************************************************************************
1469:Generated_Source\PSoC4/CyLFClk.c ****     * Function Name: CySysWdtGetInterruptSource
1470:Generated_Source\PSoC4/CyLFClk.c ****     ****************************************************************************//**
1471:Generated_Source\PSoC4/CyLFClk.c ****     * \brief
1472:Generated_Source\PSoC4/CyLFClk.c ****     * Reads a mask containing all the WDT counters interrupts that are currently
1473:Generated_Source\PSoC4/CyLFClk.c ****     * set by the hardware, if a corresponding mode is selected.
1474:Generated_Source\PSoC4/CyLFClk.c ****     *
1475:Generated_Source\PSoC4/CyLFClk.c ****     * \return The mask of interrupts set
1476:Generated_Source\PSoC4/CyLFClk.c ****     * \return CY_SYS_WDT_COUNTER0_INT - Counter 0
1477:Generated_Source\PSoC4/CyLFClk.c ****     * \return CY_SYS_WDT_COUNTER1_INT - Counter 1
1478:Generated_Source\PSoC4/CyLFClk.c ****     * \return CY_SYS_WDT_COUNTER2_INT - Counter 2
1479:Generated_Source\PSoC4/CyLFClk.c ****     *
1480:Generated_Source\PSoC4/CyLFClk.c ****     *******************************************************************************/
1481:Generated_Source\PSoC4/CyLFClk.c ****     uint32 CySysWdtGetInterruptSource(void)
1482:Generated_Source\PSoC4/CyLFClk.c ****     {
1483:Generated_Source\PSoC4/CyLFClk.c ****         return (CY_SYS_WDT_CONTROL_REG & (CY_SYS_WDT_COUNTER0_INT | CY_SYS_WDT_COUNTER1_INT | CY_SY
1484:Generated_Source\PSoC4/CyLFClk.c ****     }
1485:Generated_Source\PSoC4/CyLFClk.c **** 
1486:Generated_Source\PSoC4/CyLFClk.c **** 
1487:Generated_Source\PSoC4/CyLFClk.c ****     /*******************************************************************************
1488:Generated_Source\PSoC4/CyLFClk.c ****     * Function Name: CySysWdtClearInterrupt
1489:Generated_Source\PSoC4/CyLFClk.c ****     ****************************************************************************//**
1490:Generated_Source\PSoC4/CyLFClk.c ****     * \brief
1491:Generated_Source\PSoC4/CyLFClk.c ****     * Clears all the WDT counter interrupts set in the mask.
1492:Generated_Source\PSoC4/CyLFClk.c ****     *
1493:Generated_Source\PSoC4/CyLFClk.c ****     * Calling this function also prevents from Reset when the counter mode is set 
1494:Generated_Source\PSoC4/CyLFClk.c ****     * to generate 3 interrupts and then the device resets.
1495:Generated_Source\PSoC4/CyLFClk.c ****     *
1496:Generated_Source\PSoC4/CyLFClk.c ****     * All the WDT interrupts are to be cleared by the firmware, otherwise
1497:Generated_Source\PSoC4/CyLFClk.c ****     * interrupts are generated continuously.
1498:Generated_Source\PSoC4/CyLFClk.c ****     *
1499:Generated_Source\PSoC4/CyLFClk.c ****     * \param counterMask
1500:Generated_Source\PSoC4/CyLFClk.c ****     * CY_SYS_WDT_COUNTER0_INT - Clears counter 0 interrupts <br>
1501:Generated_Source\PSoC4/CyLFClk.c ****     * CY_SYS_WDT_COUNTER1_INT - Clears counter 1 interrupts <br>
1502:Generated_Source\PSoC4/CyLFClk.c ****     * CY_SYS_WDT_COUNTER2_INT - Clears counter 2 interrupts
1503:Generated_Source\PSoC4/CyLFClk.c ****     *
1504:Generated_Source\PSoC4/CyLFClk.c ****     * \details
1505:Generated_Source\PSoC4/CyLFClk.c ****     * This function temporary removes the watchdog lock, if it was set, and
1506:Generated_Source\PSoC4/CyLFClk.c ****     * restores the lock state after cleaning the WDT interrupts that are set in
1507:Generated_Source\PSoC4/CyLFClk.c ****     * a mask.
1508:Generated_Source\PSoC4/CyLFClk.c ****     *
1509:Generated_Source\PSoC4/CyLFClk.c ****     *******************************************************************************/
1510:Generated_Source\PSoC4/CyLFClk.c ****     void CySysWdtClearInterrupt(uint32 counterMask)
ARM GAS  C:\Users\VIDEOH~1\AppData\Local\Temp\cc9HpMPY.s 			page 39


1511:Generated_Source\PSoC4/CyLFClk.c ****     {
1512:Generated_Source\PSoC4/CyLFClk.c ****         uint8 interruptState;
1513:Generated_Source\PSoC4/CyLFClk.c ****         uint32 wdtLockState;
1514:Generated_Source\PSoC4/CyLFClk.c **** 
1515:Generated_Source\PSoC4/CyLFClk.c ****         interruptState = CyEnterCriticalSection();
1516:Generated_Source\PSoC4/CyLFClk.c **** 
1517:Generated_Source\PSoC4/CyLFClk.c ****         if (0u != CySysWdtLocked())
1518:Generated_Source\PSoC4/CyLFClk.c ****         {
1519:Generated_Source\PSoC4/CyLFClk.c ****             wdtLockState = 1u;
1520:Generated_Source\PSoC4/CyLFClk.c ****             CySysWdtUnlock();
1521:Generated_Source\PSoC4/CyLFClk.c ****         }
1522:Generated_Source\PSoC4/CyLFClk.c ****         else
1523:Generated_Source\PSoC4/CyLFClk.c ****         {
1524:Generated_Source\PSoC4/CyLFClk.c ****             wdtLockState = 0u;
1525:Generated_Source\PSoC4/CyLFClk.c ****         }
1526:Generated_Source\PSoC4/CyLFClk.c **** 
1527:Generated_Source\PSoC4/CyLFClk.c ****         /* Set new WDT control register value */
1528:Generated_Source\PSoC4/CyLFClk.c ****         counterMask &= (CY_SYS_WDT_COUNTER0_INT |
1529:Generated_Source\PSoC4/CyLFClk.c ****                         CY_SYS_WDT_COUNTER1_INT |
1530:Generated_Source\PSoC4/CyLFClk.c ****                         CY_SYS_WDT_COUNTER2_INT);
1531:Generated_Source\PSoC4/CyLFClk.c **** 
1532:Generated_Source\PSoC4/CyLFClk.c ****         CY_SYS_WDT_CONTROL_REG = counterMask | (CY_SYS_WDT_CONTROL_REG & ~(CY_SYS_WDT_COUNTER0_INT 
1533:Generated_Source\PSoC4/CyLFClk.c ****                                                                            CY_SYS_WDT_COUNTER1_INT 
1534:Generated_Source\PSoC4/CyLFClk.c ****                                                                            CY_SYS_WDT_COUNTER2_INT)
1535:Generated_Source\PSoC4/CyLFClk.c **** 
1536:Generated_Source\PSoC4/CyLFClk.c ****         /* Read the CY_SYS_WDT_CONTROL_REG to clear the interrupt request.
1537:Generated_Source\PSoC4/CyLFClk.c ****          * Cypress ID #207093, #206231
1538:Generated_Source\PSoC4/CyLFClk.c ****         */
1539:Generated_Source\PSoC4/CyLFClk.c ****         (void)CY_SYS_WDT_CONTROL_REG;
1540:Generated_Source\PSoC4/CyLFClk.c **** 
1541:Generated_Source\PSoC4/CyLFClk.c ****         if (1u == wdtLockState)
1542:Generated_Source\PSoC4/CyLFClk.c ****         {
1543:Generated_Source\PSoC4/CyLFClk.c ****             CySysWdtLock();
1544:Generated_Source\PSoC4/CyLFClk.c ****         }
1545:Generated_Source\PSoC4/CyLFClk.c **** 
1546:Generated_Source\PSoC4/CyLFClk.c ****         CyExitCriticalSection(interruptState);
1547:Generated_Source\PSoC4/CyLFClk.c ****     }
1548:Generated_Source\PSoC4/CyLFClk.c **** 
1549:Generated_Source\PSoC4/CyLFClk.c **** 
1550:Generated_Source\PSoC4/CyLFClk.c ****     /*******************************************************************************
1551:Generated_Source\PSoC4/CyLFClk.c ****     * Function Name: CySysWdtResetCounters
1552:Generated_Source\PSoC4/CyLFClk.c ****     ****************************************************************************//**
1553:Generated_Source\PSoC4/CyLFClk.c ****     * \brief
1554:Generated_Source\PSoC4/CyLFClk.c ****     * Resets all the WDT counters set in the mask.
1555:Generated_Source\PSoC4/CyLFClk.c ****     *
1556:Generated_Source\PSoC4/CyLFClk.c ****     * \param countersMask
1557:Generated_Source\PSoC4/CyLFClk.c ****     * CY_SYS_WDT_COUNTER0_RESET - Reset counter 0 <br>
1558:Generated_Source\PSoC4/CyLFClk.c ****     * CY_SYS_WDT_COUNTER1_RESET - Reset counter 1 <br>
1559:Generated_Source\PSoC4/CyLFClk.c ****     * CY_SYS_WDT_COUNTER2_RESET - Reset counter 2
1560:Generated_Source\PSoC4/CyLFClk.c ****     *
1561:Generated_Source\PSoC4/CyLFClk.c ****     * \details
1562:Generated_Source\PSoC4/CyLFClk.c ****     * This function does not reset counter values if the Watchdog is locked.
1563:Generated_Source\PSoC4/CyLFClk.c ****     * This function waits while corresponding counters will be reset. This may
1564:Generated_Source\PSoC4/CyLFClk.c ****     * take up to 3 LFCLK cycles.
1565:Generated_Source\PSoC4/CyLFClk.c ****     * The LFCLK source must be enabled. Otherwise, the function will never exit.
1566:Generated_Source\PSoC4/CyLFClk.c ****     *
1567:Generated_Source\PSoC4/CyLFClk.c ****     *******************************************************************************/
ARM GAS  C:\Users\VIDEOH~1\AppData\Local\Temp\cc9HpMPY.s 			page 40


1568:Generated_Source\PSoC4/CyLFClk.c ****     void CySysWdtResetCounters(uint32 countersMask)
1569:Generated_Source\PSoC4/CyLFClk.c ****     {
1570:Generated_Source\PSoC4/CyLFClk.c ****         /* Set new WDT reset value */
1571:Generated_Source\PSoC4/CyLFClk.c ****         CY_SYS_WDT_CONTROL_REG |= (countersMask & CY_SYS_WDT_COUNTERS_RESET);
1572:Generated_Source\PSoC4/CyLFClk.c **** 
1573:Generated_Source\PSoC4/CyLFClk.c ****         while (0uL != (CY_SYS_WDT_CONTROL_REG & CY_SYS_WDT_COUNTERS_RESET))
1574:Generated_Source\PSoC4/CyLFClk.c ****         {
1575:Generated_Source\PSoC4/CyLFClk.c ****             /* Wait for reset to come into effect */
1576:Generated_Source\PSoC4/CyLFClk.c ****         }
1577:Generated_Source\PSoC4/CyLFClk.c ****     }
1578:Generated_Source\PSoC4/CyLFClk.c **** 
1579:Generated_Source\PSoC4/CyLFClk.c **** 
1580:Generated_Source\PSoC4/CyLFClk.c ****     /*******************************************************************************
1581:Generated_Source\PSoC4/CyLFClk.c ****     * Function Name: CySysWdtSetInterruptCallback
1582:Generated_Source\PSoC4/CyLFClk.c ****     ****************************************************************************//**
1583:Generated_Source\PSoC4/CyLFClk.c ****     * \brief
1584:Generated_Source\PSoC4/CyLFClk.c ****     * Sets the ISR callback function for the particular WDT counter.
1585:Generated_Source\PSoC4/CyLFClk.c ****     * These functions are called on the WDT interrupt.
1586:Generated_Source\PSoC4/CyLFClk.c ****     *
1587:Generated_Source\PSoC4/CyLFClk.c ****     * \param counterNum The number of the WDT counter.
1588:Generated_Source\PSoC4/CyLFClk.c ****     * \param function The pointer to the callback function.
1589:Generated_Source\PSoC4/CyLFClk.c ****     *
1590:Generated_Source\PSoC4/CyLFClk.c ****     * \return The pointer to the previous callback function.
1591:Generated_Source\PSoC4/CyLFClk.c ****     * \return NULL is returned if the specified address is not set.
1592:Generated_Source\PSoC4/CyLFClk.c ****     *
1593:Generated_Source\PSoC4/CyLFClk.c ****     *******************************************************************************/
1594:Generated_Source\PSoC4/CyLFClk.c ****     cyWdtCallback CySysWdtSetInterruptCallback(uint32 counterNum, cyWdtCallback function)
1595:Generated_Source\PSoC4/CyLFClk.c ****     {
1596:Generated_Source\PSoC4/CyLFClk.c ****         cyWdtCallback prevCallback = (void *)0;
1597:Generated_Source\PSoC4/CyLFClk.c **** 
1598:Generated_Source\PSoC4/CyLFClk.c ****         if(counterNum < CY_WDT_NUM_OF_WDT)
1599:Generated_Source\PSoC4/CyLFClk.c ****         {
1600:Generated_Source\PSoC4/CyLFClk.c ****             prevCallback = cySysWdtCallback[counterNum];
1601:Generated_Source\PSoC4/CyLFClk.c ****             cySysWdtCallback[counterNum] = function;
1602:Generated_Source\PSoC4/CyLFClk.c ****         }
1603:Generated_Source\PSoC4/CyLFClk.c ****         else
1604:Generated_Source\PSoC4/CyLFClk.c ****         {
1605:Generated_Source\PSoC4/CyLFClk.c ****             CYASSERT(0u != 0u);
1606:Generated_Source\PSoC4/CyLFClk.c ****         }
1607:Generated_Source\PSoC4/CyLFClk.c **** 
1608:Generated_Source\PSoC4/CyLFClk.c ****         return((cyWdtCallback)prevCallback);
1609:Generated_Source\PSoC4/CyLFClk.c ****     }
1610:Generated_Source\PSoC4/CyLFClk.c **** 
1611:Generated_Source\PSoC4/CyLFClk.c **** 
1612:Generated_Source\PSoC4/CyLFClk.c ****     /*******************************************************************************
1613:Generated_Source\PSoC4/CyLFClk.c ****     * Function Name: CySysWdtGetInterruptCallback
1614:Generated_Source\PSoC4/CyLFClk.c ****     ****************************************************************************//**
1615:Generated_Source\PSoC4/CyLFClk.c ****     * \brief
1616:Generated_Source\PSoC4/CyLFClk.c ****     * Gets the ISR callback function for the particular WDT counter.
1617:Generated_Source\PSoC4/CyLFClk.c ****     *
1618:Generated_Source\PSoC4/CyLFClk.c ****     * \param counterNum The number of the WDT counter.
1619:Generated_Source\PSoC4/CyLFClk.c ****     *
1620:Generated_Source\PSoC4/CyLFClk.c ****     * \return The pointer to the callback function registered for a particular WDT by
1621:Generated_Source\PSoC4/CyLFClk.c ****     * a particular address that are passed through arguments.
1622:Generated_Source\PSoC4/CyLFClk.c ****     *
1623:Generated_Source\PSoC4/CyLFClk.c ****     *******************************************************************************/
1624:Generated_Source\PSoC4/CyLFClk.c ****     cyWdtCallback CySysWdtGetInterruptCallback(uint32 counterNum)
ARM GAS  C:\Users\VIDEOH~1\AppData\Local\Temp\cc9HpMPY.s 			page 41


1625:Generated_Source\PSoC4/CyLFClk.c ****     {
1626:Generated_Source\PSoC4/CyLFClk.c ****         cyWdtCallback retCallback = (void *)0;
1627:Generated_Source\PSoC4/CyLFClk.c **** 
1628:Generated_Source\PSoC4/CyLFClk.c ****         if(counterNum < CY_WDT_NUM_OF_WDT)
1629:Generated_Source\PSoC4/CyLFClk.c ****         {
1630:Generated_Source\PSoC4/CyLFClk.c ****             retCallback = (cyWdtCallback)cySysWdtCallback[counterNum];
1631:Generated_Source\PSoC4/CyLFClk.c ****         }
1632:Generated_Source\PSoC4/CyLFClk.c ****         else
1633:Generated_Source\PSoC4/CyLFClk.c ****         {
1634:Generated_Source\PSoC4/CyLFClk.c ****             CYASSERT(0u != 0u);
1635:Generated_Source\PSoC4/CyLFClk.c ****         }
1636:Generated_Source\PSoC4/CyLFClk.c **** 
1637:Generated_Source\PSoC4/CyLFClk.c ****         return(retCallback);
1638:Generated_Source\PSoC4/CyLFClk.c ****     }
1639:Generated_Source\PSoC4/CyLFClk.c **** 
1640:Generated_Source\PSoC4/CyLFClk.c **** 
1641:Generated_Source\PSoC4/CyLFClk.c ****     /*******************************************************************************
1642:Generated_Source\PSoC4/CyLFClk.c ****     * Function Name: CySysWdtEnableCounterIsr
1643:Generated_Source\PSoC4/CyLFClk.c ****     ****************************************************************************//**
1644:Generated_Source\PSoC4/CyLFClk.c ****     * \brief
1645:Generated_Source\PSoC4/CyLFClk.c ****     * Enables the ISR callback servicing for the particular WDT counter
1646:Generated_Source\PSoC4/CyLFClk.c ****     *
1647:Generated_Source\PSoC4/CyLFClk.c ****     * \param counterNum Valid range [0-2]. The number of the WDT counter.
1648:Generated_Source\PSoC4/CyLFClk.c ****     *
1649:Generated_Source\PSoC4/CyLFClk.c ****     * Value corresponds to appropriate WDT counter. For example value 1 
1650:Generated_Source\PSoC4/CyLFClk.c ****     * corresponds to second WDT counter.
1651:Generated_Source\PSoC4/CyLFClk.c ****     *
1652:Generated_Source\PSoC4/CyLFClk.c ****     *******************************************************************************/
1653:Generated_Source\PSoC4/CyLFClk.c ****     void CySysWdtEnableCounterIsr(uint32 counterNum)
1654:Generated_Source\PSoC4/CyLFClk.c ****     {
1655:Generated_Source\PSoC4/CyLFClk.c ****         if(counterNum <= CY_SYS_WDT_COUNTER2)
1656:Generated_Source\PSoC4/CyLFClk.c ****         {
1657:Generated_Source\PSoC4/CyLFClk.c ****             disableServicedIsr &= ~counterIntMaskTbl[counterNum];
1658:Generated_Source\PSoC4/CyLFClk.c ****             wdtIsrMask |= counterIntMaskTbl[counterNum];
1659:Generated_Source\PSoC4/CyLFClk.c ****         }
1660:Generated_Source\PSoC4/CyLFClk.c ****         else
1661:Generated_Source\PSoC4/CyLFClk.c ****         {
1662:Generated_Source\PSoC4/CyLFClk.c ****             CYASSERT(0u != 0u);
1663:Generated_Source\PSoC4/CyLFClk.c ****         }
1664:Generated_Source\PSoC4/CyLFClk.c ****     }
1665:Generated_Source\PSoC4/CyLFClk.c **** 
1666:Generated_Source\PSoC4/CyLFClk.c **** 
1667:Generated_Source\PSoC4/CyLFClk.c ****     /*******************************************************************************
1668:Generated_Source\PSoC4/CyLFClk.c ****     * Function Name: CySysWdtDisableCounterIsr
1669:Generated_Source\PSoC4/CyLFClk.c ****     ****************************************************************************//**
1670:Generated_Source\PSoC4/CyLFClk.c ****     * \brief
1671:Generated_Source\PSoC4/CyLFClk.c ****     * Disables the ISR callback servicing for the particular WDT counter
1672:Generated_Source\PSoC4/CyLFClk.c ****     *
1673:Generated_Source\PSoC4/CyLFClk.c ****     * \param counterNum Valid range [0-2]. The number of the WDT counter.
1674:Generated_Source\PSoC4/CyLFClk.c ****     *
1675:Generated_Source\PSoC4/CyLFClk.c ****     *******************************************************************************/
1676:Generated_Source\PSoC4/CyLFClk.c ****     void CySysWdtDisableCounterIsr(uint32 counterNum)
1677:Generated_Source\PSoC4/CyLFClk.c ****     {
1678:Generated_Source\PSoC4/CyLFClk.c ****         if(counterNum <= CY_SYS_WDT_COUNTER2)
1679:Generated_Source\PSoC4/CyLFClk.c ****         {
1680:Generated_Source\PSoC4/CyLFClk.c ****             wdtIsrMask &= ~counterIntMaskTbl[counterNum];
1681:Generated_Source\PSoC4/CyLFClk.c ****         }
ARM GAS  C:\Users\VIDEOH~1\AppData\Local\Temp\cc9HpMPY.s 			page 42


1682:Generated_Source\PSoC4/CyLFClk.c ****         else
1683:Generated_Source\PSoC4/CyLFClk.c ****         {
1684:Generated_Source\PSoC4/CyLFClk.c ****             CYASSERT(0u != 0u);
1685:Generated_Source\PSoC4/CyLFClk.c ****         }
1686:Generated_Source\PSoC4/CyLFClk.c ****     }
1687:Generated_Source\PSoC4/CyLFClk.c **** 
1688:Generated_Source\PSoC4/CyLFClk.c **** 
1689:Generated_Source\PSoC4/CyLFClk.c ****     /*******************************************************************************
1690:Generated_Source\PSoC4/CyLFClk.c ****     * Function Name: CySysWdtIsr
1691:Generated_Source\PSoC4/CyLFClk.c ****     ****************************************************************************//**
1692:Generated_Source\PSoC4/CyLFClk.c ****     * \brief
1693:Generated_Source\PSoC4/CyLFClk.c ****     * This is the handler of the WDT interrupt in CPU NVIC.
1694:Generated_Source\PSoC4/CyLFClk.c ****     *
1695:Generated_Source\PSoC4/CyLFClk.c ****     * The handler checks which WDT triggered in the interrupt and calls the 
1696:Generated_Source\PSoC4/CyLFClk.c ****     * respective callback functions configured by the user by using 
1697:Generated_Source\PSoC4/CyLFClk.c ****     * CySysWdtSetIsrCallback() API.
1698:Generated_Source\PSoC4/CyLFClk.c ****     *
1699:Generated_Source\PSoC4/CyLFClk.c ****     * The order of the callback execution is incremental. Callback-0 is
1700:Generated_Source\PSoC4/CyLFClk.c ****     * run as the first one and callback-2 is called as the last one.
1701:Generated_Source\PSoC4/CyLFClk.c ****     *
1702:Generated_Source\PSoC4/CyLFClk.c ****     * \details
1703:Generated_Source\PSoC4/CyLFClk.c ****     * This function clears the WDT interrupt every time when it is called.
1704:Generated_Source\PSoC4/CyLFClk.c ****     * Reset after the 3rd interrupt does not happen if this function is registered
1705:Generated_Source\PSoC4/CyLFClk.c ****     * as the interrupt handler even if the "Watchdog with Interrupt" mode is
1706:Generated_Source\PSoC4/CyLFClk.c ****     * selected on the "Low Frequency Clocks" tab.
1707:Generated_Source\PSoC4/CyLFClk.c ****     *
1708:Generated_Source\PSoC4/CyLFClk.c ****     *******************************************************************************/
1709:Generated_Source\PSoC4/CyLFClk.c ****     void CySysWdtIsr(void)
1710:Generated_Source\PSoC4/CyLFClk.c ****     {
1711:Generated_Source\PSoC4/CyLFClk.c ****         if(0u != (CY_SYS_WDT_COUNTER0_INT & CY_SYS_WDT_CONTROL_REG))
1712:Generated_Source\PSoC4/CyLFClk.c ****         {
1713:Generated_Source\PSoC4/CyLFClk.c ****             if(0u != (CY_SYS_WDT_COUNTER0_INT & wdtIsrMask))
1714:Generated_Source\PSoC4/CyLFClk.c ****             {
1715:Generated_Source\PSoC4/CyLFClk.c ****                 wdtIsrMask &= ~(disableServicedIsr & CY_SYS_WDT_COUNTER0_INT);
1716:Generated_Source\PSoC4/CyLFClk.c ****                 disableServicedIsr  &= ~CY_SYS_WDT_COUNTER0_INT;
1717:Generated_Source\PSoC4/CyLFClk.c ****                 if(cySysWdtCallback[CY_SYS_WDT_COUNTER0] != (void *) 0)
1718:Generated_Source\PSoC4/CyLFClk.c ****                 {
1719:Generated_Source\PSoC4/CyLFClk.c ****                     (void)(cySysWdtCallback[CY_SYS_WDT_COUNTER0])();
1720:Generated_Source\PSoC4/CyLFClk.c ****                 }
1721:Generated_Source\PSoC4/CyLFClk.c ****             }
1722:Generated_Source\PSoC4/CyLFClk.c ****             CySysWdtClearInterrupt(CY_SYS_WDT_COUNTER0_INT);
1723:Generated_Source\PSoC4/CyLFClk.c ****         }
1724:Generated_Source\PSoC4/CyLFClk.c **** 
1725:Generated_Source\PSoC4/CyLFClk.c ****         if(0u != (CY_SYS_WDT_COUNTER1_INT & CY_SYS_WDT_CONTROL_REG))
1726:Generated_Source\PSoC4/CyLFClk.c ****         {
1727:Generated_Source\PSoC4/CyLFClk.c ****             if(0u != (CY_SYS_WDT_COUNTER1_INT & wdtIsrMask))
1728:Generated_Source\PSoC4/CyLFClk.c ****             {
1729:Generated_Source\PSoC4/CyLFClk.c ****                 wdtIsrMask &= ~(disableServicedIsr & CY_SYS_WDT_COUNTER1_INT);
1730:Generated_Source\PSoC4/CyLFClk.c ****                 disableServicedIsr  &= ~CY_SYS_WDT_COUNTER1_INT;
1731:Generated_Source\PSoC4/CyLFClk.c ****                 if(cySysWdtCallback[CY_SYS_WDT_COUNTER1] != (void *) 0)
1732:Generated_Source\PSoC4/CyLFClk.c ****                 {
1733:Generated_Source\PSoC4/CyLFClk.c ****                     (void)(cySysWdtCallback[CY_SYS_WDT_COUNTER1])();
1734:Generated_Source\PSoC4/CyLFClk.c ****                 }
1735:Generated_Source\PSoC4/CyLFClk.c ****             }
1736:Generated_Source\PSoC4/CyLFClk.c ****             CySysWdtClearInterrupt(CY_SYS_WDT_COUNTER1_INT);
1737:Generated_Source\PSoC4/CyLFClk.c ****         }
1738:Generated_Source\PSoC4/CyLFClk.c **** 
ARM GAS  C:\Users\VIDEOH~1\AppData\Local\Temp\cc9HpMPY.s 			page 43


1739:Generated_Source\PSoC4/CyLFClk.c ****         if(0u != (CY_SYS_WDT_COUNTER2_INT & CY_SYS_WDT_CONTROL_REG))
1740:Generated_Source\PSoC4/CyLFClk.c ****         {
1741:Generated_Source\PSoC4/CyLFClk.c ****             if(0u != (CY_SYS_WDT_COUNTER2_INT & wdtIsrMask))
1742:Generated_Source\PSoC4/CyLFClk.c ****             {
1743:Generated_Source\PSoC4/CyLFClk.c ****                 if(cySysWdtCallback[CY_SYS_WDT_COUNTER2] != (void *) 0)
1744:Generated_Source\PSoC4/CyLFClk.c ****                 {
1745:Generated_Source\PSoC4/CyLFClk.c ****                     (void)(cySysWdtCallback[CY_SYS_WDT_COUNTER2])();
1746:Generated_Source\PSoC4/CyLFClk.c ****                 }
1747:Generated_Source\PSoC4/CyLFClk.c ****             }
1748:Generated_Source\PSoC4/CyLFClk.c ****             CySysWdtClearInterrupt(CY_SYS_WDT_COUNTER2_INT);
1749:Generated_Source\PSoC4/CyLFClk.c ****         }
1750:Generated_Source\PSoC4/CyLFClk.c ****     }
1751:Generated_Source\PSoC4/CyLFClk.c **** 
1752:Generated_Source\PSoC4/CyLFClk.c **** 
1753:Generated_Source\PSoC4/CyLFClk.c ****     /*******************************************************************************
1754:Generated_Source\PSoC4/CyLFClk.c ****     * Function Name: CySysWatchdogFeed
1755:Generated_Source\PSoC4/CyLFClk.c ****     ****************************************************************************//**
1756:Generated_Source\PSoC4/CyLFClk.c ****     * \brief
1757:Generated_Source\PSoC4/CyLFClk.c ****     * Feeds the corresponded Watchdog Counter before it causes the device reset.
1758:Generated_Source\PSoC4/CyLFClk.c ****     *
1759:Generated_Source\PSoC4/CyLFClk.c ****     * Supported only for first WDT0 and second WDT1 counters in the "Watchdog" or 
1760:Generated_Source\PSoC4/CyLFClk.c ****     * "Watchdog w/ Interrupts" modes.
1761:Generated_Source\PSoC4/CyLFClk.c ****     *
1762:Generated_Source\PSoC4/CyLFClk.c ****     * \param counterNum
1763:Generated_Source\PSoC4/CyLFClk.c ****     * CY_SYS_WDT_COUNTER0 - Feeds the Counter 0 <br>
1764:Generated_Source\PSoC4/CyLFClk.c ****     * CY_SYS_WDT_COUNTER1 - Feeds the Counter 1
1765:Generated_Source\PSoC4/CyLFClk.c ****     *
1766:Generated_Source\PSoC4/CyLFClk.c ****     * Value of counterNum corresponds to appropriate counter. For example value 1 
1767:Generated_Source\PSoC4/CyLFClk.c ****     * corresponds to second WDT1 Counter.
1768:Generated_Source\PSoC4/CyLFClk.c ****     *
1769:Generated_Source\PSoC4/CyLFClk.c ****     * \details
1770:Generated_Source\PSoC4/CyLFClk.c ****     * Clears the WDT counter in the "Watchdog" mode or clears the WDT interrupt in
1771:Generated_Source\PSoC4/CyLFClk.c ****     * "Watchdog w/ Interrupts" mode. Does nothing in other modes.
1772:Generated_Source\PSoC4/CyLFClk.c ****     *
1773:Generated_Source\PSoC4/CyLFClk.c ****     *******************************************************************************/
1774:Generated_Source\PSoC4/CyLFClk.c ****     void CySysWatchdogFeed(uint32 counterNum)
1775:Generated_Source\PSoC4/CyLFClk.c ****     {
1776:Generated_Source\PSoC4/CyLFClk.c ****         if(counterNum == CY_SYS_WDT_COUNTER0)
1777:Generated_Source\PSoC4/CyLFClk.c ****         {
1778:Generated_Source\PSoC4/CyLFClk.c ****             if(CY_SYS_WDT_MODE_INT_RESET == CySysWdtGetMode(counterNum))
1779:Generated_Source\PSoC4/CyLFClk.c ****             {
1780:Generated_Source\PSoC4/CyLFClk.c ****                 CySysWdtClearInterrupt(CY_SYS_WDT_COUNTER0_INT);
1781:Generated_Source\PSoC4/CyLFClk.c ****             }
1782:Generated_Source\PSoC4/CyLFClk.c ****             else if(CY_SYS_WDT_MODE_RESET == CySysWdtGetMode(counterNum))
1783:Generated_Source\PSoC4/CyLFClk.c ****             {
1784:Generated_Source\PSoC4/CyLFClk.c ****                 CySysWdtResetCounters(CY_SYS_WDT_COUNTER0_RESET);
1785:Generated_Source\PSoC4/CyLFClk.c ****                 CySysWdtClearInterrupt(CY_SYS_WDT_COUNTER0_INT);
1786:Generated_Source\PSoC4/CyLFClk.c ****             }
1787:Generated_Source\PSoC4/CyLFClk.c ****             else
1788:Generated_Source\PSoC4/CyLFClk.c ****             {
1789:Generated_Source\PSoC4/CyLFClk.c ****                 /* Do nothing. */
1790:Generated_Source\PSoC4/CyLFClk.c ****             }
1791:Generated_Source\PSoC4/CyLFClk.c ****         }
1792:Generated_Source\PSoC4/CyLFClk.c ****         else if(counterNum == CY_SYS_WDT_COUNTER1)
1793:Generated_Source\PSoC4/CyLFClk.c ****         {
1794:Generated_Source\PSoC4/CyLFClk.c ****             if(CY_SYS_WDT_MODE_INT_RESET == CySysWdtGetMode(counterNum))
1795:Generated_Source\PSoC4/CyLFClk.c ****             {
ARM GAS  C:\Users\VIDEOH~1\AppData\Local\Temp\cc9HpMPY.s 			page 44


1796:Generated_Source\PSoC4/CyLFClk.c ****                 CySysWdtClearInterrupt(CY_SYS_WDT_COUNTER1_INT);
1797:Generated_Source\PSoC4/CyLFClk.c ****             }
1798:Generated_Source\PSoC4/CyLFClk.c ****             else if(CY_SYS_WDT_MODE_RESET == CySysWdtGetMode(counterNum))
1799:Generated_Source\PSoC4/CyLFClk.c ****             {
1800:Generated_Source\PSoC4/CyLFClk.c ****                 CySysWdtResetCounters(CY_SYS_WDT_COUNTER1_RESET);
1801:Generated_Source\PSoC4/CyLFClk.c ****                 CySysWdtClearInterrupt(CY_SYS_WDT_COUNTER1_INT);
1802:Generated_Source\PSoC4/CyLFClk.c ****             }
1803:Generated_Source\PSoC4/CyLFClk.c ****             else
1804:Generated_Source\PSoC4/CyLFClk.c ****             {
1805:Generated_Source\PSoC4/CyLFClk.c ****                 /* Do nothing. */
1806:Generated_Source\PSoC4/CyLFClk.c ****             }
1807:Generated_Source\PSoC4/CyLFClk.c ****         }
1808:Generated_Source\PSoC4/CyLFClk.c ****         else
1809:Generated_Source\PSoC4/CyLFClk.c ****         {
1810:Generated_Source\PSoC4/CyLFClk.c ****             /* Do nothing. */
1811:Generated_Source\PSoC4/CyLFClk.c ****         }
1812:Generated_Source\PSoC4/CyLFClk.c ****     }
1813:Generated_Source\PSoC4/CyLFClk.c **** 
1814:Generated_Source\PSoC4/CyLFClk.c **** 
1815:Generated_Source\PSoC4/CyLFClk.c ****     /*******************************************************************************
1816:Generated_Source\PSoC4/CyLFClk.c ****     * Function Name: CySysClkLfclkPosedgeCatch
1817:Generated_Source\PSoC4/CyLFClk.c ****     ****************************************************************************//**
1818:Generated_Source\PSoC4/CyLFClk.c ****     * \internal
1819:Generated_Source\PSoC4/CyLFClk.c ****     * Returns once the LFCLK positive edge occurred.
1820:Generated_Source\PSoC4/CyLFClk.c ****     *
1821:Generated_Source\PSoC4/CyLFClk.c ****     * CySysClkLfclkPosedgeRestore() should be called after this function
1822:Generated_Source\PSoC4/CyLFClk.c ****     * to restore the WDT configuration.
1823:Generated_Source\PSoC4/CyLFClk.c ****     *
1824:Generated_Source\PSoC4/CyLFClk.c ****     * A pair of the CySysClkLfclkPosedgeCatch() and CySysClkLfclkPosedgeRestore()
1825:Generated_Source\PSoC4/CyLFClk.c ****     * functions is expected to be called inside a critical section.
1826:Generated_Source\PSoC4/CyLFClk.c ****     *
1827:Generated_Source\PSoC4/CyLFClk.c ****     * To ensure that the WDT counter value is read until it changes, the enabled
1828:Generated_Source\PSoC4/CyLFClk.c ****     * WDT counter is used. If no counter is enabled, counter 0 is enabled.
1829:Generated_Source\PSoC4/CyLFClk.c ****     * And after the LFCLK source is switched, the counter 0 configuration
1830:Generated_Source\PSoC4/CyLFClk.c ****     * is restored.
1831:Generated_Source\PSoC4/CyLFClk.c ****     *
1832:Generated_Source\PSoC4/CyLFClk.c ****     * Not applicable for the PSoC 4000 / PSoC 4000S / PSoC 4100S / PSoC Analog 
1833:Generated_Source\PSoC4/CyLFClk.c ****     * Coprocessor devices.
1834:Generated_Source\PSoC4/CyLFClk.c ****     *
1835:Generated_Source\PSoC4/CyLFClk.c ****     * \details
1836:Generated_Source\PSoC4/CyLFClk.c ****     * This function has no effect if WDT is locked (CySysWdtLock() is
1837:Generated_Source\PSoC4/CyLFClk.c ****     * called). Call CySysWdtUnlock() to unlock WDT.
1838:Generated_Source\PSoC4/CyLFClk.c ****     * \endinternal
1839:Generated_Source\PSoC4/CyLFClk.c ****     *******************************************************************************/
1840:Generated_Source\PSoC4/CyLFClk.c ****     static void CySysClkLfclkPosedgeCatch(void)
1841:Generated_Source\PSoC4/CyLFClk.c ****     {
1842:Generated_Source\PSoC4/CyLFClk.c ****         uint32 firstCount;
1843:Generated_Source\PSoC4/CyLFClk.c ****         static uint32 lfclkPosedgeEnabledWdtCounter = 0u;
1844:Generated_Source\PSoC4/CyLFClk.c **** 
1845:Generated_Source\PSoC4/CyLFClk.c ****         if (0u != CySysWdtGetEnabledStatus(CY_SYS_WDT_COUNTER0))
1846:Generated_Source\PSoC4/CyLFClk.c ****         {
1847:Generated_Source\PSoC4/CyLFClk.c ****             lfclkPosedgeEnabledWdtCounter = CY_SYS_WDT_COUNTER0;
1848:Generated_Source\PSoC4/CyLFClk.c ****         }
1849:Generated_Source\PSoC4/CyLFClk.c ****         else if (0u != CySysWdtGetEnabledStatus(CY_SYS_WDT_COUNTER1))
1850:Generated_Source\PSoC4/CyLFClk.c ****         {
1851:Generated_Source\PSoC4/CyLFClk.c ****             lfclkPosedgeEnabledWdtCounter = CY_SYS_WDT_COUNTER1;
1852:Generated_Source\PSoC4/CyLFClk.c ****         }
ARM GAS  C:\Users\VIDEOH~1\AppData\Local\Temp\cc9HpMPY.s 			page 45


1853:Generated_Source\PSoC4/CyLFClk.c ****         else if (0u != CySysWdtGetEnabledStatus(CY_SYS_WDT_COUNTER2))
1854:Generated_Source\PSoC4/CyLFClk.c ****         {
1855:Generated_Source\PSoC4/CyLFClk.c ****             lfclkPosedgeEnabledWdtCounter = CY_SYS_WDT_COUNTER2;
1856:Generated_Source\PSoC4/CyLFClk.c ****         }
1857:Generated_Source\PSoC4/CyLFClk.c ****         else /* All WDT counters are disabled */
1858:Generated_Source\PSoC4/CyLFClk.c ****         {
1859:Generated_Source\PSoC4/CyLFClk.c ****             /* Configure WDT counter # 0 */
1860:Generated_Source\PSoC4/CyLFClk.c ****             lfclkPosedgeWdtCounter0Enabled = 1u;
1861:Generated_Source\PSoC4/CyLFClk.c ****             lfclkPosedgeEnabledWdtCounter = CY_SYS_WDT_COUNTER0;
1862:Generated_Source\PSoC4/CyLFClk.c **** 
1863:Generated_Source\PSoC4/CyLFClk.c ****             lfclkPosedgeWdtCounter0Mode = CySysWdtGetMode(CY_SYS_WDT_COUNTER0);
1864:Generated_Source\PSoC4/CyLFClk.c ****             CySysWdtSetMode(CY_SYS_WDT_COUNTER0, CY_SYS_WDT_MODE_NONE);
1865:Generated_Source\PSoC4/CyLFClk.c ****             CySysWdtEnable(CY_SYS_WDT_COUNTER0_MASK);
1866:Generated_Source\PSoC4/CyLFClk.c ****         }
1867:Generated_Source\PSoC4/CyLFClk.c **** 
1868:Generated_Source\PSoC4/CyLFClk.c ****         firstCount = CySysWdtGetCount(lfclkPosedgeEnabledWdtCounter);
1869:Generated_Source\PSoC4/CyLFClk.c ****         while (CySysWdtGetCount(lfclkPosedgeEnabledWdtCounter) == firstCount)
1870:Generated_Source\PSoC4/CyLFClk.c ****         {
1871:Generated_Source\PSoC4/CyLFClk.c ****             /* Wait for counter to increment */
1872:Generated_Source\PSoC4/CyLFClk.c ****         }
1873:Generated_Source\PSoC4/CyLFClk.c ****     }
1874:Generated_Source\PSoC4/CyLFClk.c **** 
1875:Generated_Source\PSoC4/CyLFClk.c **** 
1876:Generated_Source\PSoC4/CyLFClk.c ****     /*******************************************************************************
1877:Generated_Source\PSoC4/CyLFClk.c ****     * Function Name: CySysClkLfclkPosedgeRestore
1878:Generated_Source\PSoC4/CyLFClk.c ****     ****************************************************************************//**
1879:Generated_Source\PSoC4/CyLFClk.c ****     * \internal
1880:Generated_Source\PSoC4/CyLFClk.c ****     *  Restores the WDT configuration after a CySysClkLfclkPosedgeCatch() call.
1881:Generated_Source\PSoC4/CyLFClk.c ****     *
1882:Generated_Source\PSoC4/CyLFClk.c ****     *  A pair of the CySysClkLfclkPosedgeCatch() and CySysClkLfclkPosedgeRestore()
1883:Generated_Source\PSoC4/CyLFClk.c ****     *  functions is expected to be called inside a critical section.
1884:Generated_Source\PSoC4/CyLFClk.c ****     *
1885:Generated_Source\PSoC4/CyLFClk.c ****     * Not applicable for the PSoC 4000/PSoC 4000S / PSoC 4100S / PSoC Analog 
1886:Generated_Source\PSoC4/CyLFClk.c ****     * Coprocessor devices.
1887:Generated_Source\PSoC4/CyLFClk.c ****     *
1888:Generated_Source\PSoC4/CyLFClk.c ****     * \details
1889:Generated_Source\PSoC4/CyLFClk.c ****     *  This function has no effect if WDT is locked (CySysWdtLock() is
1890:Generated_Source\PSoC4/CyLFClk.c ****     *  called). Call CySysWdtUnlock() to unlock WDT.
1891:Generated_Source\PSoC4/CyLFClk.c ****     *
1892:Generated_Source\PSoC4/CyLFClk.c ****     * \endinternal
1893:Generated_Source\PSoC4/CyLFClk.c ****     *******************************************************************************/
1894:Generated_Source\PSoC4/CyLFClk.c ****     static void CySysClkLfclkPosedgeRestore(void)
1895:Generated_Source\PSoC4/CyLFClk.c ****     {
 611              		.loc 1 1895 0
 612              		.cfi_startproc
 613              		@ args = 0, pretend = 0, frame = 0
 614              		@ frame_needed = 0, uses_anonymous_args = 0
 615 0000 10B5     		push	{r4, lr}
 616              		.cfi_def_cfa_offset 8
 617              		.cfi_offset 4, -8
 618              		.cfi_offset 14, -4
1896:Generated_Source\PSoC4/CyLFClk.c ****         if (lfclkPosedgeWdtCounter0Enabled != 0u)
 619              		.loc 1 1896 0
 620 0002 084B     		ldr	r3, .L50
 621 0004 5B68     		ldr	r3, [r3, #4]
 622 0006 002B     		cmp	r3, #0
 623 0008 0BD0     		beq	.L48
ARM GAS  C:\Users\VIDEOH~1\AppData\Local\Temp\cc9HpMPY.s 			page 46


1897:Generated_Source\PSoC4/CyLFClk.c ****         {
1898:Generated_Source\PSoC4/CyLFClk.c ****             /* Restore counter # 0 configuration and force its shutdown */
1899:Generated_Source\PSoC4/CyLFClk.c ****             CY_SYS_WDT_CONTROL_REG &= (uint32)(~CY_SYS_WDT_COUNTER0_MASK);
 624              		.loc 1 1899 0
 625 000a 074A     		ldr	r2, .L50+4
 626 000c 1368     		ldr	r3, [r2]
 627 000e 0121     		movs	r1, #1
 628 0010 8B43     		bics	r3, r1
 629 0012 1360     		str	r3, [r2]
1900:Generated_Source\PSoC4/CyLFClk.c ****             CySysWdtSetMode(CY_SYS_WDT_COUNTER0, lfclkPosedgeWdtCounter0Mode);
 630              		.loc 1 1900 0
 631 0014 034C     		ldr	r4, .L50
 632 0016 A168     		ldr	r1, [r4, #8]
 633 0018 0020     		movs	r0, #0
 634 001a FFF7FEFF 		bl	CySysWdtSetMode
 635              	.LVL54:
1901:Generated_Source\PSoC4/CyLFClk.c ****             lfclkPosedgeWdtCounter0Enabled = 0u;
 636              		.loc 1 1901 0
 637 001e 0023     		movs	r3, #0
 638 0020 6360     		str	r3, [r4, #4]
 639              	.L48:
1902:Generated_Source\PSoC4/CyLFClk.c ****         }
1903:Generated_Source\PSoC4/CyLFClk.c ****     }
 640              		.loc 1 1903 0
 641              		@ sp needed
 642 0022 10BD     		pop	{r4, pc}
 643              	.L51:
 644              		.align	2
 645              	.L50:
 646 0024 00000000 		.word	.LANCHOR0
 647 0028 10020B40 		.word	1074463248
 648              		.cfi_endproc
 649              	.LFE33:
 650              		.size	CySysClkLfclkPosedgeRestore, .-CySysClkLfclkPosedgeRestore
 651              		.section	.text.CySysWdtGetMode,"ax",%progbits
 652              		.align	2
 653              		.global	CySysWdtGetMode
 654              		.code	16
 655              		.thumb_func
 656              		.type	CySysWdtGetMode, %function
 657              	CySysWdtGetMode:
 658              	.LFB11:
1076:Generated_Source\PSoC4/CyLFClk.c ****         return ((CY_SYS_WDT_CONFIG_REG >> (counterNum * CY_SYS_WDT_CNT_SHIFT)) & CY_SYS_WDT_MODE_MA
 659              		.loc 1 1076 0
 660              		.cfi_startproc
 661              		@ args = 0, pretend = 0, frame = 0
 662              		@ frame_needed = 0, uses_anonymous_args = 0
 663              		@ link register save eliminated.
 664              	.LVL55:
 665 0000 0300     		movs	r3, r0
1077:Generated_Source\PSoC4/CyLFClk.c ****     }
 666              		.loc 1 1077 0
 667 0002 034A     		ldr	r2, .L53
 668 0004 1068     		ldr	r0, [r2]
 669              	.LVL56:
 670 0006 DB00     		lsls	r3, r3, #3
 671              	.LVL57:
ARM GAS  C:\Users\VIDEOH~1\AppData\Local\Temp\cc9HpMPY.s 			page 47


 672 0008 D840     		lsrs	r0, r0, r3
 673 000a 0323     		movs	r3, #3
 674 000c 1840     		ands	r0, r3
1078:Generated_Source\PSoC4/CyLFClk.c **** 
 675              		.loc 1 1078 0
 676              		@ sp needed
 677 000e 7047     		bx	lr
 678              	.L54:
 679              		.align	2
 680              	.L53:
 681 0010 0C020B40 		.word	1074463244
 682              		.cfi_endproc
 683              	.LFE11:
 684              		.size	CySysWdtGetMode, .-CySysWdtGetMode
 685              		.section	.text.CySysWdtSetClearOnMatch,"ax",%progbits
 686              		.align	2
 687              		.global	CySysWdtSetClearOnMatch
 688              		.code	16
 689              		.thumb_func
 690              		.type	CySysWdtSetClearOnMatch, %function
 691              	CySysWdtSetClearOnMatch:
 692              	.LFB12:
1105:Generated_Source\PSoC4/CyLFClk.c ****         uint32 configRegValue;
 693              		.loc 1 1105 0
 694              		.cfi_startproc
 695              		@ args = 0, pretend = 0, frame = 0
 696              		@ frame_needed = 0, uses_anonymous_args = 0
 697              	.LVL58:
 698 0000 70B5     		push	{r4, r5, r6, lr}
 699              		.cfi_def_cfa_offset 16
 700              		.cfi_offset 4, -16
 701              		.cfi_offset 5, -12
 702              		.cfi_offset 6, -8
 703              		.cfi_offset 14, -4
 704 0002 0400     		movs	r4, r0
 705 0004 0D00     		movs	r5, r1
1108:Generated_Source\PSoC4/CyLFClk.c ****                  (counterNum == CY_SYS_WDT_COUNTER1));
 706              		.loc 1 1108 0
 707 0006 0128     		cmp	r0, #1
 708 0008 02D9     		bls	.L56
1108:Generated_Source\PSoC4/CyLFClk.c ****                  (counterNum == CY_SYS_WDT_COUNTER1));
 709              		.loc 1 1108 0 is_stmt 0 discriminator 1
 710 000a 0020     		movs	r0, #0
 711              	.LVL59:
 712 000c FFF7FEFF 		bl	CyHalt
 713              	.LVL60:
 714              	.L56:
1111:Generated_Source\PSoC4/CyLFClk.c ****         {
 715              		.loc 1 1111 0 is_stmt 1
 716 0010 2000     		movs	r0, r4
 717 0012 FFF7FEFF 		bl	CySysWdtGetEnabledStatus
 718              	.LVL61:
 719 0016 0028     		cmp	r0, #0
 720 0018 09D1     		bne	.L55
1113:Generated_Source\PSoC4/CyLFClk.c ****                                      ((counterNum * CY_SYS_WDT_CNT_SHIFT) + CY_SYS_WDT_CNT_MATCH_CL
 721              		.loc 1 1113 0
 722 001a 0549     		ldr	r1, .L58
ARM GAS  C:\Users\VIDEOH~1\AppData\Local\Temp\cc9HpMPY.s 			page 48


 723 001c 0B68     		ldr	r3, [r1]
1114:Generated_Source\PSoC4/CyLFClk.c **** 
 724              		.loc 1 1114 0
 725 001e E400     		lsls	r4, r4, #3
 726              	.LVL62:
 727 0020 0234     		adds	r4, r4, #2
1113:Generated_Source\PSoC4/CyLFClk.c ****                                      ((counterNum * CY_SYS_WDT_CNT_SHIFT) + CY_SYS_WDT_CNT_MATCH_CL
 728              		.loc 1 1113 0
 729 0022 0122     		movs	r2, #1
 730 0024 A240     		lsls	r2, r2, r4
 731 0026 9343     		bics	r3, r2
 732              	.LVL63:
1117:Generated_Source\PSoC4/CyLFClk.c **** 
 733              		.loc 1 1117 0
 734 0028 A540     		lsls	r5, r5, r4
 735              	.LVL64:
 736 002a 1D43     		orrs	r5, r3
 737              	.LVL65:
1119:Generated_Source\PSoC4/CyLFClk.c ****         }
 738              		.loc 1 1119 0
 739 002c 0D60     		str	r5, [r1]
 740              	.LVL66:
 741              	.L55:
1121:Generated_Source\PSoC4/CyLFClk.c **** 
 742              		.loc 1 1121 0
 743              		@ sp needed
 744 002e 70BD     		pop	{r4, r5, r6, pc}
 745              	.L59:
 746              		.align	2
 747              	.L58:
 748 0030 0C020B40 		.word	1074463244
 749              		.cfi_endproc
 750              	.LFE12:
 751              		.size	CySysWdtSetClearOnMatch, .-CySysWdtSetClearOnMatch
 752              		.section	.text.CySysWdtGetClearOnMatch,"ax",%progbits
 753              		.align	2
 754              		.global	CySysWdtGetClearOnMatch
 755              		.code	16
 756              		.thumb_func
 757              		.type	CySysWdtGetClearOnMatch, %function
 758              	CySysWdtGetClearOnMatch:
 759              	.LFB13:
1138:Generated_Source\PSoC4/CyLFClk.c ****         CYASSERT((counterNum == CY_SYS_WDT_COUNTER0) ||
 760              		.loc 1 1138 0
 761              		.cfi_startproc
 762              		@ args = 0, pretend = 0, frame = 0
 763              		@ frame_needed = 0, uses_anonymous_args = 0
 764              	.LVL67:
 765 0000 10B5     		push	{r4, lr}
 766              		.cfi_def_cfa_offset 8
 767              		.cfi_offset 4, -8
 768              		.cfi_offset 14, -4
 769 0002 0400     		movs	r4, r0
1139:Generated_Source\PSoC4/CyLFClk.c ****                  (counterNum == CY_SYS_WDT_COUNTER1));
 770              		.loc 1 1139 0
 771 0004 0128     		cmp	r0, #1
 772 0006 02D9     		bls	.L61
ARM GAS  C:\Users\VIDEOH~1\AppData\Local\Temp\cc9HpMPY.s 			page 49


1139:Generated_Source\PSoC4/CyLFClk.c ****                  (counterNum == CY_SYS_WDT_COUNTER1));
 773              		.loc 1 1139 0 is_stmt 0 discriminator 1
 774 0008 0020     		movs	r0, #0
 775              	.LVL68:
 776 000a FFF7FEFF 		bl	CyHalt
 777              	.LVL69:
 778              	.L61:
1142:Generated_Source\PSoC4/CyLFClk.c ****                         ((counterNum * CY_SYS_WDT_CNT_SHIFT) + CY_SYS_WDT_CNT_MATCH_CLR_SHIFT)) & 0
 779              		.loc 1 1142 0 is_stmt 1
 780 000e 044B     		ldr	r3, .L62
 781 0010 1868     		ldr	r0, [r3]
1143:Generated_Source\PSoC4/CyLFClk.c ****     }
 782              		.loc 1 1143 0
 783 0012 E400     		lsls	r4, r4, #3
 784              	.LVL70:
 785 0014 0234     		adds	r4, r4, #2
1142:Generated_Source\PSoC4/CyLFClk.c ****                         ((counterNum * CY_SYS_WDT_CNT_SHIFT) + CY_SYS_WDT_CNT_MATCH_CLR_SHIFT)) & 0
 786              		.loc 1 1142 0
 787 0016 E040     		lsrs	r0, r0, r4
 788 0018 0123     		movs	r3, #1
 789 001a 1840     		ands	r0, r3
1144:Generated_Source\PSoC4/CyLFClk.c **** 
 790              		.loc 1 1144 0
 791              		@ sp needed
 792 001c 10BD     		pop	{r4, pc}
 793              	.L63:
 794 001e C046     		.align	2
 795              	.L62:
 796 0020 0C020B40 		.word	1074463244
 797              		.cfi_endproc
 798              	.LFE13:
 799              		.size	CySysWdtGetClearOnMatch, .-CySysWdtGetClearOnMatch
 800              		.section	.text.CySysWdtEnable,"ax",%progbits
 801              		.align	2
 802              		.global	CySysWdtEnable
 803              		.code	16
 804              		.thumb_func
 805              		.type	CySysWdtEnable, %function
 806              	CySysWdtEnable:
 807              	.LFB14:
1179:Generated_Source\PSoC4/CyLFClk.c ****         #if (!CY_IP_WCO)
 808              		.loc 1 1179 0
 809              		.cfi_startproc
 810              		@ args = 0, pretend = 0, frame = 0
 811              		@ frame_needed = 0, uses_anonymous_args = 0
 812              	.LVL71:
 813 0000 10B5     		push	{r4, lr}
 814              		.cfi_def_cfa_offset 8
 815              		.cfi_offset 4, -8
 816              		.cfi_offset 14, -4
 817 0002 0400     		movs	r4, r0
1181:Generated_Source\PSoC4/CyLFClk.c ****         #endif /* (!CY_IP_WCO) */
 818              		.loc 1 1181 0
 819 0004 FFF7FEFF 		bl	CySysClkIloStart
 820              	.LVL72:
1184:Generated_Source\PSoC4/CyLFClk.c **** 
 821              		.loc 1 1184 0
ARM GAS  C:\Users\VIDEOH~1\AppData\Local\Temp\cc9HpMPY.s 			page 50


 822 0008 0C4A     		ldr	r2, .L71
 823 000a 1368     		ldr	r3, [r2]
 824 000c 2343     		orrs	r3, r4
 825 000e 1360     		str	r3, [r2]
1186:Generated_Source\PSoC4/CyLFClk.c ****         {
 826              		.loc 1 1186 0
 827 0010 E307     		lsls	r3, r4, #31
 828 0012 04D5     		bpl	.L65
 829              	.L66:
1188:Generated_Source\PSoC4/CyLFClk.c ****             {
 830              		.loc 1 1188 0 discriminator 1
 831 0014 0020     		movs	r0, #0
 832 0016 FFF7FEFF 		bl	CySysWdtGetEnabledStatus
 833              	.LVL73:
 834 001a 0028     		cmp	r0, #0
 835 001c FAD0     		beq	.L66
 836              	.L65:
1194:Generated_Source\PSoC4/CyLFClk.c ****         {
 837              		.loc 1 1194 0
 838 001e E305     		lsls	r3, r4, #23
 839 0020 04D5     		bpl	.L67
 840              	.L68:
1196:Generated_Source\PSoC4/CyLFClk.c ****             {
 841              		.loc 1 1196 0 discriminator 1
 842 0022 0120     		movs	r0, #1
 843 0024 FFF7FEFF 		bl	CySysWdtGetEnabledStatus
 844              	.LVL74:
 845 0028 0028     		cmp	r0, #0
 846 002a FAD0     		beq	.L68
 847              	.L67:
1202:Generated_Source\PSoC4/CyLFClk.c ****         {
 848              		.loc 1 1202 0
 849 002c E303     		lsls	r3, r4, #15
 850 002e 04D5     		bpl	.L64
 851              	.L70:
1204:Generated_Source\PSoC4/CyLFClk.c ****             {
 852              		.loc 1 1204 0 discriminator 1
 853 0030 0220     		movs	r0, #2
 854 0032 FFF7FEFF 		bl	CySysWdtGetEnabledStatus
 855              	.LVL75:
 856 0036 0028     		cmp	r0, #0
 857 0038 FAD0     		beq	.L70
 858              	.L64:
1209:Generated_Source\PSoC4/CyLFClk.c **** 
 859              		.loc 1 1209 0
 860              		@ sp needed
 861              	.LVL76:
 862 003a 10BD     		pop	{r4, pc}
 863              	.L72:
 864              		.align	2
 865              	.L71:
 866 003c 10020B40 		.word	1074463248
 867              		.cfi_endproc
 868              	.LFE14:
 869              		.size	CySysWdtEnable, .-CySysWdtEnable
 870              		.section	.text.CySysWdtDisable,"ax",%progbits
 871              		.align	2
ARM GAS  C:\Users\VIDEOH~1\AppData\Local\Temp\cc9HpMPY.s 			page 51


 872              		.global	CySysWdtDisable
 873              		.code	16
 874              		.thumb_func
 875              		.type	CySysWdtDisable, %function
 876              	CySysWdtDisable:
 877              	.LFB15:
1227:Generated_Source\PSoC4/CyLFClk.c ****         if (0uL == CySysWdtLocked())
 878              		.loc 1 1227 0
 879              		.cfi_startproc
 880              		@ args = 0, pretend = 0, frame = 0
 881              		@ frame_needed = 0, uses_anonymous_args = 0
 882              	.LVL77:
 883 0000 10B5     		push	{r4, lr}
 884              		.cfi_def_cfa_offset 8
 885              		.cfi_offset 4, -8
 886              		.cfi_offset 14, -4
 887 0002 0400     		movs	r4, r0
1228:Generated_Source\PSoC4/CyLFClk.c ****         {
 888              		.loc 1 1228 0
 889 0004 FFF7FEFF 		bl	CySysWdtLocked
 890              	.LVL78:
 891 0008 0028     		cmp	r0, #0
 892 000a 18D1     		bne	.L73
1230:Generated_Source\PSoC4/CyLFClk.c **** 
 893              		.loc 1 1230 0
 894 000c 0C4A     		ldr	r2, .L80
 895 000e 1368     		ldr	r3, [r2]
 896 0010 A343     		bics	r3, r4
 897 0012 1360     		str	r3, [r2]
1232:Generated_Source\PSoC4/CyLFClk.c ****             {
 898              		.loc 1 1232 0
 899 0014 E307     		lsls	r3, r4, #31
 900 0016 04D5     		bpl	.L75
 901              	.L76:
1234:Generated_Source\PSoC4/CyLFClk.c ****                 {
 902              		.loc 1 1234 0 discriminator 1
 903 0018 0020     		movs	r0, #0
 904 001a FFF7FEFF 		bl	CySysWdtGetEnabledStatus
 905              	.LVL79:
 906 001e 0028     		cmp	r0, #0
 907 0020 FAD1     		bne	.L76
 908              	.L75:
1240:Generated_Source\PSoC4/CyLFClk.c ****             {
 909              		.loc 1 1240 0
 910 0022 E305     		lsls	r3, r4, #23
 911 0024 04D5     		bpl	.L77
 912              	.L78:
1242:Generated_Source\PSoC4/CyLFClk.c ****                 {
 913              		.loc 1 1242 0 discriminator 1
 914 0026 0120     		movs	r0, #1
 915 0028 FFF7FEFF 		bl	CySysWdtGetEnabledStatus
 916              	.LVL80:
 917 002c 0028     		cmp	r0, #0
 918 002e FAD1     		bne	.L78
 919              	.L77:
1248:Generated_Source\PSoC4/CyLFClk.c ****             {
 920              		.loc 1 1248 0
ARM GAS  C:\Users\VIDEOH~1\AppData\Local\Temp\cc9HpMPY.s 			page 52


 921 0030 E303     		lsls	r3, r4, #15
 922 0032 04D5     		bpl	.L73
 923              	.L79:
1250:Generated_Source\PSoC4/CyLFClk.c ****                 {
 924              		.loc 1 1250 0 discriminator 1
 925 0034 0220     		movs	r0, #2
 926 0036 FFF7FEFF 		bl	CySysWdtGetEnabledStatus
 927              	.LVL81:
 928 003a 0028     		cmp	r0, #0
 929 003c FAD1     		bne	.L79
 930              	.L73:
1256:Generated_Source\PSoC4/CyLFClk.c **** 
 931              		.loc 1 1256 0
 932              		@ sp needed
 933              	.LVL82:
 934 003e 10BD     		pop	{r4, pc}
 935              	.L81:
 936              		.align	2
 937              	.L80:
 938 0040 10020B40 		.word	1074463248
 939              		.cfi_endproc
 940              	.LFE15:
 941              		.size	CySysWdtDisable, .-CySysWdtDisable
 942              		.section	.text.CySysWdtSetCascade,"ax",%progbits
 943              		.align	2
 944              		.global	CySysWdtSetCascade
 945              		.code	16
 946              		.thumb_func
 947              		.type	CySysWdtSetCascade, %function
 948              	CySysWdtSetCascade:
 949              	.LFB16:
1286:Generated_Source\PSoC4/CyLFClk.c ****         uint32 configRegValue;
 950              		.loc 1 1286 0
 951              		.cfi_startproc
 952              		@ args = 0, pretend = 0, frame = 0
 953              		@ frame_needed = 0, uses_anonymous_args = 0
 954              	.LVL83:
 955 0000 70B5     		push	{r4, r5, r6, lr}
 956              		.cfi_def_cfa_offset 16
 957              		.cfi_offset 4, -16
 958              		.cfi_offset 5, -12
 959              		.cfi_offset 6, -8
 960              		.cfi_offset 14, -4
 961 0002 0500     		movs	r5, r0
1290:Generated_Source\PSoC4/CyLFClk.c ****                             CySysWdtGetEnabledStatus(CY_SYS_WDT_COUNTER1) |
 962              		.loc 1 1290 0
 963 0004 0020     		movs	r0, #0
 964              	.LVL84:
 965 0006 FFF7FEFF 		bl	CySysWdtGetEnabledStatus
 966              	.LVL85:
 967 000a 0400     		movs	r4, r0
1291:Generated_Source\PSoC4/CyLFClk.c ****                             CySysWdtGetEnabledStatus(CY_SYS_WDT_COUNTER2);
 968              		.loc 1 1291 0
 969 000c 0120     		movs	r0, #1
 970 000e FFF7FEFF 		bl	CySysWdtGetEnabledStatus
 971              	.LVL86:
1290:Generated_Source\PSoC4/CyLFClk.c ****                             CySysWdtGetEnabledStatus(CY_SYS_WDT_COUNTER1) |
ARM GAS  C:\Users\VIDEOH~1\AppData\Local\Temp\cc9HpMPY.s 			page 53


 972              		.loc 1 1290 0
 973 0012 0443     		orrs	r4, r0
1292:Generated_Source\PSoC4/CyLFClk.c **** 
 974              		.loc 1 1292 0
 975 0014 0220     		movs	r0, #2
 976 0016 FFF7FEFF 		bl	CySysWdtGetEnabledStatus
 977              	.LVL87:
1290:Generated_Source\PSoC4/CyLFClk.c ****                             CySysWdtGetEnabledStatus(CY_SYS_WDT_COUNTER1) |
 978              		.loc 1 1290 0
 979 001a 2043     		orrs	r0, r4
 980              	.LVL88:
1294:Generated_Source\PSoC4/CyLFClk.c ****         {
 981              		.loc 1 1294 0
 982 001c 05D1     		bne	.L82
1296:Generated_Source\PSoC4/CyLFClk.c ****             configRegValue &= ((uint32)(~(CY_SYS_WDT_CASCADE_01|CY_SYS_WDT_CASCADE_12)));
 983              		.loc 1 1296 0
 984 001e 034A     		ldr	r2, .L84
 985 0020 1168     		ldr	r1, [r2]
 986              	.LVL89:
1297:Generated_Source\PSoC4/CyLFClk.c ****             configRegValue |= cascadeMask;
 987              		.loc 1 1297 0
 988 0022 034B     		ldr	r3, .L84+4
 989 0024 0B40     		ands	r3, r1
 990              	.LVL90:
1298:Generated_Source\PSoC4/CyLFClk.c ****             CY_SYS_WDT_CONFIG_REG = configRegValue;
 991              		.loc 1 1298 0
 992 0026 1D43     		orrs	r5, r3
 993              	.LVL91:
1299:Generated_Source\PSoC4/CyLFClk.c ****         }
 994              		.loc 1 1299 0
 995 0028 1560     		str	r5, [r2]
 996              	.LVL92:
 997              	.L82:
1301:Generated_Source\PSoC4/CyLFClk.c **** 
 998              		.loc 1 1301 0
 999              		@ sp needed
 1000 002a 70BD     		pop	{r4, r5, r6, pc}
 1001              	.L85:
 1002              		.align	2
 1003              	.L84:
 1004 002c 0C020B40 		.word	1074463244
 1005 0030 F7F7FFFF 		.word	-2057
 1006              		.cfi_endproc
 1007              	.LFE16:
 1008              		.size	CySysWdtSetCascade, .-CySysWdtSetCascade
 1009              		.section	.text.CySysWdtGetCascade,"ax",%progbits
 1010              		.align	2
 1011              		.global	CySysWdtGetCascade
 1012              		.code	16
 1013              		.thumb_func
 1014              		.type	CySysWdtGetCascade, %function
 1015              	CySysWdtGetCascade:
 1016              	.LFB17:
1317:Generated_Source\PSoC4/CyLFClk.c ****         return (CY_SYS_WDT_CONFIG_REG & (CY_SYS_WDT_CASCADE_01 | CY_SYS_WDT_CASCADE_12));
 1017              		.loc 1 1317 0
 1018              		.cfi_startproc
 1019              		@ args = 0, pretend = 0, frame = 0
ARM GAS  C:\Users\VIDEOH~1\AppData\Local\Temp\cc9HpMPY.s 			page 54


 1020              		@ frame_needed = 0, uses_anonymous_args = 0
 1021              		@ link register save eliminated.
1318:Generated_Source\PSoC4/CyLFClk.c ****     }
 1022              		.loc 1 1318 0
 1023 0000 024B     		ldr	r3, .L87
 1024 0002 1868     		ldr	r0, [r3]
 1025 0004 024B     		ldr	r3, .L87+4
 1026 0006 1840     		ands	r0, r3
1319:Generated_Source\PSoC4/CyLFClk.c **** 
 1027              		.loc 1 1319 0
 1028              		@ sp needed
 1029 0008 7047     		bx	lr
 1030              	.L88:
 1031 000a C046     		.align	2
 1032              	.L87:
 1033 000c 0C020B40 		.word	1074463244
 1034 0010 08080000 		.word	2056
 1035              		.cfi_endproc
 1036              	.LFE17:
 1037              		.size	CySysWdtGetCascade, .-CySysWdtGetCascade
 1038              		.section	.text.CySysWdtSetMatch,"ax",%progbits
 1039              		.align	2
 1040              		.global	CySysWdtSetMatch
 1041              		.code	16
 1042              		.thumb_func
 1043              		.type	CySysWdtSetMatch, %function
 1044              	CySysWdtSetMatch:
 1045              	.LFB18:
1337:Generated_Source\PSoC4/CyLFClk.c ****         uint32 regValue;
 1046              		.loc 1 1337 0
 1047              		.cfi_startproc
 1048              		@ args = 0, pretend = 0, frame = 0
 1049              		@ frame_needed = 0, uses_anonymous_args = 0
 1050              	.LVL93:
 1051 0000 70B5     		push	{r4, r5, r6, lr}
 1052              		.cfi_def_cfa_offset 16
 1053              		.cfi_offset 4, -16
 1054              		.cfi_offset 5, -12
 1055              		.cfi_offset 6, -8
 1056              		.cfi_offset 14, -4
 1057 0002 0500     		movs	r5, r0
 1058 0004 0C00     		movs	r4, r1
1340:Generated_Source\PSoC4/CyLFClk.c ****                  (counterNum == CY_SYS_WDT_COUNTER1));
 1059              		.loc 1 1340 0
 1060 0006 0128     		cmp	r0, #1
 1061 0008 02D9     		bls	.L90
1340:Generated_Source\PSoC4/CyLFClk.c ****                  (counterNum == CY_SYS_WDT_COUNTER1));
 1062              		.loc 1 1340 0 is_stmt 0 discriminator 1
 1063 000a 0020     		movs	r0, #0
 1064              	.LVL94:
 1065 000c FFF7FEFF 		bl	CyHalt
 1066              	.LVL95:
 1067              	.L90:
1344:Generated_Source\PSoC4/CyLFClk.c **** 
 1068              		.loc 1 1344 0 is_stmt 1
 1069 0010 C920     		movs	r0, #201
 1070 0012 FFF7FEFF 		bl	CyDelayUs
ARM GAS  C:\Users\VIDEOH~1\AppData\Local\Temp\cc9HpMPY.s 			page 55


 1071              	.LVL96:
1346:Generated_Source\PSoC4/CyLFClk.c ****         regValue &= (uint32)~((uint32)(CY_SYS_WDT_LOWER_16BITS_MASK << (counterNum * CY_SYS_WDT_CNT
 1072              		.loc 1 1346 0
 1073 0016 0649     		ldr	r1, .L91
 1074 0018 0B68     		ldr	r3, [r1]
 1075              	.LVL97:
1347:Generated_Source\PSoC4/CyLFClk.c ****         CY_SYS_WDT_MATCH_REG = (regValue | (match << (counterNum * CY_SYS_WDT_CNT_MATCH_SHIFT)));
 1076              		.loc 1 1347 0
 1077 001a 2D01     		lsls	r5, r5, #4
 1078              	.LVL98:
 1079 001c 054A     		ldr	r2, .L91+4
 1080 001e AA40     		lsls	r2, r2, r5
 1081 0020 9343     		bics	r3, r2
 1082              	.LVL99:
1348:Generated_Source\PSoC4/CyLFClk.c **** 
 1083              		.loc 1 1348 0
 1084 0022 AC40     		lsls	r4, r4, r5
 1085              	.LVL100:
 1086 0024 1C43     		orrs	r4, r3
 1087 0026 0C60     		str	r4, [r1]
1351:Generated_Source\PSoC4/CyLFClk.c ****     }
 1088              		.loc 1 1351 0
 1089 0028 4320     		movs	r0, #67
 1090 002a FFF7FEFF 		bl	CyDelayUs
 1091              	.LVL101:
1352:Generated_Source\PSoC4/CyLFClk.c **** 
 1092              		.loc 1 1352 0
 1093              		@ sp needed
 1094 002e 70BD     		pop	{r4, r5, r6, pc}
 1095              	.L92:
 1096              		.align	2
 1097              	.L91:
 1098 0030 08020B40 		.word	1074463240
 1099 0034 FFFF0000 		.word	65535
 1100              		.cfi_endproc
 1101              	.LFE18:
 1102              		.size	CySysWdtSetMatch, .-CySysWdtSetMatch
 1103              		.section	.text.CySysWdtSetToggleBit,"ax",%progbits
 1104              		.align	2
 1105              		.global	CySysWdtSetToggleBit
 1106              		.code	16
 1107              		.thumb_func
 1108              		.type	CySysWdtSetToggleBit, %function
 1109              	CySysWdtSetToggleBit:
 1110              	.LFB19:
1376:Generated_Source\PSoC4/CyLFClk.c ****         uint32 configRegValue;
 1111              		.loc 1 1376 0
 1112              		.cfi_startproc
 1113              		@ args = 0, pretend = 0, frame = 0
 1114              		@ frame_needed = 0, uses_anonymous_args = 0
 1115              	.LVL102:
 1116 0000 10B5     		push	{r4, lr}
 1117              		.cfi_def_cfa_offset 8
 1118              		.cfi_offset 4, -8
 1119              		.cfi_offset 14, -4
 1120 0002 0400     		movs	r4, r0
1379:Generated_Source\PSoC4/CyLFClk.c ****         {
ARM GAS  C:\Users\VIDEOH~1\AppData\Local\Temp\cc9HpMPY.s 			page 56


 1121              		.loc 1 1379 0
 1122 0004 0220     		movs	r0, #2
 1123              	.LVL103:
 1124 0006 FFF7FEFF 		bl	CySysWdtGetEnabledStatus
 1125              	.LVL104:
 1126 000a 0028     		cmp	r0, #0
 1127 000c 0AD1     		bne	.L93
1381:Generated_Source\PSoC4/CyLFClk.c ****             configRegValue &= (uint32)(~((uint32)(CY_SYS_WDT_CONFIG_BITS2_MASK << CY_SYS_WDT_CONFIG
 1128              		.loc 1 1381 0
 1129 000e 0649     		ldr	r1, .L95
 1130 0010 0868     		ldr	r0, [r1]
 1131              	.LVL105:
1382:Generated_Source\PSoC4/CyLFClk.c ****             configRegValue |= ((bits & CY_SYS_WDT_CONFIG_BITS2_MASK) << CY_SYS_WDT_CONFIG_BITS2_POS
 1132              		.loc 1 1382 0
 1133 0012 064B     		ldr	r3, .L95+4
 1134 0014 0200     		movs	r2, r0
 1135 0016 1A40     		ands	r2, r3
 1136              	.LVL106:
1383:Generated_Source\PSoC4/CyLFClk.c ****             CY_SYS_WDT_CONFIG_REG = configRegValue;
 1137              		.loc 1 1383 0
 1138 0018 2006     		lsls	r0, r4, #24
 1139 001a F823     		movs	r3, #248
 1140 001c 5B05     		lsls	r3, r3, #21
 1141 001e 1840     		ands	r0, r3
 1142 0020 1043     		orrs	r0, r2
 1143              	.LVL107:
1384:Generated_Source\PSoC4/CyLFClk.c ****         }
 1144              		.loc 1 1384 0
 1145 0022 0860     		str	r0, [r1]
 1146              	.LVL108:
 1147              	.L93:
1386:Generated_Source\PSoC4/CyLFClk.c **** 
 1148              		.loc 1 1386 0
 1149              		@ sp needed
 1150              	.LVL109:
 1151 0024 10BD     		pop	{r4, pc}
 1152              	.L96:
 1153 0026 C046     		.align	2
 1154              	.L95:
 1155 0028 0C020B40 		.word	1074463244
 1156 002c FFFFFFE0 		.word	-520093697
 1157              		.cfi_endproc
 1158              	.LFE19:
 1159              		.size	CySysWdtSetToggleBit, .-CySysWdtSetToggleBit
 1160              		.section	.text.CySysWdtGetToggleBit,"ax",%progbits
 1161              		.align	2
 1162              		.global	CySysWdtGetToggleBit
 1163              		.code	16
 1164              		.thumb_func
 1165              		.type	CySysWdtGetToggleBit, %function
 1166              	CySysWdtGetToggleBit:
 1167              	.LFB20:
1399:Generated_Source\PSoC4/CyLFClk.c ****         return ((CY_SYS_WDT_CONFIG_REG >> CY_SYS_WDT_CONFIG_BITS2_POS) & CY_SYS_WDT_CONFIG_BITS2_MA
 1168              		.loc 1 1399 0
 1169              		.cfi_startproc
 1170              		@ args = 0, pretend = 0, frame = 0
 1171              		@ frame_needed = 0, uses_anonymous_args = 0
ARM GAS  C:\Users\VIDEOH~1\AppData\Local\Temp\cc9HpMPY.s 			page 57


 1172              		@ link register save eliminated.
1400:Generated_Source\PSoC4/CyLFClk.c ****     }
 1173              		.loc 1 1400 0
 1174 0000 024B     		ldr	r3, .L98
 1175 0002 1868     		ldr	r0, [r3]
 1176 0004 000E     		lsrs	r0, r0, #24
 1177 0006 1F23     		movs	r3, #31
 1178 0008 1840     		ands	r0, r3
1401:Generated_Source\PSoC4/CyLFClk.c **** 
 1179              		.loc 1 1401 0
 1180              		@ sp needed
 1181 000a 7047     		bx	lr
 1182              	.L99:
 1183              		.align	2
 1184              	.L98:
 1185 000c 0C020B40 		.word	1074463244
 1186              		.cfi_endproc
 1187              	.LFE20:
 1188              		.size	CySysWdtGetToggleBit, .-CySysWdtGetToggleBit
 1189              		.section	.text.CySysWdtGetMatch,"ax",%progbits
 1190              		.align	2
 1191              		.global	CySysWdtGetMatch
 1192              		.code	16
 1193              		.thumb_func
 1194              		.type	CySysWdtGetMatch, %function
 1195              	CySysWdtGetMatch:
 1196              	.LFB21:
1417:Generated_Source\PSoC4/CyLFClk.c ****         CYASSERT((counterNum == CY_SYS_WDT_COUNTER0) ||
 1197              		.loc 1 1417 0
 1198              		.cfi_startproc
 1199              		@ args = 0, pretend = 0, frame = 0
 1200              		@ frame_needed = 0, uses_anonymous_args = 0
 1201              	.LVL110:
 1202 0000 10B5     		push	{r4, lr}
 1203              		.cfi_def_cfa_offset 8
 1204              		.cfi_offset 4, -8
 1205              		.cfi_offset 14, -4
 1206 0002 0400     		movs	r4, r0
1418:Generated_Source\PSoC4/CyLFClk.c ****                  (counterNum == CY_SYS_WDT_COUNTER1));
 1207              		.loc 1 1418 0
 1208 0004 0128     		cmp	r0, #1
 1209 0006 02D9     		bls	.L101
1418:Generated_Source\PSoC4/CyLFClk.c ****                  (counterNum == CY_SYS_WDT_COUNTER1));
 1210              		.loc 1 1418 0 is_stmt 0 discriminator 1
 1211 0008 0020     		movs	r0, #0
 1212              	.LVL111:
 1213 000a FFF7FEFF 		bl	CyHalt
 1214              	.LVL112:
 1215              	.L101:
1421:Generated_Source\PSoC4/CyLFClk.c ****                                             (counterNum * CY_SYS_WDT_CNT_MATCH_SHIFT)) & CY_SYS_WDT
 1216              		.loc 1 1421 0 is_stmt 1
 1217 000e 034B     		ldr	r3, .L102
 1218 0010 1868     		ldr	r0, [r3]
1422:Generated_Source\PSoC4/CyLFClk.c ****     }
 1219              		.loc 1 1422 0
 1220 0012 2401     		lsls	r4, r4, #4
 1221              	.LVL113:
ARM GAS  C:\Users\VIDEOH~1\AppData\Local\Temp\cc9HpMPY.s 			page 58


1421:Generated_Source\PSoC4/CyLFClk.c ****                                             (counterNum * CY_SYS_WDT_CNT_MATCH_SHIFT)) & CY_SYS_WDT
 1222              		.loc 1 1421 0
 1223 0014 E040     		lsrs	r0, r0, r4
 1224 0016 0004     		lsls	r0, r0, #16
 1225 0018 000C     		lsrs	r0, r0, #16
1423:Generated_Source\PSoC4/CyLFClk.c **** 
 1226              		.loc 1 1423 0
 1227              		@ sp needed
 1228 001a 10BD     		pop	{r4, pc}
 1229              	.L103:
 1230              		.align	2
 1231              	.L102:
 1232 001c 08020B40 		.word	1074463240
 1233              		.cfi_endproc
 1234              	.LFE21:
 1235              		.size	CySysWdtGetMatch, .-CySysWdtGetMatch
 1236              		.section	.text.CySysWdtGetCount,"ax",%progbits
 1237              		.align	2
 1238              		.global	CySysWdtGetCount
 1239              		.code	16
 1240              		.thumb_func
 1241              		.type	CySysWdtGetCount, %function
 1242              	CySysWdtGetCount:
 1243              	.LFB22:
1439:Generated_Source\PSoC4/CyLFClk.c ****         uint32 regValue = 0u;
 1244              		.loc 1 1439 0
 1245              		.cfi_startproc
 1246              		@ args = 0, pretend = 0, frame = 0
 1247              		@ frame_needed = 0, uses_anonymous_args = 0
 1248              	.LVL114:
 1249 0000 10B5     		push	{r4, lr}
 1250              		.cfi_def_cfa_offset 8
 1251              		.cfi_offset 4, -8
 1252              		.cfi_offset 14, -4
 1253              	.LVL115:
1442:Generated_Source\PSoC4/CyLFClk.c ****         {
 1254              		.loc 1 1442 0
 1255 0002 0128     		cmp	r0, #1
 1256 0004 09D0     		beq	.L106
 1257 0006 0028     		cmp	r0, #0
 1258 0008 02D0     		beq	.L107
 1259 000a 0228     		cmp	r0, #2
 1260 000c 09D0     		beq	.L108
 1261 000e 0BE0     		b	.L110
 1262              	.L107:
1446:Generated_Source\PSoC4/CyLFClk.c ****             break;
 1263              		.loc 1 1446 0
 1264 0010 084B     		ldr	r3, .L111
 1265 0012 1868     		ldr	r0, [r3]
 1266              	.LVL116:
 1267 0014 0004     		lsls	r0, r0, #16
 1268 0016 000C     		lsrs	r0, r0, #16
 1269              	.LVL117:
1447:Generated_Source\PSoC4/CyLFClk.c **** 
 1270              		.loc 1 1447 0
 1271 0018 0AE0     		b	.L109
 1272              	.LVL118:
ARM GAS  C:\Users\VIDEOH~1\AppData\Local\Temp\cc9HpMPY.s 			page 59


 1273              	.L106:
1451:Generated_Source\PSoC4/CyLFClk.c ****             break;
 1274              		.loc 1 1451 0
 1275 001a 064B     		ldr	r3, .L111
 1276 001c 1868     		ldr	r0, [r3]
 1277              	.LVL119:
 1278 001e 000C     		lsrs	r0, r0, #16
 1279              	.LVL120:
1452:Generated_Source\PSoC4/CyLFClk.c **** 
 1280              		.loc 1 1452 0
 1281 0020 06E0     		b	.L109
 1282              	.LVL121:
 1283              	.L108:
1456:Generated_Source\PSoC4/CyLFClk.c ****             break;
 1284              		.loc 1 1456 0
 1285 0022 054B     		ldr	r3, .L111+4
 1286 0024 1868     		ldr	r0, [r3]
 1287              	.LVL122:
1457:Generated_Source\PSoC4/CyLFClk.c **** 
 1288              		.loc 1 1457 0
 1289 0026 03E0     		b	.L109
 1290              	.LVL123:
 1291              	.L110:
1460:Generated_Source\PSoC4/CyLFClk.c ****             break;
 1292              		.loc 1 1460 0 discriminator 1
 1293 0028 0020     		movs	r0, #0
 1294              	.LVL124:
 1295 002a FFF7FEFF 		bl	CyHalt
 1296              	.LVL125:
1440:Generated_Source\PSoC4/CyLFClk.c **** 
 1297              		.loc 1 1440 0 discriminator 1
 1298 002e 0020     		movs	r0, #0
 1299              	.LVL126:
 1300              	.L109:
1465:Generated_Source\PSoC4/CyLFClk.c **** 
 1301              		.loc 1 1465 0
 1302              		@ sp needed
 1303 0030 10BD     		pop	{r4, pc}
 1304              	.L112:
 1305 0032 C046     		.align	2
 1306              	.L111:
 1307 0034 00020B40 		.word	1074463232
 1308 0038 04020B40 		.word	1074463236
 1309              		.cfi_endproc
 1310              	.LFE22:
 1311              		.size	CySysWdtGetCount, .-CySysWdtGetCount
 1312              		.section	.text.CySysClkLfclkPosedgeCatch,"ax",%progbits
 1313              		.align	2
 1314              		.code	16
 1315              		.thumb_func
 1316              		.type	CySysClkLfclkPosedgeCatch, %function
 1317              	CySysClkLfclkPosedgeCatch:
 1318              	.LFB32:
1841:Generated_Source\PSoC4/CyLFClk.c ****         uint32 firstCount;
 1319              		.loc 1 1841 0
 1320              		.cfi_startproc
 1321              		@ args = 0, pretend = 0, frame = 0
ARM GAS  C:\Users\VIDEOH~1\AppData\Local\Temp\cc9HpMPY.s 			page 60


 1322              		@ frame_needed = 0, uses_anonymous_args = 0
 1323 0000 10B5     		push	{r4, lr}
 1324              		.cfi_def_cfa_offset 8
 1325              		.cfi_offset 4, -8
 1326              		.cfi_offset 14, -4
1845:Generated_Source\PSoC4/CyLFClk.c ****         {
 1327              		.loc 1 1845 0
 1328 0002 0020     		movs	r0, #0
 1329 0004 FFF7FEFF 		bl	CySysWdtGetEnabledStatus
 1330              	.LVL127:
 1331 0008 0028     		cmp	r0, #0
 1332 000a 03D0     		beq	.L114
1847:Generated_Source\PSoC4/CyLFClk.c ****         }
 1333              		.loc 1 1847 0
 1334 000c 0022     		movs	r2, #0
 1335 000e 184B     		ldr	r3, .L119
 1336 0010 DA60     		str	r2, [r3, #12]
 1337 0012 21E0     		b	.L115
 1338              	.L114:
1849:Generated_Source\PSoC4/CyLFClk.c ****         {
 1339              		.loc 1 1849 0
 1340 0014 0120     		movs	r0, #1
 1341 0016 FFF7FEFF 		bl	CySysWdtGetEnabledStatus
 1342              	.LVL128:
 1343 001a 0028     		cmp	r0, #0
 1344 001c 03D0     		beq	.L116
1851:Generated_Source\PSoC4/CyLFClk.c ****         }
 1345              		.loc 1 1851 0
 1346 001e 0122     		movs	r2, #1
 1347 0020 134B     		ldr	r3, .L119
 1348 0022 DA60     		str	r2, [r3, #12]
 1349 0024 18E0     		b	.L115
 1350              	.L116:
1853:Generated_Source\PSoC4/CyLFClk.c ****         {
 1351              		.loc 1 1853 0
 1352 0026 0220     		movs	r0, #2
 1353 0028 FFF7FEFF 		bl	CySysWdtGetEnabledStatus
 1354              	.LVL129:
 1355 002c 0028     		cmp	r0, #0
 1356 002e 03D0     		beq	.L117
1855:Generated_Source\PSoC4/CyLFClk.c ****         }
 1357              		.loc 1 1855 0
 1358 0030 0222     		movs	r2, #2
 1359 0032 0F4B     		ldr	r3, .L119
 1360 0034 DA60     		str	r2, [r3, #12]
 1361 0036 0FE0     		b	.L115
 1362              	.L117:
1860:Generated_Source\PSoC4/CyLFClk.c ****             lfclkPosedgeEnabledWdtCounter = CY_SYS_WDT_COUNTER0;
 1363              		.loc 1 1860 0
 1364 0038 0D4C     		ldr	r4, .L119
 1365 003a 0123     		movs	r3, #1
 1366 003c 6360     		str	r3, [r4, #4]
1861:Generated_Source\PSoC4/CyLFClk.c **** 
 1367              		.loc 1 1861 0
 1368 003e 0023     		movs	r3, #0
 1369 0040 E360     		str	r3, [r4, #12]
1863:Generated_Source\PSoC4/CyLFClk.c ****             CySysWdtSetMode(CY_SYS_WDT_COUNTER0, CY_SYS_WDT_MODE_NONE);
ARM GAS  C:\Users\VIDEOH~1\AppData\Local\Temp\cc9HpMPY.s 			page 61


 1370              		.loc 1 1863 0
 1371 0042 0020     		movs	r0, #0
 1372 0044 FFF7FEFF 		bl	CySysWdtGetMode
 1373              	.LVL130:
 1374 0048 A060     		str	r0, [r4, #8]
1864:Generated_Source\PSoC4/CyLFClk.c ****             CySysWdtEnable(CY_SYS_WDT_COUNTER0_MASK);
 1375              		.loc 1 1864 0
 1376 004a 0021     		movs	r1, #0
 1377 004c 0020     		movs	r0, #0
 1378 004e FFF7FEFF 		bl	CySysWdtSetMode
 1379              	.LVL131:
1865:Generated_Source\PSoC4/CyLFClk.c ****         }
 1380              		.loc 1 1865 0
 1381 0052 0120     		movs	r0, #1
 1382 0054 FFF7FEFF 		bl	CySysWdtEnable
 1383              	.LVL132:
 1384              	.L115:
1868:Generated_Source\PSoC4/CyLFClk.c ****         while (CySysWdtGetCount(lfclkPosedgeEnabledWdtCounter) == firstCount)
 1385              		.loc 1 1868 0
 1386 0058 054B     		ldr	r3, .L119
 1387 005a D868     		ldr	r0, [r3, #12]
 1388 005c FFF7FEFF 		bl	CySysWdtGetCount
 1389              	.LVL133:
 1390 0060 0400     		movs	r4, r0
 1391              	.LVL134:
 1392              	.L118:
1869:Generated_Source\PSoC4/CyLFClk.c ****         {
 1393              		.loc 1 1869 0 discriminator 1
 1394 0062 034B     		ldr	r3, .L119
 1395 0064 D868     		ldr	r0, [r3, #12]
 1396 0066 FFF7FEFF 		bl	CySysWdtGetCount
 1397              	.LVL135:
 1398 006a 8442     		cmp	r4, r0
 1399 006c F9D0     		beq	.L118
1873:Generated_Source\PSoC4/CyLFClk.c **** 
 1400              		.loc 1 1873 0
 1401              		@ sp needed
 1402              	.LVL136:
 1403 006e 10BD     		pop	{r4, pc}
 1404              	.L120:
 1405              		.align	2
 1406              	.L119:
 1407 0070 00000000 		.word	.LANCHOR0
 1408              		.cfi_endproc
 1409              	.LFE32:
 1410              		.size	CySysClkLfclkPosedgeCatch, .-CySysClkLfclkPosedgeCatch
 1411              		.section	.text.CySysClkIloStop,"ax",%progbits
 1412              		.align	2
 1413              		.global	CySysClkIloStop
 1414              		.code	16
 1415              		.thumb_func
 1416              		.type	CySysClkIloStop, %function
 1417              	CySysClkIloStop:
 1418              	.LFB1:
 109:Generated_Source\PSoC4/CyLFClk.c ****     #if(CY_IP_SRSSV2)
 1419              		.loc 1 109 0
 1420              		.cfi_startproc
ARM GAS  C:\Users\VIDEOH~1\AppData\Local\Temp\cc9HpMPY.s 			page 62


 1421              		@ args = 0, pretend = 0, frame = 0
 1422              		@ frame_needed = 0, uses_anonymous_args = 0
 1423 0000 10B5     		push	{r4, lr}
 1424              		.cfi_def_cfa_offset 8
 1425              		.cfi_offset 4, -8
 1426              		.cfi_offset 14, -4
 114:Generated_Source\PSoC4/CyLFClk.c ****         {
 1427              		.loc 1 114 0
 1428 0002 FFF7FEFF 		bl	CySysWdtLocked
 1429              	.LVL137:
 1430 0006 0028     		cmp	r0, #0
 1431 0008 12D1     		bne	.L121
 116:Generated_Source\PSoC4/CyLFClk.c ****             {
 1432              		.loc 1 116 0
 1433 000a FFF7FEFF 		bl	CySysClkIloEnabled
 1434              	.LVL138:
 1435 000e 0028     		cmp	r0, #0
 1436 0010 0ED0     		beq	.L121
 124:Generated_Source\PSoC4/CyLFClk.c ****                 CySysClkLfclkPosedgeCatch();
 1437              		.loc 1 124 0
 1438 0012 FFF7FEFF 		bl	CyEnterCriticalSection
 1439              	.LVL139:
 1440 0016 0400     		movs	r4, r0
 1441              	.LVL140:
 125:Generated_Source\PSoC4/CyLFClk.c ****                 CY_SYS_CLK_ILO_CONFIG_REG &= (uint32) ( ~(uint32)CY_SYS_CLK_ILO_CONFIG_ENABLE);
 1442              		.loc 1 125 0
 1443 0018 FFF7FEFF 		bl	CySysClkLfclkPosedgeCatch
 1444              	.LVL141:
 126:Generated_Source\PSoC4/CyLFClk.c ****                 CySysClkLfclkPosedgeRestore();
 1445              		.loc 1 126 0
 1446 001c 054A     		ldr	r2, .L123
 1447 001e 1368     		ldr	r3, [r2]
 1448 0020 5B00     		lsls	r3, r3, #1
 1449 0022 5B08     		lsrs	r3, r3, #1
 1450 0024 1360     		str	r3, [r2]
 127:Generated_Source\PSoC4/CyLFClk.c ****                 CyExitCriticalSection(interruptState);
 1451              		.loc 1 127 0
 1452 0026 FFF7FEFF 		bl	CySysClkLfclkPosedgeRestore
 1453              	.LVL142:
 128:Generated_Source\PSoC4/CyLFClk.c **** 
 1454              		.loc 1 128 0
 1455 002a 2000     		movs	r0, r4
 1456 002c FFF7FEFF 		bl	CyExitCriticalSection
 1457              	.LVL143:
 1458              	.L121:
 143:Generated_Source\PSoC4/CyLFClk.c **** 
 1459              		.loc 1 143 0
 1460              		@ sp needed
 1461 0030 10BD     		pop	{r4, pc}
 1462              	.L124:
 1463 0032 C046     		.align	2
 1464              	.L123:
 1465 0034 04010B40 		.word	1074462980
 1466              		.cfi_endproc
 1467              	.LFE1:
 1468              		.size	CySysClkIloStop, .-CySysClkIloStop
 1469              		.section	.text.CySysWdtGetInterruptSource,"ax",%progbits
ARM GAS  C:\Users\VIDEOH~1\AppData\Local\Temp\cc9HpMPY.s 			page 63


 1470              		.align	2
 1471              		.global	CySysWdtGetInterruptSource
 1472              		.code	16
 1473              		.thumb_func
 1474              		.type	CySysWdtGetInterruptSource, %function
 1475              	CySysWdtGetInterruptSource:
 1476              	.LFB23:
1482:Generated_Source\PSoC4/CyLFClk.c ****         return (CY_SYS_WDT_CONTROL_REG & (CY_SYS_WDT_COUNTER0_INT | CY_SYS_WDT_COUNTER1_INT | CY_SY
 1477              		.loc 1 1482 0
 1478              		.cfi_startproc
 1479              		@ args = 0, pretend = 0, frame = 0
 1480              		@ frame_needed = 0, uses_anonymous_args = 0
 1481              		@ link register save eliminated.
1483:Generated_Source\PSoC4/CyLFClk.c ****     }
 1482              		.loc 1 1483 0
 1483 0000 024B     		ldr	r3, .L126
 1484 0002 1868     		ldr	r0, [r3]
 1485 0004 024B     		ldr	r3, .L126+4
 1486 0006 1840     		ands	r0, r3
1484:Generated_Source\PSoC4/CyLFClk.c **** 
 1487              		.loc 1 1484 0
 1488              		@ sp needed
 1489 0008 7047     		bx	lr
 1490              	.L127:
 1491 000a C046     		.align	2
 1492              	.L126:
 1493 000c 10020B40 		.word	1074463248
 1494 0010 04040400 		.word	263172
 1495              		.cfi_endproc
 1496              	.LFE23:
 1497              		.size	CySysWdtGetInterruptSource, .-CySysWdtGetInterruptSource
 1498              		.section	.text.CySysWdtClearInterrupt,"ax",%progbits
 1499              		.align	2
 1500              		.global	CySysWdtClearInterrupt
 1501              		.code	16
 1502              		.thumb_func
 1503              		.type	CySysWdtClearInterrupt, %function
 1504              	CySysWdtClearInterrupt:
 1505              	.LFB24:
1511:Generated_Source\PSoC4/CyLFClk.c ****         uint8 interruptState;
 1506              		.loc 1 1511 0
 1507              		.cfi_startproc
 1508              		@ args = 0, pretend = 0, frame = 0
 1509              		@ frame_needed = 0, uses_anonymous_args = 0
 1510              	.LVL144:
 1511 0000 70B5     		push	{r4, r5, r6, lr}
 1512              		.cfi_def_cfa_offset 16
 1513              		.cfi_offset 4, -16
 1514              		.cfi_offset 5, -12
 1515              		.cfi_offset 6, -8
 1516              		.cfi_offset 14, -4
 1517 0002 0500     		movs	r5, r0
1515:Generated_Source\PSoC4/CyLFClk.c **** 
 1518              		.loc 1 1515 0
 1519 0004 FFF7FEFF 		bl	CyEnterCriticalSection
 1520              	.LVL145:
 1521 0008 0400     		movs	r4, r0
ARM GAS  C:\Users\VIDEOH~1\AppData\Local\Temp\cc9HpMPY.s 			page 64


 1522              	.LVL146:
1517:Generated_Source\PSoC4/CyLFClk.c ****         {
 1523              		.loc 1 1517 0
 1524 000a FFF7FEFF 		bl	CySysWdtLocked
 1525              	.LVL147:
 1526 000e 0028     		cmp	r0, #0
 1527 0010 03D0     		beq	.L131
 1528              	.LVL148:
1520:Generated_Source\PSoC4/CyLFClk.c ****         }
 1529              		.loc 1 1520 0
 1530 0012 FFF7FEFF 		bl	CySysWdtUnlock
 1531              	.LVL149:
1519:Generated_Source\PSoC4/CyLFClk.c ****             CySysWdtUnlock();
 1532              		.loc 1 1519 0
 1533 0016 0121     		movs	r1, #1
 1534 0018 00E0     		b	.L129
 1535              	.LVL150:
 1536              	.L131:
1524:Generated_Source\PSoC4/CyLFClk.c ****         }
 1537              		.loc 1 1524 0
 1538 001a 0021     		movs	r1, #0
 1539              	.L129:
 1540              	.LVL151:
1528:Generated_Source\PSoC4/CyLFClk.c ****                         CY_SYS_WDT_COUNTER1_INT |
 1541              		.loc 1 1528 0
 1542 001c 0848     		ldr	r0, .L132
 1543 001e 2840     		ands	r0, r5
 1544              	.LVL152:
1532:Generated_Source\PSoC4/CyLFClk.c ****                                                                            CY_SYS_WDT_COUNTER1_INT 
 1545              		.loc 1 1532 0
 1546 0020 084A     		ldr	r2, .L132+4
 1547 0022 1568     		ldr	r5, [r2]
 1548 0024 084B     		ldr	r3, .L132+8
 1549 0026 2B40     		ands	r3, r5
 1550 0028 1843     		orrs	r0, r3
 1551              	.LVL153:
 1552 002a 1060     		str	r0, [r2]
1539:Generated_Source\PSoC4/CyLFClk.c **** 
 1553              		.loc 1 1539 0
 1554 002c 1368     		ldr	r3, [r2]
1541:Generated_Source\PSoC4/CyLFClk.c ****         {
 1555              		.loc 1 1541 0
 1556 002e 0129     		cmp	r1, #1
 1557 0030 01D1     		bne	.L130
1543:Generated_Source\PSoC4/CyLFClk.c ****         }
 1558              		.loc 1 1543 0
 1559 0032 FFF7FEFF 		bl	CySysWdtLock
 1560              	.LVL154:
 1561              	.L130:
1546:Generated_Source\PSoC4/CyLFClk.c ****     }
 1562              		.loc 1 1546 0
 1563 0036 2000     		movs	r0, r4
 1564 0038 FFF7FEFF 		bl	CyExitCriticalSection
 1565              	.LVL155:
1547:Generated_Source\PSoC4/CyLFClk.c **** 
 1566              		.loc 1 1547 0
 1567              		@ sp needed
ARM GAS  C:\Users\VIDEOH~1\AppData\Local\Temp\cc9HpMPY.s 			page 65


 1568              	.LVL156:
 1569 003c 70BD     		pop	{r4, r5, r6, pc}
 1570              	.L133:
 1571 003e C046     		.align	2
 1572              	.L132:
 1573 0040 04040400 		.word	263172
 1574 0044 10020B40 		.word	1074463248
 1575 0048 FBFBFBFF 		.word	-263173
 1576              		.cfi_endproc
 1577              	.LFE24:
 1578              		.size	CySysWdtClearInterrupt, .-CySysWdtClearInterrupt
 1579              		.section	.text.CySysWdtResetCounters,"ax",%progbits
 1580              		.align	2
 1581              		.global	CySysWdtResetCounters
 1582              		.code	16
 1583              		.thumb_func
 1584              		.type	CySysWdtResetCounters, %function
 1585              	CySysWdtResetCounters:
 1586              	.LFB25:
1569:Generated_Source\PSoC4/CyLFClk.c ****         /* Set new WDT reset value */
 1587              		.loc 1 1569 0
 1588              		.cfi_startproc
 1589              		@ args = 0, pretend = 0, frame = 0
 1590              		@ frame_needed = 0, uses_anonymous_args = 0
 1591              		@ link register save eliminated.
 1592              	.LVL157:
1571:Generated_Source\PSoC4/CyLFClk.c **** 
 1593              		.loc 1 1571 0
 1594 0000 054A     		ldr	r2, .L136
 1595 0002 1168     		ldr	r1, [r2]
 1596 0004 054B     		ldr	r3, .L136+4
 1597 0006 1840     		ands	r0, r3
 1598              	.LVL158:
 1599 0008 0843     		orrs	r0, r1
 1600 000a 1060     		str	r0, [r2]
 1601              	.L135:
1573:Generated_Source\PSoC4/CyLFClk.c ****         {
 1602              		.loc 1 1573 0 discriminator 1
 1603 000c 024B     		ldr	r3, .L136
 1604 000e 1A68     		ldr	r2, [r3]
 1605 0010 024B     		ldr	r3, .L136+4
 1606 0012 1A42     		tst	r2, r3
 1607 0014 FAD1     		bne	.L135
1577:Generated_Source\PSoC4/CyLFClk.c **** 
 1608              		.loc 1 1577 0
 1609              		@ sp needed
 1610 0016 7047     		bx	lr
 1611              	.L137:
 1612              		.align	2
 1613              	.L136:
 1614 0018 10020B40 		.word	1074463248
 1615 001c 08080800 		.word	526344
 1616              		.cfi_endproc
 1617              	.LFE25:
 1618              		.size	CySysWdtResetCounters, .-CySysWdtResetCounters
 1619              		.section	.text.CySysWdtSetInterruptCallback,"ax",%progbits
 1620              		.align	2
ARM GAS  C:\Users\VIDEOH~1\AppData\Local\Temp\cc9HpMPY.s 			page 66


 1621              		.global	CySysWdtSetInterruptCallback
 1622              		.code	16
 1623              		.thumb_func
 1624              		.type	CySysWdtSetInterruptCallback, %function
 1625              	CySysWdtSetInterruptCallback:
 1626              	.LFB26:
1595:Generated_Source\PSoC4/CyLFClk.c ****         cyWdtCallback prevCallback = (void *)0;
 1627              		.loc 1 1595 0
 1628              		.cfi_startproc
 1629              		@ args = 0, pretend = 0, frame = 0
 1630              		@ frame_needed = 0, uses_anonymous_args = 0
 1631              	.LVL159:
 1632 0000 10B5     		push	{r4, lr}
 1633              		.cfi_def_cfa_offset 8
 1634              		.cfi_offset 4, -8
 1635              		.cfi_offset 14, -4
 1636              	.LVL160:
1598:Generated_Source\PSoC4/CyLFClk.c ****         {
 1637              		.loc 1 1598 0
 1638 0002 0228     		cmp	r0, #2
 1639 0004 05D8     		bhi	.L139
1600:Generated_Source\PSoC4/CyLFClk.c ****             cySysWdtCallback[counterNum] = function;
 1640              		.loc 1 1600 0
 1641 0006 8000     		lsls	r0, r0, #2
 1642              	.LVL161:
 1643 0008 044B     		ldr	r3, .L141
 1644 000a 1B18     		adds	r3, r3, r0
 1645 000c 1869     		ldr	r0, [r3, #16]
 1646              	.LVL162:
1601:Generated_Source\PSoC4/CyLFClk.c ****         }
 1647              		.loc 1 1601 0
 1648 000e 1961     		str	r1, [r3, #16]
 1649 0010 03E0     		b	.L140
 1650              	.LVL163:
 1651              	.L139:
1605:Generated_Source\PSoC4/CyLFClk.c ****         }
 1652              		.loc 1 1605 0 discriminator 1
 1653 0012 0020     		movs	r0, #0
 1654              	.LVL164:
 1655 0014 FFF7FEFF 		bl	CyHalt
 1656              	.LVL165:
1596:Generated_Source\PSoC4/CyLFClk.c **** 
 1657              		.loc 1 1596 0 discriminator 1
 1658 0018 0020     		movs	r0, #0
 1659              	.LVL166:
 1660              	.L140:
1609:Generated_Source\PSoC4/CyLFClk.c **** 
 1661              		.loc 1 1609 0
 1662              		@ sp needed
 1663 001a 10BD     		pop	{r4, pc}
 1664              	.L142:
 1665              		.align	2
 1666              	.L141:
 1667 001c 00000000 		.word	.LANCHOR0
 1668              		.cfi_endproc
 1669              	.LFE26:
 1670              		.size	CySysWdtSetInterruptCallback, .-CySysWdtSetInterruptCallback
ARM GAS  C:\Users\VIDEOH~1\AppData\Local\Temp\cc9HpMPY.s 			page 67


 1671              		.section	.text.CySysWdtGetInterruptCallback,"ax",%progbits
 1672              		.align	2
 1673              		.global	CySysWdtGetInterruptCallback
 1674              		.code	16
 1675              		.thumb_func
 1676              		.type	CySysWdtGetInterruptCallback, %function
 1677              	CySysWdtGetInterruptCallback:
 1678              	.LFB27:
1625:Generated_Source\PSoC4/CyLFClk.c ****         cyWdtCallback retCallback = (void *)0;
 1679              		.loc 1 1625 0
 1680              		.cfi_startproc
 1681              		@ args = 0, pretend = 0, frame = 0
 1682              		@ frame_needed = 0, uses_anonymous_args = 0
 1683              	.LVL167:
 1684 0000 10B5     		push	{r4, lr}
 1685              		.cfi_def_cfa_offset 8
 1686              		.cfi_offset 4, -8
 1687              		.cfi_offset 14, -4
 1688              	.LVL168:
1628:Generated_Source\PSoC4/CyLFClk.c ****         {
 1689              		.loc 1 1628 0
 1690 0002 0228     		cmp	r0, #2
 1691 0004 04D8     		bhi	.L144
1630:Generated_Source\PSoC4/CyLFClk.c ****         }
 1692              		.loc 1 1630 0
 1693 0006 8000     		lsls	r0, r0, #2
 1694              	.LVL169:
 1695 0008 044B     		ldr	r3, .L146
 1696 000a 1818     		adds	r0, r3, r0
 1697 000c 0069     		ldr	r0, [r0, #16]
 1698              	.LVL170:
 1699 000e 03E0     		b	.L145
 1700              	.LVL171:
 1701              	.L144:
1634:Generated_Source\PSoC4/CyLFClk.c ****         }
 1702              		.loc 1 1634 0 discriminator 1
 1703 0010 0020     		movs	r0, #0
 1704              	.LVL172:
 1705 0012 FFF7FEFF 		bl	CyHalt
 1706              	.LVL173:
1626:Generated_Source\PSoC4/CyLFClk.c **** 
 1707              		.loc 1 1626 0 discriminator 1
 1708 0016 0020     		movs	r0, #0
 1709              	.LVL174:
 1710              	.L145:
1638:Generated_Source\PSoC4/CyLFClk.c **** 
 1711              		.loc 1 1638 0
 1712              		@ sp needed
 1713 0018 10BD     		pop	{r4, pc}
 1714              	.L147:
 1715 001a C046     		.align	2
 1716              	.L146:
 1717 001c 00000000 		.word	.LANCHOR0
 1718              		.cfi_endproc
 1719              	.LFE27:
 1720              		.size	CySysWdtGetInterruptCallback, .-CySysWdtGetInterruptCallback
 1721              		.section	.text.CySysWdtEnableCounterIsr,"ax",%progbits
ARM GAS  C:\Users\VIDEOH~1\AppData\Local\Temp\cc9HpMPY.s 			page 68


 1722              		.align	2
 1723              		.global	CySysWdtEnableCounterIsr
 1724              		.code	16
 1725              		.thumb_func
 1726              		.type	CySysWdtEnableCounterIsr, %function
 1727              	CySysWdtEnableCounterIsr:
 1728              	.LFB28:
1654:Generated_Source\PSoC4/CyLFClk.c ****         if(counterNum <= CY_SYS_WDT_COUNTER2)
 1729              		.loc 1 1654 0
 1730              		.cfi_startproc
 1731              		@ args = 0, pretend = 0, frame = 0
 1732              		@ frame_needed = 0, uses_anonymous_args = 0
 1733              	.LVL175:
 1734 0000 10B5     		push	{r4, lr}
 1735              		.cfi_def_cfa_offset 8
 1736              		.cfi_offset 4, -8
 1737              		.cfi_offset 14, -4
1655:Generated_Source\PSoC4/CyLFClk.c ****         {
 1738              		.loc 1 1655 0
 1739 0002 0228     		cmp	r0, #2
 1740 0004 0BD8     		bhi	.L149
1657:Generated_Source\PSoC4/CyLFClk.c ****             wdtIsrMask |= counterIntMaskTbl[counterNum];
 1741              		.loc 1 1657 0
 1742 0006 8000     		lsls	r0, r0, #2
 1743              	.LVL176:
 1744 0008 074B     		ldr	r3, .L151
 1745 000a C158     		ldr	r1, [r0, r3]
 1746 000c 074B     		ldr	r3, .L151+4
 1747 000e DA69     		ldr	r2, [r3, #28]
 1748 0010 8A43     		bics	r2, r1
 1749 0012 DA61     		str	r2, [r3, #28]
1658:Generated_Source\PSoC4/CyLFClk.c ****         }
 1750              		.loc 1 1658 0
 1751 0014 064A     		ldr	r2, .L151+8
 1752 0016 1368     		ldr	r3, [r2]
 1753 0018 0B43     		orrs	r3, r1
 1754 001a 1360     		str	r3, [r2]
 1755 001c 02E0     		b	.L148
 1756              	.LVL177:
 1757              	.L149:
1662:Generated_Source\PSoC4/CyLFClk.c ****         }
 1758              		.loc 1 1662 0 discriminator 1
 1759 001e 0020     		movs	r0, #0
 1760              	.LVL178:
 1761 0020 FFF7FEFF 		bl	CyHalt
 1762              	.LVL179:
 1763              	.L148:
1664:Generated_Source\PSoC4/CyLFClk.c **** 
 1764              		.loc 1 1664 0
 1765              		@ sp needed
 1766 0024 10BD     		pop	{r4, pc}
 1767              	.L152:
 1768 0026 C046     		.align	2
 1769              	.L151:
 1770 0028 00000000 		.word	.LANCHOR1
 1771 002c 00000000 		.word	.LANCHOR0
 1772 0030 00000000 		.word	.LANCHOR2
ARM GAS  C:\Users\VIDEOH~1\AppData\Local\Temp\cc9HpMPY.s 			page 69


 1773              		.cfi_endproc
 1774              	.LFE28:
 1775              		.size	CySysWdtEnableCounterIsr, .-CySysWdtEnableCounterIsr
 1776              		.section	.text.CySysWdtDisableCounterIsr,"ax",%progbits
 1777              		.align	2
 1778              		.global	CySysWdtDisableCounterIsr
 1779              		.code	16
 1780              		.thumb_func
 1781              		.type	CySysWdtDisableCounterIsr, %function
 1782              	CySysWdtDisableCounterIsr:
 1783              	.LFB29:
1677:Generated_Source\PSoC4/CyLFClk.c ****         if(counterNum <= CY_SYS_WDT_COUNTER2)
 1784              		.loc 1 1677 0
 1785              		.cfi_startproc
 1786              		@ args = 0, pretend = 0, frame = 0
 1787              		@ frame_needed = 0, uses_anonymous_args = 0
 1788              	.LVL180:
 1789 0000 10B5     		push	{r4, lr}
 1790              		.cfi_def_cfa_offset 8
 1791              		.cfi_offset 4, -8
 1792              		.cfi_offset 14, -4
1678:Generated_Source\PSoC4/CyLFClk.c ****         {
 1793              		.loc 1 1678 0
 1794 0002 0228     		cmp	r0, #2
 1795 0004 07D8     		bhi	.L154
1680:Generated_Source\PSoC4/CyLFClk.c ****         }
 1796              		.loc 1 1680 0
 1797 0006 8000     		lsls	r0, r0, #2
 1798              	.LVL181:
 1799 0008 054B     		ldr	r3, .L156
 1800 000a C158     		ldr	r1, [r0, r3]
 1801 000c 054A     		ldr	r2, .L156+4
 1802 000e 1368     		ldr	r3, [r2]
 1803 0010 8B43     		bics	r3, r1
 1804 0012 1360     		str	r3, [r2]
 1805 0014 02E0     		b	.L153
 1806              	.LVL182:
 1807              	.L154:
1684:Generated_Source\PSoC4/CyLFClk.c ****         }
 1808              		.loc 1 1684 0 discriminator 1
 1809 0016 0020     		movs	r0, #0
 1810              	.LVL183:
 1811 0018 FFF7FEFF 		bl	CyHalt
 1812              	.LVL184:
 1813              	.L153:
1686:Generated_Source\PSoC4/CyLFClk.c **** 
 1814              		.loc 1 1686 0
 1815              		@ sp needed
 1816 001c 10BD     		pop	{r4, pc}
 1817              	.L157:
 1818 001e C046     		.align	2
 1819              	.L156:
 1820 0020 00000000 		.word	.LANCHOR1
 1821 0024 00000000 		.word	.LANCHOR2
 1822              		.cfi_endproc
 1823              	.LFE29:
 1824              		.size	CySysWdtDisableCounterIsr, .-CySysWdtDisableCounterIsr
ARM GAS  C:\Users\VIDEOH~1\AppData\Local\Temp\cc9HpMPY.s 			page 70


 1825              		.section	.text.CySysWdtIsr,"ax",%progbits
 1826              		.align	2
 1827              		.global	CySysWdtIsr
 1828              		.code	16
 1829              		.thumb_func
 1830              		.type	CySysWdtIsr, %function
 1831              	CySysWdtIsr:
 1832              	.LFB30:
1710:Generated_Source\PSoC4/CyLFClk.c ****         if(0u != (CY_SYS_WDT_COUNTER0_INT & CY_SYS_WDT_CONTROL_REG))
 1833              		.loc 1 1710 0
 1834              		.cfi_startproc
 1835              		@ args = 0, pretend = 0, frame = 0
 1836              		@ frame_needed = 0, uses_anonymous_args = 0
 1837 0000 10B5     		push	{r4, lr}
 1838              		.cfi_def_cfa_offset 8
 1839              		.cfi_offset 4, -8
 1840              		.cfi_offset 14, -4
1711:Generated_Source\PSoC4/CyLFClk.c ****         {
 1841              		.loc 1 1711 0
 1842 0002 244B     		ldr	r3, .L165
 1843 0004 1B68     		ldr	r3, [r3]
 1844 0006 5B07     		lsls	r3, r3, #29
 1845 0008 15D5     		bpl	.L159
1713:Generated_Source\PSoC4/CyLFClk.c ****             {
 1846              		.loc 1 1713 0
 1847 000a 234B     		ldr	r3, .L165+4
 1848 000c 1B68     		ldr	r3, [r3]
 1849 000e 5B07     		lsls	r3, r3, #29
 1850 0010 0ED5     		bpl	.L160
1715:Generated_Source\PSoC4/CyLFClk.c ****                 disableServicedIsr  &= ~CY_SYS_WDT_COUNTER0_INT;
 1851              		.loc 1 1715 0
 1852 0012 224B     		ldr	r3, .L165+8
 1853 0014 D969     		ldr	r1, [r3, #28]
 1854 0016 0420     		movs	r0, #4
 1855 0018 0140     		ands	r1, r0
 1856 001a 1F4C     		ldr	r4, .L165+4
 1857 001c 2268     		ldr	r2, [r4]
 1858 001e 8A43     		bics	r2, r1
 1859 0020 2260     		str	r2, [r4]
1716:Generated_Source\PSoC4/CyLFClk.c ****                 if(cySysWdtCallback[CY_SYS_WDT_COUNTER0] != (void *) 0)
 1860              		.loc 1 1716 0
 1861 0022 DA69     		ldr	r2, [r3, #28]
 1862 0024 8243     		bics	r2, r0
 1863 0026 DA61     		str	r2, [r3, #28]
1717:Generated_Source\PSoC4/CyLFClk.c ****                 {
 1864              		.loc 1 1717 0
 1865 0028 1B69     		ldr	r3, [r3, #16]
 1866 002a 002B     		cmp	r3, #0
 1867 002c 00D0     		beq	.L160
1719:Generated_Source\PSoC4/CyLFClk.c ****                 }
 1868              		.loc 1 1719 0
 1869 002e 9847     		blx	r3
 1870              	.LVL185:
 1871              	.L160:
1722:Generated_Source\PSoC4/CyLFClk.c ****         }
 1872              		.loc 1 1722 0
 1873 0030 0420     		movs	r0, #4
ARM GAS  C:\Users\VIDEOH~1\AppData\Local\Temp\cc9HpMPY.s 			page 71


 1874 0032 FFF7FEFF 		bl	CySysWdtClearInterrupt
 1875              	.LVL186:
 1876              	.L159:
1725:Generated_Source\PSoC4/CyLFClk.c ****         {
 1877              		.loc 1 1725 0
 1878 0036 174B     		ldr	r3, .L165
 1879 0038 1B68     		ldr	r3, [r3]
 1880 003a 5B05     		lsls	r3, r3, #21
 1881 003c 18D5     		bpl	.L161
1727:Generated_Source\PSoC4/CyLFClk.c ****             {
 1882              		.loc 1 1727 0
 1883 003e 164B     		ldr	r3, .L165+4
 1884 0040 1B68     		ldr	r3, [r3]
 1885 0042 5B05     		lsls	r3, r3, #21
 1886 0044 10D5     		bpl	.L162
1729:Generated_Source\PSoC4/CyLFClk.c ****                 disableServicedIsr  &= ~CY_SYS_WDT_COUNTER1_INT;
 1887              		.loc 1 1729 0
 1888 0046 154B     		ldr	r3, .L165+8
 1889 0048 D969     		ldr	r1, [r3, #28]
 1890 004a 8022     		movs	r2, #128
 1891 004c D200     		lsls	r2, r2, #3
 1892 004e 1140     		ands	r1, r2
 1893 0050 1148     		ldr	r0, .L165+4
 1894 0052 0268     		ldr	r2, [r0]
 1895 0054 8A43     		bics	r2, r1
 1896 0056 0260     		str	r2, [r0]
1730:Generated_Source\PSoC4/CyLFClk.c ****                 if(cySysWdtCallback[CY_SYS_WDT_COUNTER1] != (void *) 0)
 1897              		.loc 1 1730 0
 1898 0058 D969     		ldr	r1, [r3, #28]
 1899 005a 114A     		ldr	r2, .L165+12
 1900 005c 0A40     		ands	r2, r1
 1901 005e DA61     		str	r2, [r3, #28]
1731:Generated_Source\PSoC4/CyLFClk.c ****                 {
 1902              		.loc 1 1731 0
 1903 0060 5B69     		ldr	r3, [r3, #20]
 1904 0062 002B     		cmp	r3, #0
 1905 0064 00D0     		beq	.L162
1733:Generated_Source\PSoC4/CyLFClk.c ****                 }
 1906              		.loc 1 1733 0
 1907 0066 9847     		blx	r3
 1908              	.LVL187:
 1909              	.L162:
1736:Generated_Source\PSoC4/CyLFClk.c ****         }
 1910              		.loc 1 1736 0
 1911 0068 8020     		movs	r0, #128
 1912 006a C000     		lsls	r0, r0, #3
 1913 006c FFF7FEFF 		bl	CySysWdtClearInterrupt
 1914              	.LVL188:
 1915              	.L161:
1739:Generated_Source\PSoC4/CyLFClk.c ****         {
 1916              		.loc 1 1739 0
 1917 0070 084B     		ldr	r3, .L165
 1918 0072 1B68     		ldr	r3, [r3]
 1919 0074 5B03     		lsls	r3, r3, #13
 1920 0076 0CD5     		bpl	.L158
1741:Generated_Source\PSoC4/CyLFClk.c ****             {
 1921              		.loc 1 1741 0
ARM GAS  C:\Users\VIDEOH~1\AppData\Local\Temp\cc9HpMPY.s 			page 72


 1922 0078 074B     		ldr	r3, .L165+4
 1923 007a 1B68     		ldr	r3, [r3]
 1924 007c 5B03     		lsls	r3, r3, #13
 1925 007e 04D5     		bpl	.L164
1743:Generated_Source\PSoC4/CyLFClk.c ****                 {
 1926              		.loc 1 1743 0
 1927 0080 064B     		ldr	r3, .L165+8
 1928 0082 9B69     		ldr	r3, [r3, #24]
 1929 0084 002B     		cmp	r3, #0
 1930 0086 00D0     		beq	.L164
1745:Generated_Source\PSoC4/CyLFClk.c ****                 }
 1931              		.loc 1 1745 0
 1932 0088 9847     		blx	r3
 1933              	.LVL189:
 1934              	.L164:
1748:Generated_Source\PSoC4/CyLFClk.c ****         }
 1935              		.loc 1 1748 0
 1936 008a 8020     		movs	r0, #128
 1937 008c C002     		lsls	r0, r0, #11
 1938 008e FFF7FEFF 		bl	CySysWdtClearInterrupt
 1939              	.LVL190:
 1940              	.L158:
1750:Generated_Source\PSoC4/CyLFClk.c **** 
 1941              		.loc 1 1750 0
 1942              		@ sp needed
 1943 0092 10BD     		pop	{r4, pc}
 1944              	.L166:
 1945              		.align	2
 1946              	.L165:
 1947 0094 10020B40 		.word	1074463248
 1948 0098 00000000 		.word	.LANCHOR2
 1949 009c 00000000 		.word	.LANCHOR0
 1950 00a0 FFFBFFFF 		.word	-1025
 1951              		.cfi_endproc
 1952              	.LFE30:
 1953              		.size	CySysWdtIsr, .-CySysWdtIsr
 1954              		.section	.text.CySysWatchdogFeed,"ax",%progbits
 1955              		.align	2
 1956              		.global	CySysWatchdogFeed
 1957              		.code	16
 1958              		.thumb_func
 1959              		.type	CySysWatchdogFeed, %function
 1960              	CySysWatchdogFeed:
 1961              	.LFB31:
1775:Generated_Source\PSoC4/CyLFClk.c ****         if(counterNum == CY_SYS_WDT_COUNTER0)
 1962              		.loc 1 1775 0
 1963              		.cfi_startproc
 1964              		@ args = 0, pretend = 0, frame = 0
 1965              		@ frame_needed = 0, uses_anonymous_args = 0
 1966              	.LVL191:
 1967 0000 10B5     		push	{r4, lr}
 1968              		.cfi_def_cfa_offset 8
 1969              		.cfi_offset 4, -8
 1970              		.cfi_offset 14, -4
 1971 0002 041E     		subs	r4, r0, #0
1776:Generated_Source\PSoC4/CyLFClk.c ****         {
 1972              		.loc 1 1776 0
ARM GAS  C:\Users\VIDEOH~1\AppData\Local\Temp\cc9HpMPY.s 			page 73


 1973 0004 13D1     		bne	.L168
1778:Generated_Source\PSoC4/CyLFClk.c ****             {
 1974              		.loc 1 1778 0
 1975 0006 FFF7FEFF 		bl	CySysWdtGetMode
 1976              	.LVL192:
 1977 000a 0328     		cmp	r0, #3
 1978 000c 03D1     		bne	.L169
1780:Generated_Source\PSoC4/CyLFClk.c ****             }
 1979              		.loc 1 1780 0
 1980 000e 0130     		adds	r0, r0, #1
 1981 0010 FFF7FEFF 		bl	CySysWdtClearInterrupt
 1982              	.LVL193:
 1983 0014 23E0     		b	.L167
 1984              	.L169:
1782:Generated_Source\PSoC4/CyLFClk.c ****             {
 1985              		.loc 1 1782 0
 1986 0016 2000     		movs	r0, r4
 1987 0018 FFF7FEFF 		bl	CySysWdtGetMode
 1988              	.LVL194:
 1989 001c 0228     		cmp	r0, #2
 1990 001e 1ED1     		bne	.L167
1784:Generated_Source\PSoC4/CyLFClk.c ****                 CySysWdtClearInterrupt(CY_SYS_WDT_COUNTER0_INT);
 1991              		.loc 1 1784 0
 1992 0020 0630     		adds	r0, r0, #6
 1993 0022 FFF7FEFF 		bl	CySysWdtResetCounters
 1994              	.LVL195:
1785:Generated_Source\PSoC4/CyLFClk.c ****             }
 1995              		.loc 1 1785 0
 1996 0026 0420     		movs	r0, #4
 1997 0028 FFF7FEFF 		bl	CySysWdtClearInterrupt
 1998              	.LVL196:
 1999 002c 17E0     		b	.L167
 2000              	.LVL197:
 2001              	.L168:
1792:Generated_Source\PSoC4/CyLFClk.c ****         {
 2002              		.loc 1 1792 0
 2003 002e 0128     		cmp	r0, #1
 2004 0030 15D1     		bne	.L167
1794:Generated_Source\PSoC4/CyLFClk.c ****             {
 2005              		.loc 1 1794 0
 2006 0032 FFF7FEFF 		bl	CySysWdtGetMode
 2007              	.LVL198:
 2008 0036 0328     		cmp	r0, #3
 2009 0038 04D1     		bne	.L171
1796:Generated_Source\PSoC4/CyLFClk.c ****             }
 2010              		.loc 1 1796 0
 2011 003a 8020     		movs	r0, #128
 2012 003c C000     		lsls	r0, r0, #3
 2013 003e FFF7FEFF 		bl	CySysWdtClearInterrupt
 2014              	.LVL199:
 2015 0042 0CE0     		b	.L167
 2016              	.L171:
1798:Generated_Source\PSoC4/CyLFClk.c ****             {
 2017              		.loc 1 1798 0
 2018 0044 2000     		movs	r0, r4
 2019 0046 FFF7FEFF 		bl	CySysWdtGetMode
 2020              	.LVL200:
ARM GAS  C:\Users\VIDEOH~1\AppData\Local\Temp\cc9HpMPY.s 			page 74


 2021 004a 0228     		cmp	r0, #2
 2022 004c 07D1     		bne	.L167
1800:Generated_Source\PSoC4/CyLFClk.c ****                 CySysWdtClearInterrupt(CY_SYS_WDT_COUNTER1_INT);
 2023              		.loc 1 1800 0
 2024 004e 8020     		movs	r0, #128
 2025 0050 0001     		lsls	r0, r0, #4
 2026 0052 FFF7FEFF 		bl	CySysWdtResetCounters
 2027              	.LVL201:
1801:Generated_Source\PSoC4/CyLFClk.c ****             }
 2028              		.loc 1 1801 0
 2029 0056 8020     		movs	r0, #128
 2030 0058 C000     		lsls	r0, r0, #3
 2031 005a FFF7FEFF 		bl	CySysWdtClearInterrupt
 2032              	.LVL202:
 2033              	.L167:
1812:Generated_Source\PSoC4/CyLFClk.c **** 
 2034              		.loc 1 1812 0
 2035              		@ sp needed
 2036              	.LVL203:
 2037 005e 10BD     		pop	{r4, pc}
 2038              		.cfi_endproc
 2039              	.LFE31:
 2040              		.size	CySysWatchdogFeed, .-CySysWatchdogFeed
 2041              		.section	.text.CySysTimerDelayUntilMatch,"ax",%progbits
 2042              		.align	2
 2043              		.global	CySysTimerDelayUntilMatch
 2044              		.code	16
 2045              		.thumb_func
 2046              		.type	CySysTimerDelayUntilMatch, %function
 2047              	CySysTimerDelayUntilMatch:
 2048              	.LFB35:
1904:Generated_Source\PSoC4/CyLFClk.c **** 
1905:Generated_Source\PSoC4/CyLFClk.c **** #else
1906:Generated_Source\PSoC4/CyLFClk.c **** 
1907:Generated_Source\PSoC4/CyLFClk.c ****     /*******************************************************************************
1908:Generated_Source\PSoC4/CyLFClk.c ****     * Function Name: CySysWdtGetEnabledStatus
1909:Generated_Source\PSoC4/CyLFClk.c ****     ****************************************************************************//**
1910:Generated_Source\PSoC4/CyLFClk.c ****     *
1911:Generated_Source\PSoC4/CyLFClk.c ****     * \brief Reads the enabled status of the WDT counter.
1912:Generated_Source\PSoC4/CyLFClk.c ****     *
1913:Generated_Source\PSoC4/CyLFClk.c ****     * \return The status of the WDT counter:
1914:Generated_Source\PSoC4/CyLFClk.c ****     * \return 0 - Counter is disabled
1915:Generated_Source\PSoC4/CyLFClk.c ****     * \return 1 - Counter is enabled
1916:Generated_Source\PSoC4/CyLFClk.c ****     *
1917:Generated_Source\PSoC4/CyLFClk.c ****     *******************************************************************************/
1918:Generated_Source\PSoC4/CyLFClk.c ****     uint32 CySysWdtGetEnabledStatus(void)
1919:Generated_Source\PSoC4/CyLFClk.c ****     {
1920:Generated_Source\PSoC4/CyLFClk.c ****         return ((CY_SYS_WDT_DISABLE_KEY_REG == CY_SYS_WDT_KEY) ? (uint32) 0u : (uint32) 1u);
1921:Generated_Source\PSoC4/CyLFClk.c ****     }
1922:Generated_Source\PSoC4/CyLFClk.c **** 
1923:Generated_Source\PSoC4/CyLFClk.c **** 
1924:Generated_Source\PSoC4/CyLFClk.c ****     /*******************************************************************************
1925:Generated_Source\PSoC4/CyLFClk.c ****     * Function Name: CySysWdtEnable
1926:Generated_Source\PSoC4/CyLFClk.c ****     ****************************************************************************//**
1927:Generated_Source\PSoC4/CyLFClk.c ****     *
1928:Generated_Source\PSoC4/CyLFClk.c ****     * \brief
1929:Generated_Source\PSoC4/CyLFClk.c ****     * Enables watchdog timer reset generation.
ARM GAS  C:\Users\VIDEOH~1\AppData\Local\Temp\cc9HpMPY.s 			page 75


1930:Generated_Source\PSoC4/CyLFClk.c ****     *
1931:Generated_Source\PSoC4/CyLFClk.c ****     * CySysWdtClearInterrupt() feeds the watchdog. Two unserviced interrupts lead 
1932:Generated_Source\PSoC4/CyLFClk.c ****     * to a system reset (i.e. at the third match).
1933:Generated_Source\PSoC4/CyLFClk.c ****     *
1934:Generated_Source\PSoC4/CyLFClk.c ****     * ILO is enabled by the hardware once WDT is started.
1935:Generated_Source\PSoC4/CyLFClk.c ****     *
1936:Generated_Source\PSoC4/CyLFClk.c ****     *******************************************************************************/
1937:Generated_Source\PSoC4/CyLFClk.c ****     void CySysWdtEnable(void)
1938:Generated_Source\PSoC4/CyLFClk.c ****     {
1939:Generated_Source\PSoC4/CyLFClk.c ****         CY_SYS_WDT_DISABLE_KEY_REG = 0u;
1940:Generated_Source\PSoC4/CyLFClk.c ****     }
1941:Generated_Source\PSoC4/CyLFClk.c **** 
1942:Generated_Source\PSoC4/CyLFClk.c **** 
1943:Generated_Source\PSoC4/CyLFClk.c ****     /*******************************************************************************
1944:Generated_Source\PSoC4/CyLFClk.c ****     * Function Name: CySysWdtDisable
1945:Generated_Source\PSoC4/CyLFClk.c ****     ****************************************************************************//**
1946:Generated_Source\PSoC4/CyLFClk.c ****     *
1947:Generated_Source\PSoC4/CyLFClk.c ****     * \brief Disables the WDT reset generation.
1948:Generated_Source\PSoC4/CyLFClk.c ****     *
1949:Generated_Source\PSoC4/CyLFClk.c ****     * This function unlocks the ENABLE bit in the CLK_ILO_CONFIG registers and
1950:Generated_Source\PSoC4/CyLFClk.c ****     * enables the user to disable ILO.
1951:Generated_Source\PSoC4/CyLFClk.c ****     *
1952:Generated_Source\PSoC4/CyLFClk.c ****     *******************************************************************************/
1953:Generated_Source\PSoC4/CyLFClk.c ****     void CySysWdtDisable(void)
1954:Generated_Source\PSoC4/CyLFClk.c ****     {
1955:Generated_Source\PSoC4/CyLFClk.c ****         CY_SYS_WDT_DISABLE_KEY_REG = CY_SYS_WDT_KEY;
1956:Generated_Source\PSoC4/CyLFClk.c ****     }
1957:Generated_Source\PSoC4/CyLFClk.c **** 
1958:Generated_Source\PSoC4/CyLFClk.c **** 
1959:Generated_Source\PSoC4/CyLFClk.c ****     /*******************************************************************************
1960:Generated_Source\PSoC4/CyLFClk.c ****     * Function Name: CySysWdtSetMatch
1961:Generated_Source\PSoC4/CyLFClk.c ****     ****************************************************************************//**
1962:Generated_Source\PSoC4/CyLFClk.c ****     *
1963:Generated_Source\PSoC4/CyLFClk.c ****     * \brief Configures the WDT counter match comparison value.
1964:Generated_Source\PSoC4/CyLFClk.c ****     *
1965:Generated_Source\PSoC4/CyLFClk.c ****     * \param match Valid range [0-65535]. The value to be used to match against 
1966:Generated_Source\PSoC4/CyLFClk.c ****     * the counter.
1967:Generated_Source\PSoC4/CyLFClk.c ****     *
1968:Generated_Source\PSoC4/CyLFClk.c ****     *******************************************************************************/
1969:Generated_Source\PSoC4/CyLFClk.c ****     void CySysWdtSetMatch(uint32 match)
1970:Generated_Source\PSoC4/CyLFClk.c ****     {
1971:Generated_Source\PSoC4/CyLFClk.c ****         match &= CY_SYS_WDT_MATCH_MASK;
1972:Generated_Source\PSoC4/CyLFClk.c ****         CY_SYS_WDT_MATCH_REG = (CY_SYS_WDT_MATCH_REG & (uint32)(~CY_SYS_WDT_MATCH_MASK)) | match;
1973:Generated_Source\PSoC4/CyLFClk.c ****     }
1974:Generated_Source\PSoC4/CyLFClk.c **** 
1975:Generated_Source\PSoC4/CyLFClk.c **** 
1976:Generated_Source\PSoC4/CyLFClk.c ****     /*******************************************************************************
1977:Generated_Source\PSoC4/CyLFClk.c ****     * Function Name: CySysWdtGetMatch
1978:Generated_Source\PSoC4/CyLFClk.c ****     ****************************************************************************//**
1979:Generated_Source\PSoC4/CyLFClk.c ****     *
1980:Generated_Source\PSoC4/CyLFClk.c ****     * \brief Reads the WDT counter match comparison value.
1981:Generated_Source\PSoC4/CyLFClk.c ****     *
1982:Generated_Source\PSoC4/CyLFClk.c ****     * \return The counter match value.
1983:Generated_Source\PSoC4/CyLFClk.c ****     *
1984:Generated_Source\PSoC4/CyLFClk.c ****     *******************************************************************************/
1985:Generated_Source\PSoC4/CyLFClk.c ****     uint32 CySysWdtGetMatch(void)
1986:Generated_Source\PSoC4/CyLFClk.c ****     {
ARM GAS  C:\Users\VIDEOH~1\AppData\Local\Temp\cc9HpMPY.s 			page 76


1987:Generated_Source\PSoC4/CyLFClk.c ****         return (CY_SYS_WDT_MATCH_REG & CY_SYS_WDT_MATCH_MASK);
1988:Generated_Source\PSoC4/CyLFClk.c ****     }
1989:Generated_Source\PSoC4/CyLFClk.c **** 
1990:Generated_Source\PSoC4/CyLFClk.c **** 
1991:Generated_Source\PSoC4/CyLFClk.c ****     /*******************************************************************************
1992:Generated_Source\PSoC4/CyLFClk.c ****     * Function Name: CySysWdtGetCount
1993:Generated_Source\PSoC4/CyLFClk.c ****     ****************************************************************************//**
1994:Generated_Source\PSoC4/CyLFClk.c ****     *
1995:Generated_Source\PSoC4/CyLFClk.c ****     * \brief Reads the current WDT counter value.
1996:Generated_Source\PSoC4/CyLFClk.c ****     *
1997:Generated_Source\PSoC4/CyLFClk.c ****     * \return A live counter value.
1998:Generated_Source\PSoC4/CyLFClk.c ****     *
1999:Generated_Source\PSoC4/CyLFClk.c ****     *******************************************************************************/
2000:Generated_Source\PSoC4/CyLFClk.c ****     uint32 CySysWdtGetCount(void)
2001:Generated_Source\PSoC4/CyLFClk.c ****     {
2002:Generated_Source\PSoC4/CyLFClk.c ****         return ((uint32)CY_SYS_WDT_COUNTER_REG);
2003:Generated_Source\PSoC4/CyLFClk.c ****     }
2004:Generated_Source\PSoC4/CyLFClk.c **** 
2005:Generated_Source\PSoC4/CyLFClk.c **** 
2006:Generated_Source\PSoC4/CyLFClk.c ****     /*******************************************************************************
2007:Generated_Source\PSoC4/CyLFClk.c ****     * Function Name: CySysWdtSetIgnoreBits
2008:Generated_Source\PSoC4/CyLFClk.c ****     ****************************************************************************//**
2009:Generated_Source\PSoC4/CyLFClk.c ****     *
2010:Generated_Source\PSoC4/CyLFClk.c ****     * \brief
2011:Generated_Source\PSoC4/CyLFClk.c ****     * Configures the number of the MSB bits of the watchdog timer that are not
2012:Generated_Source\PSoC4/CyLFClk.c ****     * checked against the match.
2013:Generated_Source\PSoC4/CyLFClk.c ****     *
2014:Generated_Source\PSoC4/CyLFClk.c ****     * \param bitsNum Valid range [0-15]. The number of the MSB bits.
2015:Generated_Source\PSoC4/CyLFClk.c ****     *
2016:Generated_Source\PSoC4/CyLFClk.c ****     * \details The value of bitsNum controls the time-to-reset of the watchdog
2017:Generated_Source\PSoC4/CyLFClk.c ****     * (which happens after 3 successive matches).
2018:Generated_Source\PSoC4/CyLFClk.c ****     *
2019:Generated_Source\PSoC4/CyLFClk.c ****     *******************************************************************************/
2020:Generated_Source\PSoC4/CyLFClk.c ****     void CySysWdtSetIgnoreBits(uint32 bitsNum)
2021:Generated_Source\PSoC4/CyLFClk.c ****     {
2022:Generated_Source\PSoC4/CyLFClk.c ****         bitsNum = ((uint32)(bitsNum << CY_SYS_WDT_IGNORE_BITS_SHIFT) & CY_SYS_WDT_IGNORE_BITS_MASK)
2023:Generated_Source\PSoC4/CyLFClk.c ****         CY_SYS_WDT_MATCH_REG = (CY_SYS_WDT_MATCH_REG & (uint32)(~CY_SYS_WDT_IGNORE_BITS_MASK)) | bi
2024:Generated_Source\PSoC4/CyLFClk.c ****     }
2025:Generated_Source\PSoC4/CyLFClk.c **** 
2026:Generated_Source\PSoC4/CyLFClk.c **** 
2027:Generated_Source\PSoC4/CyLFClk.c ****     /*******************************************************************************
2028:Generated_Source\PSoC4/CyLFClk.c ****     * Function Name: CySysWdtGetIgnoreBits
2029:Generated_Source\PSoC4/CyLFClk.c ****     ****************************************************************************//**
2030:Generated_Source\PSoC4/CyLFClk.c ****     *
2031:Generated_Source\PSoC4/CyLFClk.c ****     * \brief
2032:Generated_Source\PSoC4/CyLFClk.c ****     * Reads the number of the  MSB bits of the watchdog timer that are not
2033:Generated_Source\PSoC4/CyLFClk.c ****     * checked against the match.
2034:Generated_Source\PSoC4/CyLFClk.c ****     *
2035:Generated_Source\PSoC4/CyLFClk.c ****     * \return The number of the MSB bits.
2036:Generated_Source\PSoC4/CyLFClk.c ****     *
2037:Generated_Source\PSoC4/CyLFClk.c ****     *******************************************************************************/
2038:Generated_Source\PSoC4/CyLFClk.c ****     uint32 CySysWdtGetIgnoreBits(void)
2039:Generated_Source\PSoC4/CyLFClk.c ****     {
2040:Generated_Source\PSoC4/CyLFClk.c ****         return((uint32)((CY_SYS_WDT_MATCH_REG & CY_SYS_WDT_IGNORE_BITS_MASK) >> CY_SYS_WDT_IGNORE_B
2041:Generated_Source\PSoC4/CyLFClk.c ****     }
2042:Generated_Source\PSoC4/CyLFClk.c **** 
2043:Generated_Source\PSoC4/CyLFClk.c **** 
ARM GAS  C:\Users\VIDEOH~1\AppData\Local\Temp\cc9HpMPY.s 			page 77


2044:Generated_Source\PSoC4/CyLFClk.c ****     /*******************************************************************************
2045:Generated_Source\PSoC4/CyLFClk.c ****     * Function Name: CySysWdtClearInterrupt
2046:Generated_Source\PSoC4/CyLFClk.c ****     ****************************************************************************//**
2047:Generated_Source\PSoC4/CyLFClk.c ****     *
2048:Generated_Source\PSoC4/CyLFClk.c ****     * \brief
2049:Generated_Source\PSoC4/CyLFClk.c ****     * Feeds the watchdog.
2050:Generated_Source\PSoC4/CyLFClk.c ****     * Cleans the WDT match flag which is set every time the WDT counter reaches a 
2051:Generated_Source\PSoC4/CyLFClk.c ****     * WDT match value. Two unserviced interrupts lead to a system reset 
2052:Generated_Source\PSoC4/CyLFClk.c ****     * (i.e. at the third match).
2053:Generated_Source\PSoC4/CyLFClk.c ****     *
2054:Generated_Source\PSoC4/CyLFClk.c ****     *******************************************************************************/
2055:Generated_Source\PSoC4/CyLFClk.c ****     void CySysWdtClearInterrupt(void)
2056:Generated_Source\PSoC4/CyLFClk.c ****     {
2057:Generated_Source\PSoC4/CyLFClk.c ****         CY_SYS_SRSS_INTR_REG |= CY_SYS_WDT_LOWER_BIT_MASK;
2058:Generated_Source\PSoC4/CyLFClk.c ****     }
2059:Generated_Source\PSoC4/CyLFClk.c **** 
2060:Generated_Source\PSoC4/CyLFClk.c **** 
2061:Generated_Source\PSoC4/CyLFClk.c ****     /*******************************************************************************
2062:Generated_Source\PSoC4/CyLFClk.c ****     * Function Name: CySysWdtMaskInterrupt
2063:Generated_Source\PSoC4/CyLFClk.c ****     ****************************************************************************//**
2064:Generated_Source\PSoC4/CyLFClk.c ****     *
2065:Generated_Source\PSoC4/CyLFClk.c ****     * \brief
2066:Generated_Source\PSoC4/CyLFClk.c ****     * After masking interrupts from WDT, they are not passed to CPU.
2067:Generated_Source\PSoC4/CyLFClk.c ****     * This function does not disable WDT reset generation.
2068:Generated_Source\PSoC4/CyLFClk.c ****     *
2069:Generated_Source\PSoC4/CyLFClk.c ****     *******************************************************************************/
2070:Generated_Source\PSoC4/CyLFClk.c ****     void CySysWdtMaskInterrupt(void)
2071:Generated_Source\PSoC4/CyLFClk.c ****     {
2072:Generated_Source\PSoC4/CyLFClk.c ****         CY_SYS_SRSS_INTR_MASK_REG &= (uint32)(~ (uint32)CY_SYS_WDT_LOWER_BIT_MASK);
2073:Generated_Source\PSoC4/CyLFClk.c ****     }
2074:Generated_Source\PSoC4/CyLFClk.c **** 
2075:Generated_Source\PSoC4/CyLFClk.c **** 
2076:Generated_Source\PSoC4/CyLFClk.c ****     /*******************************************************************************
2077:Generated_Source\PSoC4/CyLFClk.c ****     * Function Name: CySysWdtUnmaskInterrupt
2078:Generated_Source\PSoC4/CyLFClk.c ****     ****************************************************************************//**
2079:Generated_Source\PSoC4/CyLFClk.c ****     *
2080:Generated_Source\PSoC4/CyLFClk.c ****     * \brief
2081:Generated_Source\PSoC4/CyLFClk.c ****     * After unmasking interrupts from WDT, they are passed to CPU.
2082:Generated_Source\PSoC4/CyLFClk.c ****     * This function does not impact the reset generation.
2083:Generated_Source\PSoC4/CyLFClk.c ****     *
2084:Generated_Source\PSoC4/CyLFClk.c ****     *******************************************************************************/
2085:Generated_Source\PSoC4/CyLFClk.c ****     void CySysWdtUnmaskInterrupt(void)
2086:Generated_Source\PSoC4/CyLFClk.c ****     {
2087:Generated_Source\PSoC4/CyLFClk.c ****         CY_SYS_SRSS_INTR_MASK_REG |= CY_SYS_WDT_LOWER_BIT_MASK;
2088:Generated_Source\PSoC4/CyLFClk.c ****     }
2089:Generated_Source\PSoC4/CyLFClk.c **** 
2090:Generated_Source\PSoC4/CyLFClk.c **** 
2091:Generated_Source\PSoC4/CyLFClk.c ****     /*******************************************************************************
2092:Generated_Source\PSoC4/CyLFClk.c ****     * Function Name: CySysWdtSetIsrCallback
2093:Generated_Source\PSoC4/CyLFClk.c ****     ****************************************************************************//**
2094:Generated_Source\PSoC4/CyLFClk.c ****     *
2095:Generated_Source\PSoC4/CyLFClk.c ****     * \brief
2096:Generated_Source\PSoC4/CyLFClk.c ****     * Sets the ISR callback function for the WDT counter
2097:Generated_Source\PSoC4/CyLFClk.c ****     *
2098:Generated_Source\PSoC4/CyLFClk.c ****     * \param function The pointer to the callback function.
2099:Generated_Source\PSoC4/CyLFClk.c ****     *
2100:Generated_Source\PSoC4/CyLFClk.c ****     * \return The pointer to a previous callback function.
ARM GAS  C:\Users\VIDEOH~1\AppData\Local\Temp\cc9HpMPY.s 			page 78


2101:Generated_Source\PSoC4/CyLFClk.c ****     *
2102:Generated_Source\PSoC4/CyLFClk.c ****     *******************************************************************************/
2103:Generated_Source\PSoC4/CyLFClk.c ****     cyWdtCallback CySysWdtSetInterruptCallback(cyWdtCallback function)
2104:Generated_Source\PSoC4/CyLFClk.c ****     {
2105:Generated_Source\PSoC4/CyLFClk.c ****         cyWdtCallback prevCallback = (void *)0;
2106:Generated_Source\PSoC4/CyLFClk.c **** 
2107:Generated_Source\PSoC4/CyLFClk.c ****         prevCallback = cySysWdtCallback;
2108:Generated_Source\PSoC4/CyLFClk.c ****         cySysWdtCallback = function;
2109:Generated_Source\PSoC4/CyLFClk.c **** 
2110:Generated_Source\PSoC4/CyLFClk.c ****         return(prevCallback);
2111:Generated_Source\PSoC4/CyLFClk.c ****     }
2112:Generated_Source\PSoC4/CyLFClk.c **** 
2113:Generated_Source\PSoC4/CyLFClk.c **** 
2114:Generated_Source\PSoC4/CyLFClk.c ****     /*******************************************************************************
2115:Generated_Source\PSoC4/CyLFClk.c ****     * Function Name: CySysWdtGetIsrCallback
2116:Generated_Source\PSoC4/CyLFClk.c ****     ****************************************************************************//**
2117:Generated_Source\PSoC4/CyLFClk.c ****     *
2118:Generated_Source\PSoC4/CyLFClk.c ****     * \brief
2119:Generated_Source\PSoC4/CyLFClk.c ****     * Gets the ISR callback function for the WDT counter
2120:Generated_Source\PSoC4/CyLFClk.c ****     *
2121:Generated_Source\PSoC4/CyLFClk.c ****     * \return The pointer to the callback function registered for WDT.
2122:Generated_Source\PSoC4/CyLFClk.c ****     *
2123:Generated_Source\PSoC4/CyLFClk.c ****     *******************************************************************************/
2124:Generated_Source\PSoC4/CyLFClk.c ****     cyWdtCallback CySysWdtGetInterruptCallback(void)
2125:Generated_Source\PSoC4/CyLFClk.c ****     {
2126:Generated_Source\PSoC4/CyLFClk.c ****         return(cySysWdtCallback);
2127:Generated_Source\PSoC4/CyLFClk.c ****     }
2128:Generated_Source\PSoC4/CyLFClk.c **** 
2129:Generated_Source\PSoC4/CyLFClk.c **** 
2130:Generated_Source\PSoC4/CyLFClk.c ****     /*******************************************************************************
2131:Generated_Source\PSoC4/CyLFClk.c ****     * Function Name: CySysWdtIsr
2132:Generated_Source\PSoC4/CyLFClk.c ****     ****************************************************************************//**
2133:Generated_Source\PSoC4/CyLFClk.c ****     *
2134:Generated_Source\PSoC4/CyLFClk.c ****     * \brief
2135:Generated_Source\PSoC4/CyLFClk.c ****     * This is the handler of the WDT interrupt in CPU NVIC.
2136:Generated_Source\PSoC4/CyLFClk.c ****     *
2137:Generated_Source\PSoC4/CyLFClk.c ****     * The handler calls the respective callback functions configured by the user 
2138:Generated_Source\PSoC4/CyLFClk.c ****     * by using CySysWdtSetIsrCallback() API.
2139:Generated_Source\PSoC4/CyLFClk.c ****     *
2140:Generated_Source\PSoC4/CyLFClk.c ****     *
2141:Generated_Source\PSoC4/CyLFClk.c ****     * \details
2142:Generated_Source\PSoC4/CyLFClk.c ****     * This function clears the WDT interrupt every time when it is called.
2143:Generated_Source\PSoC4/CyLFClk.c ****     * Reset after the 3rd interrupt does not happen if this function is registered
2144:Generated_Source\PSoC4/CyLFClk.c ****     * as the interrupt handler even if the "Watchdog with Interrupt" mode is
2145:Generated_Source\PSoC4/CyLFClk.c ****     * selected on the "Low Frequency Clocks" tab.
2146:Generated_Source\PSoC4/CyLFClk.c ****     *
2147:Generated_Source\PSoC4/CyLFClk.c ****     *******************************************************************************/
2148:Generated_Source\PSoC4/CyLFClk.c ****     void CySysWdtIsr(void)
2149:Generated_Source\PSoC4/CyLFClk.c ****     {
2150:Generated_Source\PSoC4/CyLFClk.c ****         if(cySysWdtCallback != (void *) 0)
2151:Generated_Source\PSoC4/CyLFClk.c ****         {
2152:Generated_Source\PSoC4/CyLFClk.c ****             (void)(cySysWdtCallback)();
2153:Generated_Source\PSoC4/CyLFClk.c ****         }
2154:Generated_Source\PSoC4/CyLFClk.c **** 
2155:Generated_Source\PSoC4/CyLFClk.c ****         CySysWdtClearInterrupt();
2156:Generated_Source\PSoC4/CyLFClk.c ****     }
2157:Generated_Source\PSoC4/CyLFClk.c **** 
ARM GAS  C:\Users\VIDEOH~1\AppData\Local\Temp\cc9HpMPY.s 			page 79


2158:Generated_Source\PSoC4/CyLFClk.c **** #endif /* (CY_IP_SRSSV2) */
2159:Generated_Source\PSoC4/CyLFClk.c **** 
2160:Generated_Source\PSoC4/CyLFClk.c **** 
2161:Generated_Source\PSoC4/CyLFClk.c **** #if(CY_IP_SRSSLT && CY_IP_WCO && CY_IP_WCO_WDT_EN)
2162:Generated_Source\PSoC4/CyLFClk.c **** 
2163:Generated_Source\PSoC4/CyLFClk.c **** /*******************************************************************************
2164:Generated_Source\PSoC4/CyLFClk.c **** * Function Name: CySysClkGetTimerSource
2165:Generated_Source\PSoC4/CyLFClk.c **** ********************************************************************************
2166:Generated_Source\PSoC4/CyLFClk.c **** *
2167:Generated_Source\PSoC4/CyLFClk.c **** * \brief Gets the clock source for the DeepSleep Timers.
2168:Generated_Source\PSoC4/CyLFClk.c **** *
2169:Generated_Source\PSoC4/CyLFClk.c **** * The function is applicable only for PSoC 4100S / PSoC Analog Coprocessor.
2170:Generated_Source\PSoC4/CyLFClk.c **** *
2171:Generated_Source\PSoC4/CyLFClk.c **** * \return The DeepSleep Timer source
2172:Generated_Source\PSoC4/CyLFClk.c **** * CY_SYS_CLK_TIMER_SRC_ILO Internal Low Frequency (32 kHz) Oscillator (ILO)
2173:Generated_Source\PSoC4/CyLFClk.c **** * CY_SYS_CLK_TIMER_SRC_WCO Low Frequency Watch Crystal Oscillator (WCO)
2174:Generated_Source\PSoC4/CyLFClk.c **** *
2175:Generated_Source\PSoC4/CyLFClk.c **** *******************************************************************************/
2176:Generated_Source\PSoC4/CyLFClk.c ****     static uint32 CySysClkGetTimerSource(void)
2177:Generated_Source\PSoC4/CyLFClk.c ****     {
2178:Generated_Source\PSoC4/CyLFClk.c ****         uint32 timerSource;
2179:Generated_Source\PSoC4/CyLFClk.c ****         timerSource = CY_SYS_WCO_WDT_CONFIG_REG & CY_SYS_CLK_TIMER_SEL_MASK;
2180:Generated_Source\PSoC4/CyLFClk.c ****         return (timerSource);
2181:Generated_Source\PSoC4/CyLFClk.c ****     }    
2182:Generated_Source\PSoC4/CyLFClk.c **** 
2183:Generated_Source\PSoC4/CyLFClk.c **** 
2184:Generated_Source\PSoC4/CyLFClk.c **** /*******************************************************************************
2185:Generated_Source\PSoC4/CyLFClk.c **** * Function Name: CySysClkSetTimerSource
2186:Generated_Source\PSoC4/CyLFClk.c **** ****************************************************************************//**
2187:Generated_Source\PSoC4/CyLFClk.c **** *
2188:Generated_Source\PSoC4/CyLFClk.c **** * \brief Sets the clock source for the DeepSleep Timers.
2189:Generated_Source\PSoC4/CyLFClk.c **** *
2190:Generated_Source\PSoC4/CyLFClk.c **** * The function is applicable only for PSoC 4100S / PSoC Analog Coprocessor 
2191:Generated_Source\PSoC4/CyLFClk.c **** * devices.
2192:Generated_Source\PSoC4/CyLFClk.c **** *
2193:Generated_Source\PSoC4/CyLFClk.c **** * \param source
2194:Generated_Source\PSoC4/CyLFClk.c **** *  CY_SYS_CLK_TIMER_SRC_ILO - Internal Low Frequency (32 kHz) Oscillator 
2195:Generated_Source\PSoC4/CyLFClk.c **** * (ILO).<br>
2196:Generated_Source\PSoC4/CyLFClk.c **** * CY_SYS_CLK_TIMER_SRC_WCO - Low Frequency Watch Crystal Oscillator 
2197:Generated_Source\PSoC4/CyLFClk.c **** * (WCO).
2198:Generated_Source\PSoC4/CyLFClk.c **** *
2199:Generated_Source\PSoC4/CyLFClk.c **** * \details Both the current source and the new source must be running and stable 
2200:Generated_Source\PSoC4/CyLFClk.c **** * before calling this function.
2201:Generated_Source\PSoC4/CyLFClk.c **** *
2202:Generated_Source\PSoC4/CyLFClk.c **** * \warning DeepSleep Timer reset is required if Timer source was switched while 
2203:Generated_Source\PSoC4/CyLFClk.c **** * DeepSleep Timers were running. Call CySysTimerResetCounters() API after 
2204:Generated_Source\PSoC4/CyLFClk.c **** * Timer source switching.
2205:Generated_Source\PSoC4/CyLFClk.c **** * It is highly recommended to disable DeepSleep Timers before Timer source 
2206:Generated_Source\PSoC4/CyLFClk.c **** * switching. Changing the Timer source may change the functionality that uses 
2207:Generated_Source\PSoC4/CyLFClk.c **** * this Timers as clock source.
2208:Generated_Source\PSoC4/CyLFClk.c **** *******************************************************************************/
2209:Generated_Source\PSoC4/CyLFClk.c ****     void CySysClkSetTimerSource(uint32 source)
2210:Generated_Source\PSoC4/CyLFClk.c ****     {
2211:Generated_Source\PSoC4/CyLFClk.c ****         uint8  interruptState;
2212:Generated_Source\PSoC4/CyLFClk.c **** 
2213:Generated_Source\PSoC4/CyLFClk.c ****         if (CySysClkGetTimerSource() != source)
2214:Generated_Source\PSoC4/CyLFClk.c ****         {
ARM GAS  C:\Users\VIDEOH~1\AppData\Local\Temp\cc9HpMPY.s 			page 80


2215:Generated_Source\PSoC4/CyLFClk.c **** 
2216:Generated_Source\PSoC4/CyLFClk.c ****             /* Reset both _EN bits in WCO_WDT_CLKEN register */
2217:Generated_Source\PSoC4/CyLFClk.c ****             CY_SYS_WCO_WDT_CLKEN_REG &= ~CY_SYS_WCO_WDT_CLKEN_RESET_MASK;
2218:Generated_Source\PSoC4/CyLFClk.c ****             
2219:Generated_Source\PSoC4/CyLFClk.c ****             /* Wait 4 new clock source-cycles for change to come into effect */
2220:Generated_Source\PSoC4/CyLFClk.c ****             CyDelayUs(CY_SYS_4TIMER_DELAY_US);
2221:Generated_Source\PSoC4/CyLFClk.c **** 
2222:Generated_Source\PSoC4/CyLFClk.c ****             interruptState = CyEnterCriticalSection();
2223:Generated_Source\PSoC4/CyLFClk.c ****             CY_SYS_WCO_WDT_CONFIG_REG = (CY_SYS_WCO_WDT_CONFIG_REG & (uint32)(~CY_SYS_CLK_TIMER_SEL
2224:Generated_Source\PSoC4/CyLFClk.c ****                                     (source & CY_SYS_CLK_TIMER_SEL_MASK);
2225:Generated_Source\PSoC4/CyLFClk.c ****             CyExitCriticalSection(interruptState);
2226:Generated_Source\PSoC4/CyLFClk.c ****         }
2227:Generated_Source\PSoC4/CyLFClk.c **** 
2228:Generated_Source\PSoC4/CyLFClk.c ****         CY_SYS_WCO_WDT_CLKEN_REG = (CY_SYS_WCO_WDT_CLKEN_REG & (uint32)(~CY_SYS_WCO_WDT_CLKEN_RESET
2229:Generated_Source\PSoC4/CyLFClk.c ****                                     CY_SYS_SET_CURRENT_TIMER_SOURCE_BIT;
2230:Generated_Source\PSoC4/CyLFClk.c ****     }
2231:Generated_Source\PSoC4/CyLFClk.c **** 
2232:Generated_Source\PSoC4/CyLFClk.c **** 
2233:Generated_Source\PSoC4/CyLFClk.c ****     /*******************************************************************************
2234:Generated_Source\PSoC4/CyLFClk.c ****     * Function Name: CySysTimerGetEnabledStatus
2235:Generated_Source\PSoC4/CyLFClk.c ****     ****************************************************************************//**
2236:Generated_Source\PSoC4/CyLFClk.c ****     *
2237:Generated_Source\PSoC4/CyLFClk.c ****     * \brief Reads the enabled status of one of the three DeepSleep Timer 
2238:Generated_Source\PSoC4/CyLFClk.c ****     * counters.
2239:Generated_Source\PSoC4/CyLFClk.c ****     *
2240:Generated_Source\PSoC4/CyLFClk.c ****     * \param counterNum: Valid range [0-2]. The number of the DeepSleep Timer 
2241:Generated_Source\PSoC4/CyLFClk.c ****     * counter.
2242:Generated_Source\PSoC4/CyLFClk.c ****     *
2243:Generated_Source\PSoC4/CyLFClk.c ****     * \return The status of the Timers counter:
2244:Generated_Source\PSoC4/CyLFClk.c ****     * \return 0 - If the Counter is disabled.
2245:Generated_Source\PSoC4/CyLFClk.c ****     * \return 1 - If the Counter is enabled.
2246:Generated_Source\PSoC4/CyLFClk.c ****     *
2247:Generated_Source\PSoC4/CyLFClk.c ****     * \details
2248:Generated_Source\PSoC4/CyLFClk.c ****     * This function returns an actual DeepSleep Timer counter status from the 
2249:Generated_Source\PSoC4/CyLFClk.c ****     * status register. It may take up to 3 LFCLK cycles for the Timer status 
2250:Generated_Source\PSoC4/CyLFClk.c ****     * register to contain actual data after the Timer counter is enabled.
2251:Generated_Source\PSoC4/CyLFClk.c ****     *
2252:Generated_Source\PSoC4/CyLFClk.c ****     *******************************************************************************/
2253:Generated_Source\PSoC4/CyLFClk.c ****     uint32 CySysTimerGetEnabledStatus(uint32 counterNum)
2254:Generated_Source\PSoC4/CyLFClk.c ****     {
2255:Generated_Source\PSoC4/CyLFClk.c ****         CYASSERT(counterNum < CY_SYS_TIMER_COUNTERS_MAX);
2256:Generated_Source\PSoC4/CyLFClk.c ****         return ((CY_SYS_WCO_WDT_CONTROL_REG >> ((CY_SYS_TIMER_CNT_SHIFT * counterNum) + 
2257:Generated_Source\PSoC4/CyLFClk.c ****                                                  CY_SYS_TIMER_CNT_STTS_SHIFT)) & 0x01u);
2258:Generated_Source\PSoC4/CyLFClk.c ****     }
2259:Generated_Source\PSoC4/CyLFClk.c **** 
2260:Generated_Source\PSoC4/CyLFClk.c **** 
2261:Generated_Source\PSoC4/CyLFClk.c ****     /*******************************************************************************
2262:Generated_Source\PSoC4/CyLFClk.c ****     * Function Name: CySysTimerSetMode
2263:Generated_Source\PSoC4/CyLFClk.c ****     ****************************************************************************//**
2264:Generated_Source\PSoC4/CyLFClk.c ****     *
2265:Generated_Source\PSoC4/CyLFClk.c ****     * \brief Writes the mode of one of the three DeepSleep Timer counters.
2266:Generated_Source\PSoC4/CyLFClk.c ****     *
2267:Generated_Source\PSoC4/CyLFClk.c ****     * \param counterNum: Valid range [0-2]. The number of the DeepSleep Timer 
2268:Generated_Source\PSoC4/CyLFClk.c ****     * counter.
2269:Generated_Source\PSoC4/CyLFClk.c ****     *
2270:Generated_Source\PSoC4/CyLFClk.c ****     * \param mode
2271:Generated_Source\PSoC4/CyLFClk.c ****     *  CY_SYS_TIMER_MODE_NONE - Free running.<br>
ARM GAS  C:\Users\VIDEOH~1\AppData\Local\Temp\cc9HpMPY.s 			page 81


2272:Generated_Source\PSoC4/CyLFClk.c ****     * CY_SYS_TIMER_MODE_INT - The interrupt generated on match for counter 0
2273:Generated_Source\PSoC4/CyLFClk.c ****     * and 1, and on bit toggle for counter 2.
2274:Generated_Source\PSoC4/CyLFClk.c ****     *
2275:Generated_Source\PSoC4/CyLFClk.c ****     * \details
2276:Generated_Source\PSoC4/CyLFClk.c ****     * DeepSleep Timer counter counterNum should be disabled to set a mode. 
2277:Generated_Source\PSoC4/CyLFClk.c ****     * Otherwise, this function call has no effect. If the specified counter is 
2278:Generated_Source\PSoC4/CyLFClk.c ****     * enabled, call the CySysTimerDisable() function with the corresponding 
2279:Generated_Source\PSoC4/CyLFClk.c ****     * parameter to disable the specified counter and wait for it to stop.
2280:Generated_Source\PSoC4/CyLFClk.c ****     *
2281:Generated_Source\PSoC4/CyLFClk.c ****     *******************************************************************************/
2282:Generated_Source\PSoC4/CyLFClk.c ****     void CySysTimerSetMode(uint32 counterNum, uint32 mode)
2283:Generated_Source\PSoC4/CyLFClk.c ****     {
2284:Generated_Source\PSoC4/CyLFClk.c ****         uint32 configRegValue;
2285:Generated_Source\PSoC4/CyLFClk.c **** 
2286:Generated_Source\PSoC4/CyLFClk.c ****         CYASSERT(counterNum < CY_SYS_TIMER_COUNTERS_MAX);
2287:Generated_Source\PSoC4/CyLFClk.c **** 
2288:Generated_Source\PSoC4/CyLFClk.c ****         CYASSERT(mode <= CY_SYS_TIMER_MODE_MASK);
2289:Generated_Source\PSoC4/CyLFClk.c **** 
2290:Generated_Source\PSoC4/CyLFClk.c ****         if(0u == CySysTimerGetEnabledStatus(counterNum))
2291:Generated_Source\PSoC4/CyLFClk.c ****         {
2292:Generated_Source\PSoC4/CyLFClk.c ****             configRegValue = CY_SYS_WCO_WDT_CONFIG_REG &
2293:Generated_Source\PSoC4/CyLFClk.c ****                                 (uint32)~((uint32)(CY_SYS_TIMER_MODE_MASK << (counterNum * CY_SYS_T
2294:Generated_Source\PSoC4/CyLFClk.c ****             configRegValue |= (uint32)((mode & CY_SYS_TIMER_MODE_MASK) << (counterNum * CY_SYS_TIME
2295:Generated_Source\PSoC4/CyLFClk.c ****             CY_SYS_WCO_WDT_CONFIG_REG = configRegValue;
2296:Generated_Source\PSoC4/CyLFClk.c ****         }
2297:Generated_Source\PSoC4/CyLFClk.c ****     }
2298:Generated_Source\PSoC4/CyLFClk.c **** 
2299:Generated_Source\PSoC4/CyLFClk.c **** 
2300:Generated_Source\PSoC4/CyLFClk.c ****     /*******************************************************************************
2301:Generated_Source\PSoC4/CyLFClk.c ****     * Function Name: CySysTimerGetMode
2302:Generated_Source\PSoC4/CyLFClk.c ****     ****************************************************************************//**
2303:Generated_Source\PSoC4/CyLFClk.c ****     *
2304:Generated_Source\PSoC4/CyLFClk.c ****     * \brief Reads the mode of one of the three DeepSleep Timer counters.
2305:Generated_Source\PSoC4/CyLFClk.c ****     *
2306:Generated_Source\PSoC4/CyLFClk.c ****     * \param counterNum Valid range [0-2]. The number of the Timer counter.
2307:Generated_Source\PSoC4/CyLFClk.c ****     *
2308:Generated_Source\PSoC4/CyLFClk.c ****     * \return The mode of the counter. The same enumerated values as the mode 
2309:Generated_Source\PSoC4/CyLFClk.c ****     * parameter used in CySysTimerSetMode().
2310:Generated_Source\PSoC4/CyLFClk.c ****     *
2311:Generated_Source\PSoC4/CyLFClk.c ****     *******************************************************************************/
2312:Generated_Source\PSoC4/CyLFClk.c ****     uint32 CySysTimerGetMode(uint32 counterNum)
2313:Generated_Source\PSoC4/CyLFClk.c ****     {
2314:Generated_Source\PSoC4/CyLFClk.c ****         return ((CY_SYS_WCO_WDT_CONFIG_REG >> (counterNum * CY_SYS_TIMER_CNT_SHIFT)) & CY_SYS_TIMER
2315:Generated_Source\PSoC4/CyLFClk.c ****     }
2316:Generated_Source\PSoC4/CyLFClk.c **** 
2317:Generated_Source\PSoC4/CyLFClk.c **** 
2318:Generated_Source\PSoC4/CyLFClk.c ****     /*******************************************************************************
2319:Generated_Source\PSoC4/CyLFClk.c ****     * Function Name: CySysTimerSetClearOnMatch
2320:Generated_Source\PSoC4/CyLFClk.c ****     ****************************************************************************//**
2321:Generated_Source\PSoC4/CyLFClk.c ****     *
2322:Generated_Source\PSoC4/CyLFClk.c ****     * \brief Configures the DeepSleep Timer counter "clear on match" setting.
2323:Generated_Source\PSoC4/CyLFClk.c ****     *
2324:Generated_Source\PSoC4/CyLFClk.c ****     * If configured to "clear on match", the counter counts from 0 to MatchValue 
2325:Generated_Source\PSoC4/CyLFClk.c ****     * giving it a period of (MatchValue + 1).
2326:Generated_Source\PSoC4/CyLFClk.c ****     *
2327:Generated_Source\PSoC4/CyLFClk.c ****     * \param counterNum
2328:Generated_Source\PSoC4/CyLFClk.c ****     * Valid range [0-1]. The number of the Timer counter. The match values are not
ARM GAS  C:\Users\VIDEOH~1\AppData\Local\Temp\cc9HpMPY.s 			page 82


2329:Generated_Source\PSoC4/CyLFClk.c ****     * supported by counter 2.
2330:Generated_Source\PSoC4/CyLFClk.c ****     * \param enable 0 to disable appropriate counter <br>
2331:Generated_Source\PSoC4/CyLFClk.c ****     * 1 to enable appropriate counter
2332:Generated_Source\PSoC4/CyLFClk.c ****     *
2333:Generated_Source\PSoC4/CyLFClk.c ****     * \details
2334:Generated_Source\PSoC4/CyLFClk.c ****     * Timer counter counterNum should be disabled. Otherwise this function call
2335:Generated_Source\PSoC4/CyLFClk.c ****     * has no effect. If the specified counter is enabled, call the CySysTimerDisable()
2336:Generated_Source\PSoC4/CyLFClk.c ****     * function with the corresponding parameter to disable the specified counter and
2337:Generated_Source\PSoC4/CyLFClk.c ****     * wait for it to stop. This may take up to three Timer source-cycles.
2338:Generated_Source\PSoC4/CyLFClk.c ****     *
2339:Generated_Source\PSoC4/CyLFClk.c ****     *******************************************************************************/
2340:Generated_Source\PSoC4/CyLFClk.c ****     void CySysTimerSetClearOnMatch(uint32 counterNum, uint32 enable)
2341:Generated_Source\PSoC4/CyLFClk.c ****     {
2342:Generated_Source\PSoC4/CyLFClk.c ****         uint32 configRegValue;
2343:Generated_Source\PSoC4/CyLFClk.c **** 
2344:Generated_Source\PSoC4/CyLFClk.c ****         CYASSERT((counterNum == CY_SYS_TIMER0) ||
2345:Generated_Source\PSoC4/CyLFClk.c ****                  (counterNum == CY_SYS_TIMER1));
2346:Generated_Source\PSoC4/CyLFClk.c **** 
2347:Generated_Source\PSoC4/CyLFClk.c ****         if(0u == CySysTimerGetEnabledStatus(counterNum))
2348:Generated_Source\PSoC4/CyLFClk.c ****         {
2349:Generated_Source\PSoC4/CyLFClk.c ****             configRegValue = CY_SYS_WCO_WDT_CONFIG_REG & (uint32)~((uint32)((uint32)1u << 
2350:Generated_Source\PSoC4/CyLFClk.c ****              ((counterNum * CY_SYS_TIMER_CNT_SHIFT) + CY_SYS_TIMER_CNT_MATCH_CLR_SHIFT)));
2351:Generated_Source\PSoC4/CyLFClk.c **** 
2352:Generated_Source\PSoC4/CyLFClk.c ****             configRegValue
2353:Generated_Source\PSoC4/CyLFClk.c ****                 |= (uint32)(enable << ((counterNum * CY_SYS_TIMER_CNT_SHIFT) + CY_SYS_TIMER_CNT_MAT
2354:Generated_Source\PSoC4/CyLFClk.c **** 
2355:Generated_Source\PSoC4/CyLFClk.c ****             CY_SYS_WCO_WDT_CONFIG_REG = configRegValue;
2356:Generated_Source\PSoC4/CyLFClk.c ****         }
2357:Generated_Source\PSoC4/CyLFClk.c ****     }
2358:Generated_Source\PSoC4/CyLFClk.c **** 
2359:Generated_Source\PSoC4/CyLFClk.c **** 
2360:Generated_Source\PSoC4/CyLFClk.c ****     /*******************************************************************************
2361:Generated_Source\PSoC4/CyLFClk.c ****     * Function Name: CySysTimerGetClearOnMatch
2362:Generated_Source\PSoC4/CyLFClk.c ****     ****************************************************************************//**
2363:Generated_Source\PSoC4/CyLFClk.c ****     *
2364:Generated_Source\PSoC4/CyLFClk.c ****     * \brief Reads the "clear on match" setting for the specified DeepSleep Timer 
2365:Generated_Source\PSoC4/CyLFClk.c ****     * counter.
2366:Generated_Source\PSoC4/CyLFClk.c ****     *
2367:Generated_Source\PSoC4/CyLFClk.c ****     * \param counterNum Valid range [0-1].  The number of the Timer counter. The 
2368:Generated_Source\PSoC4/CyLFClk.c ****     * match values are not supported by counter 2.
2369:Generated_Source\PSoC4/CyLFClk.c ****     *
2370:Generated_Source\PSoC4/CyLFClk.c ****     * \return The "clear on match" status: <br>1 if enabled <br>0 if disabled
2371:Generated_Source\PSoC4/CyLFClk.c ****     *
2372:Generated_Source\PSoC4/CyLFClk.c ****     *******************************************************************************/
2373:Generated_Source\PSoC4/CyLFClk.c ****     uint32 CySysTimerGetClearOnMatch(uint32 counterNum)
2374:Generated_Source\PSoC4/CyLFClk.c ****     {
2375:Generated_Source\PSoC4/CyLFClk.c ****         CYASSERT((counterNum == CY_SYS_TIMER0) ||
2376:Generated_Source\PSoC4/CyLFClk.c ****                  (counterNum == CY_SYS_TIMER1));
2377:Generated_Source\PSoC4/CyLFClk.c **** 
2378:Generated_Source\PSoC4/CyLFClk.c ****         return (uint32)((CY_SYS_WCO_WDT_CONFIG_REG >>
2379:Generated_Source\PSoC4/CyLFClk.c ****                         ((counterNum * CY_SYS_TIMER_CNT_SHIFT) + CY_SYS_TIMER_CNT_MATCH_CLR_SHIFT))
2380:Generated_Source\PSoC4/CyLFClk.c ****     }
2381:Generated_Source\PSoC4/CyLFClk.c **** 
2382:Generated_Source\PSoC4/CyLFClk.c **** 
2383:Generated_Source\PSoC4/CyLFClk.c ****     /*******************************************************************************
2384:Generated_Source\PSoC4/CyLFClk.c ****     * Function Name: CySysTimerEnable
2385:Generated_Source\PSoC4/CyLFClk.c ****     ****************************************************************************//**
ARM GAS  C:\Users\VIDEOH~1\AppData\Local\Temp\cc9HpMPY.s 			page 83


2386:Generated_Source\PSoC4/CyLFClk.c ****     *
2387:Generated_Source\PSoC4/CyLFClk.c ****     * \brief Enables the specified DeepSleep Timer counters. All the counters 
2388:Generated_Source\PSoC4/CyLFClk.c ****     * specified in the mask are enabled.
2389:Generated_Source\PSoC4/CyLFClk.c ****     *
2390:Generated_Source\PSoC4/CyLFClk.c ****     * \param counterMask  CY_SYS_TIMER0_MASK - The mask for counter 0 to enable.<br>
2391:Generated_Source\PSoC4/CyLFClk.c ****     * CY_SYS_TIMER1_MASK - The mask for counter 1 to enable.<br>
2392:Generated_Source\PSoC4/CyLFClk.c ****     * CY_SYS_TIMER2_MASK - The mask for counter 2 to enable.
2393:Generated_Source\PSoC4/CyLFClk.c ****     *
2394:Generated_Source\PSoC4/CyLFClk.c ****     * \details
2395:Generated_Source\PSoC4/CyLFClk.c ****     * Enabling or disabling Timer requires 3 Timer source-cycles to come into effect.
2396:Generated_Source\PSoC4/CyLFClk.c ****     * Therefore, the Timer enable state must not be changed more than once in
2397:Generated_Source\PSoC4/CyLFClk.c ****     * that period.
2398:Generated_Source\PSoC4/CyLFClk.c ****     *
2399:Generated_Source\PSoC4/CyLFClk.c ****     * After Timer is enabled, it is illegal to write Timer configuration 
2400:Generated_Source\PSoC4/CyLFClk.c ****     * (WCO_WDT_CONFIG) and control (WCO_WDT_CONTROL) registers. This means that all
2401:Generated_Source\PSoC4/CyLFClk.c ****     * Timer functions that contain 'write' in the name (with the exception of 
2402:Generated_Source\PSoC4/CyLFClk.c ****     * CySysTimerSetMatch() function) are illegal to call once Timer enabled.
2403:Generated_Source\PSoC4/CyLFClk.c ****     *
2404:Generated_Source\PSoC4/CyLFClk.c ****     * Timer current source must be running and stable before calling this 
2405:Generated_Source\PSoC4/CyLFClk.c ****     * function.
2406:Generated_Source\PSoC4/CyLFClk.c ****     *
2407:Generated_Source\PSoC4/CyLFClk.c ****     *******************************************************************************/
2408:Generated_Source\PSoC4/CyLFClk.c ****     void CySysTimerEnable(uint32 counterMask)
2409:Generated_Source\PSoC4/CyLFClk.c ****     {
2410:Generated_Source\PSoC4/CyLFClk.c ****         CY_SYS_WCO_WDT_CONTROL_REG |= counterMask;
2411:Generated_Source\PSoC4/CyLFClk.c **** 
2412:Generated_Source\PSoC4/CyLFClk.c ****         if(0u != (counterMask & CY_SYS_TIMER0_MASK))
2413:Generated_Source\PSoC4/CyLFClk.c ****         {
2414:Generated_Source\PSoC4/CyLFClk.c ****             while (0u == CySysTimerGetEnabledStatus(CY_SYS_TIMER0))
2415:Generated_Source\PSoC4/CyLFClk.c ****             {
2416:Generated_Source\PSoC4/CyLFClk.c ****                 /* Wait for changes to come into effect */
2417:Generated_Source\PSoC4/CyLFClk.c ****             }
2418:Generated_Source\PSoC4/CyLFClk.c ****         }
2419:Generated_Source\PSoC4/CyLFClk.c **** 
2420:Generated_Source\PSoC4/CyLFClk.c ****         if(0u != (counterMask & CY_SYS_TIMER1_MASK))
2421:Generated_Source\PSoC4/CyLFClk.c ****         {
2422:Generated_Source\PSoC4/CyLFClk.c ****             while (0u == CySysTimerGetEnabledStatus(CY_SYS_TIMER1))
2423:Generated_Source\PSoC4/CyLFClk.c ****             {
2424:Generated_Source\PSoC4/CyLFClk.c ****                 /* Wait for changes to come into effect */
2425:Generated_Source\PSoC4/CyLFClk.c ****             }
2426:Generated_Source\PSoC4/CyLFClk.c ****         }
2427:Generated_Source\PSoC4/CyLFClk.c **** 
2428:Generated_Source\PSoC4/CyLFClk.c ****         if(0u != (counterMask & CY_SYS_TIMER2_MASK))
2429:Generated_Source\PSoC4/CyLFClk.c ****         {
2430:Generated_Source\PSoC4/CyLFClk.c ****             while (0u == CySysTimerGetEnabledStatus(CY_SYS_TIMER2))
2431:Generated_Source\PSoC4/CyLFClk.c ****             {
2432:Generated_Source\PSoC4/CyLFClk.c ****                 /* Wait for changes to come into effect */
2433:Generated_Source\PSoC4/CyLFClk.c ****             }
2434:Generated_Source\PSoC4/CyLFClk.c ****         }
2435:Generated_Source\PSoC4/CyLFClk.c ****     }
2436:Generated_Source\PSoC4/CyLFClk.c **** 
2437:Generated_Source\PSoC4/CyLFClk.c **** 
2438:Generated_Source\PSoC4/CyLFClk.c ****     /*******************************************************************************
2439:Generated_Source\PSoC4/CyLFClk.c ****     * Function Name: CySysTimerDisable
2440:Generated_Source\PSoC4/CyLFClk.c ****     ****************************************************************************//**
2441:Generated_Source\PSoC4/CyLFClk.c ****     *
2442:Generated_Source\PSoC4/CyLFClk.c ****     * \brief Disables the specified DeepSleep Timer counters.
ARM GAS  C:\Users\VIDEOH~1\AppData\Local\Temp\cc9HpMPY.s 			page 84


2443:Generated_Source\PSoC4/CyLFClk.c ****     *
2444:Generated_Source\PSoC4/CyLFClk.c ****     * All the counters specified in the mask are disabled. The function waits for 
2445:Generated_Source\PSoC4/CyLFClk.c ****     * the changes to come into effect.
2446:Generated_Source\PSoC4/CyLFClk.c ****     *
2447:Generated_Source\PSoC4/CyLFClk.c ****     * \param counterMask
2448:Generated_Source\PSoC4/CyLFClk.c ****     *  CY_SYS_TIMER0_MASK - The mask for Counter 0 to disable.<br>
2449:Generated_Source\PSoC4/CyLFClk.c ****     * CY_SYS_TIMER1_MASK - The mask for Counter 1 to disable.<br>
2450:Generated_Source\PSoC4/CyLFClk.c ****     * CY_SYS_TIMER2_MASK - The mask for Counter 2 to disable.
2451:Generated_Source\PSoC4/CyLFClk.c ****     *
2452:Generated_Source\PSoC4/CyLFClk.c ****     *******************************************************************************/
2453:Generated_Source\PSoC4/CyLFClk.c ****     void CySysTimerDisable(uint32 counterMask)
2454:Generated_Source\PSoC4/CyLFClk.c ****     {
2455:Generated_Source\PSoC4/CyLFClk.c **** 
2456:Generated_Source\PSoC4/CyLFClk.c ****         CY_SYS_WCO_WDT_CONTROL_REG &= ~counterMask;
2457:Generated_Source\PSoC4/CyLFClk.c **** 
2458:Generated_Source\PSoC4/CyLFClk.c ****         if(0u != (counterMask & CY_SYS_TIMER0_MASK))
2459:Generated_Source\PSoC4/CyLFClk.c ****         {
2460:Generated_Source\PSoC4/CyLFClk.c ****             while (0u != CySysTimerGetEnabledStatus(CY_SYS_TIMER0))
2461:Generated_Source\PSoC4/CyLFClk.c ****             {
2462:Generated_Source\PSoC4/CyLFClk.c ****                 /* Wait for changes to come into effect */
2463:Generated_Source\PSoC4/CyLFClk.c ****             }
2464:Generated_Source\PSoC4/CyLFClk.c ****         }
2465:Generated_Source\PSoC4/CyLFClk.c **** 
2466:Generated_Source\PSoC4/CyLFClk.c ****         if(0u != (counterMask & CY_SYS_TIMER1_MASK))
2467:Generated_Source\PSoC4/CyLFClk.c ****         {
2468:Generated_Source\PSoC4/CyLFClk.c ****             while (0u != CySysTimerGetEnabledStatus(CY_SYS_TIMER1))
2469:Generated_Source\PSoC4/CyLFClk.c ****             {
2470:Generated_Source\PSoC4/CyLFClk.c ****                 /* Wait for changes to come into effect */
2471:Generated_Source\PSoC4/CyLFClk.c ****             }
2472:Generated_Source\PSoC4/CyLFClk.c ****         }
2473:Generated_Source\PSoC4/CyLFClk.c **** 
2474:Generated_Source\PSoC4/CyLFClk.c ****         if(0u != (counterMask & CY_SYS_TIMER2_MASK))
2475:Generated_Source\PSoC4/CyLFClk.c ****         {
2476:Generated_Source\PSoC4/CyLFClk.c ****             while (0u != CySysTimerGetEnabledStatus(CY_SYS_TIMER2))
2477:Generated_Source\PSoC4/CyLFClk.c ****             {
2478:Generated_Source\PSoC4/CyLFClk.c ****                 /* Wait for changes to come into effect */
2479:Generated_Source\PSoC4/CyLFClk.c ****             }
2480:Generated_Source\PSoC4/CyLFClk.c ****         }
2481:Generated_Source\PSoC4/CyLFClk.c **** 
2482:Generated_Source\PSoC4/CyLFClk.c ****     }
2483:Generated_Source\PSoC4/CyLFClk.c **** 
2484:Generated_Source\PSoC4/CyLFClk.c **** 
2485:Generated_Source\PSoC4/CyLFClk.c ****     /*******************************************************************************
2486:Generated_Source\PSoC4/CyLFClk.c ****     * Function Name: CySysTimerSetCascade
2487:Generated_Source\PSoC4/CyLFClk.c ****     ****************************************************************************//**
2488:Generated_Source\PSoC4/CyLFClk.c ****     *
2489:Generated_Source\PSoC4/CyLFClk.c ****     * \brief
2490:Generated_Source\PSoC4/CyLFClk.c ****     * Writes the two DeepSleep Timers cascade values based on the combination of 
2491:Generated_Source\PSoC4/CyLFClk.c ****     * mask values specified.
2492:Generated_Source\PSoC4/CyLFClk.c ****     *
2493:Generated_Source\PSoC4/CyLFClk.c ****     * \param cascadeMask The mask value used to set or clear the cascade values:
2494:Generated_Source\PSoC4/CyLFClk.c ****     * CY_SYS_TIMER_CASCADE_NONE - Neither<br>
2495:Generated_Source\PSoC4/CyLFClk.c ****     * CY_SYS_TIMER_CASCADE_01 - Cascade 01<br>
2496:Generated_Source\PSoC4/CyLFClk.c ****     * CY_SYS_TIMER_CASCADE_12 - Cascade 12
2497:Generated_Source\PSoC4/CyLFClk.c ****     *
2498:Generated_Source\PSoC4/CyLFClk.c ****     * If only one cascade mask is specified, the second cascade is disabled.
2499:Generated_Source\PSoC4/CyLFClk.c ****     * To set both cascade modes, two defines should be ORed:
ARM GAS  C:\Users\VIDEOH~1\AppData\Local\Temp\cc9HpMPY.s 			page 85


2500:Generated_Source\PSoC4/CyLFClk.c ****     * (CY_SYS_TIMER_CASCADE_01 | CY_SYS_TIMER_CASCADE_12).
2501:Generated_Source\PSoC4/CyLFClk.c ****     * \note If CySysTimerSetCascade() was called with ORed defines it is necessary 
2502:Generated_Source\PSoC4/CyLFClk.c ****     * to call CySysTimeSetClearOnMatch(1,1). It is needed to make sure that 
2503:Generated_Source\PSoC4/CyLFClk.c ****     * Counter 2 will be updated in the expected way.
2504:Generated_Source\PSoC4/CyLFClk.c ****     *
2505:Generated_Source\PSoC4/CyLFClk.c ****     * Timer counters that are part of the specified cascade should be disabled.
2506:Generated_Source\PSoC4/CyLFClk.c ****     * Otherwise this function call has no effect. If the specified
2507:Generated_Source\PSoC4/CyLFClk.c ****     * counter is enabled, call CySysTimerDisable() function with the corresponding
2508:Generated_Source\PSoC4/CyLFClk.c ****     * parameter to disable the specified counter and wait for it to stop. This may
2509:Generated_Source\PSoC4/CyLFClk.c ****     * take up to 3 Timers source-cycles.
2510:Generated_Source\PSoC4/CyLFClk.c ****     *
2511:Generated_Source\PSoC4/CyLFClk.c ****     *******************************************************************************/
2512:Generated_Source\PSoC4/CyLFClk.c ****     void CySysTimerSetCascade(uint32 cascadeMask)
2513:Generated_Source\PSoC4/CyLFClk.c ****     {
2514:Generated_Source\PSoC4/CyLFClk.c ****         uint32 configRegValue;
2515:Generated_Source\PSoC4/CyLFClk.c ****         uint32 countersEnableStatus;
2516:Generated_Source\PSoC4/CyLFClk.c **** 
2517:Generated_Source\PSoC4/CyLFClk.c ****         countersEnableStatus = CySysTimerGetEnabledStatus(CY_SYS_TIMER0) |
2518:Generated_Source\PSoC4/CyLFClk.c ****                             CySysTimerGetEnabledStatus(CY_SYS_TIMER1) |
2519:Generated_Source\PSoC4/CyLFClk.c ****                             CySysTimerGetEnabledStatus(CY_SYS_TIMER2);
2520:Generated_Source\PSoC4/CyLFClk.c **** 
2521:Generated_Source\PSoC4/CyLFClk.c ****         if (0u == countersEnableStatus)
2522:Generated_Source\PSoC4/CyLFClk.c ****         {
2523:Generated_Source\PSoC4/CyLFClk.c ****             configRegValue = CY_SYS_WCO_WDT_CONFIG_REG;
2524:Generated_Source\PSoC4/CyLFClk.c ****             configRegValue &= ((uint32)(~(CY_SYS_TIMER_CASCADE_01|CY_SYS_TIMER_CASCADE_12)));
2525:Generated_Source\PSoC4/CyLFClk.c ****             configRegValue |= cascadeMask;
2526:Generated_Source\PSoC4/CyLFClk.c ****             CY_SYS_WCO_WDT_CONFIG_REG = configRegValue;
2527:Generated_Source\PSoC4/CyLFClk.c ****         }
2528:Generated_Source\PSoC4/CyLFClk.c ****     }
2529:Generated_Source\PSoC4/CyLFClk.c **** 
2530:Generated_Source\PSoC4/CyLFClk.c **** 
2531:Generated_Source\PSoC4/CyLFClk.c ****     /*******************************************************************************
2532:Generated_Source\PSoC4/CyLFClk.c ****     * Function Name: CySysTimerGetCascade
2533:Generated_Source\PSoC4/CyLFClk.c ****     ****************************************************************************//**
2534:Generated_Source\PSoC4/CyLFClk.c ****     *
2535:Generated_Source\PSoC4/CyLFClk.c ****     * \brief Reads the two DeepSleep Timer cascade values returning a mask of the 
2536:Generated_Source\PSoC4/CyLFClk.c ****     * bits set.
2537:Generated_Source\PSoC4/CyLFClk.c ****     *
2538:Generated_Source\PSoC4/CyLFClk.c ****     * \return The mask of the cascade values set.
2539:Generated_Source\PSoC4/CyLFClk.c ****     * \return CY_SYS_TIMER_CASCADE_NONE - Neither
2540:Generated_Source\PSoC4/CyLFClk.c ****     * \return CY_SYS_TIMER_CASCADE_01 - Cascade 01
2541:Generated_Source\PSoC4/CyLFClk.c ****     * \return CY_SYS_TIMER_CASCADE_12 - Cascade 12
2542:Generated_Source\PSoC4/CyLFClk.c ****     *
2543:Generated_Source\PSoC4/CyLFClk.c ****     *******************************************************************************/
2544:Generated_Source\PSoC4/CyLFClk.c ****     uint32 CySysTimerGetCascade(void)
2545:Generated_Source\PSoC4/CyLFClk.c ****     {
2546:Generated_Source\PSoC4/CyLFClk.c ****         return (CY_SYS_WCO_WDT_CONFIG_REG & (CY_SYS_TIMER_CASCADE_01 | CY_SYS_TIMER_CASCADE_12));
2547:Generated_Source\PSoC4/CyLFClk.c ****     }
2548:Generated_Source\PSoC4/CyLFClk.c **** 
2549:Generated_Source\PSoC4/CyLFClk.c **** 
2550:Generated_Source\PSoC4/CyLFClk.c ****     /*******************************************************************************
2551:Generated_Source\PSoC4/CyLFClk.c ****     * Function Name: CySysTimerSetMatch
2552:Generated_Source\PSoC4/CyLFClk.c ****     ****************************************************************************//**
2553:Generated_Source\PSoC4/CyLFClk.c ****     *
2554:Generated_Source\PSoC4/CyLFClk.c ****     * \brief Configures the Timer counter match comparison value.
2555:Generated_Source\PSoC4/CyLFClk.c ****     *
2556:Generated_Source\PSoC4/CyLFClk.c ****     * \param counterNum Valid range [0-1]. The number of the Timer counter. The 
ARM GAS  C:\Users\VIDEOH~1\AppData\Local\Temp\cc9HpMPY.s 			page 86


2557:Generated_Source\PSoC4/CyLFClk.c ****     * match values are not supported by counter 2.
2558:Generated_Source\PSoC4/CyLFClk.c ****     *
2559:Generated_Source\PSoC4/CyLFClk.c ****     * \param match Valid range [0-65535]. The value to be used to match against 
2560:Generated_Source\PSoC4/CyLFClk.c ****     * the counter.
2561:Generated_Source\PSoC4/CyLFClk.c ****     *
2562:Generated_Source\PSoC4/CyLFClk.c ****     *******************************************************************************/
2563:Generated_Source\PSoC4/CyLFClk.c ****     void CySysTimerSetMatch(uint32 counterNum, uint32 match)
2564:Generated_Source\PSoC4/CyLFClk.c ****     {
2565:Generated_Source\PSoC4/CyLFClk.c ****         uint32 regValue;
2566:Generated_Source\PSoC4/CyLFClk.c **** 
2567:Generated_Source\PSoC4/CyLFClk.c ****         CYASSERT((counterNum == CY_SYS_TIMER0) ||
2568:Generated_Source\PSoC4/CyLFClk.c ****                  (counterNum == CY_SYS_TIMER1));
2569:Generated_Source\PSoC4/CyLFClk.c **** 
2570:Generated_Source\PSoC4/CyLFClk.c ****         /* Wait for previous changes to come into effect */
2571:Generated_Source\PSoC4/CyLFClk.c ****         CyDelayUs(CY_SYS_3TIMER_DELAY_US);
2572:Generated_Source\PSoC4/CyLFClk.c **** 
2573:Generated_Source\PSoC4/CyLFClk.c ****         regValue = CY_SYS_WCO_WDT_MATCH_REG;
2574:Generated_Source\PSoC4/CyLFClk.c ****         regValue &= (uint32)~((uint32)(CY_SYS_TIMER_LOWER_16BITS_MASK << (counterNum * CY_SYS_TIMER
2575:Generated_Source\PSoC4/CyLFClk.c ****         CY_SYS_WCO_WDT_MATCH_REG = (regValue | (match << (counterNum * CY_SYS_TIMER_CNT_MATCH_SHIFT
2576:Generated_Source\PSoC4/CyLFClk.c **** 
2577:Generated_Source\PSoC4/CyLFClk.c ****         /* Make sure match synchronization has started */
2578:Generated_Source\PSoC4/CyLFClk.c ****         CyDelayUs(CY_SYS_1TIMER_DELAY_US);
2579:Generated_Source\PSoC4/CyLFClk.c ****     }
2580:Generated_Source\PSoC4/CyLFClk.c **** 
2581:Generated_Source\PSoC4/CyLFClk.c **** 
2582:Generated_Source\PSoC4/CyLFClk.c ****     /*******************************************************************************
2583:Generated_Source\PSoC4/CyLFClk.c ****     * Function Name: CySysTimerSetToggleBit
2584:Generated_Source\PSoC4/CyLFClk.c ****     ****************************************************************************//**
2585:Generated_Source\PSoC4/CyLFClk.c ****     *
2586:Generated_Source\PSoC4/CyLFClk.c ****     * \brief Configures which bit in Timer counter 2 to monitor for a toggle.
2587:Generated_Source\PSoC4/CyLFClk.c ****     *
2588:Generated_Source\PSoC4/CyLFClk.c ****     * When that bit toggles, an interrupt is generated if mode for counter 2 has
2589:Generated_Source\PSoC4/CyLFClk.c ****     * enabled interrupts.
2590:Generated_Source\PSoC4/CyLFClk.c ****     *
2591:Generated_Source\PSoC4/CyLFClk.c ****     * \param bits Valid range [0-31]. Counter 2 bit to monitor for a toggle.
2592:Generated_Source\PSoC4/CyLFClk.c ****     *
2593:Generated_Source\PSoC4/CyLFClk.c ****     * \details Timer counter 2 should be disabled. Otherwise this function call has
2594:Generated_Source\PSoC4/CyLFClk.c ****     * no effect.
2595:Generated_Source\PSoC4/CyLFClk.c ****     *
2596:Generated_Source\PSoC4/CyLFClk.c ****     * If the specified counter is enabled, call the CySysTimerDisable() function with
2597:Generated_Source\PSoC4/CyLFClk.c ****     * the corresponding parameter to disable the specified counter and wait for it to
2598:Generated_Source\PSoC4/CyLFClk.c ****     * stop. This may take up to three Timer source-cycles.
2599:Generated_Source\PSoC4/CyLFClk.c ****     *
2600:Generated_Source\PSoC4/CyLFClk.c ****     *******************************************************************************/
2601:Generated_Source\PSoC4/CyLFClk.c ****     void CySysTimerSetToggleBit(uint32 bits)
2602:Generated_Source\PSoC4/CyLFClk.c ****     {
2603:Generated_Source\PSoC4/CyLFClk.c ****         uint32 configRegValue;
2604:Generated_Source\PSoC4/CyLFClk.c **** 
2605:Generated_Source\PSoC4/CyLFClk.c ****         if (0u == CySysTimerGetEnabledStatus(CY_SYS_TIMER2))
2606:Generated_Source\PSoC4/CyLFClk.c ****         {
2607:Generated_Source\PSoC4/CyLFClk.c ****             configRegValue = CY_SYS_WCO_WDT_CONFIG_REG;
2608:Generated_Source\PSoC4/CyLFClk.c ****             configRegValue &= (uint32)(~((uint32)(CY_SYS_TIMER_CONFIG_BITS2_MASK << CY_SYS_TIMER_CO
2609:Generated_Source\PSoC4/CyLFClk.c ****             configRegValue |= ((bits & CY_SYS_TIMER_CONFIG_BITS2_MASK) << CY_SYS_TIMER_CONFIG_BITS2
2610:Generated_Source\PSoC4/CyLFClk.c ****             CY_SYS_WCO_WDT_CONFIG_REG = configRegValue;
2611:Generated_Source\PSoC4/CyLFClk.c ****         }
2612:Generated_Source\PSoC4/CyLFClk.c ****     }
2613:Generated_Source\PSoC4/CyLFClk.c **** 
ARM GAS  C:\Users\VIDEOH~1\AppData\Local\Temp\cc9HpMPY.s 			page 87


2614:Generated_Source\PSoC4/CyLFClk.c **** 
2615:Generated_Source\PSoC4/CyLFClk.c ****     /*******************************************************************************
2616:Generated_Source\PSoC4/CyLFClk.c ****     * Function Name: CySysTimerGetToggleBit
2617:Generated_Source\PSoC4/CyLFClk.c ****     ****************************************************************************//**
2618:Generated_Source\PSoC4/CyLFClk.c ****     *
2619:Generated_Source\PSoC4/CyLFClk.c ****     * \brief Reads which bit in Timer counter 2 is monitored for a toggle.
2620:Generated_Source\PSoC4/CyLFClk.c ****     *
2621:Generated_Source\PSoC4/CyLFClk.c ****     * \return The bit that is monitored (range of 0 to 31)
2622:Generated_Source\PSoC4/CyLFClk.c ****     *
2623:Generated_Source\PSoC4/CyLFClk.c ****     *******************************************************************************/
2624:Generated_Source\PSoC4/CyLFClk.c ****     uint32 CySysTimerGetToggleBit(void)
2625:Generated_Source\PSoC4/CyLFClk.c ****     {
2626:Generated_Source\PSoC4/CyLFClk.c ****         return ((CY_SYS_WCO_WDT_CONFIG_REG >> CY_SYS_TIMER_CONFIG_BITS2_POS) & CY_SYS_TIMER_CONFIG_
2627:Generated_Source\PSoC4/CyLFClk.c ****     }
2628:Generated_Source\PSoC4/CyLFClk.c **** 
2629:Generated_Source\PSoC4/CyLFClk.c **** 
2630:Generated_Source\PSoC4/CyLFClk.c ****     /*******************************************************************************
2631:Generated_Source\PSoC4/CyLFClk.c ****     * Function Name: CySysTimerGetMatch
2632:Generated_Source\PSoC4/CyLFClk.c ****     ****************************************************************************//**
2633:Generated_Source\PSoC4/CyLFClk.c ****     *
2634:Generated_Source\PSoC4/CyLFClk.c ****     * \brief Reads the Timer counter match comparison value.
2635:Generated_Source\PSoC4/CyLFClk.c ****     *
2636:Generated_Source\PSoC4/CyLFClk.c ****     * \param counterNum Valid range [0-1]. The number of the DeepSleep Timer 
2637:Generated_Source\PSoC4/CyLFClk.c ****     * counter. The match values are not supported by counter 2.
2638:Generated_Source\PSoC4/CyLFClk.c ****     *
2639:Generated_Source\PSoC4/CyLFClk.c ****     * \return A 16-bit match value.
2640:Generated_Source\PSoC4/CyLFClk.c ****     *
2641:Generated_Source\PSoC4/CyLFClk.c ****     *******************************************************************************/
2642:Generated_Source\PSoC4/CyLFClk.c ****     uint32 CySysTimerGetMatch(uint32 counterNum)
2643:Generated_Source\PSoC4/CyLFClk.c ****     {
2644:Generated_Source\PSoC4/CyLFClk.c ****         CYASSERT((counterNum == CY_SYS_TIMER0) ||
2645:Generated_Source\PSoC4/CyLFClk.c ****                  (counterNum == CY_SYS_TIMER1));
2646:Generated_Source\PSoC4/CyLFClk.c **** 
2647:Generated_Source\PSoC4/CyLFClk.c ****         return ((uint32)(CY_SYS_WCO_WDT_MATCH_REG >> (counterNum * CY_SYS_TIMER_CNT_MATCH_SHIFT)) &
2648:Generated_Source\PSoC4/CyLFClk.c ****                                                                   CY_SYS_TIMER_LOWER_16BITS_MASK);
2649:Generated_Source\PSoC4/CyLFClk.c ****     }
2650:Generated_Source\PSoC4/CyLFClk.c **** 
2651:Generated_Source\PSoC4/CyLFClk.c **** 
2652:Generated_Source\PSoC4/CyLFClk.c ****     /*******************************************************************************
2653:Generated_Source\PSoC4/CyLFClk.c ****     * Function Name: CySysTimerGetCount
2654:Generated_Source\PSoC4/CyLFClk.c ****     ****************************************************************************//**
2655:Generated_Source\PSoC4/CyLFClk.c ****     *
2656:Generated_Source\PSoC4/CyLFClk.c ****     * \brief Reads the current DeepSleep Timer counter value.
2657:Generated_Source\PSoC4/CyLFClk.c ****     *
2658:Generated_Source\PSoC4/CyLFClk.c ****     * \param counterNum Valid range [0-2]. The number of the Timer counter.
2659:Generated_Source\PSoC4/CyLFClk.c ****     *
2660:Generated_Source\PSoC4/CyLFClk.c ****     * \return A live counter value. Counter 0 and Counter 1 are 16 bit counters 
2661:Generated_Source\PSoC4/CyLFClk.c ****     * and counter 2 is a 32 bit counter.
2662:Generated_Source\PSoC4/CyLFClk.c ****     *
2663:Generated_Source\PSoC4/CyLFClk.c ****     *******************************************************************************/
2664:Generated_Source\PSoC4/CyLFClk.c ****     uint32 CySysTimerGetCount(uint32 counterNum)
2665:Generated_Source\PSoC4/CyLFClk.c ****     {
2666:Generated_Source\PSoC4/CyLFClk.c ****         uint32 regValue = 0u;
2667:Generated_Source\PSoC4/CyLFClk.c **** 
2668:Generated_Source\PSoC4/CyLFClk.c ****         switch(counterNum)
2669:Generated_Source\PSoC4/CyLFClk.c ****         {
2670:Generated_Source\PSoC4/CyLFClk.c ****             /* Timer Counter 0 */
ARM GAS  C:\Users\VIDEOH~1\AppData\Local\Temp\cc9HpMPY.s 			page 88


2671:Generated_Source\PSoC4/CyLFClk.c ****             case 0u:
2672:Generated_Source\PSoC4/CyLFClk.c ****                 regValue = CY_SYS_WCO_WDT_CTRLOW_REG & CY_SYS_TIMER_LOWER_16BITS_MASK;
2673:Generated_Source\PSoC4/CyLFClk.c ****             break;
2674:Generated_Source\PSoC4/CyLFClk.c **** 
2675:Generated_Source\PSoC4/CyLFClk.c ****             /* Timer Counter 1 */
2676:Generated_Source\PSoC4/CyLFClk.c ****             case 1u:
2677:Generated_Source\PSoC4/CyLFClk.c ****                 regValue = (CY_SYS_WCO_WDT_CTRLOW_REG >> CY_SYS_TIMER_CNT_MATCH_SHIFT) & CY_SYS_TIM
2678:Generated_Source\PSoC4/CyLFClk.c ****             break;
2679:Generated_Source\PSoC4/CyLFClk.c **** 
2680:Generated_Source\PSoC4/CyLFClk.c ****             /* Timer Counter 2 */
2681:Generated_Source\PSoC4/CyLFClk.c ****             case 2u:
2682:Generated_Source\PSoC4/CyLFClk.c ****                 regValue = CY_SYS_WCO_WDT_CTRHIGH_REG;
2683:Generated_Source\PSoC4/CyLFClk.c ****             break;
2684:Generated_Source\PSoC4/CyLFClk.c **** 
2685:Generated_Source\PSoC4/CyLFClk.c ****             default:
2686:Generated_Source\PSoC4/CyLFClk.c ****                 CYASSERT(0u != 0u);
2687:Generated_Source\PSoC4/CyLFClk.c ****             break;
2688:Generated_Source\PSoC4/CyLFClk.c ****         }
2689:Generated_Source\PSoC4/CyLFClk.c **** 
2690:Generated_Source\PSoC4/CyLFClk.c ****         return (regValue);
2691:Generated_Source\PSoC4/CyLFClk.c ****     }
2692:Generated_Source\PSoC4/CyLFClk.c **** 
2693:Generated_Source\PSoC4/CyLFClk.c **** 
2694:Generated_Source\PSoC4/CyLFClk.c ****     /*******************************************************************************
2695:Generated_Source\PSoC4/CyLFClk.c ****     * Function Name: CySysTimerGetInterruptSource
2696:Generated_Source\PSoC4/CyLFClk.c ****     ****************************************************************************//**
2697:Generated_Source\PSoC4/CyLFClk.c ****     *
2698:Generated_Source\PSoC4/CyLFClk.c ****     * \brief
2699:Generated_Source\PSoC4/CyLFClk.c ****     * Reads a mask containing all the DeepSleep Timer counters interrupts that are 
2700:Generated_Source\PSoC4/CyLFClk.c ****     * currently set by the hardware, if a corresponding mode is selected.
2701:Generated_Source\PSoC4/CyLFClk.c ****     *
2702:Generated_Source\PSoC4/CyLFClk.c ****     * \return The mask of interrupts set
2703:Generated_Source\PSoC4/CyLFClk.c ****     * \return CY_SYS_TIMER0_INT - Set interrupt for Counter 0
2704:Generated_Source\PSoC4/CyLFClk.c ****     * \return CY_SYS_TIMER1_INT - Set interrupt for Counter 1
2705:Generated_Source\PSoC4/CyLFClk.c ****     * \return CY_SYS_TIMER2_INT - Set interrupt for Counter 2
2706:Generated_Source\PSoC4/CyLFClk.c ****     *
2707:Generated_Source\PSoC4/CyLFClk.c ****     *******************************************************************************/
2708:Generated_Source\PSoC4/CyLFClk.c ****     uint32 CySysTimerGetInterruptSource(void)
2709:Generated_Source\PSoC4/CyLFClk.c ****     {
2710:Generated_Source\PSoC4/CyLFClk.c ****         return (CY_SYS_WCO_WDT_CONTROL_REG & (CY_SYS_TIMER0_INT | CY_SYS_TIMER1_INT | CY_SYS_TIMER2
2711:Generated_Source\PSoC4/CyLFClk.c ****     }
2712:Generated_Source\PSoC4/CyLFClk.c **** 
2713:Generated_Source\PSoC4/CyLFClk.c **** 
2714:Generated_Source\PSoC4/CyLFClk.c ****     /*******************************************************************************
2715:Generated_Source\PSoC4/CyLFClk.c ****     * Function Name: CySysTimerClearInterrupt
2716:Generated_Source\PSoC4/CyLFClk.c ****     ****************************************************************************//**
2717:Generated_Source\PSoC4/CyLFClk.c ****     *
2718:Generated_Source\PSoC4/CyLFClk.c ****     * \brief Clears all the DeepSleep Timer counter interrupts set in the mask.
2719:Generated_Source\PSoC4/CyLFClk.c ****     *
2720:Generated_Source\PSoC4/CyLFClk.c ****     * All the Timer interrupts are to be cleared by the firmware, otherwise
2721:Generated_Source\PSoC4/CyLFClk.c ****     * interrupts are generated continuously.
2722:Generated_Source\PSoC4/CyLFClk.c ****     *
2723:Generated_Source\PSoC4/CyLFClk.c ****     * \param counterMask
2724:Generated_Source\PSoC4/CyLFClk.c ****     *  CY_SYS_TIMER0_INT - Clear counter 0<br>
2725:Generated_Source\PSoC4/CyLFClk.c ****     * CY_SYS_TIMER1_INT - Clear counter 1<br>
2726:Generated_Source\PSoC4/CyLFClk.c ****     * CY_SYS_TIMER2_INT - Clear counter 2
2727:Generated_Source\PSoC4/CyLFClk.c ****     *
ARM GAS  C:\Users\VIDEOH~1\AppData\Local\Temp\cc9HpMPY.s 			page 89


2728:Generated_Source\PSoC4/CyLFClk.c ****     *******************************************************************************/
2729:Generated_Source\PSoC4/CyLFClk.c ****     void CySysTimerClearInterrupt(uint32 counterMask)
2730:Generated_Source\PSoC4/CyLFClk.c ****     {
2731:Generated_Source\PSoC4/CyLFClk.c ****         uint8 interruptState;
2732:Generated_Source\PSoC4/CyLFClk.c ****         interruptState = CyEnterCriticalSection();
2733:Generated_Source\PSoC4/CyLFClk.c **** 
2734:Generated_Source\PSoC4/CyLFClk.c ****         /* Set new WCO_TIMER control register value */
2735:Generated_Source\PSoC4/CyLFClk.c ****         counterMask &= (CY_SYS_TIMER0_INT |
2736:Generated_Source\PSoC4/CyLFClk.c ****                         CY_SYS_TIMER1_INT |
2737:Generated_Source\PSoC4/CyLFClk.c ****                         CY_SYS_TIMER2_INT);
2738:Generated_Source\PSoC4/CyLFClk.c **** 
2739:Generated_Source\PSoC4/CyLFClk.c ****         CY_SYS_WCO_WDT_CONTROL_REG = counterMask | (CY_SYS_WCO_WDT_CONTROL_REG & ~(CY_SYS_TIMER0_IN
2740:Generated_Source\PSoC4/CyLFClk.c ****                                                                            CY_SYS_TIMER1_INT |
2741:Generated_Source\PSoC4/CyLFClk.c ****                                                                            CY_SYS_TIMER2_INT));
2742:Generated_Source\PSoC4/CyLFClk.c **** 
2743:Generated_Source\PSoC4/CyLFClk.c ****         /* Read the CY_SYS_WDT_CONTROL_REG to clear the interrupt request.
2744:Generated_Source\PSoC4/CyLFClk.c ****          * Cypress ID #207093, #206231
2745:Generated_Source\PSoC4/CyLFClk.c ****         */
2746:Generated_Source\PSoC4/CyLFClk.c ****         (void)CY_SYS_WCO_WDT_CONTROL_REG;
2747:Generated_Source\PSoC4/CyLFClk.c **** 
2748:Generated_Source\PSoC4/CyLFClk.c ****         CyExitCriticalSection(interruptState);
2749:Generated_Source\PSoC4/CyLFClk.c ****     }
2750:Generated_Source\PSoC4/CyLFClk.c **** 
2751:Generated_Source\PSoC4/CyLFClk.c **** 
2752:Generated_Source\PSoC4/CyLFClk.c ****     /*******************************************************************************
2753:Generated_Source\PSoC4/CyLFClk.c ****     * Function Name: CySysTimerSetInterruptCallback
2754:Generated_Source\PSoC4/CyLFClk.c ****     ****************************************************************************//**
2755:Generated_Source\PSoC4/CyLFClk.c ****     *
2756:Generated_Source\PSoC4/CyLFClk.c ****     * \brief
2757:Generated_Source\PSoC4/CyLFClk.c ****     * Sets the ISR callback function for the particular DeepSleep Timer counter.
2758:Generated_Source\PSoC4/CyLFClk.c ****     *
2759:Generated_Source\PSoC4/CyLFClk.c ****     * These functions are called on the Timer interrupt.
2760:Generated_Source\PSoC4/CyLFClk.c ****     *
2761:Generated_Source\PSoC4/CyLFClk.c ****     * \param counterNum The number of the Timer counter.
2762:Generated_Source\PSoC4/CyLFClk.c ****     * \param function The pointer to the callback function.
2763:Generated_Source\PSoC4/CyLFClk.c ****     *
2764:Generated_Source\PSoC4/CyLFClk.c ****     * \return  The pointer to the previous callback function. 
2765:Generated_Source\PSoC4/CyLFClk.c ****     * \return NULL is returned if the specified address is not set.
2766:Generated_Source\PSoC4/CyLFClk.c ****     *
2767:Generated_Source\PSoC4/CyLFClk.c ****     *******************************************************************************/
2768:Generated_Source\PSoC4/CyLFClk.c ****     cyTimerCallback CySysTimerSetInterruptCallback(uint32 counterNum, cyTimerCallback function)
2769:Generated_Source\PSoC4/CyLFClk.c ****     {
2770:Generated_Source\PSoC4/CyLFClk.c ****         cyTimerCallback prevCallback = (void *)0;
2771:Generated_Source\PSoC4/CyLFClk.c **** 
2772:Generated_Source\PSoC4/CyLFClk.c ****         if(counterNum < CY_SYS_NUM_OF_TIMERS)
2773:Generated_Source\PSoC4/CyLFClk.c ****         {
2774:Generated_Source\PSoC4/CyLFClk.c ****             prevCallback = cySysTimerCallback[counterNum];
2775:Generated_Source\PSoC4/CyLFClk.c ****             cySysTimerCallback[counterNum] = function;
2776:Generated_Source\PSoC4/CyLFClk.c ****         }
2777:Generated_Source\PSoC4/CyLFClk.c ****         else
2778:Generated_Source\PSoC4/CyLFClk.c ****         {
2779:Generated_Source\PSoC4/CyLFClk.c ****             CYASSERT(0u != 0u);
2780:Generated_Source\PSoC4/CyLFClk.c ****         }
2781:Generated_Source\PSoC4/CyLFClk.c **** 
2782:Generated_Source\PSoC4/CyLFClk.c ****         return((cyTimerCallback)prevCallback);
2783:Generated_Source\PSoC4/CyLFClk.c ****     }
2784:Generated_Source\PSoC4/CyLFClk.c **** 
ARM GAS  C:\Users\VIDEOH~1\AppData\Local\Temp\cc9HpMPY.s 			page 90


2785:Generated_Source\PSoC4/CyLFClk.c **** 
2786:Generated_Source\PSoC4/CyLFClk.c ****     /*******************************************************************************
2787:Generated_Source\PSoC4/CyLFClk.c ****     * Function Name: CySysTimerGetInterruptCallback
2788:Generated_Source\PSoC4/CyLFClk.c ****     ****************************************************************************//**
2789:Generated_Source\PSoC4/CyLFClk.c ****     *
2790:Generated_Source\PSoC4/CyLFClk.c ****     * \brief Gets the ISR callback function for the particular DeepSleep Timer 
2791:Generated_Source\PSoC4/CyLFClk.c ****     * counter.
2792:Generated_Source\PSoC4/CyLFClk.c ****     *
2793:Generated_Source\PSoC4/CyLFClk.c ****     * \param counterNum The number of the Timer counter.
2794:Generated_Source\PSoC4/CyLFClk.c ****     *
2795:Generated_Source\PSoC4/CyLFClk.c ****     * \return
2796:Generated_Source\PSoC4/CyLFClk.c ****     * The pointer to the callback function registered for a particular Timer by
2797:Generated_Source\PSoC4/CyLFClk.c ****     * a particular address that are passed through arguments.
2798:Generated_Source\PSoC4/CyLFClk.c ****     *
2799:Generated_Source\PSoC4/CyLFClk.c ****     *******************************************************************************/
2800:Generated_Source\PSoC4/CyLFClk.c ****     cyTimerCallback CySysTimerGetInterruptCallback(uint32 counterNum)
2801:Generated_Source\PSoC4/CyLFClk.c ****     {
2802:Generated_Source\PSoC4/CyLFClk.c ****         cyTimerCallback retCallback = (void *)0;
2803:Generated_Source\PSoC4/CyLFClk.c **** 
2804:Generated_Source\PSoC4/CyLFClk.c ****         if(counterNum < CY_SYS_NUM_OF_TIMERS)
2805:Generated_Source\PSoC4/CyLFClk.c ****         {
2806:Generated_Source\PSoC4/CyLFClk.c ****             retCallback = (cyTimerCallback)cySysTimerCallback[counterNum];
2807:Generated_Source\PSoC4/CyLFClk.c ****         }
2808:Generated_Source\PSoC4/CyLFClk.c ****         else
2809:Generated_Source\PSoC4/CyLFClk.c ****         {
2810:Generated_Source\PSoC4/CyLFClk.c ****             CYASSERT(0u != 0u);
2811:Generated_Source\PSoC4/CyLFClk.c ****         }
2812:Generated_Source\PSoC4/CyLFClk.c **** 
2813:Generated_Source\PSoC4/CyLFClk.c ****         return(retCallback);
2814:Generated_Source\PSoC4/CyLFClk.c ****     }
2815:Generated_Source\PSoC4/CyLFClk.c **** 
2816:Generated_Source\PSoC4/CyLFClk.c **** 
2817:Generated_Source\PSoC4/CyLFClk.c ****     /*******************************************************************************
2818:Generated_Source\PSoC4/CyLFClk.c ****     * Function Name: CySysTimerEnableIsr
2819:Generated_Source\PSoC4/CyLFClk.c ****     ****************************************************************************//**
2820:Generated_Source\PSoC4/CyLFClk.c ****     *
2821:Generated_Source\PSoC4/CyLFClk.c ****     * \brief Enables the ISR callback servicing for the particular Timer counter
2822:Generated_Source\PSoC4/CyLFClk.c ****     *
2823:Generated_Source\PSoC4/CyLFClk.c ****     * \param counterNum Valid range [0-2]. The number of the Timer counter.
2824:Generated_Source\PSoC4/CyLFClk.c ****     *
2825:Generated_Source\PSoC4/CyLFClk.c ****     * Value corresponds to appropriate Timer counter. For example value 1 
2826:Generated_Source\PSoC4/CyLFClk.c ****     * corresponds to second Timer counter.
2827:Generated_Source\PSoC4/CyLFClk.c ****     *
2828:Generated_Source\PSoC4/CyLFClk.c ****     *******************************************************************************/
2829:Generated_Source\PSoC4/CyLFClk.c ****     void CySysTimerEnableIsr(uint32 counterNum)
2830:Generated_Source\PSoC4/CyLFClk.c ****     {
2831:Generated_Source\PSoC4/CyLFClk.c ****         if(counterNum <= CY_SYS_TIMER2)
2832:Generated_Source\PSoC4/CyLFClk.c ****         {
2833:Generated_Source\PSoC4/CyLFClk.c ****             disableTimerServicedIsr &= ~counterTimerIntMaskTbl[counterNum];
2834:Generated_Source\PSoC4/CyLFClk.c ****             timerIsrMask |= counterTimerIntMaskTbl[counterNum];
2835:Generated_Source\PSoC4/CyLFClk.c ****         }
2836:Generated_Source\PSoC4/CyLFClk.c ****         else
2837:Generated_Source\PSoC4/CyLFClk.c ****         {
2838:Generated_Source\PSoC4/CyLFClk.c ****             CYASSERT(0u != 0u);
2839:Generated_Source\PSoC4/CyLFClk.c ****         }
2840:Generated_Source\PSoC4/CyLFClk.c ****     }
2841:Generated_Source\PSoC4/CyLFClk.c **** 
ARM GAS  C:\Users\VIDEOH~1\AppData\Local\Temp\cc9HpMPY.s 			page 91


2842:Generated_Source\PSoC4/CyLFClk.c **** 
2843:Generated_Source\PSoC4/CyLFClk.c ****     /*******************************************************************************
2844:Generated_Source\PSoC4/CyLFClk.c ****     * Function Name: CySysTimerDisableIsr
2845:Generated_Source\PSoC4/CyLFClk.c ****     ****************************************************************************//**
2846:Generated_Source\PSoC4/CyLFClk.c ****     *
2847:Generated_Source\PSoC4/CyLFClk.c ****     * \brief Disables the ISR callback servicing for the particular Timer counter
2848:Generated_Source\PSoC4/CyLFClk.c ****     *
2849:Generated_Source\PSoC4/CyLFClk.c ****     * \param counterNum Valid range [0-2]. The number of the Timer counter.
2850:Generated_Source\PSoC4/CyLFClk.c ****     *
2851:Generated_Source\PSoC4/CyLFClk.c ****     *******************************************************************************/
2852:Generated_Source\PSoC4/CyLFClk.c ****     void CySysTimerDisableIsr(uint32 counterNum)
2853:Generated_Source\PSoC4/CyLFClk.c ****     {
2854:Generated_Source\PSoC4/CyLFClk.c ****         if(counterNum <= CY_SYS_TIMER2)
2855:Generated_Source\PSoC4/CyLFClk.c ****         {
2856:Generated_Source\PSoC4/CyLFClk.c ****             timerIsrMask &= ~counterTimerIntMaskTbl[counterNum];
2857:Generated_Source\PSoC4/CyLFClk.c ****         }
2858:Generated_Source\PSoC4/CyLFClk.c ****         else
2859:Generated_Source\PSoC4/CyLFClk.c ****         {
2860:Generated_Source\PSoC4/CyLFClk.c ****             CYASSERT(0u != 0u);
2861:Generated_Source\PSoC4/CyLFClk.c ****         }
2862:Generated_Source\PSoC4/CyLFClk.c ****     }
2863:Generated_Source\PSoC4/CyLFClk.c **** 
2864:Generated_Source\PSoC4/CyLFClk.c **** 
2865:Generated_Source\PSoC4/CyLFClk.c ****     /*******************************************************************************
2866:Generated_Source\PSoC4/CyLFClk.c ****     * Function Name: CySysTimerIsr
2867:Generated_Source\PSoC4/CyLFClk.c ****     ****************************************************************************//**
2868:Generated_Source\PSoC4/CyLFClk.c ****     *
2869:Generated_Source\PSoC4/CyLFClk.c ****     * \brief This is the handler of the DeepSleep Timer interrupt in CPU NVIC.
2870:Generated_Source\PSoC4/CyLFClk.c ****     *
2871:Generated_Source\PSoC4/CyLFClk.c ****     * The handler checks which Timer triggered in the interrupt and calls the 
2872:Generated_Source\PSoC4/CyLFClk.c ****     * respective callback functions configured by the user by using 
2873:Generated_Source\PSoC4/CyLFClk.c ****     * CySysTimerSetIsrCallback() API.
2874:Generated_Source\PSoC4/CyLFClk.c ****     *
2875:Generated_Source\PSoC4/CyLFClk.c ****     * The order of the callback execution is incremental. Callback-0 is
2876:Generated_Source\PSoC4/CyLFClk.c ****     * run as the first one and callback-2 is called as the last one.
2877:Generated_Source\PSoC4/CyLFClk.c ****     *
2878:Generated_Source\PSoC4/CyLFClk.c ****     * \details This function clears the DeepSleep Timer interrupt every time when 
2879:Generated_Source\PSoC4/CyLFClk.c ****     * it is called.
2880:Generated_Source\PSoC4/CyLFClk.c ****     *
2881:Generated_Source\PSoC4/CyLFClk.c ****     *******************************************************************************/
2882:Generated_Source\PSoC4/CyLFClk.c ****     void CySysTimerIsr(void)
2883:Generated_Source\PSoC4/CyLFClk.c ****     {
2884:Generated_Source\PSoC4/CyLFClk.c ****         if(0u != (CY_SYS_TIMER0_INT & CY_SYS_WCO_WDT_CONTROL_REG))
2885:Generated_Source\PSoC4/CyLFClk.c ****         {
2886:Generated_Source\PSoC4/CyLFClk.c ****             if(0u != (CY_SYS_TIMER0_INT & timerIsrMask))
2887:Generated_Source\PSoC4/CyLFClk.c ****             {
2888:Generated_Source\PSoC4/CyLFClk.c ****                 timerIsrMask &= ~(disableTimerServicedIsr & CY_SYS_TIMER0_INT);
2889:Generated_Source\PSoC4/CyLFClk.c ****                 disableTimerServicedIsr  &= ~CY_SYS_TIMER0_INT;
2890:Generated_Source\PSoC4/CyLFClk.c ****                 if(cySysTimerCallback[CY_SYS_TIMER0] != (void *) 0)
2891:Generated_Source\PSoC4/CyLFClk.c ****                 {
2892:Generated_Source\PSoC4/CyLFClk.c ****                     (void)(cySysTimerCallback[CY_SYS_TIMER0])();
2893:Generated_Source\PSoC4/CyLFClk.c ****                 }
2894:Generated_Source\PSoC4/CyLFClk.c ****             }
2895:Generated_Source\PSoC4/CyLFClk.c ****             CySysTimerClearInterrupt(CY_SYS_TIMER0_INT);
2896:Generated_Source\PSoC4/CyLFClk.c ****         }
2897:Generated_Source\PSoC4/CyLFClk.c **** 
2898:Generated_Source\PSoC4/CyLFClk.c ****         if(0u != (CY_SYS_TIMER1_INT & CY_SYS_WCO_WDT_CONTROL_REG))
ARM GAS  C:\Users\VIDEOH~1\AppData\Local\Temp\cc9HpMPY.s 			page 92


2899:Generated_Source\PSoC4/CyLFClk.c ****         {
2900:Generated_Source\PSoC4/CyLFClk.c ****             if(0u != (CY_SYS_TIMER1_INT & timerIsrMask))
2901:Generated_Source\PSoC4/CyLFClk.c ****             {
2902:Generated_Source\PSoC4/CyLFClk.c ****                 timerIsrMask &= ~(disableTimerServicedIsr & CY_SYS_TIMER1_INT);
2903:Generated_Source\PSoC4/CyLFClk.c ****                 disableTimerServicedIsr  &= ~CY_SYS_TIMER1_INT;
2904:Generated_Source\PSoC4/CyLFClk.c ****                 if(cySysTimerCallback[CY_SYS_TIMER1] != (void *) 0)
2905:Generated_Source\PSoC4/CyLFClk.c ****                 {
2906:Generated_Source\PSoC4/CyLFClk.c ****                     (void)(cySysTimerCallback[CY_SYS_TIMER1])();
2907:Generated_Source\PSoC4/CyLFClk.c ****                 }
2908:Generated_Source\PSoC4/CyLFClk.c ****             }
2909:Generated_Source\PSoC4/CyLFClk.c ****             CySysTimerClearInterrupt(CY_SYS_TIMER1_INT);
2910:Generated_Source\PSoC4/CyLFClk.c ****         }
2911:Generated_Source\PSoC4/CyLFClk.c **** 
2912:Generated_Source\PSoC4/CyLFClk.c ****         if(0u != (CY_SYS_TIMER2_INT & CY_SYS_WCO_WDT_CONTROL_REG))
2913:Generated_Source\PSoC4/CyLFClk.c ****         {
2914:Generated_Source\PSoC4/CyLFClk.c ****             if(0u != (CY_SYS_TIMER2_INT & timerIsrMask))
2915:Generated_Source\PSoC4/CyLFClk.c ****             {
2916:Generated_Source\PSoC4/CyLFClk.c ****                 if(cySysTimerCallback[CY_SYS_TIMER2] != (void *) 0)
2917:Generated_Source\PSoC4/CyLFClk.c ****                 {
2918:Generated_Source\PSoC4/CyLFClk.c ****                     (void)(cySysTimerCallback[CY_SYS_TIMER2])();
2919:Generated_Source\PSoC4/CyLFClk.c ****                 }
2920:Generated_Source\PSoC4/CyLFClk.c ****             }
2921:Generated_Source\PSoC4/CyLFClk.c ****             CySysTimerClearInterrupt(CY_SYS_TIMER2_INT);
2922:Generated_Source\PSoC4/CyLFClk.c ****         }
2923:Generated_Source\PSoC4/CyLFClk.c ****     }
2924:Generated_Source\PSoC4/CyLFClk.c **** 
2925:Generated_Source\PSoC4/CyLFClk.c **** 
2926:Generated_Source\PSoC4/CyLFClk.c ****     /*******************************************************************************
2927:Generated_Source\PSoC4/CyLFClk.c ****     * Function Name: CySysTimerResetCounters
2928:Generated_Source\PSoC4/CyLFClk.c ****     ****************************************************************************//**
2929:Generated_Source\PSoC4/CyLFClk.c ****     *
2930:Generated_Source\PSoC4/CyLFClk.c ****     * \brief Resets all the Timer counters set in the mask.
2931:Generated_Source\PSoC4/CyLFClk.c ****     *
2932:Generated_Source\PSoC4/CyLFClk.c ****     * \param countersMask
2933:Generated_Source\PSoC4/CyLFClk.c ****     * CY_SYS_TIMER0_RESET - Reset the Counter 0<br>
2934:Generated_Source\PSoC4/CyLFClk.c ****     * CY_SYS_TIMER1_RESET - Reset the Counter 1<br>
2935:Generated_Source\PSoC4/CyLFClk.c ****     * CY_SYS_TIMER2_RESET - Reset the Counter 2
2936:Generated_Source\PSoC4/CyLFClk.c ****     *
2937:Generated_Source\PSoC4/CyLFClk.c ****     * \details
2938:Generated_Source\PSoC4/CyLFClk.c ****     * This function waits while corresponding counters will be reset. This may
2939:Generated_Source\PSoC4/CyLFClk.c ****     * take up to 3 DeepSleep Timer source-cycles. DeepSleep Timer source must be 
2940:Generated_Source\PSoC4/CyLFClk.c ****     * enabled. Otherwise, the function will never exit.
2941:Generated_Source\PSoC4/CyLFClk.c ****     *
2942:Generated_Source\PSoC4/CyLFClk.c ****     *******************************************************************************/
2943:Generated_Source\PSoC4/CyLFClk.c ****     void CySysTimerResetCounters(uint32 countersMask)
2944:Generated_Source\PSoC4/CyLFClk.c ****     {
2945:Generated_Source\PSoC4/CyLFClk.c ****         /* Set new Timer reset value */
2946:Generated_Source\PSoC4/CyLFClk.c ****         CY_SYS_WCO_WDT_CONTROL_REG |= (countersMask & CY_SYS_TIMER_RESET);
2947:Generated_Source\PSoC4/CyLFClk.c **** 
2948:Generated_Source\PSoC4/CyLFClk.c ****         while (0uL != (CY_SYS_WCO_WDT_CONTROL_REG & CY_SYS_TIMER_RESET))
2949:Generated_Source\PSoC4/CyLFClk.c ****         {
2950:Generated_Source\PSoC4/CyLFClk.c ****             /* Wait for reset to come into effect */
2951:Generated_Source\PSoC4/CyLFClk.c ****         }
2952:Generated_Source\PSoC4/CyLFClk.c ****     }
2953:Generated_Source\PSoC4/CyLFClk.c **** #endif /* (CY_IP_SRSSLT && CY_IP_WCO && CY_IP_WCO_WDT_EN) */
2954:Generated_Source\PSoC4/CyLFClk.c **** 
2955:Generated_Source\PSoC4/CyLFClk.c **** 
ARM GAS  C:\Users\VIDEOH~1\AppData\Local\Temp\cc9HpMPY.s 			page 93


2956:Generated_Source\PSoC4/CyLFClk.c **** #if(CY_IP_SRSSV2 || (CY_IP_WCO_WDT_EN && CY_IP_SRSSLT))
2957:Generated_Source\PSoC4/CyLFClk.c ****     /*******************************************************************************
2958:Generated_Source\PSoC4/CyLFClk.c ****     * Function Name: CySysTimerDelay
2959:Generated_Source\PSoC4/CyLFClk.c ****     ****************************************************************************//**
2960:Generated_Source\PSoC4/CyLFClk.c ****     *
2961:Generated_Source\PSoC4/CyLFClk.c ****     * \brief
2962:Generated_Source\PSoC4/CyLFClk.c ****     * The function implements the delay specified in the LFCLK clock ticks.
2963:Generated_Source\PSoC4/CyLFClk.c ****     *
2964:Generated_Source\PSoC4/CyLFClk.c ****     * This API is applicable for PSoC 4100 / PSoC 4200 / PSoC 4100 BLE / 
2965:Generated_Source\PSoC4/CyLFClk.c ****     * PSoC 4200 BLE / PRoC BLE / PSoC 4200L / PSoC 4100M / PSoC 4200M devices to 
2966:Generated_Source\PSoC4/CyLFClk.c ****     * use WDT. Also this API is available to use for PSoC4100S and / PSoC Analog 
2967:Generated_Source\PSoC4/CyLFClk.c ****     * Coprocessor devices to use DeepSleep Timers.
2968:Generated_Source\PSoC4/CyLFClk.c ****     *
2969:Generated_Source\PSoC4/CyLFClk.c ****     * For PSoC 4100 / PSoC 4200 / PSoC 4100 BLE / PSoC 4200 BLE / PRoC BLE / PSoC 
2970:Generated_Source\PSoC4/CyLFClk.c ****     * 4200L / PSoC 4100M / PSoC 4200M devices:
2971:Generated_Source\PSoC4/CyLFClk.c ****     * The specified WDT counter should be configured as described below and started.
2972:Generated_Source\PSoC4/CyLFClk.c ****     *
2973:Generated_Source\PSoC4/CyLFClk.c ****     * For PSoC 4100S / PSoC Analog Coprocessor devices:
2974:Generated_Source\PSoC4/CyLFClk.c ****     * The specified DeepSleep Timer counter should be configured as described below
2975:Generated_Source\PSoC4/CyLFClk.c ****     * and started.
2976:Generated_Source\PSoC4/CyLFClk.c ****     *
2977:Generated_Source\PSoC4/CyLFClk.c ****     * This function can operate in two modes: the "WAIT" and "INTERRUPT" modes. In
2978:Generated_Source\PSoC4/CyLFClk.c ****     * the "WAIT" mode, the function waits for the specified number of ticks. In the
2979:Generated_Source\PSoC4/CyLFClk.c ****     * "INTERRUPT" mode, the interrupt is generated after the specified number of
2980:Generated_Source\PSoC4/CyLFClk.c ****     * ticks.
2981:Generated_Source\PSoC4/CyLFClk.c ****     *
2982:Generated_Source\PSoC4/CyLFClk.c ****     * For the correct function operation, the "Clear On Match" option should be
2983:Generated_Source\PSoC4/CyLFClk.c ****     * disabled for the specified WDT or DeepSleep Timer counter. Use 
2984:Generated_Source\PSoC4/CyLFClk.c ****     * CySysWdtSetClearOnMatch() for WDT or CySysTimerSetClearOnMatch() for DeepSleep
2985:Generated_Source\PSoC4/CyLFClk.c ****     * Timer function with the "enable" parameter equal to zero for the used WDT 
2986:Generated_Source\PSoC4/CyLFClk.c ****     * counter or DeepSleep Timer counter.
2987:Generated_Source\PSoC4/CyLFClk.c ****     *
2988:Generated_Source\PSoC4/CyLFClk.c ****     * The corresponding WDT counter should be configured to match the selected
2989:Generated_Source\PSoC4/CyLFClk.c ****     * mode: "Free running Timer" for the "WAIT" mode, and
2990:Generated_Source\PSoC4/CyLFClk.c ****     * "Periodic Timer" / "Watchdog (w/Interrupt)" for the "INTERRUPT" mode.
2991:Generated_Source\PSoC4/CyLFClk.c ****     *
2992:Generated_Source\PSoC4/CyLFClk.c ****     * Or the corresponding DeepSleep Timer counter should be configured to match the
2993:Generated_Source\PSoC4/CyLFClk.c ****     * selected mode: "Free running Timer" for the "WAIT" mode, and
2994:Generated_Source\PSoC4/CyLFClk.c ****     * "Periodic Timer" for the "INTERRUPT" mode.
2995:Generated_Source\PSoC4/CyLFClk.c ****     *
2996:Generated_Source\PSoC4/CyLFClk.c ****     * This can be configured in two ways:
2997:Generated_Source\PSoC4/CyLFClk.c ****     * - Through the DWR page. Open the "Clocks" tab, click the "Edit Clocks..."
2998:Generated_Source\PSoC4/CyLFClk.c ****     * button, in the "Configure System Clocks" window click on the
2999:Generated_Source\PSoC4/CyLFClk.c ****     * "Low Frequency Clocks" tab and choose the appropriate option for the used
3000:Generated_Source\PSoC4/CyLFClk.c ****     * WDT or DeepSleep Timer counter.
3001:Generated_Source\PSoC4/CyLFClk.c ****     *
3002:Generated_Source\PSoC4/CyLFClk.c ****     * - Through the CySysWdtSetMode() for WDT or CySysTimerSetMode() for DeepSleep
3003:Generated_Source\PSoC4/CyLFClk.c ****     * Timer function. Call it with the appropriate "mode" parameter for the 
3004:Generated_Source\PSoC4/CyLFClk.c ****     * used WDT or DeepSleep Timer counter.
3005:Generated_Source\PSoC4/CyLFClk.c ****     *
3006:Generated_Source\PSoC4/CyLFClk.c ****     * For the "INTERRUPT" mode, the recommended sequence is the following:
3007:Generated_Source\PSoC4/CyLFClk.c ****     * - Call the CySysWdtDisableCounterIsr() for WDT or 
3008:Generated_Source\PSoC4/CyLFClk.c ****     * CySysTimerDisableIsr() for DeepSleep Timer function to disable servicing
3009:Generated_Source\PSoC4/CyLFClk.c ****     * interrupts of the specified WDT or DeepSleep Timer counter.
3010:Generated_Source\PSoC4/CyLFClk.c ****     *
3011:Generated_Source\PSoC4/CyLFClk.c ****     * - Call the CySysWdtSetInterruptCallback() for WDT or 
3012:Generated_Source\PSoC4/CyLFClk.c ****     * CySysTimerSetIsrCallback() for DeepSleep Timer function to register 
ARM GAS  C:\Users\VIDEOH~1\AppData\Local\Temp\cc9HpMPY.s 			page 94


3013:Generated_Source\PSoC4/CyLFClk.c ****     * the callback function for the corresponding WDT or DeepSleep Timer counter.
3014:Generated_Source\PSoC4/CyLFClk.c ****     *
3015:Generated_Source\PSoC4/CyLFClk.c ****     * - Call the CySysTimerDelay() function.
3016:Generated_Source\PSoC4/CyLFClk.c ****     *
3017:Generated_Source\PSoC4/CyLFClk.c ****     * \param counterNum Valid range [0-1]. The number of the counter 
3018:Generated_Source\PSoC4/CyLFClk.c ****     * (Timer0 or Timer1).
3019:Generated_Source\PSoC4/CyLFClk.c ****     * \param delayType
3020:Generated_Source\PSoC4/CyLFClk.c ****     * CY_SYS_TIMER_WAIT - "WAIT" mode. <br>
3021:Generated_Source\PSoC4/CyLFClk.c ****     * CY_SYS_TIMER_INTERRUPT - "INTERRUPT" mode.
3022:Generated_Source\PSoC4/CyLFClk.c ****     * \param delay The delay value in the LFCLK ticks 
3023:Generated_Source\PSoC4/CyLFClk.c ****     * (allowable range - 16-bit value).
3024:Generated_Source\PSoC4/CyLFClk.c ****     *
3025:Generated_Source\PSoC4/CyLFClk.c ****     * \details
3026:Generated_Source\PSoC4/CyLFClk.c ****     * In the "INTERRUPT" mode, this function enables ISR callback servicing
3027:Generated_Source\PSoC4/CyLFClk.c ****     * from the corresponding WDT or DeepSleep Timer counter. Servicing of this ISR 
3028:Generated_Source\PSoC4/CyLFClk.c ****     * callback will be disabled after the expiration of the delay time.
3029:Generated_Source\PSoC4/CyLFClk.c ****     *
3030:Generated_Source\PSoC4/CyLFClk.c ****     *******************************************************************************/
3031:Generated_Source\PSoC4/CyLFClk.c ****     void CySysTimerDelay(uint32 counterNum, cy_sys_timer_delaytype_enum delayType, uint32 delay)
3032:Generated_Source\PSoC4/CyLFClk.c ****     {
3033:Generated_Source\PSoC4/CyLFClk.c ****         uint32 regValue;
3034:Generated_Source\PSoC4/CyLFClk.c ****         uint32 matchValue;
3035:Generated_Source\PSoC4/CyLFClk.c **** 
3036:Generated_Source\PSoC4/CyLFClk.c ****         #if(CY_IP_SRSSV2)
3037:Generated_Source\PSoC4/CyLFClk.c ****             if((counterNum < CY_SYS_WDT_COUNTER2) && (0uL == CySysWdtGetClearOnMatch(counterNum)) &
3038:Generated_Source\PSoC4/CyLFClk.c ****                                                                 (delay <= CY_SYS_UINT16_MAX_VAL))
3039:Generated_Source\PSoC4/CyLFClk.c ****             {
3040:Generated_Source\PSoC4/CyLFClk.c ****                 regValue   = CySysWdtGetCount(counterNum);
3041:Generated_Source\PSoC4/CyLFClk.c ****                 matchValue = (regValue + delay) & (uint32)CY_SYS_UINT16_MAX_VAL;
3042:Generated_Source\PSoC4/CyLFClk.c **** 
3043:Generated_Source\PSoC4/CyLFClk.c ****                 CySysTimerDelayUntilMatch(counterNum, delayType, matchValue);
3044:Generated_Source\PSoC4/CyLFClk.c ****             }
3045:Generated_Source\PSoC4/CyLFClk.c ****             else
3046:Generated_Source\PSoC4/CyLFClk.c ****             {
3047:Generated_Source\PSoC4/CyLFClk.c ****                 CYASSERT(0u != 0u);
3048:Generated_Source\PSoC4/CyLFClk.c ****             }
3049:Generated_Source\PSoC4/CyLFClk.c ****         #endif /* (CY_IP_SRSSV2) */
3050:Generated_Source\PSoC4/CyLFClk.c **** 
3051:Generated_Source\PSoC4/CyLFClk.c ****         #if(CY_IP_WCO_WDT_EN && CY_IP_SRSSLT)
3052:Generated_Source\PSoC4/CyLFClk.c ****             if((counterNum < CY_SYS_TIMER2) && (0uL == CySysTimerGetClearOnMatch(counterNum)) && 
3053:Generated_Source\PSoC4/CyLFClk.c ****                                                             (delay <= CY_SYS_UINT16_MAX_VAL))
3054:Generated_Source\PSoC4/CyLFClk.c ****             {
3055:Generated_Source\PSoC4/CyLFClk.c ****                 regValue   = CySysTimerGetCount(counterNum);
3056:Generated_Source\PSoC4/CyLFClk.c ****                 matchValue = (regValue + delay) & (uint32)CY_SYS_UINT16_MAX_VAL;
3057:Generated_Source\PSoC4/CyLFClk.c **** 
3058:Generated_Source\PSoC4/CyLFClk.c ****                 CySysTimerDelayUntilMatch(counterNum, delayType, matchValue);
3059:Generated_Source\PSoC4/CyLFClk.c ****             }
3060:Generated_Source\PSoC4/CyLFClk.c ****             else
3061:Generated_Source\PSoC4/CyLFClk.c ****             {
3062:Generated_Source\PSoC4/CyLFClk.c ****                 CYASSERT(0u != 0u);
3063:Generated_Source\PSoC4/CyLFClk.c ****             }
3064:Generated_Source\PSoC4/CyLFClk.c ****         #endif /* (CY_IP_WCO_WDT_EN) */
3065:Generated_Source\PSoC4/CyLFClk.c ****     }
3066:Generated_Source\PSoC4/CyLFClk.c **** 
3067:Generated_Source\PSoC4/CyLFClk.c **** 
3068:Generated_Source\PSoC4/CyLFClk.c ****     /*******************************************************************************
3069:Generated_Source\PSoC4/CyLFClk.c ****     * Function Name: CySysTimerDelayUntilMatch
ARM GAS  C:\Users\VIDEOH~1\AppData\Local\Temp\cc9HpMPY.s 			page 95


3070:Generated_Source\PSoC4/CyLFClk.c ****     ****************************************************************************//**
3071:Generated_Source\PSoC4/CyLFClk.c ****     *
3072:Generated_Source\PSoC4/CyLFClk.c ****     * \brief
3073:Generated_Source\PSoC4/CyLFClk.c ****     * The function implements the delay specified as the number of WDT or DeepSleep
3074:Generated_Source\PSoC4/CyLFClk.c ****     * Timer clock source ticks between WDT or DeepSleep Timer current value and 
3075:Generated_Source\PSoC4/CyLFClk.c ****     * match" value.
3076:Generated_Source\PSoC4/CyLFClk.c ****     *
3077:Generated_Source\PSoC4/CyLFClk.c ****     * This API is applicable for PSoC 4100 / PSoC 4200 / PRoC BLE / PSoC 4100 BLE /
3078:Generated_Source\PSoC4/CyLFClk.c ****     * PSoC 4200 BLE / PSoC 4200L / PSoC 4100M / PSoC 4200M devices to use WDT.
3079:Generated_Source\PSoC4/CyLFClk.c ****     * Also this API is available to use for PSoC4100S / Analog Coprocessor devices
3080:Generated_Source\PSoC4/CyLFClk.c ****     * to use DeepSleep Timers.
3081:Generated_Source\PSoC4/CyLFClk.c ****     * 
3082:Generated_Source\PSoC4/CyLFClk.c ****     * For PSoC 4100 / PSoC 4200 / PSoC 4100 BLE / PSoC 4200 BLE / PRoC BLE / PSoC 
3083:Generated_Source\PSoC4/CyLFClk.c ****     * 4200L / PSoC 4100M / PSoC 4200M devices:
3084:Generated_Source\PSoC4/CyLFClk.c ****     * The function implements the delay specified as the number of LFCLK ticks
3085:Generated_Source\PSoC4/CyLFClk.c ****     * between the specified WDT counter's current value and the "match"
3086:Generated_Source\PSoC4/CyLFClk.c ****     * passed as the parameter to this function. The current WDT counter value can 
3087:Generated_Source\PSoC4/CyLFClk.c ****     * be obtained using the CySysWdtGetCount() function.
3088:Generated_Source\PSoC4/CyLFClk.c ****     *
3089:Generated_Source\PSoC4/CyLFClk.c ****     * For PSoC4100 S and Analog Coprocessor devices:
3090:Generated_Source\PSoC4/CyLFClk.c ****     * The function implements the delay specified as the number of DeepSleep Timer 
3091:Generated_Source\PSoC4/CyLFClk.c ****     * input clock ticks for Timer0/Timer1 counter's current value and the "match" 
3092:Generated_Source\PSoC4/CyLFClk.c ****     * passed as the parameter to this function. The current DeepSleep Timer counter
3093:Generated_Source\PSoC4/CyLFClk.c ****     * value can be obtained using the CySysWdtGetCount() function.
3094:Generated_Source\PSoC4/CyLFClk.c ****     *
3095:Generated_Source\PSoC4/CyLFClk.c ****     * For PSoC 4100 / PSoC 4200 / PSoC 4100 BLE / PSoC 4200 BLE / PRoC BLE / PSoC 
3096:Generated_Source\PSoC4/CyLFClk.c ****     * 4200L / PSoC 4100M / PSoC 4200M devices:
3097:Generated_Source\PSoC4/CyLFClk.c ****     * The specified WDT counter should be configured as described below and started.
3098:Generated_Source\PSoC4/CyLFClk.c ****     *
3099:Generated_Source\PSoC4/CyLFClk.c ****     * For PSoC PSoC 4100S / PSoC Analog Coprocessor devices:
3100:Generated_Source\PSoC4/CyLFClk.c ****     * The specified DeepSleep Timer counter should be configured as described below
3101:Generated_Source\PSoC4/CyLFClk.c ****     * and started.
3102:Generated_Source\PSoC4/CyLFClk.c ****     *
3103:Generated_Source\PSoC4/CyLFClk.c ****     * This function can operate in two modes: the "WAIT" and "INTERRUPT" modes. In
3104:Generated_Source\PSoC4/CyLFClk.c ****     * the "WAIT" mode, the function waits for the specified number of ticks. In the
3105:Generated_Source\PSoC4/CyLFClk.c ****     * "INTERRUPT" mode, the interrupt is generated after the specified number of
3106:Generated_Source\PSoC4/CyLFClk.c ****     * ticks.
3107:Generated_Source\PSoC4/CyLFClk.c ****     *
3108:Generated_Source\PSoC4/CyLFClk.c ****     * For the correct function operation, the "Clear On Match" option should be
3109:Generated_Source\PSoC4/CyLFClk.c ****     * disabled for the specified WDT or DeepSleep Timer counter. Use 
3110:Generated_Source\PSoC4/CyLFClk.c ****     * CySysWdtSetClearOnMatch() for WDT or CySysTimerSetClearOnMatch() for DeepSleep
3111:Generated_Source\PSoC4/CyLFClk.c ****     * Timer function with the "enable" parameter equal to zero for the used WDT 
3112:Generated_Source\PSoC4/CyLFClk.c ****     * or DeepSleep Timer counter.
3113:Generated_Source\PSoC4/CyLFClk.c ****     *
3114:Generated_Source\PSoC4/CyLFClk.c ****     * For PSoC 4100 / PSoC 4200 / PSoC 4100 BLE / PSoC 4200 BLE / PRoC BLE / PSoC 
3115:Generated_Source\PSoC4/CyLFClk.c ****     * 4200L / PSoC 4100M/PSoC 4200M devices:
3116:Generated_Source\PSoC4/CyLFClk.c ****     * The corresponding WDT counter should be configured to match the selected
3117:Generated_Source\PSoC4/CyLFClk.c ****     * mode: "Free running Timer" for the "WAIT" mode, and
3118:Generated_Source\PSoC4/CyLFClk.c ****     * "Periodic Timer" / "Watchdog (w/Interrupt)" for the "INTERRUPT" mode.
3119:Generated_Source\PSoC4/CyLFClk.c ****     *
3120:Generated_Source\PSoC4/CyLFClk.c ****     * For PSoC 4100S / PSoC Analog Coprocessor devices:
3121:Generated_Source\PSoC4/CyLFClk.c ****     * Corresponding DeepSleep Timer counter should be configured to match the 
3122:Generated_Source\PSoC4/CyLFClk.c ****     * selected mode: "Free running Timer" for the "WAIT" mode, and
3123:Generated_Source\PSoC4/CyLFClk.c ****     * "Periodic Timer" for the "INTERRUPT" mode.
3124:Generated_Source\PSoC4/CyLFClk.c ****     *
3125:Generated_Source\PSoC4/CyLFClk.c ****     * This can be configured in two ways:
3126:Generated_Source\PSoC4/CyLFClk.c ****     * - Through the DWR page. Open the "Clocks" tab, click the "Edit Clocks..."
ARM GAS  C:\Users\VIDEOH~1\AppData\Local\Temp\cc9HpMPY.s 			page 96


3127:Generated_Source\PSoC4/CyLFClk.c ****     * button, in the "Configure System Clocks" window click on the
3128:Generated_Source\PSoC4/CyLFClk.c ****     * "Low Frequency Clocks" tab and choose the appropriate option for the used
3129:Generated_Source\PSoC4/CyLFClk.c ****     * WDT or DeepSleep Timer counter.
3130:Generated_Source\PSoC4/CyLFClk.c ****     *
3131:Generated_Source\PSoC4/CyLFClk.c ****     * - Through the CySysWdtSetMode() for WDT or CySysTimerSetMode() for DeepSleep
3132:Generated_Source\PSoC4/CyLFClk.c ****     * Timer function. Call it with the appropriate "mode" parameter for the 
3133:Generated_Source\PSoC4/CyLFClk.c ****     * used WDT or DeepSleep Timer counter.
3134:Generated_Source\PSoC4/CyLFClk.c ****     *
3135:Generated_Source\PSoC4/CyLFClk.c ****     * For the "INTERRUPT" mode, the recommended sequence is the following:
3136:Generated_Source\PSoC4/CyLFClk.c ****     * - Call the CySysWdtDisableCounterIsr() for WDT or 
3137:Generated_Source\PSoC4/CyLFClk.c ****     * CySysTimerDisableIsr() for DeepSleep Timer function to disable servicing
3138:Generated_Source\PSoC4/CyLFClk.c ****     * interrupts of the specified WDT or DeepSleep Timer counter.
3139:Generated_Source\PSoC4/CyLFClk.c ****     *
3140:Generated_Source\PSoC4/CyLFClk.c ****     * - Call the CySysWdtSetInterruptCallback() for WDT or 
3141:Generated_Source\PSoC4/CyLFClk.c ****     * CySysTimerSetInterruptCallback() for DeepSleep Timer function to register 
3142:Generated_Source\PSoC4/CyLFClk.c ****     * the callback function for the corresponding WDT or DeepSleep Timer counter.
3143:Generated_Source\PSoC4/CyLFClk.c ****     *
3144:Generated_Source\PSoC4/CyLFClk.c ****     * - Call the CySysTimerDelay() function.
3145:Generated_Source\PSoC4/CyLFClk.c ****     *
3146:Generated_Source\PSoC4/CyLFClk.c ****     * \param counterNum Valid range [0-1]. The number of the WDT or DeepSleep 
3147:Generated_Source\PSoC4/CyLFClk.c ****     * Timer.
3148:Generated_Source\PSoC4/CyLFClk.c ****     * counter (Timer0 or Timer1).
3149:Generated_Source\PSoC4/CyLFClk.c ****     * \param delayType  CY_SYS_TIMER_WAIT - "WAIT" mode.<br>
3150:Generated_Source\PSoC4/CyLFClk.c ****     * CY_SYS_TIMER_INTERRUPT - "INTERRUPT" mode.
3151:Generated_Source\PSoC4/CyLFClk.c ****     * \param delay The delay value in the LFCLK ticks
3152:Generated_Source\PSoC4/CyLFClk.c ****     * (allowable range - 16-bit value).
3153:Generated_Source\PSoC4/CyLFClk.c ****     *
3154:Generated_Source\PSoC4/CyLFClk.c ****     * \details
3155:Generated_Source\PSoC4/CyLFClk.c ****     * In the "INTERRUPT" mode, this function enables ISR callback servicing
3156:Generated_Source\PSoC4/CyLFClk.c ****     * from the corresponding WDT counter. Servicing of this ISR callback will be
3157:Generated_Source\PSoC4/CyLFClk.c ****     * disabled after the expiration of the delay time.
3158:Generated_Source\PSoC4/CyLFClk.c ****     *
3159:Generated_Source\PSoC4/CyLFClk.c ****     *******************************************************************************/
3160:Generated_Source\PSoC4/CyLFClk.c ****     void CySysTimerDelayUntilMatch(uint32 counterNum, cy_sys_timer_delaytype_enum delayType, uint32
3161:Generated_Source\PSoC4/CyLFClk.c ****     {
 2049              		.loc 1 3161 0
 2050              		.cfi_startproc
 2051              		@ args = 0, pretend = 0, frame = 0
 2052              		@ frame_needed = 0, uses_anonymous_args = 0
 2053              	.LVL204:
 2054 0000 70B5     		push	{r4, r5, r6, lr}
 2055              		.cfi_def_cfa_offset 16
 2056              		.cfi_offset 4, -16
 2057              		.cfi_offset 5, -12
 2058              		.cfi_offset 6, -8
 2059              		.cfi_offset 14, -4
 2060 0002 0400     		movs	r4, r0
 2061 0004 0E00     		movs	r6, r1
 2062 0006 1500     		movs	r5, r2
3162:Generated_Source\PSoC4/CyLFClk.c ****         uint32 tmpValue;
3163:Generated_Source\PSoC4/CyLFClk.c **** 
3164:Generated_Source\PSoC4/CyLFClk.c ****         #if(CY_IP_SRSSV2)
3165:Generated_Source\PSoC4/CyLFClk.c ****             if((counterNum < CY_SYS_WDT_COUNTER2) && (0uL == CySysWdtGetClearOnMatch(counterNum)) &
 2063              		.loc 1 3165 0
 2064 0008 0128     		cmp	r0, #1
 2065 000a 23D8     		bhi	.L173
 2066              		.loc 1 3165 0 is_stmt 0 discriminator 1
ARM GAS  C:\Users\VIDEOH~1\AppData\Local\Temp\cc9HpMPY.s 			page 97


 2067 000c FFF7FEFF 		bl	CySysWdtGetClearOnMatch
 2068              	.LVL205:
 2069 0010 0028     		cmp	r0, #0
 2070 0012 1FD1     		bne	.L173
 2071              		.loc 1 3165 0 discriminator 2
 2072 0014 114B     		ldr	r3, .L178
 2073 0016 9D42     		cmp	r5, r3
 2074 0018 1CD8     		bhi	.L173
3166:Generated_Source\PSoC4/CyLFClk.c ****                                                                 (match <= CY_SYS_UINT16_MAX_VAL))
3167:Generated_Source\PSoC4/CyLFClk.c ****             {
3168:Generated_Source\PSoC4/CyLFClk.c ****                 if(delayType == CY_SYS_TIMER_WAIT)
 2075              		.loc 1 3168 0 is_stmt 1
 2076 001a 002E     		cmp	r6, #0
 2077 001c 0AD1     		bne	.L174
 2078              	.L175:
3169:Generated_Source\PSoC4/CyLFClk.c ****                 {
3170:Generated_Source\PSoC4/CyLFClk.c ****                     do
3171:Generated_Source\PSoC4/CyLFClk.c ****                     {
3172:Generated_Source\PSoC4/CyLFClk.c ****                         tmpValue = CySysWdtGetCount(counterNum);
 2079              		.loc 1 3172 0 discriminator 1
 2080 001e 2000     		movs	r0, r4
 2081 0020 FFF7FEFF 		bl	CySysWdtGetCount
 2082              	.LVL206:
3173:Generated_Source\PSoC4/CyLFClk.c ****                     }while(tmpValue > match);
 2083              		.loc 1 3173 0 discriminator 1
 2084 0024 8542     		cmp	r5, r0
 2085 0026 FAD3     		bcc	.L175
 2086              	.L176:
3174:Generated_Source\PSoC4/CyLFClk.c **** 
3175:Generated_Source\PSoC4/CyLFClk.c ****                     do
3176:Generated_Source\PSoC4/CyLFClk.c ****                     {
3177:Generated_Source\PSoC4/CyLFClk.c ****                         tmpValue = CySysWdtGetCount(counterNum);
 2087              		.loc 1 3177 0 discriminator 1
 2088 0028 2000     		movs	r0, r4
 2089              	.LVL207:
 2090 002a FFF7FEFF 		bl	CySysWdtGetCount
 2091              	.LVL208:
3178:Generated_Source\PSoC4/CyLFClk.c ****                     }while(tmpValue < match);
 2092              		.loc 1 3178 0 discriminator 1
 2093 002e 8542     		cmp	r5, r0
 2094 0030 FAD8     		bhi	.L176
 2095 0032 12E0     		b	.L172
 2096              	.LVL209:
 2097              	.L174:
3179:Generated_Source\PSoC4/CyLFClk.c ****                 }
3180:Generated_Source\PSoC4/CyLFClk.c ****                 else
3181:Generated_Source\PSoC4/CyLFClk.c ****                 {
3182:Generated_Source\PSoC4/CyLFClk.c ****                     tmpValue = counterIntMaskTbl[counterNum];
 2098              		.loc 1 3182 0
 2099 0034 A200     		lsls	r2, r4, #2
 2100 0036 0A4B     		ldr	r3, .L178+4
 2101 0038 D658     		ldr	r6, [r2, r3]
 2102              	.LVL210:
3183:Generated_Source\PSoC4/CyLFClk.c ****                     CySysWdtSetMatch(counterNum, match);
 2103              		.loc 1 3183 0
 2104 003a 2900     		movs	r1, r5
 2105 003c 2000     		movs	r0, r4
ARM GAS  C:\Users\VIDEOH~1\AppData\Local\Temp\cc9HpMPY.s 			page 98


 2106 003e FFF7FEFF 		bl	CySysWdtSetMatch
 2107              	.LVL211:
3184:Generated_Source\PSoC4/CyLFClk.c **** 
3185:Generated_Source\PSoC4/CyLFClk.c ****                     disableServicedIsr  |= tmpValue;
 2108              		.loc 1 3185 0
 2109 0042 084A     		ldr	r2, .L178+8
 2110 0044 D369     		ldr	r3, [r2, #28]
 2111 0046 3343     		orrs	r3, r6
 2112 0048 D361     		str	r3, [r2, #28]
3186:Generated_Source\PSoC4/CyLFClk.c ****                     wdtIsrMask |= tmpValue;
 2113              		.loc 1 3186 0
 2114 004a 074A     		ldr	r2, .L178+12
 2115 004c 1368     		ldr	r3, [r2]
 2116 004e 3343     		orrs	r3, r6
 2117 0050 1360     		str	r3, [r2]
 2118 0052 02E0     		b	.L172
 2119              	.LVL212:
 2120              	.L173:
3187:Generated_Source\PSoC4/CyLFClk.c ****                 }
3188:Generated_Source\PSoC4/CyLFClk.c ****             }
3189:Generated_Source\PSoC4/CyLFClk.c ****             else
3190:Generated_Source\PSoC4/CyLFClk.c ****             {
3191:Generated_Source\PSoC4/CyLFClk.c ****                 CYASSERT(0u != 0u);
 2121              		.loc 1 3191 0 discriminator 1
 2122 0054 0020     		movs	r0, #0
 2123 0056 FFF7FEFF 		bl	CyHalt
 2124              	.LVL213:
 2125              	.L172:
3192:Generated_Source\PSoC4/CyLFClk.c ****             }
3193:Generated_Source\PSoC4/CyLFClk.c **** 
3194:Generated_Source\PSoC4/CyLFClk.c ****         #endif /* (CY_IP_SRSSV2) */  
3195:Generated_Source\PSoC4/CyLFClk.c **** 
3196:Generated_Source\PSoC4/CyLFClk.c ****         #if(CY_IP_WCO_WDT_EN && CY_IP_SRSSLT)
3197:Generated_Source\PSoC4/CyLFClk.c ****         if((counterNum < CY_SYS_TIMER2) && (0uL == CySysTimerGetClearOnMatch(counterNum)) &&
3198:Generated_Source\PSoC4/CyLFClk.c ****                                                         (match <= CY_SYS_UINT16_MAX_VAL))
3199:Generated_Source\PSoC4/CyLFClk.c ****         {
3200:Generated_Source\PSoC4/CyLFClk.c ****             if(delayType == CY_SYS_TIMER_WAIT)
3201:Generated_Source\PSoC4/CyLFClk.c ****             {
3202:Generated_Source\PSoC4/CyLFClk.c ****                 do
3203:Generated_Source\PSoC4/CyLFClk.c ****                 {
3204:Generated_Source\PSoC4/CyLFClk.c ****                     tmpValue = CySysTimerGetCount(counterNum);
3205:Generated_Source\PSoC4/CyLFClk.c ****                 }while(tmpValue > match);
3206:Generated_Source\PSoC4/CyLFClk.c **** 
3207:Generated_Source\PSoC4/CyLFClk.c ****                 do
3208:Generated_Source\PSoC4/CyLFClk.c ****                 {
3209:Generated_Source\PSoC4/CyLFClk.c ****                     tmpValue = CySysTimerGetCount(counterNum);
3210:Generated_Source\PSoC4/CyLFClk.c ****                 }while(tmpValue < match);
3211:Generated_Source\PSoC4/CyLFClk.c ****             }
3212:Generated_Source\PSoC4/CyLFClk.c ****             else
3213:Generated_Source\PSoC4/CyLFClk.c ****             {
3214:Generated_Source\PSoC4/CyLFClk.c ****                 tmpValue = counterTimerIntMaskTbl[counterNum];
3215:Generated_Source\PSoC4/CyLFClk.c ****                 CySysTimerSetMatch(counterNum, match);
3216:Generated_Source\PSoC4/CyLFClk.c **** 
3217:Generated_Source\PSoC4/CyLFClk.c ****                 disableTimerServicedIsr  |= tmpValue;
3218:Generated_Source\PSoC4/CyLFClk.c ****                 timerIsrMask |= tmpValue;
3219:Generated_Source\PSoC4/CyLFClk.c ****             }
3220:Generated_Source\PSoC4/CyLFClk.c ****         }
ARM GAS  C:\Users\VIDEOH~1\AppData\Local\Temp\cc9HpMPY.s 			page 99


3221:Generated_Source\PSoC4/CyLFClk.c ****         else
3222:Generated_Source\PSoC4/CyLFClk.c ****         {
3223:Generated_Source\PSoC4/CyLFClk.c ****             CYASSERT(0u != 0u);
3224:Generated_Source\PSoC4/CyLFClk.c ****         }
3225:Generated_Source\PSoC4/CyLFClk.c ****         #endif /* (CY_IP_WCO_WDT_EN && CY_IP_SRSSLT) */
3226:Generated_Source\PSoC4/CyLFClk.c ****     }
 2126              		.loc 1 3226 0
 2127              		@ sp needed
 2128              	.LVL214:
 2129              	.LVL215:
 2130 005a 70BD     		pop	{r4, r5, r6, pc}
 2131              	.L179:
 2132              		.align	2
 2133              	.L178:
 2134 005c FFFF0000 		.word	65535
 2135 0060 00000000 		.word	.LANCHOR1
 2136 0064 00000000 		.word	.LANCHOR0
 2137 0068 00000000 		.word	.LANCHOR2
 2138              		.cfi_endproc
 2139              	.LFE35:
 2140              		.size	CySysTimerDelayUntilMatch, .-CySysTimerDelayUntilMatch
 2141              		.section	.text.CySysTimerDelay,"ax",%progbits
 2142              		.align	2
 2143              		.global	CySysTimerDelay
 2144              		.code	16
 2145              		.thumb_func
 2146              		.type	CySysTimerDelay, %function
 2147              	CySysTimerDelay:
 2148              	.LFB34:
3032:Generated_Source\PSoC4/CyLFClk.c ****         uint32 regValue;
 2149              		.loc 1 3032 0
 2150              		.cfi_startproc
 2151              		@ args = 0, pretend = 0, frame = 0
 2152              		@ frame_needed = 0, uses_anonymous_args = 0
 2153              	.LVL216:
 2154 0000 70B5     		push	{r4, r5, r6, lr}
 2155              		.cfi_def_cfa_offset 16
 2156              		.cfi_offset 4, -16
 2157              		.cfi_offset 5, -12
 2158              		.cfi_offset 6, -8
 2159              		.cfi_offset 14, -4
 2160 0002 0400     		movs	r4, r0
 2161 0004 0E00     		movs	r6, r1
 2162 0006 1500     		movs	r5, r2
3037:Generated_Source\PSoC4/CyLFClk.c ****                                                                 (delay <= CY_SYS_UINT16_MAX_VAL))
 2163              		.loc 1 3037 0
 2164 0008 0128     		cmp	r0, #1
 2165 000a 11D8     		bhi	.L181
3037:Generated_Source\PSoC4/CyLFClk.c ****                                                                 (delay <= CY_SYS_UINT16_MAX_VAL))
 2166              		.loc 1 3037 0 is_stmt 0 discriminator 1
 2167 000c FFF7FEFF 		bl	CySysWdtGetClearOnMatch
 2168              	.LVL217:
 2169 0010 0028     		cmp	r0, #0
 2170 0012 0DD1     		bne	.L181
3037:Generated_Source\PSoC4/CyLFClk.c ****                                                                 (delay <= CY_SYS_UINT16_MAX_VAL))
 2171              		.loc 1 3037 0 discriminator 2
 2172 0014 084B     		ldr	r3, .L183
ARM GAS  C:\Users\VIDEOH~1\AppData\Local\Temp\cc9HpMPY.s 			page 100


 2173 0016 9D42     		cmp	r5, r3
 2174 0018 0AD8     		bhi	.L181
3040:Generated_Source\PSoC4/CyLFClk.c ****                 matchValue = (regValue + delay) & (uint32)CY_SYS_UINT16_MAX_VAL;
 2175              		.loc 1 3040 0 is_stmt 1
 2176 001a 2000     		movs	r0, r4
 2177 001c FFF7FEFF 		bl	CySysWdtGetCount
 2178              	.LVL218:
3041:Generated_Source\PSoC4/CyLFClk.c **** 
 2179              		.loc 1 3041 0
 2180 0020 2A18     		adds	r2, r5, r0
 2181 0022 1204     		lsls	r2, r2, #16
 2182 0024 120C     		lsrs	r2, r2, #16
 2183              	.LVL219:
3043:Generated_Source\PSoC4/CyLFClk.c ****             }
 2184              		.loc 1 3043 0
 2185 0026 3100     		movs	r1, r6
 2186 0028 2000     		movs	r0, r4
 2187              	.LVL220:
 2188 002a FFF7FEFF 		bl	CySysTimerDelayUntilMatch
 2189              	.LVL221:
 2190 002e 02E0     		b	.L180
 2191              	.L181:
3047:Generated_Source\PSoC4/CyLFClk.c ****             }
 2192              		.loc 1 3047 0 discriminator 1
 2193 0030 0020     		movs	r0, #0
 2194 0032 FFF7FEFF 		bl	CyHalt
 2195              	.LVL222:
 2196              	.L180:
3065:Generated_Source\PSoC4/CyLFClk.c **** 
 2197              		.loc 1 3065 0
 2198              		@ sp needed
 2199              	.LVL223:
 2200              	.LVL224:
 2201 0036 70BD     		pop	{r4, r5, r6, pc}
 2202              	.L184:
 2203              		.align	2
 2204              	.L183:
 2205 0038 FFFF0000 		.word	65535
 2206              		.cfi_endproc
 2207              	.LFE34:
 2208              		.size	CySysTimerDelay, .-CySysTimerDelay
 2209              		.section	.rodata
 2210              		.align	2
 2211              		.set	.LANCHOR1,. + 0
 2212              		.type	counterIntMaskTbl, %object
 2213              		.size	counterIntMaskTbl, 12
 2214              	counterIntMaskTbl:
 2215 0000 04000000 		.word	4
 2216 0004 00040000 		.word	1024
 2217 0008 00000400 		.word	262144
 2218              		.data
 2219              		.align	2
 2220              		.set	.LANCHOR2,. + 0
 2221              		.type	wdtIsrMask, %object
 2222              		.size	wdtIsrMask, 4
 2223              	wdtIsrMask:
 2224 0000 04040400 		.word	263172
ARM GAS  C:\Users\VIDEOH~1\AppData\Local\Temp\cc9HpMPY.s 			page 101


 2225              		.bss
 2226              		.align	2
 2227              		.set	.LANCHOR0,. + 0
 2228              		.type	compensateRunningStatus.4832, %object
 2229              		.size	compensateRunningStatus.4832, 4
 2230              	compensateRunningStatus.4832:
 2231 0000 00000000 		.space	4
 2232              		.type	lfclkPosedgeWdtCounter0Enabled, %object
 2233              		.size	lfclkPosedgeWdtCounter0Enabled, 4
 2234              	lfclkPosedgeWdtCounter0Enabled:
 2235 0004 00000000 		.space	4
 2236              		.type	lfclkPosedgeWdtCounter0Mode, %object
 2237              		.size	lfclkPosedgeWdtCounter0Mode, 4
 2238              	lfclkPosedgeWdtCounter0Mode:
 2239 0008 00000000 		.space	4
 2240              		.type	lfclkPosedgeEnabledWdtCounter.4963, %object
 2241              		.size	lfclkPosedgeEnabledWdtCounter.4963, 4
 2242              	lfclkPosedgeEnabledWdtCounter.4963:
 2243 000c 00000000 		.space	4
 2244              		.type	cySysWdtCallback, %object
 2245              		.size	cySysWdtCallback, 12
 2246              	cySysWdtCallback:
 2247 0010 00000000 		.space	12
 2247      00000000 
 2247      00000000 
 2248              		.type	disableServicedIsr, %object
 2249              		.size	disableServicedIsr, 4
 2250              	disableServicedIsr:
 2251 001c 00000000 		.space	4
 2252              		.text
 2253              	.Letext0:
 2254              		.file 2 "Generated_Source\\PSoC4\\cytypes.h"
 2255              		.file 3 "Generated_Source\\PSoC4\\CyLFClk.h"
 2256              		.file 4 "Generated_Source\\PSoC4\\CyLib.h"
 2257              		.section	.debug_info,"",%progbits
 2258              	.Ldebug_info0:
 2259 0000 F30C0000 		.4byte	0xcf3
 2260 0004 0400     		.2byte	0x4
 2261 0006 00000000 		.4byte	.Ldebug_abbrev0
 2262 000a 04       		.byte	0x4
 2263 000b 01       		.uleb128 0x1
 2264 000c A9000000 		.4byte	.LASF97
 2265 0010 0C       		.byte	0xc
 2266 0011 ED050000 		.4byte	.LASF98
 2267 0015 C7020000 		.4byte	.LASF99
 2268 0019 00000000 		.4byte	.Ldebug_ranges0+0
 2269 001d 00000000 		.4byte	0
 2270 0021 00000000 		.4byte	.Ldebug_line0
 2271 0025 02       		.uleb128 0x2
 2272 0026 04       		.byte	0x4
 2273 0027 07       		.byte	0x7
 2274 0028 52030000 		.4byte	.LASF0
 2275 002c 02       		.uleb128 0x2
 2276 002d 01       		.byte	0x1
 2277 002e 06       		.byte	0x6
 2278 002f A2010000 		.4byte	.LASF1
 2279 0033 02       		.uleb128 0x2
ARM GAS  C:\Users\VIDEOH~1\AppData\Local\Temp\cc9HpMPY.s 			page 102


 2280 0034 01       		.byte	0x1
 2281 0035 08       		.byte	0x8
 2282 0036 51050000 		.4byte	.LASF2
 2283 003a 02       		.uleb128 0x2
 2284 003b 02       		.byte	0x2
 2285 003c 05       		.byte	0x5
 2286 003d 9B050000 		.4byte	.LASF3
 2287 0041 02       		.uleb128 0x2
 2288 0042 02       		.byte	0x2
 2289 0043 07       		.byte	0x7
 2290 0044 E4030000 		.4byte	.LASF4
 2291 0048 02       		.uleb128 0x2
 2292 0049 04       		.byte	0x4
 2293 004a 05       		.byte	0x5
 2294 004b FD010000 		.4byte	.LASF5
 2295 004f 02       		.uleb128 0x2
 2296 0050 04       		.byte	0x4
 2297 0051 07       		.byte	0x7
 2298 0052 83030000 		.4byte	.LASF6
 2299 0056 02       		.uleb128 0x2
 2300 0057 08       		.byte	0x8
 2301 0058 05       		.byte	0x5
 2302 0059 94010000 		.4byte	.LASF7
 2303 005d 02       		.uleb128 0x2
 2304 005e 08       		.byte	0x8
 2305 005f 07       		.byte	0x7
 2306 0060 7D010000 		.4byte	.LASF8
 2307 0064 03       		.uleb128 0x3
 2308 0065 04       		.byte	0x4
 2309 0066 05       		.byte	0x5
 2310 0067 696E7400 		.ascii	"int\000"
 2311 006b 04       		.uleb128 0x4
 2312 006c 0F020000 		.4byte	.LASF9
 2313 0070 02       		.byte	0x2
 2314 0071 E401     		.2byte	0x1e4
 2315 0073 33000000 		.4byte	0x33
 2316 0077 04       		.uleb128 0x4
 2317 0078 00000000 		.4byte	.LASF10
 2318 007c 02       		.byte	0x2
 2319 007d E501     		.2byte	0x1e5
 2320 007f 41000000 		.4byte	0x41
 2321 0083 04       		.uleb128 0x4
 2322 0084 67020000 		.4byte	.LASF11
 2323 0088 02       		.byte	0x2
 2324 0089 E601     		.2byte	0x1e6
 2325 008b 4F000000 		.4byte	0x4f
 2326 008f 02       		.uleb128 0x2
 2327 0090 04       		.byte	0x4
 2328 0091 04       		.byte	0x4
 2329 0092 0B050000 		.4byte	.LASF12
 2330 0096 02       		.uleb128 0x2
 2331 0097 08       		.byte	0x8
 2332 0098 04       		.byte	0x4
 2333 0099 1C020000 		.4byte	.LASF13
 2334 009d 02       		.uleb128 0x2
 2335 009e 01       		.byte	0x1
 2336 009f 08       		.byte	0x8
ARM GAS  C:\Users\VIDEOH~1\AppData\Local\Temp\cc9HpMPY.s 			page 103


 2337 00a0 28060000 		.4byte	.LASF14
 2338 00a4 04       		.uleb128 0x4
 2339 00a5 EA060000 		.4byte	.LASF15
 2340 00a9 02       		.byte	0x2
 2341 00aa 8602     		.2byte	0x286
 2342 00ac 4F000000 		.4byte	0x4f
 2343 00b0 04       		.uleb128 0x4
 2344 00b1 5F040000 		.4byte	.LASF16
 2345 00b5 02       		.byte	0x2
 2346 00b6 9002     		.2byte	0x290
 2347 00b8 BC000000 		.4byte	0xbc
 2348 00bc 05       		.uleb128 0x5
 2349 00bd 83000000 		.4byte	0x83
 2350 00c1 06       		.uleb128 0x6
 2351 00c2 04       		.byte	0x4
 2352 00c3 C7000000 		.4byte	0xc7
 2353 00c7 07       		.uleb128 0x7
 2354 00c8 08       		.uleb128 0x8
 2355 00c9 01       		.byte	0x1
 2356 00ca 33000000 		.4byte	0x33
 2357 00ce 03       		.byte	0x3
 2358 00cf 1A       		.byte	0x1a
 2359 00d0 E1000000 		.4byte	0xe1
 2360 00d4 09       		.uleb128 0x9
 2361 00d5 B2040000 		.4byte	.LASF17
 2362 00d9 00       		.byte	0
 2363 00da 09       		.uleb128 0x9
 2364 00db 1E070000 		.4byte	.LASF18
 2365 00df 01       		.byte	0x1
 2366 00e0 00       		.byte	0
 2367 00e1 0A       		.uleb128 0xa
 2368 00e2 DC010000 		.4byte	.LASF19
 2369 00e6 03       		.byte	0x3
 2370 00e7 1D       		.byte	0x1d
 2371 00e8 C8000000 		.4byte	0xc8
 2372 00ec 0A       		.uleb128 0xa
 2373 00ed C4010000 		.4byte	.LASF20
 2374 00f1 03       		.byte	0x3
 2375 00f2 58       		.byte	0x58
 2376 00f3 C1000000 		.4byte	0xc1
 2377 00f7 02       		.uleb128 0x2
 2378 00f8 04       		.byte	0x4
 2379 00f9 07       		.byte	0x7
 2380 00fa 92040000 		.4byte	.LASF21
 2381 00fe 0B       		.uleb128 0xb
 2382 00ff BF050000 		.4byte	.LASF22
 2383 0103 01       		.byte	0x1
 2384 0104 7201     		.2byte	0x172
 2385 0106 83000000 		.4byte	0x83
 2386 010a 00000000 		.4byte	.LFB5
 2387 010e 14000000 		.4byte	.LFE5-.LFB5
 2388 0112 01       		.uleb128 0x1
 2389 0113 9C       		.byte	0x9c
 2390 0114 0B       		.uleb128 0xb
 2391 0115 3B050000 		.4byte	.LASF23
 2392 0119 01       		.byte	0x1
 2393 011a C903     		.2byte	0x3c9
ARM GAS  C:\Users\VIDEOH~1\AppData\Local\Temp\cc9HpMPY.s 			page 104


 2394 011c 83000000 		.4byte	0x83
 2395 0120 00000000 		.4byte	.LFB7
 2396 0124 14000000 		.4byte	.LFE7-.LFB7
 2397 0128 01       		.uleb128 0x1
 2398 0129 9C       		.byte	0x9c
 2399 012a 0C       		.uleb128 0xc
 2400 012b 39040000 		.4byte	.LASF24
 2401 012f 01       		.byte	0x1
 2402 0130 53       		.byte	0x53
 2403 0131 00000000 		.4byte	.LFB0
 2404 0135 14000000 		.4byte	.LFE0-.LFB0
 2405 0139 01       		.uleb128 0x1
 2406 013a 9C       		.byte	0x9c
 2407 013b 0C       		.uleb128 0xc
 2408 013c 42010000 		.4byte	.LASF25
 2409 0140 01       		.byte	0x1
 2410 0141 A8       		.byte	0xa8
 2411 0142 00000000 		.4byte	.LFB2
 2412 0146 34000000 		.4byte	.LFE2-.LFB2
 2413 014a 01       		.uleb128 0x1
 2414 014b 9C       		.byte	0x9c
 2415 014c 0C       		.uleb128 0xc
 2416 014d 6E020000 		.4byte	.LASF26
 2417 0151 01       		.byte	0x1
 2418 0152 C9       		.byte	0xc9
 2419 0153 00000000 		.4byte	.LFB3
 2420 0157 14000000 		.4byte	.LFE3-.LFB3
 2421 015b 01       		.uleb128 0x1
 2422 015c 9C       		.byte	0x9c
 2423 015d 0D       		.uleb128 0xd
 2424 015e 08070000 		.4byte	.LASF37
 2425 0162 01       		.byte	0x1
 2426 0163 0B01     		.2byte	0x10b
 2427 0165 A4000000 		.4byte	0xa4
 2428 0169 00000000 		.4byte	.LFB4
 2429 016d 04010000 		.4byte	.LFE4-.LFB4
 2430 0171 01       		.uleb128 0x1
 2431 0172 9C       		.byte	0x9c
 2432 0173 EA010000 		.4byte	0x1ea
 2433 0177 0E       		.uleb128 0xe
 2434 0178 76030000 		.4byte	.LASF27
 2435 017c 01       		.byte	0x1
 2436 017d 0B01     		.2byte	0x10b
 2437 017f 83000000 		.4byte	0x83
 2438 0183 00000000 		.4byte	.LLST0
 2439 0187 0E       		.uleb128 0xe
 2440 0188 23020000 		.4byte	.LASF28
 2441 018c 01       		.byte	0x1
 2442 018d 0B01     		.2byte	0x10b
 2443 018f EA010000 		.4byte	0x1ea
 2444 0193 F5000000 		.4byte	.LLST1
 2445 0197 0F       		.uleb128 0xf
 2446 0198 45020000 		.4byte	.LASF29
 2447 019c 01       		.byte	0x1
 2448 019d 0D01     		.2byte	0x10d
 2449 019f 83000000 		.4byte	0x83
 2450 01a3 4D010000 		.4byte	.LLST2
ARM GAS  C:\Users\VIDEOH~1\AppData\Local\Temp\cc9HpMPY.s 			page 105


 2451 01a7 0F       		.uleb128 0xf
 2452 01a8 91060000 		.4byte	.LASF30
 2453 01ac 01       		.byte	0x1
 2454 01ad 0E01     		.2byte	0x10e
 2455 01af 83000000 		.4byte	0x83
 2456 01b3 77010000 		.4byte	.LLST3
 2457 01b7 10       		.uleb128 0x10
 2458 01b8 5F050000 		.4byte	.LASF31
 2459 01bc 01       		.byte	0x1
 2460 01bd 0F01     		.2byte	0x10f
 2461 01bf 83000000 		.4byte	0x83
 2462 01c3 05       		.uleb128 0x5
 2463 01c4 03       		.byte	0x3
 2464 01c5 00000000 		.4byte	compensateRunningStatus.4832
 2465 01c9 0F       		.uleb128 0xf
 2466 01ca C4040000 		.4byte	.LASF32
 2467 01ce 01       		.byte	0x1
 2468 01cf 1001     		.2byte	0x110
 2469 01d1 83000000 		.4byte	0x83
 2470 01d5 BF010000 		.4byte	.LLST4
 2471 01d9 0F       		.uleb128 0xf
 2472 01da 85040000 		.4byte	.LASF33
 2473 01de 01       		.byte	0x1
 2474 01df 1101     		.2byte	0x111
 2475 01e1 A4000000 		.4byte	0xa4
 2476 01e5 DD010000 		.4byte	.LLST5
 2477 01e9 00       		.byte	0
 2478 01ea 06       		.uleb128 0x6
 2479 01eb 04       		.byte	0x4
 2480 01ec 83000000 		.4byte	0x83
 2481 01f0 11       		.uleb128 0x11
 2482 01f1 B7010000 		.4byte	.LASF35
 2483 01f5 01       		.byte	0x1
 2484 01f6 B403     		.2byte	0x3b4
 2485 01f8 00000000 		.4byte	.LFB6
 2486 01fc 1C000000 		.4byte	.LFE6-.LFB6
 2487 0200 01       		.uleb128 0x1
 2488 0201 9C       		.byte	0x9c
 2489 0202 29020000 		.4byte	0x229
 2490 0206 0F       		.uleb128 0xf
 2491 0207 95030000 		.4byte	.LASF34
 2492 020b 01       		.byte	0x1
 2493 020c B603     		.2byte	0x3b6
 2494 020e 6B000000 		.4byte	0x6b
 2495 0212 08020000 		.4byte	.LLST6
 2496 0216 12       		.uleb128 0x12
 2497 0217 06000000 		.4byte	.LVL37
 2498 021b CA0C0000 		.4byte	0xcca
 2499 021f 12       		.uleb128 0x12
 2500 0220 16000000 		.4byte	.LVL38
 2501 0224 D50C0000 		.4byte	0xcd5
 2502 0228 00       		.byte	0
 2503 0229 11       		.uleb128 0x11
 2504 022a 50000000 		.4byte	.LASF36
 2505 022e 01       		.byte	0x1
 2506 022f D703     		.2byte	0x3d7
 2507 0231 00000000 		.4byte	.LFB8
ARM GAS  C:\Users\VIDEOH~1\AppData\Local\Temp\cc9HpMPY.s 			page 106


 2508 0235 30000000 		.4byte	.LFE8-.LFB8
 2509 0239 01       		.uleb128 0x1
 2510 023a 9C       		.byte	0x9c
 2511 023b 62020000 		.4byte	0x262
 2512 023f 0F       		.uleb128 0xf
 2513 0240 95030000 		.4byte	.LASF34
 2514 0244 01       		.byte	0x1
 2515 0245 D903     		.2byte	0x3d9
 2516 0247 6B000000 		.4byte	0x6b
 2517 024b 1B020000 		.4byte	.LLST7
 2518 024f 12       		.uleb128 0x12
 2519 0250 06000000 		.4byte	.LVL39
 2520 0254 CA0C0000 		.4byte	0xcca
 2521 0258 12       		.uleb128 0x12
 2522 0259 26000000 		.4byte	.LVL40
 2523 025d D50C0000 		.4byte	0xcd5
 2524 0261 00       		.byte	0
 2525 0262 13       		.uleb128 0x13
 2526 0263 F7030000 		.4byte	.LASF38
 2527 0267 01       		.byte	0x1
 2528 0268 F903     		.2byte	0x3f9
 2529 026a 83000000 		.4byte	0x83
 2530 026e 00000000 		.4byte	.LFB9
 2531 0272 24000000 		.4byte	.LFE9-.LFB9
 2532 0276 01       		.uleb128 0x1
 2533 0277 9C       		.byte	0x9c
 2534 0278 9C020000 		.4byte	0x29c
 2535 027c 0E       		.uleb128 0xe
 2536 027d 71000000 		.4byte	.LASF39
 2537 0281 01       		.byte	0x1
 2538 0282 F903     		.2byte	0x3f9
 2539 0284 83000000 		.4byte	0x83
 2540 0288 2E020000 		.4byte	.LLST8
 2541 028c 14       		.uleb128 0x14
 2542 028d 0E000000 		.4byte	.LVL43
 2543 0291 E00C0000 		.4byte	0xce0
 2544 0295 15       		.uleb128 0x15
 2545 0296 01       		.uleb128 0x1
 2546 0297 50       		.byte	0x50
 2547 0298 01       		.uleb128 0x1
 2548 0299 30       		.byte	0x30
 2549 029a 00       		.byte	0
 2550 029b 00       		.byte	0
 2551 029c 11       		.uleb128 0x11
 2552 029d 40000000 		.4byte	.LASF40
 2553 02a1 01       		.byte	0x1
 2554 02a2 1704     		.2byte	0x417
 2555 02a4 00000000 		.4byte	.LFB10
 2556 02a8 38000000 		.4byte	.LFE10-.LFB10
 2557 02ac 01       		.uleb128 0x1
 2558 02ad 9C       		.byte	0x9c
 2559 02ae 06030000 		.4byte	0x306
 2560 02b2 0E       		.uleb128 0xe
 2561 02b3 71000000 		.4byte	.LASF39
 2562 02b7 01       		.byte	0x1
 2563 02b8 1704     		.2byte	0x417
 2564 02ba 83000000 		.4byte	0x83
ARM GAS  C:\Users\VIDEOH~1\AppData\Local\Temp\cc9HpMPY.s 			page 107


 2565 02be 5A020000 		.4byte	.LLST9
 2566 02c2 0E       		.uleb128 0xe
 2567 02c3 2D060000 		.4byte	.LASF41
 2568 02c7 01       		.byte	0x1
 2569 02c8 1704     		.2byte	0x417
 2570 02ca 83000000 		.4byte	0x83
 2571 02ce 86020000 		.4byte	.LLST10
 2572 02d2 0F       		.uleb128 0xf
 2573 02d3 A6060000 		.4byte	.LASF42
 2574 02d7 01       		.byte	0x1
 2575 02d8 1904     		.2byte	0x419
 2576 02da 83000000 		.4byte	0x83
 2577 02de B2020000 		.4byte	.LLST11
 2578 02e2 16       		.uleb128 0x16
 2579 02e3 10000000 		.4byte	.LVL47
 2580 02e7 E00C0000 		.4byte	0xce0
 2581 02eb F5020000 		.4byte	0x2f5
 2582 02ef 15       		.uleb128 0x15
 2583 02f0 01       		.uleb128 0x1
 2584 02f1 50       		.byte	0x50
 2585 02f2 01       		.uleb128 0x1
 2586 02f3 30       		.byte	0x30
 2587 02f4 00       		.byte	0
 2588 02f5 14       		.uleb128 0x14
 2589 02f6 16000000 		.4byte	.LVL48
 2590 02fa 62020000 		.4byte	0x262
 2591 02fe 15       		.uleb128 0x15
 2592 02ff 01       		.uleb128 0x1
 2593 0300 50       		.byte	0x50
 2594 0301 02       		.uleb128 0x2
 2595 0302 74       		.byte	0x74
 2596 0303 00       		.sleb128 0
 2597 0304 00       		.byte	0
 2598 0305 00       		.byte	0
 2599 0306 17       		.uleb128 0x17
 2600 0307 AF030000 		.4byte	.LASF62
 2601 030b 01       		.byte	0x1
 2602 030c 6607     		.2byte	0x766
 2603 030e 00000000 		.4byte	.LFB33
 2604 0312 2C000000 		.4byte	.LFE33-.LFB33
 2605 0316 01       		.uleb128 0x1
 2606 0317 9C       		.byte	0x9c
 2607 0318 2C030000 		.4byte	0x32c
 2608 031c 14       		.uleb128 0x14
 2609 031d 1E000000 		.4byte	.LVL54
 2610 0321 9C020000 		.4byte	0x29c
 2611 0325 15       		.uleb128 0x15
 2612 0326 01       		.uleb128 0x1
 2613 0327 50       		.byte	0x50
 2614 0328 01       		.uleb128 0x1
 2615 0329 30       		.byte	0x30
 2616 032a 00       		.byte	0
 2617 032b 00       		.byte	0
 2618 032c 13       		.uleb128 0x13
 2619 032d 81060000 		.4byte	.LASF43
 2620 0331 01       		.byte	0x1
 2621 0332 3304     		.2byte	0x433
ARM GAS  C:\Users\VIDEOH~1\AppData\Local\Temp\cc9HpMPY.s 			page 108


 2622 0334 83000000 		.4byte	0x83
 2623 0338 00000000 		.4byte	.LFB11
 2624 033c 14000000 		.4byte	.LFE11-.LFB11
 2625 0340 01       		.uleb128 0x1
 2626 0341 9C       		.byte	0x9c
 2627 0342 57030000 		.4byte	0x357
 2628 0346 0E       		.uleb128 0xe
 2629 0347 71000000 		.4byte	.LASF39
 2630 034b 01       		.byte	0x1
 2631 034c 3304     		.2byte	0x433
 2632 034e 83000000 		.4byte	0x83
 2633 0352 D0020000 		.4byte	.LLST12
 2634 0356 00       		.byte	0
 2635 0357 11       		.uleb128 0x11
 2636 0358 56060000 		.4byte	.LASF44
 2637 035c 01       		.byte	0x1
 2638 035d 5004     		.2byte	0x450
 2639 035f 00000000 		.4byte	.LFB12
 2640 0363 34000000 		.4byte	.LFE12-.LFB12
 2641 0367 01       		.uleb128 0x1
 2642 0368 9C       		.byte	0x9c
 2643 0369 C1030000 		.4byte	0x3c1
 2644 036d 0E       		.uleb128 0xe
 2645 036e 71000000 		.4byte	.LASF39
 2646 0372 01       		.byte	0x1
 2647 0373 5004     		.2byte	0x450
 2648 0375 83000000 		.4byte	0x83
 2649 0379 FC020000 		.4byte	.LLST13
 2650 037d 0E       		.uleb128 0xe
 2651 037e 15020000 		.4byte	.LASF45
 2652 0382 01       		.byte	0x1
 2653 0383 5004     		.2byte	0x450
 2654 0385 83000000 		.4byte	0x83
 2655 0389 28030000 		.4byte	.LLST14
 2656 038d 0F       		.uleb128 0xf
 2657 038e A6060000 		.4byte	.LASF42
 2658 0392 01       		.byte	0x1
 2659 0393 5204     		.2byte	0x452
 2660 0395 83000000 		.4byte	0x83
 2661 0399 54030000 		.4byte	.LLST15
 2662 039d 16       		.uleb128 0x16
 2663 039e 10000000 		.4byte	.LVL60
 2664 03a2 E00C0000 		.4byte	0xce0
 2665 03a6 B0030000 		.4byte	0x3b0
 2666 03aa 15       		.uleb128 0x15
 2667 03ab 01       		.uleb128 0x1
 2668 03ac 50       		.byte	0x50
 2669 03ad 01       		.uleb128 0x1
 2670 03ae 30       		.byte	0x30
 2671 03af 00       		.byte	0
 2672 03b0 14       		.uleb128 0x14
 2673 03b1 16000000 		.4byte	.LVL61
 2674 03b5 62020000 		.4byte	0x262
 2675 03b9 15       		.uleb128 0x15
 2676 03ba 01       		.uleb128 0x1
 2677 03bb 50       		.byte	0x50
 2678 03bc 02       		.uleb128 0x2
ARM GAS  C:\Users\VIDEOH~1\AppData\Local\Temp\cc9HpMPY.s 			page 109


 2679 03bd 74       		.byte	0x74
 2680 03be 00       		.sleb128 0
 2681 03bf 00       		.byte	0
 2682 03c0 00       		.byte	0
 2683 03c1 13       		.uleb128 0x13
 2684 03c2 3A030000 		.4byte	.LASF46
 2685 03c6 01       		.byte	0x1
 2686 03c7 7104     		.2byte	0x471
 2687 03c9 83000000 		.4byte	0x83
 2688 03cd 00000000 		.4byte	.LFB13
 2689 03d1 24000000 		.4byte	.LFE13-.LFB13
 2690 03d5 01       		.uleb128 0x1
 2691 03d6 9C       		.byte	0x9c
 2692 03d7 FB030000 		.4byte	0x3fb
 2693 03db 0E       		.uleb128 0xe
 2694 03dc 71000000 		.4byte	.LASF39
 2695 03e0 01       		.byte	0x1
 2696 03e1 7104     		.2byte	0x471
 2697 03e3 83000000 		.4byte	0x83
 2698 03e7 72030000 		.4byte	.LLST16
 2699 03eb 14       		.uleb128 0x14
 2700 03ec 0E000000 		.4byte	.LVL69
 2701 03f0 E00C0000 		.4byte	0xce0
 2702 03f4 15       		.uleb128 0x15
 2703 03f5 01       		.uleb128 0x1
 2704 03f6 50       		.byte	0x50
 2705 03f7 01       		.uleb128 0x1
 2706 03f8 30       		.byte	0x30
 2707 03f9 00       		.byte	0
 2708 03fa 00       		.byte	0
 2709 03fb 11       		.uleb128 0x11
 2710 03fc 02030000 		.4byte	.LASF47
 2711 0400 01       		.byte	0x1
 2712 0401 9A04     		.2byte	0x49a
 2713 0403 00000000 		.4byte	.LFB14
 2714 0407 40000000 		.4byte	.LFE14-.LFB14
 2715 040b 01       		.uleb128 0x1
 2716 040c 9C       		.byte	0x9c
 2717 040d 60040000 		.4byte	0x460
 2718 0411 0E       		.uleb128 0xe
 2719 0412 2E030000 		.4byte	.LASF48
 2720 0416 01       		.byte	0x1
 2721 0417 9A04     		.2byte	0x49a
 2722 0419 83000000 		.4byte	0x83
 2723 041d 9E030000 		.4byte	.LLST17
 2724 0421 12       		.uleb128 0x12
 2725 0422 08000000 		.4byte	.LVL72
 2726 0426 2A010000 		.4byte	0x12a
 2727 042a 16       		.uleb128 0x16
 2728 042b 1A000000 		.4byte	.LVL73
 2729 042f 62020000 		.4byte	0x262
 2730 0433 3D040000 		.4byte	0x43d
 2731 0437 15       		.uleb128 0x15
 2732 0438 01       		.uleb128 0x1
 2733 0439 50       		.byte	0x50
 2734 043a 01       		.uleb128 0x1
 2735 043b 30       		.byte	0x30
ARM GAS  C:\Users\VIDEOH~1\AppData\Local\Temp\cc9HpMPY.s 			page 110


 2736 043c 00       		.byte	0
 2737 043d 16       		.uleb128 0x16
 2738 043e 28000000 		.4byte	.LVL74
 2739 0442 62020000 		.4byte	0x262
 2740 0446 50040000 		.4byte	0x450
 2741 044a 15       		.uleb128 0x15
 2742 044b 01       		.uleb128 0x1
 2743 044c 50       		.byte	0x50
 2744 044d 01       		.uleb128 0x1
 2745 044e 31       		.byte	0x31
 2746 044f 00       		.byte	0
 2747 0450 14       		.uleb128 0x14
 2748 0451 36000000 		.4byte	.LVL75
 2749 0455 62020000 		.4byte	0x262
 2750 0459 15       		.uleb128 0x15
 2751 045a 01       		.uleb128 0x1
 2752 045b 50       		.byte	0x50
 2753 045c 01       		.uleb128 0x1
 2754 045d 32       		.byte	0x32
 2755 045e 00       		.byte	0
 2756 045f 00       		.byte	0
 2757 0460 11       		.uleb128 0x11
 2758 0461 AF050000 		.4byte	.LASF49
 2759 0465 01       		.byte	0x1
 2760 0466 CA04     		.2byte	0x4ca
 2761 0468 00000000 		.4byte	.LFB15
 2762 046c 44000000 		.4byte	.LFE15-.LFB15
 2763 0470 01       		.uleb128 0x1
 2764 0471 9C       		.byte	0x9c
 2765 0472 C5040000 		.4byte	0x4c5
 2766 0476 0E       		.uleb128 0xe
 2767 0477 2E030000 		.4byte	.LASF48
 2768 047b 01       		.byte	0x1
 2769 047c CA04     		.2byte	0x4ca
 2770 047e 83000000 		.4byte	0x83
 2771 0482 CA030000 		.4byte	.LLST18
 2772 0486 12       		.uleb128 0x12
 2773 0487 08000000 		.4byte	.LVL78
 2774 048b 14010000 		.4byte	0x114
 2775 048f 16       		.uleb128 0x16
 2776 0490 1E000000 		.4byte	.LVL79
 2777 0494 62020000 		.4byte	0x262
 2778 0498 A2040000 		.4byte	0x4a2
 2779 049c 15       		.uleb128 0x15
 2780 049d 01       		.uleb128 0x1
 2781 049e 50       		.byte	0x50
 2782 049f 01       		.uleb128 0x1
 2783 04a0 30       		.byte	0x30
 2784 04a1 00       		.byte	0
 2785 04a2 16       		.uleb128 0x16
 2786 04a3 2C000000 		.4byte	.LVL80
 2787 04a7 62020000 		.4byte	0x262
 2788 04ab B5040000 		.4byte	0x4b5
 2789 04af 15       		.uleb128 0x15
 2790 04b0 01       		.uleb128 0x1
 2791 04b1 50       		.byte	0x50
 2792 04b2 01       		.uleb128 0x1
ARM GAS  C:\Users\VIDEOH~1\AppData\Local\Temp\cc9HpMPY.s 			page 111


 2793 04b3 31       		.byte	0x31
 2794 04b4 00       		.byte	0
 2795 04b5 14       		.uleb128 0x14
 2796 04b6 3A000000 		.4byte	.LVL81
 2797 04ba 62020000 		.4byte	0x262
 2798 04be 15       		.uleb128 0x15
 2799 04bf 01       		.uleb128 0x1
 2800 04c0 50       		.byte	0x50
 2801 04c1 01       		.uleb128 0x1
 2802 04c2 32       		.byte	0x32
 2803 04c3 00       		.byte	0
 2804 04c4 00       		.byte	0
 2805 04c5 11       		.uleb128 0x11
 2806 04c6 6E060000 		.4byte	.LASF50
 2807 04ca 01       		.byte	0x1
 2808 04cb 0505     		.2byte	0x505
 2809 04cd 00000000 		.4byte	.LFB16
 2810 04d1 34000000 		.4byte	.LFE16-.LFB16
 2811 04d5 01       		.uleb128 0x1
 2812 04d6 9C       		.byte	0x9c
 2813 04d7 3F050000 		.4byte	0x53f
 2814 04db 0E       		.uleb128 0xe
 2815 04dc DE060000 		.4byte	.LASF51
 2816 04e0 01       		.byte	0x1
 2817 04e1 0505     		.2byte	0x505
 2818 04e3 83000000 		.4byte	0x83
 2819 04e7 F6030000 		.4byte	.LLST19
 2820 04eb 0F       		.uleb128 0xf
 2821 04ec A6060000 		.4byte	.LASF42
 2822 04f0 01       		.byte	0x1
 2823 04f1 0705     		.2byte	0x507
 2824 04f3 83000000 		.4byte	0x83
 2825 04f7 22040000 		.4byte	.LLST20
 2826 04fb 10       		.uleb128 0x10
 2827 04fc A7020000 		.4byte	.LASF52
 2828 0500 01       		.byte	0x1
 2829 0501 0805     		.2byte	0x508
 2830 0503 83000000 		.4byte	0x83
 2831 0507 01       		.uleb128 0x1
 2832 0508 50       		.byte	0x50
 2833 0509 16       		.uleb128 0x16
 2834 050a 0A000000 		.4byte	.LVL85
 2835 050e 62020000 		.4byte	0x262
 2836 0512 1C050000 		.4byte	0x51c
 2837 0516 15       		.uleb128 0x15
 2838 0517 01       		.uleb128 0x1
 2839 0518 50       		.byte	0x50
 2840 0519 01       		.uleb128 0x1
 2841 051a 30       		.byte	0x30
 2842 051b 00       		.byte	0
 2843 051c 16       		.uleb128 0x16
 2844 051d 12000000 		.4byte	.LVL86
 2845 0521 62020000 		.4byte	0x262
 2846 0525 2F050000 		.4byte	0x52f
 2847 0529 15       		.uleb128 0x15
 2848 052a 01       		.uleb128 0x1
 2849 052b 50       		.byte	0x50
ARM GAS  C:\Users\VIDEOH~1\AppData\Local\Temp\cc9HpMPY.s 			page 112


 2850 052c 01       		.uleb128 0x1
 2851 052d 31       		.byte	0x31
 2852 052e 00       		.byte	0
 2853 052f 14       		.uleb128 0x14
 2854 0530 1A000000 		.4byte	.LVL87
 2855 0534 62020000 		.4byte	0x262
 2856 0538 15       		.uleb128 0x15
 2857 0539 01       		.uleb128 0x1
 2858 053a 50       		.byte	0x50
 2859 053b 01       		.uleb128 0x1
 2860 053c 32       		.byte	0x32
 2861 053d 00       		.byte	0
 2862 053e 00       		.byte	0
 2863 053f 18       		.uleb128 0x18
 2864 0540 96000000 		.4byte	.LASF58
 2865 0544 01       		.byte	0x1
 2866 0545 2405     		.2byte	0x524
 2867 0547 83000000 		.4byte	0x83
 2868 054b 00000000 		.4byte	.LFB17
 2869 054f 14000000 		.4byte	.LFE17-.LFB17
 2870 0553 01       		.uleb128 0x1
 2871 0554 9C       		.byte	0x9c
 2872 0555 11       		.uleb128 0x11
 2873 0556 96020000 		.4byte	.LASF53
 2874 055a 01       		.byte	0x1
 2875 055b 3805     		.2byte	0x538
 2876 055d 00000000 		.4byte	.LFB18
 2877 0561 38000000 		.4byte	.LFE18-.LFB18
 2878 0565 01       		.uleb128 0x1
 2879 0566 9C       		.byte	0x9c
 2880 0567 D3050000 		.4byte	0x5d3
 2881 056b 0E       		.uleb128 0xe
 2882 056c 71000000 		.4byte	.LASF39
 2883 0570 01       		.byte	0x1
 2884 0571 3805     		.2byte	0x538
 2885 0573 83000000 		.4byte	0x83
 2886 0577 4B040000 		.4byte	.LLST21
 2887 057b 0E       		.uleb128 0xe
 2888 057c AC040000 		.4byte	.LASF54
 2889 0580 01       		.byte	0x1
 2890 0581 3805     		.2byte	0x538
 2891 0583 83000000 		.4byte	0x83
 2892 0587 77040000 		.4byte	.LLST22
 2893 058b 0F       		.uleb128 0xf
 2894 058c 06020000 		.4byte	.LASF55
 2895 0590 01       		.byte	0x1
 2896 0591 3A05     		.2byte	0x53a
 2897 0593 83000000 		.4byte	0x83
 2898 0597 A3040000 		.4byte	.LLST23
 2899 059b 16       		.uleb128 0x16
 2900 059c 10000000 		.4byte	.LVL95
 2901 05a0 E00C0000 		.4byte	0xce0
 2902 05a4 AE050000 		.4byte	0x5ae
 2903 05a8 15       		.uleb128 0x15
 2904 05a9 01       		.uleb128 0x1
 2905 05aa 50       		.byte	0x50
 2906 05ab 01       		.uleb128 0x1
ARM GAS  C:\Users\VIDEOH~1\AppData\Local\Temp\cc9HpMPY.s 			page 113


 2907 05ac 30       		.byte	0x30
 2908 05ad 00       		.byte	0
 2909 05ae 16       		.uleb128 0x16
 2910 05af 16000000 		.4byte	.LVL96
 2911 05b3 EB0C0000 		.4byte	0xceb
 2912 05b7 C2050000 		.4byte	0x5c2
 2913 05bb 15       		.uleb128 0x15
 2914 05bc 01       		.uleb128 0x1
 2915 05bd 50       		.byte	0x50
 2916 05be 02       		.uleb128 0x2
 2917 05bf 08       		.byte	0x8
 2918 05c0 C9       		.byte	0xc9
 2919 05c1 00       		.byte	0
 2920 05c2 14       		.uleb128 0x14
 2921 05c3 2E000000 		.4byte	.LVL101
 2922 05c7 EB0C0000 		.4byte	0xceb
 2923 05cb 15       		.uleb128 0x15
 2924 05cc 01       		.uleb128 0x1
 2925 05cd 50       		.byte	0x50
 2926 05ce 02       		.uleb128 0x2
 2927 05cf 08       		.byte	0x8
 2928 05d0 43       		.byte	0x43
 2929 05d1 00       		.byte	0
 2930 05d2 00       		.byte	0
 2931 05d3 11       		.uleb128 0x11
 2932 05d4 4A040000 		.4byte	.LASF56
 2933 05d8 01       		.byte	0x1
 2934 05d9 5F05     		.2byte	0x55f
 2935 05db 00000000 		.4byte	.LFB19
 2936 05df 30000000 		.4byte	.LFE19-.LFB19
 2937 05e3 01       		.uleb128 0x1
 2938 05e4 9C       		.byte	0x9c
 2939 05e5 19060000 		.4byte	0x619
 2940 05e9 0E       		.uleb128 0xe
 2941 05ea F8010000 		.4byte	.LASF57
 2942 05ee 01       		.byte	0x1
 2943 05ef 5F05     		.2byte	0x55f
 2944 05f1 83000000 		.4byte	0x83
 2945 05f5 B6040000 		.4byte	.LLST24
 2946 05f9 0F       		.uleb128 0xf
 2947 05fa A6060000 		.4byte	.LASF42
 2948 05fe 01       		.byte	0x1
 2949 05ff 6105     		.2byte	0x561
 2950 0601 83000000 		.4byte	0x83
 2951 0605 E2040000 		.4byte	.LLST25
 2952 0609 14       		.uleb128 0x14
 2953 060a 0A000000 		.4byte	.LVL104
 2954 060e 62020000 		.4byte	0x262
 2955 0612 15       		.uleb128 0x15
 2956 0613 01       		.uleb128 0x1
 2957 0614 50       		.byte	0x50
 2958 0615 01       		.uleb128 0x1
 2959 0616 32       		.byte	0x32
 2960 0617 00       		.byte	0
 2961 0618 00       		.byte	0
 2962 0619 18       		.uleb128 0x18
 2963 061a F3060000 		.4byte	.LASF59
ARM GAS  C:\Users\VIDEOH~1\AppData\Local\Temp\cc9HpMPY.s 			page 114


 2964 061e 01       		.byte	0x1
 2965 061f 7605     		.2byte	0x576
 2966 0621 83000000 		.4byte	0x83
 2967 0625 00000000 		.4byte	.LFB20
 2968 0629 10000000 		.4byte	.LFE20-.LFB20
 2969 062d 01       		.uleb128 0x1
 2970 062e 9C       		.byte	0x9c
 2971 062f 13       		.uleb128 0x13
 2972 0630 9B040000 		.4byte	.LASF60
 2973 0634 01       		.byte	0x1
 2974 0635 8805     		.2byte	0x588
 2975 0637 83000000 		.4byte	0x83
 2976 063b 00000000 		.4byte	.LFB21
 2977 063f 20000000 		.4byte	.LFE21-.LFB21
 2978 0643 01       		.uleb128 0x1
 2979 0644 9C       		.byte	0x9c
 2980 0645 69060000 		.4byte	0x669
 2981 0649 0E       		.uleb128 0xe
 2982 064a 71000000 		.4byte	.LASF39
 2983 064e 01       		.byte	0x1
 2984 064f 8805     		.2byte	0x588
 2985 0651 83000000 		.4byte	0x83
 2986 0655 0B050000 		.4byte	.LLST26
 2987 0659 14       		.uleb128 0x14
 2988 065a 0E000000 		.4byte	.LVL112
 2989 065e E00C0000 		.4byte	0xce0
 2990 0662 15       		.uleb128 0x15
 2991 0663 01       		.uleb128 0x1
 2992 0664 50       		.byte	0x50
 2993 0665 01       		.uleb128 0x1
 2994 0666 30       		.byte	0x30
 2995 0667 00       		.byte	0
 2996 0668 00       		.byte	0
 2997 0669 13       		.uleb128 0x13
 2998 066a 32060000 		.4byte	.LASF61
 2999 066e 01       		.byte	0x1
 3000 066f 9E05     		.2byte	0x59e
 3001 0671 83000000 		.4byte	0x83
 3002 0675 00000000 		.4byte	.LFB22
 3003 0679 3C000000 		.4byte	.LFE22-.LFB22
 3004 067d 01       		.uleb128 0x1
 3005 067e 9C       		.byte	0x9c
 3006 067f B3060000 		.4byte	0x6b3
 3007 0683 0E       		.uleb128 0xe
 3008 0684 71000000 		.4byte	.LASF39
 3009 0688 01       		.byte	0x1
 3010 0689 9E05     		.2byte	0x59e
 3011 068b 83000000 		.4byte	0x83
 3012 068f 37050000 		.4byte	.LLST27
 3013 0693 0F       		.uleb128 0xf
 3014 0694 06020000 		.4byte	.LASF55
 3015 0698 01       		.byte	0x1
 3016 0699 A005     		.2byte	0x5a0
 3017 069b 83000000 		.4byte	0x83
 3018 069f A3050000 		.4byte	.LLST28
 3019 06a3 14       		.uleb128 0x14
 3020 06a4 2E000000 		.4byte	.LVL125
ARM GAS  C:\Users\VIDEOH~1\AppData\Local\Temp\cc9HpMPY.s 			page 115


 3021 06a8 E00C0000 		.4byte	0xce0
 3022 06ac 15       		.uleb128 0x15
 3023 06ad 01       		.uleb128 0x1
 3024 06ae 50       		.byte	0x50
 3025 06af 01       		.uleb128 0x1
 3026 06b0 30       		.byte	0x30
 3027 06b1 00       		.byte	0
 3028 06b2 00       		.byte	0
 3029 06b3 17       		.uleb128 0x17
 3030 06b4 7C000000 		.4byte	.LASF63
 3031 06b8 01       		.byte	0x1
 3032 06b9 3007     		.2byte	0x730
 3033 06bb 00000000 		.4byte	.LFB32
 3034 06bf 74000000 		.4byte	.LFE32-.LFB32
 3035 06c3 01       		.uleb128 0x1
 3036 06c4 9C       		.byte	0x9c
 3037 06c5 75070000 		.4byte	0x775
 3038 06c9 0F       		.uleb128 0xf
 3039 06ca 5F030000 		.4byte	.LASF64
 3040 06ce 01       		.byte	0x1
 3041 06cf 3207     		.2byte	0x732
 3042 06d1 83000000 		.4byte	0x83
 3043 06d5 07060000 		.4byte	.LLST29
 3044 06d9 10       		.uleb128 0x10
 3045 06da 77050000 		.4byte	.LASF65
 3046 06de 01       		.byte	0x1
 3047 06df 3307     		.2byte	0x733
 3048 06e1 83000000 		.4byte	0x83
 3049 06e5 05       		.uleb128 0x5
 3050 06e6 03       		.byte	0x3
 3051 06e7 0C000000 		.4byte	lfclkPosedgeEnabledWdtCounter.4963
 3052 06eb 16       		.uleb128 0x16
 3053 06ec 08000000 		.4byte	.LVL127
 3054 06f0 62020000 		.4byte	0x262
 3055 06f4 FE060000 		.4byte	0x6fe
 3056 06f8 15       		.uleb128 0x15
 3057 06f9 01       		.uleb128 0x1
 3058 06fa 50       		.byte	0x50
 3059 06fb 01       		.uleb128 0x1
 3060 06fc 30       		.byte	0x30
 3061 06fd 00       		.byte	0
 3062 06fe 16       		.uleb128 0x16
 3063 06ff 1A000000 		.4byte	.LVL128
 3064 0703 62020000 		.4byte	0x262
 3065 0707 11070000 		.4byte	0x711
 3066 070b 15       		.uleb128 0x15
 3067 070c 01       		.uleb128 0x1
 3068 070d 50       		.byte	0x50
 3069 070e 01       		.uleb128 0x1
 3070 070f 31       		.byte	0x31
 3071 0710 00       		.byte	0
 3072 0711 16       		.uleb128 0x16
 3073 0712 2C000000 		.4byte	.LVL129
 3074 0716 62020000 		.4byte	0x262
 3075 071a 24070000 		.4byte	0x724
 3076 071e 15       		.uleb128 0x15
 3077 071f 01       		.uleb128 0x1
ARM GAS  C:\Users\VIDEOH~1\AppData\Local\Temp\cc9HpMPY.s 			page 116


 3078 0720 50       		.byte	0x50
 3079 0721 01       		.uleb128 0x1
 3080 0722 32       		.byte	0x32
 3081 0723 00       		.byte	0
 3082 0724 16       		.uleb128 0x16
 3083 0725 48000000 		.4byte	.LVL130
 3084 0729 2C030000 		.4byte	0x32c
 3085 072d 37070000 		.4byte	0x737
 3086 0731 15       		.uleb128 0x15
 3087 0732 01       		.uleb128 0x1
 3088 0733 50       		.byte	0x50
 3089 0734 01       		.uleb128 0x1
 3090 0735 30       		.byte	0x30
 3091 0736 00       		.byte	0
 3092 0737 16       		.uleb128 0x16
 3093 0738 52000000 		.4byte	.LVL131
 3094 073c 9C020000 		.4byte	0x29c
 3095 0740 4F070000 		.4byte	0x74f
 3096 0744 15       		.uleb128 0x15
 3097 0745 01       		.uleb128 0x1
 3098 0746 50       		.byte	0x50
 3099 0747 01       		.uleb128 0x1
 3100 0748 30       		.byte	0x30
 3101 0749 15       		.uleb128 0x15
 3102 074a 01       		.uleb128 0x1
 3103 074b 51       		.byte	0x51
 3104 074c 01       		.uleb128 0x1
 3105 074d 30       		.byte	0x30
 3106 074e 00       		.byte	0
 3107 074f 16       		.uleb128 0x16
 3108 0750 58000000 		.4byte	.LVL132
 3109 0754 FB030000 		.4byte	0x3fb
 3110 0758 62070000 		.4byte	0x762
 3111 075c 15       		.uleb128 0x15
 3112 075d 01       		.uleb128 0x1
 3113 075e 50       		.byte	0x50
 3114 075f 01       		.uleb128 0x1
 3115 0760 31       		.byte	0x31
 3116 0761 00       		.byte	0
 3117 0762 12       		.uleb128 0x12
 3118 0763 60000000 		.4byte	.LVL133
 3119 0767 69060000 		.4byte	0x669
 3120 076b 12       		.uleb128 0x12
 3121 076c 6A000000 		.4byte	.LVL135
 3122 0770 69060000 		.4byte	0x669
 3123 0774 00       		.byte	0
 3124 0775 19       		.uleb128 0x19
 3125 0776 35020000 		.4byte	.LASF66
 3126 077a 01       		.byte	0x1
 3127 077b 6C       		.byte	0x6c
 3128 077c 00000000 		.4byte	.LFB1
 3129 0780 38000000 		.4byte	.LFE1-.LFB1
 3130 0784 01       		.uleb128 0x1
 3131 0785 9C       		.byte	0x9c
 3132 0786 D7070000 		.4byte	0x7d7
 3133 078a 1A       		.uleb128 0x1a
 3134 078b 95030000 		.4byte	.LASF34
ARM GAS  C:\Users\VIDEOH~1\AppData\Local\Temp\cc9HpMPY.s 			page 117


 3135 078f 01       		.byte	0x1
 3136 0790 6F       		.byte	0x6f
 3137 0791 6B000000 		.4byte	0x6b
 3138 0795 1A060000 		.4byte	.LLST30
 3139 0799 12       		.uleb128 0x12
 3140 079a 06000000 		.4byte	.LVL137
 3141 079e 14010000 		.4byte	0x114
 3142 07a2 12       		.uleb128 0x12
 3143 07a3 0E000000 		.4byte	.LVL138
 3144 07a7 FE000000 		.4byte	0xfe
 3145 07ab 12       		.uleb128 0x12
 3146 07ac 16000000 		.4byte	.LVL139
 3147 07b0 CA0C0000 		.4byte	0xcca
 3148 07b4 12       		.uleb128 0x12
 3149 07b5 1C000000 		.4byte	.LVL141
 3150 07b9 B3060000 		.4byte	0x6b3
 3151 07bd 12       		.uleb128 0x12
 3152 07be 2A000000 		.4byte	.LVL142
 3153 07c2 06030000 		.4byte	0x306
 3154 07c6 14       		.uleb128 0x14
 3155 07c7 30000000 		.4byte	.LVL143
 3156 07cb D50C0000 		.4byte	0xcd5
 3157 07cf 15       		.uleb128 0x15
 3158 07d0 01       		.uleb128 0x1
 3159 07d1 50       		.byte	0x50
 3160 07d2 02       		.uleb128 0x2
 3161 07d3 74       		.byte	0x74
 3162 07d4 00       		.sleb128 0
 3163 07d5 00       		.byte	0
 3164 07d6 00       		.byte	0
 3165 07d7 18       		.uleb128 0x18
 3166 07d8 D2050000 		.4byte	.LASF67
 3167 07dc 01       		.byte	0x1
 3168 07dd C905     		.2byte	0x5c9
 3169 07df 83000000 		.4byte	0x83
 3170 07e3 00000000 		.4byte	.LFB23
 3171 07e7 14000000 		.4byte	.LFE23-.LFB23
 3172 07eb 01       		.uleb128 0x1
 3173 07ec 9C       		.byte	0x9c
 3174 07ed 11       		.uleb128 0x11
 3175 07ee F4040000 		.4byte	.LASF68
 3176 07f2 01       		.byte	0x1
 3177 07f3 E605     		.2byte	0x5e6
 3178 07f5 00000000 		.4byte	.LFB24
 3179 07f9 4C000000 		.4byte	.LFE24-.LFB24
 3180 07fd 01       		.uleb128 0x1
 3181 07fe 9C       		.byte	0x9c
 3182 07ff 68080000 		.4byte	0x868
 3183 0803 0E       		.uleb128 0xe
 3184 0804 2E030000 		.4byte	.LASF48
 3185 0808 01       		.byte	0x1
 3186 0809 E605     		.2byte	0x5e6
 3187 080b 83000000 		.4byte	0x83
 3188 080f 2D060000 		.4byte	.LLST31
 3189 0813 0F       		.uleb128 0xf
 3190 0814 95030000 		.4byte	.LASF34
 3191 0818 01       		.byte	0x1
ARM GAS  C:\Users\VIDEOH~1\AppData\Local\Temp\cc9HpMPY.s 			page 118


 3192 0819 E805     		.2byte	0x5e8
 3193 081b 6B000000 		.4byte	0x6b
 3194 081f 6A060000 		.4byte	.LLST32
 3195 0823 0F       		.uleb128 0xf
 3196 0824 B5060000 		.4byte	.LASF69
 3197 0828 01       		.byte	0x1
 3198 0829 E905     		.2byte	0x5e9
 3199 082b 83000000 		.4byte	0x83
 3200 082f 7D060000 		.4byte	.LLST33
 3201 0833 12       		.uleb128 0x12
 3202 0834 08000000 		.4byte	.LVL145
 3203 0838 CA0C0000 		.4byte	0xcca
 3204 083c 12       		.uleb128 0x12
 3205 083d 0E000000 		.4byte	.LVL147
 3206 0841 14010000 		.4byte	0x114
 3207 0845 12       		.uleb128 0x12
 3208 0846 16000000 		.4byte	.LVL149
 3209 084a 29020000 		.4byte	0x229
 3210 084e 12       		.uleb128 0x12
 3211 084f 36000000 		.4byte	.LVL154
 3212 0853 F0010000 		.4byte	0x1f0
 3213 0857 14       		.uleb128 0x14
 3214 0858 3C000000 		.4byte	.LVL155
 3215 085c D50C0000 		.4byte	0xcd5
 3216 0860 15       		.uleb128 0x15
 3217 0861 01       		.uleb128 0x1
 3218 0862 50       		.byte	0x50
 3219 0863 02       		.uleb128 0x2
 3220 0864 74       		.byte	0x74
 3221 0865 00       		.sleb128 0
 3222 0866 00       		.byte	0
 3223 0867 00       		.byte	0
 3224 0868 11       		.uleb128 0x11
 3225 0869 DE040000 		.4byte	.LASF70
 3226 086d 01       		.byte	0x1
 3227 086e 2006     		.2byte	0x620
 3228 0870 00000000 		.4byte	.LFB25
 3229 0874 20000000 		.4byte	.LFE25-.LFB25
 3230 0878 01       		.uleb128 0x1
 3231 0879 9C       		.byte	0x9c
 3232 087a 8F080000 		.4byte	0x88f
 3233 087e 0E       		.uleb128 0xe
 3234 087f 5A020000 		.4byte	.LASF71
 3235 0883 01       		.byte	0x1
 3236 0884 2006     		.2byte	0x620
 3237 0886 83000000 		.4byte	0x83
 3238 088a 9C060000 		.4byte	.LLST34
 3239 088e 00       		.byte	0
 3240 088f 13       		.uleb128 0x13
 3241 0890 11030000 		.4byte	.LASF72
 3242 0894 01       		.byte	0x1
 3243 0895 3A06     		.2byte	0x63a
 3244 0897 EC000000 		.4byte	0xec
 3245 089b 00000000 		.4byte	.LFB26
 3246 089f 20000000 		.4byte	.LFE26-.LFB26
 3247 08a3 01       		.uleb128 0x1
 3248 08a4 9C       		.byte	0x9c
ARM GAS  C:\Users\VIDEOH~1\AppData\Local\Temp\cc9HpMPY.s 			page 119


 3249 08a5 E9080000 		.4byte	0x8e9
 3250 08a9 0E       		.uleb128 0xe
 3251 08aa 71000000 		.4byte	.LASF39
 3252 08ae 01       		.byte	0x1
 3253 08af 3A06     		.2byte	0x63a
 3254 08b1 83000000 		.4byte	0x83
 3255 08b5 BD060000 		.4byte	.LLST35
 3256 08b9 0E       		.uleb128 0xe
 3257 08ba AE010000 		.4byte	.LASF73
 3258 08be 01       		.byte	0x1
 3259 08bf 3A06     		.2byte	0x63a
 3260 08c1 EC000000 		.4byte	0xec
 3261 08c5 F7060000 		.4byte	.LLST36
 3262 08c9 0F       		.uleb128 0xf
 3263 08ca 89020000 		.4byte	.LASF74
 3264 08ce 01       		.byte	0x1
 3265 08cf 3C06     		.2byte	0x63c
 3266 08d1 EC000000 		.4byte	0xec
 3267 08d5 18070000 		.4byte	.LLST37
 3268 08d9 14       		.uleb128 0x14
 3269 08da 18000000 		.4byte	.LVL165
 3270 08de E00C0000 		.4byte	0xce0
 3271 08e2 15       		.uleb128 0x15
 3272 08e3 01       		.uleb128 0x1
 3273 08e4 50       		.byte	0x50
 3274 08e5 01       		.uleb128 0x1
 3275 08e6 30       		.byte	0x30
 3276 08e7 00       		.byte	0
 3277 08e8 00       		.byte	0
 3278 08e9 13       		.uleb128 0x13
 3279 08ea 10040000 		.4byte	.LASF75
 3280 08ee 01       		.byte	0x1
 3281 08ef 5806     		.2byte	0x658
 3282 08f1 EC000000 		.4byte	0xec
 3283 08f5 00000000 		.4byte	.LFB27
 3284 08f9 20000000 		.4byte	.LFE27-.LFB27
 3285 08fd 01       		.uleb128 0x1
 3286 08fe 9C       		.byte	0x9c
 3287 08ff 33090000 		.4byte	0x933
 3288 0903 0E       		.uleb128 0xe
 3289 0904 71000000 		.4byte	.LASF39
 3290 0908 01       		.byte	0x1
 3291 0909 5806     		.2byte	0x658
 3292 090b 83000000 		.4byte	0x83
 3293 090f 4E070000 		.4byte	.LLST38
 3294 0913 0F       		.uleb128 0xf
 3295 0914 6A030000 		.4byte	.LASF76
 3296 0918 01       		.byte	0x1
 3297 0919 5A06     		.2byte	0x65a
 3298 091b EC000000 		.4byte	0xec
 3299 091f 88070000 		.4byte	.LLST39
 3300 0923 14       		.uleb128 0x14
 3301 0924 16000000 		.4byte	.LVL173
 3302 0928 E00C0000 		.4byte	0xce0
 3303 092c 15       		.uleb128 0x15
 3304 092d 01       		.uleb128 0x1
 3305 092e 50       		.byte	0x50
ARM GAS  C:\Users\VIDEOH~1\AppData\Local\Temp\cc9HpMPY.s 			page 120


 3306 092f 01       		.uleb128 0x1
 3307 0930 30       		.byte	0x30
 3308 0931 00       		.byte	0
 3309 0932 00       		.byte	0
 3310 0933 11       		.uleb128 0x11
 3311 0934 CB030000 		.4byte	.LASF77
 3312 0938 01       		.byte	0x1
 3313 0939 7506     		.2byte	0x675
 3314 093b 00000000 		.4byte	.LFB28
 3315 093f 34000000 		.4byte	.LFE28-.LFB28
 3316 0943 01       		.uleb128 0x1
 3317 0944 9C       		.byte	0x9c
 3318 0945 69090000 		.4byte	0x969
 3319 0949 0E       		.uleb128 0xe
 3320 094a 71000000 		.4byte	.LASF39
 3321 094e 01       		.byte	0x1
 3322 094f 7506     		.2byte	0x675
 3323 0951 83000000 		.4byte	0x83
 3324 0955 BE070000 		.4byte	.LLST40
 3325 0959 14       		.uleb128 0x14
 3326 095a 24000000 		.4byte	.LVL179
 3327 095e E00C0000 		.4byte	0xce0
 3328 0962 15       		.uleb128 0x15
 3329 0963 01       		.uleb128 0x1
 3330 0964 50       		.byte	0x50
 3331 0965 01       		.uleb128 0x1
 3332 0966 30       		.byte	0x30
 3333 0967 00       		.byte	0
 3334 0968 00       		.byte	0
 3335 0969 11       		.uleb128 0x11
 3336 096a 0E060000 		.4byte	.LASF78
 3337 096e 01       		.byte	0x1
 3338 096f 8C06     		.2byte	0x68c
 3339 0971 00000000 		.4byte	.LFB29
 3340 0975 28000000 		.4byte	.LFE29-.LFB29
 3341 0979 01       		.uleb128 0x1
 3342 097a 9C       		.byte	0x9c
 3343 097b 9F090000 		.4byte	0x99f
 3344 097f 0E       		.uleb128 0xe
 3345 0980 71000000 		.4byte	.LASF39
 3346 0984 01       		.byte	0x1
 3347 0985 8C06     		.2byte	0x68c
 3348 0987 83000000 		.4byte	0x83
 3349 098b F8070000 		.4byte	.LLST41
 3350 098f 14       		.uleb128 0x14
 3351 0990 1C000000 		.4byte	.LVL184
 3352 0994 E00C0000 		.4byte	0xce0
 3353 0998 15       		.uleb128 0x15
 3354 0999 01       		.uleb128 0x1
 3355 099a 50       		.byte	0x50
 3356 099b 01       		.uleb128 0x1
 3357 099c 30       		.byte	0x30
 3358 099d 00       		.byte	0
 3359 099e 00       		.byte	0
 3360 099f 1B       		.uleb128 0x1b
 3361 09a0 2D040000 		.4byte	.LASF79
 3362 09a4 01       		.byte	0x1
ARM GAS  C:\Users\VIDEOH~1\AppData\Local\Temp\cc9HpMPY.s 			page 121


 3363 09a5 AD06     		.2byte	0x6ad
 3364 09a7 00000000 		.4byte	.LFB30
 3365 09ab A4000000 		.4byte	.LFE30-.LFB30
 3366 09af 01       		.uleb128 0x1
 3367 09b0 9C       		.byte	0x9c
 3368 09b1 EF090000 		.4byte	0x9ef
 3369 09b5 16       		.uleb128 0x16
 3370 09b6 36000000 		.4byte	.LVL186
 3371 09ba ED070000 		.4byte	0x7ed
 3372 09be C8090000 		.4byte	0x9c8
 3373 09c2 15       		.uleb128 0x15
 3374 09c3 01       		.uleb128 0x1
 3375 09c4 50       		.byte	0x50
 3376 09c5 01       		.uleb128 0x1
 3377 09c6 34       		.byte	0x34
 3378 09c7 00       		.byte	0
 3379 09c8 16       		.uleb128 0x16
 3380 09c9 70000000 		.4byte	.LVL188
 3381 09cd ED070000 		.4byte	0x7ed
 3382 09d1 DD090000 		.4byte	0x9dd
 3383 09d5 15       		.uleb128 0x15
 3384 09d6 01       		.uleb128 0x1
 3385 09d7 50       		.byte	0x50
 3386 09d8 03       		.uleb128 0x3
 3387 09d9 0A       		.byte	0xa
 3388 09da 0004     		.2byte	0x400
 3389 09dc 00       		.byte	0
 3390 09dd 14       		.uleb128 0x14
 3391 09de 92000000 		.4byte	.LVL190
 3392 09e2 ED070000 		.4byte	0x7ed
 3393 09e6 15       		.uleb128 0x15
 3394 09e7 01       		.uleb128 0x1
 3395 09e8 50       		.byte	0x50
 3396 09e9 03       		.uleb128 0x3
 3397 09ea 40       		.byte	0x40
 3398 09eb 3E       		.byte	0x3e
 3399 09ec 24       		.byte	0x24
 3400 09ed 00       		.byte	0
 3401 09ee 00       		.byte	0
 3402 09ef 11       		.uleb128 0x11
 3403 09f0 5F000000 		.4byte	.LASF80
 3404 09f4 01       		.byte	0x1
 3405 09f5 EE06     		.2byte	0x6ee
 3406 09f7 00000000 		.4byte	.LFB31
 3407 09fb 60000000 		.4byte	.LFE31-.LFB31
 3408 09ff 01       		.uleb128 0x1
 3409 0a00 9C       		.byte	0x9c
 3410 0a01 BB0A0000 		.4byte	0xabb
 3411 0a05 0E       		.uleb128 0xe
 3412 0a06 71000000 		.4byte	.LASF39
 3413 0a0a 01       		.byte	0x1
 3414 0a0b EE06     		.2byte	0x6ee
 3415 0a0d 83000000 		.4byte	0x83
 3416 0a11 32080000 		.4byte	.LLST42
 3417 0a15 16       		.uleb128 0x16
 3418 0a16 0A000000 		.4byte	.LVL192
 3419 0a1a 2C030000 		.4byte	0x32c
ARM GAS  C:\Users\VIDEOH~1\AppData\Local\Temp\cc9HpMPY.s 			page 122


 3420 0a1e 290A0000 		.4byte	0xa29
 3421 0a22 15       		.uleb128 0x15
 3422 0a23 01       		.uleb128 0x1
 3423 0a24 50       		.byte	0x50
 3424 0a25 02       		.uleb128 0x2
 3425 0a26 74       		.byte	0x74
 3426 0a27 00       		.sleb128 0
 3427 0a28 00       		.byte	0
 3428 0a29 12       		.uleb128 0x12
 3429 0a2a 14000000 		.4byte	.LVL193
 3430 0a2e ED070000 		.4byte	0x7ed
 3431 0a32 16       		.uleb128 0x16
 3432 0a33 1C000000 		.4byte	.LVL194
 3433 0a37 2C030000 		.4byte	0x32c
 3434 0a3b 460A0000 		.4byte	0xa46
 3435 0a3f 15       		.uleb128 0x15
 3436 0a40 01       		.uleb128 0x1
 3437 0a41 50       		.byte	0x50
 3438 0a42 02       		.uleb128 0x2
 3439 0a43 74       		.byte	0x74
 3440 0a44 00       		.sleb128 0
 3441 0a45 00       		.byte	0
 3442 0a46 12       		.uleb128 0x12
 3443 0a47 26000000 		.4byte	.LVL195
 3444 0a4b 68080000 		.4byte	0x868
 3445 0a4f 16       		.uleb128 0x16
 3446 0a50 2C000000 		.4byte	.LVL196
 3447 0a54 ED070000 		.4byte	0x7ed
 3448 0a58 620A0000 		.4byte	0xa62
 3449 0a5c 15       		.uleb128 0x15
 3450 0a5d 01       		.uleb128 0x1
 3451 0a5e 50       		.byte	0x50
 3452 0a5f 01       		.uleb128 0x1
 3453 0a60 34       		.byte	0x34
 3454 0a61 00       		.byte	0
 3455 0a62 12       		.uleb128 0x12
 3456 0a63 36000000 		.4byte	.LVL198
 3457 0a67 2C030000 		.4byte	0x32c
 3458 0a6b 16       		.uleb128 0x16
 3459 0a6c 42000000 		.4byte	.LVL199
 3460 0a70 ED070000 		.4byte	0x7ed
 3461 0a74 800A0000 		.4byte	0xa80
 3462 0a78 15       		.uleb128 0x15
 3463 0a79 01       		.uleb128 0x1
 3464 0a7a 50       		.byte	0x50
 3465 0a7b 03       		.uleb128 0x3
 3466 0a7c 0A       		.byte	0xa
 3467 0a7d 0004     		.2byte	0x400
 3468 0a7f 00       		.byte	0
 3469 0a80 16       		.uleb128 0x16
 3470 0a81 4A000000 		.4byte	.LVL200
 3471 0a85 2C030000 		.4byte	0x32c
 3472 0a89 940A0000 		.4byte	0xa94
 3473 0a8d 15       		.uleb128 0x15
 3474 0a8e 01       		.uleb128 0x1
 3475 0a8f 50       		.byte	0x50
 3476 0a90 02       		.uleb128 0x2
ARM GAS  C:\Users\VIDEOH~1\AppData\Local\Temp\cc9HpMPY.s 			page 123


 3477 0a91 74       		.byte	0x74
 3478 0a92 00       		.sleb128 0
 3479 0a93 00       		.byte	0
 3480 0a94 16       		.uleb128 0x16
 3481 0a95 56000000 		.4byte	.LVL201
 3482 0a99 68080000 		.4byte	0x868
 3483 0a9d A90A0000 		.4byte	0xaa9
 3484 0aa1 15       		.uleb128 0x15
 3485 0aa2 01       		.uleb128 0x1
 3486 0aa3 50       		.byte	0x50
 3487 0aa4 03       		.uleb128 0x3
 3488 0aa5 0A       		.byte	0xa
 3489 0aa6 0008     		.2byte	0x800
 3490 0aa8 00       		.byte	0
 3491 0aa9 14       		.uleb128 0x14
 3492 0aaa 5E000000 		.4byte	.LVL202
 3493 0aae ED070000 		.4byte	0x7ed
 3494 0ab2 15       		.uleb128 0x15
 3495 0ab3 01       		.uleb128 0x1
 3496 0ab4 50       		.byte	0x50
 3497 0ab5 03       		.uleb128 0x3
 3498 0ab6 0A       		.byte	0xa
 3499 0ab7 0004     		.2byte	0x400
 3500 0ab9 00       		.byte	0
 3501 0aba 00       		.byte	0
 3502 0abb 11       		.uleb128 0x11
 3503 0abc 11050000 		.4byte	.LASF81
 3504 0ac0 01       		.byte	0x1
 3505 0ac1 580C     		.2byte	0xc58
 3506 0ac3 00000000 		.4byte	.LFB35
 3507 0ac7 6C000000 		.4byte	.LFE35-.LFB35
 3508 0acb 01       		.uleb128 0x1
 3509 0acc 9C       		.byte	0x9c
 3510 0acd 770B0000 		.4byte	0xb77
 3511 0ad1 0E       		.uleb128 0xe
 3512 0ad2 71000000 		.4byte	.LASF39
 3513 0ad6 01       		.byte	0x1
 3514 0ad7 580C     		.2byte	0xc58
 3515 0ad9 83000000 		.4byte	0x83
 3516 0add 74080000 		.4byte	.LLST43
 3517 0ae1 0E       		.uleb128 0xe
 3518 0ae2 A5050000 		.4byte	.LASF82
 3519 0ae6 01       		.byte	0x1
 3520 0ae7 580C     		.2byte	0xc58
 3521 0ae9 E1000000 		.4byte	0xe1
 3522 0aed A0080000 		.4byte	.LLST44
 3523 0af1 0E       		.uleb128 0xe
 3524 0af2 AC040000 		.4byte	.LASF54
 3525 0af6 01       		.byte	0x1
 3526 0af7 580C     		.2byte	0xc58
 3527 0af9 83000000 		.4byte	0x83
 3528 0afd C1080000 		.4byte	.LLST45
 3529 0b01 0F       		.uleb128 0xf
 3530 0b02 7C040000 		.4byte	.LASF83
 3531 0b06 01       		.byte	0x1
 3532 0b07 5A0C     		.2byte	0xc5a
 3533 0b09 83000000 		.4byte	0x83
ARM GAS  C:\Users\VIDEOH~1\AppData\Local\Temp\cc9HpMPY.s 			page 124


 3534 0b0d ED080000 		.4byte	.LLST46
 3535 0b11 16       		.uleb128 0x16
 3536 0b12 10000000 		.4byte	.LVL205
 3537 0b16 C1030000 		.4byte	0x3c1
 3538 0b1a 250B0000 		.4byte	0xb25
 3539 0b1e 15       		.uleb128 0x15
 3540 0b1f 01       		.uleb128 0x1
 3541 0b20 50       		.byte	0x50
 3542 0b21 02       		.uleb128 0x2
 3543 0b22 74       		.byte	0x74
 3544 0b23 00       		.sleb128 0
 3545 0b24 00       		.byte	0
 3546 0b25 16       		.uleb128 0x16
 3547 0b26 24000000 		.4byte	.LVL206
 3548 0b2a 69060000 		.4byte	0x669
 3549 0b2e 390B0000 		.4byte	0xb39
 3550 0b32 15       		.uleb128 0x15
 3551 0b33 01       		.uleb128 0x1
 3552 0b34 50       		.byte	0x50
 3553 0b35 02       		.uleb128 0x2
 3554 0b36 74       		.byte	0x74
 3555 0b37 00       		.sleb128 0
 3556 0b38 00       		.byte	0
 3557 0b39 16       		.uleb128 0x16
 3558 0b3a 2E000000 		.4byte	.LVL208
 3559 0b3e 69060000 		.4byte	0x669
 3560 0b42 4D0B0000 		.4byte	0xb4d
 3561 0b46 15       		.uleb128 0x15
 3562 0b47 01       		.uleb128 0x1
 3563 0b48 50       		.byte	0x50
 3564 0b49 02       		.uleb128 0x2
 3565 0b4a 74       		.byte	0x74
 3566 0b4b 00       		.sleb128 0
 3567 0b4c 00       		.byte	0
 3568 0b4d 16       		.uleb128 0x16
 3569 0b4e 42000000 		.4byte	.LVL211
 3570 0b52 55050000 		.4byte	0x555
 3571 0b56 670B0000 		.4byte	0xb67
 3572 0b5a 15       		.uleb128 0x15
 3573 0b5b 01       		.uleb128 0x1
 3574 0b5c 50       		.byte	0x50
 3575 0b5d 02       		.uleb128 0x2
 3576 0b5e 74       		.byte	0x74
 3577 0b5f 00       		.sleb128 0
 3578 0b60 15       		.uleb128 0x15
 3579 0b61 01       		.uleb128 0x1
 3580 0b62 51       		.byte	0x51
 3581 0b63 02       		.uleb128 0x2
 3582 0b64 75       		.byte	0x75
 3583 0b65 00       		.sleb128 0
 3584 0b66 00       		.byte	0
 3585 0b67 14       		.uleb128 0x14
 3586 0b68 5A000000 		.4byte	.LVL213
 3587 0b6c E00C0000 		.4byte	0xce0
 3588 0b70 15       		.uleb128 0x15
 3589 0b71 01       		.uleb128 0x1
 3590 0b72 50       		.byte	0x50
ARM GAS  C:\Users\VIDEOH~1\AppData\Local\Temp\cc9HpMPY.s 			page 125


 3591 0b73 01       		.uleb128 0x1
 3592 0b74 30       		.byte	0x30
 3593 0b75 00       		.byte	0
 3594 0b76 00       		.byte	0
 3595 0b77 11       		.uleb128 0x11
 3596 0b78 2B050000 		.4byte	.LASF84
 3597 0b7c 01       		.byte	0x1
 3598 0b7d D70B     		.2byte	0xbd7
 3599 0b7f 00000000 		.4byte	.LFB34
 3600 0b83 3C000000 		.4byte	.LFE34-.LFB34
 3601 0b87 01       		.uleb128 0x1
 3602 0b88 9C       		.byte	0x9c
 3603 0b89 2F0C0000 		.4byte	0xc2f
 3604 0b8d 0E       		.uleb128 0xe
 3605 0b8e 71000000 		.4byte	.LASF39
 3606 0b92 01       		.byte	0x1
 3607 0b93 D70B     		.2byte	0xbd7
 3608 0b95 83000000 		.4byte	0x83
 3609 0b99 16090000 		.4byte	.LLST47
 3610 0b9d 0E       		.uleb128 0xe
 3611 0b9e A5050000 		.4byte	.LASF82
 3612 0ba2 01       		.byte	0x1
 3613 0ba3 D70B     		.2byte	0xbd7
 3614 0ba5 E1000000 		.4byte	0xe1
 3615 0ba9 42090000 		.4byte	.LLST48
 3616 0bad 0E       		.uleb128 0xe
 3617 0bae 95050000 		.4byte	.LASF85
 3618 0bb2 01       		.byte	0x1
 3619 0bb3 D70B     		.2byte	0xbd7
 3620 0bb5 83000000 		.4byte	0x83
 3621 0bb9 63090000 		.4byte	.LLST49
 3622 0bbd 0F       		.uleb128 0xf
 3623 0bbe 06020000 		.4byte	.LASF55
 3624 0bc2 01       		.byte	0x1
 3625 0bc3 D90B     		.2byte	0xbd9
 3626 0bc5 83000000 		.4byte	0x83
 3627 0bc9 8F090000 		.4byte	.LLST50
 3628 0bcd 0F       		.uleb128 0xf
 3629 0bce A4030000 		.4byte	.LASF86
 3630 0bd2 01       		.byte	0x1
 3631 0bd3 DA0B     		.2byte	0xbda
 3632 0bd5 83000000 		.4byte	0x83
 3633 0bd9 A2090000 		.4byte	.LLST51
 3634 0bdd 16       		.uleb128 0x16
 3635 0bde 10000000 		.4byte	.LVL217
 3636 0be2 C1030000 		.4byte	0x3c1
 3637 0be6 F10B0000 		.4byte	0xbf1
 3638 0bea 15       		.uleb128 0x15
 3639 0beb 01       		.uleb128 0x1
 3640 0bec 50       		.byte	0x50
 3641 0bed 02       		.uleb128 0x2
 3642 0bee 74       		.byte	0x74
 3643 0bef 00       		.sleb128 0
 3644 0bf0 00       		.byte	0
 3645 0bf1 16       		.uleb128 0x16
 3646 0bf2 20000000 		.4byte	.LVL218
 3647 0bf6 69060000 		.4byte	0x669
ARM GAS  C:\Users\VIDEOH~1\AppData\Local\Temp\cc9HpMPY.s 			page 126


 3648 0bfa 050C0000 		.4byte	0xc05
 3649 0bfe 15       		.uleb128 0x15
 3650 0bff 01       		.uleb128 0x1
 3651 0c00 50       		.byte	0x50
 3652 0c01 02       		.uleb128 0x2
 3653 0c02 74       		.byte	0x74
 3654 0c03 00       		.sleb128 0
 3655 0c04 00       		.byte	0
 3656 0c05 16       		.uleb128 0x16
 3657 0c06 2E000000 		.4byte	.LVL221
 3658 0c0a BB0A0000 		.4byte	0xabb
 3659 0c0e 1F0C0000 		.4byte	0xc1f
 3660 0c12 15       		.uleb128 0x15
 3661 0c13 01       		.uleb128 0x1
 3662 0c14 50       		.byte	0x50
 3663 0c15 02       		.uleb128 0x2
 3664 0c16 74       		.byte	0x74
 3665 0c17 00       		.sleb128 0
 3666 0c18 15       		.uleb128 0x15
 3667 0c19 01       		.uleb128 0x1
 3668 0c1a 51       		.byte	0x51
 3669 0c1b 02       		.uleb128 0x2
 3670 0c1c 76       		.byte	0x76
 3671 0c1d 00       		.sleb128 0
 3672 0c1e 00       		.byte	0
 3673 0c1f 14       		.uleb128 0x14
 3674 0c20 36000000 		.4byte	.LVL222
 3675 0c24 E00C0000 		.4byte	0xce0
 3676 0c28 15       		.uleb128 0x15
 3677 0c29 01       		.uleb128 0x1
 3678 0c2a 50       		.byte	0x50
 3679 0c2b 01       		.uleb128 0x1
 3680 0c2c 30       		.byte	0x30
 3681 0c2d 00       		.byte	0
 3682 0c2e 00       		.byte	0
 3683 0c2f 1C       		.uleb128 0x1c
 3684 0c30 5E010000 		.4byte	.LASF87
 3685 0c34 01       		.byte	0x1
 3686 0c35 22       		.byte	0x22
 3687 0c36 83000000 		.4byte	0x83
 3688 0c3a 05       		.uleb128 0x5
 3689 0c3b 03       		.byte	0x3
 3690 0c3c 04000000 		.4byte	lfclkPosedgeWdtCounter0Enabled
 3691 0c40 1C       		.uleb128 0x1c
 3692 0c41 C2060000 		.4byte	.LASF88
 3693 0c45 01       		.byte	0x1
 3694 0c46 23       		.byte	0x23
 3695 0c47 83000000 		.4byte	0x83
 3696 0c4b 05       		.uleb128 0x5
 3697 0c4c 03       		.byte	0x3
 3698 0c4d 08000000 		.4byte	lfclkPosedgeWdtCounter0Mode
 3699 0c51 1C       		.uleb128 0x1c
 3700 0c52 43060000 		.4byte	.LASF89
 3701 0c56 01       		.byte	0x1
 3702 0c57 25       		.byte	0x25
 3703 0c58 BC000000 		.4byte	0xbc
 3704 0c5c 05       		.uleb128 0x5
ARM GAS  C:\Users\VIDEOH~1\AppData\Local\Temp\cc9HpMPY.s 			page 127


 3705 0c5d 03       		.byte	0x3
 3706 0c5e 1C000000 		.4byte	disableServicedIsr
 3707 0c62 1C       		.uleb128 0x1c
 3708 0c63 BC020000 		.4byte	.LASF90
 3709 0c67 01       		.byte	0x1
 3710 0c68 26       		.byte	0x26
 3711 0c69 BC000000 		.4byte	0xbc
 3712 0c6d 05       		.uleb128 0x5
 3713 0c6e 03       		.byte	0x3
 3714 0c6f 00000000 		.4byte	wdtIsrMask
 3715 0c73 1D       		.uleb128 0x1d
 3716 0c74 830C0000 		.4byte	0xc83
 3717 0c78 830C0000 		.4byte	0xc83
 3718 0c7c 1E       		.uleb128 0x1e
 3719 0c7d F7000000 		.4byte	0xf7
 3720 0c81 02       		.byte	0x2
 3721 0c82 00       		.byte	0
 3722 0c83 1F       		.uleb128 0x1f
 3723 0c84 83000000 		.4byte	0x83
 3724 0c88 1C       		.uleb128 0x1c
 3725 0c89 1D000000 		.4byte	.LASF91
 3726 0c8d 01       		.byte	0x1
 3727 0c8e 2A       		.byte	0x2a
 3728 0c8f 990C0000 		.4byte	0xc99
 3729 0c93 05       		.uleb128 0x5
 3730 0c94 03       		.byte	0x3
 3731 0c95 00000000 		.4byte	counterIntMaskTbl
 3732 0c99 1F       		.uleb128 0x1f
 3733 0c9a 730C0000 		.4byte	0xc73
 3734 0c9e 1D       		.uleb128 0x1d
 3735 0c9f EC000000 		.4byte	0xec
 3736 0ca3 AE0C0000 		.4byte	0xcae
 3737 0ca7 1E       		.uleb128 0x1e
 3738 0ca8 F7000000 		.4byte	0xf7
 3739 0cac 02       		.byte	0x2
 3740 0cad 00       		.byte	0
 3741 0cae 1C       		.uleb128 0x1c
 3742 0caf 2F000000 		.4byte	.LASF92
 3743 0cb3 01       		.byte	0x1
 3744 0cb4 44       		.byte	0x44
 3745 0cb5 9E0C0000 		.4byte	0xc9e
 3746 0cb9 05       		.uleb128 0x5
 3747 0cba 03       		.byte	0x3
 3748 0cbb 10000000 		.4byte	cySysWdtCallback
 3749 0cbf 20       		.uleb128 0x20
 3750 0cc0 D0040000 		.4byte	.LASF100
 3751 0cc4 04       		.byte	0x4
 3752 0cc5 D4       		.byte	0xd4
 3753 0cc6 83000000 		.4byte	0x83
 3754 0cca 21       		.uleb128 0x21
 3755 0ccb 65040000 		.4byte	.LASF93
 3756 0ccf 65040000 		.4byte	.LASF93
 3757 0cd3 04       		.byte	0x4
 3758 0cd4 E5       		.byte	0xe5
 3759 0cd5 21       		.uleb128 0x21
 3760 0cd6 07000000 		.4byte	.LASF94
 3761 0cda 07000000 		.4byte	.LASF94
ARM GAS  C:\Users\VIDEOH~1\AppData\Local\Temp\cc9HpMPY.s 			page 128


 3762 0cde 04       		.byte	0x4
 3763 0cdf E6       		.byte	0xe6
 3764 0ce0 21       		.uleb128 0x21
 3765 0ce1 4A050000 		.4byte	.LASF95
 3766 0ce5 4A050000 		.4byte	.LASF95
 3767 0ce9 04       		.byte	0x4
 3768 0cea E7       		.byte	0xe7
 3769 0ceb 21       		.uleb128 0x21
 3770 0cec D2010000 		.4byte	.LASF96
 3771 0cf0 D2010000 		.4byte	.LASF96
 3772 0cf4 04       		.byte	0x4
 3773 0cf5 DA       		.byte	0xda
 3774 0cf6 00       		.byte	0
 3775              		.section	.debug_abbrev,"",%progbits
 3776              	.Ldebug_abbrev0:
 3777 0000 01       		.uleb128 0x1
 3778 0001 11       		.uleb128 0x11
 3779 0002 01       		.byte	0x1
 3780 0003 25       		.uleb128 0x25
 3781 0004 0E       		.uleb128 0xe
 3782 0005 13       		.uleb128 0x13
 3783 0006 0B       		.uleb128 0xb
 3784 0007 03       		.uleb128 0x3
 3785 0008 0E       		.uleb128 0xe
 3786 0009 1B       		.uleb128 0x1b
 3787 000a 0E       		.uleb128 0xe
 3788 000b 55       		.uleb128 0x55
 3789 000c 17       		.uleb128 0x17
 3790 000d 11       		.uleb128 0x11
 3791 000e 01       		.uleb128 0x1
 3792 000f 10       		.uleb128 0x10
 3793 0010 17       		.uleb128 0x17
 3794 0011 00       		.byte	0
 3795 0012 00       		.byte	0
 3796 0013 02       		.uleb128 0x2
 3797 0014 24       		.uleb128 0x24
 3798 0015 00       		.byte	0
 3799 0016 0B       		.uleb128 0xb
 3800 0017 0B       		.uleb128 0xb
 3801 0018 3E       		.uleb128 0x3e
 3802 0019 0B       		.uleb128 0xb
 3803 001a 03       		.uleb128 0x3
 3804 001b 0E       		.uleb128 0xe
 3805 001c 00       		.byte	0
 3806 001d 00       		.byte	0
 3807 001e 03       		.uleb128 0x3
 3808 001f 24       		.uleb128 0x24
 3809 0020 00       		.byte	0
 3810 0021 0B       		.uleb128 0xb
 3811 0022 0B       		.uleb128 0xb
 3812 0023 3E       		.uleb128 0x3e
 3813 0024 0B       		.uleb128 0xb
 3814 0025 03       		.uleb128 0x3
 3815 0026 08       		.uleb128 0x8
 3816 0027 00       		.byte	0
 3817 0028 00       		.byte	0
 3818 0029 04       		.uleb128 0x4
ARM GAS  C:\Users\VIDEOH~1\AppData\Local\Temp\cc9HpMPY.s 			page 129


 3819 002a 16       		.uleb128 0x16
 3820 002b 00       		.byte	0
 3821 002c 03       		.uleb128 0x3
 3822 002d 0E       		.uleb128 0xe
 3823 002e 3A       		.uleb128 0x3a
 3824 002f 0B       		.uleb128 0xb
 3825 0030 3B       		.uleb128 0x3b
 3826 0031 05       		.uleb128 0x5
 3827 0032 49       		.uleb128 0x49
 3828 0033 13       		.uleb128 0x13
 3829 0034 00       		.byte	0
 3830 0035 00       		.byte	0
 3831 0036 05       		.uleb128 0x5
 3832 0037 35       		.uleb128 0x35
 3833 0038 00       		.byte	0
 3834 0039 49       		.uleb128 0x49
 3835 003a 13       		.uleb128 0x13
 3836 003b 00       		.byte	0
 3837 003c 00       		.byte	0
 3838 003d 06       		.uleb128 0x6
 3839 003e 0F       		.uleb128 0xf
 3840 003f 00       		.byte	0
 3841 0040 0B       		.uleb128 0xb
 3842 0041 0B       		.uleb128 0xb
 3843 0042 49       		.uleb128 0x49
 3844 0043 13       		.uleb128 0x13
 3845 0044 00       		.byte	0
 3846 0045 00       		.byte	0
 3847 0046 07       		.uleb128 0x7
 3848 0047 15       		.uleb128 0x15
 3849 0048 00       		.byte	0
 3850 0049 27       		.uleb128 0x27
 3851 004a 19       		.uleb128 0x19
 3852 004b 00       		.byte	0
 3853 004c 00       		.byte	0
 3854 004d 08       		.uleb128 0x8
 3855 004e 04       		.uleb128 0x4
 3856 004f 01       		.byte	0x1
 3857 0050 0B       		.uleb128 0xb
 3858 0051 0B       		.uleb128 0xb
 3859 0052 49       		.uleb128 0x49
 3860 0053 13       		.uleb128 0x13
 3861 0054 3A       		.uleb128 0x3a
 3862 0055 0B       		.uleb128 0xb
 3863 0056 3B       		.uleb128 0x3b
 3864 0057 0B       		.uleb128 0xb
 3865 0058 01       		.uleb128 0x1
 3866 0059 13       		.uleb128 0x13
 3867 005a 00       		.byte	0
 3868 005b 00       		.byte	0
 3869 005c 09       		.uleb128 0x9
 3870 005d 28       		.uleb128 0x28
 3871 005e 00       		.byte	0
 3872 005f 03       		.uleb128 0x3
 3873 0060 0E       		.uleb128 0xe
 3874 0061 1C       		.uleb128 0x1c
 3875 0062 0B       		.uleb128 0xb
ARM GAS  C:\Users\VIDEOH~1\AppData\Local\Temp\cc9HpMPY.s 			page 130


 3876 0063 00       		.byte	0
 3877 0064 00       		.byte	0
 3878 0065 0A       		.uleb128 0xa
 3879 0066 16       		.uleb128 0x16
 3880 0067 00       		.byte	0
 3881 0068 03       		.uleb128 0x3
 3882 0069 0E       		.uleb128 0xe
 3883 006a 3A       		.uleb128 0x3a
 3884 006b 0B       		.uleb128 0xb
 3885 006c 3B       		.uleb128 0x3b
 3886 006d 0B       		.uleb128 0xb
 3887 006e 49       		.uleb128 0x49
 3888 006f 13       		.uleb128 0x13
 3889 0070 00       		.byte	0
 3890 0071 00       		.byte	0
 3891 0072 0B       		.uleb128 0xb
 3892 0073 2E       		.uleb128 0x2e
 3893 0074 00       		.byte	0
 3894 0075 03       		.uleb128 0x3
 3895 0076 0E       		.uleb128 0xe
 3896 0077 3A       		.uleb128 0x3a
 3897 0078 0B       		.uleb128 0xb
 3898 0079 3B       		.uleb128 0x3b
 3899 007a 05       		.uleb128 0x5
 3900 007b 27       		.uleb128 0x27
 3901 007c 19       		.uleb128 0x19
 3902 007d 49       		.uleb128 0x49
 3903 007e 13       		.uleb128 0x13
 3904 007f 11       		.uleb128 0x11
 3905 0080 01       		.uleb128 0x1
 3906 0081 12       		.uleb128 0x12
 3907 0082 06       		.uleb128 0x6
 3908 0083 40       		.uleb128 0x40
 3909 0084 18       		.uleb128 0x18
 3910 0085 9742     		.uleb128 0x2117
 3911 0087 19       		.uleb128 0x19
 3912 0088 00       		.byte	0
 3913 0089 00       		.byte	0
 3914 008a 0C       		.uleb128 0xc
 3915 008b 2E       		.uleb128 0x2e
 3916 008c 00       		.byte	0
 3917 008d 3F       		.uleb128 0x3f
 3918 008e 19       		.uleb128 0x19
 3919 008f 03       		.uleb128 0x3
 3920 0090 0E       		.uleb128 0xe
 3921 0091 3A       		.uleb128 0x3a
 3922 0092 0B       		.uleb128 0xb
 3923 0093 3B       		.uleb128 0x3b
 3924 0094 0B       		.uleb128 0xb
 3925 0095 27       		.uleb128 0x27
 3926 0096 19       		.uleb128 0x19
 3927 0097 11       		.uleb128 0x11
 3928 0098 01       		.uleb128 0x1
 3929 0099 12       		.uleb128 0x12
 3930 009a 06       		.uleb128 0x6
 3931 009b 40       		.uleb128 0x40
 3932 009c 18       		.uleb128 0x18
ARM GAS  C:\Users\VIDEOH~1\AppData\Local\Temp\cc9HpMPY.s 			page 131


 3933 009d 9742     		.uleb128 0x2117
 3934 009f 19       		.uleb128 0x19
 3935 00a0 00       		.byte	0
 3936 00a1 00       		.byte	0
 3937 00a2 0D       		.uleb128 0xd
 3938 00a3 2E       		.uleb128 0x2e
 3939 00a4 01       		.byte	0x1
 3940 00a5 3F       		.uleb128 0x3f
 3941 00a6 19       		.uleb128 0x19
 3942 00a7 03       		.uleb128 0x3
 3943 00a8 0E       		.uleb128 0xe
 3944 00a9 3A       		.uleb128 0x3a
 3945 00aa 0B       		.uleb128 0xb
 3946 00ab 3B       		.uleb128 0x3b
 3947 00ac 05       		.uleb128 0x5
 3948 00ad 27       		.uleb128 0x27
 3949 00ae 19       		.uleb128 0x19
 3950 00af 49       		.uleb128 0x49
 3951 00b0 13       		.uleb128 0x13
 3952 00b1 11       		.uleb128 0x11
 3953 00b2 01       		.uleb128 0x1
 3954 00b3 12       		.uleb128 0x12
 3955 00b4 06       		.uleb128 0x6
 3956 00b5 40       		.uleb128 0x40
 3957 00b6 18       		.uleb128 0x18
 3958 00b7 9642     		.uleb128 0x2116
 3959 00b9 19       		.uleb128 0x19
 3960 00ba 01       		.uleb128 0x1
 3961 00bb 13       		.uleb128 0x13
 3962 00bc 00       		.byte	0
 3963 00bd 00       		.byte	0
 3964 00be 0E       		.uleb128 0xe
 3965 00bf 05       		.uleb128 0x5
 3966 00c0 00       		.byte	0
 3967 00c1 03       		.uleb128 0x3
 3968 00c2 0E       		.uleb128 0xe
 3969 00c3 3A       		.uleb128 0x3a
 3970 00c4 0B       		.uleb128 0xb
 3971 00c5 3B       		.uleb128 0x3b
 3972 00c6 05       		.uleb128 0x5
 3973 00c7 49       		.uleb128 0x49
 3974 00c8 13       		.uleb128 0x13
 3975 00c9 02       		.uleb128 0x2
 3976 00ca 17       		.uleb128 0x17
 3977 00cb 00       		.byte	0
 3978 00cc 00       		.byte	0
 3979 00cd 0F       		.uleb128 0xf
 3980 00ce 34       		.uleb128 0x34
 3981 00cf 00       		.byte	0
 3982 00d0 03       		.uleb128 0x3
 3983 00d1 0E       		.uleb128 0xe
 3984 00d2 3A       		.uleb128 0x3a
 3985 00d3 0B       		.uleb128 0xb
 3986 00d4 3B       		.uleb128 0x3b
 3987 00d5 05       		.uleb128 0x5
 3988 00d6 49       		.uleb128 0x49
 3989 00d7 13       		.uleb128 0x13
ARM GAS  C:\Users\VIDEOH~1\AppData\Local\Temp\cc9HpMPY.s 			page 132


 3990 00d8 02       		.uleb128 0x2
 3991 00d9 17       		.uleb128 0x17
 3992 00da 00       		.byte	0
 3993 00db 00       		.byte	0
 3994 00dc 10       		.uleb128 0x10
 3995 00dd 34       		.uleb128 0x34
 3996 00de 00       		.byte	0
 3997 00df 03       		.uleb128 0x3
 3998 00e0 0E       		.uleb128 0xe
 3999 00e1 3A       		.uleb128 0x3a
 4000 00e2 0B       		.uleb128 0xb
 4001 00e3 3B       		.uleb128 0x3b
 4002 00e4 05       		.uleb128 0x5
 4003 00e5 49       		.uleb128 0x49
 4004 00e6 13       		.uleb128 0x13
 4005 00e7 02       		.uleb128 0x2
 4006 00e8 18       		.uleb128 0x18
 4007 00e9 00       		.byte	0
 4008 00ea 00       		.byte	0
 4009 00eb 11       		.uleb128 0x11
 4010 00ec 2E       		.uleb128 0x2e
 4011 00ed 01       		.byte	0x1
 4012 00ee 3F       		.uleb128 0x3f
 4013 00ef 19       		.uleb128 0x19
 4014 00f0 03       		.uleb128 0x3
 4015 00f1 0E       		.uleb128 0xe
 4016 00f2 3A       		.uleb128 0x3a
 4017 00f3 0B       		.uleb128 0xb
 4018 00f4 3B       		.uleb128 0x3b
 4019 00f5 05       		.uleb128 0x5
 4020 00f6 27       		.uleb128 0x27
 4021 00f7 19       		.uleb128 0x19
 4022 00f8 11       		.uleb128 0x11
 4023 00f9 01       		.uleb128 0x1
 4024 00fa 12       		.uleb128 0x12
 4025 00fb 06       		.uleb128 0x6
 4026 00fc 40       		.uleb128 0x40
 4027 00fd 18       		.uleb128 0x18
 4028 00fe 9742     		.uleb128 0x2117
 4029 0100 19       		.uleb128 0x19
 4030 0101 01       		.uleb128 0x1
 4031 0102 13       		.uleb128 0x13
 4032 0103 00       		.byte	0
 4033 0104 00       		.byte	0
 4034 0105 12       		.uleb128 0x12
 4035 0106 898201   		.uleb128 0x4109
 4036 0109 00       		.byte	0
 4037 010a 11       		.uleb128 0x11
 4038 010b 01       		.uleb128 0x1
 4039 010c 31       		.uleb128 0x31
 4040 010d 13       		.uleb128 0x13
 4041 010e 00       		.byte	0
 4042 010f 00       		.byte	0
 4043 0110 13       		.uleb128 0x13
 4044 0111 2E       		.uleb128 0x2e
 4045 0112 01       		.byte	0x1
 4046 0113 3F       		.uleb128 0x3f
ARM GAS  C:\Users\VIDEOH~1\AppData\Local\Temp\cc9HpMPY.s 			page 133


 4047 0114 19       		.uleb128 0x19
 4048 0115 03       		.uleb128 0x3
 4049 0116 0E       		.uleb128 0xe
 4050 0117 3A       		.uleb128 0x3a
 4051 0118 0B       		.uleb128 0xb
 4052 0119 3B       		.uleb128 0x3b
 4053 011a 05       		.uleb128 0x5
 4054 011b 27       		.uleb128 0x27
 4055 011c 19       		.uleb128 0x19
 4056 011d 49       		.uleb128 0x49
 4057 011e 13       		.uleb128 0x13
 4058 011f 11       		.uleb128 0x11
 4059 0120 01       		.uleb128 0x1
 4060 0121 12       		.uleb128 0x12
 4061 0122 06       		.uleb128 0x6
 4062 0123 40       		.uleb128 0x40
 4063 0124 18       		.uleb128 0x18
 4064 0125 9742     		.uleb128 0x2117
 4065 0127 19       		.uleb128 0x19
 4066 0128 01       		.uleb128 0x1
 4067 0129 13       		.uleb128 0x13
 4068 012a 00       		.byte	0
 4069 012b 00       		.byte	0
 4070 012c 14       		.uleb128 0x14
 4071 012d 898201   		.uleb128 0x4109
 4072 0130 01       		.byte	0x1
 4073 0131 11       		.uleb128 0x11
 4074 0132 01       		.uleb128 0x1
 4075 0133 31       		.uleb128 0x31
 4076 0134 13       		.uleb128 0x13
 4077 0135 00       		.byte	0
 4078 0136 00       		.byte	0
 4079 0137 15       		.uleb128 0x15
 4080 0138 8A8201   		.uleb128 0x410a
 4081 013b 00       		.byte	0
 4082 013c 02       		.uleb128 0x2
 4083 013d 18       		.uleb128 0x18
 4084 013e 9142     		.uleb128 0x2111
 4085 0140 18       		.uleb128 0x18
 4086 0141 00       		.byte	0
 4087 0142 00       		.byte	0
 4088 0143 16       		.uleb128 0x16
 4089 0144 898201   		.uleb128 0x4109
 4090 0147 01       		.byte	0x1
 4091 0148 11       		.uleb128 0x11
 4092 0149 01       		.uleb128 0x1
 4093 014a 31       		.uleb128 0x31
 4094 014b 13       		.uleb128 0x13
 4095 014c 01       		.uleb128 0x1
 4096 014d 13       		.uleb128 0x13
 4097 014e 00       		.byte	0
 4098 014f 00       		.byte	0
 4099 0150 17       		.uleb128 0x17
 4100 0151 2E       		.uleb128 0x2e
 4101 0152 01       		.byte	0x1
 4102 0153 03       		.uleb128 0x3
 4103 0154 0E       		.uleb128 0xe
ARM GAS  C:\Users\VIDEOH~1\AppData\Local\Temp\cc9HpMPY.s 			page 134


 4104 0155 3A       		.uleb128 0x3a
 4105 0156 0B       		.uleb128 0xb
 4106 0157 3B       		.uleb128 0x3b
 4107 0158 05       		.uleb128 0x5
 4108 0159 27       		.uleb128 0x27
 4109 015a 19       		.uleb128 0x19
 4110 015b 11       		.uleb128 0x11
 4111 015c 01       		.uleb128 0x1
 4112 015d 12       		.uleb128 0x12
 4113 015e 06       		.uleb128 0x6
 4114 015f 40       		.uleb128 0x40
 4115 0160 18       		.uleb128 0x18
 4116 0161 9742     		.uleb128 0x2117
 4117 0163 19       		.uleb128 0x19
 4118 0164 01       		.uleb128 0x1
 4119 0165 13       		.uleb128 0x13
 4120 0166 00       		.byte	0
 4121 0167 00       		.byte	0
 4122 0168 18       		.uleb128 0x18
 4123 0169 2E       		.uleb128 0x2e
 4124 016a 00       		.byte	0
 4125 016b 3F       		.uleb128 0x3f
 4126 016c 19       		.uleb128 0x19
 4127 016d 03       		.uleb128 0x3
 4128 016e 0E       		.uleb128 0xe
 4129 016f 3A       		.uleb128 0x3a
 4130 0170 0B       		.uleb128 0xb
 4131 0171 3B       		.uleb128 0x3b
 4132 0172 05       		.uleb128 0x5
 4133 0173 27       		.uleb128 0x27
 4134 0174 19       		.uleb128 0x19
 4135 0175 49       		.uleb128 0x49
 4136 0176 13       		.uleb128 0x13
 4137 0177 11       		.uleb128 0x11
 4138 0178 01       		.uleb128 0x1
 4139 0179 12       		.uleb128 0x12
 4140 017a 06       		.uleb128 0x6
 4141 017b 40       		.uleb128 0x40
 4142 017c 18       		.uleb128 0x18
 4143 017d 9742     		.uleb128 0x2117
 4144 017f 19       		.uleb128 0x19
 4145 0180 00       		.byte	0
 4146 0181 00       		.byte	0
 4147 0182 19       		.uleb128 0x19
 4148 0183 2E       		.uleb128 0x2e
 4149 0184 01       		.byte	0x1
 4150 0185 3F       		.uleb128 0x3f
 4151 0186 19       		.uleb128 0x19
 4152 0187 03       		.uleb128 0x3
 4153 0188 0E       		.uleb128 0xe
 4154 0189 3A       		.uleb128 0x3a
 4155 018a 0B       		.uleb128 0xb
 4156 018b 3B       		.uleb128 0x3b
 4157 018c 0B       		.uleb128 0xb
 4158 018d 27       		.uleb128 0x27
 4159 018e 19       		.uleb128 0x19
 4160 018f 11       		.uleb128 0x11
ARM GAS  C:\Users\VIDEOH~1\AppData\Local\Temp\cc9HpMPY.s 			page 135


 4161 0190 01       		.uleb128 0x1
 4162 0191 12       		.uleb128 0x12
 4163 0192 06       		.uleb128 0x6
 4164 0193 40       		.uleb128 0x40
 4165 0194 18       		.uleb128 0x18
 4166 0195 9742     		.uleb128 0x2117
 4167 0197 19       		.uleb128 0x19
 4168 0198 01       		.uleb128 0x1
 4169 0199 13       		.uleb128 0x13
 4170 019a 00       		.byte	0
 4171 019b 00       		.byte	0
 4172 019c 1A       		.uleb128 0x1a
 4173 019d 34       		.uleb128 0x34
 4174 019e 00       		.byte	0
 4175 019f 03       		.uleb128 0x3
 4176 01a0 0E       		.uleb128 0xe
 4177 01a1 3A       		.uleb128 0x3a
 4178 01a2 0B       		.uleb128 0xb
 4179 01a3 3B       		.uleb128 0x3b
 4180 01a4 0B       		.uleb128 0xb
 4181 01a5 49       		.uleb128 0x49
 4182 01a6 13       		.uleb128 0x13
 4183 01a7 02       		.uleb128 0x2
 4184 01a8 17       		.uleb128 0x17
 4185 01a9 00       		.byte	0
 4186 01aa 00       		.byte	0
 4187 01ab 1B       		.uleb128 0x1b
 4188 01ac 2E       		.uleb128 0x2e
 4189 01ad 01       		.byte	0x1
 4190 01ae 3F       		.uleb128 0x3f
 4191 01af 19       		.uleb128 0x19
 4192 01b0 03       		.uleb128 0x3
 4193 01b1 0E       		.uleb128 0xe
 4194 01b2 3A       		.uleb128 0x3a
 4195 01b3 0B       		.uleb128 0xb
 4196 01b4 3B       		.uleb128 0x3b
 4197 01b5 05       		.uleb128 0x5
 4198 01b6 27       		.uleb128 0x27
 4199 01b7 19       		.uleb128 0x19
 4200 01b8 11       		.uleb128 0x11
 4201 01b9 01       		.uleb128 0x1
 4202 01ba 12       		.uleb128 0x12
 4203 01bb 06       		.uleb128 0x6
 4204 01bc 40       		.uleb128 0x40
 4205 01bd 18       		.uleb128 0x18
 4206 01be 9642     		.uleb128 0x2116
 4207 01c0 19       		.uleb128 0x19
 4208 01c1 01       		.uleb128 0x1
 4209 01c2 13       		.uleb128 0x13
 4210 01c3 00       		.byte	0
 4211 01c4 00       		.byte	0
 4212 01c5 1C       		.uleb128 0x1c
 4213 01c6 34       		.uleb128 0x34
 4214 01c7 00       		.byte	0
 4215 01c8 03       		.uleb128 0x3
 4216 01c9 0E       		.uleb128 0xe
 4217 01ca 3A       		.uleb128 0x3a
ARM GAS  C:\Users\VIDEOH~1\AppData\Local\Temp\cc9HpMPY.s 			page 136


 4218 01cb 0B       		.uleb128 0xb
 4219 01cc 3B       		.uleb128 0x3b
 4220 01cd 0B       		.uleb128 0xb
 4221 01ce 49       		.uleb128 0x49
 4222 01cf 13       		.uleb128 0x13
 4223 01d0 02       		.uleb128 0x2
 4224 01d1 18       		.uleb128 0x18
 4225 01d2 00       		.byte	0
 4226 01d3 00       		.byte	0
 4227 01d4 1D       		.uleb128 0x1d
 4228 01d5 01       		.uleb128 0x1
 4229 01d6 01       		.byte	0x1
 4230 01d7 49       		.uleb128 0x49
 4231 01d8 13       		.uleb128 0x13
 4232 01d9 01       		.uleb128 0x1
 4233 01da 13       		.uleb128 0x13
 4234 01db 00       		.byte	0
 4235 01dc 00       		.byte	0
 4236 01dd 1E       		.uleb128 0x1e
 4237 01de 21       		.uleb128 0x21
 4238 01df 00       		.byte	0
 4239 01e0 49       		.uleb128 0x49
 4240 01e1 13       		.uleb128 0x13
 4241 01e2 2F       		.uleb128 0x2f
 4242 01e3 0B       		.uleb128 0xb
 4243 01e4 00       		.byte	0
 4244 01e5 00       		.byte	0
 4245 01e6 1F       		.uleb128 0x1f
 4246 01e7 26       		.uleb128 0x26
 4247 01e8 00       		.byte	0
 4248 01e9 49       		.uleb128 0x49
 4249 01ea 13       		.uleb128 0x13
 4250 01eb 00       		.byte	0
 4251 01ec 00       		.byte	0
 4252 01ed 20       		.uleb128 0x20
 4253 01ee 34       		.uleb128 0x34
 4254 01ef 00       		.byte	0
 4255 01f0 03       		.uleb128 0x3
 4256 01f1 0E       		.uleb128 0xe
 4257 01f2 3A       		.uleb128 0x3a
 4258 01f3 0B       		.uleb128 0xb
 4259 01f4 3B       		.uleb128 0x3b
 4260 01f5 0B       		.uleb128 0xb
 4261 01f6 49       		.uleb128 0x49
 4262 01f7 13       		.uleb128 0x13
 4263 01f8 3F       		.uleb128 0x3f
 4264 01f9 19       		.uleb128 0x19
 4265 01fa 3C       		.uleb128 0x3c
 4266 01fb 19       		.uleb128 0x19
 4267 01fc 00       		.byte	0
 4268 01fd 00       		.byte	0
 4269 01fe 21       		.uleb128 0x21
 4270 01ff 2E       		.uleb128 0x2e
 4271 0200 00       		.byte	0
 4272 0201 3F       		.uleb128 0x3f
 4273 0202 19       		.uleb128 0x19
 4274 0203 3C       		.uleb128 0x3c
ARM GAS  C:\Users\VIDEOH~1\AppData\Local\Temp\cc9HpMPY.s 			page 137


 4275 0204 19       		.uleb128 0x19
 4276 0205 6E       		.uleb128 0x6e
 4277 0206 0E       		.uleb128 0xe
 4278 0207 03       		.uleb128 0x3
 4279 0208 0E       		.uleb128 0xe
 4280 0209 3A       		.uleb128 0x3a
 4281 020a 0B       		.uleb128 0xb
 4282 020b 3B       		.uleb128 0x3b
 4283 020c 0B       		.uleb128 0xb
 4284 020d 00       		.byte	0
 4285 020e 00       		.byte	0
 4286 020f 00       		.byte	0
 4287              		.section	.debug_loc,"",%progbits
 4288              	.Ldebug_loc0:
 4289              	.LLST0:
 4290 0000 00000000 		.4byte	.LVL0
 4291 0004 50000000 		.4byte	.LVL4
 4292 0008 0100     		.2byte	0x1
 4293 000a 50       		.byte	0x50
 4294 000b 50000000 		.4byte	.LVL4
 4295 000f 6A000000 		.4byte	.LVL9
 4296 0013 0100     		.2byte	0x1
 4297 0015 54       		.byte	0x54
 4298 0016 6A000000 		.4byte	.LVL9
 4299 001a 6C000000 		.4byte	.LVL10
 4300 001e 0100     		.2byte	0x1
 4301 0020 50       		.byte	0x50
 4302 0021 6C000000 		.4byte	.LVL10
 4303 0025 7C000000 		.4byte	.LVL13
 4304 0029 0100     		.2byte	0x1
 4305 002b 54       		.byte	0x54
 4306 002c 7C000000 		.4byte	.LVL13
 4307 0030 A0000000 		.4byte	.LVL19
 4308 0034 0400     		.2byte	0x4
 4309 0036 F3       		.byte	0xf3
 4310 0037 01       		.uleb128 0x1
 4311 0038 50       		.byte	0x50
 4312 0039 9F       		.byte	0x9f
 4313 003a A0000000 		.4byte	.LVL19
 4314 003e B2000000 		.4byte	.LVL21
 4315 0042 0100     		.2byte	0x1
 4316 0044 50       		.byte	0x50
 4317 0045 B2000000 		.4byte	.LVL21
 4318 0049 B4000000 		.4byte	.LVL22
 4319 004d 0100     		.2byte	0x1
 4320 004f 54       		.byte	0x54
 4321 0050 B4000000 		.4byte	.LVL22
 4322 0054 B6000000 		.4byte	.LVL23
 4323 0058 0100     		.2byte	0x1
 4324 005a 50       		.byte	0x50
 4325 005b B6000000 		.4byte	.LVL23
 4326 005f B8000000 		.4byte	.LVL24
 4327 0063 0100     		.2byte	0x1
 4328 0065 54       		.byte	0x54
 4329 0066 B8000000 		.4byte	.LVL24
 4330 006a BA000000 		.4byte	.LVL25
 4331 006e 0100     		.2byte	0x1
ARM GAS  C:\Users\VIDEOH~1\AppData\Local\Temp\cc9HpMPY.s 			page 138


 4332 0070 50       		.byte	0x50
 4333 0071 BA000000 		.4byte	.LVL25
 4334 0075 BC000000 		.4byte	.LVL26
 4335 0079 0100     		.2byte	0x1
 4336 007b 54       		.byte	0x54
 4337 007c BC000000 		.4byte	.LVL26
 4338 0080 BE000000 		.4byte	.LVL27
 4339 0084 0100     		.2byte	0x1
 4340 0086 50       		.byte	0x50
 4341 0087 BE000000 		.4byte	.LVL27
 4342 008b C0000000 		.4byte	.LVL28
 4343 008f 0100     		.2byte	0x1
 4344 0091 54       		.byte	0x54
 4345 0092 C0000000 		.4byte	.LVL28
 4346 0096 C2000000 		.4byte	.LVL29
 4347 009a 0100     		.2byte	0x1
 4348 009c 50       		.byte	0x50
 4349 009d C2000000 		.4byte	.LVL29
 4350 00a1 C4000000 		.4byte	.LVL30
 4351 00a5 0100     		.2byte	0x1
 4352 00a7 54       		.byte	0x54
 4353 00a8 C4000000 		.4byte	.LVL30
 4354 00ac C6000000 		.4byte	.LVL31
 4355 00b0 0100     		.2byte	0x1
 4356 00b2 50       		.byte	0x50
 4357 00b3 C6000000 		.4byte	.LVL31
 4358 00b7 C8000000 		.4byte	.LVL32
 4359 00bb 0100     		.2byte	0x1
 4360 00bd 54       		.byte	0x54
 4361 00be C8000000 		.4byte	.LVL32
 4362 00c2 CA000000 		.4byte	.LVL33
 4363 00c6 0100     		.2byte	0x1
 4364 00c8 50       		.byte	0x50
 4365 00c9 CA000000 		.4byte	.LVL33
 4366 00cd CC000000 		.4byte	.LVL34
 4367 00d1 0100     		.2byte	0x1
 4368 00d3 54       		.byte	0x54
 4369 00d4 CC000000 		.4byte	.LVL34
 4370 00d8 CE000000 		.4byte	.LVL35
 4371 00dc 0100     		.2byte	0x1
 4372 00de 50       		.byte	0x50
 4373 00df CE000000 		.4byte	.LVL35
 4374 00e3 04010000 		.4byte	.LFE4
 4375 00e7 0400     		.2byte	0x4
 4376 00e9 F3       		.byte	0xf3
 4377 00ea 01       		.uleb128 0x1
 4378 00eb 50       		.byte	0x50
 4379 00ec 9F       		.byte	0x9f
 4380 00ed 00000000 		.4byte	0
 4381 00f1 00000000 		.4byte	0
 4382              	.LLST1:
 4383 00f5 00000000 		.4byte	.LVL0
 4384 00f9 54000000 		.4byte	.LVL5
 4385 00fd 0100     		.2byte	0x1
 4386 00ff 51       		.byte	0x51
 4387 0100 54000000 		.4byte	.LVL5
 4388 0104 6A000000 		.4byte	.LVL9
ARM GAS  C:\Users\VIDEOH~1\AppData\Local\Temp\cc9HpMPY.s 			page 139


 4389 0108 0100     		.2byte	0x1
 4390 010a 55       		.byte	0x55
 4391 010b 6A000000 		.4byte	.LVL9
 4392 010f 76000000 		.4byte	.LVL11
 4393 0113 0100     		.2byte	0x1
 4394 0115 51       		.byte	0x51
 4395 0116 76000000 		.4byte	.LVL11
 4396 011a A0000000 		.4byte	.LVL19
 4397 011e 0100     		.2byte	0x1
 4398 0120 55       		.byte	0x55
 4399 0121 A0000000 		.4byte	.LVL19
 4400 0125 CE000000 		.4byte	.LVL35
 4401 0129 0100     		.2byte	0x1
 4402 012b 51       		.byte	0x51
 4403 012c CE000000 		.4byte	.LVL35
 4404 0130 CE000000 		.4byte	.LVL36
 4405 0134 0100     		.2byte	0x1
 4406 0136 55       		.byte	0x55
 4407 0137 CE000000 		.4byte	.LVL36
 4408 013b 04010000 		.4byte	.LFE4
 4409 013f 0400     		.2byte	0x4
 4410 0141 F3       		.byte	0xf3
 4411 0142 01       		.uleb128 0x1
 4412 0143 51       		.byte	0x51
 4413 0144 9F       		.byte	0x9f
 4414 0145 00000000 		.4byte	0
 4415 0149 00000000 		.4byte	0
 4416              	.LLST2:
 4417 014d 68000000 		.4byte	.LVL8
 4418 0151 6A000000 		.4byte	.LVL9
 4419 0155 0100     		.2byte	0x1
 4420 0157 50       		.byte	0x50
 4421 0158 96000000 		.4byte	.LVL16
 4422 015c 9A000000 		.4byte	.LVL17
 4423 0160 0100     		.2byte	0x1
 4424 0162 50       		.byte	0x50
 4425 0163 9A000000 		.4byte	.LVL17
 4426 0167 A0000000 		.4byte	.LVL19
 4427 016b 0200     		.2byte	0x2
 4428 016d 75       		.byte	0x75
 4429 016e 00       		.sleb128 0
 4430 016f 00000000 		.4byte	0
 4431 0173 00000000 		.4byte	0
 4432              	.LLST3:
 4433 0177 4C000000 		.4byte	.LVL3
 4434 017b 50000000 		.4byte	.LVL4
 4435 017f 0B00     		.2byte	0xb
 4436 0181 70       		.byte	0x70
 4437 0182 00       		.sleb128 0
 4438 0183 F7       		.byte	0xf7
 4439 0184 25       		.uleb128 0x25
 4440 0185 4F       		.byte	0x4f
 4441 0186 F7       		.byte	0xf7
 4442 0187 25       		.uleb128 0x25
 4443 0188 1B       		.byte	0x1b
 4444 0189 F7       		.byte	0xf7
 4445 018a 00       		.uleb128 0
ARM GAS  C:\Users\VIDEOH~1\AppData\Local\Temp\cc9HpMPY.s 			page 140


 4446 018b 9F       		.byte	0x9f
 4447 018c 50000000 		.4byte	.LVL4
 4448 0190 6A000000 		.4byte	.LVL9
 4449 0194 0B00     		.2byte	0xb
 4450 0196 74       		.byte	0x74
 4451 0197 00       		.sleb128 0
 4452 0198 F7       		.byte	0xf7
 4453 0199 25       		.uleb128 0x25
 4454 019a 4F       		.byte	0x4f
 4455 019b F7       		.byte	0xf7
 4456 019c 25       		.uleb128 0x25
 4457 019d 1B       		.byte	0x1b
 4458 019e F7       		.byte	0xf7
 4459 019f 00       		.uleb128 0
 4460 01a0 9F       		.byte	0x9f
 4461 01a1 7C000000 		.4byte	.LVL13
 4462 01a5 80000000 		.4byte	.LVL14
 4463 01a9 0100     		.2byte	0x1
 4464 01ab 50       		.byte	0x50
 4465 01ac 80000000 		.4byte	.LVL14
 4466 01b0 96000000 		.4byte	.LVL16
 4467 01b4 0100     		.2byte	0x1
 4468 01b6 54       		.byte	0x54
 4469 01b7 00000000 		.4byte	0
 4470 01bb 00000000 		.4byte	0
 4471              	.LLST4:
 4472 01bf 0E000000 		.4byte	.LVL1
 4473 01c3 18000000 		.4byte	.LVL2
 4474 01c7 0100     		.2byte	0x1
 4475 01c9 53       		.byte	0x53
 4476 01ca B4000000 		.4byte	.LVL22
 4477 01ce B8000000 		.4byte	.LVL24
 4478 01d2 0100     		.2byte	0x1
 4479 01d4 53       		.byte	0x53
 4480 01d5 00000000 		.4byte	0
 4481 01d9 00000000 		.4byte	0
 4482              	.LLST5:
 4483 01dd 9E000000 		.4byte	.LVL18
 4484 01e1 A0000000 		.4byte	.LVL19
 4485 01e5 0200     		.2byte	0x2
 4486 01e7 30       		.byte	0x30
 4487 01e8 9F       		.byte	0x9f
 4488 01e9 B0000000 		.4byte	.LVL20
 4489 01ed B4000000 		.4byte	.LVL22
 4490 01f1 0200     		.2byte	0x2
 4491 01f3 37       		.byte	0x37
 4492 01f4 9F       		.byte	0x9f
 4493 01f5 CE000000 		.4byte	.LVL35
 4494 01f9 04010000 		.4byte	.LFE4
 4495 01fd 0100     		.2byte	0x1
 4496 01ff 50       		.byte	0x50
 4497 0200 00000000 		.4byte	0
 4498 0204 00000000 		.4byte	0
 4499              	.LLST6:
 4500 0208 06000000 		.4byte	.LVL37
 4501 020c 15000000 		.4byte	.LVL38-1
 4502 0210 0100     		.2byte	0x1
ARM GAS  C:\Users\VIDEOH~1\AppData\Local\Temp\cc9HpMPY.s 			page 141


 4503 0212 50       		.byte	0x50
 4504 0213 00000000 		.4byte	0
 4505 0217 00000000 		.4byte	0
 4506              	.LLST7:
 4507 021b 06000000 		.4byte	.LVL39
 4508 021f 25000000 		.4byte	.LVL40-1
 4509 0223 0100     		.2byte	0x1
 4510 0225 50       		.byte	0x50
 4511 0226 00000000 		.4byte	0
 4512 022a 00000000 		.4byte	0
 4513              	.LLST8:
 4514 022e 00000000 		.4byte	.LVL41
 4515 0232 0A000000 		.4byte	.LVL42
 4516 0236 0100     		.2byte	0x1
 4517 0238 50       		.byte	0x50
 4518 0239 0A000000 		.4byte	.LVL42
 4519 023d 14000000 		.4byte	.LVL44
 4520 0241 0100     		.2byte	0x1
 4521 0243 54       		.byte	0x54
 4522 0244 14000000 		.4byte	.LVL44
 4523 0248 24000000 		.4byte	.LFE9
 4524 024c 0400     		.2byte	0x4
 4525 024e F3       		.byte	0xf3
 4526 024f 01       		.uleb128 0x1
 4527 0250 50       		.byte	0x50
 4528 0251 9F       		.byte	0x9f
 4529 0252 00000000 		.4byte	0
 4530 0256 00000000 		.4byte	0
 4531              	.LLST9:
 4532 025a 00000000 		.4byte	.LVL45
 4533 025e 0C000000 		.4byte	.LVL46
 4534 0262 0100     		.2byte	0x1
 4535 0264 50       		.byte	0x50
 4536 0265 0C000000 		.4byte	.LVL46
 4537 0269 20000000 		.4byte	.LVL49
 4538 026d 0100     		.2byte	0x1
 4539 026f 54       		.byte	0x54
 4540 0270 20000000 		.4byte	.LVL49
 4541 0274 38000000 		.4byte	.LFE10
 4542 0278 0400     		.2byte	0x4
 4543 027a F3       		.byte	0xf3
 4544 027b 01       		.uleb128 0x1
 4545 027c 50       		.byte	0x50
 4546 027d 9F       		.byte	0x9f
 4547 027e 00000000 		.4byte	0
 4548 0282 00000000 		.4byte	0
 4549              	.LLST10:
 4550 0286 00000000 		.4byte	.LVL45
 4551 028a 0F000000 		.4byte	.LVL47-1
 4552 028e 0100     		.2byte	0x1
 4553 0290 51       		.byte	0x51
 4554 0291 0F000000 		.4byte	.LVL47-1
 4555 0295 2A000000 		.4byte	.LVL51
 4556 0299 0100     		.2byte	0x1
 4557 029b 55       		.byte	0x55
 4558 029c 2A000000 		.4byte	.LVL51
 4559 02a0 38000000 		.4byte	.LFE10
ARM GAS  C:\Users\VIDEOH~1\AppData\Local\Temp\cc9HpMPY.s 			page 142


 4560 02a4 0400     		.2byte	0x4
 4561 02a6 F3       		.byte	0xf3
 4562 02a7 01       		.uleb128 0x1
 4563 02a8 51       		.byte	0x51
 4564 02a9 9F       		.byte	0x9f
 4565 02aa 00000000 		.4byte	0
 4566 02ae 00000000 		.4byte	0
 4567              	.LLST11:
 4568 02b2 28000000 		.4byte	.LVL50
 4569 02b6 2E000000 		.4byte	.LVL52
 4570 02ba 0100     		.2byte	0x1
 4571 02bc 53       		.byte	0x53
 4572 02bd 2E000000 		.4byte	.LVL52
 4573 02c1 30000000 		.4byte	.LVL53
 4574 02c5 0100     		.2byte	0x1
 4575 02c7 55       		.byte	0x55
 4576 02c8 00000000 		.4byte	0
 4577 02cc 00000000 		.4byte	0
 4578              	.LLST12:
 4579 02d0 00000000 		.4byte	.LVL55
 4580 02d4 06000000 		.4byte	.LVL56
 4581 02d8 0100     		.2byte	0x1
 4582 02da 50       		.byte	0x50
 4583 02db 06000000 		.4byte	.LVL56
 4584 02df 08000000 		.4byte	.LVL57
 4585 02e3 0100     		.2byte	0x1
 4586 02e5 53       		.byte	0x53
 4587 02e6 08000000 		.4byte	.LVL57
 4588 02ea 14000000 		.4byte	.LFE11
 4589 02ee 0400     		.2byte	0x4
 4590 02f0 F3       		.byte	0xf3
 4591 02f1 01       		.uleb128 0x1
 4592 02f2 50       		.byte	0x50
 4593 02f3 9F       		.byte	0x9f
 4594 02f4 00000000 		.4byte	0
 4595 02f8 00000000 		.4byte	0
 4596              	.LLST13:
 4597 02fc 00000000 		.4byte	.LVL58
 4598 0300 0C000000 		.4byte	.LVL59
 4599 0304 0100     		.2byte	0x1
 4600 0306 50       		.byte	0x50
 4601 0307 0C000000 		.4byte	.LVL59
 4602 030b 20000000 		.4byte	.LVL62
 4603 030f 0100     		.2byte	0x1
 4604 0311 54       		.byte	0x54
 4605 0312 20000000 		.4byte	.LVL62
 4606 0316 34000000 		.4byte	.LFE12
 4607 031a 0400     		.2byte	0x4
 4608 031c F3       		.byte	0xf3
 4609 031d 01       		.uleb128 0x1
 4610 031e 50       		.byte	0x50
 4611 031f 9F       		.byte	0x9f
 4612 0320 00000000 		.4byte	0
 4613 0324 00000000 		.4byte	0
 4614              	.LLST14:
 4615 0328 00000000 		.4byte	.LVL58
 4616 032c 0F000000 		.4byte	.LVL60-1
ARM GAS  C:\Users\VIDEOH~1\AppData\Local\Temp\cc9HpMPY.s 			page 143


 4617 0330 0100     		.2byte	0x1
 4618 0332 51       		.byte	0x51
 4619 0333 0F000000 		.4byte	.LVL60-1
 4620 0337 2A000000 		.4byte	.LVL64
 4621 033b 0100     		.2byte	0x1
 4622 033d 55       		.byte	0x55
 4623 033e 2A000000 		.4byte	.LVL64
 4624 0342 34000000 		.4byte	.LFE12
 4625 0346 0400     		.2byte	0x4
 4626 0348 F3       		.byte	0xf3
 4627 0349 01       		.uleb128 0x1
 4628 034a 51       		.byte	0x51
 4629 034b 9F       		.byte	0x9f
 4630 034c 00000000 		.4byte	0
 4631 0350 00000000 		.4byte	0
 4632              	.LLST15:
 4633 0354 28000000 		.4byte	.LVL63
 4634 0358 2C000000 		.4byte	.LVL65
 4635 035c 0100     		.2byte	0x1
 4636 035e 53       		.byte	0x53
 4637 035f 2C000000 		.4byte	.LVL65
 4638 0363 2E000000 		.4byte	.LVL66
 4639 0367 0100     		.2byte	0x1
 4640 0369 55       		.byte	0x55
 4641 036a 00000000 		.4byte	0
 4642 036e 00000000 		.4byte	0
 4643              	.LLST16:
 4644 0372 00000000 		.4byte	.LVL67
 4645 0376 0A000000 		.4byte	.LVL68
 4646 037a 0100     		.2byte	0x1
 4647 037c 50       		.byte	0x50
 4648 037d 0A000000 		.4byte	.LVL68
 4649 0381 14000000 		.4byte	.LVL70
 4650 0385 0100     		.2byte	0x1
 4651 0387 54       		.byte	0x54
 4652 0388 14000000 		.4byte	.LVL70
 4653 038c 24000000 		.4byte	.LFE13
 4654 0390 0400     		.2byte	0x4
 4655 0392 F3       		.byte	0xf3
 4656 0393 01       		.uleb128 0x1
 4657 0394 50       		.byte	0x50
 4658 0395 9F       		.byte	0x9f
 4659 0396 00000000 		.4byte	0
 4660 039a 00000000 		.4byte	0
 4661              	.LLST17:
 4662 039e 00000000 		.4byte	.LVL71
 4663 03a2 07000000 		.4byte	.LVL72-1
 4664 03a6 0100     		.2byte	0x1
 4665 03a8 50       		.byte	0x50
 4666 03a9 07000000 		.4byte	.LVL72-1
 4667 03ad 3A000000 		.4byte	.LVL76
 4668 03b1 0100     		.2byte	0x1
 4669 03b3 54       		.byte	0x54
 4670 03b4 3A000000 		.4byte	.LVL76
 4671 03b8 40000000 		.4byte	.LFE14
 4672 03bc 0400     		.2byte	0x4
 4673 03be F3       		.byte	0xf3
ARM GAS  C:\Users\VIDEOH~1\AppData\Local\Temp\cc9HpMPY.s 			page 144


 4674 03bf 01       		.uleb128 0x1
 4675 03c0 50       		.byte	0x50
 4676 03c1 9F       		.byte	0x9f
 4677 03c2 00000000 		.4byte	0
 4678 03c6 00000000 		.4byte	0
 4679              	.LLST18:
 4680 03ca 00000000 		.4byte	.LVL77
 4681 03ce 07000000 		.4byte	.LVL78-1
 4682 03d2 0100     		.2byte	0x1
 4683 03d4 50       		.byte	0x50
 4684 03d5 07000000 		.4byte	.LVL78-1
 4685 03d9 3E000000 		.4byte	.LVL82
 4686 03dd 0100     		.2byte	0x1
 4687 03df 54       		.byte	0x54
 4688 03e0 3E000000 		.4byte	.LVL82
 4689 03e4 44000000 		.4byte	.LFE15
 4690 03e8 0400     		.2byte	0x4
 4691 03ea F3       		.byte	0xf3
 4692 03eb 01       		.uleb128 0x1
 4693 03ec 50       		.byte	0x50
 4694 03ed 9F       		.byte	0x9f
 4695 03ee 00000000 		.4byte	0
 4696 03f2 00000000 		.4byte	0
 4697              	.LLST19:
 4698 03f6 00000000 		.4byte	.LVL83
 4699 03fa 06000000 		.4byte	.LVL84
 4700 03fe 0100     		.2byte	0x1
 4701 0400 50       		.byte	0x50
 4702 0401 06000000 		.4byte	.LVL84
 4703 0405 28000000 		.4byte	.LVL91
 4704 0409 0100     		.2byte	0x1
 4705 040b 55       		.byte	0x55
 4706 040c 28000000 		.4byte	.LVL91
 4707 0410 34000000 		.4byte	.LFE16
 4708 0414 0400     		.2byte	0x4
 4709 0416 F3       		.byte	0xf3
 4710 0417 01       		.uleb128 0x1
 4711 0418 50       		.byte	0x50
 4712 0419 9F       		.byte	0x9f
 4713 041a 00000000 		.4byte	0
 4714 041e 00000000 		.4byte	0
 4715              	.LLST20:
 4716 0422 22000000 		.4byte	.LVL89
 4717 0426 26000000 		.4byte	.LVL90
 4718 042a 0100     		.2byte	0x1
 4719 042c 51       		.byte	0x51
 4720 042d 26000000 		.4byte	.LVL90
 4721 0431 28000000 		.4byte	.LVL91
 4722 0435 0100     		.2byte	0x1
 4723 0437 53       		.byte	0x53
 4724 0438 28000000 		.4byte	.LVL91
 4725 043c 2A000000 		.4byte	.LVL92
 4726 0440 0100     		.2byte	0x1
 4727 0442 55       		.byte	0x55
 4728 0443 00000000 		.4byte	0
 4729 0447 00000000 		.4byte	0
 4730              	.LLST21:
ARM GAS  C:\Users\VIDEOH~1\AppData\Local\Temp\cc9HpMPY.s 			page 145


 4731 044b 00000000 		.4byte	.LVL93
 4732 044f 0C000000 		.4byte	.LVL94
 4733 0453 0100     		.2byte	0x1
 4734 0455 50       		.byte	0x50
 4735 0456 0C000000 		.4byte	.LVL94
 4736 045a 1C000000 		.4byte	.LVL98
 4737 045e 0100     		.2byte	0x1
 4738 0460 55       		.byte	0x55
 4739 0461 1C000000 		.4byte	.LVL98
 4740 0465 38000000 		.4byte	.LFE18
 4741 0469 0400     		.2byte	0x4
 4742 046b F3       		.byte	0xf3
 4743 046c 01       		.uleb128 0x1
 4744 046d 50       		.byte	0x50
 4745 046e 9F       		.byte	0x9f
 4746 046f 00000000 		.4byte	0
 4747 0473 00000000 		.4byte	0
 4748              	.LLST22:
 4749 0477 00000000 		.4byte	.LVL93
 4750 047b 0F000000 		.4byte	.LVL95-1
 4751 047f 0100     		.2byte	0x1
 4752 0481 51       		.byte	0x51
 4753 0482 0F000000 		.4byte	.LVL95-1
 4754 0486 24000000 		.4byte	.LVL100
 4755 048a 0100     		.2byte	0x1
 4756 048c 54       		.byte	0x54
 4757 048d 24000000 		.4byte	.LVL100
 4758 0491 38000000 		.4byte	.LFE18
 4759 0495 0400     		.2byte	0x4
 4760 0497 F3       		.byte	0xf3
 4761 0498 01       		.uleb128 0x1
 4762 0499 51       		.byte	0x51
 4763 049a 9F       		.byte	0x9f
 4764 049b 00000000 		.4byte	0
 4765 049f 00000000 		.4byte	0
 4766              	.LLST23:
 4767 04a3 1A000000 		.4byte	.LVL97
 4768 04a7 2D000000 		.4byte	.LVL101-1
 4769 04ab 0100     		.2byte	0x1
 4770 04ad 53       		.byte	0x53
 4771 04ae 00000000 		.4byte	0
 4772 04b2 00000000 		.4byte	0
 4773              	.LLST24:
 4774 04b6 00000000 		.4byte	.LVL102
 4775 04ba 06000000 		.4byte	.LVL103
 4776 04be 0100     		.2byte	0x1
 4777 04c0 50       		.byte	0x50
 4778 04c1 06000000 		.4byte	.LVL103
 4779 04c5 24000000 		.4byte	.LVL109
 4780 04c9 0100     		.2byte	0x1
 4781 04cb 54       		.byte	0x54
 4782 04cc 24000000 		.4byte	.LVL109
 4783 04d0 30000000 		.4byte	.LFE19
 4784 04d4 0400     		.2byte	0x4
 4785 04d6 F3       		.byte	0xf3
 4786 04d7 01       		.uleb128 0x1
 4787 04d8 50       		.byte	0x50
ARM GAS  C:\Users\VIDEOH~1\AppData\Local\Temp\cc9HpMPY.s 			page 146


 4788 04d9 9F       		.byte	0x9f
 4789 04da 00000000 		.4byte	0
 4790 04de 00000000 		.4byte	0
 4791              	.LLST25:
 4792 04e2 12000000 		.4byte	.LVL105
 4793 04e6 18000000 		.4byte	.LVL106
 4794 04ea 0100     		.2byte	0x1
 4795 04ec 50       		.byte	0x50
 4796 04ed 18000000 		.4byte	.LVL106
 4797 04f1 22000000 		.4byte	.LVL107
 4798 04f5 0100     		.2byte	0x1
 4799 04f7 52       		.byte	0x52
 4800 04f8 22000000 		.4byte	.LVL107
 4801 04fc 24000000 		.4byte	.LVL108
 4802 0500 0100     		.2byte	0x1
 4803 0502 50       		.byte	0x50
 4804 0503 00000000 		.4byte	0
 4805 0507 00000000 		.4byte	0
 4806              	.LLST26:
 4807 050b 00000000 		.4byte	.LVL110
 4808 050f 0A000000 		.4byte	.LVL111
 4809 0513 0100     		.2byte	0x1
 4810 0515 50       		.byte	0x50
 4811 0516 0A000000 		.4byte	.LVL111
 4812 051a 14000000 		.4byte	.LVL113
 4813 051e 0100     		.2byte	0x1
 4814 0520 54       		.byte	0x54
 4815 0521 14000000 		.4byte	.LVL113
 4816 0525 20000000 		.4byte	.LFE21
 4817 0529 0400     		.2byte	0x4
 4818 052b F3       		.byte	0xf3
 4819 052c 01       		.uleb128 0x1
 4820 052d 50       		.byte	0x50
 4821 052e 9F       		.byte	0x9f
 4822 052f 00000000 		.4byte	0
 4823 0533 00000000 		.4byte	0
 4824              	.LLST27:
 4825 0537 00000000 		.4byte	.LVL114
 4826 053b 14000000 		.4byte	.LVL116
 4827 053f 0100     		.2byte	0x1
 4828 0541 50       		.byte	0x50
 4829 0542 14000000 		.4byte	.LVL116
 4830 0546 1A000000 		.4byte	.LVL118
 4831 054a 0400     		.2byte	0x4
 4832 054c F3       		.byte	0xf3
 4833 054d 01       		.uleb128 0x1
 4834 054e 50       		.byte	0x50
 4835 054f 9F       		.byte	0x9f
 4836 0550 1A000000 		.4byte	.LVL118
 4837 0554 1E000000 		.4byte	.LVL119
 4838 0558 0100     		.2byte	0x1
 4839 055a 50       		.byte	0x50
 4840 055b 1E000000 		.4byte	.LVL119
 4841 055f 22000000 		.4byte	.LVL121
 4842 0563 0400     		.2byte	0x4
 4843 0565 F3       		.byte	0xf3
 4844 0566 01       		.uleb128 0x1
ARM GAS  C:\Users\VIDEOH~1\AppData\Local\Temp\cc9HpMPY.s 			page 147


 4845 0567 50       		.byte	0x50
 4846 0568 9F       		.byte	0x9f
 4847 0569 22000000 		.4byte	.LVL121
 4848 056d 26000000 		.4byte	.LVL122
 4849 0571 0100     		.2byte	0x1
 4850 0573 50       		.byte	0x50
 4851 0574 26000000 		.4byte	.LVL122
 4852 0578 28000000 		.4byte	.LVL123
 4853 057c 0400     		.2byte	0x4
 4854 057e F3       		.byte	0xf3
 4855 057f 01       		.uleb128 0x1
 4856 0580 50       		.byte	0x50
 4857 0581 9F       		.byte	0x9f
 4858 0582 28000000 		.4byte	.LVL123
 4859 0586 2A000000 		.4byte	.LVL124
 4860 058a 0100     		.2byte	0x1
 4861 058c 50       		.byte	0x50
 4862 058d 2A000000 		.4byte	.LVL124
 4863 0591 3C000000 		.4byte	.LFE22
 4864 0595 0400     		.2byte	0x4
 4865 0597 F3       		.byte	0xf3
 4866 0598 01       		.uleb128 0x1
 4867 0599 50       		.byte	0x50
 4868 059a 9F       		.byte	0x9f
 4869 059b 00000000 		.4byte	0
 4870 059f 00000000 		.4byte	0
 4871              	.LLST28:
 4872 05a3 02000000 		.4byte	.LVL115
 4873 05a7 18000000 		.4byte	.LVL117
 4874 05ab 0200     		.2byte	0x2
 4875 05ad 30       		.byte	0x30
 4876 05ae 9F       		.byte	0x9f
 4877 05af 18000000 		.4byte	.LVL117
 4878 05b3 1A000000 		.4byte	.LVL118
 4879 05b7 0100     		.2byte	0x1
 4880 05b9 50       		.byte	0x50
 4881 05ba 1A000000 		.4byte	.LVL118
 4882 05be 20000000 		.4byte	.LVL120
 4883 05c2 0200     		.2byte	0x2
 4884 05c4 30       		.byte	0x30
 4885 05c5 9F       		.byte	0x9f
 4886 05c6 20000000 		.4byte	.LVL120
 4887 05ca 22000000 		.4byte	.LVL121
 4888 05ce 0100     		.2byte	0x1
 4889 05d0 50       		.byte	0x50
 4890 05d1 22000000 		.4byte	.LVL121
 4891 05d5 26000000 		.4byte	.LVL122
 4892 05d9 0200     		.2byte	0x2
 4893 05db 30       		.byte	0x30
 4894 05dc 9F       		.byte	0x9f
 4895 05dd 26000000 		.4byte	.LVL122
 4896 05e1 28000000 		.4byte	.LVL123
 4897 05e5 0100     		.2byte	0x1
 4898 05e7 50       		.byte	0x50
 4899 05e8 28000000 		.4byte	.LVL123
 4900 05ec 30000000 		.4byte	.LVL126
 4901 05f0 0200     		.2byte	0x2
ARM GAS  C:\Users\VIDEOH~1\AppData\Local\Temp\cc9HpMPY.s 			page 148


 4902 05f2 30       		.byte	0x30
 4903 05f3 9F       		.byte	0x9f
 4904 05f4 30000000 		.4byte	.LVL126
 4905 05f8 3C000000 		.4byte	.LFE22
 4906 05fc 0100     		.2byte	0x1
 4907 05fe 50       		.byte	0x50
 4908 05ff 00000000 		.4byte	0
 4909 0603 00000000 		.4byte	0
 4910              	.LLST29:
 4911 0607 62000000 		.4byte	.LVL134
 4912 060b 6E000000 		.4byte	.LVL136
 4913 060f 0100     		.2byte	0x1
 4914 0611 54       		.byte	0x54
 4915 0612 00000000 		.4byte	0
 4916 0616 00000000 		.4byte	0
 4917              	.LLST30:
 4918 061a 18000000 		.4byte	.LVL140
 4919 061e 30000000 		.4byte	.LVL143
 4920 0622 0100     		.2byte	0x1
 4921 0624 54       		.byte	0x54
 4922 0625 00000000 		.4byte	0
 4923 0629 00000000 		.4byte	0
 4924              	.LLST31:
 4925 062d 00000000 		.4byte	.LVL144
 4926 0631 07000000 		.4byte	.LVL145-1
 4927 0635 0100     		.2byte	0x1
 4928 0637 50       		.byte	0x50
 4929 0638 07000000 		.4byte	.LVL145-1
 4930 063c 20000000 		.4byte	.LVL152
 4931 0640 0100     		.2byte	0x1
 4932 0642 55       		.byte	0x55
 4933 0643 20000000 		.4byte	.LVL152
 4934 0647 2A000000 		.4byte	.LVL153
 4935 064b 0100     		.2byte	0x1
 4936 064d 50       		.byte	0x50
 4937 064e 2A000000 		.4byte	.LVL153
 4938 0652 4C000000 		.4byte	.LFE24
 4939 0656 0A00     		.2byte	0xa
 4940 0658 F3       		.byte	0xf3
 4941 0659 01       		.uleb128 0x1
 4942 065a 50       		.byte	0x50
 4943 065b 0C       		.byte	0xc
 4944 065c 04040400 		.4byte	0x40404
 4945 0660 1A       		.byte	0x1a
 4946 0661 9F       		.byte	0x9f
 4947 0662 00000000 		.4byte	0
 4948 0666 00000000 		.4byte	0
 4949              	.LLST32:
 4950 066a 0A000000 		.4byte	.LVL146
 4951 066e 3C000000 		.4byte	.LVL156
 4952 0672 0100     		.2byte	0x1
 4953 0674 54       		.byte	0x54
 4954 0675 00000000 		.4byte	0
 4955 0679 00000000 		.4byte	0
 4956              	.LLST33:
 4957 067d 12000000 		.4byte	.LVL148
 4958 0681 1A000000 		.4byte	.LVL150
ARM GAS  C:\Users\VIDEOH~1\AppData\Local\Temp\cc9HpMPY.s 			page 149


 4959 0685 0200     		.2byte	0x2
 4960 0687 31       		.byte	0x31
 4961 0688 9F       		.byte	0x9f
 4962 0689 1C000000 		.4byte	.LVL151
 4963 068d 35000000 		.4byte	.LVL154-1
 4964 0691 0100     		.2byte	0x1
 4965 0693 51       		.byte	0x51
 4966 0694 00000000 		.4byte	0
 4967 0698 00000000 		.4byte	0
 4968              	.LLST34:
 4969 069c 00000000 		.4byte	.LVL157
 4970 06a0 08000000 		.4byte	.LVL158
 4971 06a4 0100     		.2byte	0x1
 4972 06a6 50       		.byte	0x50
 4973 06a7 08000000 		.4byte	.LVL158
 4974 06ab 20000000 		.4byte	.LFE25
 4975 06af 0400     		.2byte	0x4
 4976 06b1 F3       		.byte	0xf3
 4977 06b2 01       		.uleb128 0x1
 4978 06b3 50       		.byte	0x50
 4979 06b4 9F       		.byte	0x9f
 4980 06b5 00000000 		.4byte	0
 4981 06b9 00000000 		.4byte	0
 4982              	.LLST35:
 4983 06bd 00000000 		.4byte	.LVL159
 4984 06c1 08000000 		.4byte	.LVL161
 4985 06c5 0100     		.2byte	0x1
 4986 06c7 50       		.byte	0x50
 4987 06c8 08000000 		.4byte	.LVL161
 4988 06cc 12000000 		.4byte	.LVL163
 4989 06d0 0400     		.2byte	0x4
 4990 06d2 F3       		.byte	0xf3
 4991 06d3 01       		.uleb128 0x1
 4992 06d4 50       		.byte	0x50
 4993 06d5 9F       		.byte	0x9f
 4994 06d6 12000000 		.4byte	.LVL163
 4995 06da 14000000 		.4byte	.LVL164
 4996 06de 0100     		.2byte	0x1
 4997 06e0 50       		.byte	0x50
 4998 06e1 14000000 		.4byte	.LVL164
 4999 06e5 20000000 		.4byte	.LFE26
 5000 06e9 0400     		.2byte	0x4
 5001 06eb F3       		.byte	0xf3
 5002 06ec 01       		.uleb128 0x1
 5003 06ed 50       		.byte	0x50
 5004 06ee 9F       		.byte	0x9f
 5005 06ef 00000000 		.4byte	0
 5006 06f3 00000000 		.4byte	0
 5007              	.LLST36:
 5008 06f7 00000000 		.4byte	.LVL159
 5009 06fb 17000000 		.4byte	.LVL165-1
 5010 06ff 0100     		.2byte	0x1
 5011 0701 51       		.byte	0x51
 5012 0702 17000000 		.4byte	.LVL165-1
 5013 0706 20000000 		.4byte	.LFE26
 5014 070a 0400     		.2byte	0x4
 5015 070c F3       		.byte	0xf3
ARM GAS  C:\Users\VIDEOH~1\AppData\Local\Temp\cc9HpMPY.s 			page 150


 5016 070d 01       		.uleb128 0x1
 5017 070e 51       		.byte	0x51
 5018 070f 9F       		.byte	0x9f
 5019 0710 00000000 		.4byte	0
 5020 0714 00000000 		.4byte	0
 5021              	.LLST37:
 5022 0718 02000000 		.4byte	.LVL160
 5023 071c 0E000000 		.4byte	.LVL162
 5024 0720 0200     		.2byte	0x2
 5025 0722 30       		.byte	0x30
 5026 0723 9F       		.byte	0x9f
 5027 0724 0E000000 		.4byte	.LVL162
 5028 0728 12000000 		.4byte	.LVL163
 5029 072c 0100     		.2byte	0x1
 5030 072e 50       		.byte	0x50
 5031 072f 12000000 		.4byte	.LVL163
 5032 0733 1A000000 		.4byte	.LVL166
 5033 0737 0200     		.2byte	0x2
 5034 0739 30       		.byte	0x30
 5035 073a 9F       		.byte	0x9f
 5036 073b 1A000000 		.4byte	.LVL166
 5037 073f 20000000 		.4byte	.LFE26
 5038 0743 0100     		.2byte	0x1
 5039 0745 50       		.byte	0x50
 5040 0746 00000000 		.4byte	0
 5041 074a 00000000 		.4byte	0
 5042              	.LLST38:
 5043 074e 00000000 		.4byte	.LVL167
 5044 0752 08000000 		.4byte	.LVL169
 5045 0756 0100     		.2byte	0x1
 5046 0758 50       		.byte	0x50
 5047 0759 08000000 		.4byte	.LVL169
 5048 075d 10000000 		.4byte	.LVL171
 5049 0761 0400     		.2byte	0x4
 5050 0763 F3       		.byte	0xf3
 5051 0764 01       		.uleb128 0x1
 5052 0765 50       		.byte	0x50
 5053 0766 9F       		.byte	0x9f
 5054 0767 10000000 		.4byte	.LVL171
 5055 076b 12000000 		.4byte	.LVL172
 5056 076f 0100     		.2byte	0x1
 5057 0771 50       		.byte	0x50
 5058 0772 12000000 		.4byte	.LVL172
 5059 0776 20000000 		.4byte	.LFE27
 5060 077a 0400     		.2byte	0x4
 5061 077c F3       		.byte	0xf3
 5062 077d 01       		.uleb128 0x1
 5063 077e 50       		.byte	0x50
 5064 077f 9F       		.byte	0x9f
 5065 0780 00000000 		.4byte	0
 5066 0784 00000000 		.4byte	0
 5067              	.LLST39:
 5068 0788 02000000 		.4byte	.LVL168
 5069 078c 0E000000 		.4byte	.LVL170
 5070 0790 0200     		.2byte	0x2
 5071 0792 30       		.byte	0x30
 5072 0793 9F       		.byte	0x9f
ARM GAS  C:\Users\VIDEOH~1\AppData\Local\Temp\cc9HpMPY.s 			page 151


 5073 0794 0E000000 		.4byte	.LVL170
 5074 0798 10000000 		.4byte	.LVL171
 5075 079c 0100     		.2byte	0x1
 5076 079e 50       		.byte	0x50
 5077 079f 10000000 		.4byte	.LVL171
 5078 07a3 18000000 		.4byte	.LVL174
 5079 07a7 0200     		.2byte	0x2
 5080 07a9 30       		.byte	0x30
 5081 07aa 9F       		.byte	0x9f
 5082 07ab 18000000 		.4byte	.LVL174
 5083 07af 20000000 		.4byte	.LFE27
 5084 07b3 0100     		.2byte	0x1
 5085 07b5 50       		.byte	0x50
 5086 07b6 00000000 		.4byte	0
 5087 07ba 00000000 		.4byte	0
 5088              	.LLST40:
 5089 07be 00000000 		.4byte	.LVL175
 5090 07c2 08000000 		.4byte	.LVL176
 5091 07c6 0100     		.2byte	0x1
 5092 07c8 50       		.byte	0x50
 5093 07c9 08000000 		.4byte	.LVL176
 5094 07cd 1E000000 		.4byte	.LVL177
 5095 07d1 0400     		.2byte	0x4
 5096 07d3 F3       		.byte	0xf3
 5097 07d4 01       		.uleb128 0x1
 5098 07d5 50       		.byte	0x50
 5099 07d6 9F       		.byte	0x9f
 5100 07d7 1E000000 		.4byte	.LVL177
 5101 07db 20000000 		.4byte	.LVL178
 5102 07df 0100     		.2byte	0x1
 5103 07e1 50       		.byte	0x50
 5104 07e2 20000000 		.4byte	.LVL178
 5105 07e6 34000000 		.4byte	.LFE28
 5106 07ea 0400     		.2byte	0x4
 5107 07ec F3       		.byte	0xf3
 5108 07ed 01       		.uleb128 0x1
 5109 07ee 50       		.byte	0x50
 5110 07ef 9F       		.byte	0x9f
 5111 07f0 00000000 		.4byte	0
 5112 07f4 00000000 		.4byte	0
 5113              	.LLST41:
 5114 07f8 00000000 		.4byte	.LVL180
 5115 07fc 08000000 		.4byte	.LVL181
 5116 0800 0100     		.2byte	0x1
 5117 0802 50       		.byte	0x50
 5118 0803 08000000 		.4byte	.LVL181
 5119 0807 16000000 		.4byte	.LVL182
 5120 080b 0400     		.2byte	0x4
 5121 080d F3       		.byte	0xf3
 5122 080e 01       		.uleb128 0x1
 5123 080f 50       		.byte	0x50
 5124 0810 9F       		.byte	0x9f
 5125 0811 16000000 		.4byte	.LVL182
 5126 0815 18000000 		.4byte	.LVL183
 5127 0819 0100     		.2byte	0x1
 5128 081b 50       		.byte	0x50
 5129 081c 18000000 		.4byte	.LVL183
ARM GAS  C:\Users\VIDEOH~1\AppData\Local\Temp\cc9HpMPY.s 			page 152


 5130 0820 28000000 		.4byte	.LFE29
 5131 0824 0400     		.2byte	0x4
 5132 0826 F3       		.byte	0xf3
 5133 0827 01       		.uleb128 0x1
 5134 0828 50       		.byte	0x50
 5135 0829 9F       		.byte	0x9f
 5136 082a 00000000 		.4byte	0
 5137 082e 00000000 		.4byte	0
 5138              	.LLST42:
 5139 0832 00000000 		.4byte	.LVL191
 5140 0836 09000000 		.4byte	.LVL192-1
 5141 083a 0100     		.2byte	0x1
 5142 083c 50       		.byte	0x50
 5143 083d 09000000 		.4byte	.LVL192-1
 5144 0841 2E000000 		.4byte	.LVL197
 5145 0845 0100     		.2byte	0x1
 5146 0847 54       		.byte	0x54
 5147 0848 2E000000 		.4byte	.LVL197
 5148 084c 35000000 		.4byte	.LVL198-1
 5149 0850 0100     		.2byte	0x1
 5150 0852 50       		.byte	0x50
 5151 0853 35000000 		.4byte	.LVL198-1
 5152 0857 5E000000 		.4byte	.LVL203
 5153 085b 0100     		.2byte	0x1
 5154 085d 54       		.byte	0x54
 5155 085e 5E000000 		.4byte	.LVL203
 5156 0862 60000000 		.4byte	.LFE31
 5157 0866 0400     		.2byte	0x4
 5158 0868 F3       		.byte	0xf3
 5159 0869 01       		.uleb128 0x1
 5160 086a 50       		.byte	0x50
 5161 086b 9F       		.byte	0x9f
 5162 086c 00000000 		.4byte	0
 5163 0870 00000000 		.4byte	0
 5164              	.LLST43:
 5165 0874 00000000 		.4byte	.LVL204
 5166 0878 0F000000 		.4byte	.LVL205-1
 5167 087c 0100     		.2byte	0x1
 5168 087e 50       		.byte	0x50
 5169 087f 0F000000 		.4byte	.LVL205-1
 5170 0883 5A000000 		.4byte	.LVL214
 5171 0887 0100     		.2byte	0x1
 5172 0889 54       		.byte	0x54
 5173 088a 5A000000 		.4byte	.LVL214
 5174 088e 6C000000 		.4byte	.LFE35
 5175 0892 0400     		.2byte	0x4
 5176 0894 F3       		.byte	0xf3
 5177 0895 01       		.uleb128 0x1
 5178 0896 50       		.byte	0x50
 5179 0897 9F       		.byte	0x9f
 5180 0898 00000000 		.4byte	0
 5181 089c 00000000 		.4byte	0
 5182              	.LLST44:
 5183 08a0 00000000 		.4byte	.LVL204
 5184 08a4 0F000000 		.4byte	.LVL205-1
 5185 08a8 0100     		.2byte	0x1
 5186 08aa 51       		.byte	0x51
ARM GAS  C:\Users\VIDEOH~1\AppData\Local\Temp\cc9HpMPY.s 			page 153


 5187 08ab 0F000000 		.4byte	.LVL205-1
 5188 08af 6C000000 		.4byte	.LFE35
 5189 08b3 0400     		.2byte	0x4
 5190 08b5 F3       		.byte	0xf3
 5191 08b6 01       		.uleb128 0x1
 5192 08b7 51       		.byte	0x51
 5193 08b8 9F       		.byte	0x9f
 5194 08b9 00000000 		.4byte	0
 5195 08bd 00000000 		.4byte	0
 5196              	.LLST45:
 5197 08c1 00000000 		.4byte	.LVL204
 5198 08c5 0F000000 		.4byte	.LVL205-1
 5199 08c9 0100     		.2byte	0x1
 5200 08cb 52       		.byte	0x52
 5201 08cc 0F000000 		.4byte	.LVL205-1
 5202 08d0 5A000000 		.4byte	.LVL215
 5203 08d4 0100     		.2byte	0x1
 5204 08d6 55       		.byte	0x55
 5205 08d7 5A000000 		.4byte	.LVL215
 5206 08db 6C000000 		.4byte	.LFE35
 5207 08df 0400     		.2byte	0x4
 5208 08e1 F3       		.byte	0xf3
 5209 08e2 01       		.uleb128 0x1
 5210 08e3 52       		.byte	0x52
 5211 08e4 9F       		.byte	0x9f
 5212 08e5 00000000 		.4byte	0
 5213 08e9 00000000 		.4byte	0
 5214              	.LLST46:
 5215 08ed 24000000 		.4byte	.LVL206
 5216 08f1 2A000000 		.4byte	.LVL207
 5217 08f5 0100     		.2byte	0x1
 5218 08f7 50       		.byte	0x50
 5219 08f8 2E000000 		.4byte	.LVL208
 5220 08fc 34000000 		.4byte	.LVL209
 5221 0900 0100     		.2byte	0x1
 5222 0902 50       		.byte	0x50
 5223 0903 3A000000 		.4byte	.LVL210
 5224 0907 54000000 		.4byte	.LVL212
 5225 090b 0100     		.2byte	0x1
 5226 090d 56       		.byte	0x56
 5227 090e 00000000 		.4byte	0
 5228 0912 00000000 		.4byte	0
 5229              	.LLST47:
 5230 0916 00000000 		.4byte	.LVL216
 5231 091a 0F000000 		.4byte	.LVL217-1
 5232 091e 0100     		.2byte	0x1
 5233 0920 50       		.byte	0x50
 5234 0921 0F000000 		.4byte	.LVL217-1
 5235 0925 36000000 		.4byte	.LVL223
 5236 0929 0100     		.2byte	0x1
 5237 092b 54       		.byte	0x54
 5238 092c 36000000 		.4byte	.LVL223
 5239 0930 3C000000 		.4byte	.LFE34
 5240 0934 0400     		.2byte	0x4
 5241 0936 F3       		.byte	0xf3
 5242 0937 01       		.uleb128 0x1
 5243 0938 50       		.byte	0x50
ARM GAS  C:\Users\VIDEOH~1\AppData\Local\Temp\cc9HpMPY.s 			page 154


 5244 0939 9F       		.byte	0x9f
 5245 093a 00000000 		.4byte	0
 5246 093e 00000000 		.4byte	0
 5247              	.LLST48:
 5248 0942 00000000 		.4byte	.LVL216
 5249 0946 0F000000 		.4byte	.LVL217-1
 5250 094a 0100     		.2byte	0x1
 5251 094c 51       		.byte	0x51
 5252 094d 0F000000 		.4byte	.LVL217-1
 5253 0951 3C000000 		.4byte	.LFE34
 5254 0955 0400     		.2byte	0x4
 5255 0957 F3       		.byte	0xf3
 5256 0958 01       		.uleb128 0x1
 5257 0959 51       		.byte	0x51
 5258 095a 9F       		.byte	0x9f
 5259 095b 00000000 		.4byte	0
 5260 095f 00000000 		.4byte	0
 5261              	.LLST49:
 5262 0963 00000000 		.4byte	.LVL216
 5263 0967 0F000000 		.4byte	.LVL217-1
 5264 096b 0100     		.2byte	0x1
 5265 096d 52       		.byte	0x52
 5266 096e 0F000000 		.4byte	.LVL217-1
 5267 0972 36000000 		.4byte	.LVL224
 5268 0976 0100     		.2byte	0x1
 5269 0978 55       		.byte	0x55
 5270 0979 36000000 		.4byte	.LVL224
 5271 097d 3C000000 		.4byte	.LFE34
 5272 0981 0400     		.2byte	0x4
 5273 0983 F3       		.byte	0xf3
 5274 0984 01       		.uleb128 0x1
 5275 0985 52       		.byte	0x52
 5276 0986 9F       		.byte	0x9f
 5277 0987 00000000 		.4byte	0
 5278 098b 00000000 		.4byte	0
 5279              	.LLST50:
 5280 098f 20000000 		.4byte	.LVL218
 5281 0993 2A000000 		.4byte	.LVL220
 5282 0997 0100     		.2byte	0x1
 5283 0999 50       		.byte	0x50
 5284 099a 00000000 		.4byte	0
 5285 099e 00000000 		.4byte	0
 5286              	.LLST51:
 5287 09a2 26000000 		.4byte	.LVL219
 5288 09a6 2D000000 		.4byte	.LVL221-1
 5289 09aa 0100     		.2byte	0x1
 5290 09ac 52       		.byte	0x52
 5291 09ad 00000000 		.4byte	0
 5292 09b1 00000000 		.4byte	0
 5293              		.section	.debug_aranges,"",%progbits
 5294 0000 34010000 		.4byte	0x134
 5295 0004 0200     		.2byte	0x2
 5296 0006 00000000 		.4byte	.Ldebug_info0
 5297 000a 04       		.byte	0x4
 5298 000b 00       		.byte	0
 5299 000c 0000     		.2byte	0
 5300 000e 0000     		.2byte	0
ARM GAS  C:\Users\VIDEOH~1\AppData\Local\Temp\cc9HpMPY.s 			page 155


 5301 0010 00000000 		.4byte	.LFB5
 5302 0014 14000000 		.4byte	.LFE5-.LFB5
 5303 0018 00000000 		.4byte	.LFB7
 5304 001c 14000000 		.4byte	.LFE7-.LFB7
 5305 0020 00000000 		.4byte	.LFB0
 5306 0024 14000000 		.4byte	.LFE0-.LFB0
 5307 0028 00000000 		.4byte	.LFB2
 5308 002c 34000000 		.4byte	.LFE2-.LFB2
 5309 0030 00000000 		.4byte	.LFB3
 5310 0034 14000000 		.4byte	.LFE3-.LFB3
 5311 0038 00000000 		.4byte	.LFB4
 5312 003c 04010000 		.4byte	.LFE4-.LFB4
 5313 0040 00000000 		.4byte	.LFB6
 5314 0044 1C000000 		.4byte	.LFE6-.LFB6
 5315 0048 00000000 		.4byte	.LFB8
 5316 004c 30000000 		.4byte	.LFE8-.LFB8
 5317 0050 00000000 		.4byte	.LFB9
 5318 0054 24000000 		.4byte	.LFE9-.LFB9
 5319 0058 00000000 		.4byte	.LFB10
 5320 005c 38000000 		.4byte	.LFE10-.LFB10
 5321 0060 00000000 		.4byte	.LFB33
 5322 0064 2C000000 		.4byte	.LFE33-.LFB33
 5323 0068 00000000 		.4byte	.LFB11
 5324 006c 14000000 		.4byte	.LFE11-.LFB11
 5325 0070 00000000 		.4byte	.LFB12
 5326 0074 34000000 		.4byte	.LFE12-.LFB12
 5327 0078 00000000 		.4byte	.LFB13
 5328 007c 24000000 		.4byte	.LFE13-.LFB13
 5329 0080 00000000 		.4byte	.LFB14
 5330 0084 40000000 		.4byte	.LFE14-.LFB14
 5331 0088 00000000 		.4byte	.LFB15
 5332 008c 44000000 		.4byte	.LFE15-.LFB15
 5333 0090 00000000 		.4byte	.LFB16
 5334 0094 34000000 		.4byte	.LFE16-.LFB16
 5335 0098 00000000 		.4byte	.LFB17
 5336 009c 14000000 		.4byte	.LFE17-.LFB17
 5337 00a0 00000000 		.4byte	.LFB18
 5338 00a4 38000000 		.4byte	.LFE18-.LFB18
 5339 00a8 00000000 		.4byte	.LFB19
 5340 00ac 30000000 		.4byte	.LFE19-.LFB19
 5341 00b0 00000000 		.4byte	.LFB20
 5342 00b4 10000000 		.4byte	.LFE20-.LFB20
 5343 00b8 00000000 		.4byte	.LFB21
 5344 00bc 20000000 		.4byte	.LFE21-.LFB21
 5345 00c0 00000000 		.4byte	.LFB22
 5346 00c4 3C000000 		.4byte	.LFE22-.LFB22
 5347 00c8 00000000 		.4byte	.LFB32
 5348 00cc 74000000 		.4byte	.LFE32-.LFB32
 5349 00d0 00000000 		.4byte	.LFB1
 5350 00d4 38000000 		.4byte	.LFE1-.LFB1
 5351 00d8 00000000 		.4byte	.LFB23
 5352 00dc 14000000 		.4byte	.LFE23-.LFB23
 5353 00e0 00000000 		.4byte	.LFB24
 5354 00e4 4C000000 		.4byte	.LFE24-.LFB24
 5355 00e8 00000000 		.4byte	.LFB25
 5356 00ec 20000000 		.4byte	.LFE25-.LFB25
 5357 00f0 00000000 		.4byte	.LFB26
ARM GAS  C:\Users\VIDEOH~1\AppData\Local\Temp\cc9HpMPY.s 			page 156


 5358 00f4 20000000 		.4byte	.LFE26-.LFB26
 5359 00f8 00000000 		.4byte	.LFB27
 5360 00fc 20000000 		.4byte	.LFE27-.LFB27
 5361 0100 00000000 		.4byte	.LFB28
 5362 0104 34000000 		.4byte	.LFE28-.LFB28
 5363 0108 00000000 		.4byte	.LFB29
 5364 010c 28000000 		.4byte	.LFE29-.LFB29
 5365 0110 00000000 		.4byte	.LFB30
 5366 0114 A4000000 		.4byte	.LFE30-.LFB30
 5367 0118 00000000 		.4byte	.LFB31
 5368 011c 60000000 		.4byte	.LFE31-.LFB31
 5369 0120 00000000 		.4byte	.LFB35
 5370 0124 6C000000 		.4byte	.LFE35-.LFB35
 5371 0128 00000000 		.4byte	.LFB34
 5372 012c 3C000000 		.4byte	.LFE34-.LFB34
 5373 0130 00000000 		.4byte	0
 5374 0134 00000000 		.4byte	0
 5375              		.section	.debug_ranges,"",%progbits
 5376              	.Ldebug_ranges0:
 5377 0000 00000000 		.4byte	.LFB5
 5378 0004 14000000 		.4byte	.LFE5
 5379 0008 00000000 		.4byte	.LFB7
 5380 000c 14000000 		.4byte	.LFE7
 5381 0010 00000000 		.4byte	.LFB0
 5382 0014 14000000 		.4byte	.LFE0
 5383 0018 00000000 		.4byte	.LFB2
 5384 001c 34000000 		.4byte	.LFE2
 5385 0020 00000000 		.4byte	.LFB3
 5386 0024 14000000 		.4byte	.LFE3
 5387 0028 00000000 		.4byte	.LFB4
 5388 002c 04010000 		.4byte	.LFE4
 5389 0030 00000000 		.4byte	.LFB6
 5390 0034 1C000000 		.4byte	.LFE6
 5391 0038 00000000 		.4byte	.LFB8
 5392 003c 30000000 		.4byte	.LFE8
 5393 0040 00000000 		.4byte	.LFB9
 5394 0044 24000000 		.4byte	.LFE9
 5395 0048 00000000 		.4byte	.LFB10
 5396 004c 38000000 		.4byte	.LFE10
 5397 0050 00000000 		.4byte	.LFB33
 5398 0054 2C000000 		.4byte	.LFE33
 5399 0058 00000000 		.4byte	.LFB11
 5400 005c 14000000 		.4byte	.LFE11
 5401 0060 00000000 		.4byte	.LFB12
 5402 0064 34000000 		.4byte	.LFE12
 5403 0068 00000000 		.4byte	.LFB13
 5404 006c 24000000 		.4byte	.LFE13
 5405 0070 00000000 		.4byte	.LFB14
 5406 0074 40000000 		.4byte	.LFE14
 5407 0078 00000000 		.4byte	.LFB15
 5408 007c 44000000 		.4byte	.LFE15
 5409 0080 00000000 		.4byte	.LFB16
 5410 0084 34000000 		.4byte	.LFE16
 5411 0088 00000000 		.4byte	.LFB17
 5412 008c 14000000 		.4byte	.LFE17
 5413 0090 00000000 		.4byte	.LFB18
 5414 0094 38000000 		.4byte	.LFE18
ARM GAS  C:\Users\VIDEOH~1\AppData\Local\Temp\cc9HpMPY.s 			page 157


 5415 0098 00000000 		.4byte	.LFB19
 5416 009c 30000000 		.4byte	.LFE19
 5417 00a0 00000000 		.4byte	.LFB20
 5418 00a4 10000000 		.4byte	.LFE20
 5419 00a8 00000000 		.4byte	.LFB21
 5420 00ac 20000000 		.4byte	.LFE21
 5421 00b0 00000000 		.4byte	.LFB22
 5422 00b4 3C000000 		.4byte	.LFE22
 5423 00b8 00000000 		.4byte	.LFB32
 5424 00bc 74000000 		.4byte	.LFE32
 5425 00c0 00000000 		.4byte	.LFB1
 5426 00c4 38000000 		.4byte	.LFE1
 5427 00c8 00000000 		.4byte	.LFB23
 5428 00cc 14000000 		.4byte	.LFE23
 5429 00d0 00000000 		.4byte	.LFB24
 5430 00d4 4C000000 		.4byte	.LFE24
 5431 00d8 00000000 		.4byte	.LFB25
 5432 00dc 20000000 		.4byte	.LFE25
 5433 00e0 00000000 		.4byte	.LFB26
 5434 00e4 20000000 		.4byte	.LFE26
 5435 00e8 00000000 		.4byte	.LFB27
 5436 00ec 20000000 		.4byte	.LFE27
 5437 00f0 00000000 		.4byte	.LFB28
 5438 00f4 34000000 		.4byte	.LFE28
 5439 00f8 00000000 		.4byte	.LFB29
 5440 00fc 28000000 		.4byte	.LFE29
 5441 0100 00000000 		.4byte	.LFB30
 5442 0104 A4000000 		.4byte	.LFE30
 5443 0108 00000000 		.4byte	.LFB31
 5444 010c 60000000 		.4byte	.LFE31
 5445 0110 00000000 		.4byte	.LFB35
 5446 0114 6C000000 		.4byte	.LFE35
 5447 0118 00000000 		.4byte	.LFB34
 5448 011c 3C000000 		.4byte	.LFE34
 5449 0120 00000000 		.4byte	0
 5450 0124 00000000 		.4byte	0
 5451              		.section	.debug_line,"",%progbits
 5452              	.Ldebug_line0:
 5453 0000 62040000 		.section	.debug_str,"MS",%progbits,1
 5453      02005C00 
 5453      00000201 
 5453      FB0E0D00 
 5453      01010101 
 5454              	.LASF10:
 5455 0000 75696E74 		.ascii	"uint16\000"
 5455      313600
 5456              	.LASF94:
 5457 0007 43794578 		.ascii	"CyExitCriticalSection\000"
 5457      69744372 
 5457      69746963 
 5457      616C5365 
 5457      6374696F 
 5458              	.LASF91:
 5459 001d 636F756E 		.ascii	"counterIntMaskTbl\000"
 5459      74657249 
 5459      6E744D61 
 5459      736B5462 
ARM GAS  C:\Users\VIDEOH~1\AppData\Local\Temp\cc9HpMPY.s 			page 158


 5459      6C00
 5460              	.LASF92:
 5461 002f 63795379 		.ascii	"cySysWdtCallback\000"
 5461      73576474 
 5461      43616C6C 
 5461      6261636B 
 5461      00
 5462              	.LASF40:
 5463 0040 43795379 		.ascii	"CySysWdtSetMode\000"
 5463      73576474 
 5463      5365744D 
 5463      6F646500 
 5464              	.LASF36:
 5465 0050 43795379 		.ascii	"CySysWdtUnlock\000"
 5465      73576474 
 5465      556E6C6F 
 5465      636B00
 5466              	.LASF80:
 5467 005f 43795379 		.ascii	"CySysWatchdogFeed\000"
 5467      73576174 
 5467      6368646F 
 5467      67466565 
 5467      6400
 5468              	.LASF39:
 5469 0071 636F756E 		.ascii	"counterNum\000"
 5469      7465724E 
 5469      756D00
 5470              	.LASF63:
 5471 007c 43795379 		.ascii	"CySysClkLfclkPosedgeCatch\000"
 5471      73436C6B 
 5471      4C66636C 
 5471      6B506F73 
 5471      65646765 
 5472              	.LASF58:
 5473 0096 43795379 		.ascii	"CySysWdtGetCascade\000"
 5473      73576474 
 5473      47657443 
 5473      61736361 
 5473      646500
 5474              	.LASF97:
 5475 00a9 474E5520 		.ascii	"GNU C99 5.4.1 20160609 (release) [ARM/embedded-5-br"
 5475      43393920 
 5475      352E342E 
 5475      31203230 
 5475      31363036 
 5476 00dc 616E6368 		.ascii	"anch revision 237715] -mcpu=cortex-m0 -mthumb -g -O"
 5476      20726576 
 5476      6973696F 
 5476      6E203233 
 5476      37373135 
 5477 010f 67202D73 		.ascii	"g -std=gnu99 -ffunction-sections -ffat-lto-objects\000"
 5477      74643D67 
 5477      6E753939 
 5477      202D6666 
 5477      756E6374 
 5478              	.LASF25:
 5479 0142 43795379 		.ascii	"CySysClkIloStartMeasurement\000"
ARM GAS  C:\Users\VIDEOH~1\AppData\Local\Temp\cc9HpMPY.s 			page 159


 5479      73436C6B 
 5479      496C6F53 
 5479      74617274 
 5479      4D656173 
 5480              	.LASF87:
 5481 015e 6C66636C 		.ascii	"lfclkPosedgeWdtCounter0Enabled\000"
 5481      6B506F73 
 5481      65646765 
 5481      57647443 
 5481      6F756E74 
 5482              	.LASF8:
 5483 017d 6C6F6E67 		.ascii	"long long unsigned int\000"
 5483      206C6F6E 
 5483      6720756E 
 5483      7369676E 
 5483      65642069 
 5484              	.LASF7:
 5485 0194 6C6F6E67 		.ascii	"long long int\000"
 5485      206C6F6E 
 5485      6720696E 
 5485      7400
 5486              	.LASF1:
 5487 01a2 7369676E 		.ascii	"signed char\000"
 5487      65642063 
 5487      68617200 
 5488              	.LASF73:
 5489 01ae 66756E63 		.ascii	"function\000"
 5489      74696F6E 
 5489      00
 5490              	.LASF35:
 5491 01b7 43795379 		.ascii	"CySysWdtLock\000"
 5491      73576474 
 5491      4C6F636B 
 5491      00
 5492              	.LASF20:
 5493 01c4 63795764 		.ascii	"cyWdtCallback\000"
 5493      7443616C 
 5493      6C626163 
 5493      6B00
 5494              	.LASF96:
 5495 01d2 43794465 		.ascii	"CyDelayUs\000"
 5495      6C617955 
 5495      7300
 5496              	.LASF19:
 5497 01dc 63795F73 		.ascii	"cy_sys_timer_delaytype_enum\000"
 5497      79735F74 
 5497      696D6572 
 5497      5F64656C 
 5497      61797479 
 5498              	.LASF57:
 5499 01f8 62697473 		.ascii	"bits\000"
 5499      00
 5500              	.LASF5:
 5501 01fd 6C6F6E67 		.ascii	"long int\000"
 5501      20696E74 
 5501      00
 5502              	.LASF55:
ARM GAS  C:\Users\VIDEOH~1\AppData\Local\Temp\cc9HpMPY.s 			page 160


 5503 0206 72656756 		.ascii	"regValue\000"
 5503      616C7565 
 5503      00
 5504              	.LASF9:
 5505 020f 75696E74 		.ascii	"uint8\000"
 5505      3800
 5506              	.LASF45:
 5507 0215 656E6162 		.ascii	"enable\000"
 5507      6C6500
 5508              	.LASF13:
 5509 021c 646F7562 		.ascii	"double\000"
 5509      6C6500
 5510              	.LASF28:
 5511 0223 636F6D70 		.ascii	"compensatedCycles\000"
 5511      656E7361 
 5511      74656443 
 5511      79636C65 
 5511      7300
 5512              	.LASF66:
 5513 0235 43795379 		.ascii	"CySysClkIloStop\000"
 5513      73436C6B 
 5513      496C6F53 
 5513      746F7000 
 5514              	.LASF29:
 5515 0245 696C6F43 		.ascii	"iloCompensatedCycles\000"
 5515      6F6D7065 
 5515      6E736174 
 5515      65644379 
 5515      636C6573 
 5516              	.LASF71:
 5517 025a 636F756E 		.ascii	"countersMask\000"
 5517      74657273 
 5517      4D61736B 
 5517      00
 5518              	.LASF11:
 5519 0267 75696E74 		.ascii	"uint32\000"
 5519      333200
 5520              	.LASF26:
 5521 026e 43795379 		.ascii	"CySysClkIloStopMeasurement\000"
 5521      73436C6B 
 5521      496C6F53 
 5521      746F704D 
 5521      65617375 
 5522              	.LASF74:
 5523 0289 70726576 		.ascii	"prevCallback\000"
 5523      43616C6C 
 5523      6261636B 
 5523      00
 5524              	.LASF53:
 5525 0296 43795379 		.ascii	"CySysWdtSetMatch\000"
 5525      73576474 
 5525      5365744D 
 5525      61746368 
 5525      00
 5526              	.LASF52:
 5527 02a7 636F756E 		.ascii	"countersEnableStatus\000"
 5527      74657273 
ARM GAS  C:\Users\VIDEOH~1\AppData\Local\Temp\cc9HpMPY.s 			page 161


 5527      456E6162 
 5527      6C655374 
 5527      61747573 
 5528              	.LASF90:
 5529 02bc 77647449 		.ascii	"wdtIsrMask\000"
 5529      73724D61 
 5529      736B00
 5530              	.LASF99:
 5531 02c7 443A5C31 		.ascii	"D:\\1_work\\my_project\\ReloadPro\\psoc42boot\\Boot"
 5531      5F776F72 
 5531      6B5C6D79 
 5531      5F70726F 
 5531      6A656374 
 5532 02f5 6C6F6164 		.ascii	"loader.cydsn\000"
 5532      65722E63 
 5532      7964736E 
 5532      00
 5533              	.LASF47:
 5534 0302 43795379 		.ascii	"CySysWdtEnable\000"
 5534      73576474 
 5534      456E6162 
 5534      6C6500
 5535              	.LASF72:
 5536 0311 43795379 		.ascii	"CySysWdtSetInterruptCallback\000"
 5536      73576474 
 5536      53657449 
 5536      6E746572 
 5536      72757074 
 5537              	.LASF48:
 5538 032e 636F756E 		.ascii	"counterMask\000"
 5538      7465724D 
 5538      61736B00 
 5539              	.LASF46:
 5540 033a 43795379 		.ascii	"CySysWdtGetClearOnMatch\000"
 5540      73576474 
 5540      47657443 
 5540      6C656172 
 5540      4F6E4D61 
 5541              	.LASF0:
 5542 0352 756E7369 		.ascii	"unsigned int\000"
 5542      676E6564 
 5542      20696E74 
 5542      00
 5543              	.LASF64:
 5544 035f 66697273 		.ascii	"firstCount\000"
 5544      74436F75 
 5544      6E7400
 5545              	.LASF76:
 5546 036a 72657443 		.ascii	"retCallback\000"
 5546      616C6C62 
 5546      61636B00 
 5547              	.LASF27:
 5548 0376 64657369 		.ascii	"desiredDelay\000"
 5548      72656444 
 5548      656C6179 
 5548      00
 5549              	.LASF6:
ARM GAS  C:\Users\VIDEOH~1\AppData\Local\Temp\cc9HpMPY.s 			page 162


 5550 0383 6C6F6E67 		.ascii	"long unsigned int\000"
 5550      20756E73 
 5550      69676E65 
 5550      6420696E 
 5550      7400
 5551              	.LASF34:
 5552 0395 696E7465 		.ascii	"interruptState\000"
 5552      72727570 
 5552      74537461 
 5552      746500
 5553              	.LASF86:
 5554 03a4 6D617463 		.ascii	"matchValue\000"
 5554      6856616C 
 5554      756500
 5555              	.LASF62:
 5556 03af 43795379 		.ascii	"CySysClkLfclkPosedgeRestore\000"
 5556      73436C6B 
 5556      4C66636C 
 5556      6B506F73 
 5556      65646765 
 5557              	.LASF77:
 5558 03cb 43795379 		.ascii	"CySysWdtEnableCounterIsr\000"
 5558      73576474 
 5558      456E6162 
 5558      6C65436F 
 5558      756E7465 
 5559              	.LASF4:
 5560 03e4 73686F72 		.ascii	"short unsigned int\000"
 5560      7420756E 
 5560      7369676E 
 5560      65642069 
 5560      6E7400
 5561              	.LASF38:
 5562 03f7 43795379 		.ascii	"CySysWdtGetEnabledStatus\000"
 5562      73576474 
 5562      47657445 
 5562      6E61626C 
 5562      65645374 
 5563              	.LASF75:
 5564 0410 43795379 		.ascii	"CySysWdtGetInterruptCallback\000"
 5564      73576474 
 5564      47657449 
 5564      6E746572 
 5564      72757074 
 5565              	.LASF79:
 5566 042d 43795379 		.ascii	"CySysWdtIsr\000"
 5566      73576474 
 5566      49737200 
 5567              	.LASF24:
 5568 0439 43795379 		.ascii	"CySysClkIloStart\000"
 5568      73436C6B 
 5568      496C6F53 
 5568      74617274 
 5568      00
 5569              	.LASF56:
 5570 044a 43795379 		.ascii	"CySysWdtSetToggleBit\000"
 5570      73576474 
ARM GAS  C:\Users\VIDEOH~1\AppData\Local\Temp\cc9HpMPY.s 			page 163


 5570      53657454 
 5570      6F67676C 
 5570      65426974 
 5571              	.LASF16:
 5572 045f 72656733 		.ascii	"reg32\000"
 5572      3200
 5573              	.LASF93:
 5574 0465 4379456E 		.ascii	"CyEnterCriticalSection\000"
 5574      74657243 
 5574      72697469 
 5574      63616C53 
 5574      65637469 
 5575              	.LASF83:
 5576 047c 746D7056 		.ascii	"tmpValue\000"
 5576      616C7565 
 5576      00
 5577              	.LASF33:
 5578 0485 72657475 		.ascii	"returnStatus\000"
 5578      726E5374 
 5578      61747573 
 5578      00
 5579              	.LASF21:
 5580 0492 73697A65 		.ascii	"sizetype\000"
 5580      74797065 
 5580      00
 5581              	.LASF60:
 5582 049b 43795379 		.ascii	"CySysWdtGetMatch\000"
 5582      73576474 
 5582      4765744D 
 5582      61746368 
 5582      00
 5583              	.LASF54:
 5584 04ac 6D617463 		.ascii	"match\000"
 5584      6800
 5585              	.LASF17:
 5586 04b2 43595F53 		.ascii	"CY_SYS_TIMER_WAIT\000"
 5586      59535F54 
 5586      494D4552 
 5586      5F574149 
 5586      5400
 5587              	.LASF32:
 5588 04c4 63686563 		.ascii	"checkStatus\000"
 5588      6B537461 
 5588      74757300 
 5589              	.LASF100:
 5590 04d0 63796465 		.ascii	"cydelayFreqHz\000"
 5590      6C617946 
 5590      72657148 
 5590      7A00
 5591              	.LASF70:
 5592 04de 43795379 		.ascii	"CySysWdtResetCounters\000"
 5592      73576474 
 5592      52657365 
 5592      74436F75 
 5592      6E746572 
 5593              	.LASF68:
 5594 04f4 43795379 		.ascii	"CySysWdtClearInterrupt\000"
ARM GAS  C:\Users\VIDEOH~1\AppData\Local\Temp\cc9HpMPY.s 			page 164


 5594      73576474 
 5594      436C6561 
 5594      72496E74 
 5594      65727275 
 5595              	.LASF12:
 5596 050b 666C6F61 		.ascii	"float\000"
 5596      7400
 5597              	.LASF81:
 5598 0511 43795379 		.ascii	"CySysTimerDelayUntilMatch\000"
 5598      7354696D 
 5598      65724465 
 5598      6C617955 
 5598      6E74696C 
 5599              	.LASF84:
 5600 052b 43795379 		.ascii	"CySysTimerDelay\000"
 5600      7354696D 
 5600      65724465 
 5600      6C617900 
 5601              	.LASF23:
 5602 053b 43795379 		.ascii	"CySysWdtLocked\000"
 5602      73576474 
 5602      4C6F636B 
 5602      656400
 5603              	.LASF95:
 5604 054a 43794861 		.ascii	"CyHalt\000"
 5604      6C7400
 5605              	.LASF2:
 5606 0551 756E7369 		.ascii	"unsigned char\000"
 5606      676E6564 
 5606      20636861 
 5606      7200
 5607              	.LASF31:
 5608 055f 636F6D70 		.ascii	"compensateRunningStatus\000"
 5608      656E7361 
 5608      74655275 
 5608      6E6E696E 
 5608      67537461 
 5609              	.LASF65:
 5610 0577 6C66636C 		.ascii	"lfclkPosedgeEnabledWdtCounter\000"
 5610      6B506F73 
 5610      65646765 
 5610      456E6162 
 5610      6C656457 
 5611              	.LASF85:
 5612 0595 64656C61 		.ascii	"delay\000"
 5612      7900
 5613              	.LASF3:
 5614 059b 73686F72 		.ascii	"short int\000"
 5614      7420696E 
 5614      7400
 5615              	.LASF82:
 5616 05a5 64656C61 		.ascii	"delayType\000"
 5616      79547970 
 5616      6500
 5617              	.LASF49:
 5618 05af 43795379 		.ascii	"CySysWdtDisable\000"
 5618      73576474 
ARM GAS  C:\Users\VIDEOH~1\AppData\Local\Temp\cc9HpMPY.s 			page 165


 5618      44697361 
 5618      626C6500 
 5619              	.LASF22:
 5620 05bf 43795379 		.ascii	"CySysClkIloEnabled\000"
 5620      73436C6B 
 5620      496C6F45 
 5620      6E61626C 
 5620      656400
 5621              	.LASF67:
 5622 05d2 43795379 		.ascii	"CySysWdtGetInterruptSource\000"
 5622      73576474 
 5622      47657449 
 5622      6E746572 
 5622      72757074 
 5623              	.LASF98:
 5624 05ed 47656E65 		.ascii	"Generated_Source\\PSoC4\\CyLFClk.c\000"
 5624      72617465 
 5624      645F536F 
 5624      75726365 
 5624      5C50536F 
 5625              	.LASF78:
 5626 060e 43795379 		.ascii	"CySysWdtDisableCounterIsr\000"
 5626      73576474 
 5626      44697361 
 5626      626C6543 
 5626      6F756E74 
 5627              	.LASF14:
 5628 0628 63686172 		.ascii	"char\000"
 5628      00
 5629              	.LASF41:
 5630 062d 6D6F6465 		.ascii	"mode\000"
 5630      00
 5631              	.LASF61:
 5632 0632 43795379 		.ascii	"CySysWdtGetCount\000"
 5632      73576474 
 5632      47657443 
 5632      6F756E74 
 5632      00
 5633              	.LASF89:
 5634 0643 64697361 		.ascii	"disableServicedIsr\000"
 5634      626C6553 
 5634      65727669 
 5634      63656449 
 5634      737200
 5635              	.LASF44:
 5636 0656 43795379 		.ascii	"CySysWdtSetClearOnMatch\000"
 5636      73576474 
 5636      53657443 
 5636      6C656172 
 5636      4F6E4D61 
 5637              	.LASF50:
 5638 066e 43795379 		.ascii	"CySysWdtSetCascade\000"
 5638      73576474 
 5638      53657443 
 5638      61736361 
 5638      646500
 5639              	.LASF43:
ARM GAS  C:\Users\VIDEOH~1\AppData\Local\Temp\cc9HpMPY.s 			page 166


 5640 0681 43795379 		.ascii	"CySysWdtGetMode\000"
 5640      73576474 
 5640      4765744D 
 5640      6F646500 
 5641              	.LASF30:
 5642 0691 64657369 		.ascii	"desiredDelayInCounts\000"
 5642      72656444 
 5642      656C6179 
 5642      496E436F 
 5642      756E7473 
 5643              	.LASF42:
 5644 06a6 636F6E66 		.ascii	"configRegValue\000"
 5644      69675265 
 5644      6756616C 
 5644      756500
 5645              	.LASF69:
 5646 06b5 7764744C 		.ascii	"wdtLockState\000"
 5646      6F636B53 
 5646      74617465 
 5646      00
 5647              	.LASF88:
 5648 06c2 6C66636C 		.ascii	"lfclkPosedgeWdtCounter0Mode\000"
 5648      6B506F73 
 5648      65646765 
 5648      57647443 
 5648      6F756E74 
 5649              	.LASF51:
 5650 06de 63617363 		.ascii	"cascadeMask\000"
 5650      6164654D 
 5650      61736B00 
 5651              	.LASF15:
 5652 06ea 63797374 		.ascii	"cystatus\000"
 5652      61747573 
 5652      00
 5653              	.LASF59:
 5654 06f3 43795379 		.ascii	"CySysWdtGetToggleBit\000"
 5654      73576474 
 5654      47657454 
 5654      6F67676C 
 5654      65426974 
 5655              	.LASF37:
 5656 0708 43795379 		.ascii	"CySysClkIloCompensate\000"
 5656      73436C6B 
 5656      496C6F43 
 5656      6F6D7065 
 5656      6E736174 
 5657              	.LASF18:
 5658 071e 43595F53 		.ascii	"CY_SYS_TIMER_INTERRUPT\000"
 5658      59535F54 
 5658      494D4552 
 5658      5F494E54 
 5658      45525255 
 5659              		.ident	"GCC: (GNU Tools for ARM Embedded Processors) 5.4.1 20160609 (release) [ARM/embedded-5-bran
