ARM GAS  C:\Users\VIDEOH~1\AppData\Local\Temp\ccZf7krf.s 			page 1


   1              		.syntax unified
   2              		.cpu cortex-m0
   3              		.fpu softvfp
   4              		.eabi_attribute 20, 1
   5              		.eabi_attribute 21, 1
   6              		.eabi_attribute 23, 3
   7              		.eabi_attribute 24, 1
   8              		.eabi_attribute 25, 1
   9              		.eabi_attribute 26, 1
  10              		.eabi_attribute 30, 1
  11              		.eabi_attribute 34, 0
  12              		.eabi_attribute 18, 4
  13              		.thumb
  14              		.syntax unified
  15              		.file	"main.c"
  16              		.text
  17              	.Ltext0:
  18              		.cfi_sections	.debug_frame
  19              		.section	.text.CyBtldrCommStart,"ax",%progbits
  20              		.align	2
  21              		.global	CyBtldrCommStart
  22              		.code	16
  23              		.thumb_func
  24              		.type	CyBtldrCommStart, %function
  25              	CyBtldrCommStart:
  26              	.LFB32:
  27              		.file 1 "main.c"
   1:main.c        **** #include <project.h>
   2:main.c        **** 
   3:main.c        **** void CyBtldrCommStart(void) {
  28              		.loc 1 3 0
  29              		.cfi_startproc
  30              		@ args = 0, pretend = 0, frame = 0
  31              		@ frame_needed = 0, uses_anonymous_args = 0
  32 0000 10B5     		push	{r4, lr}
  33              		.cfi_def_cfa_offset 8
  34              		.cfi_offset 4, -8
  35              		.cfi_offset 14, -4
   4:main.c        **** 	UART_Start();
  36              		.loc 1 4 0
  37 0002 FFF7FEFF 		bl	UART_Start
  38              	.LVL0:
   5:main.c        **** }
  39              		.loc 1 5 0
  40              		@ sp needed
  41 0006 10BD     		pop	{r4, pc}
  42              		.cfi_endproc
  43              	.LFE32:
  44              		.size	CyBtldrCommStart, .-CyBtldrCommStart
  45              		.section	.text.CyBtldrCommStop,"ax",%progbits
  46              		.align	2
  47              		.global	CyBtldrCommStop
  48              		.code	16
  49              		.thumb_func
  50              		.type	CyBtldrCommStop, %function
  51              	CyBtldrCommStop:
  52              	.LFB33:
ARM GAS  C:\Users\VIDEOH~1\AppData\Local\Temp\ccZf7krf.s 			page 2


   6:main.c        **** 
   7:main.c        **** void CyBtldrCommStop (void) {
  53              		.loc 1 7 0
  54              		.cfi_startproc
  55              		@ args = 0, pretend = 0, frame = 0
  56              		@ frame_needed = 0, uses_anonymous_args = 0
  57 0000 10B5     		push	{r4, lr}
  58              		.cfi_def_cfa_offset 8
  59              		.cfi_offset 4, -8
  60              		.cfi_offset 14, -4
   8:main.c        **** 	UART_Stop();
  61              		.loc 1 8 0
  62 0002 FFF7FEFF 		bl	UART_Stop
  63              	.LVL1:
   9:main.c        **** }
  64              		.loc 1 9 0
  65              		@ sp needed
  66 0006 10BD     		pop	{r4, pc}
  67              		.cfi_endproc
  68              	.LFE33:
  69              		.size	CyBtldrCommStop, .-CyBtldrCommStop
  70              		.section	.text.CyBtldrCommReset,"ax",%progbits
  71              		.align	2
  72              		.global	CyBtldrCommReset
  73              		.code	16
  74              		.thumb_func
  75              		.type	CyBtldrCommReset, %function
  76              	CyBtldrCommReset:
  77              	.LFB34:
  10:main.c        **** 
  11:main.c        **** void CyBtldrCommReset(void) {
  78              		.loc 1 11 0
  79              		.cfi_startproc
  80              		@ args = 0, pretend = 0, frame = 0
  81              		@ frame_needed = 0, uses_anonymous_args = 0
  82 0000 10B5     		push	{r4, lr}
  83              		.cfi_def_cfa_offset 8
  84              		.cfi_offset 4, -8
  85              		.cfi_offset 14, -4
  12:main.c        **** 	UART_SpiUartClearRxBuffer();
  86              		.loc 1 12 0
  87 0002 FFF7FEFF 		bl	UART_SpiUartClearRxBuffer
  88              	.LVL2:
  13:main.c        **** 	UART_SpiUartClearTxBuffer();
  89              		.loc 1 13 0
  90 0006 FFF7FEFF 		bl	UART_SpiUartClearTxBuffer
  91              	.LVL3:
  14:main.c        **** }
  92              		.loc 1 14 0
  93              		@ sp needed
  94 000a 10BD     		pop	{r4, pc}
  95              		.cfi_endproc
  96              	.LFE34:
  97              		.size	CyBtldrCommReset, .-CyBtldrCommReset
  98              		.section	.text.CyBtldrCommWrite,"ax",%progbits
  99              		.align	2
 100              		.global	CyBtldrCommWrite
ARM GAS  C:\Users\VIDEOH~1\AppData\Local\Temp\ccZf7krf.s 			page 3


 101              		.code	16
 102              		.thumb_func
 103              		.type	CyBtldrCommWrite, %function
 104              	CyBtldrCommWrite:
 105              	.LFB35:
  15:main.c        **** 
  16:main.c        **** cystatus CyBtldrCommWrite(uint8* buffer, uint16 size, uint16* count, uint8 timeOut) {
 106              		.loc 1 16 0
 107              		.cfi_startproc
 108              		@ args = 0, pretend = 0, frame = 0
 109              		@ frame_needed = 0, uses_anonymous_args = 0
 110              	.LVL4:
 111 0000 70B5     		push	{r4, r5, r6, lr}
 112              		.cfi_def_cfa_offset 16
 113              		.cfi_offset 4, -16
 114              		.cfi_offset 5, -12
 115              		.cfi_offset 6, -8
 116              		.cfi_offset 14, -4
 117 0002 0600     		movs	r6, r0
 118 0004 0D00     		movs	r5, r1
 119 0006 1400     		movs	r4, r2
  17:main.c        **** 	for(*count = 0; *count < size; (*count)++) {
 120              		.loc 1 17 0
 121 0008 0023     		movs	r3, #0
 122              	.LVL5:
 123 000a 1380     		strh	r3, [r2]
 124 000c 05E0     		b	.L5
 125              	.LVL6:
 126              	.L6:
  18:main.c        **** 		UART_UartPutChar(buffer[*count]);
 127              		.loc 1 18 0 discriminator 3
 128 000e F05C     		ldrb	r0, [r6, r3]
 129 0010 FFF7FEFF 		bl	UART_SpiUartWriteTxData
 130              	.LVL7:
  17:main.c        **** 	for(*count = 0; *count < size; (*count)++) {
 131              		.loc 1 17 0 discriminator 3
 132 0014 2388     		ldrh	r3, [r4]
 133 0016 0133     		adds	r3, r3, #1
 134 0018 2380     		strh	r3, [r4]
 135              	.L5:
  17:main.c        **** 	for(*count = 0; *count < size; (*count)++) {
 136              		.loc 1 17 0 is_stmt 0 discriminator 1
 137 001a 2388     		ldrh	r3, [r4]
 138 001c AB42     		cmp	r3, r5
 139 001e F6D3     		bcc	.L6
  19:main.c        **** 	}
  20:main.c        **** 	
  21:main.c        **** 	return CYRET_SUCCESS;
  22:main.c        **** }
 140              		.loc 1 22 0 is_stmt 1
 141 0020 0020     		movs	r0, #0
 142              		@ sp needed
 143              	.LVL8:
 144              	.LVL9:
 145 0022 70BD     		pop	{r4, r5, r6, pc}
 146              		.cfi_endproc
 147              	.LFE35:
ARM GAS  C:\Users\VIDEOH~1\AppData\Local\Temp\ccZf7krf.s 			page 4


 148              		.size	CyBtldrCommWrite, .-CyBtldrCommWrite
 149              		.section	.text.CyBtldrCommRead,"ax",%progbits
 150              		.align	2
 151              		.global	CyBtldrCommRead
 152              		.code	16
 153              		.thumb_func
 154              		.type	CyBtldrCommRead, %function
 155              	CyBtldrCommRead:
 156              	.LFB36:
  23:main.c        **** 
  24:main.c        **** cystatus CyBtldrCommRead (uint8* buffer, uint16 size, uint16* count, uint8 timeOut) {
 157              		.loc 1 24 0
 158              		.cfi_startproc
 159              		@ args = 0, pretend = 0, frame = 0
 160              		@ frame_needed = 0, uses_anonymous_args = 0
 161              	.LVL10:
 162 0000 F0B5     		push	{r4, r5, r6, r7, lr}
 163              		.cfi_def_cfa_offset 20
 164              		.cfi_offset 4, -20
 165              		.cfi_offset 5, -16
 166              		.cfi_offset 6, -12
 167              		.cfi_offset 7, -8
 168              		.cfi_offset 14, -4
 169 0002 4746     		mov	r7, r8
 170 0004 80B4     		push	{r7}
 171              		.cfi_def_cfa_offset 24
 172              		.cfi_offset 8, -24
 173 0006 0700     		movs	r7, r0
 174 0008 0E00     		movs	r6, r1
 175 000a 1500     		movs	r5, r2
  25:main.c        **** 	int timeoutUs = timeOut * 10000;
 176              		.loc 1 25 0
 177 000c 114A     		ldr	r2, .L13
 178              	.LVL11:
 179 000e 5A43     		muls	r2, r3
 180 0010 1400     		movs	r4, r2
 181              	.LVL12:
  26:main.c        **** 	cystatus status = CYRET_TIMEOUT;
  27:main.c        **** 	
  28:main.c        **** 	*count = 0;
 182              		.loc 1 28 0
 183 0012 0023     		movs	r3, #0
 184              	.LVL13:
 185 0014 2B80     		strh	r3, [r5]
  26:main.c        **** 	cystatus status = CYRET_TIMEOUT;
 186              		.loc 1 26 0
 187 0016 1033     		adds	r3, r3, #16
 188 0018 9846     		mov	r8, r3
  29:main.c        **** 	while(*count < size && timeoutUs >= 0) {
 189              		.loc 1 29 0
 190 001a 12E0     		b	.L8
 191              	.LVL14:
 192              	.L12:
  30:main.c        **** 		if(UART_SpiUartGetRxBufferSize() > 0) {
 193              		.loc 1 30 0
 194 001c FFF7FEFF 		bl	UART_SpiUartGetRxBufferSize
 195              	.LVL15:
ARM GAS  C:\Users\VIDEOH~1\AppData\Local\Temp\ccZf7krf.s 			page 5


 196 0020 0028     		cmp	r0, #0
 197 0022 0AD0     		beq	.L9
  31:main.c        **** 			buffer[(*count)++] = UART_UartGetByte();
 198              		.loc 1 31 0
 199 0024 2B88     		ldrh	r3, [r5]
 200 0026 5A1C     		adds	r2, r3, #1
 201 0028 2A80     		strh	r2, [r5]
 202 002a FC18     		adds	r4, r7, r3
 203              	.LVL16:
 204 002c FFF7FEFF 		bl	UART_UartGetByte
 205              	.LVL17:
 206 0030 2070     		strb	r0, [r4]
 207              	.LVL18:
  32:main.c        **** 			// Switch to byte-to-byte timeout and mark as success
  33:main.c        **** 			timeoutUs = 10000; //10mS
  34:main.c        **** 			status = CYRET_SUCCESS;
 208              		.loc 1 34 0
 209 0032 0023     		movs	r3, #0
 210 0034 9846     		mov	r8, r3
  33:main.c        **** 			status = CYRET_SUCCESS;
 211              		.loc 1 33 0
 212 0036 074C     		ldr	r4, .L13
 213 0038 03E0     		b	.L8
 214              	.LVL19:
 215              	.L9:
  35:main.c        **** 		} else {
  36:main.c        **** 			CyDelayUs(10);
 216              		.loc 1 36 0
 217 003a 0A20     		movs	r0, #10
 218 003c FFF7FEFF 		bl	CyDelayUs
 219              	.LVL20:
  37:main.c        **** 			timeoutUs -= 10;
 220              		.loc 1 37 0
 221 0040 0A3C     		subs	r4, r4, #10
 222              	.LVL21:
 223              	.L8:
  29:main.c        **** 		if(UART_SpiUartGetRxBufferSize() > 0) {
 224              		.loc 1 29 0
 225 0042 2B88     		ldrh	r3, [r5]
 226 0044 B342     		cmp	r3, r6
 227 0046 01D2     		bcs	.L11
  29:main.c        **** 		if(UART_SpiUartGetRxBufferSize() > 0) {
 228              		.loc 1 29 0 is_stmt 0 discriminator 1
 229 0048 002C     		cmp	r4, #0
 230 004a E7DA     		bge	.L12
 231              	.L11:
  38:main.c        **** 		}
  39:main.c        **** 	}
  40:main.c        **** 	
  41:main.c        **** 	return status;
  42:main.c        **** }
 232              		.loc 1 42 0 is_stmt 1
 233 004c 4046     		mov	r0, r8
 234              		@ sp needed
 235              	.LVL22:
 236              	.LVL23:
 237              	.LVL24:
ARM GAS  C:\Users\VIDEOH~1\AppData\Local\Temp\ccZf7krf.s 			page 6


 238              	.LVL25:
 239 004e 04BC     		pop	{r2}
 240 0050 9046     		mov	r8, r2
 241 0052 F0BD     		pop	{r4, r5, r6, r7, pc}
 242              	.L14:
 243              		.align	2
 244              	.L13:
 245 0054 10270000 		.word	10000
 246              		.cfi_endproc
 247              	.LFE36:
 248              		.size	CyBtldrCommRead, .-CyBtldrCommRead
 249              		.section	.text.main,"ax",%progbits
 250              		.align	2
 251              		.global	main
 252              		.code	16
 253              		.thumb_func
 254              		.type	main, %function
 255              	main:
 256              	.LFB37:
  43:main.c        **** 
  44:main.c        **** int main()
  45:main.c        **** {
 257              		.loc 1 45 0
 258              		.cfi_startproc
 259              		@ args = 0, pretend = 0, frame = 0
 260              		@ frame_needed = 0, uses_anonymous_args = 0
 261 0000 10B5     		push	{r4, lr}
 262              		.cfi_def_cfa_offset 8
 263              		.cfi_offset 4, -8
 264              		.cfi_offset 14, -4
  46:main.c        ****     if(Bootloader_GET_RUN_TYPE == Bootloader_START_BTLDR)
 265              		.loc 1 46 0
 266 0002 0C4B     		ldr	r3, .L19
 267 0004 1B68     		ldr	r3, [r3]
 268 0006 402B     		cmp	r3, #64
 269 0008 01D1     		bne	.L16
  47:main.c        **** 		Bootloader_Start();
 270              		.loc 1 47 0
 271 000a FFF7FEFF 		bl	Bootloader_Start
 272              	.LVL26:
 273              	.L16:
  48:main.c        **** 	
  49:main.c        **** 	CyDelay(1);
 274              		.loc 1 49 0
 275 000e 0120     		movs	r0, #1
 276 0010 FFF7FEFF 		bl	CyDelay
 277              	.LVL27:
  50:main.c        ****     if(Button_Read()) {
 278              		.loc 1 50 0
 279 0014 FFF7FEFF 		bl	Button_Read
 280              	.LVL28:
 281 0018 0028     		cmp	r0, #0
 282 001a 03D0     		beq	.L17
  51:main.c        ****         // No button press, run app
  52:main.c        **** 		Bootloader_SET_RUN_TYPE(Bootloader_START_APP);
 283              		.loc 1 52 0
 284 001c 8022     		movs	r2, #128
ARM GAS  C:\Users\VIDEOH~1\AppData\Local\Temp\ccZf7krf.s 			page 7


 285 001e 054B     		ldr	r3, .L19
 286 0020 1A60     		str	r2, [r3]
 287 0022 02E0     		b	.L18
 288              	.L17:
  53:main.c        ****     } else {
  54:main.c        ****         // Button is being pressed; start bootloader
  55:main.c        **** 		Bootloader_SET_RUN_TYPE(Bootloader_START_BTLDR);
 289              		.loc 1 55 0
 290 0024 4022     		movs	r2, #64
 291 0026 034B     		ldr	r3, .L19
 292 0028 1A60     		str	r2, [r3]
 293              	.L18:
  56:main.c        ****     }
  57:main.c        ****     Bootloader_Start();
 294              		.loc 1 57 0
 295 002a FFF7FEFF 		bl	Bootloader_Start
 296              	.LVL29:
  58:main.c        **** }
 297              		.loc 1 58 0
 298 002e 0020     		movs	r0, #0
 299              		@ sp needed
 300 0030 10BD     		pop	{r4, pc}
 301              	.L20:
 302 0032 C046     		.align	2
 303              	.L19:
 304 0034 00000000 		.word	cyBtldrRunType
 305              		.cfi_endproc
 306              	.LFE37:
 307              		.size	main, .-main
 308              		.text
 309              	.Letext0:
 310              		.file 2 "Generated_Source\\PSoC4/cytypes.h"
 311              		.file 3 "Generated_Source\\PSoC4/UART.h"
 312              		.file 4 "Generated_Source\\PSoC4/UART_SPI_UART.h"
 313              		.file 5 "Generated_Source\\PSoC4/CyLib.h"
 314              		.file 6 "Generated_Source\\PSoC4/Bootloader.h"
 315              		.file 7 "Generated_Source\\PSoC4/Button.h"