ARM GAS  C:\Users\VIDEOH~1\AppData\Local\Temp\cc3YwCM0.s 			page 1


   1              		.syntax unified
   2              		.cpu cortex-m0
   3              		.fpu softvfp
   4              		.eabi_attribute 20, 1
   5              		.eabi_attribute 21, 1
   6              		.eabi_attribute 23, 3
   7              		.eabi_attribute 24, 1
   8              		.eabi_attribute 25, 1
   9              		.eabi_attribute 26, 1
  10              		.eabi_attribute 30, 1
  11              		.eabi_attribute 34, 0
  12              		.eabi_attribute 18, 4
  13              		.thumb
  14              		.syntax unified
  15              		.file	"adctask.c"
  16              		.text
  17              	.Ltext0:
  18              		.cfi_sections	.debug_frame
  19              		.section	.text.start_adc,"ax",%progbits
  20              		.align	2
  21              		.global	start_adc
  22              		.code	16
  23              		.thumb_func
  24              		.type	start_adc, %function
  25              	start_adc:
  26              	.LFB33:
  27              		.file 1 "adctask.c"
   1:adctask.c     **** /* ========================================
   2:adctask.c     ****  *
   3:adctask.c     ****  * Copyright YOUR COMPANY, THE YEAR
   4:adctask.c     ****  * All Rights Reserved
   5:adctask.c     ****  * UNPUBLISHED, LICENSED SOFTWARE.
   6:adctask.c     ****  *
   7:adctask.c     ****  * CONFIDENTIAL AND PROPRIETARY INFORMATION
   8:adctask.c     ****  * WHICH IS THE PROPERTY OF your company.
   9:adctask.c     ****  *
  10:adctask.c     ****  * ========================================
  11:adctask.c     **** */
  12:adctask.c     **** #include "project.h"
  13:adctask.c     **** #include <FreeRTOS.h>
  14:adctask.c     **** #include <task.h>
  15:adctask.c     **** #include <stdlib.h>
  16:adctask.c     **** #include "tasks.h"
  17:adctask.c     **** #include "config.h"
  18:adctask.c     **** 
  19:adctask.c     **** static int total_voltage = 0;
  20:adctask.c     **** static int total_current = 0;
  21:adctask.c     **** static int total_microwatt_hours = 0;
  22:adctask.c     **** static int remainder_microwatt_ticks = 0;
  23:adctask.c     **** static int total_microamp_hours = 0;
  24:adctask.c     **** static int remainder_microamp_ticks = 0;
  25:adctask.c     **** static int dac_offset_correction = 0;
  26:adctask.c     **** static portTickType last_update = 0;
  27:adctask.c     **** static uint8 conversion_counter = 0;
  28:adctask.c     **** 
  29:adctask.c     **** uint8 adc_mix_ratio = ADC_MIX_RATIO;
  30:adctask.c     **** 
ARM GAS  C:\Users\VIDEOH~1\AppData\Local\Temp\cc3YwCM0.s 			page 2


  31:adctask.c     **** #define TICK_RATE_HR (3600 * configTICK_RATE_HZ);
  32:adctask.c     **** 
  33:adctask.c     **** CY_ISR(ADC_ISR_func) {
  34:adctask.c     **** 	uint32 isr_flags = ADC_SAR_INTR_MASKED_REG;
  35:adctask.c     **** 	if(isr_flags & ADC_EOS_MASK) {
  36:adctask.c     ****         if(conversion_counter < 100) {
  37:adctask.c     ****             // Regular ADC
  38:adctask.c     ****     		// Update IIR values for current and voltage
  39:adctask.c     ****     		total_current = total_current - (total_current >> adc_mix_ratio) + ADC_GetResult16(ADC_CHAN_C
  40:adctask.c     ****     		total_voltage = total_voltage - (total_voltage >> adc_mix_ratio) + ADC_GetResult16(ADC_CHAN_V
  41:adctask.c     ****     		
  42:adctask.c     **** #ifdef DAC_EC_FEEDBACK
  43:adctask.c     ****             if(!state.calibrating) {
  44:adctask.c     ****                 int error = get_current_usage() - get_current_setpoint();
  45:adctask.c     ****                 dac_offset_correction += error >> DAC_EC_MIX_RATIO;
  46:adctask.c     ****                 if(dac_offset_correction > MAX_DAC_EC) {
  47:adctask.c     ****                     dac_offset_correction = MAX_DAC_EC;
  48:adctask.c     ****                 } else if(dac_offset_correction < -MAX_DAC_EC) {
  49:adctask.c     ****                     dac_offset_correction = -MAX_DAC_EC;
  50:adctask.c     ****                 }
  51:adctask.c     ****                 set_current(state.current_setpoint);
  52:adctask.c     ****             }
  53:adctask.c     **** #endif
  54:adctask.c     ****       
  55:adctask.c     ****             // Update running totals of microamp-ticks and microwatt-ticks
  56:adctask.c     ****     		portTickType now = xTaskGetTickCount();
  57:adctask.c     ****             if(now > last_update) {
  58:adctask.c     ****         		int current = get_current_usage();
  59:adctask.c     ****                 int voltage = get_voltage();
  60:adctask.c     **** 
  61:adctask.c     ****         		remainder_microamp_ticks += current * (now - last_update);
  62:adctask.c     ****         		total_microamp_hours += remainder_microamp_ticks / TICK_RATE_HR;
  63:adctask.c     ****         		remainder_microamp_ticks %= TICK_RATE_HR;
  64:adctask.c     ****         		
  65:adctask.c     ****         		remainder_microwatt_ticks += (current / 1000) * (voltage / 1000) * (now - last_update);
  66:adctask.c     ****         		total_microwatt_hours += remainder_microwatt_ticks / TICK_RATE_HR;
  67:adctask.c     ****         		remainder_microwatt_ticks %= TICK_RATE_HR;
  68:adctask.c     **** 
  69:adctask.c     ****                 last_update = now;
  70:adctask.c     ****             }
  71:adctask.c     **** 
  72:adctask.c     ****             if(conversion_counter == 99) {
  73:adctask.c     ****                 // Switch to measuring FET current draw for overtemp; skip next conversion as inacc
  74:adctask.c     ****                 ADC_SetChanMask((1 << ADC_CHAN_OPAMP_OUT) | (1 << ADC_CHAN_FET_IN));
  75:adctask.c     ****                 ADC_SAR_CTRL_REG = (ADC_SAR_CTRL_REG & ~ADC_VREF_INTERNAL1024BYPASSED) | ADC_VREF_V
  76:adctask.c     ****             }
  77:adctask.c     ****         } else if(conversion_counter == 101) {
  78:adctask.c     ****             if(get_output_mode() == OUTPUT_MODE_FEEDBACK) {
  79:adctask.c     ****                 // Undervolt detection.
  80:adctask.c     ****                 if(state.lower_voltage_limit != -1 && get_current_setpoint() > 0 && get_voltage() <
  81:adctask.c     ****                     set_output_mode(OUTPUT_MODE_OFF);
  82:adctask.c     ****                     set_current(0);
  83:adctask.c     ****                     xQueueSendToBackFromISR(ui_queue, &((ui_event){
  84:adctask.c     ****                         .type=UI_EVENT_LIMIT,
  85:adctask.c     ****                         .int_arg=LIMIT_TYPE_UNDERVOLT,
  86:adctask.c     ****                         .when=xTaskGetTickCountFromISR()
  87:adctask.c     ****                     }), NULL);
ARM GAS  C:\Users\VIDEOH~1\AppData\Local\Temp\cc3YwCM0.s 			page 3


  88:adctask.c     ****                     xQueueOverwriteFromISR(comms_queue, &((comms_event){
  89:adctask.c     ****                         .type=COMMS_EVENT_UNDERVOLT,
  90:adctask.c     ****                     }), NULL);
  91:adctask.c     ****                 } else {
  92:adctask.c     ****                     // Overtemp detection.
  93:adctask.c     ****                     int16 opamp_out = ADC_GetResult16(ADC_CHAN_OPAMP_OUT);
  94:adctask.c     ****                     int16 fet_in = ADC_GetResult16(ADC_CHAN_FET_IN);
  95:adctask.c     ****                     if(abs(opamp_out - fet_in) > 4) {
  96:adctask.c     ****                         set_output_mode(OUTPUT_MODE_OFF);
  97:adctask.c     ****                         set_current(0);
  98:adctask.c     **** 
  99:adctask.c     ****                         xQueueSendToBackFromISR(ui_queue, &((ui_event){
 100:adctask.c     ****                             .type=UI_EVENT_LIMIT,
 101:adctask.c     ****                             .int_arg=LIMIT_TYPE_OVERTEMP,
 102:adctask.c     ****                             .when=xTaskGetTickCountFromISR()
 103:adctask.c     ****                         }), NULL);
 104:adctask.c     ****                         xQueueOverwriteFromISR(comms_queue, &((comms_event){
 105:adctask.c     ****                             .type=COMMS_EVENT_OVERTEMP,
 106:adctask.c     ****                         }), NULL);
 107:adctask.c     ****                     }
 108:adctask.c     ****                 }
 109:adctask.c     ****             }
 110:adctask.c     ****             ADC_SetChanMask((1 << ADC_CHAN_CURRENT_SENSE) | (1 << ADC_CHAN_VOLTAGE_SENSE) | (1 << A
 111:adctask.c     ****             ADC_SAR_CTRL_REG = (ADC_SAR_CTRL_REG & ~ADC_VREF_VDDA) | ADC_VREF_INTERNAL1024BYPASSED;
 112:adctask.c     ****         } else if(conversion_counter == 102) {
 113:adctask.c     ****             // Switch back to regular measurement; discard reading as inaccurate
 114:adctask.c     ****             conversion_counter = 0;
 115:adctask.c     ****         }
 116:adctask.c     ****         conversion_counter++;
 117:adctask.c     **** 	}
 118:adctask.c     **** 	ADC_SAR_INTR_REG = isr_flags;
 119:adctask.c     **** }
 120:adctask.c     **** 
 121:adctask.c     **** void start_adc() {
  28              		.loc 1 121 0
  29              		.cfi_startproc
  30              		@ args = 0, pretend = 0, frame = 0
  31              		@ frame_needed = 0, uses_anonymous_args = 0
  32 0000 10B5     		push	{r4, lr}
  33              		.cfi_def_cfa_offset 8
  34              		.cfi_offset 4, -8
  35              		.cfi_offset 14, -4
 122:adctask.c     **** 	ADC_Start();
  36              		.loc 1 122 0
  37 0002 FFF7FEFF 		bl	ADC_Start
  38              	.LVL0:
 123:adctask.c     **** 	//ADC_SAR_INTR_MASK_REG = ADC_EOS_MASK;
 124:adctask.c     **** 	ADC_IRQ_StartEx(ADC_ISR_func);
  39              		.loc 1 124 0
  40 0006 0348     		ldr	r0, .L2
  41 0008 FFF7FEFF 		bl	ADC_IRQ_StartEx
  42              	.LVL1:
 125:adctask.c     **** 	ADC_StartConvert();
  43              		.loc 1 125 0
  44 000c FFF7FEFF 		bl	ADC_StartConvert
  45              	.LVL2:
 126:adctask.c     **** }
ARM GAS  C:\Users\VIDEOH~1\AppData\Local\Temp\cc3YwCM0.s 			page 4


  46              		.loc 1 126 0
  47              		@ sp needed
  48 0010 10BD     		pop	{r4, pc}
  49              	.L3:
  50 0012 C046     		.align	2
  51              	.L2:
  52 0014 00000000 		.word	ADC_ISR_func
  53              		.cfi_endproc
  54              	.LFE33:
  55              		.size	start_adc, .-start_adc
  56              		.section	.text.get_raw_current_usage,"ax",%progbits
  57              		.align	2
  58              		.global	get_raw_current_usage
  59              		.code	16
  60              		.thumb_func
  61              		.type	get_raw_current_usage, %function
  62              	get_raw_current_usage:
  63              	.LFB34:
 127:adctask.c     **** 
 128:adctask.c     **** int16 get_raw_current_usage() {
  64              		.loc 1 128 0
  65              		.cfi_startproc
  66              		@ args = 0, pretend = 0, frame = 0
  67              		@ frame_needed = 0, uses_anonymous_args = 0
  68              		@ link register save eliminated.
 129:adctask.c     **** 	return total_current >> adc_mix_ratio;
  69              		.loc 1 129 0
  70 0000 034B     		ldr	r3, .L5
  71 0002 1B78     		ldrb	r3, [r3]
  72 0004 034A     		ldr	r2, .L5+4
  73 0006 1068     		ldr	r0, [r2]
  74 0008 1841     		asrs	r0, r0, r3
  75 000a 00B2     		sxth	r0, r0
 130:adctask.c     **** }
  76              		.loc 1 130 0
  77              		@ sp needed
  78 000c 7047     		bx	lr
  79              	.L6:
  80 000e C046     		.align	2
  81              	.L5:
  82 0010 00000000 		.word	.LANCHOR1
  83 0014 00000000 		.word	.LANCHOR0
  84              		.cfi_endproc
  85              	.LFE34:
  86              		.size	get_raw_current_usage, .-get_raw_current_usage
  87              		.section	.text.get_current_usage,"ax",%progbits
  88              		.align	2
  89              		.global	get_current_usage
  90              		.code	16
  91              		.thumb_func
  92              		.type	get_current_usage, %function
  93              	get_current_usage:
  94              	.LFB35:
 131:adctask.c     **** 
 132:adctask.c     **** int get_current_usage() {
  95              		.loc 1 132 0
  96              		.cfi_startproc
ARM GAS  C:\Users\VIDEOH~1\AppData\Local\Temp\cc3YwCM0.s 			page 5


  97              		@ args = 0, pretend = 0, frame = 0
  98              		@ frame_needed = 0, uses_anonymous_args = 0
  99              		@ link register save eliminated.
 133:adctask.c     **** 	int ret = ((total_current >> adc_mix_ratio) - settings->calibration_settings.adc_current_offset) *
 100              		.loc 1 133 0
 101 0000 074B     		ldr	r3, .L9
 102 0002 1A78     		ldrb	r2, [r3]
 103 0004 074B     		ldr	r3, .L9+4
 104 0006 1B68     		ldr	r3, [r3]
 105 0008 1341     		asrs	r3, r3, r2
 106 000a 074A     		ldr	r2, .L9+8
 107 000c 1268     		ldr	r2, [r2]
 108 000e D169     		ldr	r1, [r2, #28]
 109 0010 5B1A     		subs	r3, r3, r1
 110 0012 106A     		ldr	r0, [r2, #32]
 111 0014 5843     		muls	r0, r3
 134:adctask.c     **** 	return (ret < 0)?0:ret;
 112              		.loc 1 134 0
 113 0016 0028     		cmp	r0, #0
 114 0018 00DA     		bge	.L8
 115 001a 0020     		movs	r0, #0
 116              	.L8:
 135:adctask.c     **** }
 117              		.loc 1 135 0
 118              		@ sp needed
 119 001c 7047     		bx	lr
 120              	.L10:
 121 001e C046     		.align	2
 122              	.L9:
 123 0020 00000000 		.word	.LANCHOR1
 124 0024 00000000 		.word	.LANCHOR0
 125 0028 00000000 		.word	settings
 126              		.cfi_endproc
 127              	.LFE35:
 128              		.size	get_current_usage, .-get_current_usage
 129              		.section	.text.get_raw_voltage,"ax",%progbits
 130              		.align	2
 131              		.global	get_raw_voltage
 132              		.code	16
 133              		.thumb_func
 134              		.type	get_raw_voltage, %function
 135              	get_raw_voltage:
 136              	.LFB36:
 136:adctask.c     **** 
 137:adctask.c     **** int16 get_raw_voltage() {
 137              		.loc 1 137 0
 138              		.cfi_startproc
 139              		@ args = 0, pretend = 0, frame = 0
 140              		@ frame_needed = 0, uses_anonymous_args = 0
 141              		@ link register save eliminated.
 138:adctask.c     **** 	return total_voltage >> adc_mix_ratio;
 142              		.loc 1 138 0
 143 0000 034B     		ldr	r3, .L12
 144 0002 1B78     		ldrb	r3, [r3]
 145 0004 034A     		ldr	r2, .L12+4
 146 0006 5068     		ldr	r0, [r2, #4]
 147 0008 1841     		asrs	r0, r0, r3
ARM GAS  C:\Users\VIDEOH~1\AppData\Local\Temp\cc3YwCM0.s 			page 6


 148 000a 00B2     		sxth	r0, r0
 139:adctask.c     **** }
 149              		.loc 1 139 0
 150              		@ sp needed
 151 000c 7047     		bx	lr
 152              	.L13:
 153 000e C046     		.align	2
 154              	.L12:
 155 0010 00000000 		.word	.LANCHOR1
 156 0014 00000000 		.word	.LANCHOR0
 157              		.cfi_endproc
 158              	.LFE36:
 159              		.size	get_raw_voltage, .-get_raw_voltage
 160              		.section	.text.get_voltage,"ax",%progbits
 161              		.align	2
 162              		.global	get_voltage
 163              		.code	16
 164              		.thumb_func
 165              		.type	get_voltage, %function
 166              	get_voltage:
 167              	.LFB37:
 140:adctask.c     **** 
 141:adctask.c     **** int get_voltage() {
 168              		.loc 1 141 0
 169              		.cfi_startproc
 170              		@ args = 0, pretend = 0, frame = 0
 171              		@ frame_needed = 0, uses_anonymous_args = 0
 172 0000 70B5     		push	{r4, r5, r6, lr}
 173              		.cfi_def_cfa_offset 16
 174              		.cfi_offset 4, -16
 175              		.cfi_offset 5, -12
 176              		.cfi_offset 6, -8
 177              		.cfi_offset 14, -4
 142:adctask.c     **** 	int ret = ((total_voltage >> adc_mix_ratio) - settings->calibration_settings.adc_voltage_offset) *
 178              		.loc 1 142 0
 179 0002 0C4B     		ldr	r3, .L16
 180 0004 1B78     		ldrb	r3, [r3]
 181 0006 0C4A     		ldr	r2, .L16+4
 182 0008 5068     		ldr	r0, [r2, #4]
 183 000a 1841     		asrs	r0, r0, r3
 184 000c 0B4B     		ldr	r3, .L16+8
 185 000e 1D68     		ldr	r5, [r3]
 186 0010 6B6A     		ldr	r3, [r5, #36]
 187 0012 C01A     		subs	r0, r0, r3
 188 0014 AC6A     		ldr	r4, [r5, #40]
 189 0016 4443     		muls	r4, r0
 190              	.LVL3:
 143:adctask.c     ****     ret += (get_current_usage() / 1024) * settings->calibration_settings.voltage_correction_ratio;
 191              		.loc 1 143 0
 192 0018 FFF7FEFF 		bl	get_current_usage
 193              	.LVL4:
 194 001c C317     		asrs	r3, r0, #31
 195 001e 9B05     		lsls	r3, r3, #22
 196 0020 9B0D     		lsrs	r3, r3, #22
 197 0022 1818     		adds	r0, r3, r0
 198 0024 8012     		asrs	r0, r0, #10
 199 0026 EB6A     		ldr	r3, [r5, #44]
ARM GAS  C:\Users\VIDEOH~1\AppData\Local\Temp\cc3YwCM0.s 			page 7


 200 0028 5843     		muls	r0, r3
 201              	.LVL5:
 144:adctask.c     **** 	return (ret < 0)?0:ret;
 202              		.loc 1 144 0
 203 002a 2018     		adds	r0, r4, r0
 204 002c 00D5     		bpl	.L15
 205 002e 0020     		movs	r0, #0
 206              	.L15:
 145:adctask.c     **** }
 207              		.loc 1 145 0
 208              		@ sp needed
 209 0030 70BD     		pop	{r4, r5, r6, pc}
 210              	.L17:
 211 0032 C046     		.align	2
 212              	.L16:
 213 0034 00000000 		.word	.LANCHOR1
 214 0038 00000000 		.word	.LANCHOR0
 215 003c 00000000 		.word	settings
 216              		.cfi_endproc
 217              	.LFE37:
 218              		.size	get_voltage, .-get_voltage
 219              		.global	__aeabi_uidiv
 220              		.global	__aeabi_uidivmod
 221              		.global	__aeabi_idiv
 222              		.section	.text.ADC_ISR_func,"ax",%progbits
 223              		.align	2
 224              		.global	ADC_ISR_func
 225              		.code	16
 226              		.thumb_func
 227              		.type	ADC_ISR_func, %function
 228              	ADC_ISR_func:
 229              	.LFB32:
  33:adctask.c     **** 	uint32 isr_flags = ADC_SAR_INTR_MASKED_REG;
 230              		.loc 1 33 0
 231              		.cfi_startproc
 232              		@ args = 0, pretend = 0, frame = 48
 233              		@ frame_needed = 0, uses_anonymous_args = 0
 234 0000 F0B5     		push	{r4, r5, r6, r7, lr}
 235              		.cfi_def_cfa_offset 20
 236              		.cfi_offset 4, -20
 237              		.cfi_offset 5, -16
 238              		.cfi_offset 6, -12
 239              		.cfi_offset 7, -8
 240              		.cfi_offset 14, -4
 241 0002 5746     		mov	r7, r10
 242 0004 80B4     		push	{r7}
 243              		.cfi_def_cfa_offset 24
 244              		.cfi_offset 10, -24
 245 0006 8CB0     		sub	sp, sp, #48
 246              		.cfi_def_cfa_offset 72
  34:adctask.c     **** 	if(isr_flags & ADC_EOS_MASK) {
 247              		.loc 1 34 0
 248 0008 894B     		ldr	r3, .L29
 249 000a 1C68     		ldr	r4, [r3]
 250              	.LVL6:
  35:adctask.c     ****         if(conversion_counter < 100) {
 251              		.loc 1 35 0
ARM GAS  C:\Users\VIDEOH~1\AppData\Local\Temp\cc3YwCM0.s 			page 8


 252 000c E307     		lsls	r3, r4, #31
 253 000e 00D4     		bmi	.LCB189
 254 0010 07E1     		b	.L19	@long jump
 255              	.LCB189:
  36:adctask.c     ****             // Regular ADC
 256              		.loc 1 36 0
 257 0012 884B     		ldr	r3, .L29+4
 258 0014 1B7A     		ldrb	r3, [r3, #8]
 259 0016 632B     		cmp	r3, #99
 260 0018 00D9     		bls	.LCB193
 261 001a 87E0     		b	.L20	@long jump
 262              	.LCB193:
 263              	.LBB2:
  39:adctask.c     ****     		total_voltage = total_voltage - (total_voltage >> adc_mix_ratio) + ADC_GetResult16(ADC_CHAN_V
 264              		.loc 1 39 0
 265 001c 854E     		ldr	r6, .L29+4
 266 001e 3368     		ldr	r3, [r6]
 267 0020 854F     		ldr	r7, .L29+8
 268 0022 3A78     		ldrb	r2, [r7]
 269 0024 1D00     		movs	r5, r3
 270 0026 1541     		asrs	r5, r5, r2
 271 0028 5D1B     		subs	r5, r3, r5
 272 002a 0020     		movs	r0, #0
 273 002c FFF7FEFF 		bl	ADC_GetResult16
 274              	.LVL7:
 275 0030 4319     		adds	r3, r0, r5
 276 0032 3360     		str	r3, [r6]
  40:adctask.c     ****     		
 277              		.loc 1 40 0
 278 0034 7368     		ldr	r3, [r6, #4]
 279 0036 3A78     		ldrb	r2, [r7]
 280 0038 1D00     		movs	r5, r3
 281 003a 1541     		asrs	r5, r5, r2
 282 003c 5D1B     		subs	r5, r3, r5
 283 003e 0120     		movs	r0, #1
 284 0040 FFF7FEFF 		bl	ADC_GetResult16
 285              	.LVL8:
 286 0044 4319     		adds	r3, r0, r5
 287 0046 7360     		str	r3, [r6, #4]
  43:adctask.c     ****                 int error = get_current_usage() - get_current_setpoint();
 288              		.loc 1 43 0
 289 0048 7C4B     		ldr	r3, .L29+12
 290 004a 1B7A     		ldrb	r3, [r3, #8]
 291 004c 002B     		cmp	r3, #0
 292 004e 1CD1     		bne	.L21
 293              	.LBB3:
  44:adctask.c     ****                 dac_offset_correction += error >> DAC_EC_MIX_RATIO;
 294              		.loc 1 44 0
 295 0050 FFF7FEFF 		bl	get_current_usage
 296              	.LVL9:
 297 0054 0500     		movs	r5, r0
 298 0056 FFF7FEFF 		bl	get_current_setpoint
 299              	.LVL10:
 300 005a 2D1A     		subs	r5, r5, r0
 301              	.LVL11:
  45:adctask.c     ****                 if(dac_offset_correction > MAX_DAC_EC) {
 302              		.loc 1 45 0
ARM GAS  C:\Users\VIDEOH~1\AppData\Local\Temp\cc3YwCM0.s 			page 9


 303 005c AD10     		asrs	r5, r5, #2
 304              	.LVL12:
 305 005e 754B     		ldr	r3, .L29+4
 306 0060 DA68     		ldr	r2, [r3, #12]
 307 0062 9446     		mov	ip, r2
 308 0064 6544     		add	r5, r5, ip
 309 0066 DD60     		str	r5, [r3, #12]
  46:adctask.c     ****                     dac_offset_correction = MAX_DAC_EC;
 310              		.loc 1 46 0
 311 0068 754B     		ldr	r3, .L29+16
 312 006a 9D42     		cmp	r5, r3
 313 006c 03DD     		ble	.L22
  47:adctask.c     ****                 } else if(dac_offset_correction < -MAX_DAC_EC) {
 314              		.loc 1 47 0
 315 006e 1A00     		movs	r2, r3
 316 0070 704B     		ldr	r3, .L29+4
 317 0072 DA60     		str	r2, [r3, #12]
 318 0074 05E0     		b	.L23
 319              	.L22:
  48:adctask.c     ****                     dac_offset_correction = -MAX_DAC_EC;
 320              		.loc 1 48 0
 321 0076 734B     		ldr	r3, .L29+20
 322 0078 9D42     		cmp	r5, r3
 323 007a 02DA     		bge	.L23
  49:adctask.c     ****                 }
 324              		.loc 1 49 0
 325 007c 1A00     		movs	r2, r3
 326 007e 6D4B     		ldr	r3, .L29+4
 327 0080 DA60     		str	r2, [r3, #12]
 328              	.L23:
  51:adctask.c     ****             }
 329              		.loc 1 51 0
 330 0082 6E4B     		ldr	r3, .L29+12
 331 0084 1868     		ldr	r0, [r3]
 332 0086 FFF7FEFF 		bl	set_current
 333              	.LVL13:
 334              	.L21:
 335              	.LBE3:
  56:adctask.c     ****             if(now > last_update) {
 336              		.loc 1 56 0
 337 008a FFF7FEFF 		bl	xTaskGetTickCount
 338              	.LVL14:
 339 008e 0600     		movs	r6, r0
 340              	.LVL15:
  57:adctask.c     ****         		int current = get_current_usage();
 341              		.loc 1 57 0
 342 0090 684B     		ldr	r3, .L29+4
 343 0092 1D69     		ldr	r5, [r3, #16]
 344 0094 A842     		cmp	r0, r5
 345 0096 39D9     		bls	.L24
 346              	.LBB4:
  58:adctask.c     ****                 int voltage = get_voltage();
 347              		.loc 1 58 0
 348 0098 FFF7FEFF 		bl	get_current_usage
 349              	.LVL16:
 350 009c 0700     		movs	r7, r0
 351              	.LVL17:
ARM GAS  C:\Users\VIDEOH~1\AppData\Local\Temp\cc3YwCM0.s 			page 10


  59:adctask.c     **** 
 352              		.loc 1 59 0
 353 009e FFF7FEFF 		bl	get_voltage
 354              	.LVL18:
 355 00a2 0190     		str	r0, [sp, #4]
 356              	.LVL19:
  61:adctask.c     ****         		total_microamp_hours += remainder_microamp_ticks / TICK_RATE_HR;
 357              		.loc 1 61 0
 358 00a4 731B     		subs	r3, r6, r5
 359 00a6 9A46     		mov	r10, r3
 360 00a8 0097     		str	r7, [sp]
 361 00aa 3D00     		movs	r5, r7
 362 00ac 5D43     		muls	r5, r3
 363 00ae 614F     		ldr	r7, .L29+4
 364              	.LVL20:
 365 00b0 7B69     		ldr	r3, [r7, #20]
 366 00b2 9C46     		mov	ip, r3
 367 00b4 6544     		add	r5, r5, ip
  62:adctask.c     ****         		remainder_microamp_ticks %= TICK_RATE_HR;
 368              		.loc 1 62 0
 369 00b6 6449     		ldr	r1, .L29+24
 370 00b8 2800     		movs	r0, r5
 371              	.LVL21:
 372 00ba FFF7FEFF 		bl	__aeabi_uidiv
 373              	.LVL22:
 374 00be BB69     		ldr	r3, [r7, #24]
 375 00c0 9C46     		mov	ip, r3
 376 00c2 6044     		add	r0, r0, ip
 377 00c4 B861     		str	r0, [r7, #24]
  63:adctask.c     ****         		
 378              		.loc 1 63 0
 379 00c6 6049     		ldr	r1, .L29+24
 380 00c8 2800     		movs	r0, r5
 381 00ca FFF7FEFF 		bl	__aeabi_uidivmod
 382              	.LVL23:
 383 00ce 7961     		str	r1, [r7, #20]
  65:adctask.c     ****         		total_microwatt_hours += remainder_microwatt_ticks / TICK_RATE_HR;
 384              		.loc 1 65 0
 385 00d0 FA21     		movs	r1, #250
 386 00d2 8900     		lsls	r1, r1, #2
 387 00d4 0098     		ldr	r0, [sp]
 388 00d6 FFF7FEFF 		bl	__aeabi_idiv
 389              	.LVL24:
 390 00da 0500     		movs	r5, r0
 391 00dc FA21     		movs	r1, #250
 392 00de 8900     		lsls	r1, r1, #2
 393 00e0 0198     		ldr	r0, [sp, #4]
 394 00e2 FFF7FEFF 		bl	__aeabi_idiv
 395              	.LVL25:
 396 00e6 6843     		muls	r0, r5
 397 00e8 5346     		mov	r3, r10
 398 00ea 5843     		muls	r0, r3
 399 00ec FB69     		ldr	r3, [r7, #28]
 400 00ee C518     		adds	r5, r0, r3
  66:adctask.c     ****         		remainder_microwatt_ticks %= TICK_RATE_HR;
 401              		.loc 1 66 0
 402 00f0 5549     		ldr	r1, .L29+24
ARM GAS  C:\Users\VIDEOH~1\AppData\Local\Temp\cc3YwCM0.s 			page 11


 403 00f2 2800     		movs	r0, r5
 404 00f4 FFF7FEFF 		bl	__aeabi_uidiv
 405              	.LVL26:
 406 00f8 3B6A     		ldr	r3, [r7, #32]
 407 00fa 9C46     		mov	ip, r3
 408 00fc 6044     		add	r0, r0, ip
 409 00fe 3862     		str	r0, [r7, #32]
  67:adctask.c     **** 
 410              		.loc 1 67 0
 411 0100 5149     		ldr	r1, .L29+24
 412 0102 2800     		movs	r0, r5
 413 0104 FFF7FEFF 		bl	__aeabi_uidivmod
 414              	.LVL27:
 415 0108 F961     		str	r1, [r7, #28]
  69:adctask.c     ****             }
 416              		.loc 1 69 0
 417 010a 3E61     		str	r6, [r7, #16]
 418              	.LVL28:
 419              	.L24:
 420              	.LBE4:
  72:adctask.c     ****                 // Switch to measuring FET current draw for overtemp; skip next conversion as inacc
 421              		.loc 1 72 0
 422 010c 494B     		ldr	r3, .L29+4
 423 010e 1B7A     		ldrb	r3, [r3, #8]
 424 0110 632B     		cmp	r3, #99
 425 0112 00D0     		beq	.LCB351
 426 0114 81E0     		b	.L25	@long jump
 427              	.LCB351:
  74:adctask.c     ****                 ADC_SAR_CTRL_REG = (ADC_SAR_CTRL_REG & ~ADC_VREF_INTERNAL1024BYPASSED) | ADC_VREF_V
 428              		.loc 1 74 0
 429 0116 0C20     		movs	r0, #12
 430 0118 FFF7FEFF 		bl	ADC_SetChanMask
 431              	.LVL29:
  75:adctask.c     ****             }
 432              		.loc 1 75 0
 433 011c 4B49     		ldr	r1, .L29+28
 434 011e 0B68     		ldr	r3, [r1]
 435 0120 F022     		movs	r2, #240
 436 0122 9343     		bics	r3, r2
 437 0124 803A     		subs	r2, r2, #128
 438 0126 1343     		orrs	r3, r2
 439 0128 0B60     		str	r3, [r1]
 440 012a 76E0     		b	.L25
 441              	.LVL30:
 442              	.L20:
 443              	.LBE2:
  77:adctask.c     ****             if(get_output_mode() == OUTPUT_MODE_FEEDBACK) {
 444              		.loc 1 77 0
 445 012c 652B     		cmp	r3, #101
 446 012e 6FD1     		bne	.L26
  78:adctask.c     ****                 // Undervolt detection.
 447              		.loc 1 78 0
 448 0130 FFF7FEFF 		bl	get_output_mode
 449              	.LVL31:
 450 0134 0228     		cmp	r0, #2
 451 0136 60D1     		bne	.L27
  80:adctask.c     ****                     set_output_mode(OUTPUT_MODE_OFF);
ARM GAS  C:\Users\VIDEOH~1\AppData\Local\Temp\cc3YwCM0.s 			page 12


 452              		.loc 1 80 0
 453 0138 404B     		ldr	r3, .L29+12
 454 013a 5B68     		ldr	r3, [r3, #4]
 455 013c 0133     		adds	r3, r3, #1
 456 013e 2ED0     		beq	.L28
  80:adctask.c     ****                     set_output_mode(OUTPUT_MODE_OFF);
 457              		.loc 1 80 0 is_stmt 0 discriminator 1
 458 0140 FFF7FEFF 		bl	get_current_setpoint
 459              	.LVL32:
 460 0144 0028     		cmp	r0, #0
 461 0146 2ADD     		ble	.L28
  80:adctask.c     ****                     set_output_mode(OUTPUT_MODE_OFF);
 462              		.loc 1 80 0 discriminator 2
 463 0148 FFF7FEFF 		bl	get_voltage
 464              	.LVL33:
 465 014c 3B4B     		ldr	r3, .L29+12
 466 014e 5B68     		ldr	r3, [r3, #4]
 467 0150 9842     		cmp	r0, r3
 468 0152 24DA     		bge	.L28
  81:adctask.c     ****                     set_current(0);
 469              		.loc 1 81 0 is_stmt 1
 470 0154 0020     		movs	r0, #0
 471 0156 FFF7FEFF 		bl	set_output_mode
 472              	.LVL34:
  82:adctask.c     ****                     xQueueSendToBackFromISR(ui_queue, &((ui_event){
 473              		.loc 1 82 0
 474 015a 0020     		movs	r0, #0
 475 015c FFF7FEFF 		bl	set_current
 476              	.LVL35:
  83:adctask.c     ****                         .type=UI_EVENT_LIMIT,
 477              		.loc 1 83 0
 478 0160 3B4B     		ldr	r3, .L29+32
 479 0162 1D68     		ldr	r5, [r3]
 480 0164 1022     		movs	r2, #16
 481 0166 0021     		movs	r1, #0
 482 0168 02A8     		add	r0, sp, #8
 483 016a FFF7FEFF 		bl	memset
 484              	.LVL36:
 485 016e 0523     		movs	r3, #5
 486 0170 02AA     		add	r2, sp, #8
 487 0172 1370     		strb	r3, [r2]
 488 0174 043B     		subs	r3, r3, #4
 489 0176 0393     		str	r3, [sp, #12]
 490 0178 FFF7FEFF 		bl	xTaskGetTickCountFromISR
 491              	.LVL37:
 492 017c 0590     		str	r0, [sp, #20]
 493 017e 0023     		movs	r3, #0
 494 0180 0022     		movs	r2, #0
 495 0182 02A9     		add	r1, sp, #8
 496 0184 2800     		movs	r0, r5
 497 0186 FFF7FEFF 		bl	xQueueGenericSendFromISR
 498              	.LVL38:
  88:adctask.c     ****                         .type=COMMS_EVENT_UNDERVOLT,
 499              		.loc 1 88 0
 500 018a 324B     		ldr	r3, .L29+36
 501 018c 1868     		ldr	r0, [r3]
 502 018e 06A9     		add	r1, sp, #24
ARM GAS  C:\Users\VIDEOH~1\AppData\Local\Temp\cc3YwCM0.s 			page 13


 503 0190 0323     		movs	r3, #3
 504 0192 0B70     		strb	r3, [r1]
 505 0194 013B     		subs	r3, r3, #1
 506 0196 0022     		movs	r2, #0
 507 0198 FFF7FEFF 		bl	xQueueGenericSendFromISR
 508              	.LVL39:
 509 019c 2DE0     		b	.L27
 510              	.L28:
 511              	.LBB5:
  93:adctask.c     ****                     int16 fet_in = ADC_GetResult16(ADC_CHAN_FET_IN);
 512              		.loc 1 93 0
 513 019e 0220     		movs	r0, #2
 514 01a0 FFF7FEFF 		bl	ADC_GetResult16
 515              	.LVL40:
 516 01a4 0500     		movs	r5, r0
 517              	.LVL41:
  94:adctask.c     ****                     if(abs(opamp_out - fet_in) > 4) {
 518              		.loc 1 94 0
 519 01a6 0320     		movs	r0, #3
 520 01a8 FFF7FEFF 		bl	ADC_GetResult16
 521              	.LVL42:
  95:adctask.c     ****                         set_output_mode(OUTPUT_MODE_OFF);
 522              		.loc 1 95 0
 523 01ac 2D1A     		subs	r5, r5, r0
 524              	.LVL43:
 525 01ae EB17     		asrs	r3, r5, #31
 526 01b0 ED18     		adds	r5, r5, r3
 527 01b2 5D40     		eors	r5, r3
 528 01b4 042D     		cmp	r5, #4
 529 01b6 20DD     		ble	.L27
  96:adctask.c     ****                         set_current(0);
 530              		.loc 1 96 0
 531 01b8 0020     		movs	r0, #0
 532              	.LVL44:
 533 01ba FFF7FEFF 		bl	set_output_mode
 534              	.LVL45:
  97:adctask.c     **** 
 535              		.loc 1 97 0
 536 01be 0020     		movs	r0, #0
 537 01c0 FFF7FEFF 		bl	set_current
 538              	.LVL46:
  99:adctask.c     ****                             .type=UI_EVENT_LIMIT,
 539              		.loc 1 99 0
 540 01c4 224B     		ldr	r3, .L29+32
 541 01c6 1E68     		ldr	r6, [r3]
 542 01c8 07AD     		add	r5, sp, #28
 543 01ca 1022     		movs	r2, #16
 544 01cc 0021     		movs	r1, #0
 545 01ce 2800     		movs	r0, r5
 546 01d0 FFF7FEFF 		bl	memset
 547              	.LVL47:
 548 01d4 0523     		movs	r3, #5
 549 01d6 2B70     		strb	r3, [r5]
 550 01d8 FFF7FEFF 		bl	xTaskGetTickCountFromISR
 551              	.LVL48:
 552 01dc E860     		str	r0, [r5, #12]
 553 01de 0023     		movs	r3, #0
ARM GAS  C:\Users\VIDEOH~1\AppData\Local\Temp\cc3YwCM0.s 			page 14


 554 01e0 0022     		movs	r2, #0
 555 01e2 2900     		movs	r1, r5
 556 01e4 3000     		movs	r0, r6
 557 01e6 FFF7FEFF 		bl	xQueueGenericSendFromISR
 558              	.LVL49:
 104:adctask.c     ****                             .type=COMMS_EVENT_OVERTEMP,
 559              		.loc 1 104 0
 560 01ea 1A4B     		ldr	r3, .L29+36
 561 01ec 1868     		ldr	r0, [r3]
 562 01ee 0BA9     		add	r1, sp, #44
 563 01f0 0223     		movs	r3, #2
 564 01f2 0B70     		strb	r3, [r1]
 565 01f4 0022     		movs	r2, #0
 566 01f6 FFF7FEFF 		bl	xQueueGenericSendFromISR
 567              	.LVL50:
 568              	.L27:
 569              	.LBE5:
 110:adctask.c     ****             ADC_SAR_CTRL_REG = (ADC_SAR_CTRL_REG & ~ADC_VREF_VDDA) | ADC_VREF_INTERNAL1024BYPASSED;
 570              		.loc 1 110 0
 571 01fa 3320     		movs	r0, #51
 572 01fc FFF7FEFF 		bl	ADC_SetChanMask
 573              	.LVL51:
 111:adctask.c     ****         } else if(conversion_counter == 102) {
 574              		.loc 1 111 0
 575 0200 1249     		ldr	r1, .L29+28
 576 0202 0B68     		ldr	r3, [r1]
 577 0204 F022     		movs	r2, #240
 578 0206 9343     		bics	r3, r2
 579 0208 303A     		subs	r2, r2, #48
 580 020a 1343     		orrs	r3, r2
 581 020c 0B60     		str	r3, [r1]
 582 020e 04E0     		b	.L25
 583              	.L26:
 112:adctask.c     ****             // Switch back to regular measurement; discard reading as inaccurate
 584              		.loc 1 112 0
 585 0210 662B     		cmp	r3, #102
 586 0212 02D1     		bne	.L25
 114:adctask.c     ****         }
 587              		.loc 1 114 0
 588 0214 0022     		movs	r2, #0
 589 0216 074B     		ldr	r3, .L29+4
 590 0218 1A72     		strb	r2, [r3, #8]
 591              	.L25:
 116:adctask.c     **** 	}
 592              		.loc 1 116 0
 593 021a 064A     		ldr	r2, .L29+4
 594 021c 137A     		ldrb	r3, [r2, #8]
 595 021e 0133     		adds	r3, r3, #1
 596 0220 1372     		strb	r3, [r2, #8]
 597              	.L19:
 118:adctask.c     **** }
 598              		.loc 1 118 0
 599 0222 0D4B     		ldr	r3, .L29+40
 600 0224 1C60     		str	r4, [r3]
 119:adctask.c     **** 
 601              		.loc 1 119 0
 602 0226 0CB0     		add	sp, sp, #48
ARM GAS  C:\Users\VIDEOH~1\AppData\Local\Temp\cc3YwCM0.s 			page 15


 603              		@ sp needed
 604              	.LVL52:
 605 0228 04BC     		pop	{r2}
 606 022a 9246     		mov	r10, r2
 607 022c F0BD     		pop	{r4, r5, r6, r7, pc}
 608              	.L30:
 609 022e C046     		.align	2
 610              	.L29:
 611 0230 1C021A40 		.word	1075446300
 612 0234 00000000 		.word	.LANCHOR0
 613 0238 00000000 		.word	.LANCHOR1
 614 023c 00000000 		.word	state
 615 0240 A0860100 		.word	100000
 616 0244 6079FEFF 		.word	-100000
 617 0248 407E0500 		.word	360000
 618 024c 00001A40 		.word	1075445760
 619 0250 00000000 		.word	ui_queue
 620 0254 00000000 		.word	comms_queue
 621 0258 10021A40 		.word	1075446288
 622              		.cfi_endproc
 623              	.LFE32:
 624              		.size	ADC_ISR_func, .-ADC_ISR_func
 625              		.section	.text.get_microamp_hours,"ax",%progbits
 626              		.align	2
 627              		.global	get_microamp_hours
 628              		.code	16
 629              		.thumb_func
 630              		.type	get_microamp_hours, %function
 631              	get_microamp_hours:
 632              	.LFB38:
 146:adctask.c     **** 
 147:adctask.c     **** int get_microamp_hours() {
 633              		.loc 1 147 0
 634              		.cfi_startproc
 635              		@ args = 0, pretend = 0, frame = 0
 636              		@ frame_needed = 0, uses_anonymous_args = 0
 637              		@ link register save eliminated.
 148:adctask.c     **** 	return total_microamp_hours;
 638              		.loc 1 148 0
 639 0000 014B     		ldr	r3, .L32
 640 0002 9869     		ldr	r0, [r3, #24]
 149:adctask.c     **** }
 641              		.loc 1 149 0
 642              		@ sp needed
 643 0004 7047     		bx	lr
 644              	.L33:
 645 0006 C046     		.align	2
 646              	.L32:
 647 0008 00000000 		.word	.LANCHOR0
 648              		.cfi_endproc
 649              	.LFE38:
 650              		.size	get_microamp_hours, .-get_microamp_hours
 651              		.section	.text.get_microwatt_hours,"ax",%progbits
 652              		.align	2
 653              		.global	get_microwatt_hours
 654              		.code	16
 655              		.thumb_func
ARM GAS  C:\Users\VIDEOH~1\AppData\Local\Temp\cc3YwCM0.s 			page 16


 656              		.type	get_microwatt_hours, %function
 657              	get_microwatt_hours:
 658              	.LFB39:
 150:adctask.c     **** 
 151:adctask.c     **** int get_microwatt_hours() {
 659              		.loc 1 151 0
 660              		.cfi_startproc
 661              		@ args = 0, pretend = 0, frame = 0
 662              		@ frame_needed = 0, uses_anonymous_args = 0
 663              		@ link register save eliminated.
 152:adctask.c     **** 	return total_microwatt_hours;
 664              		.loc 1 152 0
 665 0000 014B     		ldr	r3, .L35
 666 0002 186A     		ldr	r0, [r3, #32]
 153:adctask.c     **** }
 667              		.loc 1 153 0
 668              		@ sp needed
 669 0004 7047     		bx	lr
 670              	.L36:
 671 0006 C046     		.align	2
 672              	.L35:
 673 0008 00000000 		.word	.LANCHOR0
 674              		.cfi_endproc
 675              	.LFE39:
 676              		.size	get_microwatt_hours, .-get_microwatt_hours
 677              		.section	.text.get_dac_offset_correction,"ax",%progbits
 678              		.align	2
 679              		.global	get_dac_offset_correction
 680              		.code	16
 681              		.thumb_func
 682              		.type	get_dac_offset_correction, %function
 683              	get_dac_offset_correction:
 684              	.LFB40:
 154:adctask.c     **** 
 155:adctask.c     **** int get_dac_offset_correction() {
 685              		.loc 1 155 0
 686              		.cfi_startproc
 687              		@ args = 0, pretend = 0, frame = 0
 688              		@ frame_needed = 0, uses_anonymous_args = 0
 689              		@ link register save eliminated.
 156:adctask.c     ****     return dac_offset_correction;
 690              		.loc 1 156 0
 691 0000 014B     		ldr	r3, .L38
 692 0002 D868     		ldr	r0, [r3, #12]
 157:adctask.c     **** }
 693              		.loc 1 157 0
 694              		@ sp needed
 695 0004 7047     		bx	lr
 696              	.L39:
 697 0006 C046     		.align	2
 698              	.L38:
 699 0008 00000000 		.word	.LANCHOR0
 700              		.cfi_endproc
 701              	.LFE40:
 702              		.size	get_dac_offset_correction, .-get_dac_offset_correction
 703              		.section	.text.reset_running_totals,"ax",%progbits
 704              		.align	2
ARM GAS  C:\Users\VIDEOH~1\AppData\Local\Temp\cc3YwCM0.s 			page 17


 705              		.global	reset_running_totals
 706              		.code	16
 707              		.thumb_func
 708              		.type	reset_running_totals, %function
 709              	reset_running_totals:
 710              	.LFB41:
 158:adctask.c     **** 
 159:adctask.c     **** void reset_running_totals() {
 711              		.loc 1 159 0
 712              		.cfi_startproc
 713              		@ args = 0, pretend = 0, frame = 0
 714              		@ frame_needed = 0, uses_anonymous_args = 0
 715              		@ link register save eliminated.
 160:adctask.c     **** 	total_microamp_hours = 0;
 716              		.loc 1 160 0
 717 0000 024B     		ldr	r3, .L41
 718 0002 0022     		movs	r2, #0
 719 0004 9A61     		str	r2, [r3, #24]
 161:adctask.c     **** 	total_microwatt_hours = 0;
 720              		.loc 1 161 0
 721 0006 1A62     		str	r2, [r3, #32]
 162:adctask.c     **** }
 722              		.loc 1 162 0
 723              		@ sp needed
 724 0008 7047     		bx	lr
 725              	.L42:
 726 000a C046     		.align	2
 727              	.L41:
 728 000c 00000000 		.word	.LANCHOR0
 729              		.cfi_endproc
 730              	.LFE41:
 731              		.size	reset_running_totals, .-reset_running_totals
 732              		.global	adc_mix_ratio
 733              		.data
 734              		.set	.LANCHOR1,. + 0
 735              		.type	adc_mix_ratio, %object
 736              		.size	adc_mix_ratio, 1
 737              	adc_mix_ratio:
 738 0000 04       		.byte	4
 739              		.bss
 740              		.align	2
 741              		.set	.LANCHOR0,. + 0
 742              		.type	total_current, %object
 743              		.size	total_current, 4
 744              	total_current:
 745 0000 00000000 		.space	4
 746              		.type	total_voltage, %object
 747              		.size	total_voltage, 4
 748              	total_voltage:
 749 0004 00000000 		.space	4
 750              		.type	conversion_counter, %object
 751              		.size	conversion_counter, 1
 752              	conversion_counter:
 753 0008 00       		.space	1
 754 0009 000000   		.space	3
 755              		.type	dac_offset_correction, %object
 756              		.size	dac_offset_correction, 4
ARM GAS  C:\Users\VIDEOH~1\AppData\Local\Temp\cc3YwCM0.s 			page 18


 757              	dac_offset_correction:
 758 000c 00000000 		.space	4
 759              		.type	last_update, %object
 760              		.size	last_update, 4
 761              	last_update:
 762 0010 00000000 		.space	4
 763              		.type	remainder_microamp_ticks, %object
 764              		.size	remainder_microamp_ticks, 4
 765              	remainder_microamp_ticks:
 766 0014 00000000 		.space	4
 767              		.type	total_microamp_hours, %object
 768              		.size	total_microamp_hours, 4
 769              	total_microamp_hours:
 770 0018 00000000 		.space	4
 771              		.type	remainder_microwatt_ticks, %object
 772              		.size	remainder_microwatt_ticks, 4
 773              	remainder_microwatt_ticks:
 774 001c 00000000 		.space	4
 775              		.type	total_microwatt_hours, %object
 776              		.size	total_microwatt_hours, 4
 777              	total_microwatt_hours:
 778 0020 00000000 		.space	4
 779              		.text
 780              	.Letext0:
 781              		.file 2 "c:\\program files (x86)\\cypress\\psoc creator\\4.2\\psoc creator\\import\\gnu\\arm\\5.4.
 782              		.file 3 "c:\\program files (x86)\\cypress\\psoc creator\\4.2\\psoc creator\\import\\gnu\\arm\\5.4.
 783              		.file 4 "Generated_Source\\PSoC4/cytypes.h"
 784              		.file 5 ".\\freertos\\include/portmacro.h"
 785              		.file 6 ".\\freertos\\include/queue.h"
 786              		.file 7 "tasks.h"
 787              		.file 8 "config.h"
 788              		.file 9 "Generated_Source\\PSoC4/ADC.h"
 789              		.file 10 "Generated_Source\\PSoC4/ADC_IRQ.h"
 790              		.file 11 ".\\freertos\\include/task.h"