ARM GAS  C:\Users\VIDEOH~1\AppData\Local\Temp\ccFAWgrk.s 			page 1


   1              		.syntax unified
   2              		.cpu cortex-m0
   3              		.fpu softvfp
   4              		.eabi_attribute 20, 1
   5              		.eabi_attribute 21, 1
   6              		.eabi_attribute 23, 3
   7              		.eabi_attribute 24, 1
   8              		.eabi_attribute 25, 1
   9              		.eabi_attribute 26, 1
  10              		.eabi_attribute 30, 1
  11              		.eabi_attribute 34, 0
  12              		.eabi_attribute 18, 4
  13              		.thumb
  14              		.syntax unified
  15              		.file	"calibrate.c"
  16              		.text
  17              	.Ltext0:
  18              		.cfi_sections	.debug_frame
  19              		.section	.text.calibrate_offsets,"ax",%progbits
  20              		.align	2
  21              		.global	calibrate_offsets
  22              		.code	16
  23              		.thumb_func
  24              		.type	calibrate_offsets, %function
  25              	calibrate_offsets:
  26              	.LFB32:
  27              		.file 1 "calibrate.c"
   1:calibrate.c   **** #include <FreeRTOS.h>
   2:calibrate.c   **** #include <task.h>
   3:calibrate.c   **** #include "calibrate.h"
   4:calibrate.c   **** #include "config.h"
   5:calibrate.c   **** 
   6:calibrate.c   **** void calibrate_offsets(settings_t *newsettings) {
  28              		.loc 1 6 0
  29              		.cfi_startproc
  30              		@ args = 0, pretend = 0, frame = 0
  31              		@ frame_needed = 0, uses_anonymous_args = 0
  32              	.LVL0:
  33 0000 10B5     		push	{r4, lr}
  34              		.cfi_def_cfa_offset 8
  35              		.cfi_offset 4, -8
  36              		.cfi_offset 14, -4
  37 0002 0400     		movs	r4, r0
   7:calibrate.c   **** 	newsettings->calibration_settings.adc_voltage_offset = get_raw_voltage();
  38              		.loc 1 7 0
  39 0004 FFF7FEFF 		bl	get_raw_voltage
  40              	.LVL1:
  41 0008 6062     		str	r0, [r4, #36]
   8:calibrate.c   **** 	newsettings->calibration_settings.adc_current_offset = get_raw_current_usage();
  42              		.loc 1 8 0
  43 000a FFF7FEFF 		bl	get_raw_current_usage
  44              	.LVL2:
  45 000e E061     		str	r0, [r4, #28]
   9:calibrate.c   **** }
  46              		.loc 1 9 0
  47              		@ sp needed
  48              	.LVL3:
ARM GAS  C:\Users\VIDEOH~1\AppData\Local\Temp\ccFAWgrk.s 			page 2


  49 0010 10BD     		pop	{r4, pc}
  50              		.cfi_endproc
  51              	.LFE32:
  52              		.size	calibrate_offsets, .-calibrate_offsets
  53              		.global	__aeabi_idiv
  54 0012 C046     		.section	.text.calibrate_voltage,"ax",%progbits
  55              		.align	2
  56              		.global	calibrate_voltage
  57              		.code	16
  58              		.thumb_func
  59              		.type	calibrate_voltage, %function
  60              	calibrate_voltage:
  61              	.LFB33:
  10:calibrate.c   **** 
  11:calibrate.c   **** void calibrate_voltage(settings_t *newsettings, int microvolts) {
  62              		.loc 1 11 0
  63              		.cfi_startproc
  64              		@ args = 0, pretend = 0, frame = 0
  65              		@ frame_needed = 0, uses_anonymous_args = 0
  66              	.LVL4:
  67 0000 70B5     		push	{r4, r5, r6, lr}
  68              		.cfi_def_cfa_offset 16
  69              		.cfi_offset 4, -16
  70              		.cfi_offset 5, -12
  71              		.cfi_offset 6, -8
  72              		.cfi_offset 14, -4
  73 0002 0400     		movs	r4, r0
  74 0004 0D00     		movs	r5, r1
  12:calibrate.c   **** 	newsettings->calibration_settings.adc_voltage_gain = microvolts / (get_raw_voltage() - newsettings
  75              		.loc 1 12 0
  76 0006 FFF7FEFF 		bl	get_raw_voltage
  77              	.LVL5:
  78 000a 636A     		ldr	r3, [r4, #36]
  79 000c C11A     		subs	r1, r0, r3
  80 000e 2800     		movs	r0, r5
  81 0010 FFF7FEFF 		bl	__aeabi_idiv
  82              	.LVL6:
  83 0014 A062     		str	r0, [r4, #40]
  13:calibrate.c   **** }
  84              		.loc 1 13 0
  85              		@ sp needed
  86              	.LVL7:
  87              	.LVL8:
  88 0016 70BD     		pop	{r4, r5, r6, pc}
  89              		.cfi_endproc
  90              	.LFE33:
  91              		.size	calibrate_voltage, .-calibrate_voltage
  92              		.section	.text.calibrate_current,"ax",%progbits
  93              		.align	2
  94              		.global	calibrate_current
  95              		.code	16
  96              		.thumb_func
  97              		.type	calibrate_current, %function
  98              	calibrate_current:
  99              	.LFB34:
  14:calibrate.c   **** 
  15:calibrate.c   **** void calibrate_current(settings_t *newsettings, int microamps) {
ARM GAS  C:\Users\VIDEOH~1\AppData\Local\Temp\ccFAWgrk.s 			page 3


 100              		.loc 1 15 0
 101              		.cfi_startproc
 102              		@ args = 0, pretend = 0, frame = 0
 103              		@ frame_needed = 0, uses_anonymous_args = 0
 104              	.LVL9:
 105 0000 70B5     		push	{r4, r5, r6, lr}
 106              		.cfi_def_cfa_offset 16
 107              		.cfi_offset 4, -16
 108              		.cfi_offset 5, -12
 109              		.cfi_offset 6, -8
 110              		.cfi_offset 14, -4
 111 0002 0400     		movs	r4, r0
 112 0004 0D00     		movs	r5, r1
  16:calibrate.c   **** 	newsettings->calibration_settings.adc_current_gain = microamps / (get_raw_current_usage() - newset
 113              		.loc 1 16 0
 114 0006 FFF7FEFF 		bl	get_raw_current_usage
 115              	.LVL10:
 116 000a E369     		ldr	r3, [r4, #28]
 117 000c C11A     		subs	r1, r0, r3
 118 000e 2800     		movs	r0, r5
 119 0010 FFF7FEFF 		bl	__aeabi_idiv
 120              	.LVL11:
 121 0014 2062     		str	r0, [r4, #32]
  17:calibrate.c   **** }
 122              		.loc 1 17 0
 123              		@ sp needed
 124              	.LVL12:
 125              	.LVL13:
 126 0016 70BD     		pop	{r4, r5, r6, pc}
 127              		.cfi_endproc
 128              	.LFE34:
 129              		.size	calibrate_current, .-calibrate_current
 130              		.section	.text.calibrate_dacs,"ax",%progbits
 131              		.align	2
 132              		.global	calibrate_dacs
 133              		.code	16
 134              		.thumb_func
 135              		.type	calibrate_dacs, %function
 136              	calibrate_dacs:
 137              	.LFB36:
  18:calibrate.c   **** 
  19:calibrate.c   **** void calibrate_opamp_offset_trim(settings_t *newsettings, int microamps, progress_callback_t progre
  20:calibrate.c   ****     state.calibrating = 1;
  21:calibrate.c   **** 	int high_value = microamps / DEFAULT_DAC_HIGH_GAIN;
  22:calibrate.c   **** 	int low_value = 100000 / DEFAULT_DAC_HIGH_GAIN; // Approx 100mA
  23:calibrate.c   ****     int high_current, low_current;
  24:calibrate.c   ****     IDAC_Low_SetValue(0);
  25:calibrate.c   **** 
  26:calibrate.c   **** 	// Find the best setting for the opamp trim
  27:calibrate.c   ****     int min_offset = INT_MIN;
  28:calibrate.c   ****     int min_offset_idx = 0;
  29:calibrate.c   ****     
  30:calibrate.c   **** 	for(int i = 0; i < MAX_OA_OFFSET_STEPS; i++) {
  31:calibrate.c   ****         progress_callback(i+1,MAX_OA_OFFSET_STEPS);
  32:calibrate.c   **** 		CY_SET_REG32(Opamp_cy_psoc4_abuf__OA_OFFSET_TRIM, i);
  33:calibrate.c   **** 		
  34:calibrate.c   ****         IDAC_High_SetValue(high_value);
ARM GAS  C:\Users\VIDEOH~1\AppData\Local\Temp\ccFAWgrk.s 			page 4


  35:calibrate.c   ****         vTaskDelay(configTICK_RATE_HZ);
  36:calibrate.c   ****         high_current = get_raw_current_usage() - newsettings->calibration_settings.adc_current_offs
  37:calibrate.c   **** 
  38:calibrate.c   ****         IDAC_High_SetValue(low_value);
  39:calibrate.c   ****         vTaskDelay(configTICK_RATE_HZ);
  40:calibrate.c   ****         low_current = get_raw_current_usage() - newsettings->calibration_settings.adc_current_offse
  41:calibrate.c   **** 
  42:calibrate.c   ****         int offset = (high_value * low_current - low_value * high_current) / (high_value - low_valu
  43:calibrate.c   **** 		if(offset <= 0 && offset > min_offset) {
  44:calibrate.c   ****             min_offset = offset;
  45:calibrate.c   ****             min_offset_idx = i;
  46:calibrate.c   **** 		}
  47:calibrate.c   **** 	}
  48:calibrate.c   ****     set_opamp_offset_trim(newsettings, min_offset_idx);
  49:calibrate.c   **** 
  50:calibrate.c   **** 	set_current(0);
  51:calibrate.c   ****     state.calibrating = 0;
  52:calibrate.c   **** }
  53:calibrate.c   **** 
  54:calibrate.c   **** void calibrate_dacs(settings_t *newsettings, int microamps) {
 138              		.loc 1 54 0
 139              		.cfi_startproc
 140              		@ args = 0, pretend = 0, frame = 0
 141              		@ frame_needed = 0, uses_anonymous_args = 0
 142              	.LVL14:
 143 0000 F8B5     		push	{r3, r4, r5, r6, r7, lr}
 144              		.cfi_def_cfa_offset 24
 145              		.cfi_offset 3, -24
 146              		.cfi_offset 4, -20
 147              		.cfi_offset 5, -16
 148              		.cfi_offset 6, -12
 149              		.cfi_offset 7, -8
 150              		.cfi_offset 14, -4
 151 0002 4F46     		mov	r7, r9
 152 0004 4646     		mov	r6, r8
 153 0006 C0B4     		push	{r6, r7}
 154              		.cfi_def_cfa_offset 32
 155              		.cfi_offset 8, -32
 156              		.cfi_offset 9, -28
 157 0008 0400     		movs	r4, r0
 158 000a 0800     		movs	r0, r1
 159              	.LVL15:
  55:calibrate.c   ****     state.calibrating = 1;
 160              		.loc 1 55 0
 161 000c 264F     		ldr	r7, .L5
 162 000e 0123     		movs	r3, #1
 163 0010 3B72     		strb	r3, [r7, #8]
  56:calibrate.c   **** 	int high_value = microamps / DEFAULT_DAC_HIGH_GAIN;
 164              		.loc 1 56 0
 165 0012 2649     		ldr	r1, .L5+4
 166              	.LVL16:
 167 0014 FFF7FEFF 		bl	__aeabi_idiv
 168              	.LVL17:
 169 0018 8146     		mov	r9, r0
 170              	.LVL18:
  57:calibrate.c   **** 	int low_value = 100000 / DEFAULT_DAC_HIGH_GAIN; // Approx 100mA
  58:calibrate.c   ****     int high_current, low_current;
ARM GAS  C:\Users\VIDEOH~1\AppData\Local\Temp\ccFAWgrk.s 			page 5


  59:calibrate.c   **** 
  60:calibrate.c   ****     IDAC_Low_SetValue(0);
 171              		.loc 1 60 0
 172 001a 0020     		movs	r0, #0
 173              	.LVL19:
 174 001c FFF7FEFF 		bl	IDAC_Low_SetValue
 175              	.LVL20:
  61:calibrate.c   **** 
  62:calibrate.c   **** 	// Calculate offset and gain for IDAC_High 
  63:calibrate.c   ****     IDAC_High_SetValue(high_value);
 176              		.loc 1 63 0
 177 0020 4846     		mov	r0, r9
 178 0022 FFF7FEFF 		bl	IDAC_High_SetValue
 179              	.LVL21:
  64:calibrate.c   **** 	vTaskDelay(configTICK_RATE_HZ * 2);
 180              		.loc 1 64 0
 181 0026 C820     		movs	r0, #200
 182 0028 FFF7FEFF 		bl	vTaskDelay
 183              	.LVL22:
  65:calibrate.c   **** 	high_current = (get_raw_current_usage() - newsettings->calibration_settings.adc_current_offset) * 
 184              		.loc 1 65 0
 185 002c FFF7FEFF 		bl	get_raw_current_usage
 186              	.LVL23:
 187 0030 E369     		ldr	r3, [r4, #28]
 188 0032 C01A     		subs	r0, r0, r3
 189 0034 1E4B     		ldr	r3, .L5+8
 190 0036 9846     		mov	r8, r3
 191 0038 1B68     		ldr	r3, [r3]
 192 003a 1D6A     		ldr	r5, [r3, #32]
 193 003c 4543     		muls	r5, r0
 194              	.LVL24:
  66:calibrate.c   **** 
  67:calibrate.c   **** 	IDAC_High_SetValue(low_value);
 195              		.loc 1 67 0
 196 003e 0420     		movs	r0, #4
 197 0040 FFF7FEFF 		bl	IDAC_High_SetValue
 198              	.LVL25:
  68:calibrate.c   **** 	vTaskDelay(configTICK_RATE_HZ * 2);
 199              		.loc 1 68 0
 200 0044 C820     		movs	r0, #200
 201 0046 FFF7FEFF 		bl	vTaskDelay
 202              	.LVL26:
  69:calibrate.c   **** 	low_current = (get_raw_current_usage() - newsettings->calibration_settings.adc_current_offset) * s
 203              		.loc 1 69 0
 204 004a FFF7FEFF 		bl	get_raw_current_usage
 205              	.LVL27:
 206 004e E369     		ldr	r3, [r4, #28]
 207 0050 C01A     		subs	r0, r0, r3
 208 0052 4346     		mov	r3, r8
 209 0054 1B68     		ldr	r3, [r3]
 210 0056 1E6A     		ldr	r6, [r3, #32]
 211 0058 4643     		muls	r6, r0
 212              	.LVL28:
  70:calibrate.c   **** 	
  71:calibrate.c   **** 	newsettings->calibration_settings.dac_high_gain = (high_current - low_current) / (high_value - low
 213              		.loc 1 71 0
 214 005a A81B     		subs	r0, r5, r6
ARM GAS  C:\Users\VIDEOH~1\AppData\Local\Temp\ccFAWgrk.s 			page 6


 215 005c 4B46     		mov	r3, r9
 216 005e 191F     		subs	r1, r3, #4
 217 0060 FFF7FEFF 		bl	__aeabi_idiv
 218              	.LVL29:
 219 0064 2061     		str	r0, [r4, #16]
  72:calibrate.c   **** 	newsettings->calibration_settings.dac_offset = high_current - high_value * newsettings->calibratio
 220              		.loc 1 72 0
 221 0066 4B46     		mov	r3, r9
 222 0068 5843     		muls	r0, r3
 223 006a 2D1A     		subs	r5, r5, r0
 224              	.LVL30:
 225 006c 6561     		str	r5, [r4, #20]
  73:calibrate.c   **** 	
  74:calibrate.c   **** 	// Calculate gain for IDAC_Low
  75:calibrate.c   **** 	IDAC_Low_SetValue(127);
 226              		.loc 1 75 0
 227 006e 7F20     		movs	r0, #127
 228 0070 FFF7FEFF 		bl	IDAC_Low_SetValue
 229              	.LVL31:
  76:calibrate.c   **** 	vTaskDelay(configTICK_RATE_HZ * 4);
 230              		.loc 1 76 0
 231 0074 C820     		movs	r0, #200
 232 0076 4000     		lsls	r0, r0, #1
 233 0078 FFF7FEFF 		bl	vTaskDelay
 234              	.LVL32:
  77:calibrate.c   **** 	newsettings->calibration_settings.dac_low_gain = ((get_raw_current_usage() - newsettings->calibrat
 235              		.loc 1 77 0
 236 007c FFF7FEFF 		bl	get_raw_current_usage
 237              	.LVL33:
 238 0080 E369     		ldr	r3, [r4, #28]
 239 0082 C01A     		subs	r0, r0, r3
 240 0084 4346     		mov	r3, r8
 241 0086 1B68     		ldr	r3, [r3]
 242 0088 1B6A     		ldr	r3, [r3, #32]
 243 008a 5843     		muls	r0, r3
 244 008c 801B     		subs	r0, r0, r6
 245 008e 7F21     		movs	r1, #127
 246 0090 FFF7FEFF 		bl	__aeabi_idiv
 247              	.LVL34:
 248 0094 E060     		str	r0, [r4, #12]
  78:calibrate.c   **** 	
  79:calibrate.c   **** 	// Reset for 0 output
  80:calibrate.c   **** 	set_current(0);
 249              		.loc 1 80 0
 250 0096 0020     		movs	r0, #0
 251 0098 FFF7FEFF 		bl	set_current
 252              	.LVL35:
  81:calibrate.c   ****     state.calibrating = 0;
 253              		.loc 1 81 0
 254 009c 0023     		movs	r3, #0
 255 009e 3B72     		strb	r3, [r7, #8]
  82:calibrate.c   **** }
 256              		.loc 1 82 0
 257              		@ sp needed
 258              	.LVL36:
 259              	.LVL37:
 260              	.LVL38:
ARM GAS  C:\Users\VIDEOH~1\AppData\Local\Temp\ccFAWgrk.s 			page 7


 261 00a0 0CBC     		pop	{r2, r3}
 262 00a2 9046     		mov	r8, r2
 263 00a4 9946     		mov	r9, r3
 264 00a6 F8BD     		pop	{r3, r4, r5, r6, r7, pc}
 265              	.L6:
 266              		.align	2
 267              	.L5:
 268 00a8 00000000 		.word	state
 269 00ac A5520000 		.word	21157
 270 00b0 00000000 		.word	settings
 271              		.cfi_endproc
 272              	.LFE36:
 273              		.size	calibrate_dacs, .-calibrate_dacs
 274              		.section	.text.set_opamp_offset_trim,"ax",%progbits
 275              		.align	2
 276              		.global	set_opamp_offset_trim
 277              		.code	16
 278              		.thumb_func
 279              		.type	set_opamp_offset_trim, %function
 280              	set_opamp_offset_trim:
 281              	.LFB37:
  83:calibrate.c   **** 
  84:calibrate.c   **** void set_opamp_offset_trim(settings_t *newsettings, int trim) {
 282              		.loc 1 84 0
 283              		.cfi_startproc
 284              		@ args = 0, pretend = 0, frame = 0
 285              		@ frame_needed = 0, uses_anonymous_args = 0
 286              		@ link register save eliminated.
 287              	.LVL39:
  85:calibrate.c   **** 	newsettings->calibration_settings.opamp_offset_trim = trim;
 288              		.loc 1 85 0
 289 0000 8161     		str	r1, [r0, #24]
  86:calibrate.c   **** 	CY_SET_REG32(Opamp_cy_psoc4_abuf__OA_OFFSET_TRIM, newsettings->calibration_settings.opamp_offset_t
 290              		.loc 1 86 0
 291 0002 014B     		ldr	r3, .L8
 292 0004 1960     		str	r1, [r3]
  87:calibrate.c   **** }
 293              		.loc 1 87 0
 294              		@ sp needed
 295 0006 7047     		bx	lr
 296              	.L9:
 297              		.align	2
 298              	.L8:
 299 0008 000F1040 		.word	1074794240
 300              		.cfi_endproc
 301              	.LFE37:
 302              		.size	set_opamp_offset_trim, .-set_opamp_offset_trim
 303              		.section	.text.calibrate_opamp_offset_trim,"ax",%progbits
 304              		.align	2
 305              		.global	calibrate_opamp_offset_trim
 306              		.code	16
 307              		.thumb_func
 308              		.type	calibrate_opamp_offset_trim, %function
 309              	calibrate_opamp_offset_trim:
 310              	.LFB35:
  19:calibrate.c   ****     state.calibrating = 1;
 311              		.loc 1 19 0
ARM GAS  C:\Users\VIDEOH~1\AppData\Local\Temp\ccFAWgrk.s 			page 8


 312              		.cfi_startproc
 313              		@ args = 0, pretend = 0, frame = 8
 314              		@ frame_needed = 0, uses_anonymous_args = 0
 315              	.LVL40:
 316 0000 F0B5     		push	{r4, r5, r6, r7, lr}
 317              		.cfi_def_cfa_offset 20
 318              		.cfi_offset 4, -20
 319              		.cfi_offset 5, -16
 320              		.cfi_offset 6, -12
 321              		.cfi_offset 7, -8
 322              		.cfi_offset 14, -4
 323 0002 5F46     		mov	r7, fp
 324 0004 5646     		mov	r6, r10
 325 0006 4D46     		mov	r5, r9
 326 0008 E0B4     		push	{r5, r6, r7}
 327              		.cfi_def_cfa_offset 32
 328              		.cfi_offset 9, -32
 329              		.cfi_offset 10, -28
 330              		.cfi_offset 11, -24
 331 000a 82B0     		sub	sp, sp, #8
 332              		.cfi_def_cfa_offset 40
 333 000c 0600     		movs	r6, r0
 334 000e 0800     		movs	r0, r1
 335              	.LVL41:
 336 0010 9146     		mov	r9, r2
  20:calibrate.c   **** 	int high_value = microamps / DEFAULT_DAC_HIGH_GAIN;
 337              		.loc 1 20 0
 338 0012 0122     		movs	r2, #1
 339              	.LVL42:
 340 0014 254B     		ldr	r3, .L15
 341 0016 1A72     		strb	r2, [r3, #8]
  21:calibrate.c   **** 	int low_value = 100000 / DEFAULT_DAC_HIGH_GAIN; // Approx 100mA
 342              		.loc 1 21 0
 343 0018 2549     		ldr	r1, .L15+4
 344              	.LVL43:
 345 001a FFF7FEFF 		bl	__aeabi_idiv
 346              	.LVL44:
 347 001e 0700     		movs	r7, r0
 348              	.LVL45:
  24:calibrate.c   **** 
 349              		.loc 1 24 0
 350 0020 0020     		movs	r0, #0
 351              	.LVL46:
 352 0022 FFF7FEFF 		bl	IDAC_Low_SetValue
 353              	.LVL47:
 354              	.LBB2:
  30:calibrate.c   ****         progress_callback(i+1,MAX_OA_OFFSET_STEPS);
 355              		.loc 1 30 0
 356 0026 0024     		movs	r4, #0
 357              	.LBE2:
  28:calibrate.c   ****     
 358              		.loc 1 28 0
 359 0028 0023     		movs	r3, #0
 360 002a 0193     		str	r3, [sp, #4]
  27:calibrate.c   ****     int min_offset_idx = 0;
 361              		.loc 1 27 0
 362 002c 8023     		movs	r3, #128
ARM GAS  C:\Users\VIDEOH~1\AppData\Local\Temp\ccFAWgrk.s 			page 9


 363 002e 1B06     		lsls	r3, r3, #24
 364 0030 9A46     		mov	r10, r3
 365              	.LBB4:
  30:calibrate.c   ****         progress_callback(i+1,MAX_OA_OFFSET_STEPS);
 366              		.loc 1 30 0
 367 0032 29E0     		b	.L11
 368              	.LVL48:
 369              	.L13:
 370              	.LBB3:
  31:calibrate.c   **** 		CY_SET_REG32(Opamp_cy_psoc4_abuf__OA_OFFSET_TRIM, i);
 371              		.loc 1 31 0
 372 0034 651C     		adds	r5, r4, #1
 373 0036 4021     		movs	r1, #64
 374 0038 2800     		movs	r0, r5
 375 003a C847     		blx	r9
 376              	.LVL49:
  32:calibrate.c   **** 		
 377              		.loc 1 32 0
 378 003c 1D4B     		ldr	r3, .L15+8
 379 003e 1C60     		str	r4, [r3]
 380              	.LVL50:
  34:calibrate.c   ****         vTaskDelay(configTICK_RATE_HZ);
 381              		.loc 1 34 0
 382 0040 3800     		movs	r0, r7
 383 0042 FFF7FEFF 		bl	IDAC_High_SetValue
 384              	.LVL51:
  35:calibrate.c   ****         high_current = get_raw_current_usage() - newsettings->calibration_settings.adc_current_offs
 385              		.loc 1 35 0
 386 0046 6420     		movs	r0, #100
 387 0048 FFF7FEFF 		bl	vTaskDelay
 388              	.LVL52:
  36:calibrate.c   **** 
 389              		.loc 1 36 0
 390 004c FFF7FEFF 		bl	get_raw_current_usage
 391              	.LVL53:
 392 0050 F369     		ldr	r3, [r6, #28]
 393 0052 C31A     		subs	r3, r0, r3
 394 0054 9B46     		mov	fp, r3
 395              	.LVL54:
  38:calibrate.c   ****         vTaskDelay(configTICK_RATE_HZ);
 396              		.loc 1 38 0
 397 0056 0420     		movs	r0, #4
 398 0058 FFF7FEFF 		bl	IDAC_High_SetValue
 399              	.LVL55:
  39:calibrate.c   ****         low_current = get_raw_current_usage() - newsettings->calibration_settings.adc_current_offse
 400              		.loc 1 39 0
 401 005c 6420     		movs	r0, #100
 402 005e FFF7FEFF 		bl	vTaskDelay
 403              	.LVL56:
  40:calibrate.c   **** 
 404              		.loc 1 40 0
 405 0062 FFF7FEFF 		bl	get_raw_current_usage
 406              	.LVL57:
 407 0066 F369     		ldr	r3, [r6, #28]
 408 0068 C01A     		subs	r0, r0, r3
 409              	.LVL58:
  42:calibrate.c   **** 		if(offset <= 0 && offset > min_offset) {
ARM GAS  C:\Users\VIDEOH~1\AppData\Local\Temp\ccFAWgrk.s 			page 10


 410              		.loc 1 42 0
 411 006a 0300     		movs	r3, r0
 412 006c 7B43     		muls	r3, r7
 413 006e 5A46     		mov	r2, fp
 414 0070 9000     		lsls	r0, r2, #2
 415              	.LVL59:
 416 0072 181A     		subs	r0, r3, r0
 417 0074 391F     		subs	r1, r7, #4
 418 0076 FFF7FEFF 		bl	__aeabi_idiv
 419              	.LVL60:
  43:calibrate.c   ****             min_offset = offset;
 420              		.loc 1 43 0
 421 007a 0028     		cmp	r0, #0
 422 007c 03DC     		bgt	.L12
  43:calibrate.c   ****             min_offset = offset;
 423              		.loc 1 43 0 is_stmt 0 discriminator 1
 424 007e 8245     		cmp	r10, r0
 425 0080 01DA     		bge	.L12
  45:calibrate.c   **** 		}
 426              		.loc 1 45 0 is_stmt 1
 427 0082 0194     		str	r4, [sp, #4]
  44:calibrate.c   ****             min_offset_idx = i;
 428              		.loc 1 44 0
 429 0084 8246     		mov	r10, r0
 430              	.LVL61:
 431              	.L12:
  44:calibrate.c   ****             min_offset_idx = i;
 432              		.loc 1 44 0 is_stmt 0 discriminator 1
 433 0086 2C00     		movs	r4, r5
 434              	.LVL62:
 435              	.L11:
 436              	.LBE3:
  30:calibrate.c   ****         progress_callback(i+1,MAX_OA_OFFSET_STEPS);
 437              		.loc 1 30 0 is_stmt 1 discriminator 1
 438 0088 3F2C     		cmp	r4, #63
 439 008a D3DD     		ble	.L13
 440              	.LBE4:
  48:calibrate.c   **** 
 441              		.loc 1 48 0
 442 008c 0199     		ldr	r1, [sp, #4]
 443 008e 3000     		movs	r0, r6
 444 0090 FFF7FEFF 		bl	set_opamp_offset_trim
 445              	.LVL63:
  50:calibrate.c   ****     state.calibrating = 0;
 446              		.loc 1 50 0
 447 0094 0020     		movs	r0, #0
 448 0096 FFF7FEFF 		bl	set_current
 449              	.LVL64:
  51:calibrate.c   **** }
 450              		.loc 1 51 0
 451 009a 0022     		movs	r2, #0
 452 009c 034B     		ldr	r3, .L15
 453 009e 1A72     		strb	r2, [r3, #8]
  52:calibrate.c   **** 
 454              		.loc 1 52 0
 455 00a0 02B0     		add	sp, sp, #8
 456              		@ sp needed
ARM GAS  C:\Users\VIDEOH~1\AppData\Local\Temp\ccFAWgrk.s 			page 11


 457              	.LVL65:
 458              	.LVL66:
 459              	.LVL67:
 460              	.LVL68:
 461              	.LVL69:
 462 00a2 1CBC     		pop	{r2, r3, r4}
 463 00a4 9146     		mov	r9, r2
 464 00a6 9A46     		mov	r10, r3
 465 00a8 A346     		mov	fp, r4
 466 00aa F0BD     		pop	{r4, r5, r6, r7, pc}
 467              	.L16:
 468              		.align	2
 469              	.L15:
 470 00ac 00000000 		.word	state
 471 00b0 A5520000 		.word	21157
 472 00b4 000F1040 		.word	1074794240
 473              		.cfi_endproc
 474              	.LFE35:
 475              		.size	calibrate_opamp_offset_trim, .-calibrate_opamp_offset_trim
 476              		.text
 477              	.Letext0:
 478              		.file 2 "c:\\program files (x86)\\cypress\\psoc creator\\4.2\\psoc creator\\import\\gnu\\arm\\5.4.
 479              		.file 3 "c:\\program files (x86)\\cypress\\psoc creator\\4.2\\psoc creator\\import\\gnu\\arm\\5.4.
 480              		.file 4 "Generated_Source\\PSoC4/cytypes.h"
 481              		.file 5 ".\\freertos\\include/portmacro.h"
 482              		.file 6 "config.h"
 483              		.file 7 "calibrate.h"
 484              		.file 8 "Generated_Source\\PSoC4/IDAC_Low.h"
 485              		.file 9 "Generated_Source\\PSoC4/IDAC_High.h"
 486              		.file 10 ".\\freertos\\include/task.h"