ARM GAS  C:\Users\VIDEOH~1\AppData\Local\Temp\ccMjVBro.s 			page 1


   1              		.syntax unified
   2              		.cpu cortex-m0
   3              		.fpu softvfp
   4              		.eabi_attribute 20, 1
   5              		.eabi_attribute 21, 1
   6              		.eabi_attribute 23, 3
   7              		.eabi_attribute 24, 1
   8              		.eabi_attribute 25, 1
   9              		.eabi_attribute 26, 1
  10              		.eabi_attribute 30, 4
  11              		.eabi_attribute 34, 0
  12              		.eabi_attribute 18, 4
  13              		.thumb
  14              		.syntax unified
  15              		.file	"croutine.c"
  16              		.text
  17              	.Ltext0:
  18              		.cfi_sections	.debug_frame
  19              		.section	.text.xCoRoutineCreate,"ax",%progbits
  20              		.align	1
  21              		.global	xCoRoutineCreate
  22              		.code	16
  23              		.thumb_func
  24              		.type	xCoRoutineCreate, %function
  25              	xCoRoutineCreate:
  26              	.LFB32:
  27              		.file 1 "freertos\\src\\croutine.c"
   1:freertos\src/croutine.c **** /*
   2:freertos\src/croutine.c ****     FreeRTOS V7.6.0 - Copyright (C) 2013 Real Time Engineers Ltd.
   3:freertos\src/croutine.c ****     All rights reserved
   4:freertos\src/croutine.c **** 
   5:freertos\src/croutine.c ****     VISIT http://www.FreeRTOS.org TO ENSURE YOU ARE USING THE LATEST VERSION.
   6:freertos\src/croutine.c **** 
   7:freertos\src/croutine.c ****     ***************************************************************************
   8:freertos\src/croutine.c ****      *                                                                       *
   9:freertos\src/croutine.c ****      *    FreeRTOS provides completely free yet professionally developed,    *
  10:freertos\src/croutine.c ****      *    robust, strictly quality controlled, supported, and cross          *
  11:freertos\src/croutine.c ****      *    platform software that has become a de facto standard.             *
  12:freertos\src/croutine.c ****      *                                                                       *
  13:freertos\src/croutine.c ****      *    Help yourself get started quickly and support the FreeRTOS         *
  14:freertos\src/croutine.c ****      *    project by purchasing a FreeRTOS tutorial book, reference          *
  15:freertos\src/croutine.c ****      *    manual, or both from: http://www.FreeRTOS.org/Documentation        *
  16:freertos\src/croutine.c ****      *                                                                       *
  17:freertos\src/croutine.c ****      *    Thank you!                                                         *
  18:freertos\src/croutine.c ****      *                                                                       *
  19:freertos\src/croutine.c ****     ***************************************************************************
  20:freertos\src/croutine.c **** 
  21:freertos\src/croutine.c ****     This file is part of the FreeRTOS distribution.
  22:freertos\src/croutine.c **** 
  23:freertos\src/croutine.c ****     FreeRTOS is free software; you can redistribute it and/or modify it under
  24:freertos\src/croutine.c ****     the terms of the GNU General Public License (version 2) as published by the
  25:freertos\src/croutine.c ****     Free Software Foundation >>!AND MODIFIED BY!<< the FreeRTOS exception.
  26:freertos\src/croutine.c **** 
  27:freertos\src/croutine.c ****     >>! NOTE: The modification to the GPL is included to allow you to distribute
  28:freertos\src/croutine.c ****     >>! a combined work that includes FreeRTOS without being obliged to provide
  29:freertos\src/croutine.c ****     >>! the source code for proprietary components outside of the FreeRTOS
  30:freertos\src/croutine.c ****     >>! kernel.
ARM GAS  C:\Users\VIDEOH~1\AppData\Local\Temp\ccMjVBro.s 			page 2


  31:freertos\src/croutine.c **** 
  32:freertos\src/croutine.c ****     FreeRTOS is distributed in the hope that it will be useful, but WITHOUT ANY
  33:freertos\src/croutine.c ****     WARRANTY; without even the implied warranty of MERCHANTABILITY or FITNESS
  34:freertos\src/croutine.c ****     FOR A PARTICULAR PURPOSE.  Full license text is available from the following
  35:freertos\src/croutine.c ****     link: http://www.freertos.org/a00114.html
  36:freertos\src/croutine.c **** 
  37:freertos\src/croutine.c ****     1 tab == 4 spaces!
  38:freertos\src/croutine.c **** 
  39:freertos\src/croutine.c ****     ***************************************************************************
  40:freertos\src/croutine.c ****      *                                                                       *
  41:freertos\src/croutine.c ****      *    Having a problem?  Start by reading the FAQ "My application does   *
  42:freertos\src/croutine.c ****      *    not run, what could be wrong?"                                     *
  43:freertos\src/croutine.c ****      *                                                                       *
  44:freertos\src/croutine.c ****      *    http://www.FreeRTOS.org/FAQHelp.html                               *
  45:freertos\src/croutine.c ****      *                                                                       *
  46:freertos\src/croutine.c ****     ***************************************************************************
  47:freertos\src/croutine.c **** 
  48:freertos\src/croutine.c ****     http://www.FreeRTOS.org - Documentation, books, training, latest versions,
  49:freertos\src/croutine.c ****     license and Real Time Engineers Ltd. contact details.
  50:freertos\src/croutine.c **** 
  51:freertos\src/croutine.c ****     http://www.FreeRTOS.org/plus - A selection of FreeRTOS ecosystem products,
  52:freertos\src/croutine.c ****     including FreeRTOS+Trace - an indispensable productivity tool, a DOS
  53:freertos\src/croutine.c ****     compatible FAT file system, and our tiny thread aware UDP/IP stack.
  54:freertos\src/croutine.c **** 
  55:freertos\src/croutine.c ****     http://www.OpenRTOS.com - Real Time Engineers ltd license FreeRTOS to High
  56:freertos\src/croutine.c ****     Integrity Systems to sell under the OpenRTOS brand.  Low cost OpenRTOS
  57:freertos\src/croutine.c ****     licenses offer ticketed support, indemnification and middleware.
  58:freertos\src/croutine.c **** 
  59:freertos\src/croutine.c ****     http://www.SafeRTOS.com - High Integrity Systems also provide a safety
  60:freertos\src/croutine.c ****     engineered and independently SIL3 certified version for use in safety and
  61:freertos\src/croutine.c ****     mission critical applications that require provable dependability.
  62:freertos\src/croutine.c **** 
  63:freertos\src/croutine.c ****     1 tab == 4 spaces!
  64:freertos\src/croutine.c **** */
  65:freertos\src/croutine.c **** 
  66:freertos\src/croutine.c **** #include "FreeRTOS.h"
  67:freertos\src/croutine.c **** #include "task.h"
  68:freertos\src/croutine.c **** #include "croutine.h"
  69:freertos\src/croutine.c **** 
  70:freertos\src/croutine.c **** /*
  71:freertos\src/croutine.c ****  * Some kernel aware debuggers require data to be viewed to be global, rather
  72:freertos\src/croutine.c ****  * than file scope.
  73:freertos\src/croutine.c ****  */
  74:freertos\src/croutine.c **** #ifdef portREMOVE_STATIC_QUALIFIER
  75:freertos\src/croutine.c **** 	#define static
  76:freertos\src/croutine.c **** #endif
  77:freertos\src/croutine.c **** 
  78:freertos\src/croutine.c **** 
  79:freertos\src/croutine.c **** /* Lists for ready and blocked co-routines. --------------------*/
  80:freertos\src/croutine.c **** static xList pxReadyCoRoutineLists[ configMAX_CO_ROUTINE_PRIORITIES ];	/*< Prioritised ready co-rou
  81:freertos\src/croutine.c **** static xList xDelayedCoRoutineList1;									/*< Delayed co-routines. */
  82:freertos\src/croutine.c **** static xList xDelayedCoRoutineList2;									/*< Delayed co-routines (two lists are used - one for 
  83:freertos\src/croutine.c **** static xList * pxDelayedCoRoutineList;									/*< Points to the delayed co-routine list currently 
  84:freertos\src/croutine.c **** static xList * pxOverflowDelayedCoRoutineList;							/*< Points to the delayed co-routine list curr
  85:freertos\src/croutine.c **** static xList xPendingReadyCoRoutineList;								/*< Holds co-routines that have been readied by an 
  86:freertos\src/croutine.c **** 
  87:freertos\src/croutine.c **** /* Other file private variables. --------------------------------*/
ARM GAS  C:\Users\VIDEOH~1\AppData\Local\Temp\ccMjVBro.s 			page 3


  88:freertos\src/croutine.c **** corCRCB * pxCurrentCoRoutine = NULL;
  89:freertos\src/croutine.c **** static unsigned portBASE_TYPE uxTopCoRoutineReadyPriority = 0;
  90:freertos\src/croutine.c **** static portTickType xCoRoutineTickCount = 0, xLastTickCount = 0, xPassedTicks = 0;
  91:freertos\src/croutine.c **** 
  92:freertos\src/croutine.c **** /* The initial state of the co-routine when it is created. */
  93:freertos\src/croutine.c **** #define corINITIAL_STATE	( 0 )
  94:freertos\src/croutine.c **** 
  95:freertos\src/croutine.c **** /*
  96:freertos\src/croutine.c ****  * Place the co-routine represented by pxCRCB into the appropriate ready queue
  97:freertos\src/croutine.c ****  * for the priority.  It is inserted at the end of the list.
  98:freertos\src/croutine.c ****  *
  99:freertos\src/croutine.c ****  * This macro accesses the co-routine ready lists and therefore must not be
 100:freertos\src/croutine.c ****  * used from within an ISR.
 101:freertos\src/croutine.c ****  */
 102:freertos\src/croutine.c **** #define prvAddCoRoutineToReadyQueue( pxCRCB )																		\
 103:freertos\src/croutine.c **** {																													\
 104:freertos\src/croutine.c **** 	if( pxCRCB->uxPriority > uxTopCoRoutineReadyPriority )															\
 105:freertos\src/croutine.c **** 	{																												\
 106:freertos\src/croutine.c **** 		uxTopCoRoutineReadyPriority = pxCRCB->uxPriority;															\
 107:freertos\src/croutine.c **** 	}																												\
 108:freertos\src/croutine.c **** 	vListInsertEnd( ( xList * ) &( pxReadyCoRoutineLists[ pxCRCB->uxPriority ] ), &( pxCRCB->xGenericL
 109:freertos\src/croutine.c **** }
 110:freertos\src/croutine.c **** 
 111:freertos\src/croutine.c **** /*
 112:freertos\src/croutine.c ****  * Utility to ready all the lists used by the scheduler.  This is called
 113:freertos\src/croutine.c ****  * automatically upon the creation of the first co-routine.
 114:freertos\src/croutine.c ****  */
 115:freertos\src/croutine.c **** static void prvInitialiseCoRoutineLists( void );
 116:freertos\src/croutine.c **** 
 117:freertos\src/croutine.c **** /*
 118:freertos\src/croutine.c ****  * Co-routines that are readied by an interrupt cannot be placed directly into
 119:freertos\src/croutine.c ****  * the ready lists (there is no mutual exclusion).  Instead they are placed in
 120:freertos\src/croutine.c ****  * in the pending ready list in order that they can later be moved to the ready
 121:freertos\src/croutine.c ****  * list by the co-routine scheduler.
 122:freertos\src/croutine.c ****  */
 123:freertos\src/croutine.c **** static void prvCheckPendingReadyList( void );
 124:freertos\src/croutine.c **** 
 125:freertos\src/croutine.c **** /*
 126:freertos\src/croutine.c ****  * Macro that looks at the list of co-routines that are currently delayed to
 127:freertos\src/croutine.c ****  * see if any require waking.
 128:freertos\src/croutine.c ****  *
 129:freertos\src/croutine.c ****  * Co-routines are stored in the queue in the order of their wake time -
 130:freertos\src/croutine.c ****  * meaning once one co-routine has been found whose timer has not expired
 131:freertos\src/croutine.c ****  * we need not look any further down the list.
 132:freertos\src/croutine.c ****  */
 133:freertos\src/croutine.c **** static void prvCheckDelayedList( void );
 134:freertos\src/croutine.c **** 
 135:freertos\src/croutine.c **** /*-----------------------------------------------------------*/
 136:freertos\src/croutine.c **** 
 137:freertos\src/croutine.c **** signed portBASE_TYPE xCoRoutineCreate( crCOROUTINE_CODE pxCoRoutineCode, unsigned portBASE_TYPE uxP
 138:freertos\src/croutine.c **** {
  28              		.loc 1 138 0
  29              		.cfi_startproc
  30              		@ args = 0, pretend = 0, frame = 16
  31              		@ frame_needed = 0, uses_anonymous_args = 0
  32              	.LVL0:
  33 0000 F0B5     		push	{r4, r5, r6, r7, lr}
ARM GAS  C:\Users\VIDEOH~1\AppData\Local\Temp\ccMjVBro.s 			page 4


  34              		.cfi_def_cfa_offset 20
  35              		.cfi_offset 4, -20
  36              		.cfi_offset 5, -16
  37              		.cfi_offset 6, -12
  38              		.cfi_offset 7, -8
  39              		.cfi_offset 14, -4
  40 0002 85B0     		sub	sp, sp, #20
  41              		.cfi_def_cfa_offset 40
  42              		.loc 1 138 0
  43 0004 0190     		str	r0, [sp, #4]
 139:freertos\src/croutine.c **** signed portBASE_TYPE xReturn;
 140:freertos\src/croutine.c **** corCRCB *pxCoRoutine;
 141:freertos\src/croutine.c **** 
 142:freertos\src/croutine.c **** 	/* Allocate the memory that will store the co-routine control block. */
 143:freertos\src/croutine.c **** 	pxCoRoutine = ( corCRCB * ) pvPortMalloc( sizeof( corCRCB ) );
  44              		.loc 1 143 0
  45 0006 3820     		movs	r0, #56
  46              	.LVL1:
 138:freertos\src/croutine.c **** signed portBASE_TYPE xReturn;
  47              		.loc 1 138 0
  48 0008 0291     		str	r1, [sp, #8]
  49 000a 0392     		str	r2, [sp, #12]
  50              		.loc 1 143 0
  51 000c FFF7FEFF 		bl	pvPortMalloc
  52              	.LVL2:
  53 0010 051E     		subs	r5, r0, #0
  54              	.LVL3:
 144:freertos\src/croutine.c **** 	if( pxCoRoutine )
  55              		.loc 1 144 0
  56 0012 41D0     		beq	.L6
 145:freertos\src/croutine.c **** 	{
 146:freertos\src/croutine.c **** 		/* If pxCurrentCoRoutine is NULL then this is the first co-routine to
 147:freertos\src/croutine.c **** 		be created and the co-routine data structures need initialising. */
 148:freertos\src/croutine.c **** 		if( pxCurrentCoRoutine == NULL )
  57              		.loc 1 148 0
  58 0014 224C     		ldr	r4, .L11
  59 0016 2368     		ldr	r3, [r4]
  60 0018 002B     		cmp	r3, #0
  61 001a 17D1     		bne	.L3
 149:freertos\src/croutine.c **** 		{
 150:freertos\src/croutine.c **** 			pxCurrentCoRoutine = pxCoRoutine;
  62              		.loc 1 150 0
  63 001c 2000     		movs	r0, r4
  64              	.LVL4:
  65 001e 20C0     		stmia	r0!, {r5}
  66              	.LVL5:
  67              	.LBB4:
  68              	.LBB5:
 151:freertos\src/croutine.c **** 			prvInitialiseCoRoutineLists();
 152:freertos\src/croutine.c **** 		}
 153:freertos\src/croutine.c **** 
 154:freertos\src/croutine.c **** 		/* Check the priority is within limits. */
 155:freertos\src/croutine.c **** 		if( uxPriority >= configMAX_CO_ROUTINE_PRIORITIES )
 156:freertos\src/croutine.c **** 		{
 157:freertos\src/croutine.c **** 			uxPriority = configMAX_CO_ROUTINE_PRIORITIES - 1;
 158:freertos\src/croutine.c **** 		}
 159:freertos\src/croutine.c **** 
ARM GAS  C:\Users\VIDEOH~1\AppData\Local\Temp\ccMjVBro.s 			page 5


 160:freertos\src/croutine.c **** 		/* Fill out the co-routine control block from the function parameters. */
 161:freertos\src/croutine.c **** 		pxCoRoutine->uxState = corINITIAL_STATE;
 162:freertos\src/croutine.c **** 		pxCoRoutine->uxPriority = uxPriority;
 163:freertos\src/croutine.c **** 		pxCoRoutine->uxIndex = uxIndex;
 164:freertos\src/croutine.c **** 		pxCoRoutine->pxCoRoutineFunction = pxCoRoutineCode;
 165:freertos\src/croutine.c **** 
 166:freertos\src/croutine.c **** 		/* Initialise all the other co-routine control block parameters. */
 167:freertos\src/croutine.c **** 		vListInitialiseItem( &( pxCoRoutine->xGenericListItem ) );
 168:freertos\src/croutine.c **** 		vListInitialiseItem( &( pxCoRoutine->xEventListItem ) );
 169:freertos\src/croutine.c **** 
 170:freertos\src/croutine.c **** 		/* Set the co-routine control block as a link back from the xListItem.
 171:freertos\src/croutine.c **** 		This is so we can get back to the containing CRCB from a generic item
 172:freertos\src/croutine.c **** 		in a list. */
 173:freertos\src/croutine.c **** 		listSET_LIST_ITEM_OWNER( &( pxCoRoutine->xGenericListItem ), pxCoRoutine );
 174:freertos\src/croutine.c **** 		listSET_LIST_ITEM_OWNER( &( pxCoRoutine->xEventListItem ), pxCoRoutine );
 175:freertos\src/croutine.c **** 
 176:freertos\src/croutine.c **** 		/* Event lists are always in priority order. */
 177:freertos\src/croutine.c **** 		listSET_LIST_ITEM_VALUE( &( pxCoRoutine->xEventListItem ), configMAX_PRIORITIES - ( portTickType 
 178:freertos\src/croutine.c **** 
 179:freertos\src/croutine.c **** 		/* Now the co-routine has been initialised it can be added to the ready
 180:freertos\src/croutine.c **** 		list at the correct priority. */
 181:freertos\src/croutine.c **** 		prvAddCoRoutineToReadyQueue( pxCoRoutine );
 182:freertos\src/croutine.c **** 
 183:freertos\src/croutine.c **** 		xReturn = pdPASS;
 184:freertos\src/croutine.c **** 	}
 185:freertos\src/croutine.c **** 	else
 186:freertos\src/croutine.c **** 	{
 187:freertos\src/croutine.c **** 		xReturn = errCOULD_NOT_ALLOCATE_REQUIRED_MEMORY;
 188:freertos\src/croutine.c **** 	}
 189:freertos\src/croutine.c **** 
 190:freertos\src/croutine.c **** 	return xReturn;
 191:freertos\src/croutine.c **** }
 192:freertos\src/croutine.c **** /*-----------------------------------------------------------*/
 193:freertos\src/croutine.c **** 
 194:freertos\src/croutine.c **** void vCoRoutineAddToDelayedList( portTickType xTicksToDelay, xList *pxEventList )
 195:freertos\src/croutine.c **** {
 196:freertos\src/croutine.c **** portTickType xTimeToWake;
 197:freertos\src/croutine.c **** 
 198:freertos\src/croutine.c **** 	/* Calculate the time to wake - this may overflow but this is
 199:freertos\src/croutine.c **** 	not a problem. */
 200:freertos\src/croutine.c **** 	xTimeToWake = xCoRoutineTickCount + xTicksToDelay;
 201:freertos\src/croutine.c **** 
 202:freertos\src/croutine.c **** 	/* We must remove ourselves from the ready list before adding
 203:freertos\src/croutine.c **** 	ourselves to the blocked list as the same list item is used for
 204:freertos\src/croutine.c **** 	both lists. */
 205:freertos\src/croutine.c **** 	( void ) uxListRemove( ( xListItem * ) &( pxCurrentCoRoutine->xGenericListItem ) );
 206:freertos\src/croutine.c **** 
 207:freertos\src/croutine.c **** 	/* The list item will be inserted in wake time order. */
 208:freertos\src/croutine.c **** 	listSET_LIST_ITEM_VALUE( &( pxCurrentCoRoutine->xGenericListItem ), xTimeToWake );
 209:freertos\src/croutine.c **** 
 210:freertos\src/croutine.c **** 	if( xTimeToWake < xCoRoutineTickCount )
 211:freertos\src/croutine.c **** 	{
 212:freertos\src/croutine.c **** 		/* Wake time has overflowed.  Place this item in the
 213:freertos\src/croutine.c **** 		overflow list. */
 214:freertos\src/croutine.c **** 		vListInsert( ( xList * ) pxOverflowDelayedCoRoutineList, ( xListItem * ) &( pxCurrentCoRoutine->x
 215:freertos\src/croutine.c **** 	}
 216:freertos\src/croutine.c **** 	else
ARM GAS  C:\Users\VIDEOH~1\AppData\Local\Temp\ccMjVBro.s 			page 6


 217:freertos\src/croutine.c **** 	{
 218:freertos\src/croutine.c **** 		/* The wake time has not overflowed, so we can use the
 219:freertos\src/croutine.c **** 		current block list. */
 220:freertos\src/croutine.c **** 		vListInsert( ( xList * ) pxDelayedCoRoutineList, ( xListItem * ) &( pxCurrentCoRoutine->xGenericL
 221:freertos\src/croutine.c **** 	}
 222:freertos\src/croutine.c **** 
 223:freertos\src/croutine.c **** 	if( pxEventList )
 224:freertos\src/croutine.c **** 	{
 225:freertos\src/croutine.c **** 		/* Also add the co-routine to an event list.  If this is done then the
 226:freertos\src/croutine.c **** 		function must be called with interrupts disabled. */
 227:freertos\src/croutine.c **** 		vListInsert( pxEventList, &( pxCurrentCoRoutine->xEventListItem ) );
 228:freertos\src/croutine.c **** 	}
 229:freertos\src/croutine.c **** }
 230:freertos\src/croutine.c **** /*-----------------------------------------------------------*/
 231:freertos\src/croutine.c **** 
 232:freertos\src/croutine.c **** static void prvCheckPendingReadyList( void )
 233:freertos\src/croutine.c **** {
 234:freertos\src/croutine.c **** 	/* Are there any co-routines waiting to get moved to the ready list?  These
 235:freertos\src/croutine.c **** 	are co-routines that have been readied by an ISR.  The ISR cannot access
 236:freertos\src/croutine.c **** 	the	ready lists itself. */
 237:freertos\src/croutine.c **** 	while( listLIST_IS_EMPTY( &xPendingReadyCoRoutineList ) == pdFALSE )
 238:freertos\src/croutine.c **** 	{
 239:freertos\src/croutine.c **** 		corCRCB *pxUnblockedCRCB;
 240:freertos\src/croutine.c **** 
 241:freertos\src/croutine.c **** 		/* The pending ready list can be accessed by an ISR. */
 242:freertos\src/croutine.c **** 		portDISABLE_INTERRUPTS();
 243:freertos\src/croutine.c **** 		{
 244:freertos\src/croutine.c **** 			pxUnblockedCRCB = ( corCRCB * ) listGET_OWNER_OF_HEAD_ENTRY( (&xPendingReadyCoRoutineList) );
 245:freertos\src/croutine.c **** 			( void ) uxListRemove( &( pxUnblockedCRCB->xEventListItem ) );
 246:freertos\src/croutine.c **** 		}
 247:freertos\src/croutine.c **** 		portENABLE_INTERRUPTS();
 248:freertos\src/croutine.c **** 
 249:freertos\src/croutine.c **** 		( void ) uxListRemove( &( pxUnblockedCRCB->xGenericListItem ) );
 250:freertos\src/croutine.c **** 		prvAddCoRoutineToReadyQueue( pxUnblockedCRCB );
 251:freertos\src/croutine.c **** 	}
 252:freertos\src/croutine.c **** }
 253:freertos\src/croutine.c **** /*-----------------------------------------------------------*/
 254:freertos\src/croutine.c **** 
 255:freertos\src/croutine.c **** static void prvCheckDelayedList( void )
 256:freertos\src/croutine.c **** {
 257:freertos\src/croutine.c **** corCRCB *pxCRCB;
 258:freertos\src/croutine.c **** 
 259:freertos\src/croutine.c **** 	xPassedTicks = xTaskGetTickCount() - xLastTickCount;
 260:freertos\src/croutine.c **** 	while( xPassedTicks )
 261:freertos\src/croutine.c **** 	{
 262:freertos\src/croutine.c **** 		xCoRoutineTickCount++;
 263:freertos\src/croutine.c **** 		xPassedTicks--;
 264:freertos\src/croutine.c **** 
 265:freertos\src/croutine.c **** 		/* If the tick count has overflowed we need to swap the ready lists. */
 266:freertos\src/croutine.c **** 		if( xCoRoutineTickCount == 0 )
 267:freertos\src/croutine.c **** 		{
 268:freertos\src/croutine.c **** 			xList * pxTemp;
 269:freertos\src/croutine.c **** 
 270:freertos\src/croutine.c **** 			/* Tick count has overflowed so we need to swap the delay lists.  If there are
 271:freertos\src/croutine.c **** 			any items in pxDelayedCoRoutineList here then there is an error! */
 272:freertos\src/croutine.c **** 			pxTemp = pxDelayedCoRoutineList;
 273:freertos\src/croutine.c **** 			pxDelayedCoRoutineList = pxOverflowDelayedCoRoutineList;
ARM GAS  C:\Users\VIDEOH~1\AppData\Local\Temp\ccMjVBro.s 			page 7


 274:freertos\src/croutine.c **** 			pxOverflowDelayedCoRoutineList = pxTemp;
 275:freertos\src/croutine.c **** 		}
 276:freertos\src/croutine.c **** 
 277:freertos\src/croutine.c **** 		/* See if this tick has made a timeout expire. */
 278:freertos\src/croutine.c **** 		while( listLIST_IS_EMPTY( pxDelayedCoRoutineList ) == pdFALSE )
 279:freertos\src/croutine.c **** 		{
 280:freertos\src/croutine.c **** 			pxCRCB = ( corCRCB * ) listGET_OWNER_OF_HEAD_ENTRY( pxDelayedCoRoutineList );
 281:freertos\src/croutine.c **** 
 282:freertos\src/croutine.c **** 			if( xCoRoutineTickCount < listGET_LIST_ITEM_VALUE( &( pxCRCB->xGenericListItem ) ) )
 283:freertos\src/croutine.c **** 			{
 284:freertos\src/croutine.c **** 				/* Timeout not yet expired. */
 285:freertos\src/croutine.c **** 				break;
 286:freertos\src/croutine.c **** 			}
 287:freertos\src/croutine.c **** 
 288:freertos\src/croutine.c **** 			portDISABLE_INTERRUPTS();
 289:freertos\src/croutine.c **** 			{
 290:freertos\src/croutine.c **** 				/* The event could have occurred just before this critical
 291:freertos\src/croutine.c **** 				section.  If this is the case then the generic list item will
 292:freertos\src/croutine.c **** 				have been moved to the pending ready list and the following
 293:freertos\src/croutine.c **** 				line is still valid.  Also the pvContainer parameter will have
 294:freertos\src/croutine.c **** 				been set to NULL so the following lines are also valid. */
 295:freertos\src/croutine.c **** 				uxListRemove( &( pxCRCB->xGenericListItem ) );
 296:freertos\src/croutine.c **** 
 297:freertos\src/croutine.c **** 				/* Is the co-routine waiting on an event also? */
 298:freertos\src/croutine.c **** 				if( pxCRCB->xEventListItem.pvContainer )
 299:freertos\src/croutine.c **** 				{
 300:freertos\src/croutine.c **** 					( void ) uxListRemove( &( pxCRCB->xEventListItem ) );
 301:freertos\src/croutine.c **** 				}
 302:freertos\src/croutine.c **** 			}
 303:freertos\src/croutine.c **** 			portENABLE_INTERRUPTS();
 304:freertos\src/croutine.c **** 
 305:freertos\src/croutine.c **** 			prvAddCoRoutineToReadyQueue( pxCRCB );
 306:freertos\src/croutine.c **** 		}
 307:freertos\src/croutine.c **** 	}
 308:freertos\src/croutine.c **** 
 309:freertos\src/croutine.c **** 	xLastTickCount = xCoRoutineTickCount;
 310:freertos\src/croutine.c **** }
 311:freertos\src/croutine.c **** /*-----------------------------------------------------------*/
 312:freertos\src/croutine.c **** 
 313:freertos\src/croutine.c **** void vCoRoutineSchedule( void )
 314:freertos\src/croutine.c **** {
 315:freertos\src/croutine.c **** 	/* See if any co-routines readied by events need moving to the ready lists. */
 316:freertos\src/croutine.c **** 	prvCheckPendingReadyList();
 317:freertos\src/croutine.c **** 
 318:freertos\src/croutine.c **** 	/* See if any delayed co-routines have timed out. */
 319:freertos\src/croutine.c **** 	prvCheckDelayedList();
 320:freertos\src/croutine.c **** 
 321:freertos\src/croutine.c **** 	/* Find the highest priority queue that contains ready co-routines. */
 322:freertos\src/croutine.c **** 	while( listLIST_IS_EMPTY( &( pxReadyCoRoutineLists[ uxTopCoRoutineReadyPriority ] ) ) )
 323:freertos\src/croutine.c **** 	{
 324:freertos\src/croutine.c **** 		if( uxTopCoRoutineReadyPriority == 0 )
 325:freertos\src/croutine.c **** 		{
 326:freertos\src/croutine.c **** 			/* No more co-routines to check. */
 327:freertos\src/croutine.c **** 			return;
 328:freertos\src/croutine.c **** 		}
 329:freertos\src/croutine.c **** 		--uxTopCoRoutineReadyPriority;
 330:freertos\src/croutine.c **** 	}
ARM GAS  C:\Users\VIDEOH~1\AppData\Local\Temp\ccMjVBro.s 			page 8


 331:freertos\src/croutine.c **** 
 332:freertos\src/croutine.c **** 	/* listGET_OWNER_OF_NEXT_ENTRY walks through the list, so the co-routines
 333:freertos\src/croutine.c **** 	 of the	same priority get an equal share of the processor time. */
 334:freertos\src/croutine.c **** 	listGET_OWNER_OF_NEXT_ENTRY( pxCurrentCoRoutine, &( pxReadyCoRoutineLists[ uxTopCoRoutineReadyPrio
 335:freertos\src/croutine.c **** 
 336:freertos\src/croutine.c **** 	/* Call the co-routine. */
 337:freertos\src/croutine.c **** 	( pxCurrentCoRoutine->pxCoRoutineFunction )( pxCurrentCoRoutine, pxCurrentCoRoutine->uxIndex );
 338:freertos\src/croutine.c **** 
 339:freertos\src/croutine.c **** 	return;
 340:freertos\src/croutine.c **** }
 341:freertos\src/croutine.c **** /*-----------------------------------------------------------*/
 342:freertos\src/croutine.c **** 
 343:freertos\src/croutine.c **** static void prvInitialiseCoRoutineLists( void )
 344:freertos\src/croutine.c **** {
 345:freertos\src/croutine.c **** unsigned portBASE_TYPE uxPriority;
 346:freertos\src/croutine.c **** 
 347:freertos\src/croutine.c **** 	for( uxPriority = 0; uxPriority < configMAX_CO_ROUTINE_PRIORITIES; uxPriority++ )
 348:freertos\src/croutine.c **** 	{
 349:freertos\src/croutine.c **** 		vListInitialise( ( xList * ) &( pxReadyCoRoutineLists[ uxPriority ] ) );
  69              		.loc 1 349 0
  70 0020 FFF7FEFF 		bl	vListInitialise
  71              	.LVL6:
 350:freertos\src/croutine.c **** 	}
 351:freertos\src/croutine.c **** 
 352:freertos\src/croutine.c **** 	vListInitialise( ( xList * ) &xDelayedCoRoutineList1 );
  72              		.loc 1 352 0
  73 0024 2700     		movs	r7, r4
 349:freertos\src/croutine.c **** 	}
  74              		.loc 1 349 0
  75 0026 2000     		movs	r0, r4
 353:freertos\src/croutine.c **** 	vListInitialise( ( xList * ) &xDelayedCoRoutineList2 );
  76              		.loc 1 353 0
  77 0028 2600     		movs	r6, r4
 349:freertos\src/croutine.c **** 	}
  78              		.loc 1 349 0
  79 002a 1830     		adds	r0, r0, #24
 352:freertos\src/croutine.c **** 	vListInitialise( ( xList * ) &xDelayedCoRoutineList2 );
  80              		.loc 1 352 0
  81 002c 2C37     		adds	r7, r7, #44
 349:freertos\src/croutine.c **** 	}
  82              		.loc 1 349 0
  83 002e FFF7FEFF 		bl	vListInitialise
  84              	.LVL7:
  85              		.loc 1 353 0
  86 0032 4036     		adds	r6, r6, #64
 352:freertos\src/croutine.c **** 	vListInitialise( ( xList * ) &xDelayedCoRoutineList2 );
  87              		.loc 1 352 0
  88 0034 3800     		movs	r0, r7
  89 0036 FFF7FEFF 		bl	vListInitialise
  90              	.LVL8:
  91              		.loc 1 353 0
  92 003a 3000     		movs	r0, r6
  93 003c FFF7FEFF 		bl	vListInitialise
  94              	.LVL9:
 354:freertos\src/croutine.c **** 	vListInitialise( ( xList * ) &xPendingReadyCoRoutineList );
  95              		.loc 1 354 0
  96 0040 2000     		movs	r0, r4
ARM GAS  C:\Users\VIDEOH~1\AppData\Local\Temp\ccMjVBro.s 			page 9


  97 0042 5430     		adds	r0, r0, #84
  98 0044 FFF7FEFF 		bl	vListInitialise
  99              	.LVL10:
 355:freertos\src/croutine.c **** 
 356:freertos\src/croutine.c **** 	/* Start with pxDelayedCoRoutineList using list1 and the
 357:freertos\src/croutine.c **** 	pxOverflowDelayedCoRoutineList using list2. */
 358:freertos\src/croutine.c **** 	pxDelayedCoRoutineList = &xDelayedCoRoutineList1;
 100              		.loc 1 358 0
 101 0048 A766     		str	r7, [r4, #104]
 359:freertos\src/croutine.c **** 	pxOverflowDelayedCoRoutineList = &xDelayedCoRoutineList2;
 102              		.loc 1 359 0
 103 004a E666     		str	r6, [r4, #108]
 104              	.LVL11:
 105              	.L3:
 106 004c 029E     		ldr	r6, [sp, #8]
 107 004e 002E     		cmp	r6, #0
 108 0050 00D0     		beq	.L4
 109 0052 0126     		movs	r6, #1
 110              	.L4:
 111              	.LVL12:
 112              	.LBE5:
 113              	.LBE4:
 161:freertos\src/croutine.c **** 		pxCoRoutine->uxPriority = uxPriority;
 114              		.loc 1 161 0
 115 0054 0023     		movs	r3, #0
 164:freertos\src/croutine.c **** 
 116              		.loc 1 164 0
 117 0056 2F00     		movs	r7, r5
 161:freertos\src/croutine.c **** 		pxCoRoutine->uxPriority = uxPriority;
 118              		.loc 1 161 0
 119 0058 AB86     		strh	r3, [r5, #52]
 163:freertos\src/croutine.c **** 		pxCoRoutine->pxCoRoutineFunction = pxCoRoutineCode;
 120              		.loc 1 163 0
 121 005a 039B     		ldr	r3, [sp, #12]
 162:freertos\src/croutine.c **** 		pxCoRoutine->uxIndex = uxIndex;
 122              		.loc 1 162 0
 123 005c EE62     		str	r6, [r5, #44]
 163:freertos\src/croutine.c **** 		pxCoRoutine->pxCoRoutineFunction = pxCoRoutineCode;
 124              		.loc 1 163 0
 125 005e 2B63     		str	r3, [r5, #48]
 164:freertos\src/croutine.c **** 
 126              		.loc 1 164 0
 127 0060 019B     		ldr	r3, [sp, #4]
 128 0062 08C7     		stmia	r7!, {r3}
 167:freertos\src/croutine.c **** 		vListInitialiseItem( &( pxCoRoutine->xEventListItem ) );
 129              		.loc 1 167 0
 130 0064 3800     		movs	r0, r7
 131 0066 FFF7FEFF 		bl	vListInitialiseItem
 132              	.LVL13:
 168:freertos\src/croutine.c **** 
 133              		.loc 1 168 0
 134 006a 2800     		movs	r0, r5
 135 006c 1830     		adds	r0, r0, #24
 136 006e FFF7FEFF 		bl	vListInitialiseItem
 137              	.LVL14:
 177:freertos\src/croutine.c **** 
 138              		.loc 1 177 0
ARM GAS  C:\Users\VIDEOH~1\AppData\Local\Temp\ccMjVBro.s 			page 10


 139 0072 0423     		movs	r3, #4
 181:freertos\src/croutine.c **** 
 140              		.loc 1 181 0
 141 0074 E86A     		ldr	r0, [r5, #44]
 177:freertos\src/croutine.c **** 
 142              		.loc 1 177 0
 143 0076 9E1B     		subs	r6, r3, r6
 144              	.LVL15:
 181:freertos\src/croutine.c **** 
 145              		.loc 1 181 0
 146 0078 236F     		ldr	r3, [r4, #112]
 173:freertos\src/croutine.c **** 		listSET_LIST_ITEM_OWNER( &( pxCoRoutine->xEventListItem ), pxCoRoutine );
 147              		.loc 1 173 0
 148 007a 2D61     		str	r5, [r5, #16]
 174:freertos\src/croutine.c **** 
 149              		.loc 1 174 0
 150 007c 6D62     		str	r5, [r5, #36]
 177:freertos\src/croutine.c **** 
 151              		.loc 1 177 0
 152 007e AE61     		str	r6, [r5, #24]
 181:freertos\src/croutine.c **** 
 153              		.loc 1 181 0
 154 0080 9842     		cmp	r0, r3
 155 0082 00D9     		bls	.L5
 181:freertos\src/croutine.c **** 
 156              		.loc 1 181 0 is_stmt 0 discriminator 1
 157 0084 2067     		str	r0, [r4, #112]
 158              	.L5:
 181:freertos\src/croutine.c **** 
 159              		.loc 1 181 0 discriminator 3
 160 0086 1423     		movs	r3, #20
 161 0088 5843     		muls	r0, r3
 162 008a 0434     		adds	r4, r4, #4
 163 008c 2018     		adds	r0, r4, r0
 164 008e 3900     		movs	r1, r7
 165 0090 FFF7FEFF 		bl	vListInsertEnd
 166              	.LVL16:
 183:freertos\src/croutine.c **** 	}
 167              		.loc 1 183 0 is_stmt 1 discriminator 3
 168 0094 0120     		movs	r0, #1
 169 0096 01E0     		b	.L2
 170              	.LVL17:
 171              	.L6:
 187:freertos\src/croutine.c **** 	}
 172              		.loc 1 187 0
 173 0098 0120     		movs	r0, #1
 174              	.LVL18:
 175 009a 4042     		rsbs	r0, r0, #0
 176              	.LVL19:
 177              	.L2:
 191:freertos\src/croutine.c **** /*-----------------------------------------------------------*/
 178              		.loc 1 191 0
 179 009c 05B0     		add	sp, sp, #20
 180              		@ sp needed
 181              	.LVL20:
 182 009e F0BD     		pop	{r4, r5, r6, r7, pc}
 183              	.L12:
ARM GAS  C:\Users\VIDEOH~1\AppData\Local\Temp\ccMjVBro.s 			page 11


 184              		.align	2
 185              	.L11:
 186 00a0 00000000 		.word	.LANCHOR0
 187              		.cfi_endproc
 188              	.LFE32:
 189              		.size	xCoRoutineCreate, .-xCoRoutineCreate
 190              		.section	.text.vCoRoutineAddToDelayedList,"ax",%progbits
 191              		.align	1
 192              		.global	vCoRoutineAddToDelayedList
 193              		.code	16
 194              		.thumb_func
 195              		.type	vCoRoutineAddToDelayedList, %function
 196              	vCoRoutineAddToDelayedList:
 197              	.LFB33:
 195:freertos\src/croutine.c **** portTickType xTimeToWake;
 198              		.loc 1 195 0
 199              		.cfi_startproc
 200              		@ args = 0, pretend = 0, frame = 0
 201              		@ frame_needed = 0, uses_anonymous_args = 0
 202              	.LVL21:
 203 0000 70B5     		push	{r4, r5, r6, lr}
 204              		.cfi_def_cfa_offset 16
 205              		.cfi_offset 4, -16
 206              		.cfi_offset 5, -12
 207              		.cfi_offset 6, -8
 208              		.cfi_offset 14, -4
 200:freertos\src/croutine.c **** 
 209              		.loc 1 200 0
 210 0002 0D4C     		ldr	r4, .L21
 195:freertos\src/croutine.c **** portTickType xTimeToWake;
 211              		.loc 1 195 0
 212 0004 0E00     		movs	r6, r1
 200:freertos\src/croutine.c **** 
 213              		.loc 1 200 0
 214 0006 636F     		ldr	r3, [r4, #116]
 215 0008 C518     		adds	r5, r0, r3
 216              	.LVL22:
 205:freertos\src/croutine.c **** 
 217              		.loc 1 205 0
 218 000a 2368     		ldr	r3, [r4]
 219 000c 181D     		adds	r0, r3, #4
 220              	.LVL23:
 221 000e FFF7FEFF 		bl	uxListRemove
 222              	.LVL24:
 208:freertos\src/croutine.c **** 
 223              		.loc 1 208 0
 224 0012 2168     		ldr	r1, [r4]
 210:freertos\src/croutine.c **** 	{
 225              		.loc 1 210 0
 226 0014 636F     		ldr	r3, [r4, #116]
 208:freertos\src/croutine.c **** 
 227              		.loc 1 208 0
 228 0016 4D60     		str	r5, [r1, #4]
 229 0018 0431     		adds	r1, r1, #4
 210:freertos\src/croutine.c **** 	{
 230              		.loc 1 210 0
 231 001a 9D42     		cmp	r5, r3
ARM GAS  C:\Users\VIDEOH~1\AppData\Local\Temp\ccMjVBro.s 			page 12


 232 001c 01D2     		bcs	.L14
 214:freertos\src/croutine.c **** 	}
 233              		.loc 1 214 0
 234 001e E06E     		ldr	r0, [r4, #108]
 235 0020 00E0     		b	.L20
 236              	.L14:
 220:freertos\src/croutine.c **** 	}
 237              		.loc 1 220 0
 238 0022 A06E     		ldr	r0, [r4, #104]
 239              	.L20:
 240 0024 FFF7FEFF 		bl	vListInsert
 241              	.LVL25:
 223:freertos\src/croutine.c **** 	{
 242              		.loc 1 223 0
 243 0028 002E     		cmp	r6, #0
 244 002a 04D0     		beq	.L13
 227:freertos\src/croutine.c **** 	}
 245              		.loc 1 227 0
 246 002c 2168     		ldr	r1, [r4]
 247 002e 3000     		movs	r0, r6
 248 0030 1831     		adds	r1, r1, #24
 249 0032 FFF7FEFF 		bl	vListInsert
 250              	.LVL26:
 251              	.L13:
 229:freertos\src/croutine.c **** /*-----------------------------------------------------------*/
 252              		.loc 1 229 0
 253              		@ sp needed
 254              	.LVL27:
 255              	.LVL28:
 256 0036 70BD     		pop	{r4, r5, r6, pc}
 257              	.L22:
 258              		.align	2
 259              	.L21:
 260 0038 00000000 		.word	.LANCHOR0
 261              		.cfi_endproc
 262              	.LFE33:
 263              		.size	vCoRoutineAddToDelayedList, .-vCoRoutineAddToDelayedList
 264              		.section	.text.vCoRoutineSchedule,"ax",%progbits
 265              		.align	1
 266              		.global	vCoRoutineSchedule
 267              		.code	16
 268              		.thumb_func
 269              		.type	vCoRoutineSchedule, %function
 270              	vCoRoutineSchedule:
 271              	.LFB36:
 314:freertos\src/croutine.c **** 	/* See if any co-routines readied by events need moving to the ready lists. */
 272              		.loc 1 314 0
 273              		.cfi_startproc
 274              		@ args = 0, pretend = 0, frame = 0
 275              		@ frame_needed = 0, uses_anonymous_args = 0
 276 0000 F8B5     		push	{r3, r4, r5, r6, r7, lr}
 277              		.cfi_def_cfa_offset 24
 278              		.cfi_offset 3, -24
 279              		.cfi_offset 4, -20
 280              		.cfi_offset 5, -16
 281              		.cfi_offset 6, -12
 282              		.cfi_offset 7, -8
ARM GAS  C:\Users\VIDEOH~1\AppData\Local\Temp\ccMjVBro.s 			page 13


 283              		.cfi_offset 14, -4
 284              	.LBB13:
 285              	.LBB14:
 237:freertos\src/croutine.c **** 	{
 286              		.loc 1 237 0
 287 0002 404C     		ldr	r4, .L51
 288              	.LBB15:
 250:freertos\src/croutine.c **** 	}
 289              		.loc 1 250 0
 290 0004 271D     		adds	r7, r4, #4
 291              	.L24:
 292              	.LBE15:
 237:freertos\src/croutine.c **** 	{
 293              		.loc 1 237 0
 294 0006 636D     		ldr	r3, [r4, #84]
 295 0008 3E4D     		ldr	r5, .L51
 296 000a 002B     		cmp	r3, #0
 297 000c 17D0     		beq	.L48
 298              	.LBB16:
 242:freertos\src/croutine.c **** 		{
 299              		.loc 1 242 0
 300              		.syntax divided
 301              	@ 242 "freertos\src\croutine.c" 1
 302 000e 72B6     		 cpsid i 
 303              	@ 0 "" 2
 244:freertos\src/croutine.c **** 			( void ) uxListRemove( &( pxUnblockedCRCB->xEventListItem ) );
 304              		.loc 1 244 0
 305              		.thumb
 306              		.syntax unified
 307 0010 236E     		ldr	r3, [r4, #96]
 308 0012 DD68     		ldr	r5, [r3, #12]
 309              	.LVL29:
 245:freertos\src/croutine.c **** 		}
 310              		.loc 1 245 0
 311 0014 2800     		movs	r0, r5
 312 0016 1830     		adds	r0, r0, #24
 313 0018 FFF7FEFF 		bl	uxListRemove
 314              	.LVL30:
 247:freertos\src/croutine.c **** 
 315              		.loc 1 247 0
 316              		.syntax divided
 317              	@ 247 "freertos\src\croutine.c" 1
 318 001c 62B6     		 cpsie i 
 319              	@ 0 "" 2
 249:freertos\src/croutine.c **** 		prvAddCoRoutineToReadyQueue( pxUnblockedCRCB );
 320              		.loc 1 249 0
 321              		.thumb
 322              		.syntax unified
 323 001e 2E1D     		adds	r6, r5, #4
 324 0020 3000     		movs	r0, r6
 325 0022 FFF7FEFF 		bl	uxListRemove
 326              	.LVL31:
 250:freertos\src/croutine.c **** 	}
 327              		.loc 1 250 0
 328 0026 E86A     		ldr	r0, [r5, #44]
 329 0028 236F     		ldr	r3, [r4, #112]
 330 002a 9842     		cmp	r0, r3
ARM GAS  C:\Users\VIDEOH~1\AppData\Local\Temp\ccMjVBro.s 			page 14


 331 002c 00D9     		bls	.L25
 332 002e 2067     		str	r0, [r4, #112]
 333              	.L25:
 334 0030 1423     		movs	r3, #20
 335 0032 5843     		muls	r0, r3
 336 0034 3100     		movs	r1, r6
 337 0036 3818     		adds	r0, r7, r0
 338 0038 FFF7FEFF 		bl	vListInsertEnd
 339              	.LVL32:
 340 003c E3E7     		b	.L24
 341              	.LVL33:
 342              	.L48:
 343              	.LBE16:
 344              	.LBE14:
 345              	.LBE13:
 346              	.LBB17:
 347              	.LBB18:
 259:freertos\src/croutine.c **** 	while( xPassedTicks )
 348              		.loc 1 259 0
 349 003e FFF7FEFF 		bl	xTaskGetTickCount
 350              	.LVL34:
 305:freertos\src/croutine.c **** 		}
 351              		.loc 1 305 0
 352 0042 1426     		movs	r6, #20
 259:freertos\src/croutine.c **** 	while( xPassedTicks )
 353              		.loc 1 259 0
 354 0044 EB6F     		ldr	r3, [r5, #124]
 355 0046 C01A     		subs	r0, r0, r3
 356 0048 A867     		str	r0, [r5, #120]
 357              	.L44:
 260:freertos\src/croutine.c **** 	{
 358              		.loc 1 260 0
 359 004a AB6F     		ldr	r3, [r5, #120]
 360 004c 002B     		cmp	r3, #0
 361 004e 2ED0     		beq	.L49
 262:freertos\src/croutine.c **** 		xPassedTicks--;
 362              		.loc 1 262 0
 363 0050 6A6F     		ldr	r2, [r5, #116]
 263:freertos\src/croutine.c **** 
 364              		.loc 1 263 0
 365 0052 013B     		subs	r3, r3, #1
 262:freertos\src/croutine.c **** 		xPassedTicks--;
 366              		.loc 1 262 0
 367 0054 0132     		adds	r2, r2, #1
 368 0056 6A67     		str	r2, [r5, #116]
 263:freertos\src/croutine.c **** 
 369              		.loc 1 263 0
 370 0058 AB67     		str	r3, [r5, #120]
 266:freertos\src/croutine.c **** 		{
 371              		.loc 1 266 0
 372 005a 002A     		cmp	r2, #0
 373 005c 22D1     		bne	.L29
 374              	.LBB19:
 272:freertos\src/croutine.c **** 			pxDelayedCoRoutineList = pxOverflowDelayedCoRoutineList;
 375              		.loc 1 272 0
 376 005e AB6E     		ldr	r3, [r5, #104]
 377              	.LVL35:
ARM GAS  C:\Users\VIDEOH~1\AppData\Local\Temp\ccMjVBro.s 			page 15


 273:freertos\src/croutine.c **** 			pxOverflowDelayedCoRoutineList = pxTemp;
 378              		.loc 1 273 0
 379 0060 EA6E     		ldr	r2, [r5, #108]
 274:freertos\src/croutine.c **** 		}
 380              		.loc 1 274 0
 381 0062 EB66     		str	r3, [r5, #108]
 273:freertos\src/croutine.c **** 			pxOverflowDelayedCoRoutineList = pxTemp;
 382              		.loc 1 273 0
 383 0064 AA66     		str	r2, [r5, #104]
 384 0066 1DE0     		b	.L29
 385              	.LVL36:
 386              	.L32:
 387              	.LBE19:
 280:freertos\src/croutine.c **** 
 388              		.loc 1 280 0
 389 0068 DB68     		ldr	r3, [r3, #12]
 282:freertos\src/croutine.c **** 			{
 390              		.loc 1 282 0
 391 006a 6A6F     		ldr	r2, [r5, #116]
 280:freertos\src/croutine.c **** 
 392              		.loc 1 280 0
 393 006c DF68     		ldr	r7, [r3, #12]
 394              	.LVL37:
 282:freertos\src/croutine.c **** 			{
 395              		.loc 1 282 0
 396 006e 7B68     		ldr	r3, [r7, #4]
 397 0070 9342     		cmp	r3, r2
 398 0072 EAD8     		bhi	.L44
 288:freertos\src/croutine.c **** 			{
 399              		.loc 1 288 0
 400              		.syntax divided
 401              	@ 288 "freertos\src\croutine.c" 1
 402 0074 72B6     		 cpsid i 
 403              	@ 0 "" 2
 295:freertos\src/croutine.c **** 
 404              		.loc 1 295 0
 405              		.thumb
 406              		.syntax unified
 407 0076 3C1D     		adds	r4, r7, #4
 408 0078 2000     		movs	r0, r4
 409 007a FFF7FEFF 		bl	uxListRemove
 410              	.LVL38:
 298:freertos\src/croutine.c **** 				{
 411              		.loc 1 298 0
 412 007e BB6A     		ldr	r3, [r7, #40]
 413 0080 002B     		cmp	r3, #0
 414 0082 03D0     		beq	.L30
 300:freertos\src/croutine.c **** 				}
 415              		.loc 1 300 0
 416 0084 3800     		movs	r0, r7
 417 0086 1830     		adds	r0, r0, #24
 418 0088 FFF7FEFF 		bl	uxListRemove
 419              	.LVL39:
 420              	.L30:
 303:freertos\src/croutine.c **** 
 421              		.loc 1 303 0
 422              		.syntax divided
ARM GAS  C:\Users\VIDEOH~1\AppData\Local\Temp\ccMjVBro.s 			page 16


 423              	@ 303 "freertos\src\croutine.c" 1
 424 008c 62B6     		 cpsie i 
 425              	@ 0 "" 2
 305:freertos\src/croutine.c **** 		}
 426              		.loc 1 305 0
 427              		.thumb
 428              		.syntax unified
 429 008e FB6A     		ldr	r3, [r7, #44]
 430 0090 2A6F     		ldr	r2, [r5, #112]
 431 0092 9342     		cmp	r3, r2
 432 0094 00D9     		bls	.L31
 433 0096 2B67     		str	r3, [r5, #112]
 434              	.L31:
 435 0098 7343     		muls	r3, r6
 436 009a 281D     		adds	r0, r5, #4
 437 009c C018     		adds	r0, r0, r3
 438 009e 2100     		movs	r1, r4
 439 00a0 FFF7FEFF 		bl	vListInsertEnd
 440              	.LVL40:
 441              	.L29:
 278:freertos\src/croutine.c **** 		{
 442              		.loc 1 278 0
 443 00a4 AB6E     		ldr	r3, [r5, #104]
 444 00a6 1A68     		ldr	r2, [r3]
 445 00a8 002A     		cmp	r2, #0
 446 00aa DDD1     		bne	.L32
 447 00ac CDE7     		b	.L44
 448              	.L49:
 449              	.LBE18:
 450              	.LBE17:
 322:freertos\src/croutine.c **** 	{
 451              		.loc 1 322 0
 452 00ae 1422     		movs	r2, #20
 453 00b0 1100     		movs	r1, r2
 454              	.LBB21:
 455              	.LBB20:
 309:freertos\src/croutine.c **** }
 456              		.loc 1 309 0
 457 00b2 6B6F     		ldr	r3, [r5, #116]
 458 00b4 EB67     		str	r3, [r5, #124]
 459 00b6 2B6F     		ldr	r3, [r5, #112]
 460              	.LBE20:
 461              	.LBE21:
 322:freertos\src/croutine.c **** 	{
 462              		.loc 1 322 0
 463 00b8 5943     		muls	r1, r3
 464 00ba 6918     		adds	r1, r5, r1
 465 00bc 4968     		ldr	r1, [r1, #4]
 466 00be 0029     		cmp	r1, #0
 467 00c0 0AD1     		bne	.L34
 324:freertos\src/croutine.c **** 		{
 468              		.loc 1 324 0
 469 00c2 002B     		cmp	r3, #0
 470 00c4 1DD0     		beq	.L23
 329:freertos\src/croutine.c **** 	}
 471              		.loc 1 329 0
 472 00c6 013B     		subs	r3, r3, #1
ARM GAS  C:\Users\VIDEOH~1\AppData\Local\Temp\ccMjVBro.s 			page 17


 322:freertos\src/croutine.c **** 	{
 473              		.loc 1 322 0
 474 00c8 5A43     		muls	r2, r3
 475 00ca AA18     		adds	r2, r5, r2
 476 00cc 5268     		ldr	r2, [r2, #4]
 477 00ce 002A     		cmp	r2, #0
 478 00d0 01D1     		bne	.L50
 479 00d2 2B67     		str	r3, [r5, #112]
 480 00d4 15E0     		b	.L23
 481              	.L50:
 482 00d6 2B67     		str	r3, [r5, #112]
 483              	.L34:
 484              	.LVL41:
 485              	.LBB22:
 334:freertos\src/croutine.c **** 
 486              		.loc 1 334 0
 487 00d8 1422     		movs	r2, #20
 488 00da 1100     		movs	r1, r2
 489 00dc 5943     		muls	r1, r3
 490 00de 6818     		adds	r0, r5, r1
 491 00e0 0100     		movs	r1, r0
 492 00e2 8468     		ldr	r4, [r0, #8]
 493 00e4 0C31     		adds	r1, r1, #12
 494 00e6 6468     		ldr	r4, [r4, #4]
 495 00e8 8460     		str	r4, [r0, #8]
 496 00ea 8C42     		cmp	r4, r1
 497 00ec 01D1     		bne	.L39
 334:freertos\src/croutine.c **** 
 498              		.loc 1 334 0 is_stmt 0 discriminator 1
 499 00ee 6168     		ldr	r1, [r4, #4]
 500 00f0 8160     		str	r1, [r0, #8]
 501              	.L39:
 334:freertos\src/croutine.c **** 
 502              		.loc 1 334 0 discriminator 3
 503 00f2 5343     		muls	r3, r2
 504              	.LVL42:
 505 00f4 EB18     		adds	r3, r5, r3
 506 00f6 9B68     		ldr	r3, [r3, #8]
 507 00f8 D868     		ldr	r0, [r3, #12]
 508 00fa 2860     		str	r0, [r5]
 509              	.LBE22:
 337:freertos\src/croutine.c **** 
 510              		.loc 1 337 0 is_stmt 1 discriminator 3
 511 00fc 0368     		ldr	r3, [r0]
 512 00fe 016B     		ldr	r1, [r0, #48]
 513 0100 9847     		blx	r3
 514              	.LVL43:
 515              	.L23:
 340:freertos\src/croutine.c **** /*-----------------------------------------------------------*/
 516              		.loc 1 340 0
 517              		@ sp needed
 518 0102 F8BD     		pop	{r3, r4, r5, r6, r7, pc}
 519              	.L52:
 520              		.align	2
 521              	.L51:
 522 0104 00000000 		.word	.LANCHOR0
 523              		.cfi_endproc
ARM GAS  C:\Users\VIDEOH~1\AppData\Local\Temp\ccMjVBro.s 			page 18


 524              	.LFE36:
 525              		.size	vCoRoutineSchedule, .-vCoRoutineSchedule
 526              		.section	.text.xCoRoutineRemoveFromEventList,"ax",%progbits
 527              		.align	1
 528              		.global	xCoRoutineRemoveFromEventList
 529              		.code	16
 530              		.thumb_func
 531              		.type	xCoRoutineRemoveFromEventList, %function
 532              	xCoRoutineRemoveFromEventList:
 533              	.LFB38:
 360:freertos\src/croutine.c **** }
 361:freertos\src/croutine.c **** /*-----------------------------------------------------------*/
 362:freertos\src/croutine.c **** 
 363:freertos\src/croutine.c **** signed portBASE_TYPE xCoRoutineRemoveFromEventList( const xList *pxEventList )
 364:freertos\src/croutine.c **** {
 534              		.loc 1 364 0
 535              		.cfi_startproc
 536              		@ args = 0, pretend = 0, frame = 0
 537              		@ frame_needed = 0, uses_anonymous_args = 0
 538              	.LVL44:
 365:freertos\src/croutine.c **** corCRCB *pxUnblockedCRCB;
 366:freertos\src/croutine.c **** signed portBASE_TYPE xReturn;
 367:freertos\src/croutine.c **** 
 368:freertos\src/croutine.c **** 	/* This function is called from within an interrupt.  It can only access
 369:freertos\src/croutine.c **** 	event lists and the pending ready list.  This function assumes that a
 370:freertos\src/croutine.c **** 	check has already been made to ensure pxEventList is not empty. */
 371:freertos\src/croutine.c **** 	pxUnblockedCRCB = ( corCRCB * ) listGET_OWNER_OF_HEAD_ENTRY( pxEventList );
 539              		.loc 1 371 0
 540 0000 C368     		ldr	r3, [r0, #12]
 364:freertos\src/croutine.c **** corCRCB *pxUnblockedCRCB;
 541              		.loc 1 364 0
 542 0002 70B5     		push	{r4, r5, r6, lr}
 543              		.cfi_def_cfa_offset 16
 544              		.cfi_offset 4, -16
 545              		.cfi_offset 5, -12
 546              		.cfi_offset 6, -8
 547              		.cfi_offset 14, -4
 548              		.loc 1 371 0
 549 0004 DC68     		ldr	r4, [r3, #12]
 550              	.LVL45:
 372:freertos\src/croutine.c **** 	( void ) uxListRemove( &( pxUnblockedCRCB->xEventListItem ) );
 373:freertos\src/croutine.c **** 	vListInsertEnd( ( xList * ) &( xPendingReadyCoRoutineList ), &( pxUnblockedCRCB->xEventListItem ) 
 374:freertos\src/croutine.c **** 
 375:freertos\src/croutine.c **** 	if( pxUnblockedCRCB->uxPriority >= pxCurrentCoRoutine->uxPriority )
 376:freertos\src/croutine.c **** 	{
 377:freertos\src/croutine.c **** 		xReturn = pdTRUE;
 378:freertos\src/croutine.c **** 	}
 379:freertos\src/croutine.c **** 	else
 380:freertos\src/croutine.c **** 	{
 381:freertos\src/croutine.c **** 		xReturn = pdFALSE;
 382:freertos\src/croutine.c **** 	}
 383:freertos\src/croutine.c **** 
 384:freertos\src/croutine.c **** 	return xReturn;
 385:freertos\src/croutine.c **** }
 551              		.loc 1 385 0
 552              		@ sp needed
 372:freertos\src/croutine.c **** 	( void ) uxListRemove( &( pxUnblockedCRCB->xEventListItem ) );
ARM GAS  C:\Users\VIDEOH~1\AppData\Local\Temp\ccMjVBro.s 			page 19


 553              		.loc 1 372 0
 554 0006 2600     		movs	r6, r4
 555 0008 1836     		adds	r6, r6, #24
 556 000a 3000     		movs	r0, r6
 557              	.LVL46:
 558 000c FFF7FEFF 		bl	uxListRemove
 559              	.LVL47:
 373:freertos\src/croutine.c **** 
 560              		.loc 1 373 0
 561 0010 064D     		ldr	r5, .L54
 562 0012 3100     		movs	r1, r6
 563 0014 2800     		movs	r0, r5
 564 0016 5430     		adds	r0, r0, #84
 565 0018 FFF7FEFF 		bl	vListInsertEnd
 566              	.LVL48:
 384:freertos\src/croutine.c **** }
 567              		.loc 1 384 0
 568 001c 0020     		movs	r0, #0
 375:freertos\src/croutine.c **** 	{
 569              		.loc 1 375 0
 570 001e 2B68     		ldr	r3, [r5]
 384:freertos\src/croutine.c **** }
 571              		.loc 1 384 0
 572 0020 E26A     		ldr	r2, [r4, #44]
 573 0022 DB6A     		ldr	r3, [r3, #44]
 574 0024 9A42     		cmp	r2, r3
 575 0026 4041     		adcs	r0, r0, r0
 576              	.LVL49:
 577              	.LVL50:
 578              		.loc 1 385 0
 579 0028 70BD     		pop	{r4, r5, r6, pc}
 580              	.L55:
 581 002a C046     		.align	2
 582              	.L54:
 583 002c 00000000 		.word	.LANCHOR0
 584              		.cfi_endproc
 585              	.LFE38:
 586              		.size	xCoRoutineRemoveFromEventList, .-xCoRoutineRemoveFromEventList
 587              		.global	pxCurrentCoRoutine
 588              		.bss
 589              		.align	2
 590              		.set	.LANCHOR0,. + 0
 591              		.type	pxCurrentCoRoutine, %object
 592              		.size	pxCurrentCoRoutine, 4
 593              	pxCurrentCoRoutine:
 594 0000 00000000 		.space	4
 595              		.type	pxReadyCoRoutineLists, %object
 596              		.size	pxReadyCoRoutineLists, 40
 597              	pxReadyCoRoutineLists:
 598 0004 00000000 		.space	40
 598      00000000 
 598      00000000 
 598      00000000 
 598      00000000 
 599              		.type	xDelayedCoRoutineList1, %object
 600              		.size	xDelayedCoRoutineList1, 20
 601              	xDelayedCoRoutineList1:
ARM GAS  C:\Users\VIDEOH~1\AppData\Local\Temp\ccMjVBro.s 			page 20


 602 002c 00000000 		.space	20
 602      00000000 
 602      00000000 
 602      00000000 
 602      00000000 
 603              		.type	xDelayedCoRoutineList2, %object
 604              		.size	xDelayedCoRoutineList2, 20
 605              	xDelayedCoRoutineList2:
 606 0040 00000000 		.space	20
 606      00000000 
 606      00000000 
 606      00000000 
 606      00000000 
 607              		.type	xPendingReadyCoRoutineList, %object
 608              		.size	xPendingReadyCoRoutineList, 20
 609              	xPendingReadyCoRoutineList:
 610 0054 00000000 		.space	20
 610      00000000 
 610      00000000 
 610      00000000 
 610      00000000 
 611              		.type	pxDelayedCoRoutineList, %object
 612              		.size	pxDelayedCoRoutineList, 4
 613              	pxDelayedCoRoutineList:
 614 0068 00000000 		.space	4
 615              		.type	pxOverflowDelayedCoRoutineList, %object
 616              		.size	pxOverflowDelayedCoRoutineList, 4
 617              	pxOverflowDelayedCoRoutineList:
 618 006c 00000000 		.space	4
 619              		.type	uxTopCoRoutineReadyPriority, %object
 620              		.size	uxTopCoRoutineReadyPriority, 4
 621              	uxTopCoRoutineReadyPriority:
 622 0070 00000000 		.space	4
 623              		.type	xCoRoutineTickCount, %object
 624              		.size	xCoRoutineTickCount, 4
 625              	xCoRoutineTickCount:
 626 0074 00000000 		.space	4
 627              		.type	xPassedTicks, %object
 628              		.size	xPassedTicks, 4
 629              	xPassedTicks:
 630 0078 00000000 		.space	4
 631              		.type	xLastTickCount, %object
 632              		.size	xLastTickCount, 4
 633              	xLastTickCount:
 634 007c 00000000 		.space	4
 635              		.text
 636              	.Letext0:
 637              		.file 2 ".\\freertos\\include/list.h"
 638              		.file 3 ".\\freertos\\include/portmacro.h"
 639              		.file 4 ".\\freertos\\include/croutine.h"
 640              		.file 5 ".\\freertos\\include/portable.h"
 641              		.file 6 ".\\freertos\\include/task.h"