ARM GAS  C:\Users\VIDEOH~1\AppData\Local\Temp\cc81jq2M.s 			page 1


   1              		.syntax unified
   2              		.cpu cortex-m0
   3              		.fpu softvfp
   4              		.eabi_attribute 20, 1
   5              		.eabi_attribute 21, 1
   6              		.eabi_attribute 23, 3
   7              		.eabi_attribute 24, 1
   8              		.eabi_attribute 25, 1
   9              		.eabi_attribute 26, 1
  10              		.eabi_attribute 30, 1
  11              		.eabi_attribute 34, 0
  12              		.eabi_attribute 18, 4
  13              		.thumb
  14              		.syntax unified
  15              		.file	"cyfitter_cfg.c"
  16              		.text
  17              	.Ltext0:
  18              		.cfi_sections	.debug_frame
  19              		.section	.text.cfg_write_bytes32,"ax",%progbits
  20              		.align	2
  21              		.code	16
  22              		.thumb_func
  23              		.type	cfg_write_bytes32, %function
  24              	cfg_write_bytes32:
  25              	.LFB3:
  26              		.file 1 "Generated_Source\\PSoC4\\cyfitter_cfg.c"
   1:Generated_Source\PSoC4/cyfitter_cfg.c **** 
   2:Generated_Source\PSoC4/cyfitter_cfg.c **** /*******************************************************************************
   3:Generated_Source\PSoC4/cyfitter_cfg.c **** * File Name: cyfitter_cfg.c
   4:Generated_Source\PSoC4/cyfitter_cfg.c **** * 
   5:Generated_Source\PSoC4/cyfitter_cfg.c **** * PSoC Creator  4.2
   6:Generated_Source\PSoC4/cyfitter_cfg.c **** *
   7:Generated_Source\PSoC4/cyfitter_cfg.c **** * Description:
   8:Generated_Source\PSoC4/cyfitter_cfg.c **** * This file contains device initialization code.
   9:Generated_Source\PSoC4/cyfitter_cfg.c **** * Except for the user defined sections in CyClockStartupError(), this file should not be modified.
  10:Generated_Source\PSoC4/cyfitter_cfg.c **** * This file is automatically generated by PSoC Creator.
  11:Generated_Source\PSoC4/cyfitter_cfg.c **** *
  12:Generated_Source\PSoC4/cyfitter_cfg.c **** ********************************************************************************
  13:Generated_Source\PSoC4/cyfitter_cfg.c **** * Copyright (c) 2007-2018 Cypress Semiconductor.  All rights reserved.
  14:Generated_Source\PSoC4/cyfitter_cfg.c **** * You may use this file only in accordance with the license, terms, conditions, 
  15:Generated_Source\PSoC4/cyfitter_cfg.c **** * disclaimers, and limitations in the end user license agreement accompanying 
  16:Generated_Source\PSoC4/cyfitter_cfg.c **** * the software package with which this file was provided.
  17:Generated_Source\PSoC4/cyfitter_cfg.c **** ********************************************************************************/
  18:Generated_Source\PSoC4/cyfitter_cfg.c **** 
  19:Generated_Source\PSoC4/cyfitter_cfg.c **** #include <string.h>
  20:Generated_Source\PSoC4/cyfitter_cfg.c **** #include "cytypes.h"
  21:Generated_Source\PSoC4/cyfitter_cfg.c **** #include "cydevice_trm.h"
  22:Generated_Source\PSoC4/cyfitter_cfg.c **** #include "cyfitter.h"
  23:Generated_Source\PSoC4/cyfitter_cfg.c **** #include "CyLib.h"
  24:Generated_Source\PSoC4/cyfitter_cfg.c **** #include "cyfitter_cfg.h"
  25:Generated_Source\PSoC4/cyfitter_cfg.c **** 
  26:Generated_Source\PSoC4/cyfitter_cfg.c **** 
  27:Generated_Source\PSoC4/cyfitter_cfg.c **** #if defined(__GNUC__) || defined(__ARMCC_VERSION)
  28:Generated_Source\PSoC4/cyfitter_cfg.c ****     #define CYPACKED 
  29:Generated_Source\PSoC4/cyfitter_cfg.c ****     #define CYPACKED_ATTR __attribute__ ((packed))
  30:Generated_Source\PSoC4/cyfitter_cfg.c ****     #define CYALIGNED __attribute__ ((aligned))
  31:Generated_Source\PSoC4/cyfitter_cfg.c ****     #define CY_CFG_UNUSED __attribute__ ((unused))
ARM GAS  C:\Users\VIDEOH~1\AppData\Local\Temp\cc81jq2M.s 			page 2


  32:Generated_Source\PSoC4/cyfitter_cfg.c ****     #ifndef CY_CFG_SECTION
  33:Generated_Source\PSoC4/cyfitter_cfg.c ****         #define CY_CFG_SECTION __attribute__ ((section(".psocinit")))
  34:Generated_Source\PSoC4/cyfitter_cfg.c ****     #endif
  35:Generated_Source\PSoC4/cyfitter_cfg.c ****     
  36:Generated_Source\PSoC4/cyfitter_cfg.c ****     #if defined(__ARMCC_VERSION)
  37:Generated_Source\PSoC4/cyfitter_cfg.c ****         #define CY_CFG_MEMORY_BARRIER() __memory_changed()
  38:Generated_Source\PSoC4/cyfitter_cfg.c ****     #else
  39:Generated_Source\PSoC4/cyfitter_cfg.c ****         #define CY_CFG_MEMORY_BARRIER() __sync_synchronize()
  40:Generated_Source\PSoC4/cyfitter_cfg.c ****     #endif
  41:Generated_Source\PSoC4/cyfitter_cfg.c ****     
  42:Generated_Source\PSoC4/cyfitter_cfg.c **** #elif defined(__ICCARM__)
  43:Generated_Source\PSoC4/cyfitter_cfg.c ****     #include <intrinsics.h>
  44:Generated_Source\PSoC4/cyfitter_cfg.c **** 
  45:Generated_Source\PSoC4/cyfitter_cfg.c ****     #define CYPACKED __packed
  46:Generated_Source\PSoC4/cyfitter_cfg.c ****     #define CYPACKED_ATTR 
  47:Generated_Source\PSoC4/cyfitter_cfg.c ****     #define CYALIGNED _Pragma("data_alignment=4")
  48:Generated_Source\PSoC4/cyfitter_cfg.c ****     #define CY_CFG_UNUSED _Pragma("diag_suppress=Pe177")
  49:Generated_Source\PSoC4/cyfitter_cfg.c ****     #define CY_CFG_SECTION _Pragma("location=\".psocinit\"")
  50:Generated_Source\PSoC4/cyfitter_cfg.c ****     
  51:Generated_Source\PSoC4/cyfitter_cfg.c ****     #define CY_CFG_MEMORY_BARRIER() __DMB()
  52:Generated_Source\PSoC4/cyfitter_cfg.c ****     
  53:Generated_Source\PSoC4/cyfitter_cfg.c **** #else
  54:Generated_Source\PSoC4/cyfitter_cfg.c ****     #error Unsupported toolchain
  55:Generated_Source\PSoC4/cyfitter_cfg.c **** #endif
  56:Generated_Source\PSoC4/cyfitter_cfg.c **** 
  57:Generated_Source\PSoC4/cyfitter_cfg.c **** #ifndef CYCODE
  58:Generated_Source\PSoC4/cyfitter_cfg.c ****     #define CYCODE
  59:Generated_Source\PSoC4/cyfitter_cfg.c **** #endif
  60:Generated_Source\PSoC4/cyfitter_cfg.c **** #ifndef CYDATA
  61:Generated_Source\PSoC4/cyfitter_cfg.c ****     #define CYDATA
  62:Generated_Source\PSoC4/cyfitter_cfg.c **** #endif
  63:Generated_Source\PSoC4/cyfitter_cfg.c **** #ifndef CYFAR
  64:Generated_Source\PSoC4/cyfitter_cfg.c ****     #define CYFAR
  65:Generated_Source\PSoC4/cyfitter_cfg.c **** #endif
  66:Generated_Source\PSoC4/cyfitter_cfg.c **** #ifndef CYXDATA
  67:Generated_Source\PSoC4/cyfitter_cfg.c ****     #define CYXDATA
  68:Generated_Source\PSoC4/cyfitter_cfg.c **** #endif
  69:Generated_Source\PSoC4/cyfitter_cfg.c **** 
  70:Generated_Source\PSoC4/cyfitter_cfg.c **** 
  71:Generated_Source\PSoC4/cyfitter_cfg.c **** CY_CFG_UNUSED
  72:Generated_Source\PSoC4/cyfitter_cfg.c **** static void CYMEMZERO(void *s, size_t n);
  73:Generated_Source\PSoC4/cyfitter_cfg.c **** CY_CFG_UNUSED
  74:Generated_Source\PSoC4/cyfitter_cfg.c **** static void CYMEMZERO(void *s, size_t n)
  75:Generated_Source\PSoC4/cyfitter_cfg.c **** {
  76:Generated_Source\PSoC4/cyfitter_cfg.c **** 	(void)memset(s, 0, n);
  77:Generated_Source\PSoC4/cyfitter_cfg.c **** }
  78:Generated_Source\PSoC4/cyfitter_cfg.c **** CY_CFG_UNUSED
  79:Generated_Source\PSoC4/cyfitter_cfg.c **** static void CYCONFIGCPY(void *dest, const void *src, size_t n);
  80:Generated_Source\PSoC4/cyfitter_cfg.c **** CY_CFG_UNUSED
  81:Generated_Source\PSoC4/cyfitter_cfg.c **** static void CYCONFIGCPY(void *dest, const void *src, size_t n)
  82:Generated_Source\PSoC4/cyfitter_cfg.c **** {
  83:Generated_Source\PSoC4/cyfitter_cfg.c **** 	(void)memcpy(dest, src, n);
  84:Generated_Source\PSoC4/cyfitter_cfg.c **** }
  85:Generated_Source\PSoC4/cyfitter_cfg.c **** CY_CFG_UNUSED
  86:Generated_Source\PSoC4/cyfitter_cfg.c **** static void CYCONFIGCPYCODE(void *dest, const void *src, size_t n);
  87:Generated_Source\PSoC4/cyfitter_cfg.c **** CY_CFG_UNUSED
  88:Generated_Source\PSoC4/cyfitter_cfg.c **** static void CYCONFIGCPYCODE(void *dest, const void *src, size_t n)
ARM GAS  C:\Users\VIDEOH~1\AppData\Local\Temp\cc81jq2M.s 			page 3


  89:Generated_Source\PSoC4/cyfitter_cfg.c **** {
  90:Generated_Source\PSoC4/cyfitter_cfg.c **** 	(void)memcpy(dest, src, n);
  91:Generated_Source\PSoC4/cyfitter_cfg.c **** }
  92:Generated_Source\PSoC4/cyfitter_cfg.c **** 
  93:Generated_Source\PSoC4/cyfitter_cfg.c **** 
  94:Generated_Source\PSoC4/cyfitter_cfg.c **** 
  95:Generated_Source\PSoC4/cyfitter_cfg.c **** 
  96:Generated_Source\PSoC4/cyfitter_cfg.c **** /* Clock startup error codes                                                   */
  97:Generated_Source\PSoC4/cyfitter_cfg.c **** #define CYCLOCKSTART_NO_ERROR    0u
  98:Generated_Source\PSoC4/cyfitter_cfg.c **** #define CYCLOCKSTART_XTAL_ERROR  1u
  99:Generated_Source\PSoC4/cyfitter_cfg.c **** #define CYCLOCKSTART_32KHZ_ERROR 2u
 100:Generated_Source\PSoC4/cyfitter_cfg.c **** #define CYCLOCKSTART_PLL_ERROR   3u
 101:Generated_Source\PSoC4/cyfitter_cfg.c **** #define CYCLOCKSTART_FLL_ERROR   4u
 102:Generated_Source\PSoC4/cyfitter_cfg.c **** #define CYCLOCKSTART_WCO_ERROR   5u
 103:Generated_Source\PSoC4/cyfitter_cfg.c **** 
 104:Generated_Source\PSoC4/cyfitter_cfg.c **** 
 105:Generated_Source\PSoC4/cyfitter_cfg.c **** #ifdef CY_NEED_CYCLOCKSTARTUPERROR
 106:Generated_Source\PSoC4/cyfitter_cfg.c **** /*******************************************************************************
 107:Generated_Source\PSoC4/cyfitter_cfg.c **** * Function Name: CyClockStartupError
 108:Generated_Source\PSoC4/cyfitter_cfg.c **** ********************************************************************************
 109:Generated_Source\PSoC4/cyfitter_cfg.c **** * Summary:
 110:Generated_Source\PSoC4/cyfitter_cfg.c **** *  If an error is encountered during clock configuration (crystal startup error,
 111:Generated_Source\PSoC4/cyfitter_cfg.c **** *  PLL lock error, etc.), the system will end up here.  Unless reimplemented by
 112:Generated_Source\PSoC4/cyfitter_cfg.c **** *  the customer, this function will stop in an infinite loop.
 113:Generated_Source\PSoC4/cyfitter_cfg.c **** *
 114:Generated_Source\PSoC4/cyfitter_cfg.c **** * Parameters:
 115:Generated_Source\PSoC4/cyfitter_cfg.c **** *   void
 116:Generated_Source\PSoC4/cyfitter_cfg.c **** *
 117:Generated_Source\PSoC4/cyfitter_cfg.c **** * Return:
 118:Generated_Source\PSoC4/cyfitter_cfg.c **** *   void
 119:Generated_Source\PSoC4/cyfitter_cfg.c **** *
 120:Generated_Source\PSoC4/cyfitter_cfg.c **** *******************************************************************************/
 121:Generated_Source\PSoC4/cyfitter_cfg.c **** CY_CFG_UNUSED
 122:Generated_Source\PSoC4/cyfitter_cfg.c **** static void CyClockStartupError(uint8 errorCode);
 123:Generated_Source\PSoC4/cyfitter_cfg.c **** CY_CFG_UNUSED
 124:Generated_Source\PSoC4/cyfitter_cfg.c **** static void CyClockStartupError(uint8 errorCode)
 125:Generated_Source\PSoC4/cyfitter_cfg.c **** {
 126:Generated_Source\PSoC4/cyfitter_cfg.c ****     /* To remove the compiler warning if errorCode not used.                */
 127:Generated_Source\PSoC4/cyfitter_cfg.c ****     errorCode = errorCode;
 128:Generated_Source\PSoC4/cyfitter_cfg.c **** 
 129:Generated_Source\PSoC4/cyfitter_cfg.c ****     /* If we have a clock startup error (bad MHz crystal, PLL lock, etc.),  */
 130:Generated_Source\PSoC4/cyfitter_cfg.c ****     /* we will end up here to allow the customer to implement something to  */
 131:Generated_Source\PSoC4/cyfitter_cfg.c ****     /* deal with the clock condition.                                       */
 132:Generated_Source\PSoC4/cyfitter_cfg.c **** 
 133:Generated_Source\PSoC4/cyfitter_cfg.c **** #ifdef CY_CFG_CLOCK_STARTUP_ERROR_CALLBACK
 134:Generated_Source\PSoC4/cyfitter_cfg.c ****     CY_CFG_Clock_Startup_ErrorCallback();
 135:Generated_Source\PSoC4/cyfitter_cfg.c **** #else
 136:Generated_Source\PSoC4/cyfitter_cfg.c ****     /*  If not using CY_CFG_CLOCK_STARTUP_ERROR_CALLBACK, place your clock startup code here. */
 137:Generated_Source\PSoC4/cyfitter_cfg.c ****     /* `#START CyClockStartupError` */
 138:Generated_Source\PSoC4/cyfitter_cfg.c **** 
 139:Generated_Source\PSoC4/cyfitter_cfg.c **** 
 140:Generated_Source\PSoC4/cyfitter_cfg.c **** 
 141:Generated_Source\PSoC4/cyfitter_cfg.c ****     /* `#END` */
 142:Generated_Source\PSoC4/cyfitter_cfg.c **** 
 143:Generated_Source\PSoC4/cyfitter_cfg.c ****     while(1) {}
 144:Generated_Source\PSoC4/cyfitter_cfg.c **** #endif /* CY_CFG_CLOCK_STARTUP_ERROR_CALLBACK */
 145:Generated_Source\PSoC4/cyfitter_cfg.c **** }
ARM GAS  C:\Users\VIDEOH~1\AppData\Local\Temp\cc81jq2M.s 			page 4


 146:Generated_Source\PSoC4/cyfitter_cfg.c **** #endif
 147:Generated_Source\PSoC4/cyfitter_cfg.c **** 
 148:Generated_Source\PSoC4/cyfitter_cfg.c **** #define CY_CFG_BASE_ADDR_COUNT 5u
 149:Generated_Source\PSoC4/cyfitter_cfg.c **** CYPACKED typedef struct
 150:Generated_Source\PSoC4/cyfitter_cfg.c **** {
 151:Generated_Source\PSoC4/cyfitter_cfg.c **** 	uint8 offset;
 152:Generated_Source\PSoC4/cyfitter_cfg.c **** 	uint8 value;
 153:Generated_Source\PSoC4/cyfitter_cfg.c **** } CYPACKED_ATTR cy_cfg_addrvalue_t;
 154:Generated_Source\PSoC4/cyfitter_cfg.c **** 
 155:Generated_Source\PSoC4/cyfitter_cfg.c **** 
 156:Generated_Source\PSoC4/cyfitter_cfg.c **** 
 157:Generated_Source\PSoC4/cyfitter_cfg.c **** /*******************************************************************************
 158:Generated_Source\PSoC4/cyfitter_cfg.c **** * Function Name: cfg_write_bytes32
 159:Generated_Source\PSoC4/cyfitter_cfg.c **** ********************************************************************************
 160:Generated_Source\PSoC4/cyfitter_cfg.c **** * Summary:
 161:Generated_Source\PSoC4/cyfitter_cfg.c **** *  This function is used for setting up the chip configuration areas that
 162:Generated_Source\PSoC4/cyfitter_cfg.c **** *  contain relatively sparse data.
 163:Generated_Source\PSoC4/cyfitter_cfg.c **** *
 164:Generated_Source\PSoC4/cyfitter_cfg.c **** * Parameters:
 165:Generated_Source\PSoC4/cyfitter_cfg.c **** *   void
 166:Generated_Source\PSoC4/cyfitter_cfg.c **** *
 167:Generated_Source\PSoC4/cyfitter_cfg.c **** * Return:
 168:Generated_Source\PSoC4/cyfitter_cfg.c **** *   void
 169:Generated_Source\PSoC4/cyfitter_cfg.c **** *
 170:Generated_Source\PSoC4/cyfitter_cfg.c **** *******************************************************************************/
 171:Generated_Source\PSoC4/cyfitter_cfg.c **** static void cfg_write_bytes32(const uint32 addr_table[], const cy_cfg_addrvalue_t data_table[]);
 172:Generated_Source\PSoC4/cyfitter_cfg.c **** static void cfg_write_bytes32(const uint32 addr_table[], const cy_cfg_addrvalue_t data_table[])
 173:Generated_Source\PSoC4/cyfitter_cfg.c **** {
  27              		.loc 1 173 0
  28              		.cfi_startproc
  29              		@ args = 0, pretend = 0, frame = 0
  30              		@ frame_needed = 0, uses_anonymous_args = 0
  31              	.LVL0:
  32 0000 F0B5     		push	{r4, r5, r6, r7, lr}
  33              		.cfi_def_cfa_offset 20
  34              		.cfi_offset 4, -20
  35              		.cfi_offset 5, -16
  36              		.cfi_offset 6, -12
  37              		.cfi_offset 7, -8
  38              		.cfi_offset 14, -4
  39              	.LVL1:
 174:Generated_Source\PSoC4/cyfitter_cfg.c **** 	/* For 32-bit little-endian architectures */
 175:Generated_Source\PSoC4/cyfitter_cfg.c **** 	uint32 i, j = 0u;
  40              		.loc 1 175 0
  41 0002 0025     		movs	r5, #0
 176:Generated_Source\PSoC4/cyfitter_cfg.c **** 	for (i = 0u; i < CY_CFG_BASE_ADDR_COUNT; i++)
  42              		.loc 1 176 0
  43 0004 0027     		movs	r7, #0
  44 0006 11E0     		b	.L2
  45              	.LVL2:
  46              	.L5:
  47              	.LBB2:
 177:Generated_Source\PSoC4/cyfitter_cfg.c **** 	{
 178:Generated_Source\PSoC4/cyfitter_cfg.c **** 		uint32 baseAddr = addr_table[i];
  48              		.loc 1 178 0
  49 0008 BB00     		lsls	r3, r7, #2
  50 000a C658     		ldr	r6, [r0, r3]
ARM GAS  C:\Users\VIDEOH~1\AppData\Local\Temp\cc81jq2M.s 			page 5


  51              	.LVL3:
 179:Generated_Source\PSoC4/cyfitter_cfg.c **** 		uint8 count = (uint8)baseAddr;
  52              		.loc 1 179 0
  53 000c F3B2     		uxtb	r3, r6
  54              	.LVL4:
 180:Generated_Source\PSoC4/cyfitter_cfg.c **** 		baseAddr &= 0xFFFFFF00u;
  55              		.loc 1 180 0
  56 000e FF22     		movs	r2, #255
  57 0010 9643     		bics	r6, r2
  58              	.LVL5:
 181:Generated_Source\PSoC4/cyfitter_cfg.c **** 		while (count != 0u)
  59              		.loc 1 181 0
  60 0012 08E0     		b	.L3
  61              	.L4:
 182:Generated_Source\PSoC4/cyfitter_cfg.c **** 		{
 183:Generated_Source\PSoC4/cyfitter_cfg.c **** 			CY_SET_REG8((void *)(baseAddr + data_table[j].offset), data_table[j].value);
  62              		.loc 1 183 0
  63 0014 6A00     		lsls	r2, r5, #1
  64 0016 8A18     		adds	r2, r1, r2
  65 0018 1478     		ldrb	r4, [r2]
  66 001a A419     		adds	r4, r4, r6
  67 001c 5278     		ldrb	r2, [r2, #1]
  68 001e 2270     		strb	r2, [r4]
 184:Generated_Source\PSoC4/cyfitter_cfg.c **** 			j++;
  69              		.loc 1 184 0
  70 0020 0135     		adds	r5, r5, #1
  71              	.LVL6:
 185:Generated_Source\PSoC4/cyfitter_cfg.c **** 			count--;
  72              		.loc 1 185 0
  73 0022 013B     		subs	r3, r3, #1
  74              	.LVL7:
  75 0024 DBB2     		uxtb	r3, r3
  76              	.LVL8:
  77              	.L3:
 181:Generated_Source\PSoC4/cyfitter_cfg.c **** 		{
  78              		.loc 1 181 0
  79 0026 002B     		cmp	r3, #0
  80 0028 F4D1     		bne	.L4
  81              	.LBE2:
 176:Generated_Source\PSoC4/cyfitter_cfg.c **** 	{
  82              		.loc 1 176 0 discriminator 2
  83 002a 0137     		adds	r7, r7, #1
  84              	.LVL9:
  85              	.L2:
 176:Generated_Source\PSoC4/cyfitter_cfg.c **** 	{
  86              		.loc 1 176 0 is_stmt 0 discriminator 1
  87 002c 042F     		cmp	r7, #4
  88 002e EBD9     		bls	.L5
 186:Generated_Source\PSoC4/cyfitter_cfg.c **** 		}
 187:Generated_Source\PSoC4/cyfitter_cfg.c **** 	}
 188:Generated_Source\PSoC4/cyfitter_cfg.c **** }
  89              		.loc 1 188 0 is_stmt 1
  90              		@ sp needed
  91              	.LVL10:
  92              	.LVL11:
  93 0030 F0BD     		pop	{r4, r5, r6, r7, pc}
  94              		.cfi_endproc
ARM GAS  C:\Users\VIDEOH~1\AppData\Local\Temp\cc81jq2M.s 			page 6


  95              	.LFE3:
  96              		.size	cfg_write_bytes32, .-cfg_write_bytes32
  97 0032 C046     		.section	.text.AnalogSetDefault,"ax",%progbits
  98              		.align	2
  99              		.code	16
 100              		.thumb_func
 101              		.type	AnalogSetDefault, %function
 102              	AnalogSetDefault:
 103              	.LFB5:
 189:Generated_Source\PSoC4/cyfitter_cfg.c **** 
 190:Generated_Source\PSoC4/cyfitter_cfg.c **** 
 191:Generated_Source\PSoC4/cyfitter_cfg.c **** /*******************************************************************************
 192:Generated_Source\PSoC4/cyfitter_cfg.c **** * Function Name: ClockSetup
 193:Generated_Source\PSoC4/cyfitter_cfg.c **** ********************************************************************************
 194:Generated_Source\PSoC4/cyfitter_cfg.c **** *
 195:Generated_Source\PSoC4/cyfitter_cfg.c **** * Summary:
 196:Generated_Source\PSoC4/cyfitter_cfg.c **** *   Performs the initialization of all of the clocks in the device based on the
 197:Generated_Source\PSoC4/cyfitter_cfg.c **** *   settings in the Clock tab of the DWR.  This includes enabling the requested
 198:Generated_Source\PSoC4/cyfitter_cfg.c **** *   clocks and setting the necessary dividers to produce the desired frequency. 
 199:Generated_Source\PSoC4/cyfitter_cfg.c **** *
 200:Generated_Source\PSoC4/cyfitter_cfg.c **** * Parameters:
 201:Generated_Source\PSoC4/cyfitter_cfg.c **** *   void
 202:Generated_Source\PSoC4/cyfitter_cfg.c **** *
 203:Generated_Source\PSoC4/cyfitter_cfg.c **** * Return:
 204:Generated_Source\PSoC4/cyfitter_cfg.c **** *   void
 205:Generated_Source\PSoC4/cyfitter_cfg.c **** *
 206:Generated_Source\PSoC4/cyfitter_cfg.c **** *******************************************************************************/
 207:Generated_Source\PSoC4/cyfitter_cfg.c **** static void ClockSetup(void);
 208:Generated_Source\PSoC4/cyfitter_cfg.c **** CY_CFG_SECTION
 209:Generated_Source\PSoC4/cyfitter_cfg.c **** static void ClockSetup(void)
 210:Generated_Source\PSoC4/cyfitter_cfg.c **** {
 211:Generated_Source\PSoC4/cyfitter_cfg.c **** 	/* Enable HALF_EN before trimming for the flash accelerator. */
 212:Generated_Source\PSoC4/cyfitter_cfg.c **** 	CY_SET_REG32((void CYXDATA *)(CYREG_CLK_SELECT), (CY_GET_REG32((void *)CYREG_CLK_SELECT) | 0x00040
 213:Generated_Source\PSoC4/cyfitter_cfg.c **** 
 214:Generated_Source\PSoC4/cyfitter_cfg.c **** 	/* Setup and trim IMO based on desired frequency. */
 215:Generated_Source\PSoC4/cyfitter_cfg.c **** 	CySysClkWriteImoFreq(24u);
 216:Generated_Source\PSoC4/cyfitter_cfg.c **** 
 217:Generated_Source\PSoC4/cyfitter_cfg.c **** 	/* Disable HALF_EN since it is not required at this IMO frequency. */
 218:Generated_Source\PSoC4/cyfitter_cfg.c **** 	CY_SET_REG32((void CYXDATA *)(CYREG_CLK_SELECT), (CY_GET_REG32((void *)CYREG_CLK_SELECT) & 0xFFFBF
 219:Generated_Source\PSoC4/cyfitter_cfg.c **** 	/* CYDEV_CLK_ILO_CONFIG Starting address: CYDEV_CLK_ILO_CONFIG */
 220:Generated_Source\PSoC4/cyfitter_cfg.c **** 	CY_SET_REG32((void *)(CYREG_CLK_ILO_CONFIG), 0x80000006u);
 221:Generated_Source\PSoC4/cyfitter_cfg.c **** 
 222:Generated_Source\PSoC4/cyfitter_cfg.c **** 
 223:Generated_Source\PSoC4/cyfitter_cfg.c **** 	/* CYDEV_CLK_SELECT00 Starting address: CYDEV_CLK_SELECT00 */
 224:Generated_Source\PSoC4/cyfitter_cfg.c **** 	CY_SET_REG32((void *)(CYREG_CLK_SELECT02), 0x00000013u);
 225:Generated_Source\PSoC4/cyfitter_cfg.c **** 	CY_SET_REG32((void *)(CYREG_CLK_SELECT03), 0x00000010u);
 226:Generated_Source\PSoC4/cyfitter_cfg.c **** 	CY_SET_REG32((void *)(CYREG_CLK_SELECT07), 0x00000020u);
 227:Generated_Source\PSoC4/cyfitter_cfg.c **** 
 228:Generated_Source\PSoC4/cyfitter_cfg.c **** 	/* CYDEV_CLK_IMO_CONFIG Starting address: CYDEV_CLK_IMO_CONFIG */
 229:Generated_Source\PSoC4/cyfitter_cfg.c **** 	CY_SET_REG32((void *)(CYREG_CLK_IMO_CONFIG), 0x82000000u);
 230:Generated_Source\PSoC4/cyfitter_cfg.c **** 
 231:Generated_Source\PSoC4/cyfitter_cfg.c **** 	/* CYDEV_CLK_SELECT Starting address: CYDEV_CLK_SELECT */
 232:Generated_Source\PSoC4/cyfitter_cfg.c **** 	CY_SET_REG32((void *)(CYREG_CLK_SELECT), 0x00000000u);
 233:Generated_Source\PSoC4/cyfitter_cfg.c **** 
 234:Generated_Source\PSoC4/cyfitter_cfg.c **** 	/* CYDEV_CLK_DIVIDER_A00 Starting address: CYDEV_CLK_DIVIDER_A00 */
 235:Generated_Source\PSoC4/cyfitter_cfg.c **** 	CY_SET_REG32((void *)(CYREG_CLK_DIVIDER_A00), 0x80000002u);
 236:Generated_Source\PSoC4/cyfitter_cfg.c **** 
ARM GAS  C:\Users\VIDEOH~1\AppData\Local\Temp\cc81jq2M.s 			page 7


 237:Generated_Source\PSoC4/cyfitter_cfg.c **** 	/* CYDEV_CLK_DIVIDER_B00 Starting address: CYDEV_CLK_DIVIDER_B00 */
 238:Generated_Source\PSoC4/cyfitter_cfg.c **** 	CY_SET_REG32((void *)(CYREG_CLK_DIVIDER_B00), 0x8000000Du);
 239:Generated_Source\PSoC4/cyfitter_cfg.c **** 
 240:Generated_Source\PSoC4/cyfitter_cfg.c **** 	/* CYDEV_CLK_DIVIDER_FRAC_A00 Starting address: CYDEV_CLK_DIVIDER_FRAC_A00 */
 241:Generated_Source\PSoC4/cyfitter_cfg.c **** 	CY_SET_REG32((void *)(CYREG_CLK_DIVIDER_FRAC_A00), 0x800C0010u);
 242:Generated_Source\PSoC4/cyfitter_cfg.c **** 
 243:Generated_Source\PSoC4/cyfitter_cfg.c **** 	CY_SET_REG32((void *)(CYREG_WDT_CONFIG), 0x00000000u);
 244:Generated_Source\PSoC4/cyfitter_cfg.c **** }
 245:Generated_Source\PSoC4/cyfitter_cfg.c **** 
 246:Generated_Source\PSoC4/cyfitter_cfg.c **** 
 247:Generated_Source\PSoC4/cyfitter_cfg.c **** /* Analog API Functions */
 248:Generated_Source\PSoC4/cyfitter_cfg.c **** 
 249:Generated_Source\PSoC4/cyfitter_cfg.c **** 
 250:Generated_Source\PSoC4/cyfitter_cfg.c **** /*******************************************************************************
 251:Generated_Source\PSoC4/cyfitter_cfg.c **** * Function Name: AnalogSetDefault
 252:Generated_Source\PSoC4/cyfitter_cfg.c **** ********************************************************************************
 253:Generated_Source\PSoC4/cyfitter_cfg.c **** *
 254:Generated_Source\PSoC4/cyfitter_cfg.c **** * Summary:
 255:Generated_Source\PSoC4/cyfitter_cfg.c **** *  Sets up the analog portions of the chip to default values based on chip
 256:Generated_Source\PSoC4/cyfitter_cfg.c **** *  configuration options from the project.
 257:Generated_Source\PSoC4/cyfitter_cfg.c **** *
 258:Generated_Source\PSoC4/cyfitter_cfg.c **** * Parameters:
 259:Generated_Source\PSoC4/cyfitter_cfg.c **** *  void
 260:Generated_Source\PSoC4/cyfitter_cfg.c **** *
 261:Generated_Source\PSoC4/cyfitter_cfg.c **** * Return:
 262:Generated_Source\PSoC4/cyfitter_cfg.c **** *  void
 263:Generated_Source\PSoC4/cyfitter_cfg.c **** *
 264:Generated_Source\PSoC4/cyfitter_cfg.c **** *******************************************************************************/
 265:Generated_Source\PSoC4/cyfitter_cfg.c **** static void AnalogSetDefault(void);
 266:Generated_Source\PSoC4/cyfitter_cfg.c **** static void AnalogSetDefault(void)
 267:Generated_Source\PSoC4/cyfitter_cfg.c **** {
 104              		.loc 1 267 0
 105              		.cfi_startproc
 106              		@ args = 0, pretend = 0, frame = 0
 107              		@ frame_needed = 0, uses_anonymous_args = 0
 108              		@ link register save eliminated.
 268:Generated_Source\PSoC4/cyfitter_cfg.c **** 	CY_SET_XTND_REG32((void CYFAR *)CYREG_CTBM_OA0_SW, 0x00240104u);
 109              		.loc 1 268 0
 110 0000 054A     		ldr	r2, .L7
 111 0002 064B     		ldr	r3, .L7+4
 112 0004 1A60     		str	r2, [r3]
 269:Generated_Source\PSoC4/cyfitter_cfg.c **** 	CY_SET_XTND_REG32((void CYFAR *)CYREG_CTBM_CTB_SW_HW_CTRL, 0x00000004u);
 113              		.loc 1 269 0
 114 0006 0422     		movs	r2, #4
 115 0008 054B     		ldr	r3, .L7+8
 116 000a 1A60     		str	r2, [r3]
 270:Generated_Source\PSoC4/cyfitter_cfg.c **** 	CY_SET_XTND_REG32((void CYFAR *)CYREG_SAR_MUX_SWITCH0, 0x0043003Cu);
 117              		.loc 1 270 0
 118 000c 054B     		ldr	r3, .L7+12
 119 000e 064A     		ldr	r2, .L7+16
 120 0010 1360     		str	r3, [r2]
 271:Generated_Source\PSoC4/cyfitter_cfg.c **** 	CY_SET_XTND_REG32((void CYFAR *)CYREG_SAR_MUX_SWITCH_HW_CTRL, 0x0043003Cu);
 121              		.loc 1 271 0
 122 0012 064A     		ldr	r2, .L7+20
 123 0014 1360     		str	r3, [r2]
 272:Generated_Source\PSoC4/cyfitter_cfg.c **** 	/* Variable VDDA is selected; no pumps are enabled by default */
 273:Generated_Source\PSoC4/cyfitter_cfg.c **** }
ARM GAS  C:\Users\VIDEOH~1\AppData\Local\Temp\cc81jq2M.s 			page 8


 124              		.loc 1 273 0
 125              		@ sp needed
 126 0016 7047     		bx	lr
 127              	.L8:
 128              		.align	2
 129              	.L7:
 130 0018 04012400 		.word	2359556
 131 001c 80001040 		.word	1074790528
 132 0020 C0001040 		.word	1074790592
 133 0024 3C004300 		.word	4390972
 134 0028 00031A40 		.word	1075446528
 135 002c 40031A40 		.word	1075446592
 136              		.cfi_endproc
 137              	.LFE5:
 138              		.size	AnalogSetDefault, .-AnalogSetDefault
 139              		.section	.text.CYMEMZERO,"ax",%progbits
 140              		.align	2
 141              		.code	16
 142              		.thumb_func
 143              		.type	CYMEMZERO, %function
 144              	CYMEMZERO:
 145              	.LFB0:
  75:Generated_Source\PSoC4/cyfitter_cfg.c **** 	(void)memset(s, 0, n);
 146              		.loc 1 75 0
 147              		.cfi_startproc
 148              		@ args = 0, pretend = 0, frame = 0
 149              		@ frame_needed = 0, uses_anonymous_args = 0
 150              	.LVL12:
 151 0000 10B5     		push	{r4, lr}
 152              		.cfi_def_cfa_offset 8
 153              		.cfi_offset 4, -8
 154              		.cfi_offset 14, -4
 155 0002 0A00     		movs	r2, r1
  76:Generated_Source\PSoC4/cyfitter_cfg.c **** }
 156              		.loc 1 76 0
 157 0004 0021     		movs	r1, #0
 158              	.LVL13:
 159 0006 FFF7FEFF 		bl	memset
 160              	.LVL14:
  77:Generated_Source\PSoC4/cyfitter_cfg.c **** CY_CFG_UNUSED
 161              		.loc 1 77 0
 162              		@ sp needed
 163 000a 10BD     		pop	{r4, pc}
 164              		.cfi_endproc
 165              	.LFE0:
 166              		.size	CYMEMZERO, .-CYMEMZERO
 167              		.section	.psocinit,"ax",%progbits
 168              		.align	2
 169              		.code	16
 170              		.thumb_func
 171              		.type	ClockSetup, %function
 172              	ClockSetup:
 173              	.LFB4:
 210:Generated_Source\PSoC4/cyfitter_cfg.c **** 	/* Enable HALF_EN before trimming for the flash accelerator. */
 174              		.loc 1 210 0
 175              		.cfi_startproc
 176              		@ args = 0, pretend = 0, frame = 0
ARM GAS  C:\Users\VIDEOH~1\AppData\Local\Temp\cc81jq2M.s 			page 9


 177              		@ frame_needed = 0, uses_anonymous_args = 0
 178 0000 10B5     		push	{r4, lr}
 179              		.cfi_def_cfa_offset 8
 180              		.cfi_offset 4, -8
 181              		.cfi_offset 14, -4
 212:Generated_Source\PSoC4/cyfitter_cfg.c **** 
 182              		.loc 1 212 0
 183 0002 154C     		ldr	r4, .L11
 184 0004 2368     		ldr	r3, [r4]
 185 0006 8022     		movs	r2, #128
 186 0008 D202     		lsls	r2, r2, #11
 187 000a 1343     		orrs	r3, r2
 188 000c 2360     		str	r3, [r4]
 215:Generated_Source\PSoC4/cyfitter_cfg.c **** 
 189              		.loc 1 215 0
 190 000e 1820     		movs	r0, #24
 191 0010 FFF7FEFF 		bl	CySysClkWriteImoFreq
 192              	.LVL15:
 218:Generated_Source\PSoC4/cyfitter_cfg.c **** 	/* CYDEV_CLK_ILO_CONFIG Starting address: CYDEV_CLK_ILO_CONFIG */
 193              		.loc 1 218 0
 194 0014 2268     		ldr	r2, [r4]
 195 0016 114B     		ldr	r3, .L11+4
 196 0018 1340     		ands	r3, r2
 197 001a 2360     		str	r3, [r4]
 220:Generated_Source\PSoC4/cyfitter_cfg.c **** 
 198              		.loc 1 220 0
 199 001c 104A     		ldr	r2, .L11+8
 200 001e 114B     		ldr	r3, .L11+12
 201 0020 1A60     		str	r2, [r3]
 224:Generated_Source\PSoC4/cyfitter_cfg.c **** 	CY_SET_REG32((void *)(CYREG_CLK_SELECT03), 0x00000010u);
 202              		.loc 1 224 0
 203 0022 1322     		movs	r2, #19
 204 0024 104B     		ldr	r3, .L11+16
 205 0026 1A60     		str	r2, [r3]
 225:Generated_Source\PSoC4/cyfitter_cfg.c **** 	CY_SET_REG32((void *)(CYREG_CLK_SELECT07), 0x00000020u);
 206              		.loc 1 225 0
 207 0028 033A     		subs	r2, r2, #3
 208 002a 104B     		ldr	r3, .L11+20
 209 002c 1A60     		str	r2, [r3]
 226:Generated_Source\PSoC4/cyfitter_cfg.c **** 
 210              		.loc 1 226 0
 211 002e 1032     		adds	r2, r2, #16
 212 0030 0F4B     		ldr	r3, .L11+24
 213 0032 1A60     		str	r2, [r3]
 229:Generated_Source\PSoC4/cyfitter_cfg.c **** 
 214              		.loc 1 229 0
 215 0034 8222     		movs	r2, #130
 216 0036 1206     		lsls	r2, r2, #24
 217 0038 0E4B     		ldr	r3, .L11+28
 218 003a 1A60     		str	r2, [r3]
 232:Generated_Source\PSoC4/cyfitter_cfg.c **** 
 219              		.loc 1 232 0
 220 003c 0023     		movs	r3, #0
 221 003e 2360     		str	r3, [r4]
 235:Generated_Source\PSoC4/cyfitter_cfg.c **** 
 222              		.loc 1 235 0
 223 0040 0D49     		ldr	r1, .L11+32
ARM GAS  C:\Users\VIDEOH~1\AppData\Local\Temp\cc81jq2M.s 			page 10


 224 0042 0E4A     		ldr	r2, .L11+36
 225 0044 1160     		str	r1, [r2]
 238:Generated_Source\PSoC4/cyfitter_cfg.c **** 
 226              		.loc 1 238 0
 227 0046 0E49     		ldr	r1, .L11+40
 228 0048 0E4A     		ldr	r2, .L11+44
 229 004a 1160     		str	r1, [r2]
 241:Generated_Source\PSoC4/cyfitter_cfg.c **** 
 230              		.loc 1 241 0
 231 004c 0E49     		ldr	r1, .L11+48
 232 004e 0F4A     		ldr	r2, .L11+52
 233 0050 1160     		str	r1, [r2]
 243:Generated_Source\PSoC4/cyfitter_cfg.c **** }
 234              		.loc 1 243 0
 235 0052 0F4A     		ldr	r2, .L11+56
 236 0054 1360     		str	r3, [r2]
 244:Generated_Source\PSoC4/cyfitter_cfg.c **** 
 237              		.loc 1 244 0
 238              		@ sp needed
 239 0056 10BD     		pop	{r4, pc}
 240              	.L12:
 241              		.align	2
 242              	.L11:
 243 0058 00010B40 		.word	1074462976
 244 005c FFFFFBFF 		.word	-262145
 245 0060 06000080 		.word	-2147483642
 246 0064 04010B40 		.word	1074462980
 247 0068 08020240 		.word	1073873416
 248 006c 0C020240 		.word	1073873420
 249 0070 1C020240 		.word	1073873436
 250 0074 08010B40 		.word	1074462984
 251 0078 02000080 		.word	-2147483646
 252 007c 00000240 		.word	1073872896
 253 0080 0D000080 		.word	-2147483635
 254 0084 40000240 		.word	1073872960
 255 0088 10000C80 		.word	-2146697200
 256 008c 00010240 		.word	1073873152
 257 0090 0C020B40 		.word	1074463244
 258              		.cfi_endproc
 259              	.LFE4:
 260              		.size	ClockSetup, .-ClockSetup
 261              		.section	.text.SetAnalogRoutingPumps,"ax",%progbits
 262              		.align	2
 263              		.global	SetAnalogRoutingPumps
 264              		.code	16
 265              		.thumb_func
 266              		.type	SetAnalogRoutingPumps, %function
 267              	SetAnalogRoutingPumps:
 268              	.LFB6:
 274:Generated_Source\PSoC4/cyfitter_cfg.c **** 
 275:Generated_Source\PSoC4/cyfitter_cfg.c **** 
 276:Generated_Source\PSoC4/cyfitter_cfg.c **** /*******************************************************************************
 277:Generated_Source\PSoC4/cyfitter_cfg.c **** * Function Name: SetAnalogRoutingPumps
 278:Generated_Source\PSoC4/cyfitter_cfg.c **** ********************************************************************************
 279:Generated_Source\PSoC4/cyfitter_cfg.c **** *
 280:Generated_Source\PSoC4/cyfitter_cfg.c **** * Summary:
 281:Generated_Source\PSoC4/cyfitter_cfg.c **** * Enables or disables the analog pumps feeding analog routing switches.
ARM GAS  C:\Users\VIDEOH~1\AppData\Local\Temp\cc81jq2M.s 			page 11


 282:Generated_Source\PSoC4/cyfitter_cfg.c **** * Intended to be called at startup, based on the Vdda system configuration;
 283:Generated_Source\PSoC4/cyfitter_cfg.c **** * may be called during operation when the user informs us that the Vdda voltage crossed the pump th
 284:Generated_Source\PSoC4/cyfitter_cfg.c **** *
 285:Generated_Source\PSoC4/cyfitter_cfg.c **** * Parameters:
 286:Generated_Source\PSoC4/cyfitter_cfg.c **** *  enabled - 1 to enable the pumps, 0 to disable the pumps
 287:Generated_Source\PSoC4/cyfitter_cfg.c **** *
 288:Generated_Source\PSoC4/cyfitter_cfg.c **** * Return:
 289:Generated_Source\PSoC4/cyfitter_cfg.c **** *  void
 290:Generated_Source\PSoC4/cyfitter_cfg.c **** *
 291:Generated_Source\PSoC4/cyfitter_cfg.c **** *******************************************************************************/
 292:Generated_Source\PSoC4/cyfitter_cfg.c **** void SetAnalogRoutingPumps(uint8 enabled)
 293:Generated_Source\PSoC4/cyfitter_cfg.c **** {
 269              		.loc 1 293 0
 270              		.cfi_startproc
 271              		@ args = 0, pretend = 0, frame = 0
 272              		@ frame_needed = 0, uses_anonymous_args = 0
 273              		@ link register save eliminated.
 274              	.LVL16:
 294:Generated_Source\PSoC4/cyfitter_cfg.c **** 	uint32 regValue = CY_GET_XTND_REG32((void *)(CYREG_SAR_PUMP_CTRL));
 275              		.loc 1 294 0
 276 0000 064B     		ldr	r3, .L16
 277 0002 1B68     		ldr	r3, [r3]
 278              	.LVL17:
 295:Generated_Source\PSoC4/cyfitter_cfg.c **** 	if (enabled != 0u)
 279              		.loc 1 295 0
 280 0004 0028     		cmp	r0, #0
 281 0006 03D0     		beq	.L14
 296:Generated_Source\PSoC4/cyfitter_cfg.c **** 	{
 297:Generated_Source\PSoC4/cyfitter_cfg.c **** 		regValue |= 0x80000000u;
 282              		.loc 1 297 0
 283 0008 8022     		movs	r2, #128
 284 000a 1206     		lsls	r2, r2, #24
 285 000c 1343     		orrs	r3, r2
 286              	.LVL18:
 287 000e 01E0     		b	.L15
 288              	.L14:
 298:Generated_Source\PSoC4/cyfitter_cfg.c **** 	}
 299:Generated_Source\PSoC4/cyfitter_cfg.c **** 	else
 300:Generated_Source\PSoC4/cyfitter_cfg.c **** 	{
 301:Generated_Source\PSoC4/cyfitter_cfg.c **** 		regValue &= ~0x80000000u;
 289              		.loc 1 301 0
 290 0010 5B00     		lsls	r3, r3, #1
 291              	.LVL19:
 292 0012 5B08     		lsrs	r3, r3, #1
 293              	.LVL20:
 294              	.L15:
 302:Generated_Source\PSoC4/cyfitter_cfg.c **** 	}
 303:Generated_Source\PSoC4/cyfitter_cfg.c **** 	CY_SET_XTND_REG32((void *)(CYREG_SAR_PUMP_CTRL), regValue);
 295              		.loc 1 303 0
 296 0014 014A     		ldr	r2, .L16
 297 0016 1360     		str	r3, [r2]
 304:Generated_Source\PSoC4/cyfitter_cfg.c **** }
 298              		.loc 1 304 0
 299              		@ sp needed
 300 0018 7047     		bx	lr
 301              	.L17:
 302 001a C046     		.align	2
ARM GAS  C:\Users\VIDEOH~1\AppData\Local\Temp\cc81jq2M.s 			page 12


 303              	.L16:
 304 001c 80031A40 		.word	1075446656
 305              		.cfi_endproc
 306              	.LFE6:
 307              		.size	SetAnalogRoutingPumps, .-SetAnalogRoutingPumps
 308              		.section	.psocinit
 309              		.align	2
 310              		.global	cyfitter_cfg
 311              		.code	16
 312              		.thumb_func
 313              		.type	cyfitter_cfg, %function
 314              	cyfitter_cfg:
 315              	.LFB7:
 305:Generated_Source\PSoC4/cyfitter_cfg.c **** 
 306:Generated_Source\PSoC4/cyfitter_cfg.c **** 
 307:Generated_Source\PSoC4/cyfitter_cfg.c **** 
 308:Generated_Source\PSoC4/cyfitter_cfg.c **** 
 309:Generated_Source\PSoC4/cyfitter_cfg.c **** /*******************************************************************************
 310:Generated_Source\PSoC4/cyfitter_cfg.c **** * Function Name: cyfitter_cfg
 311:Generated_Source\PSoC4/cyfitter_cfg.c **** ********************************************************************************
 312:Generated_Source\PSoC4/cyfitter_cfg.c **** * Summary:
 313:Generated_Source\PSoC4/cyfitter_cfg.c **** *  This function is called by the start-up code for the selected device. It
 314:Generated_Source\PSoC4/cyfitter_cfg.c **** *  performs all of the necessary device configuration based on the design
 315:Generated_Source\PSoC4/cyfitter_cfg.c **** *  settings.  This includes settings from the Design Wide Resources (DWR) such
 316:Generated_Source\PSoC4/cyfitter_cfg.c **** *  as Clocks and Pins as well as any component configuration that is necessary.
 317:Generated_Source\PSoC4/cyfitter_cfg.c **** *
 318:Generated_Source\PSoC4/cyfitter_cfg.c **** * Parameters:
 319:Generated_Source\PSoC4/cyfitter_cfg.c **** *   void
 320:Generated_Source\PSoC4/cyfitter_cfg.c **** *
 321:Generated_Source\PSoC4/cyfitter_cfg.c **** * Return:
 322:Generated_Source\PSoC4/cyfitter_cfg.c **** *   void
 323:Generated_Source\PSoC4/cyfitter_cfg.c **** *
 324:Generated_Source\PSoC4/cyfitter_cfg.c **** *******************************************************************************/
 325:Generated_Source\PSoC4/cyfitter_cfg.c **** CY_CFG_SECTION
 326:Generated_Source\PSoC4/cyfitter_cfg.c **** void cyfitter_cfg(void)
 327:Generated_Source\PSoC4/cyfitter_cfg.c **** {
 316              		.loc 1 327 0
 317              		.cfi_startproc
 318              		@ args = 0, pretend = 0, frame = 0
 319              		@ frame_needed = 0, uses_anonymous_args = 0
 320 0094 10B5     		push	{r4, lr}
 321              		.cfi_def_cfa_offset 8
 322              		.cfi_offset 4, -8
 323              		.cfi_offset 14, -4
 328:Generated_Source\PSoC4/cyfitter_cfg.c **** 	/* Disable interrupts by default. Let user enable if/when they want. */
 329:Generated_Source\PSoC4/cyfitter_cfg.c **** 	CyGlobalIntDisable;
 324              		.loc 1 329 0
 325              		.syntax divided
 326              	@ 329 "Generated_Source\PSoC4\cyfitter_cfg.c" 1
 327 0096 72B6     		CPSID   i
 328              	@ 0 "" 2
 329              	.LVL21:
 330              		.thumb
 331              		.syntax unified
 332              	.LBB3:
 330:Generated_Source\PSoC4/cyfitter_cfg.c **** 
 331:Generated_Source\PSoC4/cyfitter_cfg.c **** 	{
ARM GAS  C:\Users\VIDEOH~1\AppData\Local\Temp\cc81jq2M.s 			page 13


 332:Generated_Source\PSoC4/cyfitter_cfg.c **** 		static const uint32 CYCODE cy_cfg_addr_table[] = {
 333:Generated_Source\PSoC4/cyfitter_cfg.c **** 			0x400F3004u, /* Base address: 0x400F3000 Count: 4 */
 334:Generated_Source\PSoC4/cyfitter_cfg.c **** 			0x400F3101u, /* Base address: 0x400F3100 Count: 1 */
 335:Generated_Source\PSoC4/cyfitter_cfg.c **** 			0x400F3301u, /* Base address: 0x400F3300 Count: 1 */
 336:Generated_Source\PSoC4/cyfitter_cfg.c **** 			0x400F4203u, /* Base address: 0x400F4200 Count: 3 */
 337:Generated_Source\PSoC4/cyfitter_cfg.c **** 			0x400F4305u, /* Base address: 0x400F4300 Count: 5 */
 338:Generated_Source\PSoC4/cyfitter_cfg.c **** 		};
 339:Generated_Source\PSoC4/cyfitter_cfg.c **** 
 340:Generated_Source\PSoC4/cyfitter_cfg.c **** 		static const cy_cfg_addrvalue_t CYCODE cy_cfg_data_table[] = {
 341:Generated_Source\PSoC4/cyfitter_cfg.c **** 			{0x38u, 0xA0u},
 342:Generated_Source\PSoC4/cyfitter_cfg.c **** 			{0x3Eu, 0x50u},
 343:Generated_Source\PSoC4/cyfitter_cfg.c **** 			{0x58u, 0x04u},
 344:Generated_Source\PSoC4/cyfitter_cfg.c **** 			{0x5Fu, 0x01u},
 345:Generated_Source\PSoC4/cyfitter_cfg.c **** 			{0x18u, 0x05u},
 346:Generated_Source\PSoC4/cyfitter_cfg.c **** 			{0xB4u, 0x05u},
 347:Generated_Source\PSoC4/cyfitter_cfg.c **** 			{0x6Cu, 0x40u},
 348:Generated_Source\PSoC4/cyfitter_cfg.c **** 			{0x70u, 0x08u},
 349:Generated_Source\PSoC4/cyfitter_cfg.c **** 			{0xDCu, 0x03u},
 350:Generated_Source\PSoC4/cyfitter_cfg.c **** 			{0x54u, 0x02u},
 351:Generated_Source\PSoC4/cyfitter_cfg.c **** 			{0xA0u, 0x02u},
 352:Generated_Source\PSoC4/cyfitter_cfg.c **** 			{0xB4u, 0x4Au},
 353:Generated_Source\PSoC4/cyfitter_cfg.c **** 			{0xD6u, 0x04u},
 354:Generated_Source\PSoC4/cyfitter_cfg.c **** 			{0xECu, 0x0Au},
 355:Generated_Source\PSoC4/cyfitter_cfg.c **** 		};
 356:Generated_Source\PSoC4/cyfitter_cfg.c **** 
 357:Generated_Source\PSoC4/cyfitter_cfg.c **** 
 358:Generated_Source\PSoC4/cyfitter_cfg.c **** 
 359:Generated_Source\PSoC4/cyfitter_cfg.c **** 		CYPACKED typedef struct {
 360:Generated_Source\PSoC4/cyfitter_cfg.c **** 			void CYFAR *address;
 361:Generated_Source\PSoC4/cyfitter_cfg.c **** 			uint16 size;
 362:Generated_Source\PSoC4/cyfitter_cfg.c **** 		} CYPACKED_ATTR cfg_memset_t;
 363:Generated_Source\PSoC4/cyfitter_cfg.c **** 
 364:Generated_Source\PSoC4/cyfitter_cfg.c **** 		static const cfg_memset_t CYCODE cfg_memset_list[] = {
 365:Generated_Source\PSoC4/cyfitter_cfg.c **** 			/* address, size */
 366:Generated_Source\PSoC4/cyfitter_cfg.c **** 			{(void CYFAR *)(CYDEV_UDB_P0_U0_BASE), 1024u},
 367:Generated_Source\PSoC4/cyfitter_cfg.c **** 			{(void CYFAR *)(CYDEV_UDB_DSI0_BASE), 1024u},
 368:Generated_Source\PSoC4/cyfitter_cfg.c **** 		};
 369:Generated_Source\PSoC4/cyfitter_cfg.c **** 
 370:Generated_Source\PSoC4/cyfitter_cfg.c **** 		uint8 CYDATA i;
 371:Generated_Source\PSoC4/cyfitter_cfg.c **** 
 372:Generated_Source\PSoC4/cyfitter_cfg.c **** 		/* Zero out critical memory blocks before beginning configuration */
 373:Generated_Source\PSoC4/cyfitter_cfg.c **** 		for (i = 0u; i < (sizeof(cfg_memset_list)/sizeof(cfg_memset_list[0])); i++)
 333              		.loc 1 373 0
 334 0098 0024     		movs	r4, #0
 335 009a 0FE0     		b	.L19
 336              	.LVL22:
 337              	.L20:
 338              	.LBB4:
 374:Generated_Source\PSoC4/cyfitter_cfg.c **** 		{
 375:Generated_Source\PSoC4/cyfitter_cfg.c **** 			const cfg_memset_t CYCODE * CYDATA ms = &cfg_memset_list[i];
 376:Generated_Source\PSoC4/cyfitter_cfg.c **** 			CYMEMZERO(ms->address, (size_t)(uint32)(ms->size));
 339              		.loc 1 376 0 discriminator 3
 340 009c 3348     		ldr	r0, .L21
 341 009e 6200     		lsls	r2, r4, #1
 342 00a0 1319     		adds	r3, r2, r4
 343 00a2 5900     		lsls	r1, r3, #1
 344 00a4 0B00     		movs	r3, r1
ARM GAS  C:\Users\VIDEOH~1\AppData\Local\Temp\cc81jq2M.s 			page 14


 345 00a6 4118     		adds	r1, r0, r1
 346 00a8 8988     		ldrh	r1, [r1, #4]
 347 00aa 1A5A     		ldrh	r2, [r3, r0]
 348 00ac C318     		adds	r3, r0, r3
 349 00ae 5888     		ldrh	r0, [r3, #2]
 350 00b0 0004     		lsls	r0, r0, #16
 351 00b2 1043     		orrs	r0, r2
 352 00b4 FFF7FEFF 		bl	CYMEMZERO
 353              	.LVL23:
 354              	.LBE4:
 373:Generated_Source\PSoC4/cyfitter_cfg.c **** 		{
 355              		.loc 1 373 0 discriminator 3
 356 00b8 0134     		adds	r4, r4, #1
 357              	.LVL24:
 358 00ba E4B2     		uxtb	r4, r4
 359              	.LVL25:
 360              	.L19:
 373:Generated_Source\PSoC4/cyfitter_cfg.c **** 		{
 361              		.loc 1 373 0 is_stmt 0 discriminator 1
 362 00bc 012C     		cmp	r4, #1
 363 00be EDD9     		bls	.L20
 377:Generated_Source\PSoC4/cyfitter_cfg.c **** 		}
 378:Generated_Source\PSoC4/cyfitter_cfg.c **** 
 379:Generated_Source\PSoC4/cyfitter_cfg.c **** 		cfg_write_bytes32(cy_cfg_addr_table, cy_cfg_data_table);
 364              		.loc 1 379 0 is_stmt 1
 365 00c0 2A48     		ldr	r0, .L21
 366 00c2 0100     		movs	r1, r0
 367 00c4 0C31     		adds	r1, r1, #12
 368 00c6 2830     		adds	r0, r0, #40
 369 00c8 FFF7FEFF 		bl	cfg_write_bytes32
 370              	.LVL26:
 380:Generated_Source\PSoC4/cyfitter_cfg.c **** 
 381:Generated_Source\PSoC4/cyfitter_cfg.c **** 		/* HSIOM Starting address: CYDEV_HSIOM_BASE */
 382:Generated_Source\PSoC4/cyfitter_cfg.c **** 		CY_SET_REG32((void *)(CYDEV_HSIOM_BASE), 0x00EE0000u);
 371              		.loc 1 382 0
 372 00cc EE22     		movs	r2, #238
 373 00ce 1204     		lsls	r2, r2, #16
 374 00d0 274B     		ldr	r3, .L21+4
 375 00d2 1A60     		str	r2, [r3]
 383:Generated_Source\PSoC4/cyfitter_cfg.c **** 		CY_SET_REG32((void *)(CYREG_HSIOM_PORT_SEL3), 0x0000EE76u);
 376              		.loc 1 383 0
 377 00d4 274A     		ldr	r2, .L21+8
 378 00d6 284B     		ldr	r3, .L21+12
 379 00d8 1A60     		str	r2, [r3]
 384:Generated_Source\PSoC4/cyfitter_cfg.c **** 		CY_SET_REG32((void *)(CYREG_HSIOM_PORT_SEL4), 0x00000099u);
 380              		.loc 1 384 0
 381 00da 9922     		movs	r2, #153
 382 00dc 274B     		ldr	r3, .L21+16
 383 00de 1A60     		str	r2, [r3]
 385:Generated_Source\PSoC4/cyfitter_cfg.c **** 
 386:Generated_Source\PSoC4/cyfitter_cfg.c **** 		/* UDB_PA_0 Starting address: CYDEV_UDB_PA0_BASE */
 387:Generated_Source\PSoC4/cyfitter_cfg.c **** 		CY_SET_REG32((void *)(CYDEV_UDB_PA0_BASE), 0x00990000u);
 384              		.loc 1 387 0
 385 00e0 9923     		movs	r3, #153
 386 00e2 1B04     		lsls	r3, r3, #16
 387 00e4 264A     		ldr	r2, .L21+20
 388 00e6 1360     		str	r3, [r2]
ARM GAS  C:\Users\VIDEOH~1\AppData\Local\Temp\cc81jq2M.s 			page 15


 388:Generated_Source\PSoC4/cyfitter_cfg.c **** 
 389:Generated_Source\PSoC4/cyfitter_cfg.c **** 		/* UDB_PA_1 Starting address: CYDEV_UDB_PA1_BASE */
 390:Generated_Source\PSoC4/cyfitter_cfg.c **** 		CY_SET_REG32((void *)(CYDEV_UDB_PA1_BASE), 0x00990000u);
 389              		.loc 1 390 0
 390 00e8 264A     		ldr	r2, .L21+24
 391 00ea 1360     		str	r3, [r2]
 391:Generated_Source\PSoC4/cyfitter_cfg.c **** 
 392:Generated_Source\PSoC4/cyfitter_cfg.c **** 		/* UDB_PA_2 Starting address: CYDEV_UDB_PA2_BASE */
 393:Generated_Source\PSoC4/cyfitter_cfg.c **** 		CY_SET_REG32((void *)(CYDEV_UDB_PA2_BASE), 0x00990000u);
 392              		.loc 1 393 0
 393 00ec 264A     		ldr	r2, .L21+28
 394 00ee 1360     		str	r3, [r2]
 394:Generated_Source\PSoC4/cyfitter_cfg.c **** 
 395:Generated_Source\PSoC4/cyfitter_cfg.c **** 		/* UDB_PA_3 Starting address: CYDEV_UDB_PA3_BASE */
 396:Generated_Source\PSoC4/cyfitter_cfg.c **** 		CY_SET_REG32((void *)(CYDEV_UDB_PA3_BASE), 0x00990000u);
 395              		.loc 1 396 0
 396 00f0 264A     		ldr	r2, .L21+32
 397 00f2 1360     		str	r3, [r2]
 397:Generated_Source\PSoC4/cyfitter_cfg.c **** 		CY_SET_REG32((void *)(CYREG_UDB_PA3_CFG8), 0x000F0000u);
 398              		.loc 1 397 0
 399 00f4 F022     		movs	r2, #240
 400 00f6 1203     		lsls	r2, r2, #12
 401 00f8 254B     		ldr	r3, .L21+36
 402 00fa 1A60     		str	r2, [r3]
 398:Generated_Source\PSoC4/cyfitter_cfg.c **** 
 399:Generated_Source\PSoC4/cyfitter_cfg.c **** 		/* Enable UDB array and digital routing */
 400:Generated_Source\PSoC4/cyfitter_cfg.c **** 		CY_SET_XTND_REG8((void *)CYREG_UDB_UDBIF_WAIT_CFG, (uint8)((CY_GET_XTND_REG8((void *)CYREG_UDB_UD
 403              		.loc 1 400 0
 404 00fc 2548     		ldr	r0, .L21+40
 405 00fe 0378     		ldrb	r3, [r0]
 406 0100 3C21     		movs	r1, #60
 407 0102 8B43     		bics	r3, r1
 408 0104 1422     		movs	r2, #20
 409 0106 1343     		orrs	r3, r2
 410 0108 DBB2     		uxtb	r3, r3
 411 010a 0370     		strb	r3, [r0]
 401:Generated_Source\PSoC4/cyfitter_cfg.c **** 		CY_SET_XTND_REG8((void *)CYREG_UDB_UDBIF_BANK_CTL, (uint8)(CY_GET_XTND_REG8((void *)CYREG_UDB_UDB
 412              		.loc 1 401 0
 413 010c 224A     		ldr	r2, .L21+44
 414 010e 1078     		ldrb	r0, [r2]
 415 0110 1623     		movs	r3, #22
 416 0112 0343     		orrs	r3, r0
 417 0114 DBB2     		uxtb	r3, r3
 418 0116 1370     		strb	r3, [r2]
 419              	.LBE3:
 402:Generated_Source\PSoC4/cyfitter_cfg.c **** 	}
 403:Generated_Source\PSoC4/cyfitter_cfg.c **** 
 404:Generated_Source\PSoC4/cyfitter_cfg.c **** 	/* Perform second pass device configuration. These items must be configured in specific order afte
 405:Generated_Source\PSoC4/cyfitter_cfg.c **** 	/* IOPINS0_0 Starting address: CYDEV_PRT0_BASE */
 406:Generated_Source\PSoC4/cyfitter_cfg.c **** 	CY_SET_REG32((void *)(CYDEV_PRT0_BASE), 0x00000033u);
 420              		.loc 1 406 0
 421 0118 3322     		movs	r2, #51
 422 011a 204B     		ldr	r3, .L21+48
 423 011c 1A60     		str	r2, [r3]
 407:Generated_Source\PSoC4/cyfitter_cfg.c **** 	CY_SET_REG32((void *)(CYREG_PRT0_PC), 0x00D24012u);
 424              		.loc 1 407 0
 425 011e 204A     		ldr	r2, .L21+52
ARM GAS  C:\Users\VIDEOH~1\AppData\Local\Temp\cc81jq2M.s 			page 16


 426 0120 204B     		ldr	r3, .L21+56
 427 0122 1A60     		str	r2, [r3]
 408:Generated_Source\PSoC4/cyfitter_cfg.c **** 	CY_SET_REG32((void *)(CYREG_PRT0_INTCFG), 0x0000000Fu);
 428              		.loc 1 408 0
 429 0124 0F22     		movs	r2, #15
 430 0126 204B     		ldr	r3, .L21+60
 431 0128 1A60     		str	r2, [r3]
 409:Generated_Source\PSoC4/cyfitter_cfg.c **** 
 410:Generated_Source\PSoC4/cyfitter_cfg.c **** 	/* IOPINS0_1 Starting address: CYDEV_PRT1_BASE */
 411:Generated_Source\PSoC4/cyfitter_cfg.c **** 	CY_SET_REG32((void *)(CYDEV_PRT1_BASE), 0x00000003u);
 432              		.loc 1 411 0
 433 012a 0323     		movs	r3, #3
 434 012c 1F4A     		ldr	r2, .L21+64
 435 012e 1360     		str	r3, [r2]
 412:Generated_Source\PSoC4/cyfitter_cfg.c **** 	CY_SET_REG32((void *)(CYREG_PRT1_PC2), 0x00000087u);
 436              		.loc 1 412 0
 437 0130 8720     		movs	r0, #135
 438 0132 1F4A     		ldr	r2, .L21+68
 439 0134 1060     		str	r0, [r2]
 413:Generated_Source\PSoC4/cyfitter_cfg.c **** 
 414:Generated_Source\PSoC4/cyfitter_cfg.c **** 	/* IOPINS0_2 Starting address: CYDEV_PRT2_BASE */
 415:Generated_Source\PSoC4/cyfitter_cfg.c **** 	CY_SET_REG32((void *)(CYDEV_PRT2_BASE), 0x0000003Cu);
 440              		.loc 1 415 0
 441 0136 1F4A     		ldr	r2, .L21+72
 442 0138 1160     		str	r1, [r2]
 416:Generated_Source\PSoC4/cyfitter_cfg.c **** 	CY_SET_REG32((void *)(CYREG_PRT2_PC2), 0x0000003Cu);
 443              		.loc 1 416 0
 444 013a 1F4A     		ldr	r2, .L21+76
 445 013c 1160     		str	r1, [r2]
 417:Generated_Source\PSoC4/cyfitter_cfg.c **** 
 418:Generated_Source\PSoC4/cyfitter_cfg.c **** 	/* IOPINS0_3 Starting address: CYDEV_PRT3_BASE */
 419:Generated_Source\PSoC4/cyfitter_cfg.c **** 	CY_SET_REG32((void *)(CYDEV_PRT3_BASE), 0x00000003u);
 446              		.loc 1 419 0
 447 013e 1F4A     		ldr	r2, .L21+80
 448 0140 1360     		str	r3, [r2]
 420:Generated_Source\PSoC4/cyfitter_cfg.c **** 	CY_SET_REG32((void *)(CYREG_PRT3_PC), 0x00000D80u);
 449              		.loc 1 420 0
 450 0142 D821     		movs	r1, #216
 451 0144 0901     		lsls	r1, r1, #4
 452 0146 1E4A     		ldr	r2, .L21+84
 453 0148 1160     		str	r1, [r2]
 421:Generated_Source\PSoC4/cyfitter_cfg.c **** 	CY_SET_REG32((void *)(CYREG_PRT3_PC2), 0x00000003u);
 454              		.loc 1 421 0
 455 014a 1E4A     		ldr	r2, .L21+88
 456 014c 1360     		str	r3, [r2]
 422:Generated_Source\PSoC4/cyfitter_cfg.c **** 
 423:Generated_Source\PSoC4/cyfitter_cfg.c **** 	/* IOPINS0_4 Starting address: CYDEV_PRT4_BASE */
 424:Generated_Source\PSoC4/cyfitter_cfg.c **** 	CY_SET_REG32((void *)(CYDEV_PRT4_BASE), 0x0000000Au);
 457              		.loc 1 424 0
 458 014e 0A22     		movs	r2, #10
 459 0150 1D4B     		ldr	r3, .L21+92
 460 0152 1A60     		str	r2, [r3]
 425:Generated_Source\PSoC4/cyfitter_cfg.c **** 	CY_SET_REG32((void *)(CYREG_PRT4_PC), 0x00000431u);
 461              		.loc 1 425 0
 462 0154 1D4A     		ldr	r2, .L21+96
 463 0156 1E4B     		ldr	r3, .L21+100
 464 0158 1A60     		str	r2, [r3]
ARM GAS  C:\Users\VIDEOH~1\AppData\Local\Temp\cc81jq2M.s 			page 17


 426:Generated_Source\PSoC4/cyfitter_cfg.c **** 	CY_SET_REG32((void *)(CYREG_PRT4_PC2), 0x00000002u);
 465              		.loc 1 426 0
 466 015a 0222     		movs	r2, #2
 467 015c 1D4B     		ldr	r3, .L21+104
 468 015e 1A60     		str	r2, [r3]
 427:Generated_Source\PSoC4/cyfitter_cfg.c **** 
 428:Generated_Source\PSoC4/cyfitter_cfg.c **** 
 429:Generated_Source\PSoC4/cyfitter_cfg.c **** 	/* Setup clocks based on selections from Clock DWR */
 430:Generated_Source\PSoC4/cyfitter_cfg.c **** 	ClockSetup();
 469              		.loc 1 430 0
 470 0160 FFF74EFF 		bl	ClockSetup
 471              	.LVL27:
 431:Generated_Source\PSoC4/cyfitter_cfg.c **** 
 432:Generated_Source\PSoC4/cyfitter_cfg.c **** 	/* Perform basic analog initialization to defaults */
 433:Generated_Source\PSoC4/cyfitter_cfg.c **** 	AnalogSetDefault();
 472              		.loc 1 433 0
 473 0164 FFF7FEFF 		bl	AnalogSetDefault
 474              	.LVL28:
 434:Generated_Source\PSoC4/cyfitter_cfg.c **** 
 435:Generated_Source\PSoC4/cyfitter_cfg.c **** }
 475              		.loc 1 435 0
 476              		@ sp needed
 477              	.LVL29:
 478 0168 10BD     		pop	{r4, pc}
 479              	.L22:
 480 016a C046     		.align	2
 481              	.L21:
 482 016c 00000000 		.word	.LANCHOR0
 483 0170 00000140 		.word	1073807360
 484 0174 76EE0000 		.word	61046
 485 0178 0C000140 		.word	1073807372
 486 017c 10000140 		.word	1073807376
 487 0180 00500F40 		.word	1074745344
 488 0184 10500F40 		.word	1074745360
 489 0188 20500F40 		.word	1074745376
 490 018c 30500F40 		.word	1074745392
 491 0190 38500F40 		.word	1074745400
 492 0194 01700F40 		.word	1074753537
 493 0198 00700F40 		.word	1074753536
 494 019c 00000440 		.word	1074003968
 495 01a0 1240D200 		.word	13778962
 496 01a4 08000440 		.word	1074003976
 497 01a8 0C000440 		.word	1074003980
 498 01ac 00010440 		.word	1074004224
 499 01b0 18010440 		.word	1074004248
 500 01b4 00020440 		.word	1074004480
 501 01b8 18020440 		.word	1074004504
 502 01bc 00030440 		.word	1074004736
 503 01c0 08030440 		.word	1074004744
 504 01c4 18030440 		.word	1074004760
 505 01c8 00040440 		.word	1074004992
 506 01cc 31040000 		.word	1073
 507 01d0 08040440 		.word	1074005000
 508 01d4 18040440 		.word	1074005016
 509              		.cfi_endproc
 510              	.LFE7:
 511              		.size	cyfitter_cfg, .-cyfitter_cfg
ARM GAS  C:\Users\VIDEOH~1\AppData\Local\Temp\cc81jq2M.s 			page 18


 512              		.section	.rodata
 513              		.align	2
 514              		.set	.LANCHOR0,. + 0
 515              		.type	cfg_memset_list.4872, %object
 516              		.size	cfg_memset_list.4872, 12
 517              	cfg_memset_list.4872:
 518 0000 00300F40 		.word	1074737152
 519 0004 0004     		.short	1024
 520 0006 00400F40 		.4byte	1074741248
 521 000a 0004     		.short	1024
 522              		.type	cy_cfg_data_table.4867, %object
 523              		.size	cy_cfg_data_table.4867, 28
 524              	cy_cfg_data_table.4867:
 525 000c 38       		.byte	56
 526 000d A0       		.byte	-96
 527 000e 3E       		.byte	62
 528 000f 50       		.byte	80
 529 0010 58       		.byte	88
 530 0011 04       		.byte	4
 531 0012 5F       		.byte	95
 532 0013 01       		.byte	1
 533 0014 18       		.byte	24
 534 0015 05       		.byte	5
 535 0016 B4       		.byte	-76
 536 0017 05       		.byte	5
 537 0018 6C       		.byte	108
 538 0019 40       		.byte	64
 539 001a 70       		.byte	112
 540 001b 08       		.byte	8
 541 001c DC       		.byte	-36
 542 001d 03       		.byte	3
 543 001e 54       		.byte	84
 544 001f 02       		.byte	2
 545 0020 A0       		.byte	-96
 546 0021 02       		.byte	2
 547 0022 B4       		.byte	-76
 548 0023 4A       		.byte	74
 549 0024 D6       		.byte	-42
 550 0025 04       		.byte	4
 551 0026 EC       		.byte	-20
 552 0027 0A       		.byte	10
 553              		.type	cy_cfg_addr_table.4866, %object
 554              		.size	cy_cfg_addr_table.4866, 20
 555              	cy_cfg_addr_table.4866:
 556 0028 04300F40 		.word	1074737156
 557 002c 01310F40 		.word	1074737409
 558 0030 01330F40 		.word	1074737921
 559 0034 03420F40 		.word	1074741763
 560 0038 05430F40 		.word	1074742021
 561              		.text
 562              	.Letext0:
 563              		.file 2 "c:\\program files (x86)\\cypress\\psoc creator\\4.2\\psoc creator\\import\\gnu\\arm\\5.4.
 564              		.file 3 "Generated_Source\\PSoC4\\cytypes.h"
 565              		.file 4 "Generated_Source\\PSoC4\\CyLib.h"