ARM GAS  C:\Users\VIDEOH~1\AppData\Local\Temp\ccKwza2q.s 			page 1


   1              		.syntax unified
   2              		.cpu cortex-m0
   3              		.fpu softvfp
   4              		.eabi_attribute 20, 1
   5              		.eabi_attribute 21, 1
   6              		.eabi_attribute 23, 3
   7              		.eabi_attribute 24, 1
   8              		.eabi_attribute 25, 1
   9              		.eabi_attribute 26, 1
  10              		.eabi_attribute 30, 1
  11              		.eabi_attribute 34, 0
  12              		.eabi_attribute 18, 4
  13              		.thumb
  14              		.syntax unified
  15              		.file	"Display_I2C_I2C_MASTER.c"
  16              		.text
  17              	.Ltext0:
  18              		.cfi_sections	.debug_frame
  19              		.section	.text.Display_I2C_I2CMasterWaitOneUnit,"ax",%progbits
  20              		.align	2
  21              		.code	16
  22              		.thumb_func
  23              		.type	Display_I2C_I2CMasterWaitOneUnit, %function
  24              	Display_I2C_I2CMasterWaitOneUnit:
  25              	.LFB15:
  26              		.file 1 "Generated_Source\\PSoC4\\Display_I2C_I2C_MASTER.c"
   1:Generated_Source\PSoC4/Display_I2C_I2C_MASTER.c **** /***************************************************************************//**
   2:Generated_Source\PSoC4/Display_I2C_I2C_MASTER.c **** * \file Display_I2C_I2C_MASTER.c
   3:Generated_Source\PSoC4/Display_I2C_I2C_MASTER.c **** * \version 4.0
   4:Generated_Source\PSoC4/Display_I2C_I2C_MASTER.c **** *
   5:Generated_Source\PSoC4/Display_I2C_I2C_MASTER.c **** * \brief
   6:Generated_Source\PSoC4/Display_I2C_I2C_MASTER.c **** *  This file provides the source code to the API for the SCB Component in
   7:Generated_Source\PSoC4/Display_I2C_I2C_MASTER.c **** *  I2C Master mode.
   8:Generated_Source\PSoC4/Display_I2C_I2C_MASTER.c **** *
   9:Generated_Source\PSoC4/Display_I2C_I2C_MASTER.c **** * Note:
  10:Generated_Source\PSoC4/Display_I2C_I2C_MASTER.c **** *
  11:Generated_Source\PSoC4/Display_I2C_I2C_MASTER.c **** *******************************************************************************
  12:Generated_Source\PSoC4/Display_I2C_I2C_MASTER.c **** * \copyright
  13:Generated_Source\PSoC4/Display_I2C_I2C_MASTER.c **** * Copyright 2013-2017, Cypress Semiconductor Corporation.  All rights reserved.
  14:Generated_Source\PSoC4/Display_I2C_I2C_MASTER.c **** * You may use this file only in accordance with the license, terms, conditions,
  15:Generated_Source\PSoC4/Display_I2C_I2C_MASTER.c **** * disclaimers, and limitations in the end user license agreement accompanying
  16:Generated_Source\PSoC4/Display_I2C_I2C_MASTER.c **** * the software package with which this file was provided.
  17:Generated_Source\PSoC4/Display_I2C_I2C_MASTER.c **** *******************************************************************************/
  18:Generated_Source\PSoC4/Display_I2C_I2C_MASTER.c **** 
  19:Generated_Source\PSoC4/Display_I2C_I2C_MASTER.c **** #include "Display_I2C_PVT.h"
  20:Generated_Source\PSoC4/Display_I2C_I2C_MASTER.c **** #include "Display_I2C_I2C_PVT.h"
  21:Generated_Source\PSoC4/Display_I2C_I2C_MASTER.c **** 
  22:Generated_Source\PSoC4/Display_I2C_I2C_MASTER.c **** #if(Display_I2C_I2C_MASTER_CONST)
  23:Generated_Source\PSoC4/Display_I2C_I2C_MASTER.c **** 
  24:Generated_Source\PSoC4/Display_I2C_I2C_MASTER.c **** /***************************************
  25:Generated_Source\PSoC4/Display_I2C_I2C_MASTER.c **** *      I2C Master Private Vars
  26:Generated_Source\PSoC4/Display_I2C_I2C_MASTER.c **** ***************************************/
  27:Generated_Source\PSoC4/Display_I2C_I2C_MASTER.c **** 
  28:Generated_Source\PSoC4/Display_I2C_I2C_MASTER.c **** /* Master variables */
  29:Generated_Source\PSoC4/Display_I2C_I2C_MASTER.c **** volatile uint16 Display_I2C_mstrStatus;      /* Master Status byte  */
  30:Generated_Source\PSoC4/Display_I2C_I2C_MASTER.c **** volatile uint8  Display_I2C_mstrControl;     /* Master Control byte */
  31:Generated_Source\PSoC4/Display_I2C_I2C_MASTER.c **** 
ARM GAS  C:\Users\VIDEOH~1\AppData\Local\Temp\ccKwza2q.s 			page 2


  32:Generated_Source\PSoC4/Display_I2C_I2C_MASTER.c **** /* Receive buffer variables */
  33:Generated_Source\PSoC4/Display_I2C_I2C_MASTER.c **** volatile uint8 * Display_I2C_mstrRdBufPtr;   /* Pointer to Master Read buffer */
  34:Generated_Source\PSoC4/Display_I2C_I2C_MASTER.c **** volatile uint32  Display_I2C_mstrRdBufSize;  /* Master Read buffer size       */
  35:Generated_Source\PSoC4/Display_I2C_I2C_MASTER.c **** volatile uint32  Display_I2C_mstrRdBufIndex; /* Master Read buffer Index      */
  36:Generated_Source\PSoC4/Display_I2C_I2C_MASTER.c **** 
  37:Generated_Source\PSoC4/Display_I2C_I2C_MASTER.c **** /* Transmit buffer variables */
  38:Generated_Source\PSoC4/Display_I2C_I2C_MASTER.c **** volatile uint8 * Display_I2C_mstrWrBufPtr;   /* Pointer to Master Write buffer */
  39:Generated_Source\PSoC4/Display_I2C_I2C_MASTER.c **** volatile uint32  Display_I2C_mstrWrBufSize;  /* Master Write buffer size       */
  40:Generated_Source\PSoC4/Display_I2C_I2C_MASTER.c **** volatile uint32  Display_I2C_mstrWrBufIndex; /* Master Write buffer Index      */
  41:Generated_Source\PSoC4/Display_I2C_I2C_MASTER.c **** volatile uint32  Display_I2C_mstrWrBufIndexTmp; /* Master Write buffer Index Tmp */
  42:Generated_Source\PSoC4/Display_I2C_I2C_MASTER.c **** 
  43:Generated_Source\PSoC4/Display_I2C_I2C_MASTER.c **** #if (!Display_I2C_CY_SCBIP_V0 && \
  44:Generated_Source\PSoC4/Display_I2C_I2C_MASTER.c ****     Display_I2C_I2C_MULTI_MASTER_SLAVE_CONST && Display_I2C_I2C_WAKE_ENABLE_CONST)
  45:Generated_Source\PSoC4/Display_I2C_I2C_MASTER.c ****     static void Display_I2C_I2CMasterDisableEcAm(void);
  46:Generated_Source\PSoC4/Display_I2C_I2C_MASTER.c **** #else
  47:Generated_Source\PSoC4/Display_I2C_I2C_MASTER.c ****     #define Display_I2C_I2CMasterDisableEcAm()     do{ /* Empty */ }while(0)
  48:Generated_Source\PSoC4/Display_I2C_I2C_MASTER.c **** #endif /* (!Display_I2C_CY_SCBIP_V0) */
  49:Generated_Source\PSoC4/Display_I2C_I2C_MASTER.c **** 
  50:Generated_Source\PSoC4/Display_I2C_I2C_MASTER.c **** static uint32 Display_I2C_I2CMasterHandleStatus(uint32 status);
  51:Generated_Source\PSoC4/Display_I2C_I2C_MASTER.c **** static uint32 Display_I2C_I2CMasterWaitOneUnit(uint32 *timeout);
  52:Generated_Source\PSoC4/Display_I2C_I2C_MASTER.c **** 
  53:Generated_Source\PSoC4/Display_I2C_I2C_MASTER.c **** 
  54:Generated_Source\PSoC4/Display_I2C_I2C_MASTER.c **** /*******************************************************************************
  55:Generated_Source\PSoC4/Display_I2C_I2C_MASTER.c **** * Function Name: Display_I2C_I2CMasterWriteBuf
  56:Generated_Source\PSoC4/Display_I2C_I2C_MASTER.c **** ****************************************************************************//**
  57:Generated_Source\PSoC4/Display_I2C_I2C_MASTER.c **** *
  58:Generated_Source\PSoC4/Display_I2C_I2C_MASTER.c **** *  Automatically writes an entire buffer of data to a slave device.
  59:Generated_Source\PSoC4/Display_I2C_I2C_MASTER.c **** *  Once the data transfer is initiated by this function, further data transfer
  60:Generated_Source\PSoC4/Display_I2C_I2C_MASTER.c **** *  is handled by the included ISR.
  61:Generated_Source\PSoC4/Display_I2C_I2C_MASTER.c **** *  Enables the I2C interrupt and clears Display_I2C_I2C_MSTAT_WR_CMPLT
  62:Generated_Source\PSoC4/Display_I2C_I2C_MASTER.c **** *  status.
  63:Generated_Source\PSoC4/Display_I2C_I2C_MASTER.c **** *
  64:Generated_Source\PSoC4/Display_I2C_I2C_MASTER.c **** *  \param slaveAddr: 7-bit slave address.
  65:Generated_Source\PSoC4/Display_I2C_I2C_MASTER.c **** *  \param xferData: Pointer to buffer of data to be sent.
  66:Generated_Source\PSoC4/Display_I2C_I2C_MASTER.c **** *  \param cnt: Size of buffer to send.
  67:Generated_Source\PSoC4/Display_I2C_I2C_MASTER.c **** *  \param mode: Transfer mode defines:
  68:Generated_Source\PSoC4/Display_I2C_I2C_MASTER.c **** *  (1) Whether a start or restart condition is generated at the beginning
  69:Generated_Source\PSoC4/Display_I2C_I2C_MASTER.c **** *  of the transfer, and
  70:Generated_Source\PSoC4/Display_I2C_I2C_MASTER.c **** *  (2) Whether the transfer is completed or halted before the stop
  71:Generated_Source\PSoC4/Display_I2C_I2C_MASTER.c **** *  condition is generated on the bus.Transfer mode, mode constants
  72:Generated_Source\PSoC4/Display_I2C_I2C_MASTER.c **** *  may be ORed together.
  73:Generated_Source\PSoC4/Display_I2C_I2C_MASTER.c **** *  - Display_I2C_I2C_MODE_COMPLETE_XFER - Perform complete transfer
  74:Generated_Source\PSoC4/Display_I2C_I2C_MASTER.c **** *    from Start to Stop.
  75:Generated_Source\PSoC4/Display_I2C_I2C_MASTER.c **** *  - Display_I2C_I2C_MODE_REPEAT_START - Send Repeat Start instead
  76:Generated_Source\PSoC4/Display_I2C_I2C_MASTER.c **** *    of Start. A Stop is generated after transfer is completed unless
  77:Generated_Source\PSoC4/Display_I2C_I2C_MASTER.c **** *    NO_STOP is specified.
  78:Generated_Source\PSoC4/Display_I2C_I2C_MASTER.c **** *  - Display_I2C_I2C_MODE_NO_STOP Execute transfer without a Stop.
  79:Generated_Source\PSoC4/Display_I2C_I2C_MASTER.c **** *    The following transfer expected to perform ReStart.
  80:Generated_Source\PSoC4/Display_I2C_I2C_MASTER.c **** *
  81:Generated_Source\PSoC4/Display_I2C_I2C_MASTER.c **** * \return
  82:Generated_Source\PSoC4/Display_I2C_I2C_MASTER.c **** *  Error status.
  83:Generated_Source\PSoC4/Display_I2C_I2C_MASTER.c **** *  - Display_I2C_I2C_MSTR_NO_ERROR - Function complete without error.
  84:Generated_Source\PSoC4/Display_I2C_I2C_MASTER.c **** *    The master started the transfer.
  85:Generated_Source\PSoC4/Display_I2C_I2C_MASTER.c **** *  - Display_I2C_I2C_MSTR_BUS_BUSY - Bus is busy. Nothing was sent on
  86:Generated_Source\PSoC4/Display_I2C_I2C_MASTER.c **** *    the bus. The attempt has to be retried.
  87:Generated_Source\PSoC4/Display_I2C_I2C_MASTER.c **** *  - Display_I2C_I2C_MSTR_NOT_READY - Master is not ready for to start
  88:Generated_Source\PSoC4/Display_I2C_I2C_MASTER.c **** *    transfer. A master still has not completed previous transaction or a
ARM GAS  C:\Users\VIDEOH~1\AppData\Local\Temp\ccKwza2q.s 			page 3


  89:Generated_Source\PSoC4/Display_I2C_I2C_MASTER.c **** *    slave operation is in progress (in multi-master-slave configuration).
  90:Generated_Source\PSoC4/Display_I2C_I2C_MASTER.c **** *    Nothing was sent on the bus. The attempt has to be retried.
  91:Generated_Source\PSoC4/Display_I2C_I2C_MASTER.c **** *
  92:Generated_Source\PSoC4/Display_I2C_I2C_MASTER.c **** * \globalvars
  93:Generated_Source\PSoC4/Display_I2C_I2C_MASTER.c **** *  Display_I2C_mstrStatus  - used to store current status of I2C Master.
  94:Generated_Source\PSoC4/Display_I2C_I2C_MASTER.c **** *  Display_I2C_state       - used to store current state of software FSM.
  95:Generated_Source\PSoC4/Display_I2C_I2C_MASTER.c **** *  Display_I2C_mstrControl - used to control master end of transaction with
  96:Generated_Source\PSoC4/Display_I2C_I2C_MASTER.c **** *  or without the Stop generation.
  97:Generated_Source\PSoC4/Display_I2C_I2C_MASTER.c **** *  Display_I2C_mstrWrBufPtr - used to store pointer to master write buffer.
  98:Generated_Source\PSoC4/Display_I2C_I2C_MASTER.c **** *  Display_I2C_mstrWrBufIndex - used to current index within master write
  99:Generated_Source\PSoC4/Display_I2C_I2C_MASTER.c **** *  buffer.
 100:Generated_Source\PSoC4/Display_I2C_I2C_MASTER.c **** *  Display_I2C_mstrWrBufSize - used to store master write buffer size.
 101:Generated_Source\PSoC4/Display_I2C_I2C_MASTER.c **** *
 102:Generated_Source\PSoC4/Display_I2C_I2C_MASTER.c **** *******************************************************************************/
 103:Generated_Source\PSoC4/Display_I2C_I2C_MASTER.c **** uint32 Display_I2C_I2CMasterWriteBuf(uint32 slaveAddress, uint8 * wrData, uint32 cnt, uint32 mode)
 104:Generated_Source\PSoC4/Display_I2C_I2C_MASTER.c **** {
 105:Generated_Source\PSoC4/Display_I2C_I2C_MASTER.c ****     uint32 errStatus;
 106:Generated_Source\PSoC4/Display_I2C_I2C_MASTER.c **** 
 107:Generated_Source\PSoC4/Display_I2C_I2C_MASTER.c ****     errStatus = Display_I2C_I2C_MSTR_NOT_READY;
 108:Generated_Source\PSoC4/Display_I2C_I2C_MASTER.c **** 
 109:Generated_Source\PSoC4/Display_I2C_I2C_MASTER.c ****     if(NULL != wrData)  /* Check buffer pointer */
 110:Generated_Source\PSoC4/Display_I2C_I2C_MASTER.c ****     {
 111:Generated_Source\PSoC4/Display_I2C_I2C_MASTER.c ****         /* Check FSM state and bus before generating Start/ReStart condition */
 112:Generated_Source\PSoC4/Display_I2C_I2C_MASTER.c ****         if(Display_I2C_CHECK_I2C_FSM_IDLE)
 113:Generated_Source\PSoC4/Display_I2C_I2C_MASTER.c ****         {
 114:Generated_Source\PSoC4/Display_I2C_I2C_MASTER.c ****             Display_I2C_DisableInt();  /* Lock from interruption */
 115:Generated_Source\PSoC4/Display_I2C_I2C_MASTER.c **** 
 116:Generated_Source\PSoC4/Display_I2C_I2C_MASTER.c ****             /* Check bus state */
 117:Generated_Source\PSoC4/Display_I2C_I2C_MASTER.c ****             errStatus = Display_I2C_CHECK_I2C_STATUS(Display_I2C_I2C_STATUS_BUS_BUSY) ?
 118:Generated_Source\PSoC4/Display_I2C_I2C_MASTER.c ****                             Display_I2C_I2C_MSTR_BUS_BUSY : Display_I2C_I2C_MSTR_NO_ERROR;
 119:Generated_Source\PSoC4/Display_I2C_I2C_MASTER.c ****         }
 120:Generated_Source\PSoC4/Display_I2C_I2C_MASTER.c ****         else if(Display_I2C_CHECK_I2C_FSM_HALT)
 121:Generated_Source\PSoC4/Display_I2C_I2C_MASTER.c ****         {
 122:Generated_Source\PSoC4/Display_I2C_I2C_MASTER.c ****             Display_I2C_mstrStatus &= (uint16) ~Display_I2C_I2C_MSTAT_XFER_HALT;
 123:Generated_Source\PSoC4/Display_I2C_I2C_MASTER.c ****                               errStatus  = Display_I2C_I2C_MSTR_NO_ERROR;
 124:Generated_Source\PSoC4/Display_I2C_I2C_MASTER.c ****         }
 125:Generated_Source\PSoC4/Display_I2C_I2C_MASTER.c ****         else
 126:Generated_Source\PSoC4/Display_I2C_I2C_MASTER.c ****         {
 127:Generated_Source\PSoC4/Display_I2C_I2C_MASTER.c ****             /* Unexpected FSM state: exit */
 128:Generated_Source\PSoC4/Display_I2C_I2C_MASTER.c ****         }
 129:Generated_Source\PSoC4/Display_I2C_I2C_MASTER.c ****     }
 130:Generated_Source\PSoC4/Display_I2C_I2C_MASTER.c **** 
 131:Generated_Source\PSoC4/Display_I2C_I2C_MASTER.c ****     /* Check if master is ready to start  */
 132:Generated_Source\PSoC4/Display_I2C_I2C_MASTER.c ****     if(Display_I2C_I2C_MSTR_NO_ERROR == errStatus) /* No error proceed */
 133:Generated_Source\PSoC4/Display_I2C_I2C_MASTER.c ****     {
 134:Generated_Source\PSoC4/Display_I2C_I2C_MASTER.c ****         /* Non-empty for master-slave mode when wakeup enabled */
 135:Generated_Source\PSoC4/Display_I2C_I2C_MASTER.c ****         Display_I2C_I2CMasterDisableEcAm();
 136:Generated_Source\PSoC4/Display_I2C_I2C_MASTER.c **** 
 137:Generated_Source\PSoC4/Display_I2C_I2C_MASTER.c ****         /* Set up write transaction */
 138:Generated_Source\PSoC4/Display_I2C_I2C_MASTER.c ****         Display_I2C_state = Display_I2C_I2C_FSM_MSTR_WR_ADDR;
 139:Generated_Source\PSoC4/Display_I2C_I2C_MASTER.c ****         Display_I2C_mstrWrBufIndexTmp = 0u;
 140:Generated_Source\PSoC4/Display_I2C_I2C_MASTER.c ****         Display_I2C_mstrWrBufIndex    = 0u;
 141:Generated_Source\PSoC4/Display_I2C_I2C_MASTER.c ****         Display_I2C_mstrWrBufSize     = cnt;
 142:Generated_Source\PSoC4/Display_I2C_I2C_MASTER.c ****         Display_I2C_mstrWrBufPtr      = (volatile uint8 *) wrData;
 143:Generated_Source\PSoC4/Display_I2C_I2C_MASTER.c ****         Display_I2C_mstrControl       = (uint8) mode;
 144:Generated_Source\PSoC4/Display_I2C_I2C_MASTER.c **** 
 145:Generated_Source\PSoC4/Display_I2C_I2C_MASTER.c ****         slaveAddress = Display_I2C_GET_I2C_8BIT_ADDRESS(slaveAddress);
ARM GAS  C:\Users\VIDEOH~1\AppData\Local\Temp\ccKwza2q.s 			page 4


 146:Generated_Source\PSoC4/Display_I2C_I2C_MASTER.c **** 
 147:Generated_Source\PSoC4/Display_I2C_I2C_MASTER.c ****         Display_I2C_mstrStatus &= (uint16) ~Display_I2C_I2C_MSTAT_WR_CMPLT;
 148:Generated_Source\PSoC4/Display_I2C_I2C_MASTER.c **** 
 149:Generated_Source\PSoC4/Display_I2C_I2C_MASTER.c ****         Display_I2C_ClearTxInterruptSource    (Display_I2C_INTR_TX_UNDERFLOW);
 150:Generated_Source\PSoC4/Display_I2C_I2C_MASTER.c ****         Display_I2C_ClearMasterInterruptSource(Display_I2C_INTR_MASTER_ALL);
 151:Generated_Source\PSoC4/Display_I2C_I2C_MASTER.c ****         Display_I2C_SetMasterInterruptMode    (Display_I2C_I2C_INTR_MASTER_MASK);
 152:Generated_Source\PSoC4/Display_I2C_I2C_MASTER.c **** 
 153:Generated_Source\PSoC4/Display_I2C_I2C_MASTER.c ****         /* The TX and RX FIFO have to be EMPTY */
 154:Generated_Source\PSoC4/Display_I2C_I2C_MASTER.c **** 
 155:Generated_Source\PSoC4/Display_I2C_I2C_MASTER.c ****         /* Enable interrupt source to catch when address is sent */
 156:Generated_Source\PSoC4/Display_I2C_I2C_MASTER.c ****         Display_I2C_SetTxInterruptMode(Display_I2C_INTR_TX_UNDERFLOW);
 157:Generated_Source\PSoC4/Display_I2C_I2C_MASTER.c **** 
 158:Generated_Source\PSoC4/Display_I2C_I2C_MASTER.c ****         /* Generate Start or ReStart */
 159:Generated_Source\PSoC4/Display_I2C_I2C_MASTER.c ****         if(Display_I2C_CHECK_I2C_MODE_RESTART(mode))
 160:Generated_Source\PSoC4/Display_I2C_I2C_MASTER.c ****         {
 161:Generated_Source\PSoC4/Display_I2C_I2C_MASTER.c ****             Display_I2C_I2C_MASTER_GENERATE_RESTART;
 162:Generated_Source\PSoC4/Display_I2C_I2C_MASTER.c ****             Display_I2C_TX_FIFO_WR_REG = slaveAddress;
 163:Generated_Source\PSoC4/Display_I2C_I2C_MASTER.c ****         }
 164:Generated_Source\PSoC4/Display_I2C_I2C_MASTER.c ****         else
 165:Generated_Source\PSoC4/Display_I2C_I2C_MASTER.c ****         {
 166:Generated_Source\PSoC4/Display_I2C_I2C_MASTER.c ****             Display_I2C_TX_FIFO_WR_REG = slaveAddress;
 167:Generated_Source\PSoC4/Display_I2C_I2C_MASTER.c ****             Display_I2C_I2C_MASTER_GENERATE_START;
 168:Generated_Source\PSoC4/Display_I2C_I2C_MASTER.c ****         }
 169:Generated_Source\PSoC4/Display_I2C_I2C_MASTER.c ****     }
 170:Generated_Source\PSoC4/Display_I2C_I2C_MASTER.c **** 
 171:Generated_Source\PSoC4/Display_I2C_I2C_MASTER.c ****     Display_I2C_EnableInt();   /* Release lock */
 172:Generated_Source\PSoC4/Display_I2C_I2C_MASTER.c **** 
 173:Generated_Source\PSoC4/Display_I2C_I2C_MASTER.c ****     return(errStatus);
 174:Generated_Source\PSoC4/Display_I2C_I2C_MASTER.c **** }
 175:Generated_Source\PSoC4/Display_I2C_I2C_MASTER.c **** 
 176:Generated_Source\PSoC4/Display_I2C_I2C_MASTER.c **** 
 177:Generated_Source\PSoC4/Display_I2C_I2C_MASTER.c **** /*******************************************************************************
 178:Generated_Source\PSoC4/Display_I2C_I2C_MASTER.c **** * Function Name: Display_I2C_I2CMasterReadBuf
 179:Generated_Source\PSoC4/Display_I2C_I2C_MASTER.c **** ****************************************************************************//**
 180:Generated_Source\PSoC4/Display_I2C_I2C_MASTER.c **** *
 181:Generated_Source\PSoC4/Display_I2C_I2C_MASTER.c **** *  Automatically reads an entire buffer of data from a slave device.
 182:Generated_Source\PSoC4/Display_I2C_I2C_MASTER.c **** *  Once the data transfer is initiated by this function, further data transfer
 183:Generated_Source\PSoC4/Display_I2C_I2C_MASTER.c **** *  is handled by the included ISR.
 184:Generated_Source\PSoC4/Display_I2C_I2C_MASTER.c **** *  Enables the I2C interrupt and clears Display_I2C_I2C_MSTAT_RD_CMPLT
 185:Generated_Source\PSoC4/Display_I2C_I2C_MASTER.c **** *  status.
 186:Generated_Source\PSoC4/Display_I2C_I2C_MASTER.c **** *
 187:Generated_Source\PSoC4/Display_I2C_I2C_MASTER.c **** *  \param slaveAddr: 7-bit slave address.
 188:Generated_Source\PSoC4/Display_I2C_I2C_MASTER.c **** *  \param xferData: Pointer to buffer of data to be sent.
 189:Generated_Source\PSoC4/Display_I2C_I2C_MASTER.c **** *  \param cnt: Size of buffer to send.
 190:Generated_Source\PSoC4/Display_I2C_I2C_MASTER.c **** *  \param mode: Transfer mode defines:
 191:Generated_Source\PSoC4/Display_I2C_I2C_MASTER.c **** *  (1) Whether a start or restart condition is generated at the beginning
 192:Generated_Source\PSoC4/Display_I2C_I2C_MASTER.c **** *  of the transfer, and
 193:Generated_Source\PSoC4/Display_I2C_I2C_MASTER.c **** *  (2) Whether the transfer is completed or halted before the stop
 194:Generated_Source\PSoC4/Display_I2C_I2C_MASTER.c **** *  condition is generated on the bus.Transfer mode, mode constants may
 195:Generated_Source\PSoC4/Display_I2C_I2C_MASTER.c **** *  be ORed together. See Display_I2C_I2CMasterWriteBuf()
 196:Generated_Source\PSoC4/Display_I2C_I2C_MASTER.c **** *  function for constants.
 197:Generated_Source\PSoC4/Display_I2C_I2C_MASTER.c **** *
 198:Generated_Source\PSoC4/Display_I2C_I2C_MASTER.c **** * \return
 199:Generated_Source\PSoC4/Display_I2C_I2C_MASTER.c **** *  Error status.See Display_I2C_I2CMasterWriteBuf()
 200:Generated_Source\PSoC4/Display_I2C_I2C_MASTER.c **** *  function for constants.
 201:Generated_Source\PSoC4/Display_I2C_I2C_MASTER.c **** *
 202:Generated_Source\PSoC4/Display_I2C_I2C_MASTER.c **** * \globalvars
ARM GAS  C:\Users\VIDEOH~1\AppData\Local\Temp\ccKwza2q.s 			page 5


 203:Generated_Source\PSoC4/Display_I2C_I2C_MASTER.c **** *  Display_I2C_mstrStatus  - used to store current status of I2C Master.
 204:Generated_Source\PSoC4/Display_I2C_I2C_MASTER.c **** *  Display_I2C_state       - used to store current state of software FSM.
 205:Generated_Source\PSoC4/Display_I2C_I2C_MASTER.c **** *  Display_I2C_mstrControl - used to control master end of transaction with
 206:Generated_Source\PSoC4/Display_I2C_I2C_MASTER.c **** *  or without the Stop generation.
 207:Generated_Source\PSoC4/Display_I2C_I2C_MASTER.c **** *  Display_I2C_mstrRdBufPtr - used to store pointer to master read buffer.
 208:Generated_Source\PSoC4/Display_I2C_I2C_MASTER.c **** *  Display_I2C_mstrRdBufIndex - used to current index within master read
 209:Generated_Source\PSoC4/Display_I2C_I2C_MASTER.c **** *  buffer.
 210:Generated_Source\PSoC4/Display_I2C_I2C_MASTER.c **** *  Display_I2C_mstrRdBufSize - used to store master read buffer size.
 211:Generated_Source\PSoC4/Display_I2C_I2C_MASTER.c **** *
 212:Generated_Source\PSoC4/Display_I2C_I2C_MASTER.c **** *******************************************************************************/
 213:Generated_Source\PSoC4/Display_I2C_I2C_MASTER.c **** uint32 Display_I2C_I2CMasterReadBuf(uint32 slaveAddress, uint8 * rdData, uint32 cnt, uint32 mode)
 214:Generated_Source\PSoC4/Display_I2C_I2C_MASTER.c **** {
 215:Generated_Source\PSoC4/Display_I2C_I2C_MASTER.c ****     uint32 errStatus;
 216:Generated_Source\PSoC4/Display_I2C_I2C_MASTER.c **** 
 217:Generated_Source\PSoC4/Display_I2C_I2C_MASTER.c ****     errStatus = Display_I2C_I2C_MSTR_NOT_READY;
 218:Generated_Source\PSoC4/Display_I2C_I2C_MASTER.c **** 
 219:Generated_Source\PSoC4/Display_I2C_I2C_MASTER.c ****     if(NULL != rdData)
 220:Generated_Source\PSoC4/Display_I2C_I2C_MASTER.c ****     {
 221:Generated_Source\PSoC4/Display_I2C_I2C_MASTER.c ****         /* Check FSM state and bus before generating Start/ReStart condition */
 222:Generated_Source\PSoC4/Display_I2C_I2C_MASTER.c ****         if(Display_I2C_CHECK_I2C_FSM_IDLE)
 223:Generated_Source\PSoC4/Display_I2C_I2C_MASTER.c ****         {
 224:Generated_Source\PSoC4/Display_I2C_I2C_MASTER.c ****             Display_I2C_DisableInt();  /* Lock from interruption */
 225:Generated_Source\PSoC4/Display_I2C_I2C_MASTER.c **** 
 226:Generated_Source\PSoC4/Display_I2C_I2C_MASTER.c ****             /* Check bus state */
 227:Generated_Source\PSoC4/Display_I2C_I2C_MASTER.c ****             errStatus = Display_I2C_CHECK_I2C_STATUS(Display_I2C_I2C_STATUS_BUS_BUSY) ?
 228:Generated_Source\PSoC4/Display_I2C_I2C_MASTER.c ****                             Display_I2C_I2C_MSTR_BUS_BUSY : Display_I2C_I2C_MSTR_NO_ERROR;
 229:Generated_Source\PSoC4/Display_I2C_I2C_MASTER.c ****         }
 230:Generated_Source\PSoC4/Display_I2C_I2C_MASTER.c ****         else if(Display_I2C_CHECK_I2C_FSM_HALT)
 231:Generated_Source\PSoC4/Display_I2C_I2C_MASTER.c ****         {
 232:Generated_Source\PSoC4/Display_I2C_I2C_MASTER.c ****             Display_I2C_mstrStatus &= (uint16) ~Display_I2C_I2C_MSTAT_XFER_HALT;
 233:Generated_Source\PSoC4/Display_I2C_I2C_MASTER.c ****                               errStatus  =  Display_I2C_I2C_MSTR_NO_ERROR;
 234:Generated_Source\PSoC4/Display_I2C_I2C_MASTER.c ****         }
 235:Generated_Source\PSoC4/Display_I2C_I2C_MASTER.c ****         else
 236:Generated_Source\PSoC4/Display_I2C_I2C_MASTER.c ****         {
 237:Generated_Source\PSoC4/Display_I2C_I2C_MASTER.c ****             /* Unexpected FSM state: exit */
 238:Generated_Source\PSoC4/Display_I2C_I2C_MASTER.c ****         }
 239:Generated_Source\PSoC4/Display_I2C_I2C_MASTER.c ****     }
 240:Generated_Source\PSoC4/Display_I2C_I2C_MASTER.c **** 
 241:Generated_Source\PSoC4/Display_I2C_I2C_MASTER.c ****     /* Check master ready to proceed */
 242:Generated_Source\PSoC4/Display_I2C_I2C_MASTER.c ****     if(Display_I2C_I2C_MSTR_NO_ERROR == errStatus) /* No error proceed */
 243:Generated_Source\PSoC4/Display_I2C_I2C_MASTER.c ****     {
 244:Generated_Source\PSoC4/Display_I2C_I2C_MASTER.c ****         /* Non-empty for master-slave mode when wakeup enabled */
 245:Generated_Source\PSoC4/Display_I2C_I2C_MASTER.c ****         Display_I2C_I2CMasterDisableEcAm();
 246:Generated_Source\PSoC4/Display_I2C_I2C_MASTER.c **** 
 247:Generated_Source\PSoC4/Display_I2C_I2C_MASTER.c ****         /* Set up read transaction */
 248:Generated_Source\PSoC4/Display_I2C_I2C_MASTER.c ****         Display_I2C_state = Display_I2C_I2C_FSM_MSTR_RD_ADDR;
 249:Generated_Source\PSoC4/Display_I2C_I2C_MASTER.c ****         Display_I2C_mstrRdBufIndex = 0u;
 250:Generated_Source\PSoC4/Display_I2C_I2C_MASTER.c ****         Display_I2C_mstrRdBufSize  = cnt;
 251:Generated_Source\PSoC4/Display_I2C_I2C_MASTER.c ****         Display_I2C_mstrRdBufPtr   = (volatile uint8 *) rdData;
 252:Generated_Source\PSoC4/Display_I2C_I2C_MASTER.c ****         Display_I2C_mstrControl    = (uint8) mode;
 253:Generated_Source\PSoC4/Display_I2C_I2C_MASTER.c **** 
 254:Generated_Source\PSoC4/Display_I2C_I2C_MASTER.c ****         slaveAddress = (Display_I2C_GET_I2C_8BIT_ADDRESS(slaveAddress) | Display_I2C_I2C_READ_FLAG)
 255:Generated_Source\PSoC4/Display_I2C_I2C_MASTER.c **** 
 256:Generated_Source\PSoC4/Display_I2C_I2C_MASTER.c ****         Display_I2C_mstrStatus &= (uint16) ~Display_I2C_I2C_MSTAT_RD_CMPLT;
 257:Generated_Source\PSoC4/Display_I2C_I2C_MASTER.c **** 
 258:Generated_Source\PSoC4/Display_I2C_I2C_MASTER.c ****         Display_I2C_ClearMasterInterruptSource(Display_I2C_INTR_MASTER_ALL);
 259:Generated_Source\PSoC4/Display_I2C_I2C_MASTER.c ****         Display_I2C_SetMasterInterruptMode    (Display_I2C_I2C_INTR_MASTER_MASK);
ARM GAS  C:\Users\VIDEOH~1\AppData\Local\Temp\ccKwza2q.s 			page 6


 260:Generated_Source\PSoC4/Display_I2C_I2C_MASTER.c **** 
 261:Generated_Source\PSoC4/Display_I2C_I2C_MASTER.c ****         /* TX and RX FIFO have to be EMPTY */
 262:Generated_Source\PSoC4/Display_I2C_I2C_MASTER.c **** 
 263:Generated_Source\PSoC4/Display_I2C_I2C_MASTER.c ****         /* Prepare reading */
 264:Generated_Source\PSoC4/Display_I2C_I2C_MASTER.c ****         if(Display_I2C_mstrRdBufSize < Display_I2C_I2C_FIFO_SIZE)
 265:Generated_Source\PSoC4/Display_I2C_I2C_MASTER.c ****         {
 266:Generated_Source\PSoC4/Display_I2C_I2C_MASTER.c ****             /* Reading byte-by-byte */
 267:Generated_Source\PSoC4/Display_I2C_I2C_MASTER.c ****             Display_I2C_SetRxInterruptMode(Display_I2C_INTR_RX_NOT_EMPTY);
 268:Generated_Source\PSoC4/Display_I2C_I2C_MASTER.c ****         }
 269:Generated_Source\PSoC4/Display_I2C_I2C_MASTER.c ****         else
 270:Generated_Source\PSoC4/Display_I2C_I2C_MASTER.c ****         {
 271:Generated_Source\PSoC4/Display_I2C_I2C_MASTER.c ****             /* Receive RX FIFO chunks */
 272:Generated_Source\PSoC4/Display_I2C_I2C_MASTER.c ****             Display_I2C_ENABLE_MASTER_AUTO_DATA_ACK;
 273:Generated_Source\PSoC4/Display_I2C_I2C_MASTER.c ****             Display_I2C_SetRxInterruptMode(Display_I2C_INTR_RX_FULL);
 274:Generated_Source\PSoC4/Display_I2C_I2C_MASTER.c ****         }
 275:Generated_Source\PSoC4/Display_I2C_I2C_MASTER.c **** 
 276:Generated_Source\PSoC4/Display_I2C_I2C_MASTER.c ****         /* Generate Start or ReStart */
 277:Generated_Source\PSoC4/Display_I2C_I2C_MASTER.c ****         if(Display_I2C_CHECK_I2C_MODE_RESTART(mode))
 278:Generated_Source\PSoC4/Display_I2C_I2C_MASTER.c ****         {
 279:Generated_Source\PSoC4/Display_I2C_I2C_MASTER.c ****             Display_I2C_I2C_MASTER_GENERATE_RESTART;
 280:Generated_Source\PSoC4/Display_I2C_I2C_MASTER.c ****             Display_I2C_TX_FIFO_WR_REG = slaveAddress;
 281:Generated_Source\PSoC4/Display_I2C_I2C_MASTER.c ****         }
 282:Generated_Source\PSoC4/Display_I2C_I2C_MASTER.c ****         else
 283:Generated_Source\PSoC4/Display_I2C_I2C_MASTER.c ****         {
 284:Generated_Source\PSoC4/Display_I2C_I2C_MASTER.c ****             Display_I2C_TX_FIFO_WR_REG = slaveAddress;
 285:Generated_Source\PSoC4/Display_I2C_I2C_MASTER.c ****             Display_I2C_I2C_MASTER_GENERATE_START;
 286:Generated_Source\PSoC4/Display_I2C_I2C_MASTER.c ****         }
 287:Generated_Source\PSoC4/Display_I2C_I2C_MASTER.c ****     }
 288:Generated_Source\PSoC4/Display_I2C_I2C_MASTER.c **** 
 289:Generated_Source\PSoC4/Display_I2C_I2C_MASTER.c ****     Display_I2C_EnableInt();   /* Release lock */
 290:Generated_Source\PSoC4/Display_I2C_I2C_MASTER.c **** 
 291:Generated_Source\PSoC4/Display_I2C_I2C_MASTER.c ****     return(errStatus);
 292:Generated_Source\PSoC4/Display_I2C_I2C_MASTER.c **** }
 293:Generated_Source\PSoC4/Display_I2C_I2C_MASTER.c **** 
 294:Generated_Source\PSoC4/Display_I2C_I2C_MASTER.c **** 
 295:Generated_Source\PSoC4/Display_I2C_I2C_MASTER.c **** /*******************************************************************************
 296:Generated_Source\PSoC4/Display_I2C_I2C_MASTER.c **** * Function Name: Display_I2C_I2CMasterSendStart
 297:Generated_Source\PSoC4/Display_I2C_I2C_MASTER.c **** ****************************************************************************//**
 298:Generated_Source\PSoC4/Display_I2C_I2C_MASTER.c **** *
 299:Generated_Source\PSoC4/Display_I2C_I2C_MASTER.c **** * Generates Start condition and sends slave address with read/write bit.
 300:Generated_Source\PSoC4/Display_I2C_I2C_MASTER.c **** * Disables the I2C interrupt.
 301:Generated_Source\PSoC4/Display_I2C_I2C_MASTER.c **** * This function is blocking and does not return until start condition and
 302:Generated_Source\PSoC4/Display_I2C_I2C_MASTER.c **** * address byte are sent and ACK/NACK response is received or errors occurred.
 303:Generated_Source\PSoC4/Display_I2C_I2C_MASTER.c **** *
 304:Generated_Source\PSoC4/Display_I2C_I2C_MASTER.c **** * \param slaveAddress
 305:Generated_Source\PSoC4/Display_I2C_I2C_MASTER.c **** * Right justified 7-bit Slave address (valid range 8 to 120).
 306:Generated_Source\PSoC4/Display_I2C_I2C_MASTER.c **** *
 307:Generated_Source\PSoC4/Display_I2C_I2C_MASTER.c **** * \param bitRnW
 308:Generated_Source\PSoC4/Display_I2C_I2C_MASTER.c **** * Direction of the following transfer. It is defined by read/write bit within
 309:Generated_Source\PSoC4/Display_I2C_I2C_MASTER.c **** * address byte.
 310:Generated_Source\PSoC4/Display_I2C_I2C_MASTER.c **** *  - Display_I2C_I2C_WRITE_XFER_MODE - Set write direction for the
 311:Generated_Source\PSoC4/Display_I2C_I2C_MASTER.c **** *    following transfer.
 312:Generated_Source\PSoC4/Display_I2C_I2C_MASTER.c **** *  - Display_I2C_I2C_READ_XFER_MODE - Set read direction for the
 313:Generated_Source\PSoC4/Display_I2C_I2C_MASTER.c **** *    following transfer.
 314:Generated_Source\PSoC4/Display_I2C_I2C_MASTER.c **** *
 315:Generated_Source\PSoC4/Display_I2C_I2C_MASTER.c **** * \param timeoutMs
 316:Generated_Source\PSoC4/Display_I2C_I2C_MASTER.c **** * Defines in milliseconds the time that this function can block for.
ARM GAS  C:\Users\VIDEOH~1\AppData\Local\Temp\ccKwza2q.s 			page 7


 317:Generated_Source\PSoC4/Display_I2C_I2C_MASTER.c **** * If that time expires, the function returns. If a zero is passed,
 318:Generated_Source\PSoC4/Display_I2C_I2C_MASTER.c **** * the function waits forever for the action to complete. If a timeout occurs,
 319:Generated_Source\PSoC4/Display_I2C_I2C_MASTER.c **** * the SCB block is reset. Note The maximum value is (maximum uint32)/1000.
 320:Generated_Source\PSoC4/Display_I2C_I2C_MASTER.c **** *
 321:Generated_Source\PSoC4/Display_I2C_I2C_MASTER.c **** * \return
 322:Generated_Source\PSoC4/Display_I2C_I2C_MASTER.c **** * Error status.
 323:Generated_Source\PSoC4/Display_I2C_I2C_MASTER.c **** *  - Display_I2C_I2C_MSTR_NO_ERROR - Function complete without error.
 324:Generated_Source\PSoC4/Display_I2C_I2C_MASTER.c **** *  - Display_I2C_I2C_MSTR_BUS_BUSY - Bus is busy.
 325:Generated_Source\PSoC4/Display_I2C_I2C_MASTER.c **** *    Nothing was sent on the bus. The attempt has to be retried.
 326:Generated_Source\PSoC4/Display_I2C_I2C_MASTER.c **** *  - Display_I2C_I2C_MSTR_NOT_READY - Master is not ready for to
 327:Generated_Source\PSoC4/Display_I2C_I2C_MASTER.c **** *    start transfer.
 328:Generated_Source\PSoC4/Display_I2C_I2C_MASTER.c **** *    A master still has not completed previous transaction or a slave
 329:Generated_Source\PSoC4/Display_I2C_I2C_MASTER.c **** *    operation is in progress (in multi-master-slave configuration).
 330:Generated_Source\PSoC4/Display_I2C_I2C_MASTER.c **** *    Nothing was sent on the bus. The attempt has to be retried.
 331:Generated_Source\PSoC4/Display_I2C_I2C_MASTER.c **** *  - Display_I2C_I2C_MSTR_ERR_LB_NAK - Error condition: Last byte was
 332:Generated_Source\PSoC4/Display_I2C_I2C_MASTER.c **** *    NAKed.
 333:Generated_Source\PSoC4/Display_I2C_I2C_MASTER.c **** *  - Display_I2C_I2C_MSTR_ERR_ARB_LOST - Error condition: Master lost
 334:Generated_Source\PSoC4/Display_I2C_I2C_MASTER.c **** *    arbitration.
 335:Generated_Source\PSoC4/Display_I2C_I2C_MASTER.c **** *  - Display_I2C_I2C_MSTR_ERR_BUS_ERR - Error condition: Master
 336:Generated_Source\PSoC4/Display_I2C_I2C_MASTER.c **** *    encountered a bus error. Bus error is misplaced start or stop detection.
 337:Generated_Source\PSoC4/Display_I2C_I2C_MASTER.c **** *  - Display_I2C_I2C_MSTR_ERR_ABORT_START - Error condition: The start
 338:Generated_Source\PSoC4/Display_I2C_I2C_MASTER.c **** *    condition generation was aborted due to beginning of Slave operation.
 339:Generated_Source\PSoC4/Display_I2C_I2C_MASTER.c **** *    This error condition is only applicable for Multi-Master-Slave mode.
 340:Generated_Source\PSoC4/Display_I2C_I2C_MASTER.c **** *
 341:Generated_Source\PSoC4/Display_I2C_I2C_MASTER.c **** * \globalvars
 342:Generated_Source\PSoC4/Display_I2C_I2C_MASTER.c **** * Display_I2C_state - used to store current state of software FSM.
 343:Generated_Source\PSoC4/Display_I2C_I2C_MASTER.c **** *
 344:Generated_Source\PSoC4/Display_I2C_I2C_MASTER.c **** *******************************************************************************/
 345:Generated_Source\PSoC4/Display_I2C_I2C_MASTER.c **** uint32 Display_I2C_I2CMasterSendStart(uint32 slaveAddress, uint32 bitRnW, uint32 timeoutMs)
 346:Generated_Source\PSoC4/Display_I2C_I2C_MASTER.c **** {
 347:Generated_Source\PSoC4/Display_I2C_I2C_MASTER.c ****     uint32 errStatus = Display_I2C_I2C_MSTR_NOT_READY;
 348:Generated_Source\PSoC4/Display_I2C_I2C_MASTER.c **** 
 349:Generated_Source\PSoC4/Display_I2C_I2C_MASTER.c ****     if(Display_I2C_CHECK_I2C_FSM_IDLE)
 350:Generated_Source\PSoC4/Display_I2C_I2C_MASTER.c ****     {
 351:Generated_Source\PSoC4/Display_I2C_I2C_MASTER.c ****         Display_I2C_DisableInt();  /* Lock from interruption */
 352:Generated_Source\PSoC4/Display_I2C_I2C_MASTER.c **** 
 353:Generated_Source\PSoC4/Display_I2C_I2C_MASTER.c ****         if(Display_I2C_CHECK_I2C_STATUS(Display_I2C_I2C_STATUS_BUS_BUSY))
 354:Generated_Source\PSoC4/Display_I2C_I2C_MASTER.c ****         {
 355:Generated_Source\PSoC4/Display_I2C_I2C_MASTER.c ****             errStatus = Display_I2C_I2C_MSTR_BUS_BUSY;
 356:Generated_Source\PSoC4/Display_I2C_I2C_MASTER.c ****         }
 357:Generated_Source\PSoC4/Display_I2C_I2C_MASTER.c ****         else
 358:Generated_Source\PSoC4/Display_I2C_I2C_MASTER.c ****         {
 359:Generated_Source\PSoC4/Display_I2C_I2C_MASTER.c ****             uint32 locStatus;
 360:Generated_Source\PSoC4/Display_I2C_I2C_MASTER.c ****             uint32 timeout = Display_I2C_I2C_CONVERT_TIMEOUT_TO_US(timeoutMs);
 361:Generated_Source\PSoC4/Display_I2C_I2C_MASTER.c **** 
 362:Generated_Source\PSoC4/Display_I2C_I2C_MASTER.c ****             /* Non-empty for master-slave mode when wakeup enabled */
 363:Generated_Source\PSoC4/Display_I2C_I2C_MASTER.c ****             Display_I2C_I2CMasterDisableEcAm();
 364:Generated_Source\PSoC4/Display_I2C_I2C_MASTER.c **** 
 365:Generated_Source\PSoC4/Display_I2C_I2C_MASTER.c ****             /* Clean up the hardware before a transaction. */
 366:Generated_Source\PSoC4/Display_I2C_I2C_MASTER.c ****             Display_I2C_SetMasterInterruptMode    (Display_I2C_NO_INTR_SOURCES);
 367:Generated_Source\PSoC4/Display_I2C_I2C_MASTER.c ****             Display_I2C_ClearMasterInterruptSource(Display_I2C_INTR_MASTER_ALL);
 368:Generated_Source\PSoC4/Display_I2C_I2C_MASTER.c ****             Display_I2C_ClearRxInterruptSource    (Display_I2C_INTR_RX_ALL);
 369:Generated_Source\PSoC4/Display_I2C_I2C_MASTER.c **** 
 370:Generated_Source\PSoC4/Display_I2C_I2C_MASTER.c ****             slaveAddress = Display_I2C_GET_I2C_8BIT_ADDRESS(slaveAddress);
 371:Generated_Source\PSoC4/Display_I2C_I2C_MASTER.c **** 
 372:Generated_Source\PSoC4/Display_I2C_I2C_MASTER.c ****             if(0u == bitRnW) /* Write direction */
 373:Generated_Source\PSoC4/Display_I2C_I2C_MASTER.c ****             {
ARM GAS  C:\Users\VIDEOH~1\AppData\Local\Temp\ccKwza2q.s 			page 8


 374:Generated_Source\PSoC4/Display_I2C_I2C_MASTER.c ****                 Display_I2C_state = Display_I2C_I2C_FSM_MSTR_WR_DATA;
 375:Generated_Source\PSoC4/Display_I2C_I2C_MASTER.c ****             }
 376:Generated_Source\PSoC4/Display_I2C_I2C_MASTER.c ****             else             /* Read direction */
 377:Generated_Source\PSoC4/Display_I2C_I2C_MASTER.c ****             {
 378:Generated_Source\PSoC4/Display_I2C_I2C_MASTER.c ****                 Display_I2C_state = Display_I2C_I2C_FSM_MSTR_RD_DATA;
 379:Generated_Source\PSoC4/Display_I2C_I2C_MASTER.c ****                          slaveAddress |= Display_I2C_I2C_READ_FLAG;
 380:Generated_Source\PSoC4/Display_I2C_I2C_MASTER.c ****             }
 381:Generated_Source\PSoC4/Display_I2C_I2C_MASTER.c **** 
 382:Generated_Source\PSoC4/Display_I2C_I2C_MASTER.c ****             /* TX and RX FIFO have to be empty at here */
 383:Generated_Source\PSoC4/Display_I2C_I2C_MASTER.c **** 
 384:Generated_Source\PSoC4/Display_I2C_I2C_MASTER.c ****              /* Generate Start and send address */
 385:Generated_Source\PSoC4/Display_I2C_I2C_MASTER.c ****             Display_I2C_TX_FIFO_WR_REG = slaveAddress;
 386:Generated_Source\PSoC4/Display_I2C_I2C_MASTER.c ****             Display_I2C_I2C_MASTER_GENERATE_START;
 387:Generated_Source\PSoC4/Display_I2C_I2C_MASTER.c **** 
 388:Generated_Source\PSoC4/Display_I2C_I2C_MASTER.c ****             /* Wait until address has been transferred. Note that for master reads at least one byt
 389:Generated_Source\PSoC4/Display_I2C_I2C_MASTER.c ****             do
 390:Generated_Source\PSoC4/Display_I2C_I2C_MASTER.c ****             {
 391:Generated_Source\PSoC4/Display_I2C_I2C_MASTER.c ****                 locStatus  = Display_I2C_GetMasterInterruptSource() & Display_I2C_INTR_MASTER_SEND_
 392:Generated_Source\PSoC4/Display_I2C_I2C_MASTER.c ****                 locStatus |= Display_I2C_GetSlaveInterruptSource() & Display_I2C_SLAVE_INTR_I2C_ADD
 393:Generated_Source\PSoC4/Display_I2C_I2C_MASTER.c ****                 locStatus |= Display_I2C_I2CMasterWaitOneUnit(&timeout);
 394:Generated_Source\PSoC4/Display_I2C_I2C_MASTER.c ****             }
 395:Generated_Source\PSoC4/Display_I2C_I2C_MASTER.c ****             while (0u == locStatus);
 396:Generated_Source\PSoC4/Display_I2C_I2C_MASTER.c **** 
 397:Generated_Source\PSoC4/Display_I2C_I2C_MASTER.c ****             /* Handle completion event and convert to status */
 398:Generated_Source\PSoC4/Display_I2C_I2C_MASTER.c ****             errStatus = Display_I2C_I2CMasterHandleStatus(locStatus);
 399:Generated_Source\PSoC4/Display_I2C_I2C_MASTER.c ****         }
 400:Generated_Source\PSoC4/Display_I2C_I2C_MASTER.c **** 
 401:Generated_Source\PSoC4/Display_I2C_I2C_MASTER.c ****         Display_I2C_EnableInt();  /* Release lock */
 402:Generated_Source\PSoC4/Display_I2C_I2C_MASTER.c ****     }
 403:Generated_Source\PSoC4/Display_I2C_I2C_MASTER.c **** 
 404:Generated_Source\PSoC4/Display_I2C_I2C_MASTER.c ****     return(errStatus);
 405:Generated_Source\PSoC4/Display_I2C_I2C_MASTER.c **** }
 406:Generated_Source\PSoC4/Display_I2C_I2C_MASTER.c **** 
 407:Generated_Source\PSoC4/Display_I2C_I2C_MASTER.c **** 
 408:Generated_Source\PSoC4/Display_I2C_I2C_MASTER.c **** /*******************************************************************************
 409:Generated_Source\PSoC4/Display_I2C_I2C_MASTER.c **** * Function Name: Display_I2C_I2CMasterSendRestart
 410:Generated_Source\PSoC4/Display_I2C_I2C_MASTER.c **** ****************************************************************************//**
 411:Generated_Source\PSoC4/Display_I2C_I2C_MASTER.c **** *
 412:Generated_Source\PSoC4/Display_I2C_I2C_MASTER.c **** * Generates Restart condition and sends slave address with read/write bit.
 413:Generated_Source\PSoC4/Display_I2C_I2C_MASTER.c **** * This function is blocking and does not return until start condition and
 414:Generated_Source\PSoC4/Display_I2C_I2C_MASTER.c **** * address are sent and ACK/NACK response is received or errors occurred.
 415:Generated_Source\PSoC4/Display_I2C_I2C_MASTER.c **** *
 416:Generated_Source\PSoC4/Display_I2C_I2C_MASTER.c **** * \param slaveAddress
 417:Generated_Source\PSoC4/Display_I2C_I2C_MASTER.c **** * Right justified 7-bit Slave address (valid range 8 to 120).
 418:Generated_Source\PSoC4/Display_I2C_I2C_MASTER.c **** *
 419:Generated_Source\PSoC4/Display_I2C_I2C_MASTER.c **** * \param bitRnW
 420:Generated_Source\PSoC4/Display_I2C_I2C_MASTER.c **** * Direction of the following transfer. It is defined by read/write bit within
 421:Generated_Source\PSoC4/Display_I2C_I2C_MASTER.c **** * address byte.See Display_I2C_I2CMasterSendStart() function for constants.
 422:Generated_Source\PSoC4/Display_I2C_I2C_MASTER.c **** *
 423:Generated_Source\PSoC4/Display_I2C_I2C_MASTER.c **** * \param timeoutMs
 424:Generated_Source\PSoC4/Display_I2C_I2C_MASTER.c **** * Defines in milliseconds the time that this function can block for.
 425:Generated_Source\PSoC4/Display_I2C_I2C_MASTER.c **** * If that time expires, the function returns. If a zero is passed,
 426:Generated_Source\PSoC4/Display_I2C_I2C_MASTER.c **** * the function waits forever for the action to complete. If a timeout occurs,
 427:Generated_Source\PSoC4/Display_I2C_I2C_MASTER.c **** * the SCB block is reset. Note The maximum value is (maximum uint32)/1000.
 428:Generated_Source\PSoC4/Display_I2C_I2C_MASTER.c **** *
 429:Generated_Source\PSoC4/Display_I2C_I2C_MASTER.c **** * \return
 430:Generated_Source\PSoC4/Display_I2C_I2C_MASTER.c **** * Error status.
ARM GAS  C:\Users\VIDEOH~1\AppData\Local\Temp\ccKwza2q.s 			page 9


 431:Generated_Source\PSoC4/Display_I2C_I2C_MASTER.c **** * See Display_I2C_I2CMasterSendStart() function for constants.
 432:Generated_Source\PSoC4/Display_I2C_I2C_MASTER.c **** *
 433:Generated_Source\PSoC4/Display_I2C_I2C_MASTER.c **** * \sideeffect
 434:Generated_Source\PSoC4/Display_I2C_I2C_MASTER.c **** * A valid Start or ReStart condition must be generated before calling
 435:Generated_Source\PSoC4/Display_I2C_I2C_MASTER.c **** * this function. This function does nothing if Start or ReStart conditions
 436:Generated_Source\PSoC4/Display_I2C_I2C_MASTER.c **** * failed before this function was called.
 437:Generated_Source\PSoC4/Display_I2C_I2C_MASTER.c **** * For read transaction, at least one byte has to be read before ReStart
 438:Generated_Source\PSoC4/Display_I2C_I2C_MASTER.c **** * generation.
 439:Generated_Source\PSoC4/Display_I2C_I2C_MASTER.c **** *
 440:Generated_Source\PSoC4/Display_I2C_I2C_MASTER.c **** * \globalvars
 441:Generated_Source\PSoC4/Display_I2C_I2C_MASTER.c **** * Display_I2C_state - used to store current state of software FSM.
 442:Generated_Source\PSoC4/Display_I2C_I2C_MASTER.c **** *
 443:Generated_Source\PSoC4/Display_I2C_I2C_MASTER.c **** *******************************************************************************/
 444:Generated_Source\PSoC4/Display_I2C_I2C_MASTER.c **** uint32 Display_I2C_I2CMasterSendRestart(uint32 slaveAddress, uint32 bitRnW, uint32 timeoutMs)
 445:Generated_Source\PSoC4/Display_I2C_I2C_MASTER.c **** {
 446:Generated_Source\PSoC4/Display_I2C_I2C_MASTER.c ****     uint32 errStatus = Display_I2C_I2C_MSTR_NOT_READY;
 447:Generated_Source\PSoC4/Display_I2C_I2C_MASTER.c **** 
 448:Generated_Source\PSoC4/Display_I2C_I2C_MASTER.c ****     /* Check FSM state before generating ReStart condition */
 449:Generated_Source\PSoC4/Display_I2C_I2C_MASTER.c ****     if(Display_I2C_CHECK_I2C_MASTER_ACTIVE)
 450:Generated_Source\PSoC4/Display_I2C_I2C_MASTER.c ****     {
 451:Generated_Source\PSoC4/Display_I2C_I2C_MASTER.c ****         uint32 locStatus;
 452:Generated_Source\PSoC4/Display_I2C_I2C_MASTER.c ****         uint32 timeout = Display_I2C_I2C_CONVERT_TIMEOUT_TO_US(timeoutMs);
 453:Generated_Source\PSoC4/Display_I2C_I2C_MASTER.c **** 
 454:Generated_Source\PSoC4/Display_I2C_I2C_MASTER.c ****         slaveAddress = Display_I2C_GET_I2C_8BIT_ADDRESS(slaveAddress);
 455:Generated_Source\PSoC4/Display_I2C_I2C_MASTER.c **** 
 456:Generated_Source\PSoC4/Display_I2C_I2C_MASTER.c ****         if(0u == bitRnW) /* Write direction */
 457:Generated_Source\PSoC4/Display_I2C_I2C_MASTER.c ****         {
 458:Generated_Source\PSoC4/Display_I2C_I2C_MASTER.c ****             Display_I2C_state = Display_I2C_I2C_FSM_MSTR_WR_DATA;
 459:Generated_Source\PSoC4/Display_I2C_I2C_MASTER.c ****         }
 460:Generated_Source\PSoC4/Display_I2C_I2C_MASTER.c ****         else             /* Read direction */
 461:Generated_Source\PSoC4/Display_I2C_I2C_MASTER.c ****         {
 462:Generated_Source\PSoC4/Display_I2C_I2C_MASTER.c ****             Display_I2C_state  = Display_I2C_I2C_FSM_MSTR_RD_DATA;
 463:Generated_Source\PSoC4/Display_I2C_I2C_MASTER.c ****                       slaveAddress |= Display_I2C_I2C_READ_FLAG;
 464:Generated_Source\PSoC4/Display_I2C_I2C_MASTER.c ****         }
 465:Generated_Source\PSoC4/Display_I2C_I2C_MASTER.c **** 
 466:Generated_Source\PSoC4/Display_I2C_I2C_MASTER.c ****         /* TX and RX FIFO have to be empty at here */
 467:Generated_Source\PSoC4/Display_I2C_I2C_MASTER.c **** 
 468:Generated_Source\PSoC4/Display_I2C_I2C_MASTER.c ****         /* A proper ReStart sequence is: set command to generate ReStart, then put an address byte 
 469:Generated_Source\PSoC4/Display_I2C_I2C_MASTER.c ****         * Put address into the TX FIFO the 1st makes scb IP think that this data byte for current w
 470:Generated_Source\PSoC4/Display_I2C_I2C_MASTER.c ****         */
 471:Generated_Source\PSoC4/Display_I2C_I2C_MASTER.c ****         Display_I2C_I2C_MASTER_GENERATE_RESTART;
 472:Generated_Source\PSoC4/Display_I2C_I2C_MASTER.c ****         Display_I2C_TX_FIFO_WR_REG = slaveAddress;
 473:Generated_Source\PSoC4/Display_I2C_I2C_MASTER.c **** 
 474:Generated_Source\PSoC4/Display_I2C_I2C_MASTER.c ****         /* Wait until address has been transferred. Note that for master reads at least one byte. *
 475:Generated_Source\PSoC4/Display_I2C_I2C_MASTER.c ****         do
 476:Generated_Source\PSoC4/Display_I2C_I2C_MASTER.c ****         {
 477:Generated_Source\PSoC4/Display_I2C_I2C_MASTER.c ****             locStatus  = Display_I2C_GetMasterInterruptSource() & Display_I2C_INTR_MASTER_SEND_BYTE
 478:Generated_Source\PSoC4/Display_I2C_I2C_MASTER.c ****             locStatus |= Display_I2C_I2CMasterWaitOneUnit(&timeout);
 479:Generated_Source\PSoC4/Display_I2C_I2C_MASTER.c ****         }
 480:Generated_Source\PSoC4/Display_I2C_I2C_MASTER.c ****         while (0u == locStatus);
 481:Generated_Source\PSoC4/Display_I2C_I2C_MASTER.c **** 
 482:Generated_Source\PSoC4/Display_I2C_I2C_MASTER.c **** 
 483:Generated_Source\PSoC4/Display_I2C_I2C_MASTER.c ****         /* Handle completion event and convert to status */
 484:Generated_Source\PSoC4/Display_I2C_I2C_MASTER.c ****         errStatus = Display_I2C_I2CMasterHandleStatus(locStatus);
 485:Generated_Source\PSoC4/Display_I2C_I2C_MASTER.c ****     }
 486:Generated_Source\PSoC4/Display_I2C_I2C_MASTER.c **** 
 487:Generated_Source\PSoC4/Display_I2C_I2C_MASTER.c ****     return(errStatus);
ARM GAS  C:\Users\VIDEOH~1\AppData\Local\Temp\ccKwza2q.s 			page 10


 488:Generated_Source\PSoC4/Display_I2C_I2C_MASTER.c **** }
 489:Generated_Source\PSoC4/Display_I2C_I2C_MASTER.c **** 
 490:Generated_Source\PSoC4/Display_I2C_I2C_MASTER.c **** 
 491:Generated_Source\PSoC4/Display_I2C_I2C_MASTER.c **** /*******************************************************************************
 492:Generated_Source\PSoC4/Display_I2C_I2C_MASTER.c **** * Function Name: Display_I2C_I2CMasterSendStop
 493:Generated_Source\PSoC4/Display_I2C_I2C_MASTER.c **** ****************************************************************************//**
 494:Generated_Source\PSoC4/Display_I2C_I2C_MASTER.c **** *
 495:Generated_Source\PSoC4/Display_I2C_I2C_MASTER.c **** * Generates Stop condition on the bus.
 496:Generated_Source\PSoC4/Display_I2C_I2C_MASTER.c **** * The NAK is generated before Stop in case of a read transaction.
 497:Generated_Source\PSoC4/Display_I2C_I2C_MASTER.c **** * At least one byte has to be read if a Start or ReStart condition with read
 498:Generated_Source\PSoC4/Display_I2C_I2C_MASTER.c **** * direction was generated before.
 499:Generated_Source\PSoC4/Display_I2C_I2C_MASTER.c **** * This function is blocking and does not return until a Stop condition is
 500:Generated_Source\PSoC4/Display_I2C_I2C_MASTER.c **** * generated or error occurred.
 501:Generated_Source\PSoC4/Display_I2C_I2C_MASTER.c **** *
 502:Generated_Source\PSoC4/Display_I2C_I2C_MASTER.c **** * \param timeoutMs
 503:Generated_Source\PSoC4/Display_I2C_I2C_MASTER.c **** * Defines in milliseconds the time that this function can block for.
 504:Generated_Source\PSoC4/Display_I2C_I2C_MASTER.c **** * If that time expires, the function returns. If a zero is passed,
 505:Generated_Source\PSoC4/Display_I2C_I2C_MASTER.c **** * the function waits forever for the action to complete. If a timeout occurs,
 506:Generated_Source\PSoC4/Display_I2C_I2C_MASTER.c **** * the SCB block is reset. Note The maximum value is (maximum uint32)/1000.
 507:Generated_Source\PSoC4/Display_I2C_I2C_MASTER.c **** *
 508:Generated_Source\PSoC4/Display_I2C_I2C_MASTER.c **** * \return
 509:Generated_Source\PSoC4/Display_I2C_I2C_MASTER.c **** * Error status.
 510:Generated_Source\PSoC4/Display_I2C_I2C_MASTER.c **** * See Display_I2C_I2CMasterSendStart() function for constants.
 511:Generated_Source\PSoC4/Display_I2C_I2C_MASTER.c **** *
 512:Generated_Source\PSoC4/Display_I2C_I2C_MASTER.c **** * \sideeffect
 513:Generated_Source\PSoC4/Display_I2C_I2C_MASTER.c **** * A valid Start or ReStart condition must be generated before calling
 514:Generated_Source\PSoC4/Display_I2C_I2C_MASTER.c **** * this function. This function does nothing if Start or ReStart conditions
 515:Generated_Source\PSoC4/Display_I2C_I2C_MASTER.c **** * failed before this function was called.
 516:Generated_Source\PSoC4/Display_I2C_I2C_MASTER.c **** * For read transaction, at least one byte has to be read before ReStart
 517:Generated_Source\PSoC4/Display_I2C_I2C_MASTER.c **** * generation.
 518:Generated_Source\PSoC4/Display_I2C_I2C_MASTER.c **** *
 519:Generated_Source\PSoC4/Display_I2C_I2C_MASTER.c **** * \globalvars
 520:Generated_Source\PSoC4/Display_I2C_I2C_MASTER.c **** * Display_I2C_state - used to store current state of software FSM.
 521:Generated_Source\PSoC4/Display_I2C_I2C_MASTER.c **** *
 522:Generated_Source\PSoC4/Display_I2C_I2C_MASTER.c **** *******************************************************************************/
 523:Generated_Source\PSoC4/Display_I2C_I2C_MASTER.c **** uint32 Display_I2C_I2CMasterSendStop(uint32 timeoutMs)
 524:Generated_Source\PSoC4/Display_I2C_I2C_MASTER.c **** {
 525:Generated_Source\PSoC4/Display_I2C_I2C_MASTER.c ****     uint32 errStatus = Display_I2C_I2C_MSTR_NOT_READY;
 526:Generated_Source\PSoC4/Display_I2C_I2C_MASTER.c **** 
 527:Generated_Source\PSoC4/Display_I2C_I2C_MASTER.c ****     /* Check FSM state before generating Stop condition */
 528:Generated_Source\PSoC4/Display_I2C_I2C_MASTER.c ****     if(Display_I2C_CHECK_I2C_MASTER_ACTIVE)
 529:Generated_Source\PSoC4/Display_I2C_I2C_MASTER.c ****     {
 530:Generated_Source\PSoC4/Display_I2C_I2C_MASTER.c ****         uint32 locStatus;
 531:Generated_Source\PSoC4/Display_I2C_I2C_MASTER.c ****         uint32 timeout = Display_I2C_I2C_CONVERT_TIMEOUT_TO_US(timeoutMs);
 532:Generated_Source\PSoC4/Display_I2C_I2C_MASTER.c **** 
 533:Generated_Source\PSoC4/Display_I2C_I2C_MASTER.c ****         /* Write direction: generates Stop; Read  direction: generates NACK and Stop; */
 534:Generated_Source\PSoC4/Display_I2C_I2C_MASTER.c ****         Display_I2C_I2C_MASTER_GENERATE_STOP;
 535:Generated_Source\PSoC4/Display_I2C_I2C_MASTER.c **** 
 536:Generated_Source\PSoC4/Display_I2C_I2C_MASTER.c ****         /* Wait for a completion event from the master */
 537:Generated_Source\PSoC4/Display_I2C_I2C_MASTER.c ****         do
 538:Generated_Source\PSoC4/Display_I2C_I2C_MASTER.c ****         {
 539:Generated_Source\PSoC4/Display_I2C_I2C_MASTER.c ****             locStatus  = Display_I2C_GetMasterInterruptSource() & Display_I2C_INTR_MASTER_SEND_STOP
 540:Generated_Source\PSoC4/Display_I2C_I2C_MASTER.c ****             locStatus |= Display_I2C_I2CMasterWaitOneUnit(&timeout);
 541:Generated_Source\PSoC4/Display_I2C_I2C_MASTER.c ****         }
 542:Generated_Source\PSoC4/Display_I2C_I2C_MASTER.c ****         while (0u == locStatus);
 543:Generated_Source\PSoC4/Display_I2C_I2C_MASTER.c **** 
 544:Generated_Source\PSoC4/Display_I2C_I2C_MASTER.c ****         /* Handle completion event and convert to status */
ARM GAS  C:\Users\VIDEOH~1\AppData\Local\Temp\ccKwza2q.s 			page 11


 545:Generated_Source\PSoC4/Display_I2C_I2C_MASTER.c ****         errStatus = Display_I2C_I2CMasterHandleStatus(locStatus);
 546:Generated_Source\PSoC4/Display_I2C_I2C_MASTER.c ****     }
 547:Generated_Source\PSoC4/Display_I2C_I2C_MASTER.c **** 
 548:Generated_Source\PSoC4/Display_I2C_I2C_MASTER.c ****     return(errStatus);
 549:Generated_Source\PSoC4/Display_I2C_I2C_MASTER.c **** }
 550:Generated_Source\PSoC4/Display_I2C_I2C_MASTER.c **** 
 551:Generated_Source\PSoC4/Display_I2C_I2C_MASTER.c **** 
 552:Generated_Source\PSoC4/Display_I2C_I2C_MASTER.c **** /*******************************************************************************
 553:Generated_Source\PSoC4/Display_I2C_I2C_MASTER.c **** * Function Name: Display_I2C_I2CMasterWriteByte
 554:Generated_Source\PSoC4/Display_I2C_I2C_MASTER.c **** ****************************************************************************//**
 555:Generated_Source\PSoC4/Display_I2C_I2C_MASTER.c **** *
 556:Generated_Source\PSoC4/Display_I2C_I2C_MASTER.c **** * Sends one byte to a slave.
 557:Generated_Source\PSoC4/Display_I2C_I2C_MASTER.c **** * This function is blocking and does not return until byte is transmitted
 558:Generated_Source\PSoC4/Display_I2C_I2C_MASTER.c **** * or error occurred.
 559:Generated_Source\PSoC4/Display_I2C_I2C_MASTER.c **** *
 560:Generated_Source\PSoC4/Display_I2C_I2C_MASTER.c **** * \param wrByte
 561:Generated_Source\PSoC4/Display_I2C_I2C_MASTER.c **** * The data byte to send to the slave.
 562:Generated_Source\PSoC4/Display_I2C_I2C_MASTER.c **** *
 563:Generated_Source\PSoC4/Display_I2C_I2C_MASTER.c **** * \param timeoutMs
 564:Generated_Source\PSoC4/Display_I2C_I2C_MASTER.c **** * Defines in milliseconds the time that this function can block for.
 565:Generated_Source\PSoC4/Display_I2C_I2C_MASTER.c **** * If that time expires, the function returns. If a zero is passed,
 566:Generated_Source\PSoC4/Display_I2C_I2C_MASTER.c **** * the function waits forever for the action to complete. If a timeout occurs,
 567:Generated_Source\PSoC4/Display_I2C_I2C_MASTER.c **** * the SCB block is reset. Note The maximum value is (maximum uint32)/1000.
 568:Generated_Source\PSoC4/Display_I2C_I2C_MASTER.c **** *
 569:Generated_Source\PSoC4/Display_I2C_I2C_MASTER.c **** * \return
 570:Generated_Source\PSoC4/Display_I2C_I2C_MASTER.c **** * Error status.
 571:Generated_Source\PSoC4/Display_I2C_I2C_MASTER.c **** * See Display_I2C_I2CMasterSendStart() function for constants.
 572:Generated_Source\PSoC4/Display_I2C_I2C_MASTER.c **** *
 573:Generated_Source\PSoC4/Display_I2C_I2C_MASTER.c **** * \sideeffect
 574:Generated_Source\PSoC4/Display_I2C_I2C_MASTER.c **** * A valid Start or ReStart condition must be generated before calling
 575:Generated_Source\PSoC4/Display_I2C_I2C_MASTER.c **** * this function. This function does nothing if Start or ReStart condition
 576:Generated_Source\PSoC4/Display_I2C_I2C_MASTER.c **** * failed before this function was called.
 577:Generated_Source\PSoC4/Display_I2C_I2C_MASTER.c **** *
 578:Generated_Source\PSoC4/Display_I2C_I2C_MASTER.c **** * \globalvars
 579:Generated_Source\PSoC4/Display_I2C_I2C_MASTER.c **** * Display_I2C_state - used to store current state of software FSM.
 580:Generated_Source\PSoC4/Display_I2C_I2C_MASTER.c **** *
 581:Generated_Source\PSoC4/Display_I2C_I2C_MASTER.c **** *******************************************************************************/
 582:Generated_Source\PSoC4/Display_I2C_I2C_MASTER.c **** uint32 Display_I2C_I2CMasterWriteByte(uint32 wrByte, uint32 timeoutMs)
 583:Generated_Source\PSoC4/Display_I2C_I2C_MASTER.c **** {
 584:Generated_Source\PSoC4/Display_I2C_I2C_MASTER.c ****     uint32 errStatus = Display_I2C_I2C_MSTR_NOT_READY;
 585:Generated_Source\PSoC4/Display_I2C_I2C_MASTER.c **** 
 586:Generated_Source\PSoC4/Display_I2C_I2C_MASTER.c ****     /* Check FSM state before write byte */
 587:Generated_Source\PSoC4/Display_I2C_I2C_MASTER.c ****     if(Display_I2C_CHECK_I2C_MASTER_ACTIVE)
 588:Generated_Source\PSoC4/Display_I2C_I2C_MASTER.c ****     {
 589:Generated_Source\PSoC4/Display_I2C_I2C_MASTER.c ****         uint32 locStatus;
 590:Generated_Source\PSoC4/Display_I2C_I2C_MASTER.c ****         uint32 timeout = Display_I2C_I2C_CONVERT_TIMEOUT_TO_US(timeoutMs);
 591:Generated_Source\PSoC4/Display_I2C_I2C_MASTER.c **** 
 592:Generated_Source\PSoC4/Display_I2C_I2C_MASTER.c ****         Display_I2C_TX_FIFO_WR_REG = wrByte;
 593:Generated_Source\PSoC4/Display_I2C_I2C_MASTER.c **** 
 594:Generated_Source\PSoC4/Display_I2C_I2C_MASTER.c ****         /* Wait for a completion event from the master */
 595:Generated_Source\PSoC4/Display_I2C_I2C_MASTER.c ****         do
 596:Generated_Source\PSoC4/Display_I2C_I2C_MASTER.c ****         {
 597:Generated_Source\PSoC4/Display_I2C_I2C_MASTER.c ****             locStatus  = Display_I2C_GetMasterInterruptSource() & Display_I2C_INTR_MASTER_SEND_BYTE
 598:Generated_Source\PSoC4/Display_I2C_I2C_MASTER.c ****             locStatus |= Display_I2C_I2CMasterWaitOneUnit(&timeout);
 599:Generated_Source\PSoC4/Display_I2C_I2C_MASTER.c ****         }
 600:Generated_Source\PSoC4/Display_I2C_I2C_MASTER.c ****         while (0u == locStatus);
 601:Generated_Source\PSoC4/Display_I2C_I2C_MASTER.c **** 
ARM GAS  C:\Users\VIDEOH~1\AppData\Local\Temp\ccKwza2q.s 			page 12


 602:Generated_Source\PSoC4/Display_I2C_I2C_MASTER.c ****         /* Handle completion event and convert to status */
 603:Generated_Source\PSoC4/Display_I2C_I2C_MASTER.c ****         errStatus = Display_I2C_I2CMasterHandleStatus(locStatus);
 604:Generated_Source\PSoC4/Display_I2C_I2C_MASTER.c ****     }
 605:Generated_Source\PSoC4/Display_I2C_I2C_MASTER.c **** 
 606:Generated_Source\PSoC4/Display_I2C_I2C_MASTER.c ****     return(errStatus);
 607:Generated_Source\PSoC4/Display_I2C_I2C_MASTER.c **** }
 608:Generated_Source\PSoC4/Display_I2C_I2C_MASTER.c **** 
 609:Generated_Source\PSoC4/Display_I2C_I2C_MASTER.c **** 
 610:Generated_Source\PSoC4/Display_I2C_I2C_MASTER.c **** 
 611:Generated_Source\PSoC4/Display_I2C_I2C_MASTER.c **** /*******************************************************************************
 612:Generated_Source\PSoC4/Display_I2C_I2C_MASTER.c **** * Function Name: Display_I2C_I2CMasterReadByte
 613:Generated_Source\PSoC4/Display_I2C_I2C_MASTER.c **** ****************************************************************************//**
 614:Generated_Source\PSoC4/Display_I2C_I2C_MASTER.c **** *
 615:Generated_Source\PSoC4/Display_I2C_I2C_MASTER.c **** * Reads one byte from a slave and generates ACK or prepares to generate NAK.
 616:Generated_Source\PSoC4/Display_I2C_I2C_MASTER.c **** * The NAK will be generated before Stop or ReStart condition by
 617:Generated_Source\PSoC4/Display_I2C_I2C_MASTER.c **** * Display_I2C_I2CMasterSendStop() or
 618:Generated_Source\PSoC4/Display_I2C_I2C_MASTER.c **** * Display_I2C_I2CMasterSendRestart() function appropriately.
 619:Generated_Source\PSoC4/Display_I2C_I2C_MASTER.c **** * This function is blocking. It does not return until a byte is received or
 620:Generated_Source\PSoC4/Display_I2C_I2C_MASTER.c **** * an error occurs.
 621:Generated_Source\PSoC4/Display_I2C_I2C_MASTER.c **** *
 622:Generated_Source\PSoC4/Display_I2C_I2C_MASTER.c **** * \param ackNack
 623:Generated_Source\PSoC4/Display_I2C_I2C_MASTER.c **** * Response to received byte.
 624:Generated_Source\PSoC4/Display_I2C_I2C_MASTER.c **** *  - Display_I2C_I2C_ACK_DATA - Generates ACK.
 625:Generated_Source\PSoC4/Display_I2C_I2C_MASTER.c **** *     The master notifies slave that transfer continues.
 626:Generated_Source\PSoC4/Display_I2C_I2C_MASTER.c **** *  - Display_I2C_I2C_NAK_DATA - Prepares to generate NAK.
 627:Generated_Source\PSoC4/Display_I2C_I2C_MASTER.c **** *     The master will notify slave that transfer is completed.
 628:Generated_Source\PSoC4/Display_I2C_I2C_MASTER.c **** *
 629:Generated_Source\PSoC4/Display_I2C_I2C_MASTER.c **** * \param rdByte
 630:Generated_Source\PSoC4/Display_I2C_I2C_MASTER.c **** * The pointer to the location to store the data byte that was read from
 631:Generated_Source\PSoC4/Display_I2C_I2C_MASTER.c **** * the slave.
 632:Generated_Source\PSoC4/Display_I2C_I2C_MASTER.c **** * Note that the byte should be ignored if error status is returned.
 633:Generated_Source\PSoC4/Display_I2C_I2C_MASTER.c **** *
 634:Generated_Source\PSoC4/Display_I2C_I2C_MASTER.c **** * \param timeoutMs
 635:Generated_Source\PSoC4/Display_I2C_I2C_MASTER.c **** * Defines in milliseconds the time that this function can block for.
 636:Generated_Source\PSoC4/Display_I2C_I2C_MASTER.c **** * If that time expires, the function returns. If a zero is passed,
 637:Generated_Source\PSoC4/Display_I2C_I2C_MASTER.c **** * the function waits forever for the action to complete. If a timeout occurs,
 638:Generated_Source\PSoC4/Display_I2C_I2C_MASTER.c **** * the SCB block is reset. Note The maximum value is (maximum uint32)/1000.
 639:Generated_Source\PSoC4/Display_I2C_I2C_MASTER.c **** *
 640:Generated_Source\PSoC4/Display_I2C_I2C_MASTER.c **** * \return
 641:Generated_Source\PSoC4/Display_I2C_I2C_MASTER.c **** * Error status.
 642:Generated_Source\PSoC4/Display_I2C_I2C_MASTER.c **** * See Display_I2C_I2CMasterSendStart() function for constants.
 643:Generated_Source\PSoC4/Display_I2C_I2C_MASTER.c **** *
 644:Generated_Source\PSoC4/Display_I2C_I2C_MASTER.c **** * \sideeffect
 645:Generated_Source\PSoC4/Display_I2C_I2C_MASTER.c **** * A valid Start or ReStart condition must be generated before calling
 646:Generated_Source\PSoC4/Display_I2C_I2C_MASTER.c **** * this function. This function does nothing if Start or ReStart condition
 647:Generated_Source\PSoC4/Display_I2C_I2C_MASTER.c **** * failed before this function was called.
 648:Generated_Source\PSoC4/Display_I2C_I2C_MASTER.c **** *
 649:Generated_Source\PSoC4/Display_I2C_I2C_MASTER.c **** * \globalvars
 650:Generated_Source\PSoC4/Display_I2C_I2C_MASTER.c **** * Display_I2C_state - used to store current state of software FSM.
 651:Generated_Source\PSoC4/Display_I2C_I2C_MASTER.c **** *
 652:Generated_Source\PSoC4/Display_I2C_I2C_MASTER.c **** *******************************************************************************/
 653:Generated_Source\PSoC4/Display_I2C_I2C_MASTER.c **** uint32 Display_I2C_I2CMasterReadByte(uint32 ackNack, uint8 *rdByte, uint32 timeoutMs)
 654:Generated_Source\PSoC4/Display_I2C_I2C_MASTER.c **** {
 655:Generated_Source\PSoC4/Display_I2C_I2C_MASTER.c ****     uint32 errStatus = Display_I2C_I2C_MSTR_NOT_READY;
 656:Generated_Source\PSoC4/Display_I2C_I2C_MASTER.c **** 
 657:Generated_Source\PSoC4/Display_I2C_I2C_MASTER.c ****     /* Check FSM state before read byte */
 658:Generated_Source\PSoC4/Display_I2C_I2C_MASTER.c ****     if(Display_I2C_CHECK_I2C_MASTER_ACTIVE)
ARM GAS  C:\Users\VIDEOH~1\AppData\Local\Temp\ccKwza2q.s 			page 13


 659:Generated_Source\PSoC4/Display_I2C_I2C_MASTER.c ****     {
 660:Generated_Source\PSoC4/Display_I2C_I2C_MASTER.c ****         uint32 locStatus;
 661:Generated_Source\PSoC4/Display_I2C_I2C_MASTER.c ****         uint32 rxNotEmpty;
 662:Generated_Source\PSoC4/Display_I2C_I2C_MASTER.c ****         uint32 timeout = Display_I2C_I2C_CONVERT_TIMEOUT_TO_US(timeoutMs);
 663:Generated_Source\PSoC4/Display_I2C_I2C_MASTER.c **** 
 664:Generated_Source\PSoC4/Display_I2C_I2C_MASTER.c ****         /* Wait for a completion event from the master */
 665:Generated_Source\PSoC4/Display_I2C_I2C_MASTER.c ****         do
 666:Generated_Source\PSoC4/Display_I2C_I2C_MASTER.c ****         {
 667:Generated_Source\PSoC4/Display_I2C_I2C_MASTER.c ****             locStatus  = Display_I2C_GetMasterInterruptSource() & Display_I2C_INTR_MASTER_RECEIVE_B
 668:Generated_Source\PSoC4/Display_I2C_I2C_MASTER.c ****             rxNotEmpty = Display_I2C_GetRxInterruptSource() & Display_I2C_INTR_RX_NOT_EMPTY;
 669:Generated_Source\PSoC4/Display_I2C_I2C_MASTER.c ****             locStatus |= Display_I2C_I2CMasterWaitOneUnit(&timeout);
 670:Generated_Source\PSoC4/Display_I2C_I2C_MASTER.c ****         }
 671:Generated_Source\PSoC4/Display_I2C_I2C_MASTER.c ****         while ((0u == locStatus) && (0u == rxNotEmpty));
 672:Generated_Source\PSoC4/Display_I2C_I2C_MASTER.c **** 
 673:Generated_Source\PSoC4/Display_I2C_I2C_MASTER.c ****         /* Get byte from RX FIFO */
 674:Generated_Source\PSoC4/Display_I2C_I2C_MASTER.c ****         if (0u != rxNotEmpty)
 675:Generated_Source\PSoC4/Display_I2C_I2C_MASTER.c ****         {
 676:Generated_Source\PSoC4/Display_I2C_I2C_MASTER.c ****             *rdByte = (uint8)Display_I2C_RX_FIFO_RD_REG;
 677:Generated_Source\PSoC4/Display_I2C_I2C_MASTER.c ****             Display_I2C_ClearRxInterruptSource(Display_I2C_INTR_RX_ALL);
 678:Generated_Source\PSoC4/Display_I2C_I2C_MASTER.c ****         }
 679:Generated_Source\PSoC4/Display_I2C_I2C_MASTER.c **** 
 680:Generated_Source\PSoC4/Display_I2C_I2C_MASTER.c ****         /* Handle completion event and convert to status */
 681:Generated_Source\PSoC4/Display_I2C_I2C_MASTER.c ****         errStatus = Display_I2C_I2CMasterHandleStatus(locStatus);
 682:Generated_Source\PSoC4/Display_I2C_I2C_MASTER.c **** 
 683:Generated_Source\PSoC4/Display_I2C_I2C_MASTER.c ****         if (Display_I2C_I2C_MSTR_NO_ERROR == errStatus)
 684:Generated_Source\PSoC4/Display_I2C_I2C_MASTER.c ****         {
 685:Generated_Source\PSoC4/Display_I2C_I2C_MASTER.c ****             if(Display_I2C_I2C_ACK_DATA == ackNack)
 686:Generated_Source\PSoC4/Display_I2C_I2C_MASTER.c ****             {
 687:Generated_Source\PSoC4/Display_I2C_I2C_MASTER.c ****                 Display_I2C_I2C_MASTER_GENERATE_ACK;
 688:Generated_Source\PSoC4/Display_I2C_I2C_MASTER.c ****             }
 689:Generated_Source\PSoC4/Display_I2C_I2C_MASTER.c ****             else
 690:Generated_Source\PSoC4/Display_I2C_I2C_MASTER.c ****             {
 691:Generated_Source\PSoC4/Display_I2C_I2C_MASTER.c ****                 /* NACK is generated by Stop or ReStart command */
 692:Generated_Source\PSoC4/Display_I2C_I2C_MASTER.c ****             }
 693:Generated_Source\PSoC4/Display_I2C_I2C_MASTER.c ****         }
 694:Generated_Source\PSoC4/Display_I2C_I2C_MASTER.c ****     }
 695:Generated_Source\PSoC4/Display_I2C_I2C_MASTER.c **** 
 696:Generated_Source\PSoC4/Display_I2C_I2C_MASTER.c ****     return(errStatus);
 697:Generated_Source\PSoC4/Display_I2C_I2C_MASTER.c **** }
 698:Generated_Source\PSoC4/Display_I2C_I2C_MASTER.c **** 
 699:Generated_Source\PSoC4/Display_I2C_I2C_MASTER.c **** 
 700:Generated_Source\PSoC4/Display_I2C_I2C_MASTER.c **** /*******************************************************************************
 701:Generated_Source\PSoC4/Display_I2C_I2C_MASTER.c **** * Function Name: Display_I2C_I2CMasterGetReadBufSize
 702:Generated_Source\PSoC4/Display_I2C_I2C_MASTER.c **** ****************************************************************************//**
 703:Generated_Source\PSoC4/Display_I2C_I2C_MASTER.c **** *
 704:Generated_Source\PSoC4/Display_I2C_I2C_MASTER.c **** *  Returns the number of bytes that has been transferred with an
 705:Generated_Source\PSoC4/Display_I2C_I2C_MASTER.c **** *  Display_I2C_I2CMasterReadBuf() function.
 706:Generated_Source\PSoC4/Display_I2C_I2C_MASTER.c **** *
 707:Generated_Source\PSoC4/Display_I2C_I2C_MASTER.c **** * \return
 708:Generated_Source\PSoC4/Display_I2C_I2C_MASTER.c **** *  Byte count of transfer. If the transfer is not yet complete, it returns
 709:Generated_Source\PSoC4/Display_I2C_I2C_MASTER.c **** *  the byte count transferred so far.
 710:Generated_Source\PSoC4/Display_I2C_I2C_MASTER.c **** *
 711:Generated_Source\PSoC4/Display_I2C_I2C_MASTER.c **** * \sideeffect
 712:Generated_Source\PSoC4/Display_I2C_I2C_MASTER.c **** *  This function returns not valid value if
 713:Generated_Source\PSoC4/Display_I2C_I2C_MASTER.c **** *  Display_I2C_I2C_MSTAT_ERR_ARB_LOST or
 714:Generated_Source\PSoC4/Display_I2C_I2C_MASTER.c **** *  Display_I2C_I2C_MSTAT_ERR_BUS_ERROR occurred while read transfer.
 715:Generated_Source\PSoC4/Display_I2C_I2C_MASTER.c **** *
ARM GAS  C:\Users\VIDEOH~1\AppData\Local\Temp\ccKwza2q.s 			page 14


 716:Generated_Source\PSoC4/Display_I2C_I2C_MASTER.c **** * \globalvars
 717:Generated_Source\PSoC4/Display_I2C_I2C_MASTER.c **** *  Display_I2C_mstrRdBufIndex - used to current index within master read
 718:Generated_Source\PSoC4/Display_I2C_I2C_MASTER.c **** *  buffer.
 719:Generated_Source\PSoC4/Display_I2C_I2C_MASTER.c **** *
 720:Generated_Source\PSoC4/Display_I2C_I2C_MASTER.c **** *******************************************************************************/
 721:Generated_Source\PSoC4/Display_I2C_I2C_MASTER.c **** uint32 Display_I2C_I2CMasterGetReadBufSize(void)
 722:Generated_Source\PSoC4/Display_I2C_I2C_MASTER.c **** {
 723:Generated_Source\PSoC4/Display_I2C_I2C_MASTER.c ****     return(Display_I2C_mstrRdBufIndex);
 724:Generated_Source\PSoC4/Display_I2C_I2C_MASTER.c **** }
 725:Generated_Source\PSoC4/Display_I2C_I2C_MASTER.c **** 
 726:Generated_Source\PSoC4/Display_I2C_I2C_MASTER.c **** 
 727:Generated_Source\PSoC4/Display_I2C_I2C_MASTER.c **** /*******************************************************************************
 728:Generated_Source\PSoC4/Display_I2C_I2C_MASTER.c **** * Function Name: Display_I2C_I2CMasterGetWriteBufSize
 729:Generated_Source\PSoC4/Display_I2C_I2C_MASTER.c **** ****************************************************************************//**
 730:Generated_Source\PSoC4/Display_I2C_I2C_MASTER.c **** *
 731:Generated_Source\PSoC4/Display_I2C_I2C_MASTER.c **** *  Returns the number of bytes that have been transferred with an
 732:Generated_Source\PSoC4/Display_I2C_I2C_MASTER.c **** *  SCB_I2CMasterWriteBuf() function.
 733:Generated_Source\PSoC4/Display_I2C_I2C_MASTER.c **** *
 734:Generated_Source\PSoC4/Display_I2C_I2C_MASTER.c **** * \return
 735:Generated_Source\PSoC4/Display_I2C_I2C_MASTER.c **** *   Byte count of transfer. If the transfer is not yet complete, it returns
 736:Generated_Source\PSoC4/Display_I2C_I2C_MASTER.c **** *   zero unit transfer completion.
 737:Generated_Source\PSoC4/Display_I2C_I2C_MASTER.c **** *
 738:Generated_Source\PSoC4/Display_I2C_I2C_MASTER.c **** * \sideeffect
 739:Generated_Source\PSoC4/Display_I2C_I2C_MASTER.c **** *   This function returns not valid value if
 740:Generated_Source\PSoC4/Display_I2C_I2C_MASTER.c **** *   Display_I2C_I2C_MSTAT_ERR_ARB_LOST or
 741:Generated_Source\PSoC4/Display_I2C_I2C_MASTER.c **** *   Display_I2C_I2C_MSTAT_ERR_BUS_ERROR occurred while read transfer.
 742:Generated_Source\PSoC4/Display_I2C_I2C_MASTER.c **** *
 743:Generated_Source\PSoC4/Display_I2C_I2C_MASTER.c **** * \globalvars
 744:Generated_Source\PSoC4/Display_I2C_I2C_MASTER.c **** *  Display_I2C_mstrWrBufIndex - used to current index within master write
 745:Generated_Source\PSoC4/Display_I2C_I2C_MASTER.c **** *  buffer.
 746:Generated_Source\PSoC4/Display_I2C_I2C_MASTER.c **** *
 747:Generated_Source\PSoC4/Display_I2C_I2C_MASTER.c **** *******************************************************************************/
 748:Generated_Source\PSoC4/Display_I2C_I2C_MASTER.c **** uint32 Display_I2C_I2CMasterGetWriteBufSize(void)
 749:Generated_Source\PSoC4/Display_I2C_I2C_MASTER.c **** {
 750:Generated_Source\PSoC4/Display_I2C_I2C_MASTER.c ****     return(Display_I2C_mstrWrBufIndex);
 751:Generated_Source\PSoC4/Display_I2C_I2C_MASTER.c **** }
 752:Generated_Source\PSoC4/Display_I2C_I2C_MASTER.c **** 
 753:Generated_Source\PSoC4/Display_I2C_I2C_MASTER.c **** 
 754:Generated_Source\PSoC4/Display_I2C_I2C_MASTER.c **** /*******************************************************************************
 755:Generated_Source\PSoC4/Display_I2C_I2C_MASTER.c **** * Function Name: Display_I2C_I2CMasterClearReadBuf
 756:Generated_Source\PSoC4/Display_I2C_I2C_MASTER.c **** ****************************************************************************//**
 757:Generated_Source\PSoC4/Display_I2C_I2C_MASTER.c **** *
 758:Generated_Source\PSoC4/Display_I2C_I2C_MASTER.c **** *  Resets the read buffer pointer back to the first byte in the buffer.
 759:Generated_Source\PSoC4/Display_I2C_I2C_MASTER.c **** *
 760:Generated_Source\PSoC4/Display_I2C_I2C_MASTER.c **** * \globalvars
 761:Generated_Source\PSoC4/Display_I2C_I2C_MASTER.c **** *  Display_I2C_mstrRdBufIndex - used to current index within master read
 762:Generated_Source\PSoC4/Display_I2C_I2C_MASTER.c **** *   buffer.
 763:Generated_Source\PSoC4/Display_I2C_I2C_MASTER.c **** *  Display_I2C_mstrStatus - used to store current status of I2C Master.
 764:Generated_Source\PSoC4/Display_I2C_I2C_MASTER.c **** *
 765:Generated_Source\PSoC4/Display_I2C_I2C_MASTER.c **** *******************************************************************************/
 766:Generated_Source\PSoC4/Display_I2C_I2C_MASTER.c **** void Display_I2C_I2CMasterClearReadBuf(void)
 767:Generated_Source\PSoC4/Display_I2C_I2C_MASTER.c **** {
 768:Generated_Source\PSoC4/Display_I2C_I2C_MASTER.c ****     Display_I2C_DisableInt();  /* Lock from interruption */
 769:Generated_Source\PSoC4/Display_I2C_I2C_MASTER.c **** 
 770:Generated_Source\PSoC4/Display_I2C_I2C_MASTER.c ****     Display_I2C_mstrRdBufIndex = 0u;
 771:Generated_Source\PSoC4/Display_I2C_I2C_MASTER.c ****     Display_I2C_mstrStatus    &= (uint16) ~Display_I2C_I2C_MSTAT_RD_CMPLT;
 772:Generated_Source\PSoC4/Display_I2C_I2C_MASTER.c **** 
ARM GAS  C:\Users\VIDEOH~1\AppData\Local\Temp\ccKwza2q.s 			page 15


 773:Generated_Source\PSoC4/Display_I2C_I2C_MASTER.c ****     Display_I2C_EnableInt();   /* Release lock */
 774:Generated_Source\PSoC4/Display_I2C_I2C_MASTER.c **** }
 775:Generated_Source\PSoC4/Display_I2C_I2C_MASTER.c **** 
 776:Generated_Source\PSoC4/Display_I2C_I2C_MASTER.c **** 
 777:Generated_Source\PSoC4/Display_I2C_I2C_MASTER.c **** /*******************************************************************************
 778:Generated_Source\PSoC4/Display_I2C_I2C_MASTER.c **** * Function Name: Display_I2C_I2CMasterClearWriteBuf
 779:Generated_Source\PSoC4/Display_I2C_I2C_MASTER.c **** ****************************************************************************//**
 780:Generated_Source\PSoC4/Display_I2C_I2C_MASTER.c **** *
 781:Generated_Source\PSoC4/Display_I2C_I2C_MASTER.c **** *  Resets the write buffer pointer back to the first byte in the buffer.
 782:Generated_Source\PSoC4/Display_I2C_I2C_MASTER.c **** *
 783:Generated_Source\PSoC4/Display_I2C_I2C_MASTER.c **** * \globalvars
 784:Generated_Source\PSoC4/Display_I2C_I2C_MASTER.c **** *  Display_I2C_mstrRdBufIndex - used to current index within master read
 785:Generated_Source\PSoC4/Display_I2C_I2C_MASTER.c **** *   buffer.
 786:Generated_Source\PSoC4/Display_I2C_I2C_MASTER.c **** *  Display_I2C_mstrStatus - used to store current status of I2C Master.
 787:Generated_Source\PSoC4/Display_I2C_I2C_MASTER.c **** *
 788:Generated_Source\PSoC4/Display_I2C_I2C_MASTER.c **** *******************************************************************************/
 789:Generated_Source\PSoC4/Display_I2C_I2C_MASTER.c **** void Display_I2C_I2CMasterClearWriteBuf(void)
 790:Generated_Source\PSoC4/Display_I2C_I2C_MASTER.c **** {
 791:Generated_Source\PSoC4/Display_I2C_I2C_MASTER.c ****     Display_I2C_DisableInt();  /* Lock from interruption */
 792:Generated_Source\PSoC4/Display_I2C_I2C_MASTER.c **** 
 793:Generated_Source\PSoC4/Display_I2C_I2C_MASTER.c ****     Display_I2C_mstrWrBufIndex = 0u;
 794:Generated_Source\PSoC4/Display_I2C_I2C_MASTER.c ****     Display_I2C_mstrStatus    &= (uint16) ~Display_I2C_I2C_MSTAT_WR_CMPLT;
 795:Generated_Source\PSoC4/Display_I2C_I2C_MASTER.c **** 
 796:Generated_Source\PSoC4/Display_I2C_I2C_MASTER.c ****     Display_I2C_EnableInt();   /* Release lock */
 797:Generated_Source\PSoC4/Display_I2C_I2C_MASTER.c **** }
 798:Generated_Source\PSoC4/Display_I2C_I2C_MASTER.c **** 
 799:Generated_Source\PSoC4/Display_I2C_I2C_MASTER.c **** 
 800:Generated_Source\PSoC4/Display_I2C_I2C_MASTER.c **** /*******************************************************************************
 801:Generated_Source\PSoC4/Display_I2C_I2C_MASTER.c **** * Function Name: Display_I2C_I2CMasterStatus
 802:Generated_Source\PSoC4/Display_I2C_I2C_MASTER.c **** ****************************************************************************//**
 803:Generated_Source\PSoC4/Display_I2C_I2C_MASTER.c **** *
 804:Generated_Source\PSoC4/Display_I2C_I2C_MASTER.c **** *  Returns the master's communication status.
 805:Generated_Source\PSoC4/Display_I2C_I2C_MASTER.c **** *
 806:Generated_Source\PSoC4/Display_I2C_I2C_MASTER.c **** * \return
 807:Generated_Source\PSoC4/Display_I2C_I2C_MASTER.c **** *  Current status of I2C master. This status incorporates status constants.
 808:Generated_Source\PSoC4/Display_I2C_I2C_MASTER.c **** *  Each constant is a bit field value. The value returned may have multiple
 809:Generated_Source\PSoC4/Display_I2C_I2C_MASTER.c **** *  bits set to indicate the status of the read or write transfer.
 810:Generated_Source\PSoC4/Display_I2C_I2C_MASTER.c **** *  - Display_I2C_I2C_MSTAT_RD_CMPLT - Read transfer complete.
 811:Generated_Source\PSoC4/Display_I2C_I2C_MASTER.c **** *    The error condition status bits must be checked to ensure that
 812:Generated_Source\PSoC4/Display_I2C_I2C_MASTER.c **** *    read transfer was completed successfully.
 813:Generated_Source\PSoC4/Display_I2C_I2C_MASTER.c **** *  - Display_I2C_I2C_MSTAT_WR_CMPLT - Write transfer complete.
 814:Generated_Source\PSoC4/Display_I2C_I2C_MASTER.c **** *    The error condition status bits must be checked to ensure that write
 815:Generated_Source\PSoC4/Display_I2C_I2C_MASTER.c **** *    transfer was completed successfully.
 816:Generated_Source\PSoC4/Display_I2C_I2C_MASTER.c **** *  - Display_I2C_I2C_MSTAT_XFER_INP - Transfer in progress.
 817:Generated_Source\PSoC4/Display_I2C_I2C_MASTER.c **** *  - Display_I2C_I2C_MSTAT_XFER_HALT - Transfer has been halted.
 818:Generated_Source\PSoC4/Display_I2C_I2C_MASTER.c **** *    The I2C bus is waiting for ReStart or Stop condition generation.
 819:Generated_Source\PSoC4/Display_I2C_I2C_MASTER.c **** *  - Display_I2C_I2C_MSTAT_ERR_SHORT_XFER - Error condition: Write
 820:Generated_Source\PSoC4/Display_I2C_I2C_MASTER.c **** *    transfer completed before all bytes were transferred. The slave NAKed
 821:Generated_Source\PSoC4/Display_I2C_I2C_MASTER.c **** *    the byte which was expected to be ACKed.
 822:Generated_Source\PSoC4/Display_I2C_I2C_MASTER.c **** *  - Display_I2C_I2C_MSTAT_ERR_ADDR_NAK - Error condition: Slave did
 823:Generated_Source\PSoC4/Display_I2C_I2C_MASTER.c **** *    not acknowledge address.
 824:Generated_Source\PSoC4/Display_I2C_I2C_MASTER.c **** *  - Display_I2C_I2C_MSTAT_ERR_ARB_LOST - Error condition: Master lost
 825:Generated_Source\PSoC4/Display_I2C_I2C_MASTER.c **** *    arbitration during communications with slave.
 826:Generated_Source\PSoC4/Display_I2C_I2C_MASTER.c **** *  - Display_I2C_I2C_MSTAT_ERR_BUS_ERROR - Error condition: bus error
 827:Generated_Source\PSoC4/Display_I2C_I2C_MASTER.c **** *    occurred during master transfer due to misplaced Start or Stop
 828:Generated_Source\PSoC4/Display_I2C_I2C_MASTER.c **** *    condition on the bus.
 829:Generated_Source\PSoC4/Display_I2C_I2C_MASTER.c **** *  - Display_I2C_I2C_MSTAT_ERR_ABORT_XFER - Error condition: Slave was
ARM GAS  C:\Users\VIDEOH~1\AppData\Local\Temp\ccKwza2q.s 			page 16


 830:Generated_Source\PSoC4/Display_I2C_I2C_MASTER.c **** *    addressed by another master while master performed the start condition
 831:Generated_Source\PSoC4/Display_I2C_I2C_MASTER.c **** *    generation. As a result, master has automatically switched to slave
 832:Generated_Source\PSoC4/Display_I2C_I2C_MASTER.c **** *    mode and is responding. The master transaction has not taken place
 833:Generated_Source\PSoC4/Display_I2C_I2C_MASTER.c **** *    This error condition only applicable for Multi-Master-Slave mode.
 834:Generated_Source\PSoC4/Display_I2C_I2C_MASTER.c **** *  - Display_I2C_I2C_MSTAT_ERR_XFER - Error condition: This is the
 835:Generated_Source\PSoC4/Display_I2C_I2C_MASTER.c **** *    ORed value of all error conditions provided above.
 836:Generated_Source\PSoC4/Display_I2C_I2C_MASTER.c **** *
 837:Generated_Source\PSoC4/Display_I2C_I2C_MASTER.c **** * \globalvars
 838:Generated_Source\PSoC4/Display_I2C_I2C_MASTER.c **** *  Display_I2C_mstrStatus - used to store current status of I2C Master.
 839:Generated_Source\PSoC4/Display_I2C_I2C_MASTER.c **** *
 840:Generated_Source\PSoC4/Display_I2C_I2C_MASTER.c **** *******************************************************************************/
 841:Generated_Source\PSoC4/Display_I2C_I2C_MASTER.c **** uint32 Display_I2C_I2CMasterStatus(void)
 842:Generated_Source\PSoC4/Display_I2C_I2C_MASTER.c **** {
 843:Generated_Source\PSoC4/Display_I2C_I2C_MASTER.c ****     uint32 status;
 844:Generated_Source\PSoC4/Display_I2C_I2C_MASTER.c **** 
 845:Generated_Source\PSoC4/Display_I2C_I2C_MASTER.c ****     Display_I2C_DisableInt();  /* Lock from interruption */
 846:Generated_Source\PSoC4/Display_I2C_I2C_MASTER.c **** 
 847:Generated_Source\PSoC4/Display_I2C_I2C_MASTER.c ****     status = (uint32) Display_I2C_mstrStatus;
 848:Generated_Source\PSoC4/Display_I2C_I2C_MASTER.c **** 
 849:Generated_Source\PSoC4/Display_I2C_I2C_MASTER.c ****     if (Display_I2C_CHECK_I2C_MASTER_ACTIVE)
 850:Generated_Source\PSoC4/Display_I2C_I2C_MASTER.c ****     {
 851:Generated_Source\PSoC4/Display_I2C_I2C_MASTER.c ****         /* Add status of master pending transaction: MSTAT_XFER_INP */
 852:Generated_Source\PSoC4/Display_I2C_I2C_MASTER.c ****         status |= (uint32) Display_I2C_I2C_MSTAT_XFER_INP;
 853:Generated_Source\PSoC4/Display_I2C_I2C_MASTER.c ****     }
 854:Generated_Source\PSoC4/Display_I2C_I2C_MASTER.c **** 
 855:Generated_Source\PSoC4/Display_I2C_I2C_MASTER.c ****     Display_I2C_EnableInt();   /* Release lock */
 856:Generated_Source\PSoC4/Display_I2C_I2C_MASTER.c **** 
 857:Generated_Source\PSoC4/Display_I2C_I2C_MASTER.c ****     return(status);
 858:Generated_Source\PSoC4/Display_I2C_I2C_MASTER.c **** }
 859:Generated_Source\PSoC4/Display_I2C_I2C_MASTER.c **** 
 860:Generated_Source\PSoC4/Display_I2C_I2C_MASTER.c **** 
 861:Generated_Source\PSoC4/Display_I2C_I2C_MASTER.c **** /*******************************************************************************
 862:Generated_Source\PSoC4/Display_I2C_I2C_MASTER.c **** * Function Name: Display_I2C_I2CMasterClearStatus
 863:Generated_Source\PSoC4/Display_I2C_I2C_MASTER.c **** ****************************************************************************//**
 864:Generated_Source\PSoC4/Display_I2C_I2C_MASTER.c **** *
 865:Generated_Source\PSoC4/Display_I2C_I2C_MASTER.c **** *  Clears all status flags and returns the master status.
 866:Generated_Source\PSoC4/Display_I2C_I2C_MASTER.c **** *
 867:Generated_Source\PSoC4/Display_I2C_I2C_MASTER.c **** * \return
 868:Generated_Source\PSoC4/Display_I2C_I2C_MASTER.c **** *  Current status of master. See the Display_I2C_I2CMasterStatus()
 869:Generated_Source\PSoC4/Display_I2C_I2C_MASTER.c **** *  function for constants.
 870:Generated_Source\PSoC4/Display_I2C_I2C_MASTER.c **** *
 871:Generated_Source\PSoC4/Display_I2C_I2C_MASTER.c **** * \globalvars
 872:Generated_Source\PSoC4/Display_I2C_I2C_MASTER.c **** *  Display_I2C_mstrStatus - used to store current status of I2C Master.
 873:Generated_Source\PSoC4/Display_I2C_I2C_MASTER.c **** *
 874:Generated_Source\PSoC4/Display_I2C_I2C_MASTER.c **** *******************************************************************************/
 875:Generated_Source\PSoC4/Display_I2C_I2C_MASTER.c **** uint32 Display_I2C_I2CMasterClearStatus(void)
 876:Generated_Source\PSoC4/Display_I2C_I2C_MASTER.c **** {
 877:Generated_Source\PSoC4/Display_I2C_I2C_MASTER.c ****     uint32 status;
 878:Generated_Source\PSoC4/Display_I2C_I2C_MASTER.c **** 
 879:Generated_Source\PSoC4/Display_I2C_I2C_MASTER.c ****     Display_I2C_DisableInt();  /* Lock from interruption */
 880:Generated_Source\PSoC4/Display_I2C_I2C_MASTER.c **** 
 881:Generated_Source\PSoC4/Display_I2C_I2C_MASTER.c ****     /* Read and clear master status */
 882:Generated_Source\PSoC4/Display_I2C_I2C_MASTER.c ****     status = (uint32) Display_I2C_mstrStatus;
 883:Generated_Source\PSoC4/Display_I2C_I2C_MASTER.c ****     Display_I2C_mstrStatus = Display_I2C_I2C_MSTAT_CLEAR;
 884:Generated_Source\PSoC4/Display_I2C_I2C_MASTER.c **** 
 885:Generated_Source\PSoC4/Display_I2C_I2C_MASTER.c ****     Display_I2C_EnableInt();   /* Release lock */
 886:Generated_Source\PSoC4/Display_I2C_I2C_MASTER.c **** 
ARM GAS  C:\Users\VIDEOH~1\AppData\Local\Temp\ccKwza2q.s 			page 17


 887:Generated_Source\PSoC4/Display_I2C_I2C_MASTER.c ****     return(status);
 888:Generated_Source\PSoC4/Display_I2C_I2C_MASTER.c **** }
 889:Generated_Source\PSoC4/Display_I2C_I2C_MASTER.c **** 
 890:Generated_Source\PSoC4/Display_I2C_I2C_MASTER.c **** 
 891:Generated_Source\PSoC4/Display_I2C_I2C_MASTER.c **** /*******************************************************************************
 892:Generated_Source\PSoC4/Display_I2C_I2C_MASTER.c **** * Function Name: Display_I2C_I2CReStartGeneration
 893:Generated_Source\PSoC4/Display_I2C_I2C_MASTER.c **** ****************************************************************************//**
 894:Generated_Source\PSoC4/Display_I2C_I2C_MASTER.c **** *
 895:Generated_Source\PSoC4/Display_I2C_I2C_MASTER.c **** *  Generates a ReStart condition:
 896:Generated_Source\PSoC4/Display_I2C_I2C_MASTER.c **** *  - SCB IP V1 and later: Generates ReStart using the scb IP functionality
 897:Generated_Source\PSoC4/Display_I2C_I2C_MASTER.c **** *    Sets the I2C_MASTER_CMD_M_START and I2C_MASTER_CMD_M_NACK (if the previous
 898:Generated_Source\PSoC4/Display_I2C_I2C_MASTER.c **** *    transaction was read) bits in the SCB.I2C_MASTER_CMD register.
 899:Generated_Source\PSoC4/Display_I2C_I2C_MASTER.c **** *    This combination forces the master to generate ReStart.
 900:Generated_Source\PSoC4/Display_I2C_I2C_MASTER.c **** *
 901:Generated_Source\PSoC4/Display_I2C_I2C_MASTER.c **** *  - SCB IP V0: Generates Restart using the GPIO and scb IP functionality.
 902:Generated_Source\PSoC4/Display_I2C_I2C_MASTER.c **** *    After the master completes write or read, the SCL is stretched.
 903:Generated_Source\PSoC4/Display_I2C_I2C_MASTER.c **** *    The master waits until SDA line is released by the slave. Then the GPIO
 904:Generated_Source\PSoC4/Display_I2C_I2C_MASTER.c **** *    function is enabled and the scb IP disabled as it already does not drive
 905:Generated_Source\PSoC4/Display_I2C_I2C_MASTER.c **** *    the bus. In case of the previous transfer was read, the NACK is generated
 906:Generated_Source\PSoC4/Display_I2C_I2C_MASTER.c **** *    by the GPIO. The delay of tLOW is added to manage the hold time.
 907:Generated_Source\PSoC4/Display_I2C_I2C_MASTER.c **** *    Set I2C_M_CMD.START and enable the scb IP. The ReStart generation
 908:Generated_Source\PSoC4/Display_I2C_I2C_MASTER.c **** *    is started after the I2C function is enabled for the SCL.
 909:Generated_Source\PSoC4/Display_I2C_I2C_MASTER.c **** *    Note1: the scb IP due re-enable generates Start but on the I2C bus it
 910:Generated_Source\PSoC4/Display_I2C_I2C_MASTER.c **** *           appears as ReStart.
 911:Generated_Source\PSoC4/Display_I2C_I2C_MASTER.c **** *    Note2: the I2C_M_CMD.START is queued if scb IP is disabled.
 912:Generated_Source\PSoC4/Display_I2C_I2C_MASTER.c **** *    Note3: the I2C_STATUS_M_READ is cleared is address was NACKed before.
 913:Generated_Source\PSoC4/Display_I2C_I2C_MASTER.c **** *
 914:Generated_Source\PSoC4/Display_I2C_I2C_MASTER.c **** * \sideeffect
 915:Generated_Source\PSoC4/Display_I2C_I2C_MASTER.c **** *  SCB IP V0: The NACK generation by the GPIO may cause a greater SCL period
 916:Generated_Source\PSoC4/Display_I2C_I2C_MASTER.c **** *             than expected for the selected master data rate.
 917:Generated_Source\PSoC4/Display_I2C_I2C_MASTER.c **** *
 918:Generated_Source\PSoC4/Display_I2C_I2C_MASTER.c **** *******************************************************************************/
 919:Generated_Source\PSoC4/Display_I2C_I2C_MASTER.c **** void Display_I2C_I2CReStartGeneration(void)
 920:Generated_Source\PSoC4/Display_I2C_I2C_MASTER.c **** {
 921:Generated_Source\PSoC4/Display_I2C_I2C_MASTER.c **** #if(Display_I2C_CY_SCBIP_V0)
 922:Generated_Source\PSoC4/Display_I2C_I2C_MASTER.c ****     /* Generates Restart use GPIO and scb IP functionality. Ticket ID#143715,
 923:Generated_Source\PSoC4/Display_I2C_I2C_MASTER.c ****     * ID#145238 and ID#173656.
 924:Generated_Source\PSoC4/Display_I2C_I2C_MASTER.c ****     * In case of timeout the Display_I2C_I2CMasterSendRestart handles this
 925:Generated_Source\PSoC4/Display_I2C_I2C_MASTER.c ****     * case using own timeout and execute appropriate recovery.
 926:Generated_Source\PSoC4/Display_I2C_I2C_MASTER.c ****     */
 927:Generated_Source\PSoC4/Display_I2C_I2C_MASTER.c **** 
 928:Generated_Source\PSoC4/Display_I2C_I2C_MASTER.c ****     const uint16 oneUnit = 1u;
 929:Generated_Source\PSoC4/Display_I2C_I2C_MASTER.c ****     uint32 timeout = Display_I2C_I2C_PHASE_GEN_TIMEOUT;
 930:Generated_Source\PSoC4/Display_I2C_I2C_MASTER.c **** 
 931:Generated_Source\PSoC4/Display_I2C_I2C_MASTER.c ****     /* Store direction of transfer */
 932:Generated_Source\PSoC4/Display_I2C_I2C_MASTER.c ****     uint32 readDirection = Display_I2C_I2C_STATUS_REG & Display_I2C_I2C_STATUS_M_READ;
 933:Generated_Source\PSoC4/Display_I2C_I2C_MASTER.c **** 
 934:Generated_Source\PSoC4/Display_I2C_I2C_MASTER.c ****     /* Wait until slave releases SDA line: SCL tHIGH is complete */
 935:Generated_Source\PSoC4/Display_I2C_I2C_MASTER.c ****     while ((Display_I2C_WAIT_SDA_SET_HIGH) && (timeout > 0u))
 936:Generated_Source\PSoC4/Display_I2C_I2C_MASTER.c ****     {
 937:Generated_Source\PSoC4/Display_I2C_I2C_MASTER.c ****         CyDelayUs(oneUnit);
 938:Generated_Source\PSoC4/Display_I2C_I2C_MASTER.c ****         --timeout;
 939:Generated_Source\PSoC4/Display_I2C_I2C_MASTER.c ****     }
 940:Generated_Source\PSoC4/Display_I2C_I2C_MASTER.c **** 
 941:Generated_Source\PSoC4/Display_I2C_I2C_MASTER.c ****     if (timeout > 0u)
 942:Generated_Source\PSoC4/Display_I2C_I2C_MASTER.c ****     {
 943:Generated_Source\PSoC4/Display_I2C_I2C_MASTER.c ****         /* Refill timeout */
ARM GAS  C:\Users\VIDEOH~1\AppData\Local\Temp\ccKwza2q.s 			page 18


 944:Generated_Source\PSoC4/Display_I2C_I2C_MASTER.c ****         timeout = Display_I2C_I2C_PHASE_GEN_TIMEOUT;
 945:Generated_Source\PSoC4/Display_I2C_I2C_MASTER.c **** 
 946:Generated_Source\PSoC4/Display_I2C_I2C_MASTER.c ****         /* Drive SCL line use GPIO */
 947:Generated_Source\PSoC4/Display_I2C_I2C_MASTER.c ****         Display_I2C_SET_I2C_SCL_DR       (Display_I2C_I2C_SCL_LOW);
 948:Generated_Source\PSoC4/Display_I2C_I2C_MASTER.c ****         Display_I2C_SET_I2C_SCL_HSIOM_SEL(Display_I2C_HSIOM_GPIO_SEL);
 949:Generated_Source\PSoC4/Display_I2C_I2C_MASTER.c **** 
 950:Generated_Source\PSoC4/Display_I2C_I2C_MASTER.c ****         /* Disable SCB block */
 951:Generated_Source\PSoC4/Display_I2C_I2C_MASTER.c ****         Display_I2C_CTRL_REG &= (uint32) ~Display_I2C_CTRL_ENABLED;
 952:Generated_Source\PSoC4/Display_I2C_I2C_MASTER.c **** 
 953:Generated_Source\PSoC4/Display_I2C_I2C_MASTER.c ****         if (0u != readDirection)
 954:Generated_Source\PSoC4/Display_I2C_I2C_MASTER.c ****         {
 955:Generated_Source\PSoC4/Display_I2C_I2C_MASTER.c ****             /* Generate NACK for read transactions use GPIO functionality */
 956:Generated_Source\PSoC4/Display_I2C_I2C_MASTER.c **** 
 957:Generated_Source\PSoC4/Display_I2C_I2C_MASTER.c ****             /* Drive tLOW: SCL low phase */
 958:Generated_Source\PSoC4/Display_I2C_I2C_MASTER.c ****             Display_I2C_SET_I2C_SCL_DR(Display_I2C_I2C_SCL_LOW);
 959:Generated_Source\PSoC4/Display_I2C_I2C_MASTER.c ****             CyDelayUs(Display_I2C_I2C_TLOW_TIME);
 960:Generated_Source\PSoC4/Display_I2C_I2C_MASTER.c **** 
 961:Generated_Source\PSoC4/Display_I2C_I2C_MASTER.c ****             /* Drive tHIGH: SCL high phase */
 962:Generated_Source\PSoC4/Display_I2C_I2C_MASTER.c ****             Display_I2C_SET_I2C_SCL_DR(Display_I2C_I2C_SCL_HIGH);
 963:Generated_Source\PSoC4/Display_I2C_I2C_MASTER.c ****             CyDelayUs(Display_I2C_I2C_THIGH_TIME);
 964:Generated_Source\PSoC4/Display_I2C_I2C_MASTER.c **** 
 965:Generated_Source\PSoC4/Display_I2C_I2C_MASTER.c ****             /* Wait until slave releases SDA line: SCL tHIGH is complete */
 966:Generated_Source\PSoC4/Display_I2C_I2C_MASTER.c ****             while ((Display_I2C_WAIT_SCL_SET_HIGH) && (timeout > 0u))
 967:Generated_Source\PSoC4/Display_I2C_I2C_MASTER.c ****             {
 968:Generated_Source\PSoC4/Display_I2C_I2C_MASTER.c ****                 CyDelayUs(oneUnit);
 969:Generated_Source\PSoC4/Display_I2C_I2C_MASTER.c ****                 --timeout;
 970:Generated_Source\PSoC4/Display_I2C_I2C_MASTER.c ****             }
 971:Generated_Source\PSoC4/Display_I2C_I2C_MASTER.c ****         }
 972:Generated_Source\PSoC4/Display_I2C_I2C_MASTER.c **** 
 973:Generated_Source\PSoC4/Display_I2C_I2C_MASTER.c ****         if (timeout > 0u)
 974:Generated_Source\PSoC4/Display_I2C_I2C_MASTER.c ****         {
 975:Generated_Source\PSoC4/Display_I2C_I2C_MASTER.c ****             /* Drive tLOW: hold time for write and read */
 976:Generated_Source\PSoC4/Display_I2C_I2C_MASTER.c ****             Display_I2C_SET_I2C_SCL_DR(Display_I2C_I2C_SCL_LOW);
 977:Generated_Source\PSoC4/Display_I2C_I2C_MASTER.c ****             CyDelayUs(Display_I2C_I2C_TLOW_TIME);
 978:Generated_Source\PSoC4/Display_I2C_I2C_MASTER.c **** 
 979:Generated_Source\PSoC4/Display_I2C_I2C_MASTER.c ****             /* Set Start command, it will appear as ReStart on the bus */
 980:Generated_Source\PSoC4/Display_I2C_I2C_MASTER.c ****             Display_I2C_I2C_MASTER_CMD_REG  = Display_I2C_I2C_MASTER_CMD_M_START;
 981:Generated_Source\PSoC4/Display_I2C_I2C_MASTER.c ****         }
 982:Generated_Source\PSoC4/Display_I2C_I2C_MASTER.c **** 
 983:Generated_Source\PSoC4/Display_I2C_I2C_MASTER.c ****         /* Enable SCB block: ReStart will appear on the bus as soon as SCL
 984:Generated_Source\PSoC4/Display_I2C_I2C_MASTER.c ****         * configuration is restored and bus busy cleared.
 985:Generated_Source\PSoC4/Display_I2C_I2C_MASTER.c ****         */
 986:Generated_Source\PSoC4/Display_I2C_I2C_MASTER.c ****         Display_I2C_CTRL_REG |= Display_I2C_CTRL_ENABLED;
 987:Generated_Source\PSoC4/Display_I2C_I2C_MASTER.c **** 
 988:Generated_Source\PSoC4/Display_I2C_I2C_MASTER.c ****         /* Restore SCL configuration */
 989:Generated_Source\PSoC4/Display_I2C_I2C_MASTER.c ****         Display_I2C_SET_I2C_SCL_HSIOM_SEL(Display_I2C_HSIOM_I2C_SEL);
 990:Generated_Source\PSoC4/Display_I2C_I2C_MASTER.c ****         Display_I2C_SET_I2C_SCL_DR       (Display_I2C_I2C_SCL_HIGH);
 991:Generated_Source\PSoC4/Display_I2C_I2C_MASTER.c ****     }
 992:Generated_Source\PSoC4/Display_I2C_I2C_MASTER.c **** #else
 993:Generated_Source\PSoC4/Display_I2C_I2C_MASTER.c ****     uint32 cmd;
 994:Generated_Source\PSoC4/Display_I2C_I2C_MASTER.c **** 
 995:Generated_Source\PSoC4/Display_I2C_I2C_MASTER.c ****     /* Generates ReStart use scb IP functionality */
 996:Generated_Source\PSoC4/Display_I2C_I2C_MASTER.c ****     cmd  = Display_I2C_I2C_MASTER_CMD_M_START;
 997:Generated_Source\PSoC4/Display_I2C_I2C_MASTER.c ****     cmd |= Display_I2C_CHECK_I2C_STATUS(Display_I2C_I2C_STATUS_M_READ) ?
 998:Generated_Source\PSoC4/Display_I2C_I2C_MASTER.c ****                 (Display_I2C_I2C_MASTER_CMD_M_NACK) : (0u);
 999:Generated_Source\PSoC4/Display_I2C_I2C_MASTER.c **** 
1000:Generated_Source\PSoC4/Display_I2C_I2C_MASTER.c ****     Display_I2C_I2C_MASTER_CMD_REG = cmd;
ARM GAS  C:\Users\VIDEOH~1\AppData\Local\Temp\ccKwza2q.s 			page 19


1001:Generated_Source\PSoC4/Display_I2C_I2C_MASTER.c **** #endif /* (Display_I2C_CY_SCBIP_V1) */
1002:Generated_Source\PSoC4/Display_I2C_I2C_MASTER.c **** }
1003:Generated_Source\PSoC4/Display_I2C_I2C_MASTER.c **** 
1004:Generated_Source\PSoC4/Display_I2C_I2C_MASTER.c **** #endif /* (Display_I2C_I2C_MASTER_CONST) */
1005:Generated_Source\PSoC4/Display_I2C_I2C_MASTER.c **** 
1006:Generated_Source\PSoC4/Display_I2C_I2C_MASTER.c **** 
1007:Generated_Source\PSoC4/Display_I2C_I2C_MASTER.c **** #if (!Display_I2C_CY_SCBIP_V0 && \
1008:Generated_Source\PSoC4/Display_I2C_I2C_MASTER.c ****     Display_I2C_I2C_MULTI_MASTER_SLAVE_CONST && Display_I2C_I2C_WAKE_ENABLE_CONST)
1009:Generated_Source\PSoC4/Display_I2C_I2C_MASTER.c ****     /*******************************************************************************
1010:Generated_Source\PSoC4/Display_I2C_I2C_MASTER.c ****     * Function Name: Display_I2C_I2CMasterDisableEcAm
1011:Generated_Source\PSoC4/Display_I2C_I2C_MASTER.c ****     ****************************************************************************//**
1012:Generated_Source\PSoC4/Display_I2C_I2C_MASTER.c ****     *
1013:Generated_Source\PSoC4/Display_I2C_I2C_MASTER.c ****     *  Disables externally clocked address match logic to enable master operation
1014:Generated_Source\PSoC4/Display_I2C_I2C_MASTER.c ****     *  in active mode.
1015:Generated_Source\PSoC4/Display_I2C_I2C_MASTER.c ****     *
1016:Generated_Source\PSoC4/Display_I2C_I2C_MASTER.c ****     *******************************************************************************/
1017:Generated_Source\PSoC4/Display_I2C_I2C_MASTER.c ****     static void Display_I2C_I2CMasterDisableEcAm(void)
1018:Generated_Source\PSoC4/Display_I2C_I2C_MASTER.c ****     {
1019:Generated_Source\PSoC4/Display_I2C_I2C_MASTER.c ****         /* Disables externally clocked address match logic to enable master operation
1020:Generated_Source\PSoC4/Display_I2C_I2C_MASTER.c ****         * in active mode. This applicable only for Multi-Master-Slave when wakeup is
1021:Generated_Source\PSoC4/Display_I2C_I2C_MASTER.c ****         * enabled. Ticket ID#192742.
1022:Generated_Source\PSoC4/Display_I2C_I2C_MASTER.c ****         */
1023:Generated_Source\PSoC4/Display_I2C_I2C_MASTER.c ****         if (0u != (Display_I2C_CTRL_REG & Display_I2C_CTRL_EC_AM_MODE))
1024:Generated_Source\PSoC4/Display_I2C_I2C_MASTER.c ****         {
1025:Generated_Source\PSoC4/Display_I2C_I2C_MASTER.c ****             /* Enable external address match logic */
1026:Generated_Source\PSoC4/Display_I2C_I2C_MASTER.c ****             Display_I2C_Stop();
1027:Generated_Source\PSoC4/Display_I2C_I2C_MASTER.c ****             Display_I2C_CTRL_REG &= (uint32) ~Display_I2C_CTRL_EC_AM_MODE;
1028:Generated_Source\PSoC4/Display_I2C_I2C_MASTER.c ****             Display_I2C_Enable();
1029:Generated_Source\PSoC4/Display_I2C_I2C_MASTER.c ****         }
1030:Generated_Source\PSoC4/Display_I2C_I2C_MASTER.c ****     }
1031:Generated_Source\PSoC4/Display_I2C_I2C_MASTER.c **** #endif /* (!Display_I2C_CY_SCBIP_V0) */
1032:Generated_Source\PSoC4/Display_I2C_I2C_MASTER.c **** 
1033:Generated_Source\PSoC4/Display_I2C_I2C_MASTER.c **** 
1034:Generated_Source\PSoC4/Display_I2C_I2C_MASTER.c **** /*******************************************************************************
1035:Generated_Source\PSoC4/Display_I2C_I2C_MASTER.c **** * Function Name: Display_I2C_I2CMasterHandleStatus
1036:Generated_Source\PSoC4/Display_I2C_I2C_MASTER.c **** ****************************************************************************//**
1037:Generated_Source\PSoC4/Display_I2C_I2C_MASTER.c **** *
1038:Generated_Source\PSoC4/Display_I2C_I2C_MASTER.c **** * Converts hardware status to firmware status and executes required processing.
1039:Generated_Source\PSoC4/Display_I2C_I2C_MASTER.c **** *
1040:Generated_Source\PSoC4/Display_I2C_I2C_MASTER.c **** * \param status
1041:Generated_Source\PSoC4/Display_I2C_I2C_MASTER.c **** * Hardware I2C master status to handle. It also includes
1042:Generated_Source\PSoC4/Display_I2C_I2C_MASTER.c **** * Display_I2C_I2C_MASTER_TIMEOUT and Display_I2C_SLAVE_INTR_I2C_ADDR.
1043:Generated_Source\PSoC4/Display_I2C_I2C_MASTER.c **** *
1044:Generated_Source\PSoC4/Display_I2C_I2C_MASTER.c **** * \return
1045:Generated_Source\PSoC4/Display_I2C_I2C_MASTER.c **** * Error status.
1046:Generated_Source\PSoC4/Display_I2C_I2C_MASTER.c **** * See Display_I2C_I2CMasterSendStart() function for constants.
1047:Generated_Source\PSoC4/Display_I2C_I2C_MASTER.c **** *
1048:Generated_Source\PSoC4/Display_I2C_I2C_MASTER.c **** *******************************************************************************/
1049:Generated_Source\PSoC4/Display_I2C_I2C_MASTER.c **** static uint32 Display_I2C_I2CMasterHandleStatus(uint32 status)
1050:Generated_Source\PSoC4/Display_I2C_I2C_MASTER.c **** {
1051:Generated_Source\PSoC4/Display_I2C_I2C_MASTER.c ****     uint32 retStatus;
1052:Generated_Source\PSoC4/Display_I2C_I2C_MASTER.c ****     uint32 resetBlock = 0u;
1053:Generated_Source\PSoC4/Display_I2C_I2C_MASTER.c **** 
1054:Generated_Source\PSoC4/Display_I2C_I2C_MASTER.c ****     if (0u != (status & Display_I2C_I2C_MASTER_TIMEOUT))
1055:Generated_Source\PSoC4/Display_I2C_I2C_MASTER.c ****     {
1056:Generated_Source\PSoC4/Display_I2C_I2C_MASTER.c ****         retStatus  = Display_I2C_I2C_MASTER_TIMEOUT;
1057:Generated_Source\PSoC4/Display_I2C_I2C_MASTER.c ****         resetBlock = Display_I2C_I2C_RESET_ERROR;
ARM GAS  C:\Users\VIDEOH~1\AppData\Local\Temp\ccKwza2q.s 			page 20


1058:Generated_Source\PSoC4/Display_I2C_I2C_MASTER.c ****     }
1059:Generated_Source\PSoC4/Display_I2C_I2C_MASTER.c ****     else if (0u != (Display_I2C_SLAVE_INTR_I2C_ADDR & status))
1060:Generated_Source\PSoC4/Display_I2C_I2C_MASTER.c ****     {
1061:Generated_Source\PSoC4/Display_I2C_I2C_MASTER.c ****         /* Abort the master operation, the slave was addressed first */
1062:Generated_Source\PSoC4/Display_I2C_I2C_MASTER.c ****         retStatus = Display_I2C_I2C_MSTR_ERR_ABORT_START;
1063:Generated_Source\PSoC4/Display_I2C_I2C_MASTER.c **** 
1064:Generated_Source\PSoC4/Display_I2C_I2C_MASTER.c ****         Display_I2C_I2C_MASTER_CMD_REG = 0u;
1065:Generated_Source\PSoC4/Display_I2C_I2C_MASTER.c **** 
1066:Generated_Source\PSoC4/Display_I2C_I2C_MASTER.c ****         Display_I2C_state = Display_I2C_I2C_FSM_IDLE;
1067:Generated_Source\PSoC4/Display_I2C_I2C_MASTER.c ****     }
1068:Generated_Source\PSoC4/Display_I2C_I2C_MASTER.c ****     else if (0u != (status & Display_I2C_INTR_MASTER_I2C_ARB_LOST))
1069:Generated_Source\PSoC4/Display_I2C_I2C_MASTER.c ****     {
1070:Generated_Source\PSoC4/Display_I2C_I2C_MASTER.c ****         retStatus  = Display_I2C_I2C_MSTR_ERR_ARB_LOST;
1071:Generated_Source\PSoC4/Display_I2C_I2C_MASTER.c **** 
1072:Generated_Source\PSoC4/Display_I2C_I2C_MASTER.c ****         if (Display_I2C_CHECK_I2C_FSM_ADDR)
1073:Generated_Source\PSoC4/Display_I2C_I2C_MASTER.c ****         {
1074:Generated_Source\PSoC4/Display_I2C_I2C_MASTER.c ****             /* If slave is not enabled reset IP, otherwise give it a chance to match address */
1075:Generated_Source\PSoC4/Display_I2C_I2C_MASTER.c ****             if (0u == (Display_I2C_I2C_CTRL_REG & Display_I2C_I2C_CTRL_SLAVE_MODE))
1076:Generated_Source\PSoC4/Display_I2C_I2C_MASTER.c ****             {
1077:Generated_Source\PSoC4/Display_I2C_I2C_MASTER.c ****                 resetBlock = Display_I2C_I2C_RESET_ERROR;
1078:Generated_Source\PSoC4/Display_I2C_I2C_MASTER.c ****             }
1079:Generated_Source\PSoC4/Display_I2C_I2C_MASTER.c **** 
1080:Generated_Source\PSoC4/Display_I2C_I2C_MASTER.c ****             Display_I2C_state = Display_I2C_I2C_FSM_IDLE;
1081:Generated_Source\PSoC4/Display_I2C_I2C_MASTER.c ****         }
1082:Generated_Source\PSoC4/Display_I2C_I2C_MASTER.c ****         else
1083:Generated_Source\PSoC4/Display_I2C_I2C_MASTER.c ****         {
1084:Generated_Source\PSoC4/Display_I2C_I2C_MASTER.c ****             /* Reset IP block when on address stage */
1085:Generated_Source\PSoC4/Display_I2C_I2C_MASTER.c ****             resetBlock = Display_I2C_I2C_RESET_ERROR;
1086:Generated_Source\PSoC4/Display_I2C_I2C_MASTER.c ****         }
1087:Generated_Source\PSoC4/Display_I2C_I2C_MASTER.c ****     }
1088:Generated_Source\PSoC4/Display_I2C_I2C_MASTER.c ****     else if (0u != (status & Display_I2C_INTR_MASTER_I2C_BUS_ERROR))
1089:Generated_Source\PSoC4/Display_I2C_I2C_MASTER.c ****     {
1090:Generated_Source\PSoC4/Display_I2C_I2C_MASTER.c ****         retStatus  = Display_I2C_I2C_MSTR_ERR_BUS_ERR;
1091:Generated_Source\PSoC4/Display_I2C_I2C_MASTER.c ****         resetBlock = Display_I2C_I2C_RESET_ERROR;
1092:Generated_Source\PSoC4/Display_I2C_I2C_MASTER.c ****     }
1093:Generated_Source\PSoC4/Display_I2C_I2C_MASTER.c ****     else if (0u != (status & Display_I2C_INTR_MASTER_I2C_NACK))
1094:Generated_Source\PSoC4/Display_I2C_I2C_MASTER.c ****     {
1095:Generated_Source\PSoC4/Display_I2C_I2C_MASTER.c ****         retStatus = Display_I2C_I2C_MSTR_ERR_LB_NAK;
1096:Generated_Source\PSoC4/Display_I2C_I2C_MASTER.c ****     }
1097:Generated_Source\PSoC4/Display_I2C_I2C_MASTER.c ****     else /* Includes: INTR_MASTER_I2C_STOP and INTR_MASTER_I2C_ACK */
1098:Generated_Source\PSoC4/Display_I2C_I2C_MASTER.c ****     {
1099:Generated_Source\PSoC4/Display_I2C_I2C_MASTER.c ****         retStatus = Display_I2C_I2C_MSTR_NO_ERROR;
1100:Generated_Source\PSoC4/Display_I2C_I2C_MASTER.c **** 
1101:Generated_Source\PSoC4/Display_I2C_I2C_MASTER.c ****         if (0u != (status & Display_I2C_INTR_MASTER_I2C_STOP))
1102:Generated_Source\PSoC4/Display_I2C_I2C_MASTER.c ****         {
1103:Generated_Source\PSoC4/Display_I2C_I2C_MASTER.c ****             /* Stop: end of transaction, go to idle state */
1104:Generated_Source\PSoC4/Display_I2C_I2C_MASTER.c ****             Display_I2C_state = Display_I2C_I2C_FSM_IDLE;
1105:Generated_Source\PSoC4/Display_I2C_I2C_MASTER.c ****         }
1106:Generated_Source\PSoC4/Display_I2C_I2C_MASTER.c ****         else
1107:Generated_Source\PSoC4/Display_I2C_I2C_MASTER.c ****         {
1108:Generated_Source\PSoC4/Display_I2C_I2C_MASTER.c ****             /* ACK: continue transaction */
1109:Generated_Source\PSoC4/Display_I2C_I2C_MASTER.c ****             if (Display_I2C_CHECK_I2C_FSM_ADDR)
1110:Generated_Source\PSoC4/Display_I2C_I2C_MASTER.c ****             {
1111:Generated_Source\PSoC4/Display_I2C_I2C_MASTER.c ****                 /* Move from address state to data */
1112:Generated_Source\PSoC4/Display_I2C_I2C_MASTER.c ****                 Display_I2C_state = (Display_I2C_CHECK_I2C_FSM_RD) ?
1113:Generated_Source\PSoC4/Display_I2C_I2C_MASTER.c ****                                           Display_I2C_I2C_FSM_MSTR_RD_DATA : Display_I2C_I2C_FSM_MS
1114:Generated_Source\PSoC4/Display_I2C_I2C_MASTER.c ****             }
ARM GAS  C:\Users\VIDEOH~1\AppData\Local\Temp\ccKwza2q.s 			page 21


1115:Generated_Source\PSoC4/Display_I2C_I2C_MASTER.c ****         }
1116:Generated_Source\PSoC4/Display_I2C_I2C_MASTER.c ****     }
1117:Generated_Source\PSoC4/Display_I2C_I2C_MASTER.c **** 
1118:Generated_Source\PSoC4/Display_I2C_I2C_MASTER.c ****     if (Display_I2C_I2C_RESET_ERROR == resetBlock)
1119:Generated_Source\PSoC4/Display_I2C_I2C_MASTER.c ****     {
1120:Generated_Source\PSoC4/Display_I2C_I2C_MASTER.c ****         Display_I2C_I2CFwBlockReset();
1121:Generated_Source\PSoC4/Display_I2C_I2C_MASTER.c ****     }
1122:Generated_Source\PSoC4/Display_I2C_I2C_MASTER.c ****     else
1123:Generated_Source\PSoC4/Display_I2C_I2C_MASTER.c ****     {
1124:Generated_Source\PSoC4/Display_I2C_I2C_MASTER.c ****         Display_I2C_ClearMasterInterruptSource(Display_I2C_INTR_MASTER_ALL);
1125:Generated_Source\PSoC4/Display_I2C_I2C_MASTER.c ****     }
1126:Generated_Source\PSoC4/Display_I2C_I2C_MASTER.c **** 
1127:Generated_Source\PSoC4/Display_I2C_I2C_MASTER.c ****     return (retStatus);
1128:Generated_Source\PSoC4/Display_I2C_I2C_MASTER.c **** }
1129:Generated_Source\PSoC4/Display_I2C_I2C_MASTER.c **** 
1130:Generated_Source\PSoC4/Display_I2C_I2C_MASTER.c **** 
1131:Generated_Source\PSoC4/Display_I2C_I2C_MASTER.c **** /******************************************************************************
1132:Generated_Source\PSoC4/Display_I2C_I2C_MASTER.c **** * Function Name: I2CMasterWaitOneUnit
1133:Generated_Source\PSoC4/Display_I2C_I2C_MASTER.c **** ****************************************************************************//**
1134:Generated_Source\PSoC4/Display_I2C_I2C_MASTER.c **** *
1135:Generated_Source\PSoC4/Display_I2C_I2C_MASTER.c **** * Waits for one unit before unblock code execution.
1136:Generated_Source\PSoC4/Display_I2C_I2C_MASTER.c **** * Note If a timeout value is 0, this function does nothing and returns 0.
1137:Generated_Source\PSoC4/Display_I2C_I2C_MASTER.c **** *
1138:Generated_Source\PSoC4/Display_I2C_I2C_MASTER.c **** * \param timeout
1139:Generated_Source\PSoC4/Display_I2C_I2C_MASTER.c **** * The pointer to a timeout value.
1140:Generated_Source\PSoC4/Display_I2C_I2C_MASTER.c **** *
1141:Generated_Source\PSoC4/Display_I2C_I2C_MASTER.c **** * \return
1142:Generated_Source\PSoC4/Display_I2C_I2C_MASTER.c **** * Returns 0 if a timeout does not expire or the timeout mask.
1143:Generated_Source\PSoC4/Display_I2C_I2C_MASTER.c **** *
1144:Generated_Source\PSoC4/Display_I2C_I2C_MASTER.c **** *******************************************************************************/
1145:Generated_Source\PSoC4/Display_I2C_I2C_MASTER.c **** static uint32 Display_I2C_I2CMasterWaitOneUnit(uint32 *timeout)
1146:Generated_Source\PSoC4/Display_I2C_I2C_MASTER.c **** {
  27              		.loc 1 1146 0
  28              		.cfi_startproc
  29              		@ args = 0, pretend = 0, frame = 0
  30              		@ frame_needed = 0, uses_anonymous_args = 0
  31              	.LVL0:
  32 0000 10B5     		push	{r4, lr}
  33              		.cfi_def_cfa_offset 8
  34              		.cfi_offset 4, -8
  35              		.cfi_offset 14, -4
  36 0002 0400     		movs	r4, r0
  37              	.LVL1:
1147:Generated_Source\PSoC4/Display_I2C_I2C_MASTER.c ****     const uint16 oneUnit = 1u;
1148:Generated_Source\PSoC4/Display_I2C_I2C_MASTER.c ****     uint32 status = 0u;
1149:Generated_Source\PSoC4/Display_I2C_I2C_MASTER.c **** 
1150:Generated_Source\PSoC4/Display_I2C_I2C_MASTER.c ****     /* If the timeout equal to 0. Ignore the timeout */
1151:Generated_Source\PSoC4/Display_I2C_I2C_MASTER.c ****     if (*timeout > 0u)
  38              		.loc 1 1151 0
  39 0004 0368     		ldr	r3, [r0]
  40 0006 002B     		cmp	r3, #0
  41 0008 09D0     		beq	.L3
1152:Generated_Source\PSoC4/Display_I2C_I2C_MASTER.c ****     {
1153:Generated_Source\PSoC4/Display_I2C_I2C_MASTER.c ****         CyDelayUs(oneUnit);
  42              		.loc 1 1153 0
  43 000a 0120     		movs	r0, #1
  44              	.LVL2:
ARM GAS  C:\Users\VIDEOH~1\AppData\Local\Temp\ccKwza2q.s 			page 22


  45 000c FFF7FEFF 		bl	CyDelayUs
  46              	.LVL3:
1154:Generated_Source\PSoC4/Display_I2C_I2C_MASTER.c ****         --(*timeout);
  47              		.loc 1 1154 0
  48 0010 2368     		ldr	r3, [r4]
  49 0012 013B     		subs	r3, r3, #1
  50 0014 2360     		str	r3, [r4]
1155:Generated_Source\PSoC4/Display_I2C_I2C_MASTER.c **** 
1156:Generated_Source\PSoC4/Display_I2C_I2C_MASTER.c ****         if (0u == *timeout)
  51              		.loc 1 1156 0
  52 0016 002B     		cmp	r3, #0
  53 0018 03D0     		beq	.L4
1148:Generated_Source\PSoC4/Display_I2C_I2C_MASTER.c **** 
  54              		.loc 1 1148 0
  55 001a 0020     		movs	r0, #0
  56 001c 03E0     		b	.L2
  57              	.LVL4:
  58              	.L3:
  59 001e 0020     		movs	r0, #0
  60              	.LVL5:
  61 0020 01E0     		b	.L2
  62              	.L4:
1157:Generated_Source\PSoC4/Display_I2C_I2C_MASTER.c ****         {
1158:Generated_Source\PSoC4/Display_I2C_I2C_MASTER.c ****             status = Display_I2C_I2C_MASTER_TIMEOUT;
  63              		.loc 1 1158 0
  64 0022 8020     		movs	r0, #128
  65 0024 0006     		lsls	r0, r0, #24
  66              	.L2:
  67              	.LVL6:
1159:Generated_Source\PSoC4/Display_I2C_I2C_MASTER.c ****         }
1160:Generated_Source\PSoC4/Display_I2C_I2C_MASTER.c ****     }
1161:Generated_Source\PSoC4/Display_I2C_I2C_MASTER.c **** 
1162:Generated_Source\PSoC4/Display_I2C_I2C_MASTER.c ****     return (status);
1163:Generated_Source\PSoC4/Display_I2C_I2C_MASTER.c **** }
  68              		.loc 1 1163 0
  69              		@ sp needed
  70              	.LVL7:
  71 0026 10BD     		pop	{r4, pc}
  72              		.cfi_endproc
  73              	.LFE15:
  74              		.size	Display_I2C_I2CMasterWaitOneUnit, .-Display_I2C_I2CMasterWaitOneUnit
  75              		.section	.text.Display_I2C_I2CMasterHandleStatus,"ax",%progbits
  76              		.align	2
  77              		.code	16
  78              		.thumb_func
  79              		.type	Display_I2C_I2CMasterHandleStatus, %function
  80              	Display_I2C_I2CMasterHandleStatus:
  81              	.LFB14:
1050:Generated_Source\PSoC4/Display_I2C_I2C_MASTER.c ****     uint32 retStatus;
  82              		.loc 1 1050 0
  83              		.cfi_startproc
  84              		@ args = 0, pretend = 0, frame = 0
  85              		@ frame_needed = 0, uses_anonymous_args = 0
  86              	.LVL8:
  87 0000 10B5     		push	{r4, lr}
  88              		.cfi_def_cfa_offset 8
  89              		.cfi_offset 4, -8
ARM GAS  C:\Users\VIDEOH~1\AppData\Local\Temp\ccKwza2q.s 			page 23


  90              		.cfi_offset 14, -4
  91              	.LVL9:
1054:Generated_Source\PSoC4/Display_I2C_I2C_MASTER.c ****     {
  92              		.loc 1 1054 0
  93 0002 0028     		cmp	r0, #0
  94 0004 39DB     		blt	.L14
1059:Generated_Source\PSoC4/Display_I2C_I2C_MASTER.c ****     {
  95              		.loc 1 1059 0
  96 0006 C023     		movs	r3, #192
  97 0008 0342     		tst	r3, r0
  98 000a 08D0     		beq	.L7
  99              	.LVL10:
1064:Generated_Source\PSoC4/Display_I2C_I2C_MASTER.c **** 
 100              		.loc 1 1064 0
 101 000c 0022     		movs	r2, #0
 102 000e 284B     		ldr	r3, .L21
 103 0010 1A60     		str	r2, [r3]
1066:Generated_Source\PSoC4/Display_I2C_I2C_MASTER.c ****     }
 104              		.loc 1 1066 0
 105 0012 1032     		adds	r2, r2, #16
 106 0014 274B     		ldr	r3, .L21+4
 107 0016 1A70     		strb	r2, [r3]
1052:Generated_Source\PSoC4/Display_I2C_I2C_MASTER.c **** 
 108              		.loc 1 1052 0
 109 0018 0023     		movs	r3, #0
1062:Generated_Source\PSoC4/Display_I2C_I2C_MASTER.c **** 
 110              		.loc 1 1062 0
 111 001a 1024     		movs	r4, #16
 112 001c 3DE0     		b	.L6
 113              	.LVL11:
 114              	.L7:
1068:Generated_Source\PSoC4/Display_I2C_I2C_MASTER.c ****     {
 115              		.loc 1 1068 0
 116 001e C307     		lsls	r3, r0, #31
 117 0020 0FD5     		bpl	.L8
 118              	.LVL12:
1072:Generated_Source\PSoC4/Display_I2C_I2C_MASTER.c ****         {
 119              		.loc 1 1072 0
 120 0022 244B     		ldr	r3, .L21+4
 121 0024 1B78     		ldrb	r3, [r3]
 122 0026 1B07     		lsls	r3, r3, #28
 123 0028 2BD5     		bpl	.L15
1075:Generated_Source\PSoC4/Display_I2C_I2C_MASTER.c ****             {
 124              		.loc 1 1075 0
 125 002a 234B     		ldr	r3, .L21+8
 126 002c 1B68     		ldr	r3, [r3]
 127 002e 5B00     		lsls	r3, r3, #1
 128 0030 01D5     		bpl	.L16
1052:Generated_Source\PSoC4/Display_I2C_I2C_MASTER.c **** 
 129              		.loc 1 1052 0
 130 0032 0023     		movs	r3, #0
 131 0034 00E0     		b	.L9
 132              	.L16:
1077:Generated_Source\PSoC4/Display_I2C_I2C_MASTER.c ****             }
 133              		.loc 1 1077 0
 134 0036 0123     		movs	r3, #1
 135              	.L9:
ARM GAS  C:\Users\VIDEOH~1\AppData\Local\Temp\ccKwza2q.s 			page 24


 136              	.LVL13:
1080:Generated_Source\PSoC4/Display_I2C_I2C_MASTER.c ****         }
 137              		.loc 1 1080 0
 138 0038 1021     		movs	r1, #16
 139 003a 1E4A     		ldr	r2, .L21+4
 140 003c 1170     		strb	r1, [r2]
1070:Generated_Source\PSoC4/Display_I2C_I2C_MASTER.c **** 
 141              		.loc 1 1070 0
 142 003e 0124     		movs	r4, #1
 143 0040 2BE0     		b	.L6
 144              	.LVL14:
 145              	.L8:
1088:Generated_Source\PSoC4/Display_I2C_I2C_MASTER.c ****     {
 146              		.loc 1 1088 0
 147 0042 C305     		lsls	r3, r0, #23
 148 0044 20D4     		bmi	.L17
1093:Generated_Source\PSoC4/Display_I2C_I2C_MASTER.c ****     {
 149              		.loc 1 1093 0
 150 0046 8307     		lsls	r3, r0, #30
 151 0048 22D4     		bmi	.L18
 152              	.LVL15:
1101:Generated_Source\PSoC4/Display_I2C_I2C_MASTER.c ****         {
 153              		.loc 1 1101 0
 154 004a C306     		lsls	r3, r0, #27
 155 004c 05D5     		bpl	.L10
1104:Generated_Source\PSoC4/Display_I2C_I2C_MASTER.c ****         }
 156              		.loc 1 1104 0
 157 004e 1022     		movs	r2, #16
 158 0050 184B     		ldr	r3, .L21+4
 159 0052 1A70     		strb	r2, [r3]
1052:Generated_Source\PSoC4/Display_I2C_I2C_MASTER.c **** 
 160              		.loc 1 1052 0
 161 0054 0023     		movs	r3, #0
1099:Generated_Source\PSoC4/Display_I2C_I2C_MASTER.c **** 
 162              		.loc 1 1099 0
 163 0056 0024     		movs	r4, #0
 164 0058 1FE0     		b	.L6
 165              	.L10:
1109:Generated_Source\PSoC4/Display_I2C_I2C_MASTER.c ****             {
 166              		.loc 1 1109 0
 167 005a 164B     		ldr	r3, .L21+4
 168 005c 1B78     		ldrb	r3, [r3]
 169 005e 1B07     		lsls	r3, r3, #28
 170 0060 19D5     		bpl	.L19
1112:Generated_Source\PSoC4/Display_I2C_I2C_MASTER.c ****                                           Display_I2C_I2C_FSM_MSTR_RD_DATA : Display_I2C_I2C_FSM_MS
 171              		.loc 1 1112 0
 172 0062 144B     		ldr	r3, .L21+4
 173 0064 1B78     		ldrb	r3, [r3]
 174 0066 DB07     		lsls	r3, r3, #31
 175 0068 01D5     		bpl	.L20
 176 006a 2522     		movs	r2, #37
 177 006c 00E0     		b	.L11
 178              	.L20:
 179 006e 2422     		movs	r2, #36
 180              	.L11:
1112:Generated_Source\PSoC4/Display_I2C_I2C_MASTER.c ****                                           Display_I2C_I2C_FSM_MSTR_RD_DATA : Display_I2C_I2C_FSM_MS
 181              		.loc 1 1112 0 is_stmt 0 discriminator 4
ARM GAS  C:\Users\VIDEOH~1\AppData\Local\Temp\ccKwza2q.s 			page 25


 182 0070 104B     		ldr	r3, .L21+4
 183 0072 1A70     		strb	r2, [r3]
1052:Generated_Source\PSoC4/Display_I2C_I2C_MASTER.c **** 
 184              		.loc 1 1052 0 is_stmt 1 discriminator 4
 185 0074 0023     		movs	r3, #0
1099:Generated_Source\PSoC4/Display_I2C_I2C_MASTER.c **** 
 186              		.loc 1 1099 0 discriminator 4
 187 0076 0024     		movs	r4, #0
 188 0078 0FE0     		b	.L6
 189              	.LVL16:
 190              	.L14:
1057:Generated_Source\PSoC4/Display_I2C_I2C_MASTER.c ****     }
 191              		.loc 1 1057 0
 192 007a 0123     		movs	r3, #1
1056:Generated_Source\PSoC4/Display_I2C_I2C_MASTER.c ****         resetBlock = Display_I2C_I2C_RESET_ERROR;
 193              		.loc 1 1056 0
 194 007c 8024     		movs	r4, #128
 195 007e 2406     		lsls	r4, r4, #24
 196 0080 0BE0     		b	.L6
 197              	.LVL17:
 198              	.L15:
1085:Generated_Source\PSoC4/Display_I2C_I2C_MASTER.c ****         }
 199              		.loc 1 1085 0
 200 0082 0123     		movs	r3, #1
1070:Generated_Source\PSoC4/Display_I2C_I2C_MASTER.c **** 
 201              		.loc 1 1070 0
 202 0084 0124     		movs	r4, #1
 203 0086 08E0     		b	.L6
 204              	.LVL18:
 205              	.L17:
1091:Generated_Source\PSoC4/Display_I2C_I2C_MASTER.c ****     }
 206              		.loc 1 1091 0
 207 0088 0123     		movs	r3, #1
1090:Generated_Source\PSoC4/Display_I2C_I2C_MASTER.c ****         resetBlock = Display_I2C_I2C_RESET_ERROR;
 208              		.loc 1 1090 0
 209 008a 8024     		movs	r4, #128
 210 008c 6400     		lsls	r4, r4, #1
 211 008e 04E0     		b	.L6
 212              	.L18:
1052:Generated_Source\PSoC4/Display_I2C_I2C_MASTER.c **** 
 213              		.loc 1 1052 0
 214 0090 0023     		movs	r3, #0
1095:Generated_Source\PSoC4/Display_I2C_I2C_MASTER.c ****     }
 215              		.loc 1 1095 0
 216 0092 0224     		movs	r4, #2
 217 0094 01E0     		b	.L6
 218              	.LVL19:
 219              	.L19:
1052:Generated_Source\PSoC4/Display_I2C_I2C_MASTER.c **** 
 220              		.loc 1 1052 0
 221 0096 0023     		movs	r3, #0
1099:Generated_Source\PSoC4/Display_I2C_I2C_MASTER.c **** 
 222              		.loc 1 1099 0
 223 0098 0024     		movs	r4, #0
 224              	.LVL20:
 225              	.L6:
1118:Generated_Source\PSoC4/Display_I2C_I2C_MASTER.c ****     {
ARM GAS  C:\Users\VIDEOH~1\AppData\Local\Temp\ccKwza2q.s 			page 26


 226              		.loc 1 1118 0
 227 009a 012B     		cmp	r3, #1
 228 009c 02D1     		bne	.L12
1120:Generated_Source\PSoC4/Display_I2C_I2C_MASTER.c ****     }
 229              		.loc 1 1120 0
 230 009e FFF7FEFF 		bl	Display_I2C_I2CFwBlockReset
 231              	.LVL21:
 232 00a2 02E0     		b	.L13
 233              	.LVL22:
 234              	.L12:
1124:Generated_Source\PSoC4/Display_I2C_I2C_MASTER.c ****     }
 235              		.loc 1 1124 0
 236 00a4 054A     		ldr	r2, .L21+12
 237 00a6 064B     		ldr	r3, .L21+16
 238              	.LVL23:
 239 00a8 1A60     		str	r2, [r3]
 240              	.LVL24:
 241              	.L13:
1128:Generated_Source\PSoC4/Display_I2C_I2C_MASTER.c **** 
 242              		.loc 1 1128 0
 243 00aa 2000     		movs	r0, r4
 244              		@ sp needed
 245              	.LVL25:
 246 00ac 10BD     		pop	{r4, pc}
 247              	.L22:
 248 00ae C046     		.align	2
 249              	.L21:
 250 00b0 68000740 		.word	1074200680
 251 00b4 00000000 		.word	Display_I2C_state
 252 00b8 60000740 		.word	1074200672
 253 00bc 17030000 		.word	791
 254 00c0 000F0740 		.word	1074204416
 255              		.cfi_endproc
 256              	.LFE14:
 257              		.size	Display_I2C_I2CMasterHandleStatus, .-Display_I2C_I2CMasterHandleStatus
 258              		.section	.text.Display_I2C_I2CMasterSendStart,"ax",%progbits
 259              		.align	2
 260              		.global	Display_I2C_I2CMasterSendStart
 261              		.code	16
 262              		.thumb_func
 263              		.type	Display_I2C_I2CMasterSendStart, %function
 264              	Display_I2C_I2CMasterSendStart:
 265              	.LFB2:
 346:Generated_Source\PSoC4/Display_I2C_I2C_MASTER.c ****     uint32 errStatus = Display_I2C_I2C_MSTR_NOT_READY;
 266              		.loc 1 346 0
 267              		.cfi_startproc
 268              		@ args = 0, pretend = 0, frame = 8
 269              		@ frame_needed = 0, uses_anonymous_args = 0
 270              	.LVL26:
 271 0000 70B5     		push	{r4, r5, r6, lr}
 272              		.cfi_def_cfa_offset 16
 273              		.cfi_offset 4, -16
 274              		.cfi_offset 5, -12
 275              		.cfi_offset 6, -8
 276              		.cfi_offset 14, -4
 277 0002 82B0     		sub	sp, sp, #8
 278              		.cfi_def_cfa_offset 24
ARM GAS  C:\Users\VIDEOH~1\AppData\Local\Temp\ccKwza2q.s 			page 27


 279 0004 0400     		movs	r4, r0
 280 0006 0D00     		movs	r5, r1
 281 0008 1600     		movs	r6, r2
 282              	.LVL27:
 349:Generated_Source\PSoC4/Display_I2C_I2C_MASTER.c ****     {
 283              		.loc 1 349 0
 284 000a 244B     		ldr	r3, .L31
 285 000c 1B78     		ldrb	r3, [r3]
 286 000e 102B     		cmp	r3, #16
 287 0010 40D1     		bne	.L29
 351:Generated_Source\PSoC4/Display_I2C_I2C_MASTER.c **** 
 288              		.loc 1 351 0
 289 0012 0B20     		movs	r0, #11
 290              	.LVL28:
 291 0014 FFF7FEFF 		bl	CyIntDisable
 292              	.LVL29:
 353:Generated_Source\PSoC4/Display_I2C_I2C_MASTER.c ****         {
 293              		.loc 1 353 0
 294 0018 214B     		ldr	r3, .L31+4
 295 001a 1B68     		ldr	r3, [r3]
 296 001c DB07     		lsls	r3, r3, #31
 297 001e 34D4     		bmi	.L30
 298              	.LBB2:
 360:Generated_Source\PSoC4/Display_I2C_I2C_MASTER.c **** 
 299              		.loc 1 360 0
 300 0020 FA23     		movs	r3, #250
 301 0022 9B00     		lsls	r3, r3, #2
 302 0024 5E43     		muls	r6, r3
 303              	.LVL30:
 304 0026 0196     		str	r6, [sp, #4]
 366:Generated_Source\PSoC4/Display_I2C_I2C_MASTER.c ****             Display_I2C_ClearMasterInterruptSource(Display_I2C_INTR_MASTER_ALL);
 305              		.loc 1 366 0
 306 0028 0022     		movs	r2, #0
 307 002a 1E4B     		ldr	r3, .L31+8
 308 002c 1A60     		str	r2, [r3]
 367:Generated_Source\PSoC4/Display_I2C_I2C_MASTER.c ****             Display_I2C_ClearRxInterruptSource    (Display_I2C_INTR_RX_ALL);
 309              		.loc 1 367 0
 310 002e 1E4A     		ldr	r2, .L31+12
 311 0030 1E4B     		ldr	r3, .L31+16
 312 0032 1A60     		str	r2, [r3]
 368:Generated_Source\PSoC4/Display_I2C_I2C_MASTER.c **** 
 313              		.loc 1 368 0
 314 0034 1E4A     		ldr	r2, .L31+20
 315 0036 1F4B     		ldr	r3, .L31+24
 316 0038 1A60     		str	r2, [r3]
 370:Generated_Source\PSoC4/Display_I2C_I2C_MASTER.c **** 
 317              		.loc 1 370 0
 318 003a 6400     		lsls	r4, r4, #1
 319              	.LVL31:
 320 003c FF23     		movs	r3, #255
 321 003e 1C40     		ands	r4, r3
 322              	.LVL32:
 372:Generated_Source\PSoC4/Display_I2C_I2C_MASTER.c ****             {
 323              		.loc 1 372 0
 324 0040 002D     		cmp	r5, #0
 325 0042 03D1     		bne	.L26
 374:Generated_Source\PSoC4/Display_I2C_I2C_MASTER.c ****             }
ARM GAS  C:\Users\VIDEOH~1\AppData\Local\Temp\ccKwza2q.s 			page 28


 326              		.loc 1 374 0
 327 0044 2422     		movs	r2, #36
 328 0046 154B     		ldr	r3, .L31
 329 0048 1A70     		strb	r2, [r3]
 330 004a 04E0     		b	.L27
 331              	.L26:
 378:Generated_Source\PSoC4/Display_I2C_I2C_MASTER.c ****                          slaveAddress |= Display_I2C_I2C_READ_FLAG;
 332              		.loc 1 378 0
 333 004c 2522     		movs	r2, #37
 334 004e 134B     		ldr	r3, .L31
 335 0050 1A70     		strb	r2, [r3]
 379:Generated_Source\PSoC4/Display_I2C_I2C_MASTER.c ****             }
 336              		.loc 1 379 0
 337 0052 0123     		movs	r3, #1
 338 0054 1C43     		orrs	r4, r3
 339              	.LVL33:
 340              	.L27:
 385:Generated_Source\PSoC4/Display_I2C_I2C_MASTER.c ****             Display_I2C_I2C_MASTER_GENERATE_START;
 341              		.loc 1 385 0
 342 0056 184B     		ldr	r3, .L31+28
 343 0058 1C60     		str	r4, [r3]
 386:Generated_Source\PSoC4/Display_I2C_I2C_MASTER.c **** 
 344              		.loc 1 386 0
 345 005a 0222     		movs	r2, #2
 346 005c 174B     		ldr	r3, .L31+32
 347 005e 1A60     		str	r2, [r3]
 348              	.LVL34:
 349              	.L28:
 391:Generated_Source\PSoC4/Display_I2C_I2C_MASTER.c ****                 locStatus |= Display_I2C_GetSlaveInterruptSource() & Display_I2C_SLAVE_INTR_I2C_ADD
 350              		.loc 1 391 0 discriminator 1
 351 0060 124B     		ldr	r3, .L31+16
 352 0062 1C68     		ldr	r4, [r3]
 353 0064 0823     		movs	r3, #8
 354 0066 FF33     		adds	r3, r3, #255
 355 0068 2000     		movs	r0, r4
 356 006a 1840     		ands	r0, r3
 357              	.LVL35:
 392:Generated_Source\PSoC4/Display_I2C_I2C_MASTER.c ****                 locStatus |= Display_I2C_I2CMasterWaitOneUnit(&timeout);
 358              		.loc 1 392 0 discriminator 1
 359 006c 144B     		ldr	r3, .L31+36
 360 006e 1B68     		ldr	r3, [r3]
 361 0070 C024     		movs	r4, #192
 362 0072 2340     		ands	r3, r4
 363 0074 1843     		orrs	r0, r3
 364              	.LVL36:
 365 0076 0400     		movs	r4, r0
 366              	.LVL37:
 393:Generated_Source\PSoC4/Display_I2C_I2C_MASTER.c ****             }
 367              		.loc 1 393 0 discriminator 1
 368 0078 01A8     		add	r0, sp, #4
 369              	.LVL38:
 370 007a FFF7FEFF 		bl	Display_I2C_I2CMasterWaitOneUnit
 371              	.LVL39:
 372 007e 2043     		orrs	r0, r4
 373              	.LVL40:
 395:Generated_Source\PSoC4/Display_I2C_I2C_MASTER.c **** 
 374              		.loc 1 395 0 discriminator 1
ARM GAS  C:\Users\VIDEOH~1\AppData\Local\Temp\ccKwza2q.s 			page 29


 375 0080 EED0     		beq	.L28
 398:Generated_Source\PSoC4/Display_I2C_I2C_MASTER.c ****         }
 376              		.loc 1 398 0
 377 0082 FFF7FEFF 		bl	Display_I2C_I2CMasterHandleStatus
 378              	.LVL41:
 379 0086 0400     		movs	r4, r0
 380              	.LVL42:
 381 0088 00E0     		b	.L25
 382              	.LVL43:
 383              	.L30:
 384              	.LBE2:
 355:Generated_Source\PSoC4/Display_I2C_I2C_MASTER.c ****         }
 385              		.loc 1 355 0
 386 008a 0824     		movs	r4, #8
 387              	.LVL44:
 388              	.L25:
 401:Generated_Source\PSoC4/Display_I2C_I2C_MASTER.c ****     }
 389              		.loc 1 401 0
 390 008c 0B20     		movs	r0, #11
 391 008e FFF7FEFF 		bl	CyIntEnable
 392              	.LVL45:
 393 0092 00E0     		b	.L24
 394              	.LVL46:
 395              	.L29:
 347:Generated_Source\PSoC4/Display_I2C_I2C_MASTER.c **** 
 396              		.loc 1 347 0
 397 0094 0424     		movs	r4, #4
 398              	.LVL47:
 399              	.L24:
 405:Generated_Source\PSoC4/Display_I2C_I2C_MASTER.c **** 
 400              		.loc 1 405 0
 401 0096 2000     		movs	r0, r4
 402 0098 02B0     		add	sp, sp, #8
 403              		@ sp needed
 404              	.LVL48:
 405              	.LVL49:
 406 009a 70BD     		pop	{r4, r5, r6, pc}
 407              	.L32:
 408              		.align	2
 409              	.L31:
 410 009c 00000000 		.word	Display_I2C_state
 411 00a0 64000740 		.word	1074200676
 412 00a4 080F0740 		.word	1074204424
 413 00a8 17030000 		.word	791
 414 00ac 000F0740 		.word	1074204416
 415 00b0 ED0F0000 		.word	4077
 416 00b4 C00F0740 		.word	1074204608
 417 00b8 40020740 		.word	1074201152
 418 00bc 68000740 		.word	1074200680
 419 00c0 400F0740 		.word	1074204480
 420              		.cfi_endproc
 421              	.LFE2:
 422              		.size	Display_I2C_I2CMasterSendStart, .-Display_I2C_I2CMasterSendStart
 423              		.section	.text.Display_I2C_I2CMasterSendStop,"ax",%progbits
 424              		.align	2
 425              		.global	Display_I2C_I2CMasterSendStop
 426              		.code	16
ARM GAS  C:\Users\VIDEOH~1\AppData\Local\Temp\ccKwza2q.s 			page 30


 427              		.thumb_func
 428              		.type	Display_I2C_I2CMasterSendStop, %function
 429              	Display_I2C_I2CMasterSendStop:
 430              	.LFB4:
 524:Generated_Source\PSoC4/Display_I2C_I2C_MASTER.c ****     uint32 errStatus = Display_I2C_I2C_MSTR_NOT_READY;
 431              		.loc 1 524 0
 432              		.cfi_startproc
 433              		@ args = 0, pretend = 0, frame = 8
 434              		@ frame_needed = 0, uses_anonymous_args = 0
 435              	.LVL50:
 436 0000 10B5     		push	{r4, lr}
 437              		.cfi_def_cfa_offset 8
 438              		.cfi_offset 4, -8
 439              		.cfi_offset 14, -4
 440 0002 82B0     		sub	sp, sp, #8
 441              		.cfi_def_cfa_offset 16
 442              	.LVL51:
 528:Generated_Source\PSoC4/Display_I2C_I2C_MASTER.c ****     {
 443              		.loc 1 528 0
 444 0004 104B     		ldr	r3, .L39
 445 0006 1B78     		ldrb	r3, [r3]
 446 0008 9B06     		lsls	r3, r3, #26
 447 000a 1AD5     		bpl	.L37
 448              	.LBB3:
 531:Generated_Source\PSoC4/Display_I2C_I2C_MASTER.c **** 
 449              		.loc 1 531 0
 450 000c FA23     		movs	r3, #250
 451 000e 9B00     		lsls	r3, r3, #2
 452 0010 5843     		muls	r0, r3
 453              	.LVL52:
 454 0012 0190     		str	r0, [sp, #4]
 534:Generated_Source\PSoC4/Display_I2C_I2C_MASTER.c **** 
 455              		.loc 1 534 0
 456 0014 0D4B     		ldr	r3, .L39+4
 457 0016 1B68     		ldr	r3, [r3]
 458 0018 9B06     		lsls	r3, r3, #26
 459 001a 01D5     		bpl	.L38
 460 001c 1822     		movs	r2, #24
 461 001e 00E0     		b	.L35
 462              	.L38:
 463 0020 1022     		movs	r2, #16
 464              	.L35:
 534:Generated_Source\PSoC4/Display_I2C_I2C_MASTER.c **** 
 465              		.loc 1 534 0 is_stmt 0 discriminator 4
 466 0022 0B4B     		ldr	r3, .L39+8
 467 0024 1A60     		str	r2, [r3]
 468              	.L36:
 539:Generated_Source\PSoC4/Display_I2C_I2C_MASTER.c ****             locStatus |= Display_I2C_I2CMasterWaitOneUnit(&timeout);
 469              		.loc 1 539 0 is_stmt 1 discriminator 1
 470 0026 0B4B     		ldr	r3, .L39+12
 471 0028 1868     		ldr	r0, [r3]
 472 002a 1223     		movs	r3, #18
 473 002c FF33     		adds	r3, r3, #255
 474 002e 1840     		ands	r0, r3
 475 0030 0400     		movs	r4, r0
 476              	.LVL53:
 540:Generated_Source\PSoC4/Display_I2C_I2C_MASTER.c ****         }
ARM GAS  C:\Users\VIDEOH~1\AppData\Local\Temp\ccKwza2q.s 			page 31


 477              		.loc 1 540 0 discriminator 1
 478 0032 01A8     		add	r0, sp, #4
 479              	.LVL54:
 480 0034 FFF7FEFF 		bl	Display_I2C_I2CMasterWaitOneUnit
 481              	.LVL55:
 482 0038 2043     		orrs	r0, r4
 483              	.LVL56:
 542:Generated_Source\PSoC4/Display_I2C_I2C_MASTER.c **** 
 484              		.loc 1 542 0 discriminator 1
 485 003a F4D0     		beq	.L36
 545:Generated_Source\PSoC4/Display_I2C_I2C_MASTER.c ****     }
 486              		.loc 1 545 0
 487 003c FFF7FEFF 		bl	Display_I2C_I2CMasterHandleStatus
 488              	.LVL57:
 489 0040 00E0     		b	.L34
 490              	.LVL58:
 491              	.L37:
 492              	.LBE3:
 525:Generated_Source\PSoC4/Display_I2C_I2C_MASTER.c **** 
 493              		.loc 1 525 0
 494 0042 0420     		movs	r0, #4
 495              	.LVL59:
 496              	.L34:
 549:Generated_Source\PSoC4/Display_I2C_I2C_MASTER.c **** 
 497              		.loc 1 549 0
 498 0044 02B0     		add	sp, sp, #8
 499              		@ sp needed
 500 0046 10BD     		pop	{r4, pc}
 501              	.L40:
 502              		.align	2
 503              	.L39:
 504 0048 00000000 		.word	Display_I2C_state
 505 004c 64000740 		.word	1074200676
 506 0050 68000740 		.word	1074200680
 507 0054 000F0740 		.word	1074204416
 508              		.cfi_endproc
 509              	.LFE4:
 510              		.size	Display_I2C_I2CMasterSendStop, .-Display_I2C_I2CMasterSendStop
 511              		.section	.text.Display_I2C_I2CMasterWriteByte,"ax",%progbits
 512              		.align	2
 513              		.global	Display_I2C_I2CMasterWriteByte
 514              		.code	16
 515              		.thumb_func
 516              		.type	Display_I2C_I2CMasterWriteByte, %function
 517              	Display_I2C_I2CMasterWriteByte:
 518              	.LFB5:
 583:Generated_Source\PSoC4/Display_I2C_I2C_MASTER.c ****     uint32 errStatus = Display_I2C_I2C_MSTR_NOT_READY;
 519              		.loc 1 583 0
 520              		.cfi_startproc
 521              		@ args = 0, pretend = 0, frame = 8
 522              		@ frame_needed = 0, uses_anonymous_args = 0
 523              	.LVL60:
 524 0000 10B5     		push	{r4, lr}
 525              		.cfi_def_cfa_offset 8
 526              		.cfi_offset 4, -8
 527              		.cfi_offset 14, -4
 528 0002 82B0     		sub	sp, sp, #8
ARM GAS  C:\Users\VIDEOH~1\AppData\Local\Temp\ccKwza2q.s 			page 32


 529              		.cfi_def_cfa_offset 16
 530              	.LVL61:
 587:Generated_Source\PSoC4/Display_I2C_I2C_MASTER.c ****     {
 531              		.loc 1 587 0
 532 0004 0D4B     		ldr	r3, .L45
 533 0006 1B78     		ldrb	r3, [r3]
 534 0008 9B06     		lsls	r3, r3, #26
 535 000a 13D5     		bpl	.L44
 536              	.LBB4:
 590:Generated_Source\PSoC4/Display_I2C_I2C_MASTER.c **** 
 537              		.loc 1 590 0
 538 000c FA23     		movs	r3, #250
 539 000e 9B00     		lsls	r3, r3, #2
 540 0010 5943     		muls	r1, r3
 541              	.LVL62:
 542 0012 0191     		str	r1, [sp, #4]
 592:Generated_Source\PSoC4/Display_I2C_I2C_MASTER.c **** 
 543              		.loc 1 592 0
 544 0014 0A4B     		ldr	r3, .L45+4
 545 0016 1860     		str	r0, [r3]
 546              	.LVL63:
 547              	.L43:
 597:Generated_Source\PSoC4/Display_I2C_I2C_MASTER.c ****             locStatus |= Display_I2C_I2CMasterWaitOneUnit(&timeout);
 548              		.loc 1 597 0 discriminator 1
 549 0018 0A4B     		ldr	r3, .L45+8
 550 001a 1868     		ldr	r0, [r3]
 551 001c 0823     		movs	r3, #8
 552 001e FF33     		adds	r3, r3, #255
 553 0020 1840     		ands	r0, r3
 554 0022 0400     		movs	r4, r0
 555              	.LVL64:
 598:Generated_Source\PSoC4/Display_I2C_I2C_MASTER.c ****         }
 556              		.loc 1 598 0 discriminator 1
 557 0024 01A8     		add	r0, sp, #4
 558              	.LVL65:
 559 0026 FFF7FEFF 		bl	Display_I2C_I2CMasterWaitOneUnit
 560              	.LVL66:
 561 002a 2043     		orrs	r0, r4
 562              	.LVL67:
 600:Generated_Source\PSoC4/Display_I2C_I2C_MASTER.c **** 
 563              		.loc 1 600 0 discriminator 1
 564 002c F4D0     		beq	.L43
 603:Generated_Source\PSoC4/Display_I2C_I2C_MASTER.c ****     }
 565              		.loc 1 603 0
 566 002e FFF7FEFF 		bl	Display_I2C_I2CMasterHandleStatus
 567              	.LVL68:
 568 0032 00E0     		b	.L42
 569              	.LVL69:
 570              	.L44:
 571              	.LBE4:
 584:Generated_Source\PSoC4/Display_I2C_I2C_MASTER.c **** 
 572              		.loc 1 584 0
 573 0034 0420     		movs	r0, #4
 574              	.LVL70:
 575              	.L42:
 607:Generated_Source\PSoC4/Display_I2C_I2C_MASTER.c **** 
 576              		.loc 1 607 0
ARM GAS  C:\Users\VIDEOH~1\AppData\Local\Temp\ccKwza2q.s 			page 33


 577 0036 02B0     		add	sp, sp, #8
 578              		@ sp needed
 579 0038 10BD     		pop	{r4, pc}
 580              	.L46:
 581 003a C046     		.align	2
 582              	.L45:
 583 003c 00000000 		.word	Display_I2C_state
 584 0040 40020740 		.word	1074201152
 585 0044 000F0740 		.word	1074204416
 586              		.cfi_endproc
 587              	.LFE5:
 588              		.size	Display_I2C_I2CMasterWriteByte, .-Display_I2C_I2CMasterWriteByte
 589              		.section	.text.Display_I2C_I2CMasterReadByte,"ax",%progbits
 590              		.align	2
 591              		.global	Display_I2C_I2CMasterReadByte
 592              		.code	16
 593              		.thumb_func
 594              		.type	Display_I2C_I2CMasterReadByte, %function
 595              	Display_I2C_I2CMasterReadByte:
 596              	.LFB6:
 654:Generated_Source\PSoC4/Display_I2C_I2C_MASTER.c ****     uint32 errStatus = Display_I2C_I2C_MSTR_NOT_READY;
 597              		.loc 1 654 0
 598              		.cfi_startproc
 599              		@ args = 0, pretend = 0, frame = 8
 600              		@ frame_needed = 0, uses_anonymous_args = 0
 601              	.LVL71:
 602 0000 F0B5     		push	{r4, r5, r6, r7, lr}
 603              		.cfi_def_cfa_offset 20
 604              		.cfi_offset 4, -20
 605              		.cfi_offset 5, -16
 606              		.cfi_offset 6, -12
 607              		.cfi_offset 7, -8
 608              		.cfi_offset 14, -4
 609 0002 83B0     		sub	sp, sp, #12
 610              		.cfi_def_cfa_offset 32
 611 0004 0400     		movs	r4, r0
 612 0006 0D00     		movs	r5, r1
 613              	.LVL72:
 658:Generated_Source\PSoC4/Display_I2C_I2C_MASTER.c ****     {
 614              		.loc 1 658 0
 615 0008 164B     		ldr	r3, .L53
 616 000a 1B78     		ldrb	r3, [r3]
 617 000c 9B06     		lsls	r3, r3, #26
 618 000e 26D5     		bpl	.L52
 619              	.LBB5:
 662:Generated_Source\PSoC4/Display_I2C_I2C_MASTER.c **** 
 620              		.loc 1 662 0
 621 0010 FA23     		movs	r3, #250
 622 0012 9B00     		lsls	r3, r3, #2
 623 0014 5A43     		muls	r2, r3
 624              	.LVL73:
 625 0016 0192     		str	r2, [sp, #4]
 626              	.LVL74:
 627              	.L49:
 667:Generated_Source\PSoC4/Display_I2C_I2C_MASTER.c ****             rxNotEmpty = Display_I2C_GetRxInterruptSource() & Display_I2C_INTR_RX_NOT_EMPTY;
 628              		.loc 1 667 0 discriminator 1
 629 0018 134B     		ldr	r3, .L53+4
ARM GAS  C:\Users\VIDEOH~1\AppData\Local\Temp\ccKwza2q.s 			page 34


 630 001a 1868     		ldr	r0, [r3]
 631 001c 0223     		movs	r3, #2
 632 001e FF33     		adds	r3, r3, #255
 633 0020 1840     		ands	r0, r3
 634 0022 0700     		movs	r7, r0
 635              	.LVL75:
 668:Generated_Source\PSoC4/Display_I2C_I2C_MASTER.c ****             locStatus |= Display_I2C_I2CMasterWaitOneUnit(&timeout);
 636              		.loc 1 668 0 discriminator 1
 637 0024 114B     		ldr	r3, .L53+8
 638 0026 1B68     		ldr	r3, [r3]
 639 0028 0426     		movs	r6, #4
 640 002a 1E40     		ands	r6, r3
 641              	.LVL76:
 669:Generated_Source\PSoC4/Display_I2C_I2C_MASTER.c ****         }
 642              		.loc 1 669 0 discriminator 1
 643 002c 01A8     		add	r0, sp, #4
 644              	.LVL77:
 645 002e FFF7FEFF 		bl	Display_I2C_I2CMasterWaitOneUnit
 646              	.LVL78:
 647 0032 3843     		orrs	r0, r7
 648              	.LVL79:
 671:Generated_Source\PSoC4/Display_I2C_I2C_MASTER.c **** 
 649              		.loc 1 671 0 discriminator 1
 650 0034 3300     		movs	r3, r6
 651 0036 0343     		orrs	r3, r0
 652 0038 EED0     		beq	.L49
 674:Generated_Source\PSoC4/Display_I2C_I2C_MASTER.c ****         {
 653              		.loc 1 674 0
 654 003a 002E     		cmp	r6, #0
 655 003c 05D0     		beq	.L50
 676:Generated_Source\PSoC4/Display_I2C_I2C_MASTER.c ****             Display_I2C_ClearRxInterruptSource(Display_I2C_INTR_RX_ALL);
 656              		.loc 1 676 0
 657 003e 0C4B     		ldr	r3, .L53+12
 658 0040 1B68     		ldr	r3, [r3]
 659 0042 2B70     		strb	r3, [r5]
 677:Generated_Source\PSoC4/Display_I2C_I2C_MASTER.c ****         }
 660              		.loc 1 677 0
 661 0044 0B4A     		ldr	r2, .L53+16
 662 0046 094B     		ldr	r3, .L53+8
 663 0048 1A60     		str	r2, [r3]
 664              	.L50:
 681:Generated_Source\PSoC4/Display_I2C_I2C_MASTER.c **** 
 665              		.loc 1 681 0
 666 004a FFF7FEFF 		bl	Display_I2C_I2CMasterHandleStatus
 667              	.LVL80:
 683:Generated_Source\PSoC4/Display_I2C_I2C_MASTER.c ****         {
 668              		.loc 1 683 0
 669 004e 0028     		cmp	r0, #0
 670 0050 06D1     		bne	.L48
 685:Generated_Source\PSoC4/Display_I2C_I2C_MASTER.c ****             {
 671              		.loc 1 685 0
 672 0052 002C     		cmp	r4, #0
 673 0054 04D1     		bne	.L48
 687:Generated_Source\PSoC4/Display_I2C_I2C_MASTER.c ****             }
 674              		.loc 1 687 0
 675 0056 0422     		movs	r2, #4
 676 0058 074B     		ldr	r3, .L53+20
ARM GAS  C:\Users\VIDEOH~1\AppData\Local\Temp\ccKwza2q.s 			page 35


 677 005a 1A60     		str	r2, [r3]
 678 005c 00E0     		b	.L48
 679              	.LVL81:
 680              	.L52:
 681              	.LBE5:
 655:Generated_Source\PSoC4/Display_I2C_I2C_MASTER.c **** 
 682              		.loc 1 655 0
 683 005e 0420     		movs	r0, #4
 684              	.LVL82:
 685              	.L48:
 697:Generated_Source\PSoC4/Display_I2C_I2C_MASTER.c **** 
 686              		.loc 1 697 0
 687 0060 03B0     		add	sp, sp, #12
 688              		@ sp needed
 689              	.LVL83:
 690              	.LVL84:
 691 0062 F0BD     		pop	{r4, r5, r6, r7, pc}
 692              	.L54:
 693              		.align	2
 694              	.L53:
 695 0064 00000000 		.word	Display_I2C_state
 696 0068 000F0740 		.word	1074204416
 697 006c C00F0740 		.word	1074204608
 698 0070 40030740 		.word	1074201408
 699 0074 ED0F0000 		.word	4077
 700 0078 68000740 		.word	1074200680
 701              		.cfi_endproc
 702              	.LFE6:
 703              		.size	Display_I2C_I2CMasterReadByte, .-Display_I2C_I2CMasterReadByte
 704              		.section	.text.Display_I2C_I2CMasterGetReadBufSize,"ax",%progbits
 705              		.align	2
 706              		.global	Display_I2C_I2CMasterGetReadBufSize
 707              		.code	16
 708              		.thumb_func
 709              		.type	Display_I2C_I2CMasterGetReadBufSize, %function
 710              	Display_I2C_I2CMasterGetReadBufSize:
 711              	.LFB7:
 722:Generated_Source\PSoC4/Display_I2C_I2C_MASTER.c ****     return(Display_I2C_mstrRdBufIndex);
 712              		.loc 1 722 0
 713              		.cfi_startproc
 714              		@ args = 0, pretend = 0, frame = 0
 715              		@ frame_needed = 0, uses_anonymous_args = 0
 716              		@ link register save eliminated.
 723:Generated_Source\PSoC4/Display_I2C_I2C_MASTER.c **** }
 717              		.loc 1 723 0
 718 0000 014B     		ldr	r3, .L56
 719 0002 1868     		ldr	r0, [r3]
 724:Generated_Source\PSoC4/Display_I2C_I2C_MASTER.c **** 
 720              		.loc 1 724 0
 721              		@ sp needed
 722 0004 7047     		bx	lr
 723              	.L57:
 724 0006 C046     		.align	2
 725              	.L56:
 726 0008 00000000 		.word	Display_I2C_mstrRdBufIndex
 727              		.cfi_endproc
 728              	.LFE7:
ARM GAS  C:\Users\VIDEOH~1\AppData\Local\Temp\ccKwza2q.s 			page 36


 729              		.size	Display_I2C_I2CMasterGetReadBufSize, .-Display_I2C_I2CMasterGetReadBufSize
 730              		.section	.text.Display_I2C_I2CMasterGetWriteBufSize,"ax",%progbits
 731              		.align	2
 732              		.global	Display_I2C_I2CMasterGetWriteBufSize
 733              		.code	16
 734              		.thumb_func
 735              		.type	Display_I2C_I2CMasterGetWriteBufSize, %function
 736              	Display_I2C_I2CMasterGetWriteBufSize:
 737              	.LFB8:
 749:Generated_Source\PSoC4/Display_I2C_I2C_MASTER.c ****     return(Display_I2C_mstrWrBufIndex);
 738              		.loc 1 749 0
 739              		.cfi_startproc
 740              		@ args = 0, pretend = 0, frame = 0
 741              		@ frame_needed = 0, uses_anonymous_args = 0
 742              		@ link register save eliminated.
 750:Generated_Source\PSoC4/Display_I2C_I2C_MASTER.c **** }
 743              		.loc 1 750 0
 744 0000 014B     		ldr	r3, .L59
 745 0002 1868     		ldr	r0, [r3]
 751:Generated_Source\PSoC4/Display_I2C_I2C_MASTER.c **** 
 746              		.loc 1 751 0
 747              		@ sp needed
 748 0004 7047     		bx	lr
 749              	.L60:
 750 0006 C046     		.align	2
 751              	.L59:
 752 0008 00000000 		.word	Display_I2C_mstrWrBufIndex
 753              		.cfi_endproc
 754              	.LFE8:
 755              		.size	Display_I2C_I2CMasterGetWriteBufSize, .-Display_I2C_I2CMasterGetWriteBufSize
 756              		.section	.text.Display_I2C_I2CMasterClearReadBuf,"ax",%progbits
 757              		.align	2
 758              		.global	Display_I2C_I2CMasterClearReadBuf
 759              		.code	16
 760              		.thumb_func
 761              		.type	Display_I2C_I2CMasterClearReadBuf, %function
 762              	Display_I2C_I2CMasterClearReadBuf:
 763              	.LFB9:
 767:Generated_Source\PSoC4/Display_I2C_I2C_MASTER.c ****     Display_I2C_DisableInt();  /* Lock from interruption */
 764              		.loc 1 767 0
 765              		.cfi_startproc
 766              		@ args = 0, pretend = 0, frame = 0
 767              		@ frame_needed = 0, uses_anonymous_args = 0
 768 0000 10B5     		push	{r4, lr}
 769              		.cfi_def_cfa_offset 8
 770              		.cfi_offset 4, -8
 771              		.cfi_offset 14, -4
 768:Generated_Source\PSoC4/Display_I2C_I2C_MASTER.c **** 
 772              		.loc 1 768 0
 773 0002 0B20     		movs	r0, #11
 774 0004 FFF7FEFF 		bl	CyIntDisable
 775              	.LVL85:
 770:Generated_Source\PSoC4/Display_I2C_I2C_MASTER.c ****     Display_I2C_mstrStatus    &= (uint16) ~Display_I2C_I2C_MSTAT_RD_CMPLT;
 776              		.loc 1 770 0
 777 0008 0022     		movs	r2, #0
 778 000a 054B     		ldr	r3, .L62
 779 000c 1A60     		str	r2, [r3]
ARM GAS  C:\Users\VIDEOH~1\AppData\Local\Temp\ccKwza2q.s 			page 37


 771:Generated_Source\PSoC4/Display_I2C_I2C_MASTER.c **** 
 780              		.loc 1 771 0
 781 000e 054A     		ldr	r2, .L62+4
 782 0010 1388     		ldrh	r3, [r2]
 783 0012 0121     		movs	r1, #1
 784 0014 8B43     		bics	r3, r1
 785 0016 1380     		strh	r3, [r2]
 773:Generated_Source\PSoC4/Display_I2C_I2C_MASTER.c **** }
 786              		.loc 1 773 0
 787 0018 0B20     		movs	r0, #11
 788 001a FFF7FEFF 		bl	CyIntEnable
 789              	.LVL86:
 774:Generated_Source\PSoC4/Display_I2C_I2C_MASTER.c **** 
 790              		.loc 1 774 0
 791              		@ sp needed
 792 001e 10BD     		pop	{r4, pc}
 793              	.L63:
 794              		.align	2
 795              	.L62:
 796 0020 00000000 		.word	Display_I2C_mstrRdBufIndex
 797 0024 00000000 		.word	Display_I2C_mstrStatus
 798              		.cfi_endproc
 799              	.LFE9:
 800              		.size	Display_I2C_I2CMasterClearReadBuf, .-Display_I2C_I2CMasterClearReadBuf
 801              		.section	.text.Display_I2C_I2CMasterClearWriteBuf,"ax",%progbits
 802              		.align	2
 803              		.global	Display_I2C_I2CMasterClearWriteBuf
 804              		.code	16
 805              		.thumb_func
 806              		.type	Display_I2C_I2CMasterClearWriteBuf, %function
 807              	Display_I2C_I2CMasterClearWriteBuf:
 808              	.LFB10:
 790:Generated_Source\PSoC4/Display_I2C_I2C_MASTER.c ****     Display_I2C_DisableInt();  /* Lock from interruption */
 809              		.loc 1 790 0
 810              		.cfi_startproc
 811              		@ args = 0, pretend = 0, frame = 0
 812              		@ frame_needed = 0, uses_anonymous_args = 0
 813 0000 10B5     		push	{r4, lr}
 814              		.cfi_def_cfa_offset 8
 815              		.cfi_offset 4, -8
 816              		.cfi_offset 14, -4
 791:Generated_Source\PSoC4/Display_I2C_I2C_MASTER.c **** 
 817              		.loc 1 791 0
 818 0002 0B20     		movs	r0, #11
 819 0004 FFF7FEFF 		bl	CyIntDisable
 820              	.LVL87:
 793:Generated_Source\PSoC4/Display_I2C_I2C_MASTER.c ****     Display_I2C_mstrStatus    &= (uint16) ~Display_I2C_I2C_MSTAT_WR_CMPLT;
 821              		.loc 1 793 0
 822 0008 0022     		movs	r2, #0
 823 000a 054B     		ldr	r3, .L65
 824 000c 1A60     		str	r2, [r3]
 794:Generated_Source\PSoC4/Display_I2C_I2C_MASTER.c **** 
 825              		.loc 1 794 0
 826 000e 054A     		ldr	r2, .L65+4
 827 0010 1388     		ldrh	r3, [r2]
 828 0012 0221     		movs	r1, #2
 829 0014 8B43     		bics	r3, r1
ARM GAS  C:\Users\VIDEOH~1\AppData\Local\Temp\ccKwza2q.s 			page 38


 830 0016 1380     		strh	r3, [r2]
 796:Generated_Source\PSoC4/Display_I2C_I2C_MASTER.c **** }
 831              		.loc 1 796 0
 832 0018 0B20     		movs	r0, #11
 833 001a FFF7FEFF 		bl	CyIntEnable
 834              	.LVL88:
 797:Generated_Source\PSoC4/Display_I2C_I2C_MASTER.c **** 
 835              		.loc 1 797 0
 836              		@ sp needed
 837 001e 10BD     		pop	{r4, pc}
 838              	.L66:
 839              		.align	2
 840              	.L65:
 841 0020 00000000 		.word	Display_I2C_mstrWrBufIndex
 842 0024 00000000 		.word	Display_I2C_mstrStatus
 843              		.cfi_endproc
 844              	.LFE10:
 845              		.size	Display_I2C_I2CMasterClearWriteBuf, .-Display_I2C_I2CMasterClearWriteBuf
 846              		.section	.text.Display_I2C_I2CMasterStatus,"ax",%progbits
 847              		.align	2
 848              		.global	Display_I2C_I2CMasterStatus
 849              		.code	16
 850              		.thumb_func
 851              		.type	Display_I2C_I2CMasterStatus, %function
 852              	Display_I2C_I2CMasterStatus:
 853              	.LFB11:
 842:Generated_Source\PSoC4/Display_I2C_I2C_MASTER.c ****     uint32 status;
 854              		.loc 1 842 0
 855              		.cfi_startproc
 856              		@ args = 0, pretend = 0, frame = 0
 857              		@ frame_needed = 0, uses_anonymous_args = 0
 858 0000 10B5     		push	{r4, lr}
 859              		.cfi_def_cfa_offset 8
 860              		.cfi_offset 4, -8
 861              		.cfi_offset 14, -4
 845:Generated_Source\PSoC4/Display_I2C_I2C_MASTER.c **** 
 862              		.loc 1 845 0
 863 0002 0B20     		movs	r0, #11
 864 0004 FFF7FEFF 		bl	CyIntDisable
 865              	.LVL89:
 847:Generated_Source\PSoC4/Display_I2C_I2C_MASTER.c **** 
 866              		.loc 1 847 0
 867 0008 074B     		ldr	r3, .L69
 868 000a 1C88     		ldrh	r4, [r3]
 869 000c A2B2     		uxth	r2, r4
 870 000e 1400     		movs	r4, r2
 871              	.LVL90:
 849:Generated_Source\PSoC4/Display_I2C_I2C_MASTER.c ****     {
 872              		.loc 1 849 0
 873 0010 064B     		ldr	r3, .L69+4
 874 0012 1B78     		ldrb	r3, [r3]
 875 0014 9B06     		lsls	r3, r3, #26
 876 0016 02D5     		bpl	.L68
 852:Generated_Source\PSoC4/Display_I2C_I2C_MASTER.c ****     }
 877              		.loc 1 852 0
 878 0018 0423     		movs	r3, #4
 879 001a 1A43     		orrs	r2, r3
ARM GAS  C:\Users\VIDEOH~1\AppData\Local\Temp\ccKwza2q.s 			page 39


 880              	.LVL91:
 881 001c 94B2     		uxth	r4, r2
 882              	.LVL92:
 883              	.L68:
 855:Generated_Source\PSoC4/Display_I2C_I2C_MASTER.c **** 
 884              		.loc 1 855 0
 885 001e 0B20     		movs	r0, #11
 886 0020 FFF7FEFF 		bl	CyIntEnable
 887              	.LVL93:
 858:Generated_Source\PSoC4/Display_I2C_I2C_MASTER.c **** 
 888              		.loc 1 858 0
 889 0024 2000     		movs	r0, r4
 890              		@ sp needed
 891              	.LVL94:
 892 0026 10BD     		pop	{r4, pc}
 893              	.L70:
 894              		.align	2
 895              	.L69:
 896 0028 00000000 		.word	Display_I2C_mstrStatus
 897 002c 00000000 		.word	Display_I2C_state
 898              		.cfi_endproc
 899              	.LFE11:
 900              		.size	Display_I2C_I2CMasterStatus, .-Display_I2C_I2CMasterStatus
 901              		.section	.text.Display_I2C_I2CMasterClearStatus,"ax",%progbits
 902              		.align	2
 903              		.global	Display_I2C_I2CMasterClearStatus
 904              		.code	16
 905              		.thumb_func
 906              		.type	Display_I2C_I2CMasterClearStatus, %function
 907              	Display_I2C_I2CMasterClearStatus:
 908              	.LFB12:
 876:Generated_Source\PSoC4/Display_I2C_I2C_MASTER.c ****     uint32 status;
 909              		.loc 1 876 0
 910              		.cfi_startproc
 911              		@ args = 0, pretend = 0, frame = 0
 912              		@ frame_needed = 0, uses_anonymous_args = 0
 913 0000 10B5     		push	{r4, lr}
 914              		.cfi_def_cfa_offset 8
 915              		.cfi_offset 4, -8
 916              		.cfi_offset 14, -4
 879:Generated_Source\PSoC4/Display_I2C_I2C_MASTER.c **** 
 917              		.loc 1 879 0
 918 0002 0B20     		movs	r0, #11
 919 0004 FFF7FEFF 		bl	CyIntDisable
 920              	.LVL95:
 882:Generated_Source\PSoC4/Display_I2C_I2C_MASTER.c ****     Display_I2C_mstrStatus = Display_I2C_I2C_MSTAT_CLEAR;
 921              		.loc 1 882 0
 922 0008 044B     		ldr	r3, .L72
 923 000a 1C88     		ldrh	r4, [r3]
 924 000c A4B2     		uxth	r4, r4
 925              	.LVL96:
 883:Generated_Source\PSoC4/Display_I2C_I2C_MASTER.c **** 
 926              		.loc 1 883 0
 927 000e 0022     		movs	r2, #0
 928 0010 1A80     		strh	r2, [r3]
 885:Generated_Source\PSoC4/Display_I2C_I2C_MASTER.c **** 
 929              		.loc 1 885 0
ARM GAS  C:\Users\VIDEOH~1\AppData\Local\Temp\ccKwza2q.s 			page 40


 930 0012 0B20     		movs	r0, #11
 931 0014 FFF7FEFF 		bl	CyIntEnable
 932              	.LVL97:
 888:Generated_Source\PSoC4/Display_I2C_I2C_MASTER.c **** 
 933              		.loc 1 888 0
 934 0018 2000     		movs	r0, r4
 935              		@ sp needed
 936              	.LVL98:
 937 001a 10BD     		pop	{r4, pc}
 938              	.L73:
 939              		.align	2
 940              	.L72:
 941 001c 00000000 		.word	Display_I2C_mstrStatus
 942              		.cfi_endproc
 943              	.LFE12:
 944              		.size	Display_I2C_I2CMasterClearStatus, .-Display_I2C_I2CMasterClearStatus
 945              		.section	.text.Display_I2C_I2CReStartGeneration,"ax",%progbits
 946              		.align	2
 947              		.global	Display_I2C_I2CReStartGeneration
 948              		.code	16
 949              		.thumb_func
 950              		.type	Display_I2C_I2CReStartGeneration, %function
 951              	Display_I2C_I2CReStartGeneration:
 952              	.LFB13:
 920:Generated_Source\PSoC4/Display_I2C_I2C_MASTER.c **** #if(Display_I2C_CY_SCBIP_V0)
 953              		.loc 1 920 0
 954              		.cfi_startproc
 955              		@ args = 0, pretend = 0, frame = 0
 956              		@ frame_needed = 0, uses_anonymous_args = 0
 957 0000 70B5     		push	{r4, r5, r6, lr}
 958              		.cfi_def_cfa_offset 16
 959              		.cfi_offset 4, -16
 960              		.cfi_offset 5, -12
 961              		.cfi_offset 6, -8
 962              		.cfi_offset 14, -4
 963              	.LVL99:
 932:Generated_Source\PSoC4/Display_I2C_I2C_MASTER.c **** 
 964              		.loc 1 932 0
 965 0002 2C4B     		ldr	r3, .L84
 966 0004 1B68     		ldr	r3, [r3]
 967 0006 2025     		movs	r5, #32
 968 0008 1D40     		ands	r5, r3
 969              	.LVL100:
 929:Generated_Source\PSoC4/Display_I2C_I2C_MASTER.c **** 
 970              		.loc 1 929 0
 971 000a 2B4C     		ldr	r4, .L84+4
 935:Generated_Source\PSoC4/Display_I2C_I2C_MASTER.c ****     {
 972              		.loc 1 935 0
 973 000c 03E0     		b	.L75
 974              	.LVL101:
 975              	.L77:
 937:Generated_Source\PSoC4/Display_I2C_I2C_MASTER.c ****         --timeout;
 976              		.loc 1 937 0
 977 000e 0120     		movs	r0, #1
 978 0010 FFF7FEFF 		bl	CyDelayUs
 979              	.LVL102:
 938:Generated_Source\PSoC4/Display_I2C_I2C_MASTER.c ****     }
ARM GAS  C:\Users\VIDEOH~1\AppData\Local\Temp\ccKwza2q.s 			page 41


 980              		.loc 1 938 0
 981 0014 013C     		subs	r4, r4, #1
 982              	.LVL103:
 983              	.L75:
 935:Generated_Source\PSoC4/Display_I2C_I2C_MASTER.c ****     {
 984              		.loc 1 935 0
 985 0016 FFF7FEFF 		bl	Display_I2C_sda_Read
 986              	.LVL104:
 987 001a 0028     		cmp	r0, #0
 988 001c 01D1     		bne	.L76
 935:Generated_Source\PSoC4/Display_I2C_I2C_MASTER.c ****     {
 989              		.loc 1 935 0 is_stmt 0 discriminator 1
 990 001e 002C     		cmp	r4, #0
 991 0020 F5D1     		bne	.L77
 992              	.L76:
 941:Generated_Source\PSoC4/Display_I2C_I2C_MASTER.c ****     {
 993              		.loc 1 941 0 is_stmt 1
 994 0022 002C     		cmp	r4, #0
 995 0024 44D0     		beq	.L74
 996              	.LVL105:
 947:Generated_Source\PSoC4/Display_I2C_I2C_MASTER.c ****         Display_I2C_SET_I2C_SCL_HSIOM_SEL(Display_I2C_HSIOM_GPIO_SEL);
 997              		.loc 1 947 0
 998 0026 0020     		movs	r0, #0
 999 0028 FFF7FEFF 		bl	Display_I2C_scl_Write
 1000              	.LVL106:
 948:Generated_Source\PSoC4/Display_I2C_I2C_MASTER.c **** 
 1001              		.loc 1 948 0
 1002 002c 234A     		ldr	r2, .L84+8
 1003 002e 1168     		ldr	r1, [r2]
 1004 0030 234B     		ldr	r3, .L84+12
 1005 0032 0B40     		ands	r3, r1
 1006 0034 1360     		str	r3, [r2]
 951:Generated_Source\PSoC4/Display_I2C_I2C_MASTER.c **** 
 1007              		.loc 1 951 0
 1008 0036 234A     		ldr	r2, .L84+16
 1009 0038 1368     		ldr	r3, [r2]
 1010 003a 5B00     		lsls	r3, r3, #1
 1011 003c 5B08     		lsrs	r3, r3, #1
 1012 003e 1360     		str	r3, [r2]
 953:Generated_Source\PSoC4/Display_I2C_I2C_MASTER.c ****         {
 1013              		.loc 1 953 0
 1014 0040 002D     		cmp	r5, #0
 1015 0042 18D0     		beq	.L83
 958:Generated_Source\PSoC4/Display_I2C_I2C_MASTER.c ****             CyDelayUs(Display_I2C_I2C_TLOW_TIME);
 1016              		.loc 1 958 0
 1017 0044 0020     		movs	r0, #0
 1018 0046 FFF7FEFF 		bl	Display_I2C_scl_Write
 1019              	.LVL107:
 959:Generated_Source\PSoC4/Display_I2C_I2C_MASTER.c **** 
 1020              		.loc 1 959 0
 1021 004a 0320     		movs	r0, #3
 1022 004c FFF7FEFF 		bl	CyDelayUs
 1023              	.LVL108:
 962:Generated_Source\PSoC4/Display_I2C_I2C_MASTER.c ****             CyDelayUs(Display_I2C_I2C_THIGH_TIME);
 1024              		.loc 1 962 0
 1025 0050 0120     		movs	r0, #1
 1026 0052 FFF7FEFF 		bl	Display_I2C_scl_Write
ARM GAS  C:\Users\VIDEOH~1\AppData\Local\Temp\ccKwza2q.s 			page 42


 1027              	.LVL109:
 963:Generated_Source\PSoC4/Display_I2C_I2C_MASTER.c **** 
 1028              		.loc 1 963 0
 1029 0056 0320     		movs	r0, #3
 1030 0058 FFF7FEFF 		bl	CyDelayUs
 1031              	.LVL110:
 944:Generated_Source\PSoC4/Display_I2C_I2C_MASTER.c **** 
 1032              		.loc 1 944 0
 1033 005c 164C     		ldr	r4, .L84+4
 966:Generated_Source\PSoC4/Display_I2C_I2C_MASTER.c ****             {
 1034              		.loc 1 966 0
 1035 005e 03E0     		b	.L80
 1036              	.LVL111:
 1037              	.L81:
 968:Generated_Source\PSoC4/Display_I2C_I2C_MASTER.c ****                 --timeout;
 1038              		.loc 1 968 0
 1039 0060 0120     		movs	r0, #1
 1040 0062 FFF7FEFF 		bl	CyDelayUs
 1041              	.LVL112:
 969:Generated_Source\PSoC4/Display_I2C_I2C_MASTER.c ****             }
 1042              		.loc 1 969 0
 1043 0066 013C     		subs	r4, r4, #1
 1044              	.LVL113:
 1045              	.L80:
 966:Generated_Source\PSoC4/Display_I2C_I2C_MASTER.c ****             {
 1046              		.loc 1 966 0
 1047 0068 FFF7FEFF 		bl	Display_I2C_scl_Read
 1048              	.LVL114:
 1049 006c 0028     		cmp	r0, #0
 1050 006e 03D1     		bne	.L79
 966:Generated_Source\PSoC4/Display_I2C_I2C_MASTER.c ****             {
 1051              		.loc 1 966 0 is_stmt 0 discriminator 1
 1052 0070 002C     		cmp	r4, #0
 1053 0072 F5D1     		bne	.L81
 1054 0074 00E0     		b	.L79
 1055              	.LVL115:
 1056              	.L83:
 944:Generated_Source\PSoC4/Display_I2C_I2C_MASTER.c **** 
 1057              		.loc 1 944 0 is_stmt 1
 1058 0076 104C     		ldr	r4, .L84+4
 1059              	.LVL116:
 1060              	.L79:
 973:Generated_Source\PSoC4/Display_I2C_I2C_MASTER.c ****         {
 1061              		.loc 1 973 0
 1062 0078 002C     		cmp	r4, #0
 1063 007a 08D0     		beq	.L82
 976:Generated_Source\PSoC4/Display_I2C_I2C_MASTER.c ****             CyDelayUs(Display_I2C_I2C_TLOW_TIME);
 1064              		.loc 1 976 0
 1065 007c 0020     		movs	r0, #0
 1066 007e FFF7FEFF 		bl	Display_I2C_scl_Write
 1067              	.LVL117:
 977:Generated_Source\PSoC4/Display_I2C_I2C_MASTER.c **** 
 1068              		.loc 1 977 0
 1069 0082 0320     		movs	r0, #3
 1070 0084 FFF7FEFF 		bl	CyDelayUs
 1071              	.LVL118:
 980:Generated_Source\PSoC4/Display_I2C_I2C_MASTER.c ****         }
ARM GAS  C:\Users\VIDEOH~1\AppData\Local\Temp\ccKwza2q.s 			page 43


 1072              		.loc 1 980 0
 1073 0088 0122     		movs	r2, #1
 1074 008a 0F4B     		ldr	r3, .L84+20
 1075 008c 1A60     		str	r2, [r3]
 1076              	.L82:
 986:Generated_Source\PSoC4/Display_I2C_I2C_MASTER.c **** 
 1077              		.loc 1 986 0
 1078 008e 0D4A     		ldr	r2, .L84+16
 1079 0090 1368     		ldr	r3, [r2]
 1080 0092 8021     		movs	r1, #128
 1081 0094 0906     		lsls	r1, r1, #24
 1082 0096 0B43     		orrs	r3, r1
 1083 0098 1360     		str	r3, [r2]
 989:Generated_Source\PSoC4/Display_I2C_I2C_MASTER.c ****         Display_I2C_SET_I2C_SCL_DR       (Display_I2C_I2C_SCL_HIGH);
 1084              		.loc 1 989 0
 1085 009a 084A     		ldr	r2, .L84+8
 1086 009c 1168     		ldr	r1, [r2]
 1087 009e 084B     		ldr	r3, .L84+12
 1088 00a0 0B40     		ands	r3, r1
 1089 00a2 E021     		movs	r1, #224
 1090 00a4 0903     		lsls	r1, r1, #12
 1091 00a6 0B43     		orrs	r3, r1
 1092 00a8 1360     		str	r3, [r2]
 990:Generated_Source\PSoC4/Display_I2C_I2C_MASTER.c ****     }
 1093              		.loc 1 990 0
 1094 00aa 0120     		movs	r0, #1
 1095 00ac FFF7FEFF 		bl	Display_I2C_scl_Write
 1096              	.LVL119:
 1097              	.L74:
1002:Generated_Source\PSoC4/Display_I2C_I2C_MASTER.c **** 
 1098              		.loc 1 1002 0
 1099              		@ sp needed
 1100              	.LVL120:
 1101              	.LVL121:
 1102 00b0 70BD     		pop	{r4, r5, r6, pc}
 1103              	.L85:
 1104 00b2 C046     		.align	2
 1105              	.L84:
 1106 00b4 64000740 		.word	1074200676
 1107 00b8 204E0000 		.word	20000
 1108 00bc 00000140 		.word	1073807360
 1109 00c0 FFFFF0FF 		.word	-983041
 1110 00c4 00000740 		.word	1074200576
 1111 00c8 68000740 		.word	1074200680
 1112              		.cfi_endproc
 1113              	.LFE13:
 1114              		.size	Display_I2C_I2CReStartGeneration, .-Display_I2C_I2CReStartGeneration
 1115              		.section	.text.Display_I2C_I2CMasterWriteBuf,"ax",%progbits
 1116              		.align	2
 1117              		.global	Display_I2C_I2CMasterWriteBuf
 1118              		.code	16
 1119              		.thumb_func
 1120              		.type	Display_I2C_I2CMasterWriteBuf, %function
 1121              	Display_I2C_I2CMasterWriteBuf:
 1122              	.LFB0:
 104:Generated_Source\PSoC4/Display_I2C_I2C_MASTER.c ****     uint32 errStatus;
 1123              		.loc 1 104 0
ARM GAS  C:\Users\VIDEOH~1\AppData\Local\Temp\ccKwza2q.s 			page 44


 1124              		.cfi_startproc
 1125              		@ args = 0, pretend = 0, frame = 8
 1126              		@ frame_needed = 0, uses_anonymous_args = 0
 1127              	.LVL122:
 1128 0000 F0B5     		push	{r4, r5, r6, r7, lr}
 1129              		.cfi_def_cfa_offset 20
 1130              		.cfi_offset 4, -20
 1131              		.cfi_offset 5, -16
 1132              		.cfi_offset 6, -12
 1133              		.cfi_offset 7, -8
 1134              		.cfi_offset 14, -4
 1135 0002 83B0     		sub	sp, sp, #12
 1136              		.cfi_def_cfa_offset 32
 1137 0004 0190     		str	r0, [sp, #4]
 1138 0006 0C00     		movs	r4, r1
 1139 0008 1700     		movs	r7, r2
 1140 000a 1D00     		movs	r5, r3
 1141              	.LVL123:
 109:Generated_Source\PSoC4/Display_I2C_I2C_MASTER.c ****     {
 1142              		.loc 1 109 0
 1143 000c 0029     		cmp	r1, #0
 1144 000e 17D0     		beq	.L91
 112:Generated_Source\PSoC4/Display_I2C_I2C_MASTER.c ****         {
 1145              		.loc 1 112 0
 1146 0010 2A4B     		ldr	r3, .L94
 1147              	.LVL124:
 1148 0012 1B78     		ldrb	r3, [r3]
 1149 0014 102B     		cmp	r3, #16
 1150 0016 08D1     		bne	.L88
 114:Generated_Source\PSoC4/Display_I2C_I2C_MASTER.c **** 
 1151              		.loc 1 114 0
 1152 0018 0B20     		movs	r0, #11
 1153              	.LVL125:
 1154 001a FFF7FEFF 		bl	CyIntDisable
 1155              	.LVL126:
 117:Generated_Source\PSoC4/Display_I2C_I2C_MASTER.c ****                             Display_I2C_I2C_MSTR_BUS_BUSY : Display_I2C_I2C_MSTR_NO_ERROR;
 1156              		.loc 1 117 0
 1157 001e 284B     		ldr	r3, .L94+4
 1158 0020 1B68     		ldr	r3, [r3]
 1159 0022 DB07     		lsls	r3, r3, #31
 1160 0024 0ED5     		bpl	.L92
 1161 0026 0826     		movs	r6, #8
 1162 0028 0FE0     		b	.L87
 1163              	.LVL127:
 1164              	.L88:
 120:Generated_Source\PSoC4/Display_I2C_I2C_MASTER.c ****         {
 1165              		.loc 1 120 0
 1166 002a 244B     		ldr	r3, .L94
 1167 002c 1B78     		ldrb	r3, [r3]
 1168 002e 602B     		cmp	r3, #96
 1169 0030 0AD1     		bne	.L93
 122:Generated_Source\PSoC4/Display_I2C_I2C_MASTER.c ****                               errStatus  = Display_I2C_I2C_MSTR_NO_ERROR;
 1170              		.loc 1 122 0
 1171 0032 244A     		ldr	r2, .L94+8
 1172              	.LVL128:
 1173 0034 1388     		ldrh	r3, [r2]
 1174 0036 0821     		movs	r1, #8
ARM GAS  C:\Users\VIDEOH~1\AppData\Local\Temp\ccKwza2q.s 			page 45


 1175              	.LVL129:
 1176 0038 8B43     		bics	r3, r1
 1177 003a 1380     		strh	r3, [r2]
 1178              	.LVL130:
 123:Generated_Source\PSoC4/Display_I2C_I2C_MASTER.c ****         }
 1179              		.loc 1 123 0
 1180 003c 0026     		movs	r6, #0
 1181 003e 04E0     		b	.L87
 1182              	.LVL131:
 1183              	.L91:
 107:Generated_Source\PSoC4/Display_I2C_I2C_MASTER.c **** 
 1184              		.loc 1 107 0
 1185 0040 0426     		movs	r6, #4
 1186 0042 02E0     		b	.L87
 1187              	.LVL132:
 1188              	.L92:
 117:Generated_Source\PSoC4/Display_I2C_I2C_MASTER.c ****                             Display_I2C_I2C_MSTR_BUS_BUSY : Display_I2C_I2C_MSTR_NO_ERROR;
 1189              		.loc 1 117 0
 1190 0044 0026     		movs	r6, #0
 1191 0046 00E0     		b	.L87
 1192              	.LVL133:
 1193              	.L93:
 107:Generated_Source\PSoC4/Display_I2C_I2C_MASTER.c **** 
 1194              		.loc 1 107 0
 1195 0048 0426     		movs	r6, #4
 1196              	.LVL134:
 1197              	.L87:
 132:Generated_Source\PSoC4/Display_I2C_I2C_MASTER.c ****     {
 1198              		.loc 1 132 0
 1199 004a 002E     		cmp	r6, #0
 1200 004c 2FD1     		bne	.L89
 138:Generated_Source\PSoC4/Display_I2C_I2C_MASTER.c ****         Display_I2C_mstrWrBufIndexTmp = 0u;
 1201              		.loc 1 138 0
 1202 004e 2822     		movs	r2, #40
 1203 0050 1A4B     		ldr	r3, .L94
 1204 0052 1A70     		strb	r2, [r3]
 139:Generated_Source\PSoC4/Display_I2C_I2C_MASTER.c ****         Display_I2C_mstrWrBufIndex    = 0u;
 1205              		.loc 1 139 0
 1206 0054 0023     		movs	r3, #0
 1207 0056 1C4A     		ldr	r2, .L94+12
 1208 0058 1360     		str	r3, [r2]
 140:Generated_Source\PSoC4/Display_I2C_I2C_MASTER.c ****         Display_I2C_mstrWrBufSize     = cnt;
 1209              		.loc 1 140 0
 1210 005a 1C4A     		ldr	r2, .L94+16
 1211 005c 1360     		str	r3, [r2]
 141:Generated_Source\PSoC4/Display_I2C_I2C_MASTER.c ****         Display_I2C_mstrWrBufPtr      = (volatile uint8 *) wrData;
 1212              		.loc 1 141 0
 1213 005e 1C4B     		ldr	r3, .L94+20
 1214 0060 1F60     		str	r7, [r3]
 142:Generated_Source\PSoC4/Display_I2C_I2C_MASTER.c ****         Display_I2C_mstrControl       = (uint8) mode;
 1215              		.loc 1 142 0
 1216 0062 1C4B     		ldr	r3, .L94+24
 1217 0064 1C60     		str	r4, [r3]
 143:Generated_Source\PSoC4/Display_I2C_I2C_MASTER.c **** 
 1218              		.loc 1 143 0
 1219 0066 EAB2     		uxtb	r2, r5
 1220 0068 1B4B     		ldr	r3, .L94+28
ARM GAS  C:\Users\VIDEOH~1\AppData\Local\Temp\ccKwza2q.s 			page 46


 1221 006a 1A70     		strb	r2, [r3]
 145:Generated_Source\PSoC4/Display_I2C_I2C_MASTER.c **** 
 1222              		.loc 1 145 0
 1223 006c 019B     		ldr	r3, [sp, #4]
 1224 006e 5C00     		lsls	r4, r3, #1
 1225              	.LVL135:
 1226 0070 FF23     		movs	r3, #255
 1227 0072 1C40     		ands	r4, r3
 1228              	.LVL136:
 147:Generated_Source\PSoC4/Display_I2C_I2C_MASTER.c **** 
 1229              		.loc 1 147 0
 1230 0074 134A     		ldr	r2, .L94+8
 1231 0076 1388     		ldrh	r3, [r2]
 1232 0078 0221     		movs	r1, #2
 1233 007a 8B43     		bics	r3, r1
 1234 007c 1380     		strh	r3, [r2]
 149:Generated_Source\PSoC4/Display_I2C_I2C_MASTER.c ****         Display_I2C_ClearMasterInterruptSource(Display_I2C_INTR_MASTER_ALL);
 1235              		.loc 1 149 0
 1236 007e 4023     		movs	r3, #64
 1237 0080 164A     		ldr	r2, .L94+32
 1238 0082 1360     		str	r3, [r2]
 1239              	.LVL137:
 150:Generated_Source\PSoC4/Display_I2C_I2C_MASTER.c ****         Display_I2C_SetMasterInterruptMode    (Display_I2C_I2C_INTR_MASTER_MASK);
 1240              		.loc 1 150 0
 1241 0084 1649     		ldr	r1, .L94+36
 1242 0086 174A     		ldr	r2, .L94+40
 1243 0088 1160     		str	r1, [r2]
 151:Generated_Source\PSoC4/Display_I2C_I2C_MASTER.c **** 
 1244              		.loc 1 151 0
 1245 008a 1421     		movs	r1, #20
 1246 008c FF31     		adds	r1, r1, #255
 1247 008e 164A     		ldr	r2, .L94+44
 1248 0090 1160     		str	r1, [r2]
 156:Generated_Source\PSoC4/Display_I2C_I2C_MASTER.c **** 
 1249              		.loc 1 156 0
 1250 0092 164A     		ldr	r2, .L94+48
 1251 0094 1360     		str	r3, [r2]
 159:Generated_Source\PSoC4/Display_I2C_I2C_MASTER.c ****         {
 1252              		.loc 1 159 0
 1253 0096 EB07     		lsls	r3, r5, #31
 1254 0098 04D5     		bpl	.L90
 161:Generated_Source\PSoC4/Display_I2C_I2C_MASTER.c ****             Display_I2C_TX_FIFO_WR_REG = slaveAddress;
 1255              		.loc 1 161 0
 1256 009a FFF7FEFF 		bl	Display_I2C_I2CReStartGeneration
 1257              	.LVL138:
 162:Generated_Source\PSoC4/Display_I2C_I2C_MASTER.c ****         }
 1258              		.loc 1 162 0
 1259 009e 144B     		ldr	r3, .L94+52
 1260 00a0 1C60     		str	r4, [r3]
 1261 00a2 04E0     		b	.L89
 1262              	.L90:
 166:Generated_Source\PSoC4/Display_I2C_I2C_MASTER.c ****             Display_I2C_I2C_MASTER_GENERATE_START;
 1263              		.loc 1 166 0
 1264 00a4 124B     		ldr	r3, .L94+52
 1265 00a6 1C60     		str	r4, [r3]
 167:Generated_Source\PSoC4/Display_I2C_I2C_MASTER.c ****         }
 1266              		.loc 1 167 0
ARM GAS  C:\Users\VIDEOH~1\AppData\Local\Temp\ccKwza2q.s 			page 47


 1267 00a8 0222     		movs	r2, #2
 1268 00aa 124B     		ldr	r3, .L94+56
 1269 00ac 1A60     		str	r2, [r3]
 1270              	.LVL139:
 1271              	.L89:
 171:Generated_Source\PSoC4/Display_I2C_I2C_MASTER.c **** 
 1272              		.loc 1 171 0
 1273 00ae 0B20     		movs	r0, #11
 1274 00b0 FFF7FEFF 		bl	CyIntEnable
 1275              	.LVL140:
 174:Generated_Source\PSoC4/Display_I2C_I2C_MASTER.c **** 
 1276              		.loc 1 174 0
 1277 00b4 3000     		movs	r0, r6
 1278 00b6 03B0     		add	sp, sp, #12
 1279              		@ sp needed
 1280              	.LVL141:
 1281              	.LVL142:
 1282              	.LVL143:
 1283 00b8 F0BD     		pop	{r4, r5, r6, r7, pc}
 1284              	.L95:
 1285 00ba C046     		.align	2
 1286              	.L94:
 1287 00bc 00000000 		.word	Display_I2C_state
 1288 00c0 64000740 		.word	1074200676
 1289 00c4 00000000 		.word	Display_I2C_mstrStatus
 1290 00c8 00000000 		.word	Display_I2C_mstrWrBufIndexTmp
 1291 00cc 00000000 		.word	Display_I2C_mstrWrBufIndex
 1292 00d0 00000000 		.word	Display_I2C_mstrWrBufSize
 1293 00d4 00000000 		.word	Display_I2C_mstrWrBufPtr
 1294 00d8 00000000 		.word	Display_I2C_mstrControl
 1295 00dc 800F0740 		.word	1074204544
 1296 00e0 17030000 		.word	791
 1297 00e4 000F0740 		.word	1074204416
 1298 00e8 080F0740 		.word	1074204424
 1299 00ec 880F0740 		.word	1074204552
 1300 00f0 40020740 		.word	1074201152
 1301 00f4 68000740 		.word	1074200680
 1302              		.cfi_endproc
 1303              	.LFE0:
 1304              		.size	Display_I2C_I2CMasterWriteBuf, .-Display_I2C_I2CMasterWriteBuf
 1305              		.section	.text.Display_I2C_I2CMasterReadBuf,"ax",%progbits
 1306              		.align	2
 1307              		.global	Display_I2C_I2CMasterReadBuf
 1308              		.code	16
 1309              		.thumb_func
 1310              		.type	Display_I2C_I2CMasterReadBuf, %function
 1311              	Display_I2C_I2CMasterReadBuf:
 1312              	.LFB1:
 214:Generated_Source\PSoC4/Display_I2C_I2C_MASTER.c ****     uint32 errStatus;
 1313              		.loc 1 214 0
 1314              		.cfi_startproc
 1315              		@ args = 0, pretend = 0, frame = 8
 1316              		@ frame_needed = 0, uses_anonymous_args = 0
 1317              	.LVL144:
 1318 0000 F0B5     		push	{r4, r5, r6, r7, lr}
 1319              		.cfi_def_cfa_offset 20
 1320              		.cfi_offset 4, -20
ARM GAS  C:\Users\VIDEOH~1\AppData\Local\Temp\ccKwza2q.s 			page 48


 1321              		.cfi_offset 5, -16
 1322              		.cfi_offset 6, -12
 1323              		.cfi_offset 7, -8
 1324              		.cfi_offset 14, -4
 1325 0002 83B0     		sub	sp, sp, #12
 1326              		.cfi_def_cfa_offset 32
 1327 0004 0190     		str	r0, [sp, #4]
 1328 0006 0C00     		movs	r4, r1
 1329 0008 1700     		movs	r7, r2
 1330 000a 1D00     		movs	r5, r3
 1331              	.LVL145:
 219:Generated_Source\PSoC4/Display_I2C_I2C_MASTER.c ****     {
 1332              		.loc 1 219 0
 1333 000c 0029     		cmp	r1, #0
 1334 000e 17D0     		beq	.L103
 222:Generated_Source\PSoC4/Display_I2C_I2C_MASTER.c ****         {
 1335              		.loc 1 222 0
 1336 0010 2F4B     		ldr	r3, .L106
 1337              	.LVL146:
 1338 0012 1B78     		ldrb	r3, [r3]
 1339 0014 102B     		cmp	r3, #16
 1340 0016 08D1     		bne	.L98
 224:Generated_Source\PSoC4/Display_I2C_I2C_MASTER.c **** 
 1341              		.loc 1 224 0
 1342 0018 0B20     		movs	r0, #11
 1343              	.LVL147:
 1344 001a FFF7FEFF 		bl	CyIntDisable
 1345              	.LVL148:
 227:Generated_Source\PSoC4/Display_I2C_I2C_MASTER.c ****                             Display_I2C_I2C_MSTR_BUS_BUSY : Display_I2C_I2C_MSTR_NO_ERROR;
 1346              		.loc 1 227 0
 1347 001e 2D4B     		ldr	r3, .L106+4
 1348 0020 1B68     		ldr	r3, [r3]
 1349 0022 DB07     		lsls	r3, r3, #31
 1350 0024 0ED5     		bpl	.L104
 1351 0026 0826     		movs	r6, #8
 1352 0028 0FE0     		b	.L97
 1353              	.LVL149:
 1354              	.L98:
 230:Generated_Source\PSoC4/Display_I2C_I2C_MASTER.c ****         {
 1355              		.loc 1 230 0
 1356 002a 294B     		ldr	r3, .L106
 1357 002c 1B78     		ldrb	r3, [r3]
 1358 002e 602B     		cmp	r3, #96
 1359 0030 0AD1     		bne	.L105
 232:Generated_Source\PSoC4/Display_I2C_I2C_MASTER.c ****                               errStatus  =  Display_I2C_I2C_MSTR_NO_ERROR;
 1360              		.loc 1 232 0
 1361 0032 294A     		ldr	r2, .L106+8
 1362              	.LVL150:
 1363 0034 1388     		ldrh	r3, [r2]
 1364 0036 0821     		movs	r1, #8
 1365              	.LVL151:
 1366 0038 8B43     		bics	r3, r1
 1367 003a 1380     		strh	r3, [r2]
 1368              	.LVL152:
 233:Generated_Source\PSoC4/Display_I2C_I2C_MASTER.c ****         }
 1369              		.loc 1 233 0
 1370 003c 0026     		movs	r6, #0
ARM GAS  C:\Users\VIDEOH~1\AppData\Local\Temp\ccKwza2q.s 			page 49


 1371 003e 04E0     		b	.L97
 1372              	.LVL153:
 1373              	.L103:
 217:Generated_Source\PSoC4/Display_I2C_I2C_MASTER.c **** 
 1374              		.loc 1 217 0
 1375 0040 0426     		movs	r6, #4
 1376 0042 02E0     		b	.L97
 1377              	.LVL154:
 1378              	.L104:
 227:Generated_Source\PSoC4/Display_I2C_I2C_MASTER.c ****                             Display_I2C_I2C_MSTR_BUS_BUSY : Display_I2C_I2C_MSTR_NO_ERROR;
 1379              		.loc 1 227 0
 1380 0044 0026     		movs	r6, #0
 1381 0046 00E0     		b	.L97
 1382              	.LVL155:
 1383              	.L105:
 217:Generated_Source\PSoC4/Display_I2C_I2C_MASTER.c **** 
 1384              		.loc 1 217 0
 1385 0048 0426     		movs	r6, #4
 1386              	.LVL156:
 1387              	.L97:
 242:Generated_Source\PSoC4/Display_I2C_I2C_MASTER.c ****     {
 1388              		.loc 1 242 0
 1389 004a 002E     		cmp	r6, #0
 1390 004c 39D1     		bne	.L99
 248:Generated_Source\PSoC4/Display_I2C_I2C_MASTER.c ****         Display_I2C_mstrRdBufIndex = 0u;
 1391              		.loc 1 248 0
 1392 004e 2922     		movs	r2, #41
 1393 0050 1F4B     		ldr	r3, .L106
 1394 0052 1A70     		strb	r2, [r3]
 249:Generated_Source\PSoC4/Display_I2C_I2C_MASTER.c ****         Display_I2C_mstrRdBufSize  = cnt;
 1395              		.loc 1 249 0
 1396 0054 0022     		movs	r2, #0
 1397 0056 214B     		ldr	r3, .L106+12
 1398 0058 1A60     		str	r2, [r3]
 250:Generated_Source\PSoC4/Display_I2C_I2C_MASTER.c ****         Display_I2C_mstrRdBufPtr   = (volatile uint8 *) rdData;
 1399              		.loc 1 250 0
 1400 005a 214A     		ldr	r2, .L106+16
 1401 005c 1760     		str	r7, [r2]
 251:Generated_Source\PSoC4/Display_I2C_I2C_MASTER.c ****         Display_I2C_mstrControl    = (uint8) mode;
 1402              		.loc 1 251 0
 1403 005e 214B     		ldr	r3, .L106+20
 1404 0060 1C60     		str	r4, [r3]
 252:Generated_Source\PSoC4/Display_I2C_I2C_MASTER.c **** 
 1405              		.loc 1 252 0
 1406 0062 EBB2     		uxtb	r3, r5
 1407 0064 2049     		ldr	r1, .L106+24
 1408 0066 0B70     		strb	r3, [r1]
 254:Generated_Source\PSoC4/Display_I2C_I2C_MASTER.c **** 
 1409              		.loc 1 254 0
 1410 0068 019B     		ldr	r3, [sp, #4]
 1411 006a 5C00     		lsls	r4, r3, #1
 1412              	.LVL157:
 1413 006c FF23     		movs	r3, #255
 1414 006e 1C40     		ands	r4, r3
 1415 0070 0120     		movs	r0, #1
 1416 0072 0443     		orrs	r4, r0
 1417              	.LVL158:
ARM GAS  C:\Users\VIDEOH~1\AppData\Local\Temp\ccKwza2q.s 			page 50


 256:Generated_Source\PSoC4/Display_I2C_I2C_MASTER.c **** 
 1418              		.loc 1 256 0
 1419 0074 1849     		ldr	r1, .L106+8
 1420 0076 0B88     		ldrh	r3, [r1]
 1421 0078 8343     		bics	r3, r0
 1422 007a 0B80     		strh	r3, [r1]
 258:Generated_Source\PSoC4/Display_I2C_I2C_MASTER.c ****         Display_I2C_SetMasterInterruptMode    (Display_I2C_I2C_INTR_MASTER_MASK);
 1423              		.loc 1 258 0
 1424 007c 1B49     		ldr	r1, .L106+28
 1425 007e 1C4B     		ldr	r3, .L106+32
 1426 0080 1960     		str	r1, [r3]
 1427              	.LVL159:
 259:Generated_Source\PSoC4/Display_I2C_I2C_MASTER.c **** 
 1428              		.loc 1 259 0
 1429 0082 1421     		movs	r1, #20
 1430 0084 FF31     		adds	r1, r1, #255
 1431 0086 1B4B     		ldr	r3, .L106+36
 1432 0088 1960     		str	r1, [r3]
 264:Generated_Source\PSoC4/Display_I2C_I2C_MASTER.c ****         {
 1433              		.loc 1 264 0
 1434 008a 1368     		ldr	r3, [r2]
 1435 008c 072B     		cmp	r3, #7
 1436 008e 03D8     		bhi	.L100
 267:Generated_Source\PSoC4/Display_I2C_I2C_MASTER.c ****         }
 1437              		.loc 1 267 0
 1438 0090 0422     		movs	r2, #4
 1439 0092 194B     		ldr	r3, .L106+40
 1440 0094 1A60     		str	r2, [r3]
 1441 0096 08E0     		b	.L101
 1442              	.L100:
 272:Generated_Source\PSoC4/Display_I2C_I2C_MASTER.c ****             Display_I2C_SetRxInterruptMode(Display_I2C_INTR_RX_FULL);
 1443              		.loc 1 272 0
 1444 0098 184A     		ldr	r2, .L106+44
 1445 009a 1368     		ldr	r3, [r2]
 1446 009c 8021     		movs	r1, #128
 1447 009e 4900     		lsls	r1, r1, #1
 1448 00a0 0B43     		orrs	r3, r1
 1449 00a2 1360     		str	r3, [r2]
 273:Generated_Source\PSoC4/Display_I2C_I2C_MASTER.c ****         }
 1450              		.loc 1 273 0
 1451 00a4 0822     		movs	r2, #8
 1452 00a6 144B     		ldr	r3, .L106+40
 1453 00a8 1A60     		str	r2, [r3]
 1454              	.L101:
 277:Generated_Source\PSoC4/Display_I2C_I2C_MASTER.c ****         {
 1455              		.loc 1 277 0
 1456 00aa EB07     		lsls	r3, r5, #31
 1457 00ac 04D5     		bpl	.L102
 279:Generated_Source\PSoC4/Display_I2C_I2C_MASTER.c ****             Display_I2C_TX_FIFO_WR_REG = slaveAddress;
 1458              		.loc 1 279 0
 1459 00ae FFF7FEFF 		bl	Display_I2C_I2CReStartGeneration
 1460              	.LVL160:
 280:Generated_Source\PSoC4/Display_I2C_I2C_MASTER.c ****         }
 1461              		.loc 1 280 0
 1462 00b2 134B     		ldr	r3, .L106+48
 1463 00b4 1C60     		str	r4, [r3]
 1464 00b6 04E0     		b	.L99
ARM GAS  C:\Users\VIDEOH~1\AppData\Local\Temp\ccKwza2q.s 			page 51


 1465              	.L102:
 284:Generated_Source\PSoC4/Display_I2C_I2C_MASTER.c ****             Display_I2C_I2C_MASTER_GENERATE_START;
 1466              		.loc 1 284 0
 1467 00b8 114B     		ldr	r3, .L106+48
 1468 00ba 1C60     		str	r4, [r3]
 285:Generated_Source\PSoC4/Display_I2C_I2C_MASTER.c ****         }
 1469              		.loc 1 285 0
 1470 00bc 0222     		movs	r2, #2
 1471 00be 114B     		ldr	r3, .L106+52
 1472 00c0 1A60     		str	r2, [r3]
 1473              	.LVL161:
 1474              	.L99:
 289:Generated_Source\PSoC4/Display_I2C_I2C_MASTER.c **** 
 1475              		.loc 1 289 0
 1476 00c2 0B20     		movs	r0, #11
 1477 00c4 FFF7FEFF 		bl	CyIntEnable
 1478              	.LVL162:
 292:Generated_Source\PSoC4/Display_I2C_I2C_MASTER.c **** 
 1479              		.loc 1 292 0
 1480 00c8 3000     		movs	r0, r6
 1481 00ca 03B0     		add	sp, sp, #12
 1482              		@ sp needed
 1483              	.LVL163:
 1484              	.LVL164:
 1485              	.LVL165:
 1486 00cc F0BD     		pop	{r4, r5, r6, r7, pc}
 1487              	.L107:
 1488 00ce C046     		.align	2
 1489              	.L106:
 1490 00d0 00000000 		.word	Display_I2C_state
 1491 00d4 64000740 		.word	1074200676
 1492 00d8 00000000 		.word	Display_I2C_mstrStatus
 1493 00dc 00000000 		.word	Display_I2C_mstrRdBufIndex
 1494 00e0 00000000 		.word	Display_I2C_mstrRdBufSize
 1495 00e4 00000000 		.word	Display_I2C_mstrRdBufPtr
 1496 00e8 00000000 		.word	Display_I2C_mstrControl
 1497 00ec 17030000 		.word	791
 1498 00f0 000F0740 		.word	1074204416
 1499 00f4 080F0740 		.word	1074204424
 1500 00f8 C80F0740 		.word	1074204616
 1501 00fc 60000740 		.word	1074200672
 1502 0100 40020740 		.word	1074201152
 1503 0104 68000740 		.word	1074200680
 1504              		.cfi_endproc
 1505              	.LFE1:
 1506              		.size	Display_I2C_I2CMasterReadBuf, .-Display_I2C_I2CMasterReadBuf
 1507              		.section	.text.Display_I2C_I2CMasterSendRestart,"ax",%progbits
 1508              		.align	2
 1509              		.global	Display_I2C_I2CMasterSendRestart
 1510              		.code	16
 1511              		.thumb_func
 1512              		.type	Display_I2C_I2CMasterSendRestart, %function
 1513              	Display_I2C_I2CMasterSendRestart:
 1514              	.LFB3:
 445:Generated_Source\PSoC4/Display_I2C_I2C_MASTER.c ****     uint32 errStatus = Display_I2C_I2C_MSTR_NOT_READY;
 1515              		.loc 1 445 0
 1516              		.cfi_startproc
ARM GAS  C:\Users\VIDEOH~1\AppData\Local\Temp\ccKwza2q.s 			page 52


 1517              		@ args = 0, pretend = 0, frame = 8
 1518              		@ frame_needed = 0, uses_anonymous_args = 0
 1519              	.LVL166:
 1520 0000 10B5     		push	{r4, lr}
 1521              		.cfi_def_cfa_offset 8
 1522              		.cfi_offset 4, -8
 1523              		.cfi_offset 14, -4
 1524 0002 82B0     		sub	sp, sp, #8
 1525              		.cfi_def_cfa_offset 16
 1526              	.LVL167:
 449:Generated_Source\PSoC4/Display_I2C_I2C_MASTER.c ****     {
 1527              		.loc 1 449 0
 1528 0004 154B     		ldr	r3, .L114
 1529 0006 1B78     		ldrb	r3, [r3]
 1530 0008 9B06     		lsls	r3, r3, #26
 1531 000a 23D5     		bpl	.L113
 1532              	.LBB6:
 452:Generated_Source\PSoC4/Display_I2C_I2C_MASTER.c **** 
 1533              		.loc 1 452 0
 1534 000c FA23     		movs	r3, #250
 1535 000e 9B00     		lsls	r3, r3, #2
 1536 0010 5A43     		muls	r2, r3
 1537              	.LVL168:
 1538 0012 0192     		str	r2, [sp, #4]
 454:Generated_Source\PSoC4/Display_I2C_I2C_MASTER.c **** 
 1539              		.loc 1 454 0
 1540 0014 4000     		lsls	r0, r0, #1
 1541              	.LVL169:
 1542 0016 FF24     		movs	r4, #255
 1543 0018 0440     		ands	r4, r0
 1544              	.LVL170:
 456:Generated_Source\PSoC4/Display_I2C_I2C_MASTER.c ****         {
 1545              		.loc 1 456 0
 1546 001a 0029     		cmp	r1, #0
 1547 001c 03D1     		bne	.L110
 458:Generated_Source\PSoC4/Display_I2C_I2C_MASTER.c ****         }
 1548              		.loc 1 458 0
 1549 001e 2422     		movs	r2, #36
 1550 0020 0E4B     		ldr	r3, .L114
 1551 0022 1A70     		strb	r2, [r3]
 1552 0024 04E0     		b	.L111
 1553              	.L110:
 462:Generated_Source\PSoC4/Display_I2C_I2C_MASTER.c ****                       slaveAddress |= Display_I2C_I2C_READ_FLAG;
 1554              		.loc 1 462 0
 1555 0026 2522     		movs	r2, #37
 1556 0028 0C4B     		ldr	r3, .L114
 1557 002a 1A70     		strb	r2, [r3]
 463:Generated_Source\PSoC4/Display_I2C_I2C_MASTER.c ****         }
 1558              		.loc 1 463 0
 1559 002c 0123     		movs	r3, #1
 1560 002e 1C43     		orrs	r4, r3
 1561              	.LVL171:
 1562              	.L111:
 471:Generated_Source\PSoC4/Display_I2C_I2C_MASTER.c ****         Display_I2C_TX_FIFO_WR_REG = slaveAddress;
 1563              		.loc 1 471 0
 1564 0030 FFF7FEFF 		bl	Display_I2C_I2CReStartGeneration
 1565              	.LVL172:
ARM GAS  C:\Users\VIDEOH~1\AppData\Local\Temp\ccKwza2q.s 			page 53


 472:Generated_Source\PSoC4/Display_I2C_I2C_MASTER.c **** 
 1566              		.loc 1 472 0
 1567 0034 0A4B     		ldr	r3, .L114+4
 1568 0036 1C60     		str	r4, [r3]
 1569              	.LVL173:
 1570              	.L112:
 477:Generated_Source\PSoC4/Display_I2C_I2C_MASTER.c ****             locStatus |= Display_I2C_I2CMasterWaitOneUnit(&timeout);
 1571              		.loc 1 477 0 discriminator 1
 1572 0038 0A4B     		ldr	r3, .L114+8
 1573 003a 1868     		ldr	r0, [r3]
 1574 003c 0823     		movs	r3, #8
 1575 003e FF33     		adds	r3, r3, #255
 1576 0040 1840     		ands	r0, r3
 1577 0042 0400     		movs	r4, r0
 1578              	.LVL174:
 478:Generated_Source\PSoC4/Display_I2C_I2C_MASTER.c ****         }
 1579              		.loc 1 478 0 discriminator 1
 1580 0044 01A8     		add	r0, sp, #4
 1581              	.LVL175:
 1582 0046 FFF7FEFF 		bl	Display_I2C_I2CMasterWaitOneUnit
 1583              	.LVL176:
 1584 004a 2043     		orrs	r0, r4
 1585              	.LVL177:
 480:Generated_Source\PSoC4/Display_I2C_I2C_MASTER.c **** 
 1586              		.loc 1 480 0 discriminator 1
 1587 004c F4D0     		beq	.L112
 484:Generated_Source\PSoC4/Display_I2C_I2C_MASTER.c ****     }
 1588              		.loc 1 484 0
 1589 004e FFF7FEFF 		bl	Display_I2C_I2CMasterHandleStatus
 1590              	.LVL178:
 1591 0052 00E0     		b	.L109
 1592              	.LVL179:
 1593              	.L113:
 1594              	.LBE6:
 446:Generated_Source\PSoC4/Display_I2C_I2C_MASTER.c **** 
 1595              		.loc 1 446 0
 1596 0054 0420     		movs	r0, #4
 1597              	.LVL180:
 1598              	.L109:
 488:Generated_Source\PSoC4/Display_I2C_I2C_MASTER.c **** 
 1599              		.loc 1 488 0
 1600 0056 02B0     		add	sp, sp, #8
 1601              		@ sp needed
 1602 0058 10BD     		pop	{r4, pc}
 1603              	.L115:
 1604 005a C046     		.align	2
 1605              	.L114:
 1606 005c 00000000 		.word	Display_I2C_state
 1607 0060 40020740 		.word	1074201152
 1608 0064 000F0740 		.word	1074204416
 1609              		.cfi_endproc
 1610              	.LFE3:
 1611              		.size	Display_I2C_I2CMasterSendRestart, .-Display_I2C_I2CMasterSendRestart
 1612              		.comm	Display_I2C_mstrWrBufIndexTmp,4,4
 1613              		.comm	Display_I2C_mstrWrBufIndex,4,4
 1614              		.comm	Display_I2C_mstrWrBufSize,4,4
 1615              		.comm	Display_I2C_mstrWrBufPtr,4,4
ARM GAS  C:\Users\VIDEOH~1\AppData\Local\Temp\ccKwza2q.s 			page 54


 1616              		.comm	Display_I2C_mstrRdBufIndex,4,4
 1617              		.comm	Display_I2C_mstrRdBufSize,4,4
 1618              		.comm	Display_I2C_mstrRdBufPtr,4,4
 1619              		.comm	Display_I2C_mstrControl,1,1
 1620              		.comm	Display_I2C_mstrStatus,2,2
 1621              		.text
 1622              	.Letext0:
 1623              		.file 2 "Generated_Source\\PSoC4/cytypes.h"
 1624              		.file 3 "Generated_Source\\PSoC4\\Display_I2C_I2C_PVT.h"
 1625              		.file 4 "Generated_Source\\PSoC4/CyLib.h"
 1626              		.file 5 "Generated_Source\\PSoC4\\Display_I2C_sda.h"
 1627              		.file 6 "Generated_Source\\PSoC4\\Display_I2C_scl.h"
 1628              		.section	.debug_info,"",%progbits
 1629              	.Ldebug_info0:
 1630 0000 12090000 		.4byte	0x912
 1631 0004 0400     		.2byte	0x4
 1632 0006 00000000 		.4byte	.Ldebug_abbrev0
 1633 000a 04       		.byte	0x4
 1634 000b 01       		.uleb128 0x1
 1635 000c 8F000000 		.4byte	.LASF68
 1636 0010 0C       		.byte	0xc
 1637 0011 1B030000 		.4byte	.LASF69
 1638 0015 30050000 		.4byte	.LASF70
 1639 0019 00000000 		.4byte	.Ldebug_ranges0+0
 1640 001d 00000000 		.4byte	0
 1641 0021 00000000 		.4byte	.Ldebug_line0
 1642 0025 02       		.uleb128 0x2
 1643 0026 01       		.byte	0x1
 1644 0027 06       		.byte	0x6
 1645 0028 B9010000 		.4byte	.LASF0
 1646 002c 02       		.uleb128 0x2
 1647 002d 01       		.byte	0x1
 1648 002e 08       		.byte	0x8
 1649 002f 23040000 		.4byte	.LASF1
 1650 0033 02       		.uleb128 0x2
 1651 0034 02       		.byte	0x2
 1652 0035 05       		.byte	0x5
 1653 0036 31040000 		.4byte	.LASF2
 1654 003a 02       		.uleb128 0x2
 1655 003b 02       		.byte	0x2
 1656 003c 07       		.byte	0x7
 1657 003d ED020000 		.4byte	.LASF3
 1658 0041 02       		.uleb128 0x2
 1659 0042 04       		.byte	0x4
 1660 0043 05       		.byte	0x5
 1661 0044 CC010000 		.4byte	.LASF4
 1662 0048 02       		.uleb128 0x2
 1663 0049 04       		.byte	0x4
 1664 004a 07       		.byte	0x7
 1665 004b C1020000 		.4byte	.LASF5
 1666 004f 02       		.uleb128 0x2
 1667 0050 08       		.byte	0x8
 1668 0051 05       		.byte	0x5
 1669 0052 AB010000 		.4byte	.LASF6
 1670 0056 02       		.uleb128 0x2
 1671 0057 08       		.byte	0x8
 1672 0058 07       		.byte	0x7
ARM GAS  C:\Users\VIDEOH~1\AppData\Local\Temp\ccKwza2q.s 			page 55


 1673 0059 6B010000 		.4byte	.LASF7
 1674 005d 03       		.uleb128 0x3
 1675 005e 04       		.byte	0x4
 1676 005f 05       		.byte	0x5
 1677 0060 696E7400 		.ascii	"int\000"
 1678 0064 02       		.uleb128 0x2
 1679 0065 04       		.byte	0x4
 1680 0066 07       		.byte	0x7
 1681 0067 83020000 		.4byte	.LASF8
 1682 006b 04       		.uleb128 0x4
 1683 006c 21020000 		.4byte	.LASF9
 1684 0070 02       		.byte	0x2
 1685 0071 E401     		.2byte	0x1e4
 1686 0073 2C000000 		.4byte	0x2c
 1687 0077 04       		.uleb128 0x4
 1688 0078 24000000 		.4byte	.LASF10
 1689 007c 02       		.byte	0x2
 1690 007d E501     		.2byte	0x1e5
 1691 007f 3A000000 		.4byte	0x3a
 1692 0083 04       		.uleb128 0x4
 1693 0084 38020000 		.4byte	.LASF11
 1694 0088 02       		.byte	0x2
 1695 0089 E601     		.2byte	0x1e6
 1696 008b 48000000 		.4byte	0x48
 1697 008f 02       		.uleb128 0x2
 1698 0090 04       		.byte	0x4
 1699 0091 04       		.byte	0x4
 1700 0092 02040000 		.4byte	.LASF12
 1701 0096 02       		.uleb128 0x2
 1702 0097 08       		.byte	0x8
 1703 0098 04       		.byte	0x4
 1704 0099 31020000 		.4byte	.LASF13
 1705 009d 02       		.uleb128 0x2
 1706 009e 01       		.byte	0x1
 1707 009f 08       		.byte	0x8
 1708 00a0 C4040000 		.4byte	.LASF14
 1709 00a4 05       		.uleb128 0x5
 1710 00a5 6B000000 		.4byte	0x6b
 1711 00a9 05       		.uleb128 0x5
 1712 00aa 77000000 		.4byte	0x77
 1713 00ae 04       		.uleb128 0x4
 1714 00af 71030000 		.4byte	.LASF15
 1715 00b3 02       		.byte	0x2
 1716 00b4 9002     		.2byte	0x290
 1717 00b6 BA000000 		.4byte	0xba
 1718 00ba 05       		.uleb128 0x5
 1719 00bb 83000000 		.4byte	0x83
 1720 00bf 02       		.uleb128 0x2
 1721 00c0 04       		.byte	0x4
 1722 00c1 07       		.byte	0x7
 1723 00c2 77030000 		.4byte	.LASF16
 1724 00c6 06       		.uleb128 0x6
 1725 00c7 0F050000 		.4byte	.LASF19
 1726 00cb 01       		.byte	0x1
 1727 00cc 7904     		.2byte	0x479
 1728 00ce 83000000 		.4byte	0x83
 1729 00d2 00000000 		.4byte	.LFB15
ARM GAS  C:\Users\VIDEOH~1\AppData\Local\Temp\ccKwza2q.s 			page 56


 1730 00d6 28000000 		.4byte	.LFE15-.LFB15
 1731 00da 01       		.uleb128 0x1
 1732 00db 9C       		.byte	0x9c
 1733 00dc 1D010000 		.4byte	0x11d
 1734 00e0 07       		.uleb128 0x7
 1735 00e1 DB020000 		.4byte	.LASF21
 1736 00e5 01       		.byte	0x1
 1737 00e6 7904     		.2byte	0x479
 1738 00e8 1D010000 		.4byte	0x11d
 1739 00ec 00000000 		.4byte	.LLST0
 1740 00f0 08       		.uleb128 0x8
 1741 00f1 5F000000 		.4byte	.LASF17
 1742 00f5 01       		.byte	0x1
 1743 00f6 7B04     		.2byte	0x47b
 1744 00f8 23010000 		.4byte	0x123
 1745 00fc 01       		.byte	0x1
 1746 00fd 09       		.uleb128 0x9
 1747 00fe 7C050000 		.4byte	.LASF18
 1748 0102 01       		.byte	0x1
 1749 0103 7C04     		.2byte	0x47c
 1750 0105 83000000 		.4byte	0x83
 1751 0109 42000000 		.4byte	.LLST1
 1752 010d 0A       		.uleb128 0xa
 1753 010e 10000000 		.4byte	.LVL3
 1754 0112 C8080000 		.4byte	0x8c8
 1755 0116 0B       		.uleb128 0xb
 1756 0117 01       		.uleb128 0x1
 1757 0118 50       		.byte	0x50
 1758 0119 01       		.uleb128 0x1
 1759 011a 31       		.byte	0x31
 1760 011b 00       		.byte	0
 1761 011c 00       		.byte	0
 1762 011d 0C       		.uleb128 0xc
 1763 011e 04       		.byte	0x4
 1764 011f 83000000 		.4byte	0x83
 1765 0123 0D       		.uleb128 0xd
 1766 0124 77000000 		.4byte	0x77
 1767 0128 06       		.uleb128 0x6
 1768 0129 56020000 		.4byte	.LASF20
 1769 012d 01       		.byte	0x1
 1770 012e 1904     		.2byte	0x419
 1771 0130 83000000 		.4byte	0x83
 1772 0134 00000000 		.4byte	.LFB14
 1773 0138 C4000000 		.4byte	.LFE14-.LFB14
 1774 013c 01       		.uleb128 0x1
 1775 013d 9C       		.byte	0x9c
 1776 013e 7C010000 		.4byte	0x17c
 1777 0142 07       		.uleb128 0x7
 1778 0143 7C050000 		.4byte	.LASF18
 1779 0147 01       		.byte	0x1
 1780 0148 1904     		.2byte	0x419
 1781 014a 83000000 		.4byte	0x83
 1782 014e 61000000 		.4byte	.LLST2
 1783 0152 09       		.uleb128 0x9
 1784 0153 D2050000 		.4byte	.LASF22
 1785 0157 01       		.byte	0x1
 1786 0158 1B04     		.2byte	0x41b
ARM GAS  C:\Users\VIDEOH~1\AppData\Local\Temp\ccKwza2q.s 			page 57


 1787 015a 83000000 		.4byte	0x83
 1788 015e 9B000000 		.4byte	.LLST3
 1789 0162 09       		.uleb128 0x9
 1790 0163 78020000 		.4byte	.LASF23
 1791 0167 01       		.byte	0x1
 1792 0168 1C04     		.2byte	0x41c
 1793 016a 83000000 		.4byte	0x83
 1794 016e F5000000 		.4byte	.LLST4
 1795 0172 0E       		.uleb128 0xe
 1796 0173 A2000000 		.4byte	.LVL21
 1797 0177 D3080000 		.4byte	0x8d3
 1798 017b 00       		.byte	0
 1799 017c 0F       		.uleb128 0xf
 1800 017d 52030000 		.4byte	.LASF29
 1801 0181 01       		.byte	0x1
 1802 0182 5901     		.2byte	0x159
 1803 0184 83000000 		.4byte	0x83
 1804 0188 00000000 		.4byte	.LFB2
 1805 018c C4000000 		.4byte	.LFE2-.LFB2
 1806 0190 01       		.uleb128 0x1
 1807 0191 9C       		.byte	0x9c
 1808 0192 43020000 		.4byte	0x243
 1809 0196 07       		.uleb128 0x7
 1810 0197 16040000 		.4byte	.LASF24
 1811 019b 01       		.byte	0x1
 1812 019c 5901     		.2byte	0x159
 1813 019e 83000000 		.4byte	0x83
 1814 01a2 36010000 		.4byte	.LLST5
 1815 01a6 07       		.uleb128 0x7
 1816 01a7 4B030000 		.4byte	.LASF25
 1817 01ab 01       		.byte	0x1
 1818 01ac 5901     		.2byte	0x159
 1819 01ae 83000000 		.4byte	0x83
 1820 01b2 83010000 		.4byte	.LLST6
 1821 01b6 07       		.uleb128 0x7
 1822 01b7 6B050000 		.4byte	.LASF26
 1823 01bb 01       		.byte	0x1
 1824 01bc 5901     		.2byte	0x159
 1825 01be 83000000 		.4byte	0x83
 1826 01c2 C5010000 		.4byte	.LLST7
 1827 01c6 09       		.uleb128 0x9
 1828 01c7 E3020000 		.4byte	.LASF27
 1829 01cb 01       		.byte	0x1
 1830 01cc 5B01     		.2byte	0x15b
 1831 01ce 83000000 		.4byte	0x83
 1832 01d2 23020000 		.4byte	.LLST8
 1833 01d6 10       		.uleb128 0x10
 1834 01d7 20000000 		.4byte	.LBB2
 1835 01db 6A000000 		.4byte	.LBE2-.LBB2
 1836 01df 20020000 		.4byte	0x220
 1837 01e3 09       		.uleb128 0x9
 1838 01e4 A1040000 		.4byte	.LASF28
 1839 01e8 01       		.byte	0x1
 1840 01e9 6701     		.2byte	0x167
 1841 01eb 83000000 		.4byte	0x83
 1842 01ef 7B020000 		.4byte	.LLST9
 1843 01f3 11       		.uleb128 0x11
ARM GAS  C:\Users\VIDEOH~1\AppData\Local\Temp\ccKwza2q.s 			page 58


 1844 01f4 DB020000 		.4byte	.LASF21
 1845 01f8 01       		.byte	0x1
 1846 01f9 6801     		.2byte	0x168
 1847 01fb 83000000 		.4byte	0x83
 1848 01ff 02       		.uleb128 0x2
 1849 0200 91       		.byte	0x91
 1850 0201 6C       		.sleb128 -20
 1851 0202 12       		.uleb128 0x12
 1852 0203 7E000000 		.4byte	.LVL39
 1853 0207 C6000000 		.4byte	0xc6
 1854 020b 16020000 		.4byte	0x216
 1855 020f 0B       		.uleb128 0xb
 1856 0210 01       		.uleb128 0x1
 1857 0211 50       		.byte	0x50
 1858 0212 02       		.uleb128 0x2
 1859 0213 91       		.byte	0x91
 1860 0214 6C       		.sleb128 -20
 1861 0215 00       		.byte	0
 1862 0216 0E       		.uleb128 0xe
 1863 0217 86000000 		.4byte	.LVL41
 1864 021b 28010000 		.4byte	0x128
 1865 021f 00       		.byte	0
 1866 0220 12       		.uleb128 0x12
 1867 0221 18000000 		.4byte	.LVL29
 1868 0225 DE080000 		.4byte	0x8de
 1869 0229 33020000 		.4byte	0x233
 1870 022d 0B       		.uleb128 0xb
 1871 022e 01       		.uleb128 0x1
 1872 022f 50       		.byte	0x50
 1873 0230 01       		.uleb128 0x1
 1874 0231 3B       		.byte	0x3b
 1875 0232 00       		.byte	0
 1876 0233 0A       		.uleb128 0xa
 1877 0234 92000000 		.4byte	.LVL45
 1878 0238 E9080000 		.4byte	0x8e9
 1879 023c 0B       		.uleb128 0xb
 1880 023d 01       		.uleb128 0x1
 1881 023e 50       		.byte	0x50
 1882 023f 01       		.uleb128 0x1
 1883 0240 3B       		.byte	0x3b
 1884 0241 00       		.byte	0
 1885 0242 00       		.byte	0
 1886 0243 0F       		.uleb128 0xf
 1887 0244 4D010000 		.4byte	.LASF30
 1888 0248 01       		.byte	0x1
 1889 0249 0B02     		.2byte	0x20b
 1890 024b 83000000 		.4byte	0x83
 1891 024f 00000000 		.4byte	.LFB4
 1892 0253 58000000 		.4byte	.LFE4-.LFB4
 1893 0257 01       		.uleb128 0x1
 1894 0258 9C       		.byte	0x9c
 1895 0259 C4020000 		.4byte	0x2c4
 1896 025d 07       		.uleb128 0x7
 1897 025e 6B050000 		.4byte	.LASF26
 1898 0262 01       		.byte	0x1
 1899 0263 0B02     		.2byte	0x20b
 1900 0265 83000000 		.4byte	0x83
ARM GAS  C:\Users\VIDEOH~1\AppData\Local\Temp\ccKwza2q.s 			page 59


 1901 0269 AF020000 		.4byte	.LLST10
 1902 026d 09       		.uleb128 0x9
 1903 026e E3020000 		.4byte	.LASF27
 1904 0272 01       		.byte	0x1
 1905 0273 0D02     		.2byte	0x20d
 1906 0275 83000000 		.4byte	0x83
 1907 0279 E9020000 		.4byte	.LLST11
 1908 027d 13       		.uleb128 0x13
 1909 027e 0C000000 		.4byte	.LBB3
 1910 0282 36000000 		.4byte	.LBE3-.LBB3
 1911 0286 09       		.uleb128 0x9
 1912 0287 A1040000 		.4byte	.LASF28
 1913 028b 01       		.byte	0x1
 1914 028c 1202     		.2byte	0x212
 1915 028e 83000000 		.4byte	0x83
 1916 0292 1F030000 		.4byte	.LLST12
 1917 0296 11       		.uleb128 0x11
 1918 0297 DB020000 		.4byte	.LASF21
 1919 029b 01       		.byte	0x1
 1920 029c 1302     		.2byte	0x213
 1921 029e 83000000 		.4byte	0x83
 1922 02a2 02       		.uleb128 0x2
 1923 02a3 91       		.byte	0x91
 1924 02a4 74       		.sleb128 -12
 1925 02a5 12       		.uleb128 0x12
 1926 02a6 38000000 		.4byte	.LVL55
 1927 02aa C6000000 		.4byte	0xc6
 1928 02ae B9020000 		.4byte	0x2b9
 1929 02b2 0B       		.uleb128 0xb
 1930 02b3 01       		.uleb128 0x1
 1931 02b4 50       		.byte	0x50
 1932 02b5 02       		.uleb128 0x2
 1933 02b6 91       		.byte	0x91
 1934 02b7 74       		.sleb128 -12
 1935 02b8 00       		.byte	0
 1936 02b9 0E       		.uleb128 0xe
 1937 02ba 40000000 		.4byte	.LVL57
 1938 02be 28010000 		.4byte	0x128
 1939 02c2 00       		.byte	0
 1940 02c3 00       		.byte	0
 1941 02c4 0F       		.uleb128 0xf
 1942 02c5 40000000 		.4byte	.LASF31
 1943 02c9 01       		.byte	0x1
 1944 02ca 4602     		.2byte	0x246
 1945 02cc 83000000 		.4byte	0x83
 1946 02d0 00000000 		.4byte	.LFB5
 1947 02d4 48000000 		.4byte	.LFE5-.LFB5
 1948 02d8 01       		.uleb128 0x1
 1949 02d9 9C       		.byte	0x9c
 1950 02da 55030000 		.4byte	0x355
 1951 02de 07       		.uleb128 0x7
 1952 02df BD040000 		.4byte	.LASF32
 1953 02e3 01       		.byte	0x1
 1954 02e4 4602     		.2byte	0x246
 1955 02e6 83000000 		.4byte	0x83
 1956 02ea 48030000 		.4byte	.LLST13
 1957 02ee 07       		.uleb128 0x7
ARM GAS  C:\Users\VIDEOH~1\AppData\Local\Temp\ccKwza2q.s 			page 60


 1958 02ef 6B050000 		.4byte	.LASF26
 1959 02f3 01       		.byte	0x1
 1960 02f4 4602     		.2byte	0x246
 1961 02f6 83000000 		.4byte	0x83
 1962 02fa 82030000 		.4byte	.LLST14
 1963 02fe 09       		.uleb128 0x9
 1964 02ff E3020000 		.4byte	.LASF27
 1965 0303 01       		.byte	0x1
 1966 0304 4802     		.2byte	0x248
 1967 0306 83000000 		.4byte	0x83
 1968 030a BC030000 		.4byte	.LLST15
 1969 030e 13       		.uleb128 0x13
 1970 030f 0C000000 		.4byte	.LBB4
 1971 0313 28000000 		.4byte	.LBE4-.LBB4
 1972 0317 09       		.uleb128 0x9
 1973 0318 A1040000 		.4byte	.LASF28
 1974 031c 01       		.byte	0x1
 1975 031d 4D02     		.2byte	0x24d
 1976 031f 83000000 		.4byte	0x83
 1977 0323 F2030000 		.4byte	.LLST16
 1978 0327 11       		.uleb128 0x11
 1979 0328 DB020000 		.4byte	.LASF21
 1980 032c 01       		.byte	0x1
 1981 032d 4E02     		.2byte	0x24e
 1982 032f 83000000 		.4byte	0x83
 1983 0333 02       		.uleb128 0x2
 1984 0334 91       		.byte	0x91
 1985 0335 74       		.sleb128 -12
 1986 0336 12       		.uleb128 0x12
 1987 0337 2A000000 		.4byte	.LVL66
 1988 033b C6000000 		.4byte	0xc6
 1989 033f 4A030000 		.4byte	0x34a
 1990 0343 0B       		.uleb128 0xb
 1991 0344 01       		.uleb128 0x1
 1992 0345 50       		.byte	0x50
 1993 0346 02       		.uleb128 0x2
 1994 0347 91       		.byte	0x91
 1995 0348 74       		.sleb128 -12
 1996 0349 00       		.byte	0
 1997 034a 0E       		.uleb128 0xe
 1998 034b 32000000 		.4byte	.LVL68
 1999 034f 28010000 		.4byte	0x128
 2000 0353 00       		.byte	0
 2001 0354 00       		.byte	0
 2002 0355 0F       		.uleb128 0xf
 2003 0356 E2010000 		.4byte	.LASF33
 2004 035a 01       		.byte	0x1
 2005 035b 8D02     		.2byte	0x28d
 2006 035d 83000000 		.4byte	0x83
 2007 0361 00000000 		.4byte	.LFB6
 2008 0365 7C000000 		.4byte	.LFE6-.LFB6
 2009 0369 01       		.uleb128 0x1
 2010 036a 9C       		.byte	0x9c
 2011 036b 06040000 		.4byte	0x406
 2012 036f 07       		.uleb128 0x7
 2013 0370 D3020000 		.4byte	.LASF34
 2014 0374 01       		.byte	0x1
ARM GAS  C:\Users\VIDEOH~1\AppData\Local\Temp\ccKwza2q.s 			page 61


 2015 0375 8D02     		.2byte	0x28d
 2016 0377 83000000 		.4byte	0x83
 2017 037b 1B040000 		.4byte	.LLST17
 2018 037f 07       		.uleb128 0x7
 2019 0380 67000000 		.4byte	.LASF35
 2020 0384 01       		.byte	0x1
 2021 0385 8D02     		.2byte	0x28d
 2022 0387 06040000 		.4byte	0x406
 2023 038b 5D040000 		.4byte	.LLST18
 2024 038f 07       		.uleb128 0x7
 2025 0390 6B050000 		.4byte	.LASF26
 2026 0394 01       		.byte	0x1
 2027 0395 8D02     		.2byte	0x28d
 2028 0397 83000000 		.4byte	0x83
 2029 039b 9F040000 		.4byte	.LLST19
 2030 039f 09       		.uleb128 0x9
 2031 03a0 E3020000 		.4byte	.LASF27
 2032 03a4 01       		.byte	0x1
 2033 03a5 8F02     		.2byte	0x28f
 2034 03a7 83000000 		.4byte	0x83
 2035 03ab D9040000 		.4byte	.LLST20
 2036 03af 13       		.uleb128 0x13
 2037 03b0 10000000 		.4byte	.LBB5
 2038 03b4 4E000000 		.4byte	.LBE5-.LBB5
 2039 03b8 09       		.uleb128 0x9
 2040 03b9 A1040000 		.4byte	.LASF28
 2041 03bd 01       		.byte	0x1
 2042 03be 9402     		.2byte	0x294
 2043 03c0 83000000 		.4byte	0x83
 2044 03c4 0F050000 		.4byte	.LLST21
 2045 03c8 09       		.uleb128 0x9
 2046 03c9 A0010000 		.4byte	.LASF36
 2047 03cd 01       		.byte	0x1
 2048 03ce 9502     		.2byte	0x295
 2049 03d0 83000000 		.4byte	0x83
 2050 03d4 38050000 		.4byte	.LLST22
 2051 03d8 11       		.uleb128 0x11
 2052 03d9 DB020000 		.4byte	.LASF21
 2053 03dd 01       		.byte	0x1
 2054 03de 9602     		.2byte	0x296
 2055 03e0 83000000 		.4byte	0x83
 2056 03e4 02       		.uleb128 0x2
 2057 03e5 91       		.byte	0x91
 2058 03e6 64       		.sleb128 -28
 2059 03e7 12       		.uleb128 0x12
 2060 03e8 32000000 		.4byte	.LVL78
 2061 03ec C6000000 		.4byte	0xc6
 2062 03f0 FB030000 		.4byte	0x3fb
 2063 03f4 0B       		.uleb128 0xb
 2064 03f5 01       		.uleb128 0x1
 2065 03f6 50       		.byte	0x50
 2066 03f7 02       		.uleb128 0x2
 2067 03f8 91       		.byte	0x91
 2068 03f9 64       		.sleb128 -28
 2069 03fa 00       		.byte	0
 2070 03fb 0E       		.uleb128 0xe
 2071 03fc 4E000000 		.4byte	.LVL80
ARM GAS  C:\Users\VIDEOH~1\AppData\Local\Temp\ccKwza2q.s 			page 62


 2072 0400 28010000 		.4byte	0x128
 2073 0404 00       		.byte	0
 2074 0405 00       		.byte	0
 2075 0406 0C       		.uleb128 0xc
 2076 0407 04       		.byte	0x4
 2077 0408 6B000000 		.4byte	0x6b
 2078 040c 14       		.uleb128 0x14
 2079 040d 00000000 		.4byte	.LASF37
 2080 0411 01       		.byte	0x1
 2081 0412 D102     		.2byte	0x2d1
 2082 0414 83000000 		.4byte	0x83
 2083 0418 00000000 		.4byte	.LFB7
 2084 041c 0C000000 		.4byte	.LFE7-.LFB7
 2085 0420 01       		.uleb128 0x1
 2086 0421 9C       		.byte	0x9c
 2087 0422 14       		.uleb128 0x14
 2088 0423 28010000 		.4byte	.LASF38
 2089 0427 01       		.byte	0x1
 2090 0428 EC02     		.2byte	0x2ec
 2091 042a 83000000 		.4byte	0x83
 2092 042e 00000000 		.4byte	.LFB8
 2093 0432 0C000000 		.4byte	.LFE8-.LFB8
 2094 0436 01       		.uleb128 0x1
 2095 0437 9C       		.byte	0x9c
 2096 0438 15       		.uleb128 0x15
 2097 0439 8C030000 		.4byte	.LASF39
 2098 043d 01       		.byte	0x1
 2099 043e FE02     		.2byte	0x2fe
 2100 0440 00000000 		.4byte	.LFB9
 2101 0444 28000000 		.4byte	.LFE9-.LFB9
 2102 0448 01       		.uleb128 0x1
 2103 0449 9C       		.byte	0x9c
 2104 044a 71040000 		.4byte	0x471
 2105 044e 12       		.uleb128 0x12
 2106 044f 08000000 		.4byte	.LVL85
 2107 0453 DE080000 		.4byte	0x8de
 2108 0457 61040000 		.4byte	0x461
 2109 045b 0B       		.uleb128 0xb
 2110 045c 01       		.uleb128 0x1
 2111 045d 50       		.byte	0x50
 2112 045e 01       		.uleb128 0x1
 2113 045f 3B       		.byte	0x3b
 2114 0460 00       		.byte	0
 2115 0461 0A       		.uleb128 0xa
 2116 0462 1E000000 		.4byte	.LVL86
 2117 0466 E9080000 		.4byte	0x8e9
 2118 046a 0B       		.uleb128 0xb
 2119 046b 01       		.uleb128 0x1
 2120 046c 50       		.byte	0x50
 2121 046d 01       		.uleb128 0x1
 2122 046e 3B       		.byte	0x3b
 2123 046f 00       		.byte	0
 2124 0470 00       		.byte	0
 2125 0471 15       		.uleb128 0x15
 2126 0472 CE040000 		.4byte	.LASF40
 2127 0476 01       		.byte	0x1
 2128 0477 1503     		.2byte	0x315
ARM GAS  C:\Users\VIDEOH~1\AppData\Local\Temp\ccKwza2q.s 			page 63


 2129 0479 00000000 		.4byte	.LFB10
 2130 047d 28000000 		.4byte	.LFE10-.LFB10
 2131 0481 01       		.uleb128 0x1
 2132 0482 9C       		.byte	0x9c
 2133 0483 AA040000 		.4byte	0x4aa
 2134 0487 12       		.uleb128 0x12
 2135 0488 08000000 		.4byte	.LVL87
 2136 048c DE080000 		.4byte	0x8de
 2137 0490 9A040000 		.4byte	0x49a
 2138 0494 0B       		.uleb128 0xb
 2139 0495 01       		.uleb128 0x1
 2140 0496 50       		.byte	0x50
 2141 0497 01       		.uleb128 0x1
 2142 0498 3B       		.byte	0x3b
 2143 0499 00       		.byte	0
 2144 049a 0A       		.uleb128 0xa
 2145 049b 1E000000 		.4byte	.LVL88
 2146 049f E9080000 		.4byte	0x8e9
 2147 04a3 0B       		.uleb128 0xb
 2148 04a4 01       		.uleb128 0x1
 2149 04a5 50       		.byte	0x50
 2150 04a6 01       		.uleb128 0x1
 2151 04a7 3B       		.byte	0x3b
 2152 04a8 00       		.byte	0
 2153 04a9 00       		.byte	0
 2154 04aa 0F       		.uleb128 0xf
 2155 04ab 83050000 		.4byte	.LASF41
 2156 04af 01       		.byte	0x1
 2157 04b0 4903     		.2byte	0x349
 2158 04b2 83000000 		.4byte	0x83
 2159 04b6 00000000 		.4byte	.LFB11
 2160 04ba 30000000 		.4byte	.LFE11-.LFB11
 2161 04be 01       		.uleb128 0x1
 2162 04bf 9C       		.byte	0x9c
 2163 04c0 F7040000 		.4byte	0x4f7
 2164 04c4 09       		.uleb128 0x9
 2165 04c5 7C050000 		.4byte	.LASF18
 2166 04c9 01       		.byte	0x1
 2167 04ca 4B03     		.2byte	0x34b
 2168 04cc 83000000 		.4byte	0x83
 2169 04d0 4B050000 		.4byte	.LLST23
 2170 04d4 12       		.uleb128 0x12
 2171 04d5 08000000 		.4byte	.LVL89
 2172 04d9 DE080000 		.4byte	0x8de
 2173 04dd E7040000 		.4byte	0x4e7
 2174 04e1 0B       		.uleb128 0xb
 2175 04e2 01       		.uleb128 0x1
 2176 04e3 50       		.byte	0x50
 2177 04e4 01       		.uleb128 0x1
 2178 04e5 3B       		.byte	0x3b
 2179 04e6 00       		.byte	0
 2180 04e7 0A       		.uleb128 0xa
 2181 04e8 24000000 		.4byte	.LVL93
 2182 04ec E9080000 		.4byte	0x8e9
 2183 04f0 0B       		.uleb128 0xb
 2184 04f1 01       		.uleb128 0x1
 2185 04f2 50       		.byte	0x50
ARM GAS  C:\Users\VIDEOH~1\AppData\Local\Temp\ccKwza2q.s 			page 64


 2186 04f3 01       		.uleb128 0x1
 2187 04f4 3B       		.byte	0x3b
 2188 04f5 00       		.byte	0
 2189 04f6 00       		.byte	0
 2190 04f7 0F       		.uleb128 0xf
 2191 04f8 C6030000 		.4byte	.LASF42
 2192 04fc 01       		.byte	0x1
 2193 04fd 6B03     		.2byte	0x36b
 2194 04ff 83000000 		.4byte	0x83
 2195 0503 00000000 		.4byte	.LFB12
 2196 0507 20000000 		.4byte	.LFE12-.LFB12
 2197 050b 01       		.uleb128 0x1
 2198 050c 9C       		.byte	0x9c
 2199 050d 44050000 		.4byte	0x544
 2200 0511 09       		.uleb128 0x9
 2201 0512 7C050000 		.4byte	.LASF18
 2202 0516 01       		.byte	0x1
 2203 0517 6D03     		.2byte	0x36d
 2204 0519 83000000 		.4byte	0x83
 2205 051d 74050000 		.4byte	.LLST24
 2206 0521 12       		.uleb128 0x12
 2207 0522 08000000 		.4byte	.LVL95
 2208 0526 DE080000 		.4byte	0x8de
 2209 052a 34050000 		.4byte	0x534
 2210 052e 0B       		.uleb128 0xb
 2211 052f 01       		.uleb128 0x1
 2212 0530 50       		.byte	0x50
 2213 0531 01       		.uleb128 0x1
 2214 0532 3B       		.byte	0x3b
 2215 0533 00       		.byte	0
 2216 0534 0A       		.uleb128 0xa
 2217 0535 18000000 		.4byte	.LVL97
 2218 0539 E9080000 		.4byte	0x8e9
 2219 053d 0B       		.uleb128 0xb
 2220 053e 01       		.uleb128 0x1
 2221 053f 50       		.byte	0x50
 2222 0540 01       		.uleb128 0x1
 2223 0541 3B       		.byte	0x3b
 2224 0542 00       		.byte	0
 2225 0543 00       		.byte	0
 2226 0544 15       		.uleb128 0x15
 2227 0545 6E000000 		.4byte	.LASF43
 2228 0549 01       		.byte	0x1
 2229 054a 9703     		.2byte	0x397
 2230 054c 00000000 		.4byte	.LFB13
 2231 0550 CC000000 		.4byte	.LFE13-.LFB13
 2232 0554 01       		.uleb128 0x1
 2233 0555 9C       		.byte	0x9c
 2234 0556 54060000 		.4byte	0x654
 2235 055a 08       		.uleb128 0x8
 2236 055b 5F000000 		.4byte	.LASF17
 2237 055f 01       		.byte	0x1
 2238 0560 A003     		.2byte	0x3a0
 2239 0562 23010000 		.4byte	0x123
 2240 0566 01       		.byte	0x1
 2241 0567 09       		.uleb128 0x9
 2242 0568 DB020000 		.4byte	.LASF21
ARM GAS  C:\Users\VIDEOH~1\AppData\Local\Temp\ccKwza2q.s 			page 65


 2243 056c 01       		.byte	0x1
 2244 056d A103     		.2byte	0x3a1
 2245 056f 83000000 		.4byte	0x83
 2246 0573 92050000 		.4byte	.LLST25
 2247 0577 09       		.uleb128 0x9
 2248 0578 08040000 		.4byte	.LASF44
 2249 057c 01       		.byte	0x1
 2250 057d A403     		.2byte	0x3a4
 2251 057f 83000000 		.4byte	0x83
 2252 0583 E5050000 		.4byte	.LLST26
 2253 0587 12       		.uleb128 0x12
 2254 0588 14000000 		.4byte	.LVL102
 2255 058c C8080000 		.4byte	0x8c8
 2256 0590 9A050000 		.4byte	0x59a
 2257 0594 0B       		.uleb128 0xb
 2258 0595 01       		.uleb128 0x1
 2259 0596 50       		.byte	0x50
 2260 0597 01       		.uleb128 0x1
 2261 0598 31       		.byte	0x31
 2262 0599 00       		.byte	0
 2263 059a 0E       		.uleb128 0xe
 2264 059b 1A000000 		.4byte	.LVL104
 2265 059f F4080000 		.4byte	0x8f4
 2266 05a3 12       		.uleb128 0x12
 2267 05a4 2C000000 		.4byte	.LVL106
 2268 05a8 FF080000 		.4byte	0x8ff
 2269 05ac B6050000 		.4byte	0x5b6
 2270 05b0 0B       		.uleb128 0xb
 2271 05b1 01       		.uleb128 0x1
 2272 05b2 50       		.byte	0x50
 2273 05b3 01       		.uleb128 0x1
 2274 05b4 30       		.byte	0x30
 2275 05b5 00       		.byte	0
 2276 05b6 12       		.uleb128 0x12
 2277 05b7 4A000000 		.4byte	.LVL107
 2278 05bb FF080000 		.4byte	0x8ff
 2279 05bf C9050000 		.4byte	0x5c9
 2280 05c3 0B       		.uleb128 0xb
 2281 05c4 01       		.uleb128 0x1
 2282 05c5 50       		.byte	0x50
 2283 05c6 01       		.uleb128 0x1
 2284 05c7 30       		.byte	0x30
 2285 05c8 00       		.byte	0
 2286 05c9 12       		.uleb128 0x12
 2287 05ca 50000000 		.4byte	.LVL108
 2288 05ce C8080000 		.4byte	0x8c8
 2289 05d2 DC050000 		.4byte	0x5dc
 2290 05d6 0B       		.uleb128 0xb
 2291 05d7 01       		.uleb128 0x1
 2292 05d8 50       		.byte	0x50
 2293 05d9 01       		.uleb128 0x1
 2294 05da 33       		.byte	0x33
 2295 05db 00       		.byte	0
 2296 05dc 12       		.uleb128 0x12
 2297 05dd 56000000 		.4byte	.LVL109
 2298 05e1 FF080000 		.4byte	0x8ff
 2299 05e5 EF050000 		.4byte	0x5ef
ARM GAS  C:\Users\VIDEOH~1\AppData\Local\Temp\ccKwza2q.s 			page 66


 2300 05e9 0B       		.uleb128 0xb
 2301 05ea 01       		.uleb128 0x1
 2302 05eb 50       		.byte	0x50
 2303 05ec 01       		.uleb128 0x1
 2304 05ed 31       		.byte	0x31
 2305 05ee 00       		.byte	0
 2306 05ef 12       		.uleb128 0x12
 2307 05f0 5C000000 		.4byte	.LVL110
 2308 05f4 C8080000 		.4byte	0x8c8
 2309 05f8 02060000 		.4byte	0x602
 2310 05fc 0B       		.uleb128 0xb
 2311 05fd 01       		.uleb128 0x1
 2312 05fe 50       		.byte	0x50
 2313 05ff 01       		.uleb128 0x1
 2314 0600 33       		.byte	0x33
 2315 0601 00       		.byte	0
 2316 0602 12       		.uleb128 0x12
 2317 0603 66000000 		.4byte	.LVL112
 2318 0607 C8080000 		.4byte	0x8c8
 2319 060b 15060000 		.4byte	0x615
 2320 060f 0B       		.uleb128 0xb
 2321 0610 01       		.uleb128 0x1
 2322 0611 50       		.byte	0x50
 2323 0612 01       		.uleb128 0x1
 2324 0613 31       		.byte	0x31
 2325 0614 00       		.byte	0
 2326 0615 0E       		.uleb128 0xe
 2327 0616 6C000000 		.4byte	.LVL114
 2328 061a 0A090000 		.4byte	0x90a
 2329 061e 12       		.uleb128 0x12
 2330 061f 82000000 		.4byte	.LVL117
 2331 0623 FF080000 		.4byte	0x8ff
 2332 0627 31060000 		.4byte	0x631
 2333 062b 0B       		.uleb128 0xb
 2334 062c 01       		.uleb128 0x1
 2335 062d 50       		.byte	0x50
 2336 062e 01       		.uleb128 0x1
 2337 062f 30       		.byte	0x30
 2338 0630 00       		.byte	0
 2339 0631 12       		.uleb128 0x12
 2340 0632 88000000 		.4byte	.LVL118
 2341 0636 C8080000 		.4byte	0x8c8
 2342 063a 44060000 		.4byte	0x644
 2343 063e 0B       		.uleb128 0xb
 2344 063f 01       		.uleb128 0x1
 2345 0640 50       		.byte	0x50
 2346 0641 01       		.uleb128 0x1
 2347 0642 33       		.byte	0x33
 2348 0643 00       		.byte	0
 2349 0644 0A       		.uleb128 0xa
 2350 0645 B0000000 		.4byte	.LVL119
 2351 0649 FF080000 		.4byte	0x8ff
 2352 064d 0B       		.uleb128 0xb
 2353 064e 01       		.uleb128 0x1
 2354 064f 50       		.byte	0x50
 2355 0650 01       		.uleb128 0x1
 2356 0651 31       		.byte	0x31
ARM GAS  C:\Users\VIDEOH~1\AppData\Local\Temp\ccKwza2q.s 			page 67


 2357 0652 00       		.byte	0
 2358 0653 00       		.byte	0
 2359 0654 16       		.uleb128 0x16
 2360 0655 F1040000 		.4byte	.LASF45
 2361 0659 01       		.byte	0x1
 2362 065a 67       		.byte	0x67
 2363 065b 83000000 		.4byte	0x83
 2364 065f 00000000 		.4byte	.LFB0
 2365 0663 F8000000 		.4byte	.LFE0-.LFB0
 2366 0667 01       		.uleb128 0x1
 2367 0668 9C       		.byte	0x9c
 2368 0669 E4060000 		.4byte	0x6e4
 2369 066d 17       		.uleb128 0x17
 2370 066e 16040000 		.4byte	.LASF24
 2371 0672 01       		.byte	0x1
 2372 0673 67       		.byte	0x67
 2373 0674 83000000 		.4byte	0x83
 2374 0678 F8050000 		.4byte	.LLST27
 2375 067c 17       		.uleb128 0x17
 2376 067d 75050000 		.4byte	.LASF46
 2377 0681 01       		.byte	0x1
 2378 0682 67       		.byte	0x67
 2379 0683 06040000 		.4byte	0x406
 2380 0687 50060000 		.4byte	.LLST28
 2381 068b 18       		.uleb128 0x18
 2382 068c 636E7400 		.ascii	"cnt\000"
 2383 0690 01       		.byte	0x1
 2384 0691 67       		.byte	0x67
 2385 0692 83000000 		.4byte	0x83
 2386 0696 CD060000 		.4byte	.LLST29
 2387 069a 17       		.uleb128 0x17
 2388 069b C9040000 		.4byte	.LASF47
 2389 069f 01       		.byte	0x1
 2390 06a0 67       		.byte	0x67
 2391 06a1 83000000 		.4byte	0x83
 2392 06a5 3B070000 		.4byte	.LLST30
 2393 06a9 19       		.uleb128 0x19
 2394 06aa E3020000 		.4byte	.LASF27
 2395 06ae 01       		.byte	0x1
 2396 06af 69       		.byte	0x69
 2397 06b0 83000000 		.4byte	0x83
 2398 06b4 7D070000 		.4byte	.LLST31
 2399 06b8 12       		.uleb128 0x12
 2400 06b9 1E000000 		.4byte	.LVL126
 2401 06bd DE080000 		.4byte	0x8de
 2402 06c1 CB060000 		.4byte	0x6cb
 2403 06c5 0B       		.uleb128 0xb
 2404 06c6 01       		.uleb128 0x1
 2405 06c7 50       		.byte	0x50
 2406 06c8 01       		.uleb128 0x1
 2407 06c9 3B       		.byte	0x3b
 2408 06ca 00       		.byte	0
 2409 06cb 0E       		.uleb128 0xe
 2410 06cc 9E000000 		.4byte	.LVL138
 2411 06d0 44050000 		.4byte	0x544
 2412 06d4 0A       		.uleb128 0xa
 2413 06d5 B4000000 		.4byte	.LVL140
ARM GAS  C:\Users\VIDEOH~1\AppData\Local\Temp\ccKwza2q.s 			page 68


 2414 06d9 E9080000 		.4byte	0x8e9
 2415 06dd 0B       		.uleb128 0xb
 2416 06de 01       		.uleb128 0x1
 2417 06df 50       		.byte	0x50
 2418 06e0 01       		.uleb128 0x1
 2419 06e1 3B       		.byte	0x3b
 2420 06e2 00       		.byte	0
 2421 06e3 00       		.byte	0
 2422 06e4 16       		.uleb128 0x16
 2423 06e5 B5050000 		.4byte	.LASF48
 2424 06e9 01       		.byte	0x1
 2425 06ea D5       		.byte	0xd5
 2426 06eb 83000000 		.4byte	0x83
 2427 06ef 00000000 		.4byte	.LFB1
 2428 06f3 08010000 		.4byte	.LFE1-.LFB1
 2429 06f7 01       		.uleb128 0x1
 2430 06f8 9C       		.byte	0x9c
 2431 06f9 74070000 		.4byte	0x774
 2432 06fd 17       		.uleb128 0x17
 2433 06fe 16040000 		.4byte	.LASF24
 2434 0702 01       		.byte	0x1
 2435 0703 D5       		.byte	0xd5
 2436 0704 83000000 		.4byte	0x83
 2437 0708 BF070000 		.4byte	.LLST32
 2438 070c 17       		.uleb128 0x17
 2439 070d C5010000 		.4byte	.LASF49
 2440 0711 01       		.byte	0x1
 2441 0712 D5       		.byte	0xd5
 2442 0713 06040000 		.4byte	0x406
 2443 0717 17080000 		.4byte	.LLST33
 2444 071b 18       		.uleb128 0x18
 2445 071c 636E7400 		.ascii	"cnt\000"
 2446 0720 01       		.byte	0x1
 2447 0721 D5       		.byte	0xd5
 2448 0722 83000000 		.4byte	0x83
 2449 0726 94080000 		.4byte	.LLST34
 2450 072a 17       		.uleb128 0x17
 2451 072b C9040000 		.4byte	.LASF47
 2452 072f 01       		.byte	0x1
 2453 0730 D5       		.byte	0xd5
 2454 0731 83000000 		.4byte	0x83
 2455 0735 02090000 		.4byte	.LLST35
 2456 0739 19       		.uleb128 0x19
 2457 073a E3020000 		.4byte	.LASF27
 2458 073e 01       		.byte	0x1
 2459 073f D7       		.byte	0xd7
 2460 0740 83000000 		.4byte	0x83
 2461 0744 44090000 		.4byte	.LLST36
 2462 0748 12       		.uleb128 0x12
 2463 0749 1E000000 		.4byte	.LVL148
 2464 074d DE080000 		.4byte	0x8de
 2465 0751 5B070000 		.4byte	0x75b
 2466 0755 0B       		.uleb128 0xb
 2467 0756 01       		.uleb128 0x1
 2468 0757 50       		.byte	0x50
 2469 0758 01       		.uleb128 0x1
 2470 0759 3B       		.byte	0x3b
ARM GAS  C:\Users\VIDEOH~1\AppData\Local\Temp\ccKwza2q.s 			page 69


 2471 075a 00       		.byte	0
 2472 075b 0E       		.uleb128 0xe
 2473 075c B2000000 		.4byte	.LVL160
 2474 0760 44050000 		.4byte	0x544
 2475 0764 0A       		.uleb128 0xa
 2476 0765 C8000000 		.4byte	.LVL162
 2477 0769 E9080000 		.4byte	0x8e9
 2478 076d 0B       		.uleb128 0xb
 2479 076e 01       		.uleb128 0x1
 2480 076f 50       		.byte	0x50
 2481 0770 01       		.uleb128 0x1
 2482 0771 3B       		.byte	0x3b
 2483 0772 00       		.byte	0
 2484 0773 00       		.byte	0
 2485 0774 0F       		.uleb128 0xf
 2486 0775 00020000 		.4byte	.LASF50
 2487 0779 01       		.byte	0x1
 2488 077a BC01     		.2byte	0x1bc
 2489 077c 83000000 		.4byte	0x83
 2490 0780 00000000 		.4byte	.LFB3
 2491 0784 68000000 		.4byte	.LFE3-.LFB3
 2492 0788 01       		.uleb128 0x1
 2493 0789 9C       		.byte	0x9c
 2494 078a 1E080000 		.4byte	0x81e
 2495 078e 07       		.uleb128 0x7
 2496 078f 16040000 		.4byte	.LASF24
 2497 0793 01       		.byte	0x1
 2498 0794 BC01     		.2byte	0x1bc
 2499 0796 83000000 		.4byte	0x83
 2500 079a 86090000 		.4byte	.LLST37
 2501 079e 07       		.uleb128 0x7
 2502 079f 4B030000 		.4byte	.LASF25
 2503 07a3 01       		.byte	0x1
 2504 07a4 BC01     		.2byte	0x1bc
 2505 07a6 83000000 		.4byte	0x83
 2506 07aa BD090000 		.4byte	.LLST38
 2507 07ae 07       		.uleb128 0x7
 2508 07af 6B050000 		.4byte	.LASF26
 2509 07b3 01       		.byte	0x1
 2510 07b4 BC01     		.2byte	0x1bc
 2511 07b6 83000000 		.4byte	0x83
 2512 07ba F7090000 		.4byte	.LLST39
 2513 07be 09       		.uleb128 0x9
 2514 07bf E3020000 		.4byte	.LASF27
 2515 07c3 01       		.byte	0x1
 2516 07c4 BE01     		.2byte	0x1be
 2517 07c6 83000000 		.4byte	0x83
 2518 07ca 310A0000 		.4byte	.LLST40
 2519 07ce 13       		.uleb128 0x13
 2520 07cf 0C000000 		.4byte	.LBB6
 2521 07d3 48000000 		.4byte	.LBE6-.LBB6
 2522 07d7 09       		.uleb128 0x9
 2523 07d8 A1040000 		.4byte	.LASF28
 2524 07dc 01       		.byte	0x1
 2525 07dd C301     		.2byte	0x1c3
 2526 07df 83000000 		.4byte	0x83
 2527 07e3 670A0000 		.4byte	.LLST41
ARM GAS  C:\Users\VIDEOH~1\AppData\Local\Temp\ccKwza2q.s 			page 70


 2528 07e7 11       		.uleb128 0x11
 2529 07e8 DB020000 		.4byte	.LASF21
 2530 07ec 01       		.byte	0x1
 2531 07ed C401     		.2byte	0x1c4
 2532 07ef 83000000 		.4byte	0x83
 2533 07f3 02       		.uleb128 0x2
 2534 07f4 91       		.byte	0x91
 2535 07f5 74       		.sleb128 -12
 2536 07f6 0E       		.uleb128 0xe
 2537 07f7 34000000 		.4byte	.LVL172
 2538 07fb 44050000 		.4byte	0x544
 2539 07ff 12       		.uleb128 0x12
 2540 0800 4A000000 		.4byte	.LVL176
 2541 0804 C6000000 		.4byte	0xc6
 2542 0808 13080000 		.4byte	0x813
 2543 080c 0B       		.uleb128 0xb
 2544 080d 01       		.uleb128 0x1
 2545 080e 50       		.byte	0x50
 2546 080f 02       		.uleb128 0x2
 2547 0810 91       		.byte	0x91
 2548 0811 74       		.sleb128 -12
 2549 0812 00       		.byte	0
 2550 0813 0E       		.uleb128 0xe
 2551 0814 52000000 		.4byte	.LVL178
 2552 0818 28010000 		.4byte	0x128
 2553 081c 00       		.byte	0
 2554 081d 00       		.byte	0
 2555 081e 1A       		.uleb128 0x1a
 2556 081f AB040000 		.4byte	.LASF51
 2557 0823 03       		.byte	0x3
 2558 0824 1E       		.byte	0x1e
 2559 0825 A4000000 		.4byte	0xa4
 2560 0829 1B       		.uleb128 0x1b
 2561 082a 3F020000 		.4byte	.LASF52
 2562 082e 01       		.byte	0x1
 2563 082f 1D       		.byte	0x1d
 2564 0830 A9000000 		.4byte	0xa9
 2565 0834 05       		.uleb128 0x5
 2566 0835 03       		.byte	0x3
 2567 0836 00000000 		.4byte	Display_I2C_mstrStatus
 2568 083a 1B       		.uleb128 0x1b
 2569 083b AE030000 		.4byte	.LASF53
 2570 083f 01       		.byte	0x1
 2571 0840 1E       		.byte	0x1e
 2572 0841 A4000000 		.4byte	0xa4
 2573 0845 05       		.uleb128 0x5
 2574 0846 03       		.byte	0x3
 2575 0847 00000000 		.4byte	Display_I2C_mstrControl
 2576 084b 1B       		.uleb128 0x1b
 2577 084c 88040000 		.4byte	.LASF54
 2578 0850 01       		.byte	0x1
 2579 0851 21       		.byte	0x21
 2580 0852 5C080000 		.4byte	0x85c
 2581 0856 05       		.uleb128 0x5
 2582 0857 03       		.byte	0x3
 2583 0858 00000000 		.4byte	Display_I2C_mstrRdBufPtr
 2584 085c 0C       		.uleb128 0xc
ARM GAS  C:\Users\VIDEOH~1\AppData\Local\Temp\ccKwza2q.s 			page 71


 2585 085d 04       		.byte	0x4
 2586 085e A4000000 		.4byte	0xa4
 2587 0862 1B       		.uleb128 0x1b
 2588 0863 3B040000 		.4byte	.LASF55
 2589 0867 01       		.byte	0x1
 2590 0868 22       		.byte	0x22
 2591 0869 BA000000 		.4byte	0xba
 2592 086d 05       		.uleb128 0x5
 2593 086e 03       		.byte	0x3
 2594 086f 00000000 		.4byte	Display_I2C_mstrRdBufSize
 2595 0873 1B       		.uleb128 0x1b
 2596 0874 E7030000 		.4byte	.LASF56
 2597 0878 01       		.byte	0x1
 2598 0879 23       		.byte	0x23
 2599 087a BA000000 		.4byte	0xba
 2600 087e 05       		.uleb128 0x5
 2601 087f 03       		.byte	0x3
 2602 0880 00000000 		.4byte	Display_I2C_mstrRdBufIndex
 2603 0884 1B       		.uleb128 0x1b
 2604 0885 6F040000 		.4byte	.LASF57
 2605 0889 01       		.byte	0x1
 2606 088a 26       		.byte	0x26
 2607 088b 5C080000 		.4byte	0x85c
 2608 088f 05       		.uleb128 0x5
 2609 0890 03       		.byte	0x3
 2610 0891 00000000 		.4byte	Display_I2C_mstrWrBufPtr
 2611 0895 1B       		.uleb128 0x1b
 2612 0896 55040000 		.4byte	.LASF58
 2613 089a 01       		.byte	0x1
 2614 089b 27       		.byte	0x27
 2615 089c BA000000 		.4byte	0xba
 2616 08a0 05       		.uleb128 0x5
 2617 08a1 03       		.byte	0x3
 2618 08a2 00000000 		.4byte	Display_I2C_mstrWrBufSize
 2619 08a6 1B       		.uleb128 0x1b
 2620 08a7 00030000 		.4byte	.LASF59
 2621 08ab 01       		.byte	0x1
 2622 08ac 28       		.byte	0x28
 2623 08ad BA000000 		.4byte	0xba
 2624 08b1 05       		.uleb128 0x5
 2625 08b2 03       		.byte	0x3
 2626 08b3 00000000 		.4byte	Display_I2C_mstrWrBufIndex
 2627 08b7 1B       		.uleb128 0x1b
 2628 08b8 82010000 		.4byte	.LASF60
 2629 08bc 01       		.byte	0x1
 2630 08bd 29       		.byte	0x29
 2631 08be BA000000 		.4byte	0xba
 2632 08c2 05       		.uleb128 0x5
 2633 08c3 03       		.byte	0x3
 2634 08c4 00000000 		.4byte	Display_I2C_mstrWrBufIndexTmp
 2635 08c8 1C       		.uleb128 0x1c
 2636 08c9 27020000 		.4byte	.LASF61
 2637 08cd 27020000 		.4byte	.LASF61
 2638 08d1 04       		.byte	0x4
 2639 08d2 DA       		.byte	0xda
 2640 08d3 1C       		.uleb128 0x1c
 2641 08d4 A5020000 		.4byte	.LASF62
ARM GAS  C:\Users\VIDEOH~1\AppData\Local\Temp\ccKwza2q.s 			page 72


 2642 08d8 A5020000 		.4byte	.LASF62
 2643 08dc 03       		.byte	0x3
 2644 08dd 4D       		.byte	0x4d
 2645 08de 1C       		.uleb128 0x1c
 2646 08df D5010000 		.4byte	.LASF63
 2647 08e3 D5010000 		.4byte	.LASF63
 2648 08e7 04       		.byte	0x4
 2649 08e8 C5       		.byte	0xc5
 2650 08e9 1C       		.uleb128 0x1c
 2651 08ea 80030000 		.4byte	.LASF64
 2652 08ee 80030000 		.4byte	.LASF64
 2653 08f2 04       		.byte	0x4
 2654 08f3 C3       		.byte	0xc3
 2655 08f4 1C       		.uleb128 0x1c
 2656 08f5 90020000 		.4byte	.LASF65
 2657 08f9 90020000 		.4byte	.LASF65
 2658 08fd 05       		.byte	0x5
 2659 08fe 32       		.byte	0x32
 2660 08ff 1C       		.uleb128 0x1c
 2661 0900 9F050000 		.4byte	.LASF66
 2662 0904 9F050000 		.4byte	.LASF66
 2663 0908 06       		.byte	0x6
 2664 0909 33       		.byte	0x33
 2665 090a 1C       		.uleb128 0x1c
 2666 090b 2B000000 		.4byte	.LASF67
 2667 090f 2B000000 		.4byte	.LASF67
 2668 0913 06       		.byte	0x6
 2669 0914 32       		.byte	0x32
 2670 0915 00       		.byte	0
 2671              		.section	.debug_abbrev,"",%progbits
 2672              	.Ldebug_abbrev0:
 2673 0000 01       		.uleb128 0x1
 2674 0001 11       		.uleb128 0x11
 2675 0002 01       		.byte	0x1
 2676 0003 25       		.uleb128 0x25
 2677 0004 0E       		.uleb128 0xe
 2678 0005 13       		.uleb128 0x13
 2679 0006 0B       		.uleb128 0xb
 2680 0007 03       		.uleb128 0x3
 2681 0008 0E       		.uleb128 0xe
 2682 0009 1B       		.uleb128 0x1b
 2683 000a 0E       		.uleb128 0xe
 2684 000b 55       		.uleb128 0x55
 2685 000c 17       		.uleb128 0x17
 2686 000d 11       		.uleb128 0x11
 2687 000e 01       		.uleb128 0x1
 2688 000f 10       		.uleb128 0x10
 2689 0010 17       		.uleb128 0x17
 2690 0011 00       		.byte	0
 2691 0012 00       		.byte	0
 2692 0013 02       		.uleb128 0x2
 2693 0014 24       		.uleb128 0x24
 2694 0015 00       		.byte	0
 2695 0016 0B       		.uleb128 0xb
 2696 0017 0B       		.uleb128 0xb
 2697 0018 3E       		.uleb128 0x3e
 2698 0019 0B       		.uleb128 0xb
ARM GAS  C:\Users\VIDEOH~1\AppData\Local\Temp\ccKwza2q.s 			page 73


 2699 001a 03       		.uleb128 0x3
 2700 001b 0E       		.uleb128 0xe
 2701 001c 00       		.byte	0
 2702 001d 00       		.byte	0
 2703 001e 03       		.uleb128 0x3
 2704 001f 24       		.uleb128 0x24
 2705 0020 00       		.byte	0
 2706 0021 0B       		.uleb128 0xb
 2707 0022 0B       		.uleb128 0xb
 2708 0023 3E       		.uleb128 0x3e
 2709 0024 0B       		.uleb128 0xb
 2710 0025 03       		.uleb128 0x3
 2711 0026 08       		.uleb128 0x8
 2712 0027 00       		.byte	0
 2713 0028 00       		.byte	0
 2714 0029 04       		.uleb128 0x4
 2715 002a 16       		.uleb128 0x16
 2716 002b 00       		.byte	0
 2717 002c 03       		.uleb128 0x3
 2718 002d 0E       		.uleb128 0xe
 2719 002e 3A       		.uleb128 0x3a
 2720 002f 0B       		.uleb128 0xb
 2721 0030 3B       		.uleb128 0x3b
 2722 0031 05       		.uleb128 0x5
 2723 0032 49       		.uleb128 0x49
 2724 0033 13       		.uleb128 0x13
 2725 0034 00       		.byte	0
 2726 0035 00       		.byte	0
 2727 0036 05       		.uleb128 0x5
 2728 0037 35       		.uleb128 0x35
 2729 0038 00       		.byte	0
 2730 0039 49       		.uleb128 0x49
 2731 003a 13       		.uleb128 0x13
 2732 003b 00       		.byte	0
 2733 003c 00       		.byte	0
 2734 003d 06       		.uleb128 0x6
 2735 003e 2E       		.uleb128 0x2e
 2736 003f 01       		.byte	0x1
 2737 0040 03       		.uleb128 0x3
 2738 0041 0E       		.uleb128 0xe
 2739 0042 3A       		.uleb128 0x3a
 2740 0043 0B       		.uleb128 0xb
 2741 0044 3B       		.uleb128 0x3b
 2742 0045 05       		.uleb128 0x5
 2743 0046 27       		.uleb128 0x27
 2744 0047 19       		.uleb128 0x19
 2745 0048 49       		.uleb128 0x49
 2746 0049 13       		.uleb128 0x13
 2747 004a 11       		.uleb128 0x11
 2748 004b 01       		.uleb128 0x1
 2749 004c 12       		.uleb128 0x12
 2750 004d 06       		.uleb128 0x6
 2751 004e 40       		.uleb128 0x40
 2752 004f 18       		.uleb128 0x18
 2753 0050 9742     		.uleb128 0x2117
 2754 0052 19       		.uleb128 0x19
 2755 0053 01       		.uleb128 0x1
ARM GAS  C:\Users\VIDEOH~1\AppData\Local\Temp\ccKwza2q.s 			page 74


 2756 0054 13       		.uleb128 0x13
 2757 0055 00       		.byte	0
 2758 0056 00       		.byte	0
 2759 0057 07       		.uleb128 0x7
 2760 0058 05       		.uleb128 0x5
 2761 0059 00       		.byte	0
 2762 005a 03       		.uleb128 0x3
 2763 005b 0E       		.uleb128 0xe
 2764 005c 3A       		.uleb128 0x3a
 2765 005d 0B       		.uleb128 0xb
 2766 005e 3B       		.uleb128 0x3b
 2767 005f 05       		.uleb128 0x5
 2768 0060 49       		.uleb128 0x49
 2769 0061 13       		.uleb128 0x13
 2770 0062 02       		.uleb128 0x2
 2771 0063 17       		.uleb128 0x17
 2772 0064 00       		.byte	0
 2773 0065 00       		.byte	0
 2774 0066 08       		.uleb128 0x8
 2775 0067 34       		.uleb128 0x34
 2776 0068 00       		.byte	0
 2777 0069 03       		.uleb128 0x3
 2778 006a 0E       		.uleb128 0xe
 2779 006b 3A       		.uleb128 0x3a
 2780 006c 0B       		.uleb128 0xb
 2781 006d 3B       		.uleb128 0x3b
 2782 006e 05       		.uleb128 0x5
 2783 006f 49       		.uleb128 0x49
 2784 0070 13       		.uleb128 0x13
 2785 0071 1C       		.uleb128 0x1c
 2786 0072 0B       		.uleb128 0xb
 2787 0073 00       		.byte	0
 2788 0074 00       		.byte	0
 2789 0075 09       		.uleb128 0x9
 2790 0076 34       		.uleb128 0x34
 2791 0077 00       		.byte	0
 2792 0078 03       		.uleb128 0x3
 2793 0079 0E       		.uleb128 0xe
 2794 007a 3A       		.uleb128 0x3a
 2795 007b 0B       		.uleb128 0xb
 2796 007c 3B       		.uleb128 0x3b
 2797 007d 05       		.uleb128 0x5
 2798 007e 49       		.uleb128 0x49
 2799 007f 13       		.uleb128 0x13
 2800 0080 02       		.uleb128 0x2
 2801 0081 17       		.uleb128 0x17
 2802 0082 00       		.byte	0
 2803 0083 00       		.byte	0
 2804 0084 0A       		.uleb128 0xa
 2805 0085 898201   		.uleb128 0x4109
 2806 0088 01       		.byte	0x1
 2807 0089 11       		.uleb128 0x11
 2808 008a 01       		.uleb128 0x1
 2809 008b 31       		.uleb128 0x31
 2810 008c 13       		.uleb128 0x13
 2811 008d 00       		.byte	0
 2812 008e 00       		.byte	0
ARM GAS  C:\Users\VIDEOH~1\AppData\Local\Temp\ccKwza2q.s 			page 75


 2813 008f 0B       		.uleb128 0xb
 2814 0090 8A8201   		.uleb128 0x410a
 2815 0093 00       		.byte	0
 2816 0094 02       		.uleb128 0x2
 2817 0095 18       		.uleb128 0x18
 2818 0096 9142     		.uleb128 0x2111
 2819 0098 18       		.uleb128 0x18
 2820 0099 00       		.byte	0
 2821 009a 00       		.byte	0
 2822 009b 0C       		.uleb128 0xc
 2823 009c 0F       		.uleb128 0xf
 2824 009d 00       		.byte	0
 2825 009e 0B       		.uleb128 0xb
 2826 009f 0B       		.uleb128 0xb
 2827 00a0 49       		.uleb128 0x49
 2828 00a1 13       		.uleb128 0x13
 2829 00a2 00       		.byte	0
 2830 00a3 00       		.byte	0
 2831 00a4 0D       		.uleb128 0xd
 2832 00a5 26       		.uleb128 0x26
 2833 00a6 00       		.byte	0
 2834 00a7 49       		.uleb128 0x49
 2835 00a8 13       		.uleb128 0x13
 2836 00a9 00       		.byte	0
 2837 00aa 00       		.byte	0
 2838 00ab 0E       		.uleb128 0xe
 2839 00ac 898201   		.uleb128 0x4109
 2840 00af 00       		.byte	0
 2841 00b0 11       		.uleb128 0x11
 2842 00b1 01       		.uleb128 0x1
 2843 00b2 31       		.uleb128 0x31
 2844 00b3 13       		.uleb128 0x13
 2845 00b4 00       		.byte	0
 2846 00b5 00       		.byte	0
 2847 00b6 0F       		.uleb128 0xf
 2848 00b7 2E       		.uleb128 0x2e
 2849 00b8 01       		.byte	0x1
 2850 00b9 3F       		.uleb128 0x3f
 2851 00ba 19       		.uleb128 0x19
 2852 00bb 03       		.uleb128 0x3
 2853 00bc 0E       		.uleb128 0xe
 2854 00bd 3A       		.uleb128 0x3a
 2855 00be 0B       		.uleb128 0xb
 2856 00bf 3B       		.uleb128 0x3b
 2857 00c0 05       		.uleb128 0x5
 2858 00c1 27       		.uleb128 0x27
 2859 00c2 19       		.uleb128 0x19
 2860 00c3 49       		.uleb128 0x49
 2861 00c4 13       		.uleb128 0x13
 2862 00c5 11       		.uleb128 0x11
 2863 00c6 01       		.uleb128 0x1
 2864 00c7 12       		.uleb128 0x12
 2865 00c8 06       		.uleb128 0x6
 2866 00c9 40       		.uleb128 0x40
 2867 00ca 18       		.uleb128 0x18
 2868 00cb 9742     		.uleb128 0x2117
 2869 00cd 19       		.uleb128 0x19
ARM GAS  C:\Users\VIDEOH~1\AppData\Local\Temp\ccKwza2q.s 			page 76


 2870 00ce 01       		.uleb128 0x1
 2871 00cf 13       		.uleb128 0x13
 2872 00d0 00       		.byte	0
 2873 00d1 00       		.byte	0
 2874 00d2 10       		.uleb128 0x10
 2875 00d3 0B       		.uleb128 0xb
 2876 00d4 01       		.byte	0x1
 2877 00d5 11       		.uleb128 0x11
 2878 00d6 01       		.uleb128 0x1
 2879 00d7 12       		.uleb128 0x12
 2880 00d8 06       		.uleb128 0x6
 2881 00d9 01       		.uleb128 0x1
 2882 00da 13       		.uleb128 0x13
 2883 00db 00       		.byte	0
 2884 00dc 00       		.byte	0
 2885 00dd 11       		.uleb128 0x11
 2886 00de 34       		.uleb128 0x34
 2887 00df 00       		.byte	0
 2888 00e0 03       		.uleb128 0x3
 2889 00e1 0E       		.uleb128 0xe
 2890 00e2 3A       		.uleb128 0x3a
 2891 00e3 0B       		.uleb128 0xb
 2892 00e4 3B       		.uleb128 0x3b
 2893 00e5 05       		.uleb128 0x5
 2894 00e6 49       		.uleb128 0x49
 2895 00e7 13       		.uleb128 0x13
 2896 00e8 02       		.uleb128 0x2
 2897 00e9 18       		.uleb128 0x18
 2898 00ea 00       		.byte	0
 2899 00eb 00       		.byte	0
 2900 00ec 12       		.uleb128 0x12
 2901 00ed 898201   		.uleb128 0x4109
 2902 00f0 01       		.byte	0x1
 2903 00f1 11       		.uleb128 0x11
 2904 00f2 01       		.uleb128 0x1
 2905 00f3 31       		.uleb128 0x31
 2906 00f4 13       		.uleb128 0x13
 2907 00f5 01       		.uleb128 0x1
 2908 00f6 13       		.uleb128 0x13
 2909 00f7 00       		.byte	0
 2910 00f8 00       		.byte	0
 2911 00f9 13       		.uleb128 0x13
 2912 00fa 0B       		.uleb128 0xb
 2913 00fb 01       		.byte	0x1
 2914 00fc 11       		.uleb128 0x11
 2915 00fd 01       		.uleb128 0x1
 2916 00fe 12       		.uleb128 0x12
 2917 00ff 06       		.uleb128 0x6
 2918 0100 00       		.byte	0
 2919 0101 00       		.byte	0
 2920 0102 14       		.uleb128 0x14
 2921 0103 2E       		.uleb128 0x2e
 2922 0104 00       		.byte	0
 2923 0105 3F       		.uleb128 0x3f
 2924 0106 19       		.uleb128 0x19
 2925 0107 03       		.uleb128 0x3
 2926 0108 0E       		.uleb128 0xe
ARM GAS  C:\Users\VIDEOH~1\AppData\Local\Temp\ccKwza2q.s 			page 77


 2927 0109 3A       		.uleb128 0x3a
 2928 010a 0B       		.uleb128 0xb
 2929 010b 3B       		.uleb128 0x3b
 2930 010c 05       		.uleb128 0x5
 2931 010d 27       		.uleb128 0x27
 2932 010e 19       		.uleb128 0x19
 2933 010f 49       		.uleb128 0x49
 2934 0110 13       		.uleb128 0x13
 2935 0111 11       		.uleb128 0x11
 2936 0112 01       		.uleb128 0x1
 2937 0113 12       		.uleb128 0x12
 2938 0114 06       		.uleb128 0x6
 2939 0115 40       		.uleb128 0x40
 2940 0116 18       		.uleb128 0x18
 2941 0117 9742     		.uleb128 0x2117
 2942 0119 19       		.uleb128 0x19
 2943 011a 00       		.byte	0
 2944 011b 00       		.byte	0
 2945 011c 15       		.uleb128 0x15
 2946 011d 2E       		.uleb128 0x2e
 2947 011e 01       		.byte	0x1
 2948 011f 3F       		.uleb128 0x3f
 2949 0120 19       		.uleb128 0x19
 2950 0121 03       		.uleb128 0x3
 2951 0122 0E       		.uleb128 0xe
 2952 0123 3A       		.uleb128 0x3a
 2953 0124 0B       		.uleb128 0xb
 2954 0125 3B       		.uleb128 0x3b
 2955 0126 05       		.uleb128 0x5
 2956 0127 27       		.uleb128 0x27
 2957 0128 19       		.uleb128 0x19
 2958 0129 11       		.uleb128 0x11
 2959 012a 01       		.uleb128 0x1
 2960 012b 12       		.uleb128 0x12
 2961 012c 06       		.uleb128 0x6
 2962 012d 40       		.uleb128 0x40
 2963 012e 18       		.uleb128 0x18
 2964 012f 9742     		.uleb128 0x2117
 2965 0131 19       		.uleb128 0x19
 2966 0132 01       		.uleb128 0x1
 2967 0133 13       		.uleb128 0x13
 2968 0134 00       		.byte	0
 2969 0135 00       		.byte	0
 2970 0136 16       		.uleb128 0x16
 2971 0137 2E       		.uleb128 0x2e
 2972 0138 01       		.byte	0x1
 2973 0139 3F       		.uleb128 0x3f
 2974 013a 19       		.uleb128 0x19
 2975 013b 03       		.uleb128 0x3
 2976 013c 0E       		.uleb128 0xe
 2977 013d 3A       		.uleb128 0x3a
 2978 013e 0B       		.uleb128 0xb
 2979 013f 3B       		.uleb128 0x3b
 2980 0140 0B       		.uleb128 0xb
 2981 0141 27       		.uleb128 0x27
 2982 0142 19       		.uleb128 0x19
 2983 0143 49       		.uleb128 0x49
ARM GAS  C:\Users\VIDEOH~1\AppData\Local\Temp\ccKwza2q.s 			page 78


 2984 0144 13       		.uleb128 0x13
 2985 0145 11       		.uleb128 0x11
 2986 0146 01       		.uleb128 0x1
 2987 0147 12       		.uleb128 0x12
 2988 0148 06       		.uleb128 0x6
 2989 0149 40       		.uleb128 0x40
 2990 014a 18       		.uleb128 0x18
 2991 014b 9742     		.uleb128 0x2117
 2992 014d 19       		.uleb128 0x19
 2993 014e 01       		.uleb128 0x1
 2994 014f 13       		.uleb128 0x13
 2995 0150 00       		.byte	0
 2996 0151 00       		.byte	0
 2997 0152 17       		.uleb128 0x17
 2998 0153 05       		.uleb128 0x5
 2999 0154 00       		.byte	0
 3000 0155 03       		.uleb128 0x3
 3001 0156 0E       		.uleb128 0xe
 3002 0157 3A       		.uleb128 0x3a
 3003 0158 0B       		.uleb128 0xb
 3004 0159 3B       		.uleb128 0x3b
 3005 015a 0B       		.uleb128 0xb
 3006 015b 49       		.uleb128 0x49
 3007 015c 13       		.uleb128 0x13
 3008 015d 02       		.uleb128 0x2
 3009 015e 17       		.uleb128 0x17
 3010 015f 00       		.byte	0
 3011 0160 00       		.byte	0
 3012 0161 18       		.uleb128 0x18
 3013 0162 05       		.uleb128 0x5
 3014 0163 00       		.byte	0
 3015 0164 03       		.uleb128 0x3
 3016 0165 08       		.uleb128 0x8
 3017 0166 3A       		.uleb128 0x3a
 3018 0167 0B       		.uleb128 0xb
 3019 0168 3B       		.uleb128 0x3b
 3020 0169 0B       		.uleb128 0xb
 3021 016a 49       		.uleb128 0x49
 3022 016b 13       		.uleb128 0x13
 3023 016c 02       		.uleb128 0x2
 3024 016d 17       		.uleb128 0x17
 3025 016e 00       		.byte	0
 3026 016f 00       		.byte	0
 3027 0170 19       		.uleb128 0x19
 3028 0171 34       		.uleb128 0x34
 3029 0172 00       		.byte	0
 3030 0173 03       		.uleb128 0x3
 3031 0174 0E       		.uleb128 0xe
 3032 0175 3A       		.uleb128 0x3a
 3033 0176 0B       		.uleb128 0xb
 3034 0177 3B       		.uleb128 0x3b
 3035 0178 0B       		.uleb128 0xb
 3036 0179 49       		.uleb128 0x49
 3037 017a 13       		.uleb128 0x13
 3038 017b 02       		.uleb128 0x2
 3039 017c 17       		.uleb128 0x17
 3040 017d 00       		.byte	0
ARM GAS  C:\Users\VIDEOH~1\AppData\Local\Temp\ccKwza2q.s 			page 79


 3041 017e 00       		.byte	0
 3042 017f 1A       		.uleb128 0x1a
 3043 0180 34       		.uleb128 0x34
 3044 0181 00       		.byte	0
 3045 0182 03       		.uleb128 0x3
 3046 0183 0E       		.uleb128 0xe
 3047 0184 3A       		.uleb128 0x3a
 3048 0185 0B       		.uleb128 0xb
 3049 0186 3B       		.uleb128 0x3b
 3050 0187 0B       		.uleb128 0xb
 3051 0188 49       		.uleb128 0x49
 3052 0189 13       		.uleb128 0x13
 3053 018a 3F       		.uleb128 0x3f
 3054 018b 19       		.uleb128 0x19
 3055 018c 3C       		.uleb128 0x3c
 3056 018d 19       		.uleb128 0x19
 3057 018e 00       		.byte	0
 3058 018f 00       		.byte	0
 3059 0190 1B       		.uleb128 0x1b
 3060 0191 34       		.uleb128 0x34
 3061 0192 00       		.byte	0
 3062 0193 03       		.uleb128 0x3
 3063 0194 0E       		.uleb128 0xe
 3064 0195 3A       		.uleb128 0x3a
 3065 0196 0B       		.uleb128 0xb
 3066 0197 3B       		.uleb128 0x3b
 3067 0198 0B       		.uleb128 0xb
 3068 0199 49       		.uleb128 0x49
 3069 019a 13       		.uleb128 0x13
 3070 019b 3F       		.uleb128 0x3f
 3071 019c 19       		.uleb128 0x19
 3072 019d 02       		.uleb128 0x2
 3073 019e 18       		.uleb128 0x18
 3074 019f 00       		.byte	0
 3075 01a0 00       		.byte	0
 3076 01a1 1C       		.uleb128 0x1c
 3077 01a2 2E       		.uleb128 0x2e
 3078 01a3 00       		.byte	0
 3079 01a4 3F       		.uleb128 0x3f
 3080 01a5 19       		.uleb128 0x19
 3081 01a6 3C       		.uleb128 0x3c
 3082 01a7 19       		.uleb128 0x19
 3083 01a8 6E       		.uleb128 0x6e
 3084 01a9 0E       		.uleb128 0xe
 3085 01aa 03       		.uleb128 0x3
 3086 01ab 0E       		.uleb128 0xe
 3087 01ac 3A       		.uleb128 0x3a
 3088 01ad 0B       		.uleb128 0xb
 3089 01ae 3B       		.uleb128 0x3b
 3090 01af 0B       		.uleb128 0xb
 3091 01b0 00       		.byte	0
 3092 01b1 00       		.byte	0
 3093 01b2 00       		.byte	0
 3094              		.section	.debug_loc,"",%progbits
 3095              	.Ldebug_loc0:
 3096              	.LLST0:
 3097 0000 00000000 		.4byte	.LVL0
ARM GAS  C:\Users\VIDEOH~1\AppData\Local\Temp\ccKwza2q.s 			page 80


 3098 0004 0C000000 		.4byte	.LVL2
 3099 0008 0100     		.2byte	0x1
 3100 000a 50       		.byte	0x50
 3101 000b 0C000000 		.4byte	.LVL2
 3102 000f 1E000000 		.4byte	.LVL4
 3103 0013 0100     		.2byte	0x1
 3104 0015 54       		.byte	0x54
 3105 0016 1E000000 		.4byte	.LVL4
 3106 001a 20000000 		.4byte	.LVL5
 3107 001e 0100     		.2byte	0x1
 3108 0020 50       		.byte	0x50
 3109 0021 20000000 		.4byte	.LVL5
 3110 0025 26000000 		.4byte	.LVL7
 3111 0029 0100     		.2byte	0x1
 3112 002b 54       		.byte	0x54
 3113 002c 26000000 		.4byte	.LVL7
 3114 0030 28000000 		.4byte	.LFE15
 3115 0034 0400     		.2byte	0x4
 3116 0036 F3       		.byte	0xf3
 3117 0037 01       		.uleb128 0x1
 3118 0038 50       		.byte	0x50
 3119 0039 9F       		.byte	0x9f
 3120 003a 00000000 		.4byte	0
 3121 003e 00000000 		.4byte	0
 3122              	.LLST1:
 3123 0042 04000000 		.4byte	.LVL1
 3124 0046 26000000 		.4byte	.LVL6
 3125 004a 0200     		.2byte	0x2
 3126 004c 30       		.byte	0x30
 3127 004d 9F       		.byte	0x9f
 3128 004e 26000000 		.4byte	.LVL6
 3129 0052 28000000 		.4byte	.LFE15
 3130 0056 0100     		.2byte	0x1
 3131 0058 50       		.byte	0x50
 3132 0059 00000000 		.4byte	0
 3133 005d 00000000 		.4byte	0
 3134              	.LLST2:
 3135 0061 00000000 		.4byte	.LVL8
 3136 0065 A1000000 		.4byte	.LVL21-1
 3137 0069 0100     		.2byte	0x1
 3138 006b 50       		.byte	0x50
 3139 006c A1000000 		.4byte	.LVL21-1
 3140 0070 A4000000 		.4byte	.LVL22
 3141 0074 0400     		.2byte	0x4
 3142 0076 F3       		.byte	0xf3
 3143 0077 01       		.uleb128 0x1
 3144 0078 50       		.byte	0x50
 3145 0079 9F       		.byte	0x9f
 3146 007a A4000000 		.4byte	.LVL22
 3147 007e AA000000 		.4byte	.LVL24
 3148 0082 0100     		.2byte	0x1
 3149 0084 50       		.byte	0x50
 3150 0085 AA000000 		.4byte	.LVL24
 3151 0089 C4000000 		.4byte	.LFE14
 3152 008d 0400     		.2byte	0x4
 3153 008f F3       		.byte	0xf3
 3154 0090 01       		.uleb128 0x1
ARM GAS  C:\Users\VIDEOH~1\AppData\Local\Temp\ccKwza2q.s 			page 81


 3155 0091 50       		.byte	0x50
 3156 0092 9F       		.byte	0x9f
 3157 0093 00000000 		.4byte	0
 3158 0097 00000000 		.4byte	0
 3159              	.LLST3:
 3160 009b 0C000000 		.4byte	.LVL10
 3161 009f 1E000000 		.4byte	.LVL11
 3162 00a3 0200     		.2byte	0x2
 3163 00a5 40       		.byte	0x40
 3164 00a6 9F       		.byte	0x9f
 3165 00a7 22000000 		.4byte	.LVL12
 3166 00ab 42000000 		.4byte	.LVL14
 3167 00af 0200     		.2byte	0x2
 3168 00b1 31       		.byte	0x31
 3169 00b2 9F       		.byte	0x9f
 3170 00b3 4A000000 		.4byte	.LVL15
 3171 00b7 7A000000 		.4byte	.LVL16
 3172 00bb 0200     		.2byte	0x2
 3173 00bd 30       		.byte	0x30
 3174 00be 9F       		.byte	0x9f
 3175 00bf 82000000 		.4byte	.LVL17
 3176 00c3 88000000 		.4byte	.LVL18
 3177 00c7 0200     		.2byte	0x2
 3178 00c9 31       		.byte	0x31
 3179 00ca 9F       		.byte	0x9f
 3180 00cb 96000000 		.4byte	.LVL19
 3181 00cf 9A000000 		.4byte	.LVL20
 3182 00d3 0200     		.2byte	0x2
 3183 00d5 30       		.byte	0x30
 3184 00d6 9F       		.byte	0x9f
 3185 00d7 9A000000 		.4byte	.LVL20
 3186 00db AC000000 		.4byte	.LVL25
 3187 00df 0100     		.2byte	0x1
 3188 00e1 54       		.byte	0x54
 3189 00e2 AC000000 		.4byte	.LVL25
 3190 00e6 C4000000 		.4byte	.LFE14
 3191 00ea 0100     		.2byte	0x1
 3192 00ec 50       		.byte	0x50
 3193 00ed 00000000 		.4byte	0
 3194 00f1 00000000 		.4byte	0
 3195              	.LLST4:
 3196 00f5 02000000 		.4byte	.LVL9
 3197 00f9 38000000 		.4byte	.LVL13
 3198 00fd 0200     		.2byte	0x2
 3199 00ff 30       		.byte	0x30
 3200 0100 9F       		.byte	0x9f
 3201 0101 38000000 		.4byte	.LVL13
 3202 0105 42000000 		.4byte	.LVL14
 3203 0109 0100     		.2byte	0x1
 3204 010b 53       		.byte	0x53
 3205 010c 42000000 		.4byte	.LVL14
 3206 0110 9A000000 		.4byte	.LVL20
 3207 0114 0200     		.2byte	0x2
 3208 0116 30       		.byte	0x30
 3209 0117 9F       		.byte	0x9f
 3210 0118 9A000000 		.4byte	.LVL20
 3211 011c A1000000 		.4byte	.LVL21-1
ARM GAS  C:\Users\VIDEOH~1\AppData\Local\Temp\ccKwza2q.s 			page 82


 3212 0120 0100     		.2byte	0x1
 3213 0122 53       		.byte	0x53
 3214 0123 A4000000 		.4byte	.LVL22
 3215 0127 A8000000 		.4byte	.LVL23
 3216 012b 0100     		.2byte	0x1
 3217 012d 53       		.byte	0x53
 3218 012e 00000000 		.4byte	0
 3219 0132 00000000 		.4byte	0
 3220              	.LLST5:
 3221 0136 00000000 		.4byte	.LVL26
 3222 013a 14000000 		.4byte	.LVL28
 3223 013e 0100     		.2byte	0x1
 3224 0140 50       		.byte	0x50
 3225 0141 14000000 		.4byte	.LVL28
 3226 0145 3C000000 		.4byte	.LVL31
 3227 0149 0100     		.2byte	0x1
 3228 014b 54       		.byte	0x54
 3229 014c 3C000000 		.4byte	.LVL31
 3230 0150 40000000 		.4byte	.LVL32
 3231 0154 0400     		.2byte	0x4
 3232 0156 F3       		.byte	0xf3
 3233 0157 01       		.uleb128 0x1
 3234 0158 50       		.byte	0x50
 3235 0159 9F       		.byte	0x9f
 3236 015a 40000000 		.4byte	.LVL32
 3237 015e 60000000 		.4byte	.LVL34
 3238 0162 0100     		.2byte	0x1
 3239 0164 54       		.byte	0x54
 3240 0165 8A000000 		.4byte	.LVL43
 3241 0169 8C000000 		.4byte	.LVL44
 3242 016d 0100     		.2byte	0x1
 3243 016f 54       		.byte	0x54
 3244 0170 94000000 		.4byte	.LVL46
 3245 0174 96000000 		.4byte	.LVL47
 3246 0178 0100     		.2byte	0x1
 3247 017a 50       		.byte	0x50
 3248 017b 00000000 		.4byte	0
 3249 017f 00000000 		.4byte	0
 3250              	.LLST6:
 3251 0183 00000000 		.4byte	.LVL26
 3252 0187 17000000 		.4byte	.LVL29-1
 3253 018b 0100     		.2byte	0x1
 3254 018d 51       		.byte	0x51
 3255 018e 17000000 		.4byte	.LVL29-1
 3256 0192 94000000 		.4byte	.LVL46
 3257 0196 0100     		.2byte	0x1
 3258 0198 55       		.byte	0x55
 3259 0199 94000000 		.4byte	.LVL46
 3260 019d 96000000 		.4byte	.LVL47
 3261 01a1 0100     		.2byte	0x1
 3262 01a3 51       		.byte	0x51
 3263 01a4 96000000 		.4byte	.LVL47
 3264 01a8 9A000000 		.4byte	.LVL49
 3265 01ac 0100     		.2byte	0x1
 3266 01ae 55       		.byte	0x55
 3267 01af 9A000000 		.4byte	.LVL49
 3268 01b3 C4000000 		.4byte	.LFE2
ARM GAS  C:\Users\VIDEOH~1\AppData\Local\Temp\ccKwza2q.s 			page 83


 3269 01b7 0400     		.2byte	0x4
 3270 01b9 F3       		.byte	0xf3
 3271 01ba 01       		.uleb128 0x1
 3272 01bb 51       		.byte	0x51
 3273 01bc 9F       		.byte	0x9f
 3274 01bd 00000000 		.4byte	0
 3275 01c1 00000000 		.4byte	0
 3276              	.LLST7:
 3277 01c5 00000000 		.4byte	.LVL26
 3278 01c9 17000000 		.4byte	.LVL29-1
 3279 01cd 0100     		.2byte	0x1
 3280 01cf 52       		.byte	0x52
 3281 01d0 17000000 		.4byte	.LVL29-1
 3282 01d4 26000000 		.4byte	.LVL30
 3283 01d8 0100     		.2byte	0x1
 3284 01da 56       		.byte	0x56
 3285 01db 26000000 		.4byte	.LVL30
 3286 01df 8A000000 		.4byte	.LVL43
 3287 01e3 0400     		.2byte	0x4
 3288 01e5 F3       		.byte	0xf3
 3289 01e6 01       		.uleb128 0x1
 3290 01e7 52       		.byte	0x52
 3291 01e8 9F       		.byte	0x9f
 3292 01e9 8A000000 		.4byte	.LVL43
 3293 01ed 8C000000 		.4byte	.LVL44
 3294 01f1 0100     		.2byte	0x1
 3295 01f3 56       		.byte	0x56
 3296 01f4 8C000000 		.4byte	.LVL44
 3297 01f8 94000000 		.4byte	.LVL46
 3298 01fc 0400     		.2byte	0x4
 3299 01fe F3       		.byte	0xf3
 3300 01ff 01       		.uleb128 0x1
 3301 0200 52       		.byte	0x52
 3302 0201 9F       		.byte	0x9f
 3303 0202 94000000 		.4byte	.LVL46
 3304 0206 96000000 		.4byte	.LVL47
 3305 020a 0100     		.2byte	0x1
 3306 020c 52       		.byte	0x52
 3307 020d 96000000 		.4byte	.LVL47
 3308 0211 C4000000 		.4byte	.LFE2
 3309 0215 0400     		.2byte	0x4
 3310 0217 F3       		.byte	0xf3
 3311 0218 01       		.uleb128 0x1
 3312 0219 52       		.byte	0x52
 3313 021a 9F       		.byte	0x9f
 3314 021b 00000000 		.4byte	0
 3315 021f 00000000 		.4byte	0
 3316              	.LLST8:
 3317 0223 0A000000 		.4byte	.LVL27
 3318 0227 88000000 		.4byte	.LVL42
 3319 022b 0200     		.2byte	0x2
 3320 022d 34       		.byte	0x34
 3321 022e 9F       		.byte	0x9f
 3322 022f 88000000 		.4byte	.LVL42
 3323 0233 8A000000 		.4byte	.LVL43
 3324 0237 0100     		.2byte	0x1
 3325 0239 50       		.byte	0x50
ARM GAS  C:\Users\VIDEOH~1\AppData\Local\Temp\ccKwza2q.s 			page 84


 3326 023a 8A000000 		.4byte	.LVL43
 3327 023e 8C000000 		.4byte	.LVL44
 3328 0242 0200     		.2byte	0x2
 3329 0244 34       		.byte	0x34
 3330 0245 9F       		.byte	0x9f
 3331 0246 8C000000 		.4byte	.LVL44
 3332 024a 94000000 		.4byte	.LVL46
 3333 024e 0100     		.2byte	0x1
 3334 0250 54       		.byte	0x54
 3335 0251 94000000 		.4byte	.LVL46
 3336 0255 96000000 		.4byte	.LVL47
 3337 0259 0200     		.2byte	0x2
 3338 025b 34       		.byte	0x34
 3339 025c 9F       		.byte	0x9f
 3340 025d 96000000 		.4byte	.LVL47
 3341 0261 9A000000 		.4byte	.LVL48
 3342 0265 0100     		.2byte	0x1
 3343 0267 54       		.byte	0x54
 3344 0268 9A000000 		.4byte	.LVL48
 3345 026c C4000000 		.4byte	.LFE2
 3346 0270 0100     		.2byte	0x1
 3347 0272 50       		.byte	0x50
 3348 0273 00000000 		.4byte	0
 3349 0277 00000000 		.4byte	0
 3350              	.LLST9:
 3351 027b 6C000000 		.4byte	.LVL35
 3352 027f 76000000 		.4byte	.LVL36
 3353 0283 0100     		.2byte	0x1
 3354 0285 50       		.byte	0x50
 3355 0286 78000000 		.4byte	.LVL37
 3356 028a 7A000000 		.4byte	.LVL38
 3357 028e 0100     		.2byte	0x1
 3358 0290 50       		.byte	0x50
 3359 0291 7A000000 		.4byte	.LVL38
 3360 0295 80000000 		.4byte	.LVL40
 3361 0299 0100     		.2byte	0x1
 3362 029b 54       		.byte	0x54
 3363 029c 80000000 		.4byte	.LVL40
 3364 02a0 85000000 		.4byte	.LVL41-1
 3365 02a4 0100     		.2byte	0x1
 3366 02a6 50       		.byte	0x50
 3367 02a7 00000000 		.4byte	0
 3368 02ab 00000000 		.4byte	0
 3369              	.LLST10:
 3370 02af 00000000 		.4byte	.LVL50
 3371 02b3 12000000 		.4byte	.LVL52
 3372 02b7 0100     		.2byte	0x1
 3373 02b9 50       		.byte	0x50
 3374 02ba 12000000 		.4byte	.LVL52
 3375 02be 42000000 		.4byte	.LVL58
 3376 02c2 0400     		.2byte	0x4
 3377 02c4 F3       		.byte	0xf3
 3378 02c5 01       		.uleb128 0x1
 3379 02c6 50       		.byte	0x50
 3380 02c7 9F       		.byte	0x9f
 3381 02c8 42000000 		.4byte	.LVL58
 3382 02cc 44000000 		.4byte	.LVL59
ARM GAS  C:\Users\VIDEOH~1\AppData\Local\Temp\ccKwza2q.s 			page 85


 3383 02d0 0100     		.2byte	0x1
 3384 02d2 50       		.byte	0x50
 3385 02d3 44000000 		.4byte	.LVL59
 3386 02d7 58000000 		.4byte	.LFE4
 3387 02db 0400     		.2byte	0x4
 3388 02dd F3       		.byte	0xf3
 3389 02de 01       		.uleb128 0x1
 3390 02df 50       		.byte	0x50
 3391 02e0 9F       		.byte	0x9f
 3392 02e1 00000000 		.4byte	0
 3393 02e5 00000000 		.4byte	0
 3394              	.LLST11:
 3395 02e9 04000000 		.4byte	.LVL51
 3396 02ed 40000000 		.4byte	.LVL57
 3397 02f1 0200     		.2byte	0x2
 3398 02f3 34       		.byte	0x34
 3399 02f4 9F       		.byte	0x9f
 3400 02f5 40000000 		.4byte	.LVL57
 3401 02f9 42000000 		.4byte	.LVL58
 3402 02fd 0100     		.2byte	0x1
 3403 02ff 50       		.byte	0x50
 3404 0300 42000000 		.4byte	.LVL58
 3405 0304 44000000 		.4byte	.LVL59
 3406 0308 0200     		.2byte	0x2
 3407 030a 34       		.byte	0x34
 3408 030b 9F       		.byte	0x9f
 3409 030c 44000000 		.4byte	.LVL59
 3410 0310 58000000 		.4byte	.LFE4
 3411 0314 0100     		.2byte	0x1
 3412 0316 50       		.byte	0x50
 3413 0317 00000000 		.4byte	0
 3414 031b 00000000 		.4byte	0
 3415              	.LLST12:
 3416 031f 32000000 		.4byte	.LVL53
 3417 0323 34000000 		.4byte	.LVL54
 3418 0327 0100     		.2byte	0x1
 3419 0329 50       		.byte	0x50
 3420 032a 34000000 		.4byte	.LVL54
 3421 032e 3A000000 		.4byte	.LVL56
 3422 0332 0100     		.2byte	0x1
 3423 0334 54       		.byte	0x54
 3424 0335 3A000000 		.4byte	.LVL56
 3425 0339 3F000000 		.4byte	.LVL57-1
 3426 033d 0100     		.2byte	0x1
 3427 033f 50       		.byte	0x50
 3428 0340 00000000 		.4byte	0
 3429 0344 00000000 		.4byte	0
 3430              	.LLST13:
 3431 0348 00000000 		.4byte	.LVL60
 3432 034c 18000000 		.4byte	.LVL63
 3433 0350 0100     		.2byte	0x1
 3434 0352 50       		.byte	0x50
 3435 0353 18000000 		.4byte	.LVL63
 3436 0357 34000000 		.4byte	.LVL69
 3437 035b 0400     		.2byte	0x4
 3438 035d F3       		.byte	0xf3
 3439 035e 01       		.uleb128 0x1
ARM GAS  C:\Users\VIDEOH~1\AppData\Local\Temp\ccKwza2q.s 			page 86


 3440 035f 50       		.byte	0x50
 3441 0360 9F       		.byte	0x9f
 3442 0361 34000000 		.4byte	.LVL69
 3443 0365 36000000 		.4byte	.LVL70
 3444 0369 0100     		.2byte	0x1
 3445 036b 50       		.byte	0x50
 3446 036c 36000000 		.4byte	.LVL70
 3447 0370 48000000 		.4byte	.LFE5
 3448 0374 0400     		.2byte	0x4
 3449 0376 F3       		.byte	0xf3
 3450 0377 01       		.uleb128 0x1
 3451 0378 50       		.byte	0x50
 3452 0379 9F       		.byte	0x9f
 3453 037a 00000000 		.4byte	0
 3454 037e 00000000 		.4byte	0
 3455              	.LLST14:
 3456 0382 00000000 		.4byte	.LVL60
 3457 0386 12000000 		.4byte	.LVL62
 3458 038a 0100     		.2byte	0x1
 3459 038c 51       		.byte	0x51
 3460 038d 12000000 		.4byte	.LVL62
 3461 0391 34000000 		.4byte	.LVL69
 3462 0395 0400     		.2byte	0x4
 3463 0397 F3       		.byte	0xf3
 3464 0398 01       		.uleb128 0x1
 3465 0399 51       		.byte	0x51
 3466 039a 9F       		.byte	0x9f
 3467 039b 34000000 		.4byte	.LVL69
 3468 039f 36000000 		.4byte	.LVL70
 3469 03a3 0100     		.2byte	0x1
 3470 03a5 51       		.byte	0x51
 3471 03a6 36000000 		.4byte	.LVL70
 3472 03aa 48000000 		.4byte	.LFE5
 3473 03ae 0400     		.2byte	0x4
 3474 03b0 F3       		.byte	0xf3
 3475 03b1 01       		.uleb128 0x1
 3476 03b2 51       		.byte	0x51
 3477 03b3 9F       		.byte	0x9f
 3478 03b4 00000000 		.4byte	0
 3479 03b8 00000000 		.4byte	0
 3480              	.LLST15:
 3481 03bc 04000000 		.4byte	.LVL61
 3482 03c0 32000000 		.4byte	.LVL68
 3483 03c4 0200     		.2byte	0x2
 3484 03c6 34       		.byte	0x34
 3485 03c7 9F       		.byte	0x9f
 3486 03c8 32000000 		.4byte	.LVL68
 3487 03cc 34000000 		.4byte	.LVL69
 3488 03d0 0100     		.2byte	0x1
 3489 03d2 50       		.byte	0x50
 3490 03d3 34000000 		.4byte	.LVL69
 3491 03d7 36000000 		.4byte	.LVL70
 3492 03db 0200     		.2byte	0x2
 3493 03dd 34       		.byte	0x34
 3494 03de 9F       		.byte	0x9f
 3495 03df 36000000 		.4byte	.LVL70
 3496 03e3 48000000 		.4byte	.LFE5
ARM GAS  C:\Users\VIDEOH~1\AppData\Local\Temp\ccKwza2q.s 			page 87


 3497 03e7 0100     		.2byte	0x1
 3498 03e9 50       		.byte	0x50
 3499 03ea 00000000 		.4byte	0
 3500 03ee 00000000 		.4byte	0
 3501              	.LLST16:
 3502 03f2 24000000 		.4byte	.LVL64
 3503 03f6 26000000 		.4byte	.LVL65
 3504 03fa 0100     		.2byte	0x1
 3505 03fc 50       		.byte	0x50
 3506 03fd 26000000 		.4byte	.LVL65
 3507 0401 2C000000 		.4byte	.LVL67
 3508 0405 0100     		.2byte	0x1
 3509 0407 54       		.byte	0x54
 3510 0408 2C000000 		.4byte	.LVL67
 3511 040c 31000000 		.4byte	.LVL68-1
 3512 0410 0100     		.2byte	0x1
 3513 0412 50       		.byte	0x50
 3514 0413 00000000 		.4byte	0
 3515 0417 00000000 		.4byte	0
 3516              	.LLST17:
 3517 041b 00000000 		.4byte	.LVL71
 3518 041f 18000000 		.4byte	.LVL74
 3519 0423 0100     		.2byte	0x1
 3520 0425 50       		.byte	0x50
 3521 0426 18000000 		.4byte	.LVL74
 3522 042a 5E000000 		.4byte	.LVL81
 3523 042e 0100     		.2byte	0x1
 3524 0430 54       		.byte	0x54
 3525 0431 5E000000 		.4byte	.LVL81
 3526 0435 60000000 		.4byte	.LVL82
 3527 0439 0100     		.2byte	0x1
 3528 043b 50       		.byte	0x50
 3529 043c 60000000 		.4byte	.LVL82
 3530 0440 62000000 		.4byte	.LVL83
 3531 0444 0100     		.2byte	0x1
 3532 0446 54       		.byte	0x54
 3533 0447 62000000 		.4byte	.LVL83
 3534 044b 7C000000 		.4byte	.LFE6
 3535 044f 0400     		.2byte	0x4
 3536 0451 F3       		.byte	0xf3
 3537 0452 01       		.uleb128 0x1
 3538 0453 50       		.byte	0x50
 3539 0454 9F       		.byte	0x9f
 3540 0455 00000000 		.4byte	0
 3541 0459 00000000 		.4byte	0
 3542              	.LLST18:
 3543 045d 00000000 		.4byte	.LVL71
 3544 0461 18000000 		.4byte	.LVL74
 3545 0465 0100     		.2byte	0x1
 3546 0467 51       		.byte	0x51
 3547 0468 18000000 		.4byte	.LVL74
 3548 046c 5E000000 		.4byte	.LVL81
 3549 0470 0100     		.2byte	0x1
 3550 0472 55       		.byte	0x55
 3551 0473 5E000000 		.4byte	.LVL81
 3552 0477 60000000 		.4byte	.LVL82
 3553 047b 0100     		.2byte	0x1
ARM GAS  C:\Users\VIDEOH~1\AppData\Local\Temp\ccKwza2q.s 			page 88


 3554 047d 51       		.byte	0x51
 3555 047e 60000000 		.4byte	.LVL82
 3556 0482 62000000 		.4byte	.LVL84
 3557 0486 0100     		.2byte	0x1
 3558 0488 55       		.byte	0x55
 3559 0489 62000000 		.4byte	.LVL84
 3560 048d 7C000000 		.4byte	.LFE6
 3561 0491 0400     		.2byte	0x4
 3562 0493 F3       		.byte	0xf3
 3563 0494 01       		.uleb128 0x1
 3564 0495 51       		.byte	0x51
 3565 0496 9F       		.byte	0x9f
 3566 0497 00000000 		.4byte	0
 3567 049b 00000000 		.4byte	0
 3568              	.LLST19:
 3569 049f 00000000 		.4byte	.LVL71
 3570 04a3 16000000 		.4byte	.LVL73
 3571 04a7 0100     		.2byte	0x1
 3572 04a9 52       		.byte	0x52
 3573 04aa 16000000 		.4byte	.LVL73
 3574 04ae 5E000000 		.4byte	.LVL81
 3575 04b2 0400     		.2byte	0x4
 3576 04b4 F3       		.byte	0xf3
 3577 04b5 01       		.uleb128 0x1
 3578 04b6 52       		.byte	0x52
 3579 04b7 9F       		.byte	0x9f
 3580 04b8 5E000000 		.4byte	.LVL81
 3581 04bc 60000000 		.4byte	.LVL82
 3582 04c0 0100     		.2byte	0x1
 3583 04c2 52       		.byte	0x52
 3584 04c3 60000000 		.4byte	.LVL82
 3585 04c7 7C000000 		.4byte	.LFE6
 3586 04cb 0400     		.2byte	0x4
 3587 04cd F3       		.byte	0xf3
 3588 04ce 01       		.uleb128 0x1
 3589 04cf 52       		.byte	0x52
 3590 04d0 9F       		.byte	0x9f
 3591 04d1 00000000 		.4byte	0
 3592 04d5 00000000 		.4byte	0
 3593              	.LLST20:
 3594 04d9 08000000 		.4byte	.LVL72
 3595 04dd 4E000000 		.4byte	.LVL80
 3596 04e1 0200     		.2byte	0x2
 3597 04e3 34       		.byte	0x34
 3598 04e4 9F       		.byte	0x9f
 3599 04e5 4E000000 		.4byte	.LVL80
 3600 04e9 5E000000 		.4byte	.LVL81
 3601 04ed 0100     		.2byte	0x1
 3602 04ef 50       		.byte	0x50
 3603 04f0 5E000000 		.4byte	.LVL81
 3604 04f4 60000000 		.4byte	.LVL82
 3605 04f8 0200     		.2byte	0x2
 3606 04fa 34       		.byte	0x34
 3607 04fb 9F       		.byte	0x9f
 3608 04fc 60000000 		.4byte	.LVL82
 3609 0500 7C000000 		.4byte	.LFE6
 3610 0504 0100     		.2byte	0x1
ARM GAS  C:\Users\VIDEOH~1\AppData\Local\Temp\ccKwza2q.s 			page 89


 3611 0506 50       		.byte	0x50
 3612 0507 00000000 		.4byte	0
 3613 050b 00000000 		.4byte	0
 3614              	.LLST21:
 3615 050f 24000000 		.4byte	.LVL75
 3616 0513 2E000000 		.4byte	.LVL77
 3617 0517 0100     		.2byte	0x1
 3618 0519 50       		.byte	0x50
 3619 051a 2E000000 		.4byte	.LVL77
 3620 051e 34000000 		.4byte	.LVL79
 3621 0522 0100     		.2byte	0x1
 3622 0524 57       		.byte	0x57
 3623 0525 34000000 		.4byte	.LVL79
 3624 0529 4D000000 		.4byte	.LVL80-1
 3625 052d 0100     		.2byte	0x1
 3626 052f 50       		.byte	0x50
 3627 0530 00000000 		.4byte	0
 3628 0534 00000000 		.4byte	0
 3629              	.LLST22:
 3630 0538 2C000000 		.4byte	.LVL76
 3631 053c 5E000000 		.4byte	.LVL81
 3632 0540 0100     		.2byte	0x1
 3633 0542 56       		.byte	0x56
 3634 0543 00000000 		.4byte	0
 3635 0547 00000000 		.4byte	0
 3636              	.LLST23:
 3637 054b 10000000 		.4byte	.LVL90
 3638 054f 1C000000 		.4byte	.LVL91
 3639 0553 0100     		.2byte	0x1
 3640 0555 52       		.byte	0x52
 3641 0556 1C000000 		.4byte	.LVL91
 3642 055a 26000000 		.4byte	.LVL94
 3643 055e 0100     		.2byte	0x1
 3644 0560 54       		.byte	0x54
 3645 0561 26000000 		.4byte	.LVL94
 3646 0565 30000000 		.4byte	.LFE11
 3647 0569 0100     		.2byte	0x1
 3648 056b 50       		.byte	0x50
 3649 056c 00000000 		.4byte	0
 3650 0570 00000000 		.4byte	0
 3651              	.LLST24:
 3652 0574 0E000000 		.4byte	.LVL96
 3653 0578 1A000000 		.4byte	.LVL98
 3654 057c 0100     		.2byte	0x1
 3655 057e 54       		.byte	0x54
 3656 057f 1A000000 		.4byte	.LVL98
 3657 0583 20000000 		.4byte	.LFE12
 3658 0587 0100     		.2byte	0x1
 3659 0589 50       		.byte	0x50
 3660 058a 00000000 		.4byte	0
 3661 058e 00000000 		.4byte	0
 3662              	.LLST25:
 3663 0592 02000000 		.4byte	.LVL99
 3664 0596 0E000000 		.4byte	.LVL101
 3665 059a 0400     		.2byte	0x4
 3666 059c 0A       		.byte	0xa
 3667 059d 204E     		.2byte	0x4e20
ARM GAS  C:\Users\VIDEOH~1\AppData\Local\Temp\ccKwza2q.s 			page 90


 3668 059f 9F       		.byte	0x9f
 3669 05a0 0E000000 		.4byte	.LVL101
 3670 05a4 26000000 		.4byte	.LVL105
 3671 05a8 0100     		.2byte	0x1
 3672 05aa 54       		.byte	0x54
 3673 05ab 26000000 		.4byte	.LVL105
 3674 05af 60000000 		.4byte	.LVL111
 3675 05b3 0400     		.2byte	0x4
 3676 05b5 0A       		.byte	0xa
 3677 05b6 204E     		.2byte	0x4e20
 3678 05b8 9F       		.byte	0x9f
 3679 05b9 60000000 		.4byte	.LVL111
 3680 05bd 76000000 		.4byte	.LVL115
 3681 05c1 0100     		.2byte	0x1
 3682 05c3 54       		.byte	0x54
 3683 05c4 76000000 		.4byte	.LVL115
 3684 05c8 78000000 		.4byte	.LVL116
 3685 05cc 0400     		.2byte	0x4
 3686 05ce 0A       		.byte	0xa
 3687 05cf 204E     		.2byte	0x4e20
 3688 05d1 9F       		.byte	0x9f
 3689 05d2 78000000 		.4byte	.LVL116
 3690 05d6 B0000000 		.4byte	.LVL120
 3691 05da 0100     		.2byte	0x1
 3692 05dc 54       		.byte	0x54
 3693 05dd 00000000 		.4byte	0
 3694 05e1 00000000 		.4byte	0
 3695              	.LLST26:
 3696 05e5 0A000000 		.4byte	.LVL100
 3697 05e9 B0000000 		.4byte	.LVL121
 3698 05ed 0100     		.2byte	0x1
 3699 05ef 55       		.byte	0x55
 3700 05f0 00000000 		.4byte	0
 3701 05f4 00000000 		.4byte	0
 3702              	.LLST27:
 3703 05f8 00000000 		.4byte	.LVL122
 3704 05fc 1A000000 		.4byte	.LVL125
 3705 0600 0100     		.2byte	0x1
 3706 0602 50       		.byte	0x50
 3707 0603 1A000000 		.4byte	.LVL125
 3708 0607 2A000000 		.4byte	.LVL127
 3709 060b 0200     		.2byte	0x2
 3710 060d 91       		.byte	0x91
 3711 060e 64       		.sleb128 -28
 3712 060f 2A000000 		.4byte	.LVL127
 3713 0613 44000000 		.4byte	.LVL132
 3714 0617 0100     		.2byte	0x1
 3715 0619 50       		.byte	0x50
 3716 061a 44000000 		.4byte	.LVL132
 3717 061e 48000000 		.4byte	.LVL133
 3718 0622 0200     		.2byte	0x2
 3719 0624 91       		.byte	0x91
 3720 0625 64       		.sleb128 -28
 3721 0626 48000000 		.4byte	.LVL133
 3722 062a 4A000000 		.4byte	.LVL134
 3723 062e 0100     		.2byte	0x1
 3724 0630 50       		.byte	0x50
ARM GAS  C:\Users\VIDEOH~1\AppData\Local\Temp\ccKwza2q.s 			page 91


 3725 0631 4A000000 		.4byte	.LVL134
 3726 0635 74000000 		.4byte	.LVL136
 3727 0639 0200     		.2byte	0x2
 3728 063b 91       		.byte	0x91
 3729 063c 64       		.sleb128 -28
 3730 063d 74000000 		.4byte	.LVL136
 3731 0641 AE000000 		.4byte	.LVL139
 3732 0645 0100     		.2byte	0x1
 3733 0647 54       		.byte	0x54
 3734 0648 00000000 		.4byte	0
 3735 064c 00000000 		.4byte	0
 3736              	.LLST28:
 3737 0650 00000000 		.4byte	.LVL122
 3738 0654 1D000000 		.4byte	.LVL126-1
 3739 0658 0100     		.2byte	0x1
 3740 065a 51       		.byte	0x51
 3741 065b 1D000000 		.4byte	.LVL126-1
 3742 065f 2A000000 		.4byte	.LVL127
 3743 0663 0100     		.2byte	0x1
 3744 0665 54       		.byte	0x54
 3745 0666 2A000000 		.4byte	.LVL127
 3746 066a 38000000 		.4byte	.LVL129
 3747 066e 0100     		.2byte	0x1
 3748 0670 51       		.byte	0x51
 3749 0671 38000000 		.4byte	.LVL129
 3750 0675 40000000 		.4byte	.LVL131
 3751 0679 0100     		.2byte	0x1
 3752 067b 54       		.byte	0x54
 3753 067c 40000000 		.4byte	.LVL131
 3754 0680 44000000 		.4byte	.LVL132
 3755 0684 0100     		.2byte	0x1
 3756 0686 51       		.byte	0x51
 3757 0687 44000000 		.4byte	.LVL132
 3758 068b 48000000 		.4byte	.LVL133
 3759 068f 0100     		.2byte	0x1
 3760 0691 54       		.byte	0x54
 3761 0692 48000000 		.4byte	.LVL133
 3762 0696 4A000000 		.4byte	.LVL134
 3763 069a 0100     		.2byte	0x1
 3764 069c 51       		.byte	0x51
 3765 069d 4A000000 		.4byte	.LVL134
 3766 06a1 70000000 		.4byte	.LVL135
 3767 06a5 0100     		.2byte	0x1
 3768 06a7 54       		.byte	0x54
 3769 06a8 70000000 		.4byte	.LVL135
 3770 06ac 84000000 		.4byte	.LVL137
 3771 06b0 0500     		.2byte	0x5
 3772 06b2 03       		.byte	0x3
 3773 06b3 00000000 		.4byte	Display_I2C_mstrWrBufPtr
 3774 06b7 84000000 		.4byte	.LVL137
 3775 06bb F8000000 		.4byte	.LFE0
 3776 06bf 0400     		.2byte	0x4
 3777 06c1 F3       		.byte	0xf3
 3778 06c2 01       		.uleb128 0x1
 3779 06c3 51       		.byte	0x51
 3780 06c4 9F       		.byte	0x9f
 3781 06c5 00000000 		.4byte	0
ARM GAS  C:\Users\VIDEOH~1\AppData\Local\Temp\ccKwza2q.s 			page 92


 3782 06c9 00000000 		.4byte	0
 3783              	.LLST29:
 3784 06cd 00000000 		.4byte	.LVL122
 3785 06d1 1D000000 		.4byte	.LVL126-1
 3786 06d5 0100     		.2byte	0x1
 3787 06d7 52       		.byte	0x52
 3788 06d8 1D000000 		.4byte	.LVL126-1
 3789 06dc 2A000000 		.4byte	.LVL127
 3790 06e0 0100     		.2byte	0x1
 3791 06e2 57       		.byte	0x57
 3792 06e3 2A000000 		.4byte	.LVL127
 3793 06e7 34000000 		.4byte	.LVL128
 3794 06eb 0100     		.2byte	0x1
 3795 06ed 52       		.byte	0x52
 3796 06ee 34000000 		.4byte	.LVL128
 3797 06f2 40000000 		.4byte	.LVL131
 3798 06f6 0100     		.2byte	0x1
 3799 06f8 57       		.byte	0x57
 3800 06f9 40000000 		.4byte	.LVL131
 3801 06fd 44000000 		.4byte	.LVL132
 3802 0701 0100     		.2byte	0x1
 3803 0703 52       		.byte	0x52
 3804 0704 44000000 		.4byte	.LVL132
 3805 0708 48000000 		.4byte	.LVL133
 3806 070c 0100     		.2byte	0x1
 3807 070e 57       		.byte	0x57
 3808 070f 48000000 		.4byte	.LVL133
 3809 0713 4A000000 		.4byte	.LVL134
 3810 0717 0100     		.2byte	0x1
 3811 0719 52       		.byte	0x52
 3812 071a 4A000000 		.4byte	.LVL134
 3813 071e B8000000 		.4byte	.LVL143
 3814 0722 0100     		.2byte	0x1
 3815 0724 57       		.byte	0x57
 3816 0725 B8000000 		.4byte	.LVL143
 3817 0729 F8000000 		.4byte	.LFE0
 3818 072d 0400     		.2byte	0x4
 3819 072f F3       		.byte	0xf3
 3820 0730 01       		.uleb128 0x1
 3821 0731 52       		.byte	0x52
 3822 0732 9F       		.byte	0x9f
 3823 0733 00000000 		.4byte	0
 3824 0737 00000000 		.4byte	0
 3825              	.LLST30:
 3826 073b 00000000 		.4byte	.LVL122
 3827 073f 12000000 		.4byte	.LVL124
 3828 0743 0100     		.2byte	0x1
 3829 0745 53       		.byte	0x53
 3830 0746 12000000 		.4byte	.LVL124
 3831 074a 40000000 		.4byte	.LVL131
 3832 074e 0100     		.2byte	0x1
 3833 0750 55       		.byte	0x55
 3834 0751 40000000 		.4byte	.LVL131
 3835 0755 44000000 		.4byte	.LVL132
 3836 0759 0100     		.2byte	0x1
 3837 075b 53       		.byte	0x53
 3838 075c 44000000 		.4byte	.LVL132
ARM GAS  C:\Users\VIDEOH~1\AppData\Local\Temp\ccKwza2q.s 			page 93


 3839 0760 B8000000 		.4byte	.LVL141
 3840 0764 0100     		.2byte	0x1
 3841 0766 55       		.byte	0x55
 3842 0767 B8000000 		.4byte	.LVL141
 3843 076b F8000000 		.4byte	.LFE0
 3844 076f 0400     		.2byte	0x4
 3845 0771 F3       		.byte	0xf3
 3846 0772 01       		.uleb128 0x1
 3847 0773 53       		.byte	0x53
 3848 0774 9F       		.byte	0x9f
 3849 0775 00000000 		.4byte	0
 3850 0779 00000000 		.4byte	0
 3851              	.LLST31:
 3852 077d 0C000000 		.4byte	.LVL123
 3853 0781 3C000000 		.4byte	.LVL130
 3854 0785 0200     		.2byte	0x2
 3855 0787 34       		.byte	0x34
 3856 0788 9F       		.byte	0x9f
 3857 0789 3C000000 		.4byte	.LVL130
 3858 078d 40000000 		.4byte	.LVL131
 3859 0791 0200     		.2byte	0x2
 3860 0793 30       		.byte	0x30
 3861 0794 9F       		.byte	0x9f
 3862 0795 40000000 		.4byte	.LVL131
 3863 0799 4A000000 		.4byte	.LVL134
 3864 079d 0200     		.2byte	0x2
 3865 079f 34       		.byte	0x34
 3866 07a0 9F       		.byte	0x9f
 3867 07a1 4A000000 		.4byte	.LVL134
 3868 07a5 B8000000 		.4byte	.LVL142
 3869 07a9 0100     		.2byte	0x1
 3870 07ab 56       		.byte	0x56
 3871 07ac B8000000 		.4byte	.LVL142
 3872 07b0 F8000000 		.4byte	.LFE0
 3873 07b4 0100     		.2byte	0x1
 3874 07b6 50       		.byte	0x50
 3875 07b7 00000000 		.4byte	0
 3876 07bb 00000000 		.4byte	0
 3877              	.LLST32:
 3878 07bf 00000000 		.4byte	.LVL144
 3879 07c3 1A000000 		.4byte	.LVL147
 3880 07c7 0100     		.2byte	0x1
 3881 07c9 50       		.byte	0x50
 3882 07ca 1A000000 		.4byte	.LVL147
 3883 07ce 2A000000 		.4byte	.LVL149
 3884 07d2 0200     		.2byte	0x2
 3885 07d4 91       		.byte	0x91
 3886 07d5 64       		.sleb128 -28
 3887 07d6 2A000000 		.4byte	.LVL149
 3888 07da 44000000 		.4byte	.LVL154
 3889 07de 0100     		.2byte	0x1
 3890 07e0 50       		.byte	0x50
 3891 07e1 44000000 		.4byte	.LVL154
 3892 07e5 48000000 		.4byte	.LVL155
 3893 07e9 0200     		.2byte	0x2
 3894 07eb 91       		.byte	0x91
 3895 07ec 64       		.sleb128 -28
ARM GAS  C:\Users\VIDEOH~1\AppData\Local\Temp\ccKwza2q.s 			page 94


 3896 07ed 48000000 		.4byte	.LVL155
 3897 07f1 4A000000 		.4byte	.LVL156
 3898 07f5 0100     		.2byte	0x1
 3899 07f7 50       		.byte	0x50
 3900 07f8 4A000000 		.4byte	.LVL156
 3901 07fc 74000000 		.4byte	.LVL158
 3902 0800 0200     		.2byte	0x2
 3903 0802 91       		.byte	0x91
 3904 0803 64       		.sleb128 -28
 3905 0804 74000000 		.4byte	.LVL158
 3906 0808 C2000000 		.4byte	.LVL161
 3907 080c 0100     		.2byte	0x1
 3908 080e 54       		.byte	0x54
 3909 080f 00000000 		.4byte	0
 3910 0813 00000000 		.4byte	0
 3911              	.LLST33:
 3912 0817 00000000 		.4byte	.LVL144
 3913 081b 1D000000 		.4byte	.LVL148-1
 3914 081f 0100     		.2byte	0x1
 3915 0821 51       		.byte	0x51
 3916 0822 1D000000 		.4byte	.LVL148-1
 3917 0826 2A000000 		.4byte	.LVL149
 3918 082a 0100     		.2byte	0x1
 3919 082c 54       		.byte	0x54
 3920 082d 2A000000 		.4byte	.LVL149
 3921 0831 38000000 		.4byte	.LVL151
 3922 0835 0100     		.2byte	0x1
 3923 0837 51       		.byte	0x51
 3924 0838 38000000 		.4byte	.LVL151
 3925 083c 40000000 		.4byte	.LVL153
 3926 0840 0100     		.2byte	0x1
 3927 0842 54       		.byte	0x54
 3928 0843 40000000 		.4byte	.LVL153
 3929 0847 44000000 		.4byte	.LVL154
 3930 084b 0100     		.2byte	0x1
 3931 084d 51       		.byte	0x51
 3932 084e 44000000 		.4byte	.LVL154
 3933 0852 48000000 		.4byte	.LVL155
 3934 0856 0100     		.2byte	0x1
 3935 0858 54       		.byte	0x54
 3936 0859 48000000 		.4byte	.LVL155
 3937 085d 4A000000 		.4byte	.LVL156
 3938 0861 0100     		.2byte	0x1
 3939 0863 51       		.byte	0x51
 3940 0864 4A000000 		.4byte	.LVL156
 3941 0868 6C000000 		.4byte	.LVL157
 3942 086c 0100     		.2byte	0x1
 3943 086e 54       		.byte	0x54
 3944 086f 6C000000 		.4byte	.LVL157
 3945 0873 82000000 		.4byte	.LVL159
 3946 0877 0500     		.2byte	0x5
 3947 0879 03       		.byte	0x3
 3948 087a 00000000 		.4byte	Display_I2C_mstrRdBufPtr
 3949 087e 82000000 		.4byte	.LVL159
 3950 0882 08010000 		.4byte	.LFE1
 3951 0886 0400     		.2byte	0x4
 3952 0888 F3       		.byte	0xf3
ARM GAS  C:\Users\VIDEOH~1\AppData\Local\Temp\ccKwza2q.s 			page 95


 3953 0889 01       		.uleb128 0x1
 3954 088a 51       		.byte	0x51
 3955 088b 9F       		.byte	0x9f
 3956 088c 00000000 		.4byte	0
 3957 0890 00000000 		.4byte	0
 3958              	.LLST34:
 3959 0894 00000000 		.4byte	.LVL144
 3960 0898 1D000000 		.4byte	.LVL148-1
 3961 089c 0100     		.2byte	0x1
 3962 089e 52       		.byte	0x52
 3963 089f 1D000000 		.4byte	.LVL148-1
 3964 08a3 2A000000 		.4byte	.LVL149
 3965 08a7 0100     		.2byte	0x1
 3966 08a9 57       		.byte	0x57
 3967 08aa 2A000000 		.4byte	.LVL149
 3968 08ae 34000000 		.4byte	.LVL150
 3969 08b2 0100     		.2byte	0x1
 3970 08b4 52       		.byte	0x52
 3971 08b5 34000000 		.4byte	.LVL150
 3972 08b9 40000000 		.4byte	.LVL153
 3973 08bd 0100     		.2byte	0x1
 3974 08bf 57       		.byte	0x57
 3975 08c0 40000000 		.4byte	.LVL153
 3976 08c4 44000000 		.4byte	.LVL154
 3977 08c8 0100     		.2byte	0x1
 3978 08ca 52       		.byte	0x52
 3979 08cb 44000000 		.4byte	.LVL154
 3980 08cf 48000000 		.4byte	.LVL155
 3981 08d3 0100     		.2byte	0x1
 3982 08d5 57       		.byte	0x57
 3983 08d6 48000000 		.4byte	.LVL155
 3984 08da 4A000000 		.4byte	.LVL156
 3985 08de 0100     		.2byte	0x1
 3986 08e0 52       		.byte	0x52
 3987 08e1 4A000000 		.4byte	.LVL156
 3988 08e5 CC000000 		.4byte	.LVL165
 3989 08e9 0100     		.2byte	0x1
 3990 08eb 57       		.byte	0x57
 3991 08ec CC000000 		.4byte	.LVL165
 3992 08f0 08010000 		.4byte	.LFE1
 3993 08f4 0400     		.2byte	0x4
 3994 08f6 F3       		.byte	0xf3
 3995 08f7 01       		.uleb128 0x1
 3996 08f8 52       		.byte	0x52
 3997 08f9 9F       		.byte	0x9f
 3998 08fa 00000000 		.4byte	0
 3999 08fe 00000000 		.4byte	0
 4000              	.LLST35:
 4001 0902 00000000 		.4byte	.LVL144
 4002 0906 12000000 		.4byte	.LVL146
 4003 090a 0100     		.2byte	0x1
 4004 090c 53       		.byte	0x53
 4005 090d 12000000 		.4byte	.LVL146
 4006 0911 40000000 		.4byte	.LVL153
 4007 0915 0100     		.2byte	0x1
 4008 0917 55       		.byte	0x55
 4009 0918 40000000 		.4byte	.LVL153
ARM GAS  C:\Users\VIDEOH~1\AppData\Local\Temp\ccKwza2q.s 			page 96


 4010 091c 44000000 		.4byte	.LVL154
 4011 0920 0100     		.2byte	0x1
 4012 0922 53       		.byte	0x53
 4013 0923 44000000 		.4byte	.LVL154
 4014 0927 CC000000 		.4byte	.LVL163
 4015 092b 0100     		.2byte	0x1
 4016 092d 55       		.byte	0x55
 4017 092e CC000000 		.4byte	.LVL163
 4018 0932 08010000 		.4byte	.LFE1
 4019 0936 0400     		.2byte	0x4
 4020 0938 F3       		.byte	0xf3
 4021 0939 01       		.uleb128 0x1
 4022 093a 53       		.byte	0x53
 4023 093b 9F       		.byte	0x9f
 4024 093c 00000000 		.4byte	0
 4025 0940 00000000 		.4byte	0
 4026              	.LLST36:
 4027 0944 0C000000 		.4byte	.LVL145
 4028 0948 3C000000 		.4byte	.LVL152
 4029 094c 0200     		.2byte	0x2
 4030 094e 34       		.byte	0x34
 4031 094f 9F       		.byte	0x9f
 4032 0950 3C000000 		.4byte	.LVL152
 4033 0954 40000000 		.4byte	.LVL153
 4034 0958 0200     		.2byte	0x2
 4035 095a 30       		.byte	0x30
 4036 095b 9F       		.byte	0x9f
 4037 095c 40000000 		.4byte	.LVL153
 4038 0960 4A000000 		.4byte	.LVL156
 4039 0964 0200     		.2byte	0x2
 4040 0966 34       		.byte	0x34
 4041 0967 9F       		.byte	0x9f
 4042 0968 4A000000 		.4byte	.LVL156
 4043 096c CC000000 		.4byte	.LVL164
 4044 0970 0100     		.2byte	0x1
 4045 0972 56       		.byte	0x56
 4046 0973 CC000000 		.4byte	.LVL164
 4047 0977 08010000 		.4byte	.LFE1
 4048 097b 0100     		.2byte	0x1
 4049 097d 50       		.byte	0x50
 4050 097e 00000000 		.4byte	0
 4051 0982 00000000 		.4byte	0
 4052              	.LLST37:
 4053 0986 00000000 		.4byte	.LVL166
 4054 098a 16000000 		.4byte	.LVL169
 4055 098e 0100     		.2byte	0x1
 4056 0990 50       		.byte	0x50
 4057 0991 16000000 		.4byte	.LVL169
 4058 0995 1A000000 		.4byte	.LVL170
 4059 0999 0400     		.2byte	0x4
 4060 099b F3       		.byte	0xf3
 4061 099c 01       		.uleb128 0x1
 4062 099d 50       		.byte	0x50
 4063 099e 9F       		.byte	0x9f
 4064 099f 1A000000 		.4byte	.LVL170
 4065 09a3 38000000 		.4byte	.LVL173
 4066 09a7 0100     		.2byte	0x1
ARM GAS  C:\Users\VIDEOH~1\AppData\Local\Temp\ccKwza2q.s 			page 97


 4067 09a9 54       		.byte	0x54
 4068 09aa 54000000 		.4byte	.LVL179
 4069 09ae 56000000 		.4byte	.LVL180
 4070 09b2 0100     		.2byte	0x1
 4071 09b4 50       		.byte	0x50
 4072 09b5 00000000 		.4byte	0
 4073 09b9 00000000 		.4byte	0
 4074              	.LLST38:
 4075 09bd 00000000 		.4byte	.LVL166
 4076 09c1 33000000 		.4byte	.LVL172-1
 4077 09c5 0100     		.2byte	0x1
 4078 09c7 51       		.byte	0x51
 4079 09c8 33000000 		.4byte	.LVL172-1
 4080 09cc 54000000 		.4byte	.LVL179
 4081 09d0 0400     		.2byte	0x4
 4082 09d2 F3       		.byte	0xf3
 4083 09d3 01       		.uleb128 0x1
 4084 09d4 51       		.byte	0x51
 4085 09d5 9F       		.byte	0x9f
 4086 09d6 54000000 		.4byte	.LVL179
 4087 09da 56000000 		.4byte	.LVL180
 4088 09de 0100     		.2byte	0x1
 4089 09e0 51       		.byte	0x51
 4090 09e1 56000000 		.4byte	.LVL180
 4091 09e5 68000000 		.4byte	.LFE3
 4092 09e9 0400     		.2byte	0x4
 4093 09eb F3       		.byte	0xf3
 4094 09ec 01       		.uleb128 0x1
 4095 09ed 51       		.byte	0x51
 4096 09ee 9F       		.byte	0x9f
 4097 09ef 00000000 		.4byte	0
 4098 09f3 00000000 		.4byte	0
 4099              	.LLST39:
 4100 09f7 00000000 		.4byte	.LVL166
 4101 09fb 12000000 		.4byte	.LVL168
 4102 09ff 0100     		.2byte	0x1
 4103 0a01 52       		.byte	0x52
 4104 0a02 12000000 		.4byte	.LVL168
 4105 0a06 54000000 		.4byte	.LVL179
 4106 0a0a 0400     		.2byte	0x4
 4107 0a0c F3       		.byte	0xf3
 4108 0a0d 01       		.uleb128 0x1
 4109 0a0e 52       		.byte	0x52
 4110 0a0f 9F       		.byte	0x9f
 4111 0a10 54000000 		.4byte	.LVL179
 4112 0a14 56000000 		.4byte	.LVL180
 4113 0a18 0100     		.2byte	0x1
 4114 0a1a 52       		.byte	0x52
 4115 0a1b 56000000 		.4byte	.LVL180
 4116 0a1f 68000000 		.4byte	.LFE3
 4117 0a23 0400     		.2byte	0x4
 4118 0a25 F3       		.byte	0xf3
 4119 0a26 01       		.uleb128 0x1
 4120 0a27 52       		.byte	0x52
 4121 0a28 9F       		.byte	0x9f
 4122 0a29 00000000 		.4byte	0
 4123 0a2d 00000000 		.4byte	0
ARM GAS  C:\Users\VIDEOH~1\AppData\Local\Temp\ccKwza2q.s 			page 98


 4124              	.LLST40:
 4125 0a31 04000000 		.4byte	.LVL167
 4126 0a35 52000000 		.4byte	.LVL178
 4127 0a39 0200     		.2byte	0x2
 4128 0a3b 34       		.byte	0x34
 4129 0a3c 9F       		.byte	0x9f
 4130 0a3d 52000000 		.4byte	.LVL178
 4131 0a41 54000000 		.4byte	.LVL179
 4132 0a45 0100     		.2byte	0x1
 4133 0a47 50       		.byte	0x50
 4134 0a48 54000000 		.4byte	.LVL179
 4135 0a4c 56000000 		.4byte	.LVL180
 4136 0a50 0200     		.2byte	0x2
 4137 0a52 34       		.byte	0x34
 4138 0a53 9F       		.byte	0x9f
 4139 0a54 56000000 		.4byte	.LVL180
 4140 0a58 68000000 		.4byte	.LFE3
 4141 0a5c 0100     		.2byte	0x1
 4142 0a5e 50       		.byte	0x50
 4143 0a5f 00000000 		.4byte	0
 4144 0a63 00000000 		.4byte	0
 4145              	.LLST41:
 4146 0a67 44000000 		.4byte	.LVL174
 4147 0a6b 46000000 		.4byte	.LVL175
 4148 0a6f 0100     		.2byte	0x1
 4149 0a71 50       		.byte	0x50
 4150 0a72 46000000 		.4byte	.LVL175
 4151 0a76 4C000000 		.4byte	.LVL177
 4152 0a7a 0100     		.2byte	0x1
 4153 0a7c 54       		.byte	0x54
 4154 0a7d 4C000000 		.4byte	.LVL177
 4155 0a81 51000000 		.4byte	.LVL178-1
 4156 0a85 0100     		.2byte	0x1
 4157 0a87 50       		.byte	0x50
 4158 0a88 00000000 		.4byte	0
 4159 0a8c 00000000 		.4byte	0
 4160              		.section	.debug_aranges,"",%progbits
 4161 0000 94000000 		.4byte	0x94
 4162 0004 0200     		.2byte	0x2
 4163 0006 00000000 		.4byte	.Ldebug_info0
 4164 000a 04       		.byte	0x4
 4165 000b 00       		.byte	0
 4166 000c 0000     		.2byte	0
 4167 000e 0000     		.2byte	0
 4168 0010 00000000 		.4byte	.LFB15
 4169 0014 28000000 		.4byte	.LFE15-.LFB15
 4170 0018 00000000 		.4byte	.LFB14
 4171 001c C4000000 		.4byte	.LFE14-.LFB14
 4172 0020 00000000 		.4byte	.LFB2
 4173 0024 C4000000 		.4byte	.LFE2-.LFB2
 4174 0028 00000000 		.4byte	.LFB4
 4175 002c 58000000 		.4byte	.LFE4-.LFB4
 4176 0030 00000000 		.4byte	.LFB5
 4177 0034 48000000 		.4byte	.LFE5-.LFB5
 4178 0038 00000000 		.4byte	.LFB6
 4179 003c 7C000000 		.4byte	.LFE6-.LFB6
 4180 0040 00000000 		.4byte	.LFB7
ARM GAS  C:\Users\VIDEOH~1\AppData\Local\Temp\ccKwza2q.s 			page 99


 4181 0044 0C000000 		.4byte	.LFE7-.LFB7
 4182 0048 00000000 		.4byte	.LFB8
 4183 004c 0C000000 		.4byte	.LFE8-.LFB8
 4184 0050 00000000 		.4byte	.LFB9
 4185 0054 28000000 		.4byte	.LFE9-.LFB9
 4186 0058 00000000 		.4byte	.LFB10
 4187 005c 28000000 		.4byte	.LFE10-.LFB10
 4188 0060 00000000 		.4byte	.LFB11
 4189 0064 30000000 		.4byte	.LFE11-.LFB11
 4190 0068 00000000 		.4byte	.LFB12
 4191 006c 20000000 		.4byte	.LFE12-.LFB12
 4192 0070 00000000 		.4byte	.LFB13
 4193 0074 CC000000 		.4byte	.LFE13-.LFB13
 4194 0078 00000000 		.4byte	.LFB0
 4195 007c F8000000 		.4byte	.LFE0-.LFB0
 4196 0080 00000000 		.4byte	.LFB1
 4197 0084 08010000 		.4byte	.LFE1-.LFB1
 4198 0088 00000000 		.4byte	.LFB3
 4199 008c 68000000 		.4byte	.LFE3-.LFB3
 4200 0090 00000000 		.4byte	0
 4201 0094 00000000 		.4byte	0
 4202              		.section	.debug_ranges,"",%progbits
 4203              	.Ldebug_ranges0:
 4204 0000 00000000 		.4byte	.LFB15
 4205 0004 28000000 		.4byte	.LFE15
 4206 0008 00000000 		.4byte	.LFB14
 4207 000c C4000000 		.4byte	.LFE14
 4208 0010 00000000 		.4byte	.LFB2
 4209 0014 C4000000 		.4byte	.LFE2
 4210 0018 00000000 		.4byte	.LFB4
 4211 001c 58000000 		.4byte	.LFE4
 4212 0020 00000000 		.4byte	.LFB5
 4213 0024 48000000 		.4byte	.LFE5
 4214 0028 00000000 		.4byte	.LFB6
 4215 002c 7C000000 		.4byte	.LFE6
 4216 0030 00000000 		.4byte	.LFB7
 4217 0034 0C000000 		.4byte	.LFE7
 4218 0038 00000000 		.4byte	.LFB8
 4219 003c 0C000000 		.4byte	.LFE8
 4220 0040 00000000 		.4byte	.LFB9
 4221 0044 28000000 		.4byte	.LFE9
 4222 0048 00000000 		.4byte	.LFB10
 4223 004c 28000000 		.4byte	.LFE10
 4224 0050 00000000 		.4byte	.LFB11
 4225 0054 30000000 		.4byte	.LFE11
 4226 0058 00000000 		.4byte	.LFB12
 4227 005c 20000000 		.4byte	.LFE12
 4228 0060 00000000 		.4byte	.LFB13
 4229 0064 CC000000 		.4byte	.LFE13
 4230 0068 00000000 		.4byte	.LFB0
 4231 006c F8000000 		.4byte	.LFE0
 4232 0070 00000000 		.4byte	.LFB1
 4233 0074 08010000 		.4byte	.LFE1
 4234 0078 00000000 		.4byte	.LFB3
 4235 007c 68000000 		.4byte	.LFE3
 4236 0080 00000000 		.4byte	0
 4237 0084 00000000 		.4byte	0
ARM GAS  C:\Users\VIDEOH~1\AppData\Local\Temp\ccKwza2q.s 			page 100


 4238              		.section	.debug_line,"",%progbits
 4239              	.Ldebug_line0:
 4240 0000 55030000 		.section	.debug_str,"MS",%progbits,1
 4240      0200A100 
 4240      00000201 
 4240      FB0E0D00 
 4240      01010101 
 4241              	.LASF37:
 4242 0000 44697370 		.ascii	"Display_I2C_I2CMasterGetReadBufSize\000"
 4242      6C61795F 
 4242      4932435F 
 4242      4932434D 
 4242      61737465 
 4243              	.LASF10:
 4244 0024 75696E74 		.ascii	"uint16\000"
 4244      313600
 4245              	.LASF67:
 4246 002b 44697370 		.ascii	"Display_I2C_scl_Read\000"
 4246      6C61795F 
 4246      4932435F 
 4246      73636C5F 
 4246      52656164 
 4247              	.LASF31:
 4248 0040 44697370 		.ascii	"Display_I2C_I2CMasterWriteByte\000"
 4248      6C61795F 
 4248      4932435F 
 4248      4932434D 
 4248      61737465 
 4249              	.LASF17:
 4250 005f 6F6E6555 		.ascii	"oneUnit\000"
 4250      6E697400 
 4251              	.LASF35:
 4252 0067 72644279 		.ascii	"rdByte\000"
 4252      746500
 4253              	.LASF43:
 4254 006e 44697370 		.ascii	"Display_I2C_I2CReStartGeneration\000"
 4254      6C61795F 
 4254      4932435F 
 4254      49324352 
 4254      65537461 
 4255              	.LASF68:
 4256 008f 474E5520 		.ascii	"GNU C99 5.4.1 20160609 (release) [ARM/embedded-5-br"
 4256      43393920 
 4256      352E342E 
 4256      31203230 
 4256      31363036 
 4257 00c2 616E6368 		.ascii	"anch revision 237715] -mcpu=cortex-m0 -mthumb -g -O"
 4257      20726576 
 4257      6973696F 
 4257      6E203233 
 4257      37373135 
 4258 00f5 67202D73 		.ascii	"g -std=gnu99 -ffunction-sections -ffat-lto-objects\000"
 4258      74643D67 
 4258      6E753939 
 4258      202D6666 
 4258      756E6374 
 4259              	.LASF38:
ARM GAS  C:\Users\VIDEOH~1\AppData\Local\Temp\ccKwza2q.s 			page 101


 4260 0128 44697370 		.ascii	"Display_I2C_I2CMasterGetWriteBufSize\000"
 4260      6C61795F 
 4260      4932435F 
 4260      4932434D 
 4260      61737465 
 4261              	.LASF30:
 4262 014d 44697370 		.ascii	"Display_I2C_I2CMasterSendStop\000"
 4262      6C61795F 
 4262      4932435F 
 4262      4932434D 
 4262      61737465 
 4263              	.LASF7:
 4264 016b 6C6F6E67 		.ascii	"long long unsigned int\000"
 4264      206C6F6E 
 4264      6720756E 
 4264      7369676E 
 4264      65642069 
 4265              	.LASF60:
 4266 0182 44697370 		.ascii	"Display_I2C_mstrWrBufIndexTmp\000"
 4266      6C61795F 
 4266      4932435F 
 4266      6D737472 
 4266      57724275 
 4267              	.LASF36:
 4268 01a0 72784E6F 		.ascii	"rxNotEmpty\000"
 4268      74456D70 
 4268      747900
 4269              	.LASF6:
 4270 01ab 6C6F6E67 		.ascii	"long long int\000"
 4270      206C6F6E 
 4270      6720696E 
 4270      7400
 4271              	.LASF0:
 4272 01b9 7369676E 		.ascii	"signed char\000"
 4272      65642063 
 4272      68617200 
 4273              	.LASF49:
 4274 01c5 72644461 		.ascii	"rdData\000"
 4274      746100
 4275              	.LASF4:
 4276 01cc 6C6F6E67 		.ascii	"long int\000"
 4276      20696E74 
 4276      00
 4277              	.LASF63:
 4278 01d5 4379496E 		.ascii	"CyIntDisable\000"
 4278      74446973 
 4278      61626C65 
 4278      00
 4279              	.LASF33:
 4280 01e2 44697370 		.ascii	"Display_I2C_I2CMasterReadByte\000"
 4280      6C61795F 
 4280      4932435F 
 4280      4932434D 
 4280      61737465 
 4281              	.LASF50:
 4282 0200 44697370 		.ascii	"Display_I2C_I2CMasterSendRestart\000"
 4282      6C61795F 
ARM GAS  C:\Users\VIDEOH~1\AppData\Local\Temp\ccKwza2q.s 			page 102


 4282      4932435F 
 4282      4932434D 
 4282      61737465 
 4283              	.LASF9:
 4284 0221 75696E74 		.ascii	"uint8\000"
 4284      3800
 4285              	.LASF61:
 4286 0227 43794465 		.ascii	"CyDelayUs\000"
 4286      6C617955 
 4286      7300
 4287              	.LASF13:
 4288 0231 646F7562 		.ascii	"double\000"
 4288      6C6500
 4289              	.LASF11:
 4290 0238 75696E74 		.ascii	"uint32\000"
 4290      333200
 4291              	.LASF52:
 4292 023f 44697370 		.ascii	"Display_I2C_mstrStatus\000"
 4292      6C61795F 
 4292      4932435F 
 4292      6D737472 
 4292      53746174 
 4293              	.LASF20:
 4294 0256 44697370 		.ascii	"Display_I2C_I2CMasterHandleStatus\000"
 4294      6C61795F 
 4294      4932435F 
 4294      4932434D 
 4294      61737465 
 4295              	.LASF23:
 4296 0278 72657365 		.ascii	"resetBlock\000"
 4296      74426C6F 
 4296      636B00
 4297              	.LASF8:
 4298 0283 756E7369 		.ascii	"unsigned int\000"
 4298      676E6564 
 4298      20696E74 
 4298      00
 4299              	.LASF65:
 4300 0290 44697370 		.ascii	"Display_I2C_sda_Read\000"
 4300      6C61795F 
 4300      4932435F 
 4300      7364615F 
 4300      52656164 
 4301              	.LASF62:
 4302 02a5 44697370 		.ascii	"Display_I2C_I2CFwBlockReset\000"
 4302      6C61795F 
 4302      4932435F 
 4302      49324346 
 4302      77426C6F 
 4303              	.LASF5:
 4304 02c1 6C6F6E67 		.ascii	"long unsigned int\000"
 4304      20756E73 
 4304      69676E65 
 4304      6420696E 
 4304      7400
 4305              	.LASF34:
 4306 02d3 61636B4E 		.ascii	"ackNack\000"
ARM GAS  C:\Users\VIDEOH~1\AppData\Local\Temp\ccKwza2q.s 			page 103


 4306      61636B00 
 4307              	.LASF21:
 4308 02db 74696D65 		.ascii	"timeout\000"
 4308      6F757400 
 4309              	.LASF27:
 4310 02e3 65727253 		.ascii	"errStatus\000"
 4310      74617475 
 4310      7300
 4311              	.LASF3:
 4312 02ed 73686F72 		.ascii	"short unsigned int\000"
 4312      7420756E 
 4312      7369676E 
 4312      65642069 
 4312      6E7400
 4313              	.LASF59:
 4314 0300 44697370 		.ascii	"Display_I2C_mstrWrBufIndex\000"
 4314      6C61795F 
 4314      4932435F 
 4314      6D737472 
 4314      57724275 
 4315              	.LASF69:
 4316 031b 47656E65 		.ascii	"Generated_Source\\PSoC4\\Display_I2C_I2C_MASTER.c\000"
 4316      72617465 
 4316      645F536F 
 4316      75726365 
 4316      5C50536F 
 4317              	.LASF25:
 4318 034b 62697452 		.ascii	"bitRnW\000"
 4318      6E5700
 4319              	.LASF29:
 4320 0352 44697370 		.ascii	"Display_I2C_I2CMasterSendStart\000"
 4320      6C61795F 
 4320      4932435F 
 4320      4932434D 
 4320      61737465 
 4321              	.LASF15:
 4322 0371 72656733 		.ascii	"reg32\000"
 4322      3200
 4323              	.LASF16:
 4324 0377 73697A65 		.ascii	"sizetype\000"
 4324      74797065 
 4324      00
 4325              	.LASF64:
 4326 0380 4379496E 		.ascii	"CyIntEnable\000"
 4326      74456E61 
 4326      626C6500 
 4327              	.LASF39:
 4328 038c 44697370 		.ascii	"Display_I2C_I2CMasterClearReadBuf\000"
 4328      6C61795F 
 4328      4932435F 
 4328      4932434D 
 4328      61737465 
 4329              	.LASF53:
 4330 03ae 44697370 		.ascii	"Display_I2C_mstrControl\000"
 4330      6C61795F 
 4330      4932435F 
 4330      6D737472 
ARM GAS  C:\Users\VIDEOH~1\AppData\Local\Temp\ccKwza2q.s 			page 104


 4330      436F6E74 
 4331              	.LASF42:
 4332 03c6 44697370 		.ascii	"Display_I2C_I2CMasterClearStatus\000"
 4332      6C61795F 
 4332      4932435F 
 4332      4932434D 
 4332      61737465 
 4333              	.LASF56:
 4334 03e7 44697370 		.ascii	"Display_I2C_mstrRdBufIndex\000"
 4334      6C61795F 
 4334      4932435F 
 4334      6D737472 
 4334      52644275 
 4335              	.LASF12:
 4336 0402 666C6F61 		.ascii	"float\000"
 4336      7400
 4337              	.LASF44:
 4338 0408 72656164 		.ascii	"readDirection\000"
 4338      44697265 
 4338      6374696F 
 4338      6E00
 4339              	.LASF24:
 4340 0416 736C6176 		.ascii	"slaveAddress\000"
 4340      65416464 
 4340      72657373 
 4340      00
 4341              	.LASF1:
 4342 0423 756E7369 		.ascii	"unsigned char\000"
 4342      676E6564 
 4342      20636861 
 4342      7200
 4343              	.LASF2:
 4344 0431 73686F72 		.ascii	"short int\000"
 4344      7420696E 
 4344      7400
 4345              	.LASF55:
 4346 043b 44697370 		.ascii	"Display_I2C_mstrRdBufSize\000"
 4346      6C61795F 
 4346      4932435F 
 4346      6D737472 
 4346      52644275 
 4347              	.LASF58:
 4348 0455 44697370 		.ascii	"Display_I2C_mstrWrBufSize\000"
 4348      6C61795F 
 4348      4932435F 
 4348      6D737472 
 4348      57724275 
 4349              	.LASF57:
 4350 046f 44697370 		.ascii	"Display_I2C_mstrWrBufPtr\000"
 4350      6C61795F 
 4350      4932435F 
 4350      6D737472 
 4350      57724275 
 4351              	.LASF54:
 4352 0488 44697370 		.ascii	"Display_I2C_mstrRdBufPtr\000"
 4352      6C61795F 
 4352      4932435F 
ARM GAS  C:\Users\VIDEOH~1\AppData\Local\Temp\ccKwza2q.s 			page 105


 4352      6D737472 
 4352      52644275 
 4353              	.LASF28:
 4354 04a1 6C6F6353 		.ascii	"locStatus\000"
 4354      74617475 
 4354      7300
 4355              	.LASF51:
 4356 04ab 44697370 		.ascii	"Display_I2C_state\000"
 4356      6C61795F 
 4356      4932435F 
 4356      73746174 
 4356      6500
 4357              	.LASF32:
 4358 04bd 77724279 		.ascii	"wrByte\000"
 4358      746500
 4359              	.LASF14:
 4360 04c4 63686172 		.ascii	"char\000"
 4360      00
 4361              	.LASF47:
 4362 04c9 6D6F6465 		.ascii	"mode\000"
 4362      00
 4363              	.LASF40:
 4364 04ce 44697370 		.ascii	"Display_I2C_I2CMasterClearWriteBuf\000"
 4364      6C61795F 
 4364      4932435F 
 4364      4932434D 
 4364      61737465 
 4365              	.LASF45:
 4366 04f1 44697370 		.ascii	"Display_I2C_I2CMasterWriteBuf\000"
 4366      6C61795F 
 4366      4932435F 
 4366      4932434D 
 4366      61737465 
 4367              	.LASF19:
 4368 050f 44697370 		.ascii	"Display_I2C_I2CMasterWaitOneUnit\000"
 4368      6C61795F 
 4368      4932435F 
 4368      4932434D 
 4368      61737465 
 4369              	.LASF70:
 4370 0530 443A5C31 		.ascii	"D:\\1_work\\my_project\\ReloadPro\\psoc42boot\\Relo"
 4370      5F776F72 
 4370      6B5C6D79 
 4370      5F70726F 
 4370      6A656374 
 4371 055e 61642050 		.ascii	"ad Pro.cydsn\000"
 4371      726F2E63 
 4371      7964736E 
 4371      00
 4372              	.LASF26:
 4373 056b 74696D65 		.ascii	"timeoutMs\000"
 4373      6F75744D 
 4373      7300
 4374              	.LASF46:
 4375 0575 77724461 		.ascii	"wrData\000"
 4375      746100
 4376              	.LASF18:
ARM GAS  C:\Users\VIDEOH~1\AppData\Local\Temp\ccKwza2q.s 			page 106


 4377 057c 73746174 		.ascii	"status\000"
 4377      757300
 4378              	.LASF41:
 4379 0583 44697370 		.ascii	"Display_I2C_I2CMasterStatus\000"
 4379      6C61795F 
 4379      4932435F 
 4379      4932434D 
 4379      61737465 
 4380              	.LASF66:
 4381 059f 44697370 		.ascii	"Display_I2C_scl_Write\000"
 4381      6C61795F 
 4381      4932435F 
 4381      73636C5F 
 4381      57726974 
 4382              	.LASF48:
 4383 05b5 44697370 		.ascii	"Display_I2C_I2CMasterReadBuf\000"
 4383      6C61795F 
 4383      4932435F 
 4383      4932434D 
 4383      61737465 
 4384              	.LASF22:
 4385 05d2 72657453 		.ascii	"retStatus\000"
 4385      74617475 
 4385      7300
 4386              		.ident	"GCC: (GNU Tools for ARM Embedded Processors) 5.4.1 20160609 (release) [ARM/embedded-5-bran
