ARM GAS  C:\Users\VIDEOH~1\AppData\Local\Temp\ccyQ57DT.s 			page 1


   1              		.syntax unified
   2              		.cpu cortex-m0
   3              		.fpu softvfp
   4              		.eabi_attribute 20, 1
   5              		.eabi_attribute 21, 1
   6              		.eabi_attribute 23, 3
   7              		.eabi_attribute 24, 1
   8              		.eabi_attribute 25, 1
   9              		.eabi_attribute 26, 1
  10              		.eabi_attribute 30, 1
  11              		.eabi_attribute 34, 0
  12              		.eabi_attribute 18, 4
  13              		.thumb
  14              		.syntax unified
  15              		.file	"Display.c"
  16              		.text
  17              	.Ltext0:
  18              		.cfi_sections	.debug_frame
  19              		.section	.text.Display_I2C_I2C_ISR,"ax",%progbits
  20              		.align	2
  21              		.global	Display_I2C_I2C_ISR
  22              		.code	16
  23              		.thumb_func
  24              		.type	Display_I2C_I2C_ISR, %function
  25              	Display_I2C_I2C_ISR:
  26              	.LFB0:
  27              		.file 1 "Generated_Source\\PSoC4\\Display.c"
   1:Generated_Source\PSoC4/Display.c **** /* ========================================
   2:Generated_Source\PSoC4/Display.c ****  *
   3:Generated_Source\PSoC4/Display.c ****  * Copyright YOUR COMPANY, THE YEAR
   4:Generated_Source\PSoC4/Display.c ****  * All Rights Reserved
   5:Generated_Source\PSoC4/Display.c ****  * UNPUBLISHED, LICENSED SOFTWARE.
   6:Generated_Source\PSoC4/Display.c ****  *
   7:Generated_Source\PSoC4/Display.c ****  * CONFIDENTIAL AND PROPRIETARY INFORMATION
   8:Generated_Source\PSoC4/Display.c ****  * WHICH IS THE PROPERTY OF your company.
   9:Generated_Source\PSoC4/Display.c ****  *
  10:Generated_Source\PSoC4/Display.c ****  * ========================================
  11:Generated_Source\PSoC4/Display.c **** */
  12:Generated_Source\PSoC4/Display.c **** #include "Display.h"
  13:Generated_Source\PSoC4/Display.c **** #include "Display_font.h"
  14:Generated_Source\PSoC4/Display.c **** #include "Display_I2C_I2C.h"
  15:Generated_Source\PSoC4/Display.c **** #include <stdbool.h>
  16:Generated_Source\PSoC4/Display.c **** #include <CyLib.h>
  17:Generated_Source\PSoC4/Display.c **** 
  18:Generated_Source\PSoC4/Display.c **** static void draw_text_slice(char c, uint8 row, uint8 inverse);
  19:Generated_Source\PSoC4/Display.c **** static void write_data(uint8 cmd,uint8* data,uint16 len,uint8 inverse,uint8 fill);
  20:Generated_Source\PSoC4/Display.c **** static void write_cmd(uint8* data,uint16 len);
  21:Generated_Source\PSoC4/Display.c **** 
  22:Generated_Source\PSoC4/Display.c **** #define CMD_WRITE_DATA_UNO  	0xC0
  23:Generated_Source\PSoC4/Display.c **** #define CMD_WRITE_DATA_MULTI  	0x40
  24:Generated_Source\PSoC4/Display.c **** #define CMD_WRITE_CMD_UNO     	0x80
  25:Generated_Source\PSoC4/Display.c **** #define CMD_WRITE_CMD_MULTI  	0x00
  26:Generated_Source\PSoC4/Display.c **** #define CMD_GOTO_DEFPAGE		0x01//PAGE 7
  27:Generated_Source\PSoC4/Display.c **** //COMMAND PAGE 7
  28:Generated_Source\PSoC4/Display.c **** #define CMD_GOTO_PAGE		    0x08
  29:Generated_Source\PSoC4/Display.c **** #define CMD_FUNC_SET            0x10
  30:Generated_Source\PSoC4/Display.c **** #define FUNC_POWER_DOWN 0x04
ARM GAS  C:\Users\VIDEOH~1\AppData\Local\Temp\ccyQ57DT.s 			page 2


  31:Generated_Source\PSoC4/Display.c **** #define FUNC_HADR		0x02
  32:Generated_Source\PSoC4/Display.c **** #define CMD_SET_RAMPAGE0		0x20
  33:Generated_Source\PSoC4/Display.c **** #define CMD_SET_RAMPAGE1		0x24
  34:Generated_Source\PSoC4/Display.c **** #define CMD_SET_Y_ADR    		0x40
  35:Generated_Source\PSoC4/Display.c **** #define CMD_SET_X_ADR    		0x80
  36:Generated_Source\PSoC4/Display.c **** //COMMAND PAGE 6
  37:Generated_Source\PSoC4/Display.c **** #define CMD_DISPLAY_CTRL        0x04
  38:Generated_Source\PSoC4/Display.c **** #define DISP_BLANK      0x0
  39:Generated_Source\PSoC4/Display.c **** #define DISP_NORMAL     0x1
  40:Generated_Source\PSoC4/Display.c **** #define DISP_ALL_SEG_ON 0x2
  41:Generated_Source\PSoC4/Display.c **** #define DISP_INVERSE    0x3
  42:Generated_Source\PSoC4/Display.c **** #define CMD_SET_MIRROR_XY       0x08
  43:Generated_Source\PSoC4/Display.c **** #define SET_MIRROR_X    0x04
  44:Generated_Source\PSoC4/Display.c **** #define SET_MIRROR_Y    0x02
  45:Generated_Source\PSoC4/Display.c **** #define CMD_SET_BIAS            0x10
  46:Generated_Source\PSoC4/Display.c **** #define BIAS_1_11       0x0
  47:Generated_Source\PSoC4/Display.c **** #define BIAS_1_10       0x1
  48:Generated_Source\PSoC4/Display.c **** #define BIAS_1_9        0x2
  49:Generated_Source\PSoC4/Display.c **** #define BIAS_1_8        0x3
  50:Generated_Source\PSoC4/Display.c **** #define BIAS_1_7        0x4
  51:Generated_Source\PSoC4/Display.c **** #define BIAS_1_6        0x5
  52:Generated_Source\PSoC4/Display.c **** #define BIAS_1_5        0x6
  53:Generated_Source\PSoC4/Display.c **** #define BIAS_1_4        0x7
  54:Generated_Source\PSoC4/Display.c **** #define CMD_SET_LARGE_DISPLAY   0x24
  55:Generated_Source\PSoC4/Display.c **** #define CMD_SET_NORMAL_DISPLAY  0x20
  56:Generated_Source\PSoC4/Display.c **** #define CMD_SET_MUX_RATE        0x80
  57:Generated_Source\PSoC4/Display.c **** #define RATE_1_17       0x0
  58:Generated_Source\PSoC4/Display.c **** #define RATE_1_26       0x1
  59:Generated_Source\PSoC4/Display.c **** #define RATE_1_34       0x2
  60:Generated_Source\PSoC4/Display.c **** #define RATE_1_49       0x3
  61:Generated_Source\PSoC4/Display.c **** #define RATE_1_65       0x4
  62:Generated_Source\PSoC4/Display.c **** //COMMAND PAGE 5
  63:Generated_Source\PSoC4/Display.c **** #define CMD_HV_CONTROL          0x04
  64:Generated_Source\PSoC4/Display.c **** #define HV_ENABLE       0x1
  65:Generated_Source\PSoC4/Display.c **** #define HV_RANGE_HIGH   0x2
  66:Generated_Source\PSoC4/Display.c **** #define CMD_HV_MULTIPLAYER      0x08
  67:Generated_Source\PSoC4/Display.c **** #define HV_MUL_2        0x0
  68:Generated_Source\PSoC4/Display.c **** #define HV_MUL_3        0x1
  69:Generated_Source\PSoC4/Display.c **** #define HV_MUL_4        0x2
  70:Generated_Source\PSoC4/Display.c **** #define HV_MUL_5        0x3
  71:Generated_Source\PSoC4/Display.c **** #define CMD_SET_TC              0x10
  72:Generated_Source\PSoC4/Display.c **** #define TC_0            0x0
  73:Generated_Source\PSoC4/Display.c **** #define TC_0_44         0x1
  74:Generated_Source\PSoC4/Display.c **** #define TC_1_10         0x2
  75:Generated_Source\PSoC4/Display.c **** #define TC_1_45         0x3
  76:Generated_Source\PSoC4/Display.c **** #define TC_1_91         0x4
  77:Generated_Source\PSoC4/Display.c **** #define TC_2_15         0x5
  78:Generated_Source\PSoC4/Display.c **** #define TC_2_32         0x6
  79:Generated_Source\PSoC4/Display.c **** #define TC_2_74         0x7
  80:Generated_Source\PSoC4/Display.c **** #define CMD_SET_VLCD            0x80
  81:Generated_Source\PSoC4/Display.c **** //COMMAND PAGE 3
  82:Generated_Source\PSoC4/Display.c **** #define CMD_STATE_CTRL          0x04
  83:Generated_Source\PSoC4/Display.c **** #define DISP_OFF        0x2
  84:Generated_Source\PSoC4/Display.c **** #define VDD_AS_VLCD     0x1
  85:Generated_Source\PSoC4/Display.c **** #define CMD_SET_OSC             0x08
  86:Generated_Source\PSoC4/Display.c **** #define EXTERNAL_OSC    0x2
  87:Generated_Source\PSoC4/Display.c **** #define CMD_COG                 0x40
ARM GAS  C:\Users\VIDEOH~1\AppData\Local\Temp\ccyQ57DT.s 			page 3


  88:Generated_Source\PSoC4/Display.c **** #define SET_BRS         0x08
  89:Generated_Source\PSoC4/Display.c **** #define SET_TRS         0x10
  90:Generated_Source\PSoC4/Display.c **** 
  91:Generated_Source\PSoC4/Display.c **** #define DEFAULT_CONTRAST_LEVEL		0xE4
  92:Generated_Source\PSoC4/Display.c **** #define DisplaySLAVE_ADR 0x78
  93:Generated_Source\PSoC4/Display.c **** #define DisplayTIMEOUT 2
  94:Generated_Source\PSoC4/Display.c **** const uint8 ini_array[]={
  95:Generated_Source\PSoC4/Display.c ****     CMD_WRITE_CMD_MULTI,
  96:Generated_Source\PSoC4/Display.c ****     CMD_GOTO_DEFPAGE,      //–ü–µ—Ä–µ–∫–ª—é—á–∞–µ–º—Å—è –Ω–∞ —Å—Ç—Ä–∞–Ω–∏—Ü—É "111"
  97:Generated_Source\PSoC4/Display.c ****     CMD_FUNC_SET,   //–±–∏—Ç2 - PD, 0-–∫–æ–Ω—Ç—Ä–æ–ª–ª–µ—Ä –≤–∫–ª—é—á–µ–Ω, 1- –≤—ã–∫–ª—é—á–µ–Ω
  98:Generated_Source\PSoC4/Display.c ****     CMD_SET_RAMPAGE0,
  99:Generated_Source\PSoC4/Display.c ****     CMD_GOTO_PAGE|6,    //–ü–µ—Ä–µ–∫–ª—é—á–∞–µ–º—Å—è –Ω–∞ —Å—Ç—Ä–∞–Ω–∏—Ü—É "110"
 100:Generated_Source\PSoC4/Display.c ****     CMD_SET_BIAS|BIAS_1_9,   //Set Bias, –ú–ª–∞–¥—à–∏–µ —Ç—Ä–∏ –±–∏—Ç–∞ —É—Å—Ç–∞–Ω–∞–≤–ª–∏–≤–∞—é—Ç 
 101:Generated_Source\PSoC4/Display.c ****     CMD_SET_LARGE_DISPLAY,   //–ë–∏—Ç2 - IB, IB-0-low current for small LCD, IB-1-high current
 102:Generated_Source\PSoC4/Display.c ****     CMD_DISPLAY_CTRL|DISP_NORMAL,      //Display mode. –ë–∏—Ç0-E,–ë–∏—Ç1-D,–ë–∏—Ç2-–≤—Å–µ–≥–¥–∞=1
 103:Generated_Source\PSoC4/Display.c ****     CMD_SET_MUX_RATE|RATE_1_65,   //SET multiplex rate- –º–ª–∞–¥—à–∏–µ —Ç—Ä–∏ –±–∏—Ç–∞, "100" - 1/6
 104:Generated_Source\PSoC4/Display.c ****     CMD_SET_MIRROR_XY,    //–ë–∏—Ç1-MY, –ë–ò–¢2 -MX, 0 - –Ω–µ—Ç –æ—Ç—Ä–∞–∂–µ–Ω–∏—è, 1- –æ—Ç—Ä–∞–∂–µ
 105:Generated_Source\PSoC4/Display.c ****     CMD_GOTO_DEFPAGE,      //–ü–µ—Ä–µ–∫–ª—é—á–∞–µ–º—Å—è –Ω–∞ —Å—Ç—Ä–∞–Ω–∏—Ü—É "111"
 106:Generated_Source\PSoC4/Display.c ****     CMD_GOTO_PAGE|5,    //–ü–µ—Ä–µ–∫–ª—é—á–∞–µ–º—Å—è –Ω–∞ —Å—Ç—Ä–∞–Ω–∏—Ü—É "101"
 107:Generated_Source\PSoC4/Display.c ****     CMD_HV_MULTIPLAYER|HV_MUL_2,      //–í—ã–±–∏—Ä–∞–µ–º —Ä–µ–∂–∏–º —É–º–Ω–æ–∂–µ–Ω–∏—è, –º–ª–∞–¥—à–
 108:Generated_Source\PSoC4/Display.c ****     CMD_SET_TC|TC_2_74,   //–£—Å—Ç–∞–Ω–∞–≤–ª–∏–≤–∞–µ–º —Ç–µ–º–ø–µ—Ä–∞—Ç—É—Ä–Ω—ã–π –∫–æ—ç—Ñ—Ñ–∏—Ü–µ–
 109:Generated_Source\PSoC4/Display.c ****     CMD_SET_VLCD|0x64,   //–£—Å—Ç–∞–Ω–∞–≤–ª–∏–≤–∞–µ–º Vlcd - –º–ª–∞–¥—à–∏–µ 7 –±–∏—Ç
 110:Generated_Source\PSoC4/Display.c ****     CMD_HV_CONTROL|HV_ENABLE,      //–±–∏—Ç1-PRS, 0-–Ω–∏–∂–Ω–∏–π –¥–∏–∞–ø–∞–∑–æ–Ω,1-–≤–µ—Ä—Ö–Ω–∏–π,
 111:Generated_Source\PSoC4/Display.c ****             //–±–∏—Ç0-HVE 0-–≤—ã—Å–æ–∫–æ–≤–æ–ª—å—Ç–Ω—ã–π –≥–µ–Ω–µ—Ä–∞—Ç–æ—Ä –≤—ã–∫–ª—é—á–µ–Ω,1-–≤–∫
 112:Generated_Source\PSoC4/Display.c ****     CMD_GOTO_DEFPAGE,      //–ü–µ—Ä–µ–∫–ª—é—á–∞–µ–º—Å—è –Ω–∞ —Å—Ç—Ä–∞–Ω–∏—Ü—É "111"
 113:Generated_Source\PSoC4/Display.c ****     CMD_GOTO_PAGE|3,    //–ü–µ—Ä–µ–∫–ª—é—á–∞–µ–º—Å—è –Ω–∞ —Å—Ç—Ä–∞–Ω–∏—Ü—É "011"
 114:Generated_Source\PSoC4/Display.c ****     CMD_COG,   //–ë–∏—Ç4-TRS, –±–∏—Ç3-BRS, 0-swap –≤—ã–∫–ª—é—á–µ–Ω,1-–≤–∫–ª—é—á—ë–Ω
 115:Generated_Source\PSoC4/Display.c ****     CMD_SET_OSC,      //–ë–∏—Ç1-EC, 1- –í–Ω—É—Ç—Ä–µ–Ω–Ω–∏–π –≥–µ–Ω–µ—Ä–∞—Ç–æ—Ä –≤—ã–∫–ª—é—á–µ–Ω, 0-
 116:Generated_Source\PSoC4/Display.c ****     CMD_STATE_CTRL,      //–ë–∏—Ç1-DOF, 1-all blocks - off,0-on,–±–∏—Ç0-DM, –µ—Å–ª–∏ HVE-1, –Ω–µ –∏
 117:Generated_Source\PSoC4/Display.c ****     CMD_GOTO_DEFPAGE,      //–ü–µ—Ä–µ–∫–ª—é—á–∞–µ–º—Å—è –Ω–∞ —Å—Ç—Ä–∞–Ω–∏—Ü—É "111"
 118:Generated_Source\PSoC4/Display.c ****     CMD_GOTO_PAGE|5,    //–ü–µ—Ä–µ–∫–ª—é—á–∞–µ–º—Å—è –Ω–∞ —Å—Ç—Ä–∞–Ω–∏—Ü—É "101"
 119:Generated_Source\PSoC4/Display.c ****     CMD_HV_MULTIPLAYER|HV_MUL_3,      //–í—ã–±–∏—Ä–∞–µ–º —Ä–µ–∂–∏–º —É–º–Ω–æ–∂–µ–Ω–∏—è, –º–ª–∞–¥—à–
 120:Generated_Source\PSoC4/Display.c ****     CMD_GOTO_DEFPAGE,      //–ü–µ—Ä–µ–∫–ª—é—á–∞–µ–º—Å—è –Ω–∞ —Å—Ç—Ä–∞–Ω–∏—Ü—É "111"
 121:Generated_Source\PSoC4/Display.c ****     CMD_GOTO_PAGE|5,    //–ü–µ—Ä–µ–∫–ª—é—á–∞–µ–º—Å—è –Ω–∞ —Å—Ç—Ä–∞–Ω–∏—Ü—É "101"
 122:Generated_Source\PSoC4/Display.c ****     CMD_HV_MULTIPLAYER|HV_MUL_4,    //–í—ã–±–∏—Ä–∞–µ–º —Ä–µ–∂–∏–º —É–º–Ω–æ–∂–µ–Ω–∏—è, –º–ª–∞–¥—à–∏–
 123:Generated_Source\PSoC4/Display.c ****     CMD_GOTO_DEFPAGE       //–ü–µ—Ä–µ–∫–ª—é—á–∞–µ–º—Å—è –Ω–∞ —Å—Ç—Ä–∞–Ω–∏—Ü—É "111"
 124:Generated_Source\PSoC4/Display.c ****     };
 125:Generated_Source\PSoC4/Display.c **** 
 126:Generated_Source\PSoC4/Display.c **** //#define VLCD_norm   0xE4
 127:Generated_Source\PSoC4/Display.c **** //#define VLCD_max   0xFF
 128:Generated_Source\PSoC4/Display.c **** //#define VLCD_min   0xD7
 129:Generated_Source\PSoC4/Display.c **** 
 130:Generated_Source\PSoC4/Display.c **** enum e_i2c_state{START,DATA,STOP};
 131:Generated_Source\PSoC4/Display.c **** enum e_i2c_mode{WRITE_DATA,WRITE_CMD,FILL};
 132:Generated_Source\PSoC4/Display.c **** struct
 133:Generated_Source\PSoC4/Display.c **** {
 134:Generated_Source\PSoC4/Display.c ****     uint8  inverse;
 135:Generated_Source\PSoC4/Display.c ****     uint8* ptr_data;
 136:Generated_Source\PSoC4/Display.c ****     uint16 len_data;
 137:Generated_Source\PSoC4/Display.c ****     uint8 cmd;
 138:Generated_Source\PSoC4/Display.c ****     enum e_i2c_state volatile i2c_state;
 139:Generated_Source\PSoC4/Display.c ****     enum e_i2c_mode volatile i2c_mode;
 140:Generated_Source\PSoC4/Display.c ****     } volatile Displayisr_struct;
 141:Generated_Source\PSoC4/Display.c **** 
 142:Generated_Source\PSoC4/Display.c **** CY_ISR_PROTO(Display_I2C_I2C_ISR);
 143:Generated_Source\PSoC4/Display.c **** CY_ISR(Display_I2C_I2C_ISR) 
 144:Generated_Source\PSoC4/Display.c **** {
ARM GAS  C:\Users\VIDEOH~1\AppData\Local\Temp\ccyQ57DT.s 			page 4


  28              		.loc 1 144 0
  29              		.cfi_startproc
  30              		@ args = 0, pretend = 0, frame = 0
  31              		@ frame_needed = 0, uses_anonymous_args = 0
  32              		@ link register save eliminated.
 145:Generated_Source\PSoC4/Display.c ****     uint32 isr_status;
 146:Generated_Source\PSoC4/Display.c ****     isr_status=Display_I2C_GetMasterInterruptSource();
  33              		.loc 1 146 0
  34 0000 3F4B     		ldr	r3, .L21
  35 0002 1B68     		ldr	r3, [r3]
  36              	.LVL0:
 147:Generated_Source\PSoC4/Display.c ****     if((Display_I2C_INTR_MASTER_I2C_ACK|Display_I2C_INTR_MASTER_I2C_STOP)&isr_status)
  37              		.loc 1 147 0
  38 0004 1422     		movs	r2, #20
  39 0006 1A42     		tst	r2, r3
  40 0008 68D0     		beq	.L2
 148:Generated_Source\PSoC4/Display.c ****     {
 149:Generated_Source\PSoC4/Display.c ****         switch(Displayisr_struct.i2c_mode)
  41              		.loc 1 149 0
  42 000a 3E4A     		ldr	r2, .L21+4
  43 000c 127B     		ldrb	r2, [r2, #12]
  44 000e D2B2     		uxtb	r2, r2
  45 0010 012A     		cmp	r2, #1
  46 0012 40D0     		beq	.L4
  47 0014 002A     		cmp	r2, #0
  48 0016 01D0     		beq	.L5
  49 0018 022A     		cmp	r2, #2
  50 001a 6ED1     		bne	.L3
  51              	.L5:
 150:Generated_Source\PSoC4/Display.c ****         {
 151:Generated_Source\PSoC4/Display.c ****             case FILL:
 152:Generated_Source\PSoC4/Display.c ****             case WRITE_DATA:
 153:Generated_Source\PSoC4/Display.c ****                 switch(Displayisr_struct.i2c_state)
  52              		.loc 1 153 0
  53 001c 394A     		ldr	r2, .L21+4
  54 001e D27A     		ldrb	r2, [r2, #11]
  55 0020 D2B2     		uxtb	r2, r2
  56 0022 002A     		cmp	r2, #0
  57 0024 02D0     		beq	.L6
  58 0026 012A     		cmp	r2, #1
  59 0028 08D0     		beq	.L7
  60 002a 66E0     		b	.L3
  61              	.L6:
 154:Generated_Source\PSoC4/Display.c ****                 {
 155:Generated_Source\PSoC4/Display.c ****                     case START:
 156:Generated_Source\PSoC4/Display.c ****                         Display_I2C_TX_FIFO_WR_REG =Displayisr_struct.cmd;
  62              		.loc 1 156 0
  63 002c 3549     		ldr	r1, .L21+4
  64 002e 8A7A     		ldrb	r2, [r1, #10]
  65 0030 D2B2     		uxtb	r2, r2
  66 0032 3548     		ldr	r0, .L21+8
  67 0034 0260     		str	r2, [r0]
 157:Generated_Source\PSoC4/Display.c ****                         Displayisr_struct.i2c_state=DATA;
  68              		.loc 1 157 0
  69 0036 0122     		movs	r2, #1
  70 0038 CA72     		strb	r2, [r1, #11]
 158:Generated_Source\PSoC4/Display.c ****                         break;
ARM GAS  C:\Users\VIDEOH~1\AppData\Local\Temp\ccyQ57DT.s 			page 5


  71              		.loc 1 158 0
  72 003a 5EE0     		b	.L3
  73              	.L7:
 159:Generated_Source\PSoC4/Display.c ****                     case DATA:
 160:Generated_Source\PSoC4/Display.c ****                         if(Displayisr_struct.len_data)
  74              		.loc 1 160 0
  75 003c 314A     		ldr	r2, .L21+4
  76 003e 1289     		ldrh	r2, [r2, #8]
  77 0040 92B2     		uxth	r2, r2
  78 0042 002A     		cmp	r2, #0
  79 0044 1DD0     		beq	.L8
 161:Generated_Source\PSoC4/Display.c ****                         {   
 162:Generated_Source\PSoC4/Display.c ****                             if(Displayisr_struct.inverse) Display_I2C_TX_FIFO_WR_REG = ~(*Displayis
  80              		.loc 1 162 0
  81 0046 2F4A     		ldr	r2, .L21+4
  82 0048 1278     		ldrb	r2, [r2]
  83 004a 002A     		cmp	r2, #0
  84 004c 06D0     		beq	.L9
  85              		.loc 1 162 0 is_stmt 0 discriminator 1
  86 004e 2D4A     		ldr	r2, .L21+4
  87 0050 5268     		ldr	r2, [r2, #4]
  88 0052 1278     		ldrb	r2, [r2]
  89 0054 D243     		mvns	r2, r2
  90 0056 2C49     		ldr	r1, .L21+8
  91 0058 0A60     		str	r2, [r1]
  92 005a 04E0     		b	.L10
  93              	.L9:
 163:Generated_Source\PSoC4/Display.c ****                             else Display_I2C_TX_FIFO_WR_REG = *Displayisr_struct.ptr_data;
  94              		.loc 1 163 0 is_stmt 1
  95 005c 294A     		ldr	r2, .L21+4
  96 005e 5268     		ldr	r2, [r2, #4]
  97 0060 1178     		ldrb	r1, [r2]
  98 0062 294A     		ldr	r2, .L21+8
  99 0064 1160     		str	r1, [r2]
 100              	.L10:
 164:Generated_Source\PSoC4/Display.c ****                             if(Displayisr_struct.i2c_mode==WRITE_DATA)
 101              		.loc 1 164 0
 102 0066 274A     		ldr	r2, .L21+4
 103 0068 127B     		ldrb	r2, [r2, #12]
 104 006a 002A     		cmp	r2, #0
 105 006c 03D1     		bne	.L11
 165:Generated_Source\PSoC4/Display.c ****                             {
 166:Generated_Source\PSoC4/Display.c ****                                 Displayisr_struct.ptr_data++;
 106              		.loc 1 166 0
 107 006e 2549     		ldr	r1, .L21+4
 108 0070 4A68     		ldr	r2, [r1, #4]
 109 0072 0132     		adds	r2, r2, #1
 110 0074 4A60     		str	r2, [r1, #4]
 111              	.L11:
 167:Generated_Source\PSoC4/Display.c ****                             }
 168:Generated_Source\PSoC4/Display.c ****                             Displayisr_struct.len_data--;
 112              		.loc 1 168 0
 113 0076 2349     		ldr	r1, .L21+4
 114 0078 0A89     		ldrh	r2, [r1, #8]
 115 007a 013A     		subs	r2, r2, #1
 116 007c 92B2     		uxth	r2, r2
 117 007e 0A81     		strh	r2, [r1, #8]
ARM GAS  C:\Users\VIDEOH~1\AppData\Local\Temp\ccyQ57DT.s 			page 6


 118 0080 3BE0     		b	.L3
 119              	.L8:
 169:Generated_Source\PSoC4/Display.c ****                         }
 170:Generated_Source\PSoC4/Display.c ****                         else Display_I2C_I2C_MASTER_GENERATE_STOP;
 120              		.loc 1 170 0
 121 0082 224A     		ldr	r2, .L21+12
 122 0084 1268     		ldr	r2, [r2]
 123 0086 9206     		lsls	r2, r2, #26
 124 0088 01D5     		bpl	.L18
 125 008a 1821     		movs	r1, #24
 126 008c 00E0     		b	.L12
 127              	.L18:
 128 008e 1021     		movs	r1, #16
 129              	.L12:
 130              		.loc 1 170 0 is_stmt 0 discriminator 4
 131 0090 1F4A     		ldr	r2, .L21+16
 132 0092 1160     		str	r1, [r2]
 133 0094 31E0     		b	.L3
 134              	.L4:
 171:Generated_Source\PSoC4/Display.c ****                         break;
 172:Generated_Source\PSoC4/Display.c ****                 }
 173:Generated_Source\PSoC4/Display.c ****                 break;
 174:Generated_Source\PSoC4/Display.c ****             case WRITE_CMD:
 175:Generated_Source\PSoC4/Display.c ****                 switch(Displayisr_struct.i2c_state)
 135              		.loc 1 175 0 is_stmt 1
 136 0096 1B4A     		ldr	r2, .L21+4
 137 0098 D27A     		ldrb	r2, [r2, #11]
 138 009a D2B2     		uxtb	r2, r2
 139 009c 012A     		cmp	r2, #1
 140 009e 2CD8     		bhi	.L3
 176:Generated_Source\PSoC4/Display.c ****                 {
 177:Generated_Source\PSoC4/Display.c ****                     case START:
 178:Generated_Source\PSoC4/Display.c ****                     case DATA:
 179:Generated_Source\PSoC4/Display.c ****                         if(Displayisr_struct.len_data)
 141              		.loc 1 179 0
 142 00a0 184A     		ldr	r2, .L21+4
 143 00a2 1289     		ldrh	r2, [r2, #8]
 144 00a4 92B2     		uxth	r2, r2
 145 00a6 002A     		cmp	r2, #0
 146 00a8 0ED0     		beq	.L14
 180:Generated_Source\PSoC4/Display.c ****                         {
 181:Generated_Source\PSoC4/Display.c ****                             Display_I2C_TX_FIFO_WR_REG = *Displayisr_struct.ptr_data;
 147              		.loc 1 181 0
 148 00aa 164A     		ldr	r2, .L21+4
 149 00ac 5168     		ldr	r1, [r2, #4]
 150 00ae 0878     		ldrb	r0, [r1]
 151 00b0 1549     		ldr	r1, .L21+8
 152 00b2 0860     		str	r0, [r1]
 182:Generated_Source\PSoC4/Display.c ****                             Displayisr_struct.ptr_data++;
 153              		.loc 1 182 0
 154 00b4 5168     		ldr	r1, [r2, #4]
 155 00b6 0131     		adds	r1, r1, #1
 156 00b8 5160     		str	r1, [r2, #4]
 183:Generated_Source\PSoC4/Display.c ****                             Displayisr_struct.len_data--;
 157              		.loc 1 183 0
 158 00ba 1189     		ldrh	r1, [r2, #8]
 159 00bc 0139     		subs	r1, r1, #1
ARM GAS  C:\Users\VIDEOH~1\AppData\Local\Temp\ccyQ57DT.s 			page 7


 160 00be 89B2     		uxth	r1, r1
 161 00c0 1181     		strh	r1, [r2, #8]
 184:Generated_Source\PSoC4/Display.c ****                             Displayisr_struct.i2c_state=DATA;
 162              		.loc 1 184 0
 163 00c2 0121     		movs	r1, #1
 164 00c4 D172     		strb	r1, [r2, #11]
 165 00c6 18E0     		b	.L3
 166              	.L14:
 185:Generated_Source\PSoC4/Display.c ****                         }
 186:Generated_Source\PSoC4/Display.c ****                         else Display_I2C_I2C_MASTER_GENERATE_STOP;
 167              		.loc 1 186 0
 168 00c8 104A     		ldr	r2, .L21+12
 169 00ca 1268     		ldr	r2, [r2]
 170 00cc 9206     		lsls	r2, r2, #26
 171 00ce 01D5     		bpl	.L19
 172 00d0 1821     		movs	r1, #24
 173 00d2 00E0     		b	.L15
 174              	.L19:
 175 00d4 1021     		movs	r1, #16
 176              	.L15:
 177              		.loc 1 186 0 is_stmt 0 discriminator 4
 178 00d6 0E4A     		ldr	r2, .L21+16
 179 00d8 1160     		str	r1, [r2]
 180 00da 0EE0     		b	.L3
 181              	.L2:
 187:Generated_Source\PSoC4/Display.c ****                         break;
 188:Generated_Source\PSoC4/Display.c ****                 }
 189:Generated_Source\PSoC4/Display.c ****                 break;
 190:Generated_Source\PSoC4/Display.c ****         }
 191:Generated_Source\PSoC4/Display.c ****     }
 192:Generated_Source\PSoC4/Display.c ****     else if(Display_I2C_INTR_MASTER_I2C_STOP&isr_status)
 182              		.loc 1 192 0 is_stmt 1
 183 00dc DA06     		lsls	r2, r3, #27
 184 00de 03D5     		bpl	.L16
 193:Generated_Source\PSoC4/Display.c ****     {
 194:Generated_Source\PSoC4/Display.c ****         Displayisr_struct.i2c_state=STOP;
 185              		.loc 1 194 0
 186 00e0 0221     		movs	r1, #2
 187 00e2 084A     		ldr	r2, .L21+4
 188 00e4 D172     		strb	r1, [r2, #11]
 189 00e6 08E0     		b	.L3
 190              	.L16:
 195:Generated_Source\PSoC4/Display.c ****     }
 196:Generated_Source\PSoC4/Display.c ****     else
 197:Generated_Source\PSoC4/Display.c ****     {
 198:Generated_Source\PSoC4/Display.c ****         Display_I2C_I2C_MASTER_GENERATE_STOP;
 191              		.loc 1 198 0
 192 00e8 084A     		ldr	r2, .L21+12
 193 00ea 1268     		ldr	r2, [r2]
 194 00ec 9206     		lsls	r2, r2, #26
 195 00ee 01D5     		bpl	.L20
 196 00f0 1821     		movs	r1, #24
 197 00f2 00E0     		b	.L17
 198              	.L20:
 199 00f4 1021     		movs	r1, #16
 200              	.L17:
 201              		.loc 1 198 0 is_stmt 0 discriminator 4
ARM GAS  C:\Users\VIDEOH~1\AppData\Local\Temp\ccyQ57DT.s 			page 8


 202 00f6 064A     		ldr	r2, .L21+16
 203 00f8 1160     		str	r1, [r2]
 204              	.L3:
 199:Generated_Source\PSoC4/Display.c ****     }
 200:Generated_Source\PSoC4/Display.c ****     Display_I2C_ClearMasterInterruptSource(isr_status);
 205              		.loc 1 200 0 is_stmt 1
 206 00fa 014A     		ldr	r2, .L21
 207 00fc 1360     		str	r3, [r2]
 201:Generated_Source\PSoC4/Display.c **** }
 208              		.loc 1 201 0
 209              		@ sp needed
 210 00fe 7047     		bx	lr
 211              	.L22:
 212              		.align	2
 213              	.L21:
 214 0100 000F0740 		.word	1074204416
 215 0104 00000000 		.word	Displayisr_struct
 216 0108 40020740 		.word	1074201152
 217 010c 64000740 		.word	1074200676
 218 0110 68000740 		.word	1074200680
 219              		.cfi_endproc
 220              	.LFE0:
 221              		.size	Display_I2C_I2C_ISR, .-Display_I2C_I2C_ISR
 222              		.section	.text.write_cmd,"ax",%progbits
 223              		.align	2
 224              		.code	16
 225              		.thumb_func
 226              		.type	write_cmd, %function
 227              	write_cmd:
 228              	.LFB1:
 202:Generated_Source\PSoC4/Display.c **** 
 203:Generated_Source\PSoC4/Display.c **** static void write_cmd(uint8* data,uint16 len)
 204:Generated_Source\PSoC4/Display.c **** {
 229              		.loc 1 204 0
 230              		.cfi_startproc
 231              		@ args = 0, pretend = 0, frame = 0
 232              		@ frame_needed = 0, uses_anonymous_args = 0
 233              	.LVL1:
 234 0000 70B5     		push	{r4, r5, r6, lr}
 235              		.cfi_def_cfa_offset 16
 236              		.cfi_offset 4, -16
 237              		.cfi_offset 5, -12
 238              		.cfi_offset 6, -8
 239              		.cfi_offset 14, -4
 240 0002 0500     		movs	r5, r0
 241 0004 0C00     		movs	r4, r1
 242              	.L24:
 205:Generated_Source\PSoC4/Display.c ****     while(Displayisr_struct.i2c_state!=STOP);
 243              		.loc 1 205 0 discriminator 1
 244 0006 0A4B     		ldr	r3, .L25
 245 0008 DB7A     		ldrb	r3, [r3, #11]
 246 000a 022B     		cmp	r3, #2
 247 000c FBD1     		bne	.L24
 206:Generated_Source\PSoC4/Display.c ****     CyDelay(1300);
 248              		.loc 1 206 0
 249 000e 0948     		ldr	r0, .L25+4
 250              	.LVL2:
ARM GAS  C:\Users\VIDEOH~1\AppData\Local\Temp\ccyQ57DT.s 			page 9


 251 0010 FFF7FEFF 		bl	CyDelay
 252              	.LVL3:
 207:Generated_Source\PSoC4/Display.c ****     Displayisr_struct.ptr_data=data;
 253              		.loc 1 207 0
 254 0014 064B     		ldr	r3, .L25
 255 0016 5D60     		str	r5, [r3, #4]
 208:Generated_Source\PSoC4/Display.c ****     Displayisr_struct.len_data=len;
 256              		.loc 1 208 0
 257 0018 1C81     		strh	r4, [r3, #8]
 209:Generated_Source\PSoC4/Display.c ****     Displayisr_struct.i2c_state=START;
 258              		.loc 1 209 0
 259 001a 0022     		movs	r2, #0
 260 001c DA72     		strb	r2, [r3, #11]
 210:Generated_Source\PSoC4/Display.c ****     Displayisr_struct.i2c_mode=WRITE_CMD;
 261              		.loc 1 210 0
 262 001e 0132     		adds	r2, r2, #1
 263 0020 1A73     		strb	r2, [r3, #12]
 211:Generated_Source\PSoC4/Display.c ****     Display_I2C_TX_FIFO_WR_REG = DisplaySLAVE_ADR;
 264              		.loc 1 211 0
 265 0022 7732     		adds	r2, r2, #119
 266 0024 044B     		ldr	r3, .L25+8
 267 0026 1A60     		str	r2, [r3]
 212:Generated_Source\PSoC4/Display.c ****     Display_I2C_I2C_MASTER_GENERATE_START;
 268              		.loc 1 212 0
 269 0028 763A     		subs	r2, r2, #118
 270 002a 044B     		ldr	r3, .L25+12
 271 002c 1A60     		str	r2, [r3]
 213:Generated_Source\PSoC4/Display.c **** }
 272              		.loc 1 213 0
 273              		@ sp needed
 274              	.LVL4:
 275 002e 70BD     		pop	{r4, r5, r6, pc}
 276              	.L26:
 277              		.align	2
 278              	.L25:
 279 0030 00000000 		.word	Displayisr_struct
 280 0034 14050000 		.word	1300
 281 0038 40020740 		.word	1074201152
 282 003c 68000740 		.word	1074200680
 283              		.cfi_endproc
 284              	.LFE1:
 285              		.size	write_cmd, .-write_cmd
 286              		.section	.text.write_data,"ax",%progbits
 287              		.align	2
 288              		.code	16
 289              		.thumb_func
 290              		.type	write_data, %function
 291              	write_data:
 292              	.LFB2:
 214:Generated_Source\PSoC4/Display.c **** static void write_data(uint8 cmd,uint8* data,uint16 len,uint8 inverse,uint8 fill)
 215:Generated_Source\PSoC4/Display.c **** {
 293              		.loc 1 215 0
 294              		.cfi_startproc
 295              		@ args = 4, pretend = 0, frame = 0
 296              		@ frame_needed = 0, uses_anonymous_args = 0
 297              	.LVL5:
 298 0000 F0B5     		push	{r4, r5, r6, r7, lr}
ARM GAS  C:\Users\VIDEOH~1\AppData\Local\Temp\ccyQ57DT.s 			page 10


 299              		.cfi_def_cfa_offset 20
 300              		.cfi_offset 4, -20
 301              		.cfi_offset 5, -16
 302              		.cfi_offset 6, -12
 303              		.cfi_offset 7, -8
 304              		.cfi_offset 14, -4
 305 0002 4746     		mov	r7, r8
 306 0004 80B4     		push	{r7}
 307              		.cfi_def_cfa_offset 24
 308              		.cfi_offset 8, -24
 309 0006 0500     		movs	r5, r0
 310 0008 0F00     		movs	r7, r1
 311 000a 1600     		movs	r6, r2
 312 000c 9846     		mov	r8, r3
 313 000e 06AB     		add	r3, sp, #24
 314              	.LVL6:
 315 0010 1C78     		ldrb	r4, [r3]
 316              	.LVL7:
 317              	.L28:
 216:Generated_Source\PSoC4/Display.c ****     while(Displayisr_struct.i2c_state!=STOP);
 318              		.loc 1 216 0 discriminator 1
 319 0012 104B     		ldr	r3, .L31
 320 0014 DB7A     		ldrb	r3, [r3, #11]
 321 0016 022B     		cmp	r3, #2
 322 0018 FBD1     		bne	.L28
 217:Generated_Source\PSoC4/Display.c ****     CyDelay(1300);
 323              		.loc 1 217 0
 324 001a 0F48     		ldr	r0, .L31+4
 325              	.LVL8:
 326 001c FFF7FEFF 		bl	CyDelay
 327              	.LVL9:
 218:Generated_Source\PSoC4/Display.c ****     Displayisr_struct.inverse=inverse;
 328              		.loc 1 218 0
 329 0020 0C4B     		ldr	r3, .L31
 330 0022 4246     		mov	r2, r8
 331 0024 1A70     		strb	r2, [r3]
 219:Generated_Source\PSoC4/Display.c ****     Displayisr_struct.ptr_data=data;
 332              		.loc 1 219 0
 333 0026 5F60     		str	r7, [r3, #4]
 220:Generated_Source\PSoC4/Display.c ****     Displayisr_struct.len_data=len;
 334              		.loc 1 220 0
 335 0028 1E81     		strh	r6, [r3, #8]
 221:Generated_Source\PSoC4/Display.c ****     Displayisr_struct.cmd=cmd;
 336              		.loc 1 221 0
 337 002a 9D72     		strb	r5, [r3, #10]
 222:Generated_Source\PSoC4/Display.c ****     Displayisr_struct.i2c_state=START;
 338              		.loc 1 222 0
 339 002c 0022     		movs	r2, #0
 340 002e DA72     		strb	r2, [r3, #11]
 223:Generated_Source\PSoC4/Display.c ****     if(fill) Displayisr_struct.i2c_mode=FILL;
 341              		.loc 1 223 0
 342 0030 002C     		cmp	r4, #0
 343 0032 02D0     		beq	.L29
 344              		.loc 1 223 0 is_stmt 0 discriminator 1
 345 0034 0232     		adds	r2, r2, #2
 346 0036 1A73     		strb	r2, [r3, #12]
 347 0038 02E0     		b	.L30
ARM GAS  C:\Users\VIDEOH~1\AppData\Local\Temp\ccyQ57DT.s 			page 11


 348              	.L29:
 224:Generated_Source\PSoC4/Display.c ****     else Displayisr_struct.i2c_mode=WRITE_DATA;
 349              		.loc 1 224 0 is_stmt 1
 350 003a 0022     		movs	r2, #0
 351 003c 054B     		ldr	r3, .L31
 352 003e 1A73     		strb	r2, [r3, #12]
 353              	.L30:
 225:Generated_Source\PSoC4/Display.c ****     Display_I2C_TX_FIFO_WR_REG = DisplaySLAVE_ADR;
 354              		.loc 1 225 0
 355 0040 7822     		movs	r2, #120
 356 0042 064B     		ldr	r3, .L31+8
 357 0044 1A60     		str	r2, [r3]
 226:Generated_Source\PSoC4/Display.c ****     Display_I2C_I2C_MASTER_GENERATE_START;
 358              		.loc 1 226 0
 359 0046 763A     		subs	r2, r2, #118
 360 0048 054B     		ldr	r3, .L31+12
 361 004a 1A60     		str	r2, [r3]
 227:Generated_Source\PSoC4/Display.c **** }
 362              		.loc 1 227 0
 363              		@ sp needed
 364              	.LVL10:
 365 004c 04BC     		pop	{r2}
 366 004e 9046     		mov	r8, r2
 367 0050 F0BD     		pop	{r4, r5, r6, r7, pc}
 368              	.L32:
 369 0052 C046     		.align	2
 370              	.L31:
 371 0054 00000000 		.word	Displayisr_struct
 372 0058 14050000 		.word	1300
 373 005c 40020740 		.word	1074201152
 374 0060 68000740 		.word	1074200680
 375              		.cfi_endproc
 376              	.LFE2:
 377              		.size	write_data, .-write_data
 378              		.section	.text.draw_text_slice,"ax",%progbits
 379              		.align	2
 380              		.code	16
 381              		.thumb_func
 382              		.type	draw_text_slice, %function
 383              	draw_text_slice:
 384              	.LFB7:
 228:Generated_Source\PSoC4/Display.c **** 
 229:Generated_Source\PSoC4/Display.c **** 
 230:Generated_Source\PSoC4/Display.c **** void Display_Setup() {
 231:Generated_Source\PSoC4/Display.c ****     Displayisr_struct.i2c_state=STOP;
 232:Generated_Source\PSoC4/Display.c **** 	write_cmd((uint8*)&ini_array[0],sizeof(ini_array));
 233:Generated_Source\PSoC4/Display.c **** 	Display_SetContrast(DEFAULT_CONTRAST_LEVEL);
 234:Generated_Source\PSoC4/Display.c **** }
 235:Generated_Source\PSoC4/Display.c **** 
 236:Generated_Source\PSoC4/Display.c **** void Display_Start() {
 237:Generated_Source\PSoC4/Display.c ****     Display_I2C_SetCustomInterruptHandler(&Display_I2C_I2C_ISR);
 238:Generated_Source\PSoC4/Display.c **** 	Display_I2C_Start();
 239:Generated_Source\PSoC4/Display.c ****     Display_I2C_SetMasterInterruptMode(Display_I2C_INTR_MASTER_I2C_ACK|Display_I2C_INTR_MASTER_I2C_
 240:Generated_Source\PSoC4/Display.c **** 	Display_Setup();
 241:Generated_Source\PSoC4/Display.c **** }
 242:Generated_Source\PSoC4/Display.c **** 
 243:Generated_Source\PSoC4/Display.c **** void Display_SetCursorPosition(uint8 page, uint8 col) {
ARM GAS  C:\Users\VIDEOH~1\AppData\Local\Temp\ccyQ57DT.s 			page 12


 244:Generated_Source\PSoC4/Display.c ****     uint8 ini_data[4];
 245:Generated_Source\PSoC4/Display.c ****     ini_data[0]=CMD_WRITE_CMD_MULTI;
 246:Generated_Source\PSoC4/Display.c ****     ini_data[1]=CMD_GOTO_DEFPAGE;
 247:Generated_Source\PSoC4/Display.c ****     ini_data[2]=CMD_SET_Y_ADR | (page & 0xF);
 248:Generated_Source\PSoC4/Display.c ****     ini_data[3]=CMD_SET_X_ADR | (col & 0x7F);
 249:Generated_Source\PSoC4/Display.c **** 	write_cmd(ini_data,4);
 250:Generated_Source\PSoC4/Display.c **** }
 251:Generated_Source\PSoC4/Display.c **** 
 252:Generated_Source\PSoC4/Display.c **** void Display_SetContrast(uint8 contrast_level) {
 253:Generated_Source\PSoC4/Display.c ****     uint8 ini_data[4];
 254:Generated_Source\PSoC4/Display.c ****     ini_data[0]=CMD_WRITE_CMD_MULTI;
 255:Generated_Source\PSoC4/Display.c ****     ini_data[1]=CMD_GOTO_DEFPAGE;
 256:Generated_Source\PSoC4/Display.c ****     ini_data[2]=CMD_GOTO_PAGE|5;
 257:Generated_Source\PSoC4/Display.c ****     ini_data[3]=CMD_SET_VLCD| (contrast_level & 0x7F);
 258:Generated_Source\PSoC4/Display.c **** 	write_cmd(ini_data,4);
 259:Generated_Source\PSoC4/Display.c **** }
 260:Generated_Source\PSoC4/Display.c **** 
 261:Generated_Source\PSoC4/Display.c **** static void draw_text_slice(char c, uint8 row, uint8 inverse) {
 385              		.loc 1 261 0
 386              		.cfi_startproc
 387              		@ args = 0, pretend = 0, frame = 0
 388              		@ frame_needed = 0, uses_anonymous_args = 0
 389              	.LVL11:
 390 0000 F0B5     		push	{r4, r5, r6, r7, lr}
 391              		.cfi_def_cfa_offset 20
 392              		.cfi_offset 4, -20
 393              		.cfi_offset 5, -16
 394              		.cfi_offset 6, -12
 395              		.cfi_offset 7, -8
 396              		.cfi_offset 14, -4
 397 0002 83B0     		sub	sp, sp, #12
 398              		.cfi_def_cfa_offset 32
 399 0004 0700     		movs	r7, r0
 400 0006 0E00     		movs	r6, r1
 401 0008 1400     		movs	r4, r2
 402              	.LVL12:
 403              	.LBB2:
 262:Generated_Source\PSoC4/Display.c **** 	for(int8 i = 0; i < FONT_GLYPH_COLUMNS; i++) {
 404              		.loc 1 262 0
 405 000a 0025     		movs	r5, #0
 406 000c 14E0     		b	.L34
 407              	.LVL13:
 408              	.L35:
 409              	.LBB3:
 263:Generated_Source\PSoC4/Display.c **** 		uint8* data =(uint8*) &glyphs[c - FONT_GLYPH_OFFSET][row][i];
 410              		.loc 1 263 0 discriminator 3
 411 000e 3A00     		movs	r2, r7
 412 0010 203A     		subs	r2, r2, #32
 413 0012 7000     		lsls	r0, r6, #1
 414 0014 8019     		adds	r0, r0, r6
 415 0016 8100     		lsls	r1, r0, #2
 416 0018 5300     		lsls	r3, r2, #1
 417 001a 9A18     		adds	r2, r3, r2
 418 001c D300     		lsls	r3, r2, #3
 419 001e CB18     		adds	r3, r1, r3
 420 0020 5B19     		adds	r3, r3, r5
 421 0022 0749     		ldr	r1, .L36
ARM GAS  C:\Users\VIDEOH~1\AppData\Local\Temp\ccyQ57DT.s 			page 13


 422 0024 5918     		adds	r1, r3, r1
 423              	.LVL14:
 264:Generated_Source\PSoC4/Display.c ****         write_data(CMD_WRITE_DATA_MULTI, data,12,inverse,0);
 424              		.loc 1 264 0 discriminator 3
 425 0026 0023     		movs	r3, #0
 426 0028 0093     		str	r3, [sp]
 427 002a 2300     		movs	r3, r4
 428 002c 0C22     		movs	r2, #12
 429 002e 4020     		movs	r0, #64
 430 0030 FFF7FEFF 		bl	write_data
 431              	.LVL15:
 432              	.LBE3:
 262:Generated_Source\PSoC4/Display.c **** 	for(int8 i = 0; i < FONT_GLYPH_COLUMNS; i++) {
 433              		.loc 1 262 0 discriminator 3
 434 0034 0135     		adds	r5, r5, #1
 435              	.LVL16:
 436 0036 6DB2     		sxtb	r5, r5
 437              	.LVL17:
 438              	.L34:
 262:Generated_Source\PSoC4/Display.c **** 	for(int8 i = 0; i < FONT_GLYPH_COLUMNS; i++) {
 439              		.loc 1 262 0 is_stmt 0 discriminator 1
 440 0038 0B2D     		cmp	r5, #11
 441 003a E8DD     		ble	.L35
 442              	.LBE2:
 265:Generated_Source\PSoC4/Display.c **** 	}
 266:Generated_Source\PSoC4/Display.c **** }
 443              		.loc 1 266 0 is_stmt 1
 444 003c 03B0     		add	sp, sp, #12
 445              		@ sp needed
 446              	.LVL18:
 447 003e F0BD     		pop	{r4, r5, r6, r7, pc}
 448              	.L37:
 449              		.align	2
 450              	.L36:
 451 0040 00000000 		.word	glyphs
 452              		.cfi_endproc
 453              	.LFE7:
 454              		.size	draw_text_slice, .-draw_text_slice
 455              		.section	.text.Display_SetCursorPosition,"ax",%progbits
 456              		.align	2
 457              		.global	Display_SetCursorPosition
 458              		.code	16
 459              		.thumb_func
 460              		.type	Display_SetCursorPosition, %function
 461              	Display_SetCursorPosition:
 462              	.LFB5:
 243:Generated_Source\PSoC4/Display.c ****     uint8 ini_data[4];
 463              		.loc 1 243 0
 464              		.cfi_startproc
 465              		@ args = 0, pretend = 0, frame = 8
 466              		@ frame_needed = 0, uses_anonymous_args = 0
 467              	.LVL19:
 468 0000 00B5     		push	{lr}
 469              		.cfi_def_cfa_offset 4
 470              		.cfi_offset 14, -4
 471 0002 83B0     		sub	sp, sp, #12
 472              		.cfi_def_cfa_offset 16
ARM GAS  C:\Users\VIDEOH~1\AppData\Local\Temp\ccyQ57DT.s 			page 14


 245:Generated_Source\PSoC4/Display.c ****     ini_data[1]=CMD_GOTO_DEFPAGE;
 473              		.loc 1 245 0
 474 0004 01AB     		add	r3, sp, #4
 475 0006 0022     		movs	r2, #0
 476 0008 1A70     		strb	r2, [r3]
 246:Generated_Source\PSoC4/Display.c ****     ini_data[2]=CMD_SET_Y_ADR | (page & 0xF);
 477              		.loc 1 246 0
 478 000a 0132     		adds	r2, r2, #1
 479 000c 5A70     		strb	r2, [r3, #1]
 247:Generated_Source\PSoC4/Display.c ****     ini_data[3]=CMD_SET_X_ADR | (col & 0x7F);
 480              		.loc 1 247 0
 481 000e 0E32     		adds	r2, r2, #14
 482 0010 1040     		ands	r0, r2
 483              	.LVL20:
 484 0012 4022     		movs	r2, #64
 485 0014 1043     		orrs	r0, r2
 486 0016 9870     		strb	r0, [r3, #2]
 248:Generated_Source\PSoC4/Display.c **** 	write_cmd(ini_data,4);
 487              		.loc 1 248 0
 488 0018 8022     		movs	r2, #128
 489 001a 5242     		rsbs	r2, r2, #0
 490 001c 1143     		orrs	r1, r2
 491              	.LVL21:
 492 001e D970     		strb	r1, [r3, #3]
 249:Generated_Source\PSoC4/Display.c **** }
 493              		.loc 1 249 0
 494 0020 0421     		movs	r1, #4
 495 0022 1800     		movs	r0, r3
 496 0024 FFF7FEFF 		bl	write_cmd
 497              	.LVL22:
 250:Generated_Source\PSoC4/Display.c **** 
 498              		.loc 1 250 0
 499 0028 03B0     		add	sp, sp, #12
 500              		@ sp needed
 501 002a 00BD     		pop	{pc}
 502              		.cfi_endproc
 503              	.LFE5:
 504              		.size	Display_SetCursorPosition, .-Display_SetCursorPosition
 505              		.section	.text.Display_SetContrast,"ax",%progbits
 506              		.align	2
 507              		.global	Display_SetContrast
 508              		.code	16
 509              		.thumb_func
 510              		.type	Display_SetContrast, %function
 511              	Display_SetContrast:
 512              	.LFB6:
 252:Generated_Source\PSoC4/Display.c ****     uint8 ini_data[4];
 513              		.loc 1 252 0
 514              		.cfi_startproc
 515              		@ args = 0, pretend = 0, frame = 8
 516              		@ frame_needed = 0, uses_anonymous_args = 0
 517              	.LVL23:
 518 0000 00B5     		push	{lr}
 519              		.cfi_def_cfa_offset 4
 520              		.cfi_offset 14, -4
 521 0002 83B0     		sub	sp, sp, #12
 522              		.cfi_def_cfa_offset 16
ARM GAS  C:\Users\VIDEOH~1\AppData\Local\Temp\ccyQ57DT.s 			page 15


 254:Generated_Source\PSoC4/Display.c ****     ini_data[1]=CMD_GOTO_DEFPAGE;
 523              		.loc 1 254 0
 524 0004 01AB     		add	r3, sp, #4
 525 0006 0022     		movs	r2, #0
 526 0008 1A70     		strb	r2, [r3]
 255:Generated_Source\PSoC4/Display.c ****     ini_data[2]=CMD_GOTO_PAGE|5;
 527              		.loc 1 255 0
 528 000a 0132     		adds	r2, r2, #1
 529 000c 5A70     		strb	r2, [r3, #1]
 256:Generated_Source\PSoC4/Display.c ****     ini_data[3]=CMD_SET_VLCD| (contrast_level & 0x7F);
 530              		.loc 1 256 0
 531 000e 0C32     		adds	r2, r2, #12
 532 0010 9A70     		strb	r2, [r3, #2]
 257:Generated_Source\PSoC4/Display.c **** 	write_cmd(ini_data,4);
 533              		.loc 1 257 0
 534 0012 8D3A     		subs	r2, r2, #141
 535 0014 1043     		orrs	r0, r2
 536              	.LVL24:
 537 0016 D870     		strb	r0, [r3, #3]
 258:Generated_Source\PSoC4/Display.c **** }
 538              		.loc 1 258 0
 539 0018 0421     		movs	r1, #4
 540 001a 1800     		movs	r0, r3
 541 001c FFF7FEFF 		bl	write_cmd
 542              	.LVL25:
 259:Generated_Source\PSoC4/Display.c **** 
 543              		.loc 1 259 0
 544 0020 03B0     		add	sp, sp, #12
 545              		@ sp needed
 546 0022 00BD     		pop	{pc}
 547              		.cfi_endproc
 548              	.LFE6:
 549              		.size	Display_SetContrast, .-Display_SetContrast
 550              		.section	.text.Display_Setup,"ax",%progbits
 551              		.align	2
 552              		.global	Display_Setup
 553              		.code	16
 554              		.thumb_func
 555              		.type	Display_Setup, %function
 556              	Display_Setup:
 557              	.LFB3:
 230:Generated_Source\PSoC4/Display.c ****     Displayisr_struct.i2c_state=STOP;
 558              		.loc 1 230 0
 559              		.cfi_startproc
 560              		@ args = 0, pretend = 0, frame = 0
 561              		@ frame_needed = 0, uses_anonymous_args = 0
 562 0000 10B5     		push	{r4, lr}
 563              		.cfi_def_cfa_offset 8
 564              		.cfi_offset 4, -8
 565              		.cfi_offset 14, -4
 231:Generated_Source\PSoC4/Display.c **** 	write_cmd((uint8*)&ini_array[0],sizeof(ini_array));
 566              		.loc 1 231 0
 567 0002 0222     		movs	r2, #2
 568 0004 044B     		ldr	r3, .L41
 569 0006 DA72     		strb	r2, [r3, #11]
 232:Generated_Source\PSoC4/Display.c **** 	Display_SetContrast(DEFAULT_CONTRAST_LEVEL);
 570              		.loc 1 232 0
ARM GAS  C:\Users\VIDEOH~1\AppData\Local\Temp\ccyQ57DT.s 			page 16


 571 0008 1C21     		movs	r1, #28
 572 000a 0448     		ldr	r0, .L41+4
 573 000c FFF7FEFF 		bl	write_cmd
 574              	.LVL26:
 233:Generated_Source\PSoC4/Display.c **** }
 575              		.loc 1 233 0
 576 0010 E420     		movs	r0, #228
 577 0012 FFF7FEFF 		bl	Display_SetContrast
 578              	.LVL27:
 234:Generated_Source\PSoC4/Display.c **** 
 579              		.loc 1 234 0
 580              		@ sp needed
 581 0016 10BD     		pop	{r4, pc}
 582              	.L42:
 583              		.align	2
 584              	.L41:
 585 0018 00000000 		.word	Displayisr_struct
 586 001c 00000000 		.word	.LANCHOR0
 587              		.cfi_endproc
 588              	.LFE3:
 589              		.size	Display_Setup, .-Display_Setup
 590              		.section	.text.Display_Start,"ax",%progbits
 591              		.align	2
 592              		.global	Display_Start
 593              		.code	16
 594              		.thumb_func
 595              		.type	Display_Start, %function
 596              	Display_Start:
 597              	.LFB4:
 236:Generated_Source\PSoC4/Display.c ****     Display_I2C_SetCustomInterruptHandler(&Display_I2C_I2C_ISR);
 598              		.loc 1 236 0
 599              		.cfi_startproc
 600              		@ args = 0, pretend = 0, frame = 0
 601              		@ frame_needed = 0, uses_anonymous_args = 0
 602 0000 10B5     		push	{r4, lr}
 603              		.cfi_def_cfa_offset 8
 604              		.cfi_offset 4, -8
 605              		.cfi_offset 14, -4
 237:Generated_Source\PSoC4/Display.c **** 	Display_I2C_Start();
 606              		.loc 1 237 0
 607 0002 0648     		ldr	r0, .L44
 608 0004 FFF7FEFF 		bl	Display_I2C_SetCustomInterruptHandler
 609              	.LVL28:
 238:Generated_Source\PSoC4/Display.c ****     Display_I2C_SetMasterInterruptMode(Display_I2C_INTR_MASTER_I2C_ACK|Display_I2C_INTR_MASTER_I2C_
 610              		.loc 1 238 0
 611 0008 FFF7FEFF 		bl	Display_I2C_Start
 612              	.LVL29:
 239:Generated_Source\PSoC4/Display.c **** 	Display_Setup();
 613              		.loc 1 239 0
 614 000c 0822     		movs	r2, #8
 615 000e FF32     		adds	r2, r2, #255
 616 0010 034B     		ldr	r3, .L44+4
 617 0012 1A60     		str	r2, [r3]
 240:Generated_Source\PSoC4/Display.c **** }
 618              		.loc 1 240 0
 619 0014 FFF7FEFF 		bl	Display_Setup
 620              	.LVL30:
ARM GAS  C:\Users\VIDEOH~1\AppData\Local\Temp\ccyQ57DT.s 			page 17


 241:Generated_Source\PSoC4/Display.c **** 
 621              		.loc 1 241 0
 622              		@ sp needed
 623 0018 10BD     		pop	{r4, pc}
 624              	.L45:
 625 001a C046     		.align	2
 626              	.L44:
 627 001c 00000000 		.word	Display_I2C_I2C_ISR
 628 0020 080F0740 		.word	1074204424
 629              		.cfi_endproc
 630              	.LFE4:
 631              		.size	Display_Start, .-Display_Start
 632              		.section	.text.Display_Clear,"ax",%progbits
 633              		.align	2
 634              		.global	Display_Clear
 635              		.code	16
 636              		.thumb_func
 637              		.type	Display_Clear, %function
 638              	Display_Clear:
 639              	.LFB8:
 267:Generated_Source\PSoC4/Display.c **** 
 268:Generated_Source\PSoC4/Display.c **** void Display_Clear(uint8 start_row, uint8 start_col, uint8 end_row, uint8 end_col, uint8 value) {
 640              		.loc 1 268 0
 641              		.cfi_startproc
 642              		@ args = 4, pretend = 0, frame = 0
 643              		@ frame_needed = 0, uses_anonymous_args = 0
 644              	.LVL31:
 645 0000 F0B5     		push	{r4, r5, r6, r7, lr}
 646              		.cfi_def_cfa_offset 20
 647              		.cfi_offset 4, -20
 648              		.cfi_offset 5, -16
 649              		.cfi_offset 6, -12
 650              		.cfi_offset 7, -8
 651              		.cfi_offset 14, -4
 652 0002 83B0     		sub	sp, sp, #12
 653              		.cfi_def_cfa_offset 32
 654 0004 0400     		movs	r4, r0
 655 0006 0D00     		movs	r5, r1
 656 0008 1600     		movs	r6, r2
 657 000a 1F00     		movs	r7, r3
 658              	.LVL32:
 659              	.LBB4:
 269:Generated_Source\PSoC4/Display.c **** 	for(uint8 row = start_row; row < end_row; row++) {
 660              		.loc 1 269 0
 661 000c 0EE0     		b	.L47
 662              	.LVL33:
 663              	.L48:
 270:Generated_Source\PSoC4/Display.c **** 		Display_SetCursorPosition(row, start_col);
 664              		.loc 1 270 0 discriminator 3
 665 000e 2900     		movs	r1, r5
 666 0010 2000     		movs	r0, r4
 667 0012 FFF7FEFF 		bl	Display_SetCursorPosition
 668              	.LVL34:
 271:Generated_Source\PSoC4/Display.c ****         write_data(CMD_WRITE_DATA_MULTI, &value,start_col-end_col,0,1);
 669              		.loc 1 271 0 discriminator 3
 670 0016 EA1B     		subs	r2, r5, r7
 671 0018 92B2     		uxth	r2, r2
ARM GAS  C:\Users\VIDEOH~1\AppData\Local\Temp\ccyQ57DT.s 			page 18


 672 001a 0123     		movs	r3, #1
 673 001c 0093     		str	r3, [sp]
 674 001e 0023     		movs	r3, #0
 675 0020 08A9     		add	r1, sp, #32
 676              	.LVL35:
 677 0022 4020     		movs	r0, #64
 678 0024 FFF7FEFF 		bl	write_data
 679              	.LVL36:
 269:Generated_Source\PSoC4/Display.c **** 	for(uint8 row = start_row; row < end_row; row++) {
 680              		.loc 1 269 0 discriminator 3
 681 0028 0134     		adds	r4, r4, #1
 682              	.LVL37:
 683 002a E4B2     		uxtb	r4, r4
 684              	.LVL38:
 685              	.L47:
 269:Generated_Source\PSoC4/Display.c **** 	for(uint8 row = start_row; row < end_row; row++) {
 686              		.loc 1 269 0 is_stmt 0 discriminator 1
 687 002c B442     		cmp	r4, r6
 688 002e EED3     		bcc	.L48
 689              	.LBE4:
 272:Generated_Source\PSoC4/Display.c **** 		}
 273:Generated_Source\PSoC4/Display.c **** }
 690              		.loc 1 273 0 is_stmt 1
 691 0030 03B0     		add	sp, sp, #12
 692              		@ sp needed
 693              	.LVL39:
 694 0032 F0BD     		pop	{r4, r5, r6, r7, pc}
 695              		.cfi_endproc
 696              	.LFE8:
 697              		.size	Display_Clear, .-Display_Clear
 698              		.section	.text.Display_ClearAll,"ax",%progbits
 699              		.align	2
 700              		.global	Display_ClearAll
 701              		.code	16
 702              		.thumb_func
 703              		.type	Display_ClearAll, %function
 704              	Display_ClearAll:
 705              	.LFB9:
 274:Generated_Source\PSoC4/Display.c **** 
 275:Generated_Source\PSoC4/Display.c **** void Display_ClearAll() {
 706              		.loc 1 275 0
 707              		.cfi_startproc
 708              		@ args = 0, pretend = 0, frame = 8
 709              		@ frame_needed = 0, uses_anonymous_args = 0
 710 0000 10B5     		push	{r4, lr}
 711              		.cfi_def_cfa_offset 8
 712              		.cfi_offset 4, -8
 713              		.cfi_offset 14, -4
 714 0002 84B0     		sub	sp, sp, #16
 715              		.cfi_def_cfa_offset 24
 276:Generated_Source\PSoC4/Display.c ****     uint8 value=0;
 716              		.loc 1 276 0
 717 0004 0022     		movs	r2, #0
 718 0006 0F23     		movs	r3, #15
 719 0008 6B44     		add	r3, r3, sp
 720 000a 1A70     		strb	r2, [r3]
 721              	.LVL40:
ARM GAS  C:\Users\VIDEOH~1\AppData\Local\Temp\ccyQ57DT.s 			page 19


 722              	.LBB5:
 277:Generated_Source\PSoC4/Display.c **** 	for(uint8 row = 0; row < 8; row++) {
 723              		.loc 1 277 0
 724 000c 0024     		movs	r4, #0
 725 000e 0EE0     		b	.L50
 726              	.LVL41:
 727              	.L51:
 278:Generated_Source\PSoC4/Display.c **** 		Display_SetCursorPosition(row, 0);
 728              		.loc 1 278 0 discriminator 3
 729 0010 0021     		movs	r1, #0
 730 0012 2000     		movs	r0, r4
 731 0014 FFF7FEFF 		bl	Display_SetCursorPosition
 732              	.LVL42:
 279:Generated_Source\PSoC4/Display.c ****         write_data(CMD_WRITE_DATA_MULTI, &value,128,0,1);
 733              		.loc 1 279 0 discriminator 3
 734 0018 0123     		movs	r3, #1
 735 001a 0093     		str	r3, [sp]
 736 001c 0023     		movs	r3, #0
 737 001e 8022     		movs	r2, #128
 738 0020 0F21     		movs	r1, #15
 739 0022 6944     		add	r1, r1, sp
 740 0024 4020     		movs	r0, #64
 741 0026 FFF7FEFF 		bl	write_data
 742              	.LVL43:
 277:Generated_Source\PSoC4/Display.c **** 	for(uint8 row = 0; row < 8; row++) {
 743              		.loc 1 277 0 discriminator 3
 744 002a 0134     		adds	r4, r4, #1
 745              	.LVL44:
 746 002c E4B2     		uxtb	r4, r4
 747              	.LVL45:
 748              	.L50:
 277:Generated_Source\PSoC4/Display.c **** 	for(uint8 row = 0; row < 8; row++) {
 749              		.loc 1 277 0 is_stmt 0 discriminator 1
 750 002e 072C     		cmp	r4, #7
 751 0030 EED9     		bls	.L51
 752              	.LBE5:
 280:Generated_Source\PSoC4/Display.c **** 		}
 281:Generated_Source\PSoC4/Display.c **** }
 753              		.loc 1 281 0 is_stmt 1
 754 0032 04B0     		add	sp, sp, #16
 755              		@ sp needed
 756              	.LVL46:
 757 0034 10BD     		pop	{r4, pc}
 758              		.cfi_endproc
 759              	.LFE9:
 760              		.size	Display_ClearAll, .-Display_ClearAll
 761 0036 C046     		.section	.text.Display_DrawText,"ax",%progbits
 762              		.align	2
 763              		.global	Display_DrawText
 764              		.code	16
 765              		.thumb_func
 766              		.type	Display_DrawText, %function
 767              	Display_DrawText:
 768              	.LFB10:
 282:Generated_Source\PSoC4/Display.c **** 
 283:Generated_Source\PSoC4/Display.c **** void Display_DrawText(uint8 start_page, uint8 start_col, const char *text, uint8 inverse) {
 769              		.loc 1 283 0
ARM GAS  C:\Users\VIDEOH~1\AppData\Local\Temp\ccyQ57DT.s 			page 20


 770              		.cfi_startproc
 771              		@ args = 0, pretend = 0, frame = 8
 772              		@ frame_needed = 0, uses_anonymous_args = 0
 773              	.LVL47:
 774 0000 F0B5     		push	{r4, r5, r6, r7, lr}
 775              		.cfi_def_cfa_offset 20
 776              		.cfi_offset 4, -20
 777              		.cfi_offset 5, -16
 778              		.cfi_offset 6, -12
 779              		.cfi_offset 7, -8
 780              		.cfi_offset 14, -4
 781 0002 83B0     		sub	sp, sp, #12
 782              		.cfi_def_cfa_offset 32
 783 0004 0600     		movs	r6, r0
 784 0006 0091     		str	r1, [sp]
 785 0008 0192     		str	r2, [sp, #4]
 786 000a 1D00     		movs	r5, r3
 787              	.LVL48:
 788              	.LBB6:
 284:Generated_Source\PSoC4/Display.c **** 	for(uint8 row = 0; row < 2; row++) {
 789              		.loc 1 284 0
 790 000c 0024     		movs	r4, #0
 791 000e 10E0     		b	.L53
 792              	.LVL49:
 793              	.L56:
 285:Generated_Source\PSoC4/Display.c **** 		Display_SetCursorPosition(start_page + row, start_col);
 794              		.loc 1 285 0
 795 0010 A019     		adds	r0, r4, r6
 796 0012 C0B2     		uxtb	r0, r0
 797 0014 0099     		ldr	r1, [sp]
 798 0016 FFF7FEFF 		bl	Display_SetCursorPosition
 799              	.LVL50:
 800              	.LBB7:
 286:Generated_Source\PSoC4/Display.c **** 		for(const char *c = text; *c != '\0'; c++) {
 801              		.loc 1 286 0
 802 001a 019F     		ldr	r7, [sp, #4]
 803 001c 04E0     		b	.L54
 804              	.LVL51:
 805              	.L55:
 287:Generated_Source\PSoC4/Display.c **** 			draw_text_slice(*c, row, inverse);
 806              		.loc 1 287 0 discriminator 3
 807 001e 2A00     		movs	r2, r5
 808 0020 2100     		movs	r1, r4
 809 0022 FFF7FEFF 		bl	draw_text_slice
 810              	.LVL52:
 286:Generated_Source\PSoC4/Display.c **** 		for(const char *c = text; *c != '\0'; c++) {
 811              		.loc 1 286 0 discriminator 3
 812 0026 0137     		adds	r7, r7, #1
 813              	.LVL53:
 814              	.L54:
 286:Generated_Source\PSoC4/Display.c **** 		for(const char *c = text; *c != '\0'; c++) {
 815              		.loc 1 286 0 is_stmt 0 discriminator 1
 816 0028 3878     		ldrb	r0, [r7]
 817 002a 0028     		cmp	r0, #0
 818 002c F7D1     		bne	.L55
 819              	.LBE7:
 284:Generated_Source\PSoC4/Display.c **** 		Display_SetCursorPosition(start_page + row, start_col);
ARM GAS  C:\Users\VIDEOH~1\AppData\Local\Temp\ccyQ57DT.s 			page 21


 820              		.loc 1 284 0 is_stmt 1 discriminator 2
 821 002e 0134     		adds	r4, r4, #1
 822              	.LVL54:
 823 0030 E4B2     		uxtb	r4, r4
 824              	.LVL55:
 825              	.L53:
 284:Generated_Source\PSoC4/Display.c **** 		Display_SetCursorPosition(start_page + row, start_col);
 826              		.loc 1 284 0 is_stmt 0 discriminator 1
 827 0032 012C     		cmp	r4, #1
 828 0034 ECD9     		bls	.L56
 829              	.LBE6:
 288:Generated_Source\PSoC4/Display.c **** 		}
 289:Generated_Source\PSoC4/Display.c **** 	}
 290:Generated_Source\PSoC4/Display.c **** }
 830              		.loc 1 290 0 is_stmt 1
 831 0036 03B0     		add	sp, sp, #12
 832              		@ sp needed
 833              	.LVL56:
 834 0038 F0BD     		pop	{r4, r5, r6, r7, pc}
 835              		.cfi_endproc
 836              	.LFE10:
 837              		.size	Display_DrawText, .-Display_DrawText
 838 003a C046     		.section	.text.Display_DrawBigNumbers,"ax",%progbits
 839              		.align	2
 840              		.global	Display_DrawBigNumbers
 841              		.code	16
 842              		.thumb_func
 843              		.type	Display_DrawBigNumbers, %function
 844              	Display_DrawBigNumbers:
 845              	.LFB11:
 291:Generated_Source\PSoC4/Display.c **** 
 292:Generated_Source\PSoC4/Display.c **** void Display_DrawBigNumbers(uint8 start_page, uint8 start_col, const char *nums) {
 846              		.loc 1 292 0
 847              		.cfi_startproc
 848              		@ args = 0, pretend = 0, frame = 0
 849              		@ frame_needed = 0, uses_anonymous_args = 0
 850              		@ link register save eliminated.
 851              	.LVL57:
 293:Generated_Source\PSoC4/Display.c **** 	// Big numbers are 3 glyphs tall
 294:Generated_Source\PSoC4/Display.c **** /*	for(uint8 vglyph = 0; vglyph < 3; vglyph++) {
 295:Generated_Source\PSoC4/Display.c **** 		for(uint8 row = 0; row < 2; row++) {
 296:Generated_Source\PSoC4/Display.c **** 			Display_SetCursorPosition(start_page + vglyph * 2 + row, start_col);
 297:Generated_Source\PSoC4/Display.c **** 			// Big numbers are 3 glyphs wide
 298:Generated_Source\PSoC4/Display.c **** 			for(const char *c = nums; *c != '\0'; c++) {
 299:Generated_Source\PSoC4/Display.c **** 				for(uint8 hglyph = 0; hglyph < 3; hglyph++) {
 300:Generated_Source\PSoC4/Display.c **** 					if(*c >= '0' && *c <= '9') {
 301:Generated_Source\PSoC4/Display.c **** 						// Determine glyph based on provided number, which glyph we're drawing vertically,
 302:Generated_Source\PSoC4/Display.c **** 						// and which glyph we're drawing horizontally
 303:Generated_Source\PSoC4/Display.c **** 						uint8 glyphnum = FONT_BIGDIGIT_OFFSET
 304:Generated_Source\PSoC4/Display.c **** 										 + (*c - '0') * 3
 305:Generated_Source\PSoC4/Display.c **** 										 + FONT_BIGDIGIT_ROW_WIDTH * vglyph
 306:Generated_Source\PSoC4/Display.c **** 										 + hglyph;
 307:Generated_Source\PSoC4/Display.c **** 						draw_text_slice(glyphnum, row, 0);
 308:Generated_Source\PSoC4/Display.c **** 					} else  {
 309:Generated_Source\PSoC4/Display.c **** 						hglyph = 2; // Other glyphs are only 1 glyph wide
 310:Generated_Source\PSoC4/Display.c **** 						if(vglyph == 2) {
 311:Generated_Source\PSoC4/Display.c **** 							draw_text_slice((*c == '.')?GLYPH_CHAR(FONT_GLYPH_BIGPERIOD):*c, row, 0);
ARM GAS  C:\Users\VIDEOH~1\AppData\Local\Temp\ccyQ57DT.s 			page 22


 312:Generated_Source\PSoC4/Display.c **** 						} else if(*c == '.') {
 313:Generated_Source\PSoC4/Display.c **** 							draw_text_slice(' ', row, 0);
 314:Generated_Source\PSoC4/Display.c **** 						}
 315:Generated_Source\PSoC4/Display.c **** 					}
 316:Generated_Source\PSoC4/Display.c **** 				}
 317:Generated_Source\PSoC4/Display.c **** 			}
 318:Generated_Source\PSoC4/Display.c **** 		}
 319:Generated_Source\PSoC4/Display.c **** 	}*/
 320:Generated_Source\PSoC4/Display.c **** }
 852              		.loc 1 320 0
 853              		@ sp needed
 854 0000 7047     		bx	lr
 855              		.cfi_endproc
 856              	.LFE11:
 857              		.size	Display_DrawBigNumbers, .-Display_DrawBigNumbers
 858              		.comm	Displayisr_struct,16,4
 859              		.global	ini_array
 860 0002 C046     		.section	.rodata
 861              		.align	2
 862              		.set	.LANCHOR0,. + 0
 863              		.type	ini_array, %object
 864              		.size	ini_array, 28
 865              	ini_array:
 866 0000 00       		.byte	0
 867 0001 01       		.byte	1
 868 0002 10       		.byte	16
 869 0003 20       		.byte	32
 870 0004 0E       		.byte	14
 871 0005 12       		.byte	18
 872 0006 24       		.byte	36
 873 0007 05       		.byte	5
 874 0008 84       		.byte	-124
 875 0009 08       		.byte	8
 876 000a 01       		.byte	1
 877 000b 0D       		.byte	13
 878 000c 08       		.byte	8
 879 000d 17       		.byte	23
 880 000e E4       		.byte	-28
 881 000f 05       		.byte	5
 882 0010 01       		.byte	1
 883 0011 0B       		.byte	11
 884 0012 40       		.byte	64
 885 0013 08       		.byte	8
 886 0014 04       		.byte	4
 887 0015 01       		.byte	1
 888 0016 0D       		.byte	13
 889 0017 09       		.byte	9
 890 0018 01       		.byte	1
 891 0019 0D       		.byte	13
 892 001a 0A       		.byte	10
 893 001b 01       		.byte	1
 894              		.text
 895              	.Letext0:
 896              		.file 2 "Generated_Source\\PSoC4/cytypes.h"
 897              		.file 3 "Generated_Source\\PSoC4\\Display_font.h"
 898              		.file 4 "Generated_Source\\PSoC4/CyLib.h"
 899              		.file 5 "Generated_Source\\PSoC4\\Display_I2C.h"
ARM GAS  C:\Users\VIDEOH~1\AppData\Local\Temp\ccyQ57DT.s 			page 23

