ARM GAS  C:\Users\VIDEOH~1\AppData\Local\Temp\ccoXQSnH.s 			page 1


   1              		.syntax unified
   2              		.cpu cortex-m0
   3              		.fpu softvfp
   4              		.eabi_attribute 20, 1
   5              		.eabi_attribute 21, 1
   6              		.eabi_attribute 23, 3
   7              		.eabi_attribute 24, 1
   8              		.eabi_attribute 25, 1
   9              		.eabi_attribute 26, 1
  10              		.eabi_attribute 30, 4
  11              		.eabi_attribute 34, 0
  12              		.eabi_attribute 18, 4
  13              		.thumb
  14              		.syntax unified
  15              		.file	"heap_1.c"
  16              		.text
  17              	.Ltext0:
  18              		.cfi_sections	.debug_frame
  19              		.section	.text.pvPortMalloc,"ax",%progbits
  20              		.align	1
  21              		.global	pvPortMalloc
  22              		.code	16
  23              		.thumb_func
  24              		.type	pvPortMalloc, %function
  25              	pvPortMalloc:
  26              	.LFB32:
  27              		.file 1 "freertos\\src\\heap_1.c"
   1:freertos\src/heap_1.c **** /*
   2:freertos\src/heap_1.c ****     FreeRTOS V7.6.0 - Copyright (C) 2013 Real Time Engineers Ltd. 
   3:freertos\src/heap_1.c ****     All rights reserved
   4:freertos\src/heap_1.c **** 
   5:freertos\src/heap_1.c ****     VISIT http://www.FreeRTOS.org TO ENSURE YOU ARE USING THE LATEST VERSION.
   6:freertos\src/heap_1.c **** 
   7:freertos\src/heap_1.c ****     ***************************************************************************
   8:freertos\src/heap_1.c ****      *                                                                       *
   9:freertos\src/heap_1.c ****      *    FreeRTOS provides completely free yet professionally developed,    *
  10:freertos\src/heap_1.c ****      *    robust, strictly quality controlled, supported, and cross          *
  11:freertos\src/heap_1.c ****      *    platform software that has become a de facto standard.             *
  12:freertos\src/heap_1.c ****      *                                                                       *
  13:freertos\src/heap_1.c ****      *    Help yourself get started quickly and support the FreeRTOS         *
  14:freertos\src/heap_1.c ****      *    project by purchasing a FreeRTOS tutorial book, reference          *
  15:freertos\src/heap_1.c ****      *    manual, or both from: http://www.FreeRTOS.org/Documentation        *
  16:freertos\src/heap_1.c ****      *                                                                       *
  17:freertos\src/heap_1.c ****      *    Thank you!                                                         *
  18:freertos\src/heap_1.c ****      *                                                                       *
  19:freertos\src/heap_1.c ****     ***************************************************************************
  20:freertos\src/heap_1.c **** 
  21:freertos\src/heap_1.c ****     This file is part of the FreeRTOS distribution.
  22:freertos\src/heap_1.c **** 
  23:freertos\src/heap_1.c ****     FreeRTOS is free software; you can redistribute it and/or modify it under
  24:freertos\src/heap_1.c ****     the terms of the GNU General Public License (version 2) as published by the
  25:freertos\src/heap_1.c ****     Free Software Foundation >>!AND MODIFIED BY!<< the FreeRTOS exception.
  26:freertos\src/heap_1.c **** 
  27:freertos\src/heap_1.c ****     >>! NOTE: The modification to the GPL is included to allow you to distribute
  28:freertos\src/heap_1.c ****     >>! a combined work that includes FreeRTOS without being obliged to provide
  29:freertos\src/heap_1.c ****     >>! the source code for proprietary components outside of the FreeRTOS
  30:freertos\src/heap_1.c ****     >>! kernel.
ARM GAS  C:\Users\VIDEOH~1\AppData\Local\Temp\ccoXQSnH.s 			page 2


  31:freertos\src/heap_1.c **** 
  32:freertos\src/heap_1.c ****     FreeRTOS is distributed in the hope that it will be useful, but WITHOUT ANY
  33:freertos\src/heap_1.c ****     WARRANTY; without even the implied warranty of MERCHANTABILITY or FITNESS
  34:freertos\src/heap_1.c ****     FOR A PARTICULAR PURPOSE.  Full license text is available from the following
  35:freertos\src/heap_1.c ****     link: http://www.freertos.org/a00114.html
  36:freertos\src/heap_1.c **** 
  37:freertos\src/heap_1.c ****     1 tab == 4 spaces!
  38:freertos\src/heap_1.c **** 
  39:freertos\src/heap_1.c ****     ***************************************************************************
  40:freertos\src/heap_1.c ****      *                                                                       *
  41:freertos\src/heap_1.c ****      *    Having a problem?  Start by reading the FAQ "My application does   *
  42:freertos\src/heap_1.c ****      *    not run, what could be wrong?"                                     *
  43:freertos\src/heap_1.c ****      *                                                                       *
  44:freertos\src/heap_1.c ****      *    http://www.FreeRTOS.org/FAQHelp.html                               *
  45:freertos\src/heap_1.c ****      *                                                                       *
  46:freertos\src/heap_1.c ****     ***************************************************************************
  47:freertos\src/heap_1.c **** 
  48:freertos\src/heap_1.c ****     http://www.FreeRTOS.org - Documentation, books, training, latest versions,
  49:freertos\src/heap_1.c ****     license and Real Time Engineers Ltd. contact details.
  50:freertos\src/heap_1.c **** 
  51:freertos\src/heap_1.c ****     http://www.FreeRTOS.org/plus - A selection of FreeRTOS ecosystem products,
  52:freertos\src/heap_1.c ****     including FreeRTOS+Trace - an indispensable productivity tool, a DOS
  53:freertos\src/heap_1.c ****     compatible FAT file system, and our tiny thread aware UDP/IP stack.
  54:freertos\src/heap_1.c **** 
  55:freertos\src/heap_1.c ****     http://www.OpenRTOS.com - Real Time Engineers ltd license FreeRTOS to High
  56:freertos\src/heap_1.c ****     Integrity Systems to sell under the OpenRTOS brand.  Low cost OpenRTOS
  57:freertos\src/heap_1.c ****     licenses offer ticketed support, indemnification and middleware.
  58:freertos\src/heap_1.c **** 
  59:freertos\src/heap_1.c ****     http://www.SafeRTOS.com - High Integrity Systems also provide a safety
  60:freertos\src/heap_1.c ****     engineered and independently SIL3 certified version for use in safety and
  61:freertos\src/heap_1.c ****     mission critical applications that require provable dependability.
  62:freertos\src/heap_1.c **** 
  63:freertos\src/heap_1.c ****     1 tab == 4 spaces!
  64:freertos\src/heap_1.c **** */
  65:freertos\src/heap_1.c **** 
  66:freertos\src/heap_1.c **** 
  67:freertos\src/heap_1.c **** /*
  68:freertos\src/heap_1.c ****  * The simplest possible implementation of pvPortMalloc().  Note that this
  69:freertos\src/heap_1.c ****  * implementation does NOT allow allocated memory to be freed again.
  70:freertos\src/heap_1.c ****  *
  71:freertos\src/heap_1.c ****  * See heap_2.c, heap_3.c and heap_4.c for alternative implementations, and the
  72:freertos\src/heap_1.c ****  * memory management pages of http://www.FreeRTOS.org for more information.
  73:freertos\src/heap_1.c ****  */
  74:freertos\src/heap_1.c **** #include <stdlib.h>
  75:freertos\src/heap_1.c **** 
  76:freertos\src/heap_1.c **** /* Defining MPU_WRAPPERS_INCLUDED_FROM_API_FILE prevents task.h from redefining
  77:freertos\src/heap_1.c **** all the API functions to use the MPU wrappers.  That should only be done when
  78:freertos\src/heap_1.c **** task.h is included from an application file. */
  79:freertos\src/heap_1.c **** #define MPU_WRAPPERS_INCLUDED_FROM_API_FILE
  80:freertos\src/heap_1.c **** 
  81:freertos\src/heap_1.c **** #include "FreeRTOS.h"
  82:freertos\src/heap_1.c **** #include "task.h"
  83:freertos\src/heap_1.c **** 
  84:freertos\src/heap_1.c **** #undef MPU_WRAPPERS_INCLUDED_FROM_API_FILE
  85:freertos\src/heap_1.c **** 
  86:freertos\src/heap_1.c **** /* A few bytes might be lost to byte aligning the heap start address. */
  87:freertos\src/heap_1.c **** #define configADJUSTED_HEAP_SIZE	( configTOTAL_HEAP_SIZE - portBYTE_ALIGNMENT )
ARM GAS  C:\Users\VIDEOH~1\AppData\Local\Temp\ccoXQSnH.s 			page 3


  88:freertos\src/heap_1.c **** 
  89:freertos\src/heap_1.c **** /* Allocate the memory for the heap. */
  90:freertos\src/heap_1.c **** static unsigned char ucHeap[ configTOTAL_HEAP_SIZE ];
  91:freertos\src/heap_1.c **** static size_t xNextFreeByte = ( size_t ) 0;
  92:freertos\src/heap_1.c **** 
  93:freertos\src/heap_1.c **** /*-----------------------------------------------------------*/
  94:freertos\src/heap_1.c **** 
  95:freertos\src/heap_1.c **** void *pvPortMalloc( size_t xWantedSize )
  96:freertos\src/heap_1.c **** {
  28              		.loc 1 96 0
  29              		.cfi_startproc
  30              		@ args = 0, pretend = 0, frame = 0
  31              		@ frame_needed = 0, uses_anonymous_args = 0
  32              	.LVL0:
  97:freertos\src/heap_1.c **** void *pvReturn = NULL;
  98:freertos\src/heap_1.c **** static unsigned char *pucAlignedHeap = NULL;
  99:freertos\src/heap_1.c **** 
 100:freertos\src/heap_1.c **** 	/* Ensure that blocks are always aligned to the required number of bytes. */
 101:freertos\src/heap_1.c **** 	#if portBYTE_ALIGNMENT != 1
 102:freertos\src/heap_1.c **** 		if( xWantedSize & portBYTE_ALIGNMENT_MASK )
  33              		.loc 1 102 0
  34 0000 0723     		movs	r3, #7
  96:freertos\src/heap_1.c **** void *pvReturn = NULL;
  35              		.loc 1 96 0
  36 0002 70B5     		push	{r4, r5, r6, lr}
  37              		.cfi_def_cfa_offset 16
  38              		.cfi_offset 4, -16
  39              		.cfi_offset 5, -12
  40              		.cfi_offset 6, -8
  41              		.cfi_offset 14, -4
  96:freertos\src/heap_1.c **** void *pvReturn = NULL;
  42              		.loc 1 96 0
  43 0004 0400     		movs	r4, r0
  44              		.loc 1 102 0
  45 0006 1842     		tst	r0, r3
  46 0008 01D0     		beq	.L2
 103:freertos\src/heap_1.c **** 		{
 104:freertos\src/heap_1.c **** 			/* Byte alignment required. */
 105:freertos\src/heap_1.c **** 			xWantedSize += ( portBYTE_ALIGNMENT - ( xWantedSize & portBYTE_ALIGNMENT_MASK ) );
  47              		.loc 1 105 0
  48 000a 9C43     		bics	r4, r3
  49 000c 0834     		adds	r4, r4, #8
  50              	.LVL1:
  51              	.L2:
 106:freertos\src/heap_1.c **** 		}
 107:freertos\src/heap_1.c **** 	#endif
 108:freertos\src/heap_1.c **** 
 109:freertos\src/heap_1.c **** 	vTaskSuspendAll();
  52              		.loc 1 109 0
  53 000e FFF7FEFF 		bl	vTaskSuspendAll
  54              	.LVL2:
 110:freertos\src/heap_1.c **** 	{
 111:freertos\src/heap_1.c **** 		if( pucAlignedHeap == NULL )
  55              		.loc 1 111 0
  56 0012 0E4B     		ldr	r3, .L12
  57 0014 1A68     		ldr	r2, [r3]
  58 0016 002A     		cmp	r2, #0
ARM GAS  C:\Users\VIDEOH~1\AppData\Local\Temp\ccoXQSnH.s 			page 4


  59 0018 04D1     		bne	.L3
 112:freertos\src/heap_1.c **** 		{
 113:freertos\src/heap_1.c **** 			/* Ensure the heap starts on a correctly aligned boundary. */
 114:freertos\src/heap_1.c **** 			pucAlignedHeap = ( unsigned char * ) ( ( ( portPOINTER_SIZE_TYPE ) &ucHeap[ portBYTE_ALIGNMENT ]
  60              		.loc 1 114 0
  61 001a 1A00     		movs	r2, r3
  62 001c 0721     		movs	r1, #7
  63 001e 0C32     		adds	r2, r2, #12
  64 0020 8A43     		bics	r2, r1
  65 0022 1A60     		str	r2, [r3]
  66              	.L3:
 115:freertos\src/heap_1.c **** 		}
 116:freertos\src/heap_1.c **** 
 117:freertos\src/heap_1.c **** 		/* Check there is enough room left for the allocation. */
 118:freertos\src/heap_1.c **** 		if( ( ( xNextFreeByte + xWantedSize ) < configADJUSTED_HEAP_SIZE ) &&
  67              		.loc 1 118 0
  68 0024 0A49     		ldr	r1, .L12+4
  69 0026 0B48     		ldr	r0, .L12+8
  70 0028 4A68     		ldr	r2, [r1, #4]
  97:freertos\src/heap_1.c **** static unsigned char *pucAlignedHeap = NULL;
  71              		.loc 1 97 0
  72 002a 0025     		movs	r5, #0
  73              		.loc 1 118 0
  74 002c A418     		adds	r4, r4, r2
  75              	.LVL3:
  76 002e 8442     		cmp	r4, r0
  77 0030 04D8     		bhi	.L4
  78              		.loc 1 118 0 is_stmt 0 discriminator 1
  79 0032 A242     		cmp	r2, r4
  80 0034 02D2     		bcs	.L4
 119:freertos\src/heap_1.c **** 			( ( xNextFreeByte + xWantedSize ) > xNextFreeByte )	)/* Check for overflow. */
 120:freertos\src/heap_1.c **** 		{
 121:freertos\src/heap_1.c **** 			/* Return the next free byte then increment the index past this
 122:freertos\src/heap_1.c **** 			block. */
 123:freertos\src/heap_1.c **** 			pvReturn = pucAlignedHeap + xNextFreeByte;
  81              		.loc 1 123 0 is_stmt 1
  82 0036 1D68     		ldr	r5, [r3]
 124:freertos\src/heap_1.c **** 			xNextFreeByte += xWantedSize;
  83              		.loc 1 124 0
  84 0038 4C60     		str	r4, [r1, #4]
 123:freertos\src/heap_1.c **** 			xNextFreeByte += xWantedSize;
  85              		.loc 1 123 0
  86 003a AD18     		adds	r5, r5, r2
  87              	.LVL4:
  88              	.L4:
 125:freertos\src/heap_1.c **** 		}
 126:freertos\src/heap_1.c **** 
 127:freertos\src/heap_1.c **** 		traceMALLOC( pvReturn, xWantedSize );
 128:freertos\src/heap_1.c **** 	}	
 129:freertos\src/heap_1.c **** 	xTaskResumeAll();
  89              		.loc 1 129 0
  90 003c FFF7FEFF 		bl	xTaskResumeAll
  91              	.LVL5:
 130:freertos\src/heap_1.c **** 
 131:freertos\src/heap_1.c **** 	#if( configUSE_MALLOC_FAILED_HOOK == 1 )
 132:freertos\src/heap_1.c **** 	{
 133:freertos\src/heap_1.c **** 		if( pvReturn == NULL )
ARM GAS  C:\Users\VIDEOH~1\AppData\Local\Temp\ccoXQSnH.s 			page 5


  92              		.loc 1 133 0
  93 0040 002D     		cmp	r5, #0
  94 0042 01D1     		bne	.L5
  95              	.LVL6:
  96              	.LBB2:
 134:freertos\src/heap_1.c **** 		{
 135:freertos\src/heap_1.c **** 			extern void vApplicationMallocFailedHook( void );
 136:freertos\src/heap_1.c **** 			vApplicationMallocFailedHook();
  97              		.loc 1 136 0
  98 0044 FFF7FEFF 		bl	vApplicationMallocFailedHook
  99              	.LVL7:
 100              	.L5:
 101              	.LBE2:
 137:freertos\src/heap_1.c **** 		}
 138:freertos\src/heap_1.c **** 	}
 139:freertos\src/heap_1.c **** 	#endif
 140:freertos\src/heap_1.c **** 
 141:freertos\src/heap_1.c **** 	return pvReturn;
 142:freertos\src/heap_1.c **** }
 102              		.loc 1 142 0
 103 0048 2800     		movs	r0, r5
 104              		@ sp needed
 105 004a 70BD     		pop	{r4, r5, r6, pc}
 106              	.L13:
 107              		.align	2
 108              	.L12:
 109 004c 00000000 		.word	.LANCHOR0
 110 0050 80080000 		.word	.LANCHOR1
 111 0054 77080000 		.word	2167
 112              		.cfi_endproc
 113              	.LFE32:
 114              		.size	pvPortMalloc, .-pvPortMalloc
 115              		.section	.text.vPortFree,"ax",%progbits
 116              		.align	1
 117              		.global	vPortFree
 118              		.code	16
 119              		.thumb_func
 120              		.type	vPortFree, %function
 121              	vPortFree:
 122              	.LFB33:
 143:freertos\src/heap_1.c **** /*-----------------------------------------------------------*/
 144:freertos\src/heap_1.c **** 
 145:freertos\src/heap_1.c **** void vPortFree( void *pv )
 146:freertos\src/heap_1.c **** {
 123              		.loc 1 146 0
 124              		.cfi_startproc
 125              		@ args = 0, pretend = 0, frame = 0
 126              		@ frame_needed = 0, uses_anonymous_args = 0
 127              		@ link register save eliminated.
 128              	.LVL8:
 147:freertos\src/heap_1.c **** 	/* Memory cannot be freed using this scheme.  See heap_2.c, heap_3.c and
 148:freertos\src/heap_1.c **** 	heap_4.c for alternative implementations, and the memory management pages of
 149:freertos\src/heap_1.c **** 	http://www.FreeRTOS.org for more information. */
 150:freertos\src/heap_1.c **** 	( void ) pv;
 151:freertos\src/heap_1.c **** 
 152:freertos\src/heap_1.c **** 	/* Force an assert as it is invalid to call this function. */
 153:freertos\src/heap_1.c **** 	configASSERT( pv == NULL );
ARM GAS  C:\Users\VIDEOH~1\AppData\Local\Temp\ccoXQSnH.s 			page 6


 154:freertos\src/heap_1.c **** }
 129              		.loc 1 154 0
 130              		@ sp needed
 131 0000 7047     		bx	lr
 132              		.cfi_endproc
 133              	.LFE33:
 134              		.size	vPortFree, .-vPortFree
 135              		.section	.text.vPortInitialiseBlocks,"ax",%progbits
 136              		.align	1
 137              		.global	vPortInitialiseBlocks
 138              		.code	16
 139              		.thumb_func
 140              		.type	vPortInitialiseBlocks, %function
 141              	vPortInitialiseBlocks:
 142              	.LFB34:
 155:freertos\src/heap_1.c **** /*-----------------------------------------------------------*/
 156:freertos\src/heap_1.c **** 
 157:freertos\src/heap_1.c **** void vPortInitialiseBlocks( void )
 158:freertos\src/heap_1.c **** {
 143              		.loc 1 158 0
 144              		.cfi_startproc
 145              		@ args = 0, pretend = 0, frame = 0
 146              		@ frame_needed = 0, uses_anonymous_args = 0
 147              		@ link register save eliminated.
 159:freertos\src/heap_1.c **** 	/* Only required when static memory is not cleared. */
 160:freertos\src/heap_1.c **** 	xNextFreeByte = ( size_t ) 0;
 148              		.loc 1 160 0
 149 0000 0022     		movs	r2, #0
 150 0002 014B     		ldr	r3, .L16
 161:freertos\src/heap_1.c **** }
 151              		.loc 1 161 0
 152              		@ sp needed
 160:freertos\src/heap_1.c **** }
 153              		.loc 1 160 0
 154 0004 5A60     		str	r2, [r3, #4]
 155              		.loc 1 161 0
 156 0006 7047     		bx	lr
 157              	.L17:
 158              		.align	2
 159              	.L16:
 160 0008 80080000 		.word	.LANCHOR1
 161              		.cfi_endproc
 162              	.LFE34:
 163              		.size	vPortInitialiseBlocks, .-vPortInitialiseBlocks
 164              		.section	.text.xPortGetFreeHeapSize,"ax",%progbits
 165              		.align	1
 166              		.global	xPortGetFreeHeapSize
 167              		.code	16
 168              		.thumb_func
 169              		.type	xPortGetFreeHeapSize, %function
 170              	xPortGetFreeHeapSize:
 171              	.LFB35:
 162:freertos\src/heap_1.c **** /*-----------------------------------------------------------*/
 163:freertos\src/heap_1.c **** 
 164:freertos\src/heap_1.c **** size_t xPortGetFreeHeapSize( void )
 165:freertos\src/heap_1.c **** {
 172              		.loc 1 165 0
ARM GAS  C:\Users\VIDEOH~1\AppData\Local\Temp\ccoXQSnH.s 			page 7


 173              		.cfi_startproc
 174              		@ args = 0, pretend = 0, frame = 0
 175              		@ frame_needed = 0, uses_anonymous_args = 0
 176              		@ link register save eliminated.
 166:freertos\src/heap_1.c **** 	return ( configADJUSTED_HEAP_SIZE - xNextFreeByte );
 177              		.loc 1 166 0
 178 0000 024B     		ldr	r3, .L19
 167:freertos\src/heap_1.c **** }
 179              		.loc 1 167 0
 180              		@ sp needed
 166:freertos\src/heap_1.c **** 	return ( configADJUSTED_HEAP_SIZE - xNextFreeByte );
 181              		.loc 1 166 0
 182 0002 5868     		ldr	r0, [r3, #4]
 183 0004 024B     		ldr	r3, .L19+4
 184 0006 181A     		subs	r0, r3, r0
 185              		.loc 1 167 0
 186 0008 7047     		bx	lr
 187              	.L20:
 188 000a C046     		.align	2
 189              	.L19:
 190 000c 80080000 		.word	.LANCHOR1
 191 0010 78080000 		.word	2168
 192              		.cfi_endproc
 193              	.LFE35:
 194              		.size	xPortGetFreeHeapSize, .-xPortGetFreeHeapSize
 195              		.bss
 196              		.align	2
 197              		.set	.LANCHOR0,. + 0
 198              		.set	.LANCHOR1,. + 2176
 199              		.type	pucAlignedHeap.6578, %object
 200              		.size	pucAlignedHeap.6578, 4
 201              	pucAlignedHeap.6578:
 202 0000 00000000 		.space	4
 203              		.type	ucHeap, %object
 204              		.size	ucHeap, 2176
 205              	ucHeap:
 206 0004 00000000 		.space	2176
 206      00000000 
 206      00000000 
 206      00000000 
 206      00000000 
 207              		.type	xNextFreeByte, %object
 208              		.size	xNextFreeByte, 4
 209              	xNextFreeByte:
 210 0884 00000000 		.space	4
 211              		.text
 212              	.Letext0:
 213              		.file 2 ".\\freertos\\include/task.h"
 214              		.file 3 "c:\\program files (x86)\\cypress\\psoc creator\\4.2\\psoc creator\\import\\gnu\\arm\\5.4.