ARM GAS  C:\Users\VIDEOH~1\AppData\Local\Temp\ccZ0AMeH.s 			page 1


   1              		.syntax unified
   2              		.cpu cortex-m0
   3              		.fpu softvfp
   4              		.eabi_attribute 20, 1
   5              		.eabi_attribute 21, 1
   6              		.eabi_attribute 23, 3
   7              		.eabi_attribute 24, 1
   8              		.eabi_attribute 25, 1
   9              		.eabi_attribute 26, 1
  10              		.eabi_attribute 30, 1
  11              		.eabi_attribute 34, 0
  12              		.eabi_attribute 18, 4
  13              		.thumb
  14              		.syntax unified
  15              		.file	"IDAC_Low.c"
  16              		.text
  17              	.Ltext0:
  18              		.cfi_sections	.debug_frame
  19              		.section	.text.IDAC_Low_Init,"ax",%progbits
  20              		.align	2
  21              		.global	IDAC_Low_Init
  22              		.code	16
  23              		.thumb_func
  24              		.type	IDAC_Low_Init, %function
  25              	IDAC_Low_Init:
  26              	.LFB0:
  27              		.file 1 "Generated_Source\\PSoC4\\IDAC_Low.c"
   1:Generated_Source\PSoC4/IDAC_Low.c **** /*******************************************************************************
   2:Generated_Source\PSoC4/IDAC_Low.c **** * File Name: IDAC_Low.c
   3:Generated_Source\PSoC4/IDAC_Low.c **** * Version 1.10
   4:Generated_Source\PSoC4/IDAC_Low.c **** *
   5:Generated_Source\PSoC4/IDAC_Low.c **** * Description:
   6:Generated_Source\PSoC4/IDAC_Low.c **** *  This file provides the source code of APIs for the IDAC_P4 component.
   7:Generated_Source\PSoC4/IDAC_Low.c **** *
   8:Generated_Source\PSoC4/IDAC_Low.c **** *******************************************************************************
   9:Generated_Source\PSoC4/IDAC_Low.c **** * Copyright 2013-2015, Cypress Semiconductor Corporation.  All rights reserved.
  10:Generated_Source\PSoC4/IDAC_Low.c **** * You may use this file only in accordance with the license, terms, conditions,
  11:Generated_Source\PSoC4/IDAC_Low.c **** * disclaimers, and limitations in the end user license agreement accompanying
  12:Generated_Source\PSoC4/IDAC_Low.c **** * the software package with which this file was provided.
  13:Generated_Source\PSoC4/IDAC_Low.c **** *******************************************************************************/
  14:Generated_Source\PSoC4/IDAC_Low.c **** 
  15:Generated_Source\PSoC4/IDAC_Low.c **** #include "IDAC_Low.h"
  16:Generated_Source\PSoC4/IDAC_Low.c **** 
  17:Generated_Source\PSoC4/IDAC_Low.c **** uint32 IDAC_Low_initVar = 0u;
  18:Generated_Source\PSoC4/IDAC_Low.c **** 
  19:Generated_Source\PSoC4/IDAC_Low.c **** 
  20:Generated_Source\PSoC4/IDAC_Low.c **** /*******************************************************************************
  21:Generated_Source\PSoC4/IDAC_Low.c **** * Function Name: IDAC_Low_Init
  22:Generated_Source\PSoC4/IDAC_Low.c **** ********************************************************************************
  23:Generated_Source\PSoC4/IDAC_Low.c **** *
  24:Generated_Source\PSoC4/IDAC_Low.c **** * Summary:
  25:Generated_Source\PSoC4/IDAC_Low.c **** *  Initializes IDAC registers with initial values provided from customizer.
  26:Generated_Source\PSoC4/IDAC_Low.c **** *
  27:Generated_Source\PSoC4/IDAC_Low.c **** * Parameters:
  28:Generated_Source\PSoC4/IDAC_Low.c **** *  None
  29:Generated_Source\PSoC4/IDAC_Low.c **** *
  30:Generated_Source\PSoC4/IDAC_Low.c **** * Return:
ARM GAS  C:\Users\VIDEOH~1\AppData\Local\Temp\ccZ0AMeH.s 			page 2


  31:Generated_Source\PSoC4/IDAC_Low.c **** *  None
  32:Generated_Source\PSoC4/IDAC_Low.c **** *
  33:Generated_Source\PSoC4/IDAC_Low.c **** * Global variables:
  34:Generated_Source\PSoC4/IDAC_Low.c **** *  None
  35:Generated_Source\PSoC4/IDAC_Low.c **** *
  36:Generated_Source\PSoC4/IDAC_Low.c **** *******************************************************************************/
  37:Generated_Source\PSoC4/IDAC_Low.c **** void IDAC_Low_Init(void)
  38:Generated_Source\PSoC4/IDAC_Low.c **** {
  28              		.loc 1 38 0
  29              		.cfi_startproc
  30              		@ args = 0, pretend = 0, frame = 0
  31              		@ frame_needed = 0, uses_anonymous_args = 0
  32 0000 10B5     		push	{r4, lr}
  33              		.cfi_def_cfa_offset 8
  34              		.cfi_offset 4, -8
  35              		.cfi_offset 14, -4
  39:Generated_Source\PSoC4/IDAC_Low.c ****     uint32 regVal;
  40:Generated_Source\PSoC4/IDAC_Low.c ****     uint8 enableInterrupts;
  41:Generated_Source\PSoC4/IDAC_Low.c **** 
  42:Generated_Source\PSoC4/IDAC_Low.c ****     /* Set initial configuration */
  43:Generated_Source\PSoC4/IDAC_Low.c ****     enableInterrupts = CyEnterCriticalSection();
  36              		.loc 1 43 0
  37 0002 FFF7FEFF 		bl	CyEnterCriticalSection
  38              	.LVL0:
  44:Generated_Source\PSoC4/IDAC_Low.c ****     
  45:Generated_Source\PSoC4/IDAC_Low.c ****     #if(IDAC_Low_MODE_SOURCE == IDAC_Low_IDAC_POLARITY)
  46:Generated_Source\PSoC4/IDAC_Low.c ****         regVal  = IDAC_Low_CSD_TRIM1_REG & ~(IDAC_Low_CSD_IDAC_TRIM1_MASK);
  39              		.loc 1 46 0
  40 0006 0E49     		ldr	r1, .L2
  41 0008 0B68     		ldr	r3, [r1]
  42 000a F022     		movs	r2, #240
  43 000c 9343     		bics	r3, r2
  44 000e 1A00     		movs	r2, r3
  45              	.LVL1:
  47:Generated_Source\PSoC4/IDAC_Low.c ****         regVal |=  (IDAC_Low_SFLASH_TRIM1_REG & IDAC_Low_CSD_IDAC_TRIM1_MASK);
  46              		.loc 1 47 0
  47 0010 0C4B     		ldr	r3, .L2+4
  48 0012 1B78     		ldrb	r3, [r3]
  49 0014 0F24     		movs	r4, #15
  50 0016 A343     		bics	r3, r4
  51 0018 1343     		orrs	r3, r2
  52              	.LVL2:
  48:Generated_Source\PSoC4/IDAC_Low.c ****         IDAC_Low_CSD_TRIM1_REG = regVal;
  53              		.loc 1 48 0
  54 001a 0B60     		str	r3, [r1]
  49:Generated_Source\PSoC4/IDAC_Low.c ****     #else
  50:Generated_Source\PSoC4/IDAC_Low.c ****         regVal  = IDAC_Low_CSD_TRIM2_REG & ~(IDAC_Low_CSD_IDAC_TRIM2_MASK);
  51:Generated_Source\PSoC4/IDAC_Low.c ****         regVal |=  (IDAC_Low_SFLASH_TRIM2_REG & IDAC_Low_CSD_IDAC_TRIM2_MASK);
  52:Generated_Source\PSoC4/IDAC_Low.c ****         IDAC_Low_CSD_TRIM2_REG = regVal;
  53:Generated_Source\PSoC4/IDAC_Low.c ****     #endif /* (IDAC_Low_MODE_SOURCE == IDAC_Low_IDAC_POLARITY) */
  54:Generated_Source\PSoC4/IDAC_Low.c **** 
  55:Generated_Source\PSoC4/IDAC_Low.c ****     /* clear previous values */
  56:Generated_Source\PSoC4/IDAC_Low.c ****     IDAC_Low_IDAC_CONTROL_REG &= ((uint32)~((uint32)IDAC_Low_IDAC_VALUE_MASK <<
  55              		.loc 1 56 0
  56 001c 0A4A     		ldr	r2, .L2+8
  57 001e 1368     		ldr	r3, [r2]
  58              	.LVL3:
ARM GAS  C:\Users\VIDEOH~1\AppData\Local\Temp\ccZ0AMeH.s 			page 3


  59 0020 1360     		str	r3, [r2]
  60              	.LVL4:
  57:Generated_Source\PSoC4/IDAC_Low.c ****         IDAC_Low_IDAC_VALUE_POSITION)) | ((uint32)~((uint32)IDAC_Low_IDAC_MODE_MASK <<
  58:Generated_Source\PSoC4/IDAC_Low.c ****         IDAC_Low_IDAC_MODE_POSITION))  | ((uint32)~((uint32)IDAC_Low_IDAC_RANGE_MASK  <<
  59:Generated_Source\PSoC4/IDAC_Low.c ****         IDAC_Low_IDAC_RANGE_POSITION));
  60:Generated_Source\PSoC4/IDAC_Low.c **** 
  61:Generated_Source\PSoC4/IDAC_Low.c ****     IDAC_Low_IDAC_POLARITY_CONTROL_REG &= (~(uint32)((uint32)IDAC_Low_IDAC_POLARITY_MASK <<
  61              		.loc 1 61 0
  62 0022 0A4B     		ldr	r3, .L2+12
  63 0024 1C68     		ldr	r4, [r3]
  64 0026 0A49     		ldr	r1, .L2+16
  65 0028 2140     		ands	r1, r4
  66 002a 1960     		str	r1, [r3]
  62:Generated_Source\PSoC4/IDAC_Low.c ****         IDAC_Low_IDAC_POLARITY_POSITION));
  63:Generated_Source\PSoC4/IDAC_Low.c **** 
  64:Generated_Source\PSoC4/IDAC_Low.c ****     /* set new configuration */
  65:Generated_Source\PSoC4/IDAC_Low.c ****     IDAC_Low_IDAC_CONTROL_REG |= (((uint32)IDAC_Low_IDAC_INIT_VALUE <<
  67              		.loc 1 65 0
  68 002c 1168     		ldr	r1, [r2]
  69 002e F024     		movs	r4, #240
  70 0030 E403     		lsls	r4, r4, #15
  71 0032 2143     		orrs	r1, r4
  72 0034 1160     		str	r1, [r2]
  66:Generated_Source\PSoC4/IDAC_Low.c ****         IDAC_Low_IDAC_VALUE_POSITION) | ((uint32)IDAC_Low_IDAC_RANGE <<
  67:Generated_Source\PSoC4/IDAC_Low.c ****         IDAC_Low_IDAC_RANGE_POSITION));
  68:Generated_Source\PSoC4/IDAC_Low.c **** 
  69:Generated_Source\PSoC4/IDAC_Low.c ****     IDAC_Low_IDAC_POLARITY_CONTROL_REG |= ((uint32)IDAC_Low_IDAC_POLARITY <<
  73              		.loc 1 69 0
  74 0036 1A68     		ldr	r2, [r3]
  75 0038 1A60     		str	r2, [r3]
  70:Generated_Source\PSoC4/IDAC_Low.c ****                                                            IDAC_Low_IDAC_POLARITY_POSITION);
  71:Generated_Source\PSoC4/IDAC_Low.c **** 
  72:Generated_Source\PSoC4/IDAC_Low.c ****     CyExitCriticalSection(enableInterrupts);
  76              		.loc 1 72 0
  77 003a FFF7FEFF 		bl	CyExitCriticalSection
  78              	.LVL5:
  73:Generated_Source\PSoC4/IDAC_Low.c **** 
  74:Generated_Source\PSoC4/IDAC_Low.c **** }
  79              		.loc 1 74 0
  80              		@ sp needed
  81 003e 10BD     		pop	{r4, pc}
  82              	.L3:
  83              		.align	2
  84              	.L2:
  85 0040 00FF0840 		.word	1074331392
  86 0044 60F1FF0F 		.word	268431712
  87 0048 08000840 		.word	1074266120
  88 004c 04000840 		.word	1074266116
  89 0050 FFFFFDFF 		.word	-131073
  90              		.cfi_endproc
  91              	.LFE0:
  92              		.size	IDAC_Low_Init, .-IDAC_Low_Init
  93              		.section	.text.IDAC_Low_Enable,"ax",%progbits
  94              		.align	2
  95              		.global	IDAC_Low_Enable
  96              		.code	16
  97              		.thumb_func
ARM GAS  C:\Users\VIDEOH~1\AppData\Local\Temp\ccZ0AMeH.s 			page 4


  98              		.type	IDAC_Low_Enable, %function
  99              	IDAC_Low_Enable:
 100              	.LFB1:
  75:Generated_Source\PSoC4/IDAC_Low.c **** 
  76:Generated_Source\PSoC4/IDAC_Low.c **** 
  77:Generated_Source\PSoC4/IDAC_Low.c **** /*******************************************************************************
  78:Generated_Source\PSoC4/IDAC_Low.c **** * Function Name: IDAC_Low_Enable
  79:Generated_Source\PSoC4/IDAC_Low.c **** ********************************************************************************
  80:Generated_Source\PSoC4/IDAC_Low.c **** *
  81:Generated_Source\PSoC4/IDAC_Low.c **** * Summary:
  82:Generated_Source\PSoC4/IDAC_Low.c **** *  Enables IDAC operations.
  83:Generated_Source\PSoC4/IDAC_Low.c **** *
  84:Generated_Source\PSoC4/IDAC_Low.c **** * Parameters:
  85:Generated_Source\PSoC4/IDAC_Low.c **** *  None
  86:Generated_Source\PSoC4/IDAC_Low.c **** *
  87:Generated_Source\PSoC4/IDAC_Low.c **** * Return:
  88:Generated_Source\PSoC4/IDAC_Low.c **** *  None
  89:Generated_Source\PSoC4/IDAC_Low.c **** *
  90:Generated_Source\PSoC4/IDAC_Low.c **** * Global variables:
  91:Generated_Source\PSoC4/IDAC_Low.c **** *  None
  92:Generated_Source\PSoC4/IDAC_Low.c **** *
  93:Generated_Source\PSoC4/IDAC_Low.c **** *******************************************************************************/
  94:Generated_Source\PSoC4/IDAC_Low.c **** void IDAC_Low_Enable(void)
  95:Generated_Source\PSoC4/IDAC_Low.c **** {
 101              		.loc 1 95 0
 102              		.cfi_startproc
 103              		@ args = 0, pretend = 0, frame = 0
 104              		@ frame_needed = 0, uses_anonymous_args = 0
 105 0000 10B5     		push	{r4, lr}
 106              		.cfi_def_cfa_offset 8
 107              		.cfi_offset 4, -8
 108              		.cfi_offset 14, -4
  96:Generated_Source\PSoC4/IDAC_Low.c ****     uint8 enableInterrupts;
  97:Generated_Source\PSoC4/IDAC_Low.c **** 
  98:Generated_Source\PSoC4/IDAC_Low.c ****     enableInterrupts = CyEnterCriticalSection();
 109              		.loc 1 98 0
 110 0002 FFF7FEFF 		bl	CyEnterCriticalSection
 111              	.LVL6:
  99:Generated_Source\PSoC4/IDAC_Low.c **** 
 100:Generated_Source\PSoC4/IDAC_Low.c ****     /* Enable the IDAC */
 101:Generated_Source\PSoC4/IDAC_Low.c ****     IDAC_Low_IDAC_CONTROL_REG |= ((uint32)IDAC_Low_IDAC_EN_MODE <<
 112              		.loc 1 101 0
 113 0006 074A     		ldr	r2, .L5
 114 0008 1368     		ldr	r3, [r2]
 115 000a C021     		movs	r1, #192
 116 000c 8904     		lsls	r1, r1, #18
 117 000e 0B43     		orrs	r3, r1
 118 0010 1360     		str	r3, [r2]
 102:Generated_Source\PSoC4/IDAC_Low.c ****                                                   IDAC_Low_IDAC_MODE_POSITION);
 103:Generated_Source\PSoC4/IDAC_Low.c ****     IDAC_Low_IDAC_POLARITY_CONTROL_REG |= ((uint32)IDAC_Low_IDAC_CSD_EN <<
 119              		.loc 1 103 0
 120 0012 054A     		ldr	r2, .L5+4
 121 0014 1368     		ldr	r3, [r2]
 122 0016 8021     		movs	r1, #128
 123 0018 0906     		lsls	r1, r1, #24
 124 001a 0B43     		orrs	r3, r1
 125 001c 1360     		str	r3, [r2]
ARM GAS  C:\Users\VIDEOH~1\AppData\Local\Temp\ccZ0AMeH.s 			page 5


 104:Generated_Source\PSoC4/IDAC_Low.c ****                                                            IDAC_Low_IDAC_CSD_EN_POSITION);
 105:Generated_Source\PSoC4/IDAC_Low.c ****     CyExitCriticalSection(enableInterrupts);
 126              		.loc 1 105 0
 127 001e FFF7FEFF 		bl	CyExitCriticalSection
 128              	.LVL7:
 106:Generated_Source\PSoC4/IDAC_Low.c **** 
 107:Generated_Source\PSoC4/IDAC_Low.c **** }
 129              		.loc 1 107 0
 130              		@ sp needed
 131 0022 10BD     		pop	{r4, pc}
 132              	.L6:
 133              		.align	2
 134              	.L5:
 135 0024 08000840 		.word	1074266120
 136 0028 04000840 		.word	1074266116
 137              		.cfi_endproc
 138              	.LFE1:
 139              		.size	IDAC_Low_Enable, .-IDAC_Low_Enable
 140              		.section	.text.IDAC_Low_Start,"ax",%progbits
 141              		.align	2
 142              		.global	IDAC_Low_Start
 143              		.code	16
 144              		.thumb_func
 145              		.type	IDAC_Low_Start, %function
 146              	IDAC_Low_Start:
 147              	.LFB2:
 108:Generated_Source\PSoC4/IDAC_Low.c **** 
 109:Generated_Source\PSoC4/IDAC_Low.c **** 
 110:Generated_Source\PSoC4/IDAC_Low.c **** /*******************************************************************************
 111:Generated_Source\PSoC4/IDAC_Low.c **** * Function Name: IDAC_Low_Start
 112:Generated_Source\PSoC4/IDAC_Low.c **** ********************************************************************************
 113:Generated_Source\PSoC4/IDAC_Low.c **** *
 114:Generated_Source\PSoC4/IDAC_Low.c **** * Summary:
 115:Generated_Source\PSoC4/IDAC_Low.c **** *  Starts the IDAC hardware.
 116:Generated_Source\PSoC4/IDAC_Low.c **** *
 117:Generated_Source\PSoC4/IDAC_Low.c **** * Parameters:
 118:Generated_Source\PSoC4/IDAC_Low.c **** *  None
 119:Generated_Source\PSoC4/IDAC_Low.c **** *
 120:Generated_Source\PSoC4/IDAC_Low.c **** * Return:
 121:Generated_Source\PSoC4/IDAC_Low.c **** *  None
 122:Generated_Source\PSoC4/IDAC_Low.c **** *
 123:Generated_Source\PSoC4/IDAC_Low.c **** * Global variables:
 124:Generated_Source\PSoC4/IDAC_Low.c **** *  IDAC_Low_initVar
 125:Generated_Source\PSoC4/IDAC_Low.c **** *
 126:Generated_Source\PSoC4/IDAC_Low.c **** *******************************************************************************/
 127:Generated_Source\PSoC4/IDAC_Low.c **** void IDAC_Low_Start(void)
 128:Generated_Source\PSoC4/IDAC_Low.c **** {
 148              		.loc 1 128 0
 149              		.cfi_startproc
 150              		@ args = 0, pretend = 0, frame = 0
 151              		@ frame_needed = 0, uses_anonymous_args = 0
 152 0000 10B5     		push	{r4, lr}
 153              		.cfi_def_cfa_offset 8
 154              		.cfi_offset 4, -8
 155              		.cfi_offset 14, -4
 129:Generated_Source\PSoC4/IDAC_Low.c ****     if(0u == IDAC_Low_initVar)
 156              		.loc 1 129 0
ARM GAS  C:\Users\VIDEOH~1\AppData\Local\Temp\ccZ0AMeH.s 			page 6


 157 0002 064B     		ldr	r3, .L9
 158 0004 1B68     		ldr	r3, [r3]
 159 0006 002B     		cmp	r3, #0
 160 0008 04D1     		bne	.L8
 130:Generated_Source\PSoC4/IDAC_Low.c ****     {
 131:Generated_Source\PSoC4/IDAC_Low.c ****         IDAC_Low_Init();
 161              		.loc 1 131 0
 162 000a FFF7FEFF 		bl	IDAC_Low_Init
 163              	.LVL8:
 132:Generated_Source\PSoC4/IDAC_Low.c ****         IDAC_Low_initVar = 1u;
 164              		.loc 1 132 0
 165 000e 0122     		movs	r2, #1
 166 0010 024B     		ldr	r3, .L9
 167 0012 1A60     		str	r2, [r3]
 168              	.L8:
 133:Generated_Source\PSoC4/IDAC_Low.c ****     }
 134:Generated_Source\PSoC4/IDAC_Low.c **** 
 135:Generated_Source\PSoC4/IDAC_Low.c ****     IDAC_Low_Enable();
 169              		.loc 1 135 0
 170 0014 FFF7FEFF 		bl	IDAC_Low_Enable
 171              	.LVL9:
 136:Generated_Source\PSoC4/IDAC_Low.c **** 
 137:Generated_Source\PSoC4/IDAC_Low.c **** }
 172              		.loc 1 137 0
 173              		@ sp needed
 174 0018 10BD     		pop	{r4, pc}
 175              	.L10:
 176 001a C046     		.align	2
 177              	.L9:
 178 001c 00000000 		.word	.LANCHOR0
 179              		.cfi_endproc
 180              	.LFE2:
 181              		.size	IDAC_Low_Start, .-IDAC_Low_Start
 182              		.section	.text.IDAC_Low_Stop,"ax",%progbits
 183              		.align	2
 184              		.global	IDAC_Low_Stop
 185              		.code	16
 186              		.thumb_func
 187              		.type	IDAC_Low_Stop, %function
 188              	IDAC_Low_Stop:
 189              	.LFB3:
 138:Generated_Source\PSoC4/IDAC_Low.c **** 
 139:Generated_Source\PSoC4/IDAC_Low.c **** 
 140:Generated_Source\PSoC4/IDAC_Low.c **** /*******************************************************************************
 141:Generated_Source\PSoC4/IDAC_Low.c **** * Function Name: IDAC_Low_Stop
 142:Generated_Source\PSoC4/IDAC_Low.c **** ********************************************************************************
 143:Generated_Source\PSoC4/IDAC_Low.c **** *
 144:Generated_Source\PSoC4/IDAC_Low.c **** * Summary:
 145:Generated_Source\PSoC4/IDAC_Low.c **** *  Stops the IDAC hardware.
 146:Generated_Source\PSoC4/IDAC_Low.c **** *
 147:Generated_Source\PSoC4/IDAC_Low.c **** * Parameters:
 148:Generated_Source\PSoC4/IDAC_Low.c **** *  None
 149:Generated_Source\PSoC4/IDAC_Low.c **** *
 150:Generated_Source\PSoC4/IDAC_Low.c **** * Return:
 151:Generated_Source\PSoC4/IDAC_Low.c **** *  None
 152:Generated_Source\PSoC4/IDAC_Low.c **** *
 153:Generated_Source\PSoC4/IDAC_Low.c **** * Global variables:
ARM GAS  C:\Users\VIDEOH~1\AppData\Local\Temp\ccZ0AMeH.s 			page 7


 154:Generated_Source\PSoC4/IDAC_Low.c **** *  None
 155:Generated_Source\PSoC4/IDAC_Low.c **** *
 156:Generated_Source\PSoC4/IDAC_Low.c **** *******************************************************************************/
 157:Generated_Source\PSoC4/IDAC_Low.c **** void IDAC_Low_Stop(void)
 158:Generated_Source\PSoC4/IDAC_Low.c **** {
 190              		.loc 1 158 0
 191              		.cfi_startproc
 192              		@ args = 0, pretend = 0, frame = 0
 193              		@ frame_needed = 0, uses_anonymous_args = 0
 194 0000 10B5     		push	{r4, lr}
 195              		.cfi_def_cfa_offset 8
 196              		.cfi_offset 4, -8
 197              		.cfi_offset 14, -4
 159:Generated_Source\PSoC4/IDAC_Low.c ****     uint8 enableInterrupts;
 160:Generated_Source\PSoC4/IDAC_Low.c **** 
 161:Generated_Source\PSoC4/IDAC_Low.c ****     enableInterrupts = CyEnterCriticalSection();
 198              		.loc 1 161 0
 199 0002 FFF7FEFF 		bl	CyEnterCriticalSection
 200              	.LVL10:
 162:Generated_Source\PSoC4/IDAC_Low.c **** 
 163:Generated_Source\PSoC4/IDAC_Low.c ****     /* Disable the IDAC */
 164:Generated_Source\PSoC4/IDAC_Low.c ****     IDAC_Low_IDAC_CONTROL_REG &= ((uint32)~((uint32)IDAC_Low_IDAC_MODE_MASK <<
 201              		.loc 1 164 0
 202 0006 044A     		ldr	r2, .L12
 203 0008 1168     		ldr	r1, [r2]
 204 000a 044B     		ldr	r3, .L12+4
 205 000c 0B40     		ands	r3, r1
 206 000e 1360     		str	r3, [r2]
 165:Generated_Source\PSoC4/IDAC_Low.c ****         IDAC_Low_IDAC_MODE_POSITION));
 166:Generated_Source\PSoC4/IDAC_Low.c ****     CyExitCriticalSection(enableInterrupts);
 207              		.loc 1 166 0
 208 0010 FFF7FEFF 		bl	CyExitCriticalSection
 209              	.LVL11:
 167:Generated_Source\PSoC4/IDAC_Low.c **** }
 210              		.loc 1 167 0
 211              		@ sp needed
 212 0014 10BD     		pop	{r4, pc}
 213              	.L13:
 214 0016 C046     		.align	2
 215              	.L12:
 216 0018 08000840 		.word	1074266120
 217 001c FFFFFFFC 		.word	-50331649
 218              		.cfi_endproc
 219              	.LFE3:
 220              		.size	IDAC_Low_Stop, .-IDAC_Low_Stop
 221              		.section	.text.IDAC_Low_SetValue,"ax",%progbits
 222              		.align	2
 223              		.global	IDAC_Low_SetValue
 224              		.code	16
 225              		.thumb_func
 226              		.type	IDAC_Low_SetValue, %function
 227              	IDAC_Low_SetValue:
 228              	.LFB4:
 168:Generated_Source\PSoC4/IDAC_Low.c **** 
 169:Generated_Source\PSoC4/IDAC_Low.c **** 
 170:Generated_Source\PSoC4/IDAC_Low.c **** /*******************************************************************************
 171:Generated_Source\PSoC4/IDAC_Low.c **** * Function Name: IDAC_Low_SetValue
ARM GAS  C:\Users\VIDEOH~1\AppData\Local\Temp\ccZ0AMeH.s 			page 8


 172:Generated_Source\PSoC4/IDAC_Low.c **** ********************************************************************************
 173:Generated_Source\PSoC4/IDAC_Low.c **** *
 174:Generated_Source\PSoC4/IDAC_Low.c **** * Summary:
 175:Generated_Source\PSoC4/IDAC_Low.c **** *  Sets the IDAC value.
 176:Generated_Source\PSoC4/IDAC_Low.c **** *
 177:Generated_Source\PSoC4/IDAC_Low.c **** * Parameters:
 178:Generated_Source\PSoC4/IDAC_Low.c **** *  uint32 value
 179:Generated_Source\PSoC4/IDAC_Low.c **** *
 180:Generated_Source\PSoC4/IDAC_Low.c **** * Return:
 181:Generated_Source\PSoC4/IDAC_Low.c **** *  None
 182:Generated_Source\PSoC4/IDAC_Low.c **** *
 183:Generated_Source\PSoC4/IDAC_Low.c **** * Global variables:
 184:Generated_Source\PSoC4/IDAC_Low.c **** *  None
 185:Generated_Source\PSoC4/IDAC_Low.c **** *
 186:Generated_Source\PSoC4/IDAC_Low.c **** *******************************************************************************/
 187:Generated_Source\PSoC4/IDAC_Low.c **** void IDAC_Low_SetValue(uint32 value)
 188:Generated_Source\PSoC4/IDAC_Low.c **** {
 229              		.loc 1 188 0
 230              		.cfi_startproc
 231              		@ args = 0, pretend = 0, frame = 0
 232              		@ frame_needed = 0, uses_anonymous_args = 0
 233              	.LVL12:
 234 0000 10B5     		push	{r4, lr}
 235              		.cfi_def_cfa_offset 8
 236              		.cfi_offset 4, -8
 237              		.cfi_offset 14, -4
 238 0002 0400     		movs	r4, r0
 189:Generated_Source\PSoC4/IDAC_Low.c ****     uint8 enableInterrupts;
 190:Generated_Source\PSoC4/IDAC_Low.c ****     uint32 newRegisterValue;
 191:Generated_Source\PSoC4/IDAC_Low.c **** 
 192:Generated_Source\PSoC4/IDAC_Low.c ****     enableInterrupts = CyEnterCriticalSection();
 239              		.loc 1 192 0
 240 0004 FFF7FEFF 		bl	CyEnterCriticalSection
 241              	.LVL13:
 193:Generated_Source\PSoC4/IDAC_Low.c **** 
 194:Generated_Source\PSoC4/IDAC_Low.c ****     #if(IDAC_Low_IDAC_VALUE_POSITION != 0u)
 195:Generated_Source\PSoC4/IDAC_Low.c ****         newRegisterValue = ((IDAC_Low_IDAC_CONTROL_REG & (~(uint32)((uint32)IDAC_Low_IDAC_VALUE_MAS
 242              		.loc 1 195 0
 243 0008 044A     		ldr	r2, .L15
 244 000a 1168     		ldr	r1, [r2]
 245 000c 044B     		ldr	r3, .L15+4
 246 000e 0B40     		ands	r3, r1
 196:Generated_Source\PSoC4/IDAC_Low.c ****         IDAC_Low_IDAC_VALUE_POSITION))) | (value << IDAC_Low_IDAC_VALUE_POSITION));
 247              		.loc 1 196 0
 248 0010 2404     		lsls	r4, r4, #16
 249              	.LVL14:
 195:Generated_Source\PSoC4/IDAC_Low.c ****         IDAC_Low_IDAC_VALUE_POSITION))) | (value << IDAC_Low_IDAC_VALUE_POSITION));
 250              		.loc 1 195 0
 251 0012 1C43     		orrs	r4, r3
 252              	.LVL15:
 197:Generated_Source\PSoC4/IDAC_Low.c ****     #else
 198:Generated_Source\PSoC4/IDAC_Low.c ****         newRegisterValue = ((IDAC_Low_IDAC_CONTROL_REG & (~(uint32)IDAC_Low_IDAC_VALUE_MASK)) | val
 199:Generated_Source\PSoC4/IDAC_Low.c ****     #endif /* IDAC_Low_IDAC_VALUE_POSITION != 0u */
 200:Generated_Source\PSoC4/IDAC_Low.c **** 
 201:Generated_Source\PSoC4/IDAC_Low.c ****     IDAC_Low_IDAC_CONTROL_REG = newRegisterValue;
 253              		.loc 1 201 0
 254 0014 1460     		str	r4, [r2]
ARM GAS  C:\Users\VIDEOH~1\AppData\Local\Temp\ccZ0AMeH.s 			page 9


 202:Generated_Source\PSoC4/IDAC_Low.c **** 
 203:Generated_Source\PSoC4/IDAC_Low.c ****     CyExitCriticalSection(enableInterrupts);
 255              		.loc 1 203 0
 256 0016 FFF7FEFF 		bl	CyExitCriticalSection
 257              	.LVL16:
 204:Generated_Source\PSoC4/IDAC_Low.c **** }
 258              		.loc 1 204 0
 259              		@ sp needed
 260              	.LVL17:
 261 001a 10BD     		pop	{r4, pc}
 262              	.L16:
 263              		.align	2
 264              	.L15:
 265 001c 08000840 		.word	1074266120
 266 0020 FFFF80FF 		.word	-8323073
 267              		.cfi_endproc
 268              	.LFE4:
 269              		.size	IDAC_Low_SetValue, .-IDAC_Low_SetValue
 270              		.global	IDAC_Low_initVar
 271              		.bss
 272              		.align	2
 273              		.set	.LANCHOR0,. + 0
 274              		.type	IDAC_Low_initVar, %object
 275              		.size	IDAC_Low_initVar, 4
 276              	IDAC_Low_initVar:
 277 0000 00000000 		.space	4
 278              		.text
 279              	.Letext0:
 280              		.file 2 "Generated_Source\\PSoC4\\cytypes.h"
 281              		.file 3 "Generated_Source\\PSoC4\\CyLib.h"