ARM GAS  C:\Users\VIDEOH~1\AppData\Local\Temp\ccmqp9Ih.s 			page 1


   1              		.syntax unified
   2              		.cpu cortex-m0
   3              		.fpu softvfp
   4              		.eabi_attribute 20, 1
   5              		.eabi_attribute 21, 1
   6              		.eabi_attribute 23, 3
   7              		.eabi_attribute 24, 1
   8              		.eabi_attribute 25, 1
   9              		.eabi_attribute 26, 1
  10              		.eabi_attribute 30, 4
  11              		.eabi_attribute 34, 0
  12              		.eabi_attribute 18, 4
  13              		.thumb
  14              		.syntax unified
  15              		.file	"port.c"
  16              		.text
  17              	.Ltext0:
  18              		.cfi_sections	.debug_frame
  19              		.section	.text.prvTaskExitError,"ax",%progbits
  20              		.align	1
  21              		.code	16
  22              		.thumb_func
  23              		.type	prvTaskExitError, %function
  24              	prvTaskExitError:
  25              	.LFB33:
  26              		.file 1 "freertos\\src\\port.c"
   1:freertos\src/port.c **** /*
   2:freertos\src/port.c ****     FreeRTOS V7.6.0 - Copyright (C) 2013 Real Time Engineers Ltd.
   3:freertos\src/port.c ****     All rights reserved
   4:freertos\src/port.c **** 
   5:freertos\src/port.c ****     VISIT http://www.FreeRTOS.org TO ENSURE YOU ARE USING THE LATEST VERSION.
   6:freertos\src/port.c **** 
   7:freertos\src/port.c ****     ***************************************************************************
   8:freertos\src/port.c ****      *                                                                       *
   9:freertos\src/port.c ****      *    FreeRTOS provides completely free yet professionally developed,    *
  10:freertos\src/port.c ****      *    robust, strictly quality controlled, supported, and cross          *
  11:freertos\src/port.c ****      *    platform software that has become a de facto standard.             *
  12:freertos\src/port.c ****      *                                                                       *
  13:freertos\src/port.c ****      *    Help yourself get started quickly and support the FreeRTOS         *
  14:freertos\src/port.c ****      *    project by purchasing a FreeRTOS tutorial book, reference          *
  15:freertos\src/port.c ****      *    manual, or both from: http://www.FreeRTOS.org/Documentation        *
  16:freertos\src/port.c ****      *                                                                       *
  17:freertos\src/port.c ****      *    Thank you!                                                         *
  18:freertos\src/port.c ****      *                                                                       *
  19:freertos\src/port.c ****     ***************************************************************************
  20:freertos\src/port.c **** 
  21:freertos\src/port.c ****     This file is part of the FreeRTOS distribution.
  22:freertos\src/port.c **** 
  23:freertos\src/port.c ****     FreeRTOS is free software; you can redistribute it and/or modify it under
  24:freertos\src/port.c ****     the terms of the GNU General Public License (version 2) as published by the
  25:freertos\src/port.c ****     Free Software Foundation >>!AND MODIFIED BY!<< the FreeRTOS exception.
  26:freertos\src/port.c **** 
  27:freertos\src/port.c ****     >>! NOTE: The modification to the GPL is included to allow you to distribute
  28:freertos\src/port.c ****     >>! a combined work that includes FreeRTOS without being obliged to provide
  29:freertos\src/port.c ****     >>! the source code for proprietary components outside of the FreeRTOS
  30:freertos\src/port.c ****     >>! kernel.
  31:freertos\src/port.c **** 
ARM GAS  C:\Users\VIDEOH~1\AppData\Local\Temp\ccmqp9Ih.s 			page 2


  32:freertos\src/port.c ****     FreeRTOS is distributed in the hope that it will be useful, but WITHOUT ANY
  33:freertos\src/port.c ****     WARRANTY; without even the implied warranty of MERCHANTABILITY or FITNESS
  34:freertos\src/port.c ****     FOR A PARTICULAR PURPOSE.  Full license text is available from the following
  35:freertos\src/port.c ****     link: http://www.freertos.org/a00114.html
  36:freertos\src/port.c **** 
  37:freertos\src/port.c ****     1 tab == 4 spaces!
  38:freertos\src/port.c **** 
  39:freertos\src/port.c ****     ***************************************************************************
  40:freertos\src/port.c ****      *                                                                       *
  41:freertos\src/port.c ****      *    Having a problem?  Start by reading the FAQ "My application does   *
  42:freertos\src/port.c ****      *    not run, what could be wrong?"                                     *
  43:freertos\src/port.c ****      *                                                                       *
  44:freertos\src/port.c ****      *    http://www.FreeRTOS.org/FAQHelp.html                               *
  45:freertos\src/port.c ****      *                                                                       *
  46:freertos\src/port.c ****     ***************************************************************************
  47:freertos\src/port.c **** 
  48:freertos\src/port.c ****     http://www.FreeRTOS.org - Documentation, books, training, latest versions,
  49:freertos\src/port.c ****     license and Real Time Engineers Ltd. contact details.
  50:freertos\src/port.c **** 
  51:freertos\src/port.c ****     http://www.FreeRTOS.org/plus - A selection of FreeRTOS ecosystem products,
  52:freertos\src/port.c ****     including FreeRTOS+Trace - an indispensable productivity tool, a DOS
  53:freertos\src/port.c ****     compatible FAT file system, and our tiny thread aware UDP/IP stack.
  54:freertos\src/port.c **** 
  55:freertos\src/port.c ****     http://www.OpenRTOS.com - Real Time Engineers ltd license FreeRTOS to High
  56:freertos\src/port.c ****     Integrity Systems to sell under the OpenRTOS brand.  Low cost OpenRTOS
  57:freertos\src/port.c ****     licenses offer ticketed support, indemnification and middleware.
  58:freertos\src/port.c **** 
  59:freertos\src/port.c ****     http://www.SafeRTOS.com - High Integrity Systems also provide a safety
  60:freertos\src/port.c ****     engineered and independently SIL3 certified version for use in safety and
  61:freertos\src/port.c ****     mission critical applications that require provable dependability.
  62:freertos\src/port.c **** 
  63:freertos\src/port.c ****     1 tab == 4 spaces!
  64:freertos\src/port.c **** */
  65:freertos\src/port.c **** 
  66:freertos\src/port.c **** /*-----------------------------------------------------------
  67:freertos\src/port.c ****  * Implementation of functions defined in portable.h for the ARM CM0 port.
  68:freertos\src/port.c ****  *----------------------------------------------------------*/
  69:freertos\src/port.c **** 
  70:freertos\src/port.c **** /* Scheduler includes. */
  71:freertos\src/port.c **** #include "FreeRTOS.h"
  72:freertos\src/port.c **** #include "task.h"
  73:freertos\src/port.c **** 
  74:freertos\src/port.c **** /* Constants required to manipulate the NVIC. */
  75:freertos\src/port.c **** #define portNVIC_SYSTICK_CTRL		( ( volatile unsigned long *) 0xe000e010 )
  76:freertos\src/port.c **** #define portNVIC_SYSTICK_LOAD		( ( volatile unsigned long *) 0xe000e014 )
  77:freertos\src/port.c **** #define portNVIC_INT_CTRL			( ( volatile unsigned long *) 0xe000ed04 )
  78:freertos\src/port.c **** #define portNVIC_SYSPRI2			( ( volatile unsigned long *) 0xe000ed20 )
  79:freertos\src/port.c **** #define portNVIC_SYSTICK_CLK		0x00000004
  80:freertos\src/port.c **** #define portNVIC_SYSTICK_INT		0x00000002
  81:freertos\src/port.c **** #define portNVIC_SYSTICK_ENABLE		0x00000001
  82:freertos\src/port.c **** #define portNVIC_PENDSVSET			0x10000000
  83:freertos\src/port.c **** #define portMIN_INTERRUPT_PRIORITY	( 255UL )
  84:freertos\src/port.c **** #define portNVIC_PENDSV_PRI			( portMIN_INTERRUPT_PRIORITY << 16UL )
  85:freertos\src/port.c **** #define portNVIC_SYSTICK_PRI		( portMIN_INTERRUPT_PRIORITY << 24UL )
  86:freertos\src/port.c **** 
  87:freertos\src/port.c **** /* Constants required to set up the initial stack. */
  88:freertos\src/port.c **** #define portINITIAL_XPSR			( 0x01000000 )
ARM GAS  C:\Users\VIDEOH~1\AppData\Local\Temp\ccmqp9Ih.s 			page 3


  89:freertos\src/port.c **** 
  90:freertos\src/port.c **** /* Let the user override the pre-loading of the initial LR with the address of
  91:freertos\src/port.c **** prvTaskExitError() in case is messes up unwinding of the stack in the
  92:freertos\src/port.c **** debugger. */
  93:freertos\src/port.c **** #ifdef configTASK_RETURN_ADDRESS
  94:freertos\src/port.c **** 	#define portTASK_RETURN_ADDRESS	configTASK_RETURN_ADDRESS
  95:freertos\src/port.c **** #else
  96:freertos\src/port.c **** 	#define portTASK_RETURN_ADDRESS	prvTaskExitError
  97:freertos\src/port.c **** #endif
  98:freertos\src/port.c **** 
  99:freertos\src/port.c **** /* Each task maintains its own interrupt status in the critical nesting
 100:freertos\src/port.c **** variable. */
 101:freertos\src/port.c **** static unsigned portBASE_TYPE uxCriticalNesting = 0xaaaaaaaa;
 102:freertos\src/port.c **** 
 103:freertos\src/port.c **** /*
 104:freertos\src/port.c ****  * Setup the timer to generate the tick interrupts.
 105:freertos\src/port.c ****  */
 106:freertos\src/port.c **** static void prvSetupTimerInterrupt( void );
 107:freertos\src/port.c **** 
 108:freertos\src/port.c **** /*
 109:freertos\src/port.c ****  * Exception handlers.
 110:freertos\src/port.c ****  */
 111:freertos\src/port.c **** void xPortPendSVHandler( void ) __attribute__ (( naked ));
 112:freertos\src/port.c **** void xPortSysTickHandler( void );
 113:freertos\src/port.c **** void vPortSVCHandler( void );
 114:freertos\src/port.c **** 
 115:freertos\src/port.c **** /*
 116:freertos\src/port.c ****  * Start first task is a separate function so it can be tested in isolation.
 117:freertos\src/port.c ****  */
 118:freertos\src/port.c **** static void vPortStartFirstTask( void ) __attribute__ (( naked ));
 119:freertos\src/port.c **** 
 120:freertos\src/port.c **** /*
 121:freertos\src/port.c ****  * Used to catch tasks that attempt to return from their implementing function.
 122:freertos\src/port.c ****  */
 123:freertos\src/port.c **** static void prvTaskExitError( void );
 124:freertos\src/port.c **** 
 125:freertos\src/port.c **** /*-----------------------------------------------------------*/
 126:freertos\src/port.c **** 
 127:freertos\src/port.c **** /*
 128:freertos\src/port.c ****  * See header file for description.
 129:freertos\src/port.c ****  */
 130:freertos\src/port.c **** portSTACK_TYPE *pxPortInitialiseStack( portSTACK_TYPE *pxTopOfStack, pdTASK_CODE pxCode, void *pvPa
 131:freertos\src/port.c **** {
 132:freertos\src/port.c **** 	/* Simulate the stack frame as it would be created by a context switch
 133:freertos\src/port.c **** 	interrupt. */
 134:freertos\src/port.c **** 	pxTopOfStack--; /* Offset added to account for the way the MCU uses the stack on entry/exit of int
 135:freertos\src/port.c **** 	*pxTopOfStack = portINITIAL_XPSR;	/* xPSR */
 136:freertos\src/port.c **** 	pxTopOfStack--;
 137:freertos\src/port.c **** 	*pxTopOfStack = ( portSTACK_TYPE ) pxCode;	/* PC */
 138:freertos\src/port.c **** 	pxTopOfStack--;
 139:freertos\src/port.c **** 	*pxTopOfStack = ( portSTACK_TYPE ) portTASK_RETURN_ADDRESS;	/* LR */
 140:freertos\src/port.c **** 	pxTopOfStack -= 5;	/* R12, R3, R2 and R1. */
 141:freertos\src/port.c **** 	*pxTopOfStack = ( portSTACK_TYPE ) pvParameters;	/* R0 */
 142:freertos\src/port.c **** 	pxTopOfStack -= 8; /* R11..R4. */
 143:freertos\src/port.c **** 
 144:freertos\src/port.c **** 	return pxTopOfStack;
 145:freertos\src/port.c **** }
ARM GAS  C:\Users\VIDEOH~1\AppData\Local\Temp\ccmqp9Ih.s 			page 4


 146:freertos\src/port.c **** /*-----------------------------------------------------------*/
 147:freertos\src/port.c **** 
 148:freertos\src/port.c **** static void prvTaskExitError( void )
 149:freertos\src/port.c **** {
  27              		.loc 1 149 0
  28              		.cfi_startproc
  29              		@ Volatile: function does not return.
  30              		@ args = 0, pretend = 0, frame = 0
  31              		@ frame_needed = 0, uses_anonymous_args = 0
  32              		@ link register save eliminated.
 150:freertos\src/port.c **** 	/* A function that implements a task must not exit or attempt to return to
 151:freertos\src/port.c **** 	its caller as there is nothing to return to.  If a task wants to exit it
 152:freertos\src/port.c **** 	should instead call vTaskDelete( NULL ).
 153:freertos\src/port.c **** 
 154:freertos\src/port.c **** 	Artificially force an assert() to be triggered if configASSERT() is
 155:freertos\src/port.c **** 	defined, then stop here so application writers can catch the error. */
 156:freertos\src/port.c **** 	configASSERT( uxCriticalNesting == ~0UL );
 157:freertos\src/port.c **** 	portDISABLE_INTERRUPTS();
  33              		.loc 1 157 0
  34              		.syntax divided
  35              	@ 157 "freertos\src\port.c" 1
  36 0000 72B6     		 cpsid i 
  37              	@ 0 "" 2
  38              		.thumb
  39              		.syntax unified
  40              	.L2:
  41 0002 FEE7     		b	.L2
  42              		.cfi_endproc
  43              	.LFE33:
  44              		.size	prvTaskExitError, .-prvTaskExitError
  45              		.section	.text.vPortStartFirstTask,"ax",%progbits
  46              		.align	1
  47              		.code	16
  48              		.thumb_func
  49              		.type	vPortStartFirstTask, %function
  50              	vPortStartFirstTask:
  51              	.LFB35:
 158:freertos\src/port.c **** 	for( ;; );
 159:freertos\src/port.c **** }
 160:freertos\src/port.c **** /*-----------------------------------------------------------*/
 161:freertos\src/port.c **** 
 162:freertos\src/port.c **** void vPortSVCHandler( void )
 163:freertos\src/port.c **** {
 164:freertos\src/port.c **** 	/* This function is no longer used, but retained for backward
 165:freertos\src/port.c **** 	compatibility. */
 166:freertos\src/port.c **** }
 167:freertos\src/port.c **** /*-----------------------------------------------------------*/
 168:freertos\src/port.c **** 
 169:freertos\src/port.c **** void vPortStartFirstTask( void )
 170:freertos\src/port.c **** {
  52              		.loc 1 170 0
  53              		.cfi_startproc
  54              		@ Naked Function: prologue and epilogue provided by programmer.
  55              		@ args = 0, pretend = 0, frame = 0
  56              		@ frame_needed = 0, uses_anonymous_args = 0
 171:freertos\src/port.c **** 	/* The MSP stack is not reset as, unlike on M3/4 parts, there is no vector
 172:freertos\src/port.c **** 	table offset register that can be used to locate the initial stack value.
ARM GAS  C:\Users\VIDEOH~1\AppData\Local\Temp\ccmqp9Ih.s 			page 5


 173:freertos\src/port.c **** 	Not all M0 parts have the application vector table at address 0. */
 174:freertos\src/port.c **** 	__asm volatile(
  57              		.loc 1 174 0
  58              		.syntax divided
  59              	@ 174 "freertos\src\port.c" 1
  60 0000 064A     			ldr	r2, pxCurrentTCBConst2	
  61 0002 1368     		ldr r3, [r2]				
  62 0004 1868     		ldr r0, [r3]				
  63 0006 2030     		add r0, #32					
  64 0008 80F30988 		msr psp, r0					
  65 000c 0220     		movs r0, #2					
  66 000e 80F31488 		msr CONTROL, r0				
  67 0012 3FBC     		pop {r0-r5}					
  68 0014 AE46     		mov lr, r5					
  69 0016 62B6     		cpsie i						
  70 0018 00BD     		pop {pc}					
  71              									
  72 001a C046     		.align 2					
  73 001c 00000000 	pxCurrentTCBConst2: .word pxCurrentTCB	  
  74              	@ 0 "" 2
 175:freertos\src/port.c **** 	"	ldr	r2, pxCurrentTCBConst2	\n" /* Obtain location of pxCurrentTCB. */
 176:freertos\src/port.c **** 	"	ldr r3, [r2]				\n"
 177:freertos\src/port.c **** 	"	ldr r0, [r3]				\n" /* The first item in pxCurrentTCB is the task top of stack. */
 178:freertos\src/port.c **** 	"	add r0, #32					\n" /* Discard everything up to r0. */
 179:freertos\src/port.c **** 	"	msr psp, r0					\n" /* This is now the new top of stack to use in the task. */
 180:freertos\src/port.c **** 	"	movs r0, #2					\n" /* Switch to the psp stack. */
 181:freertos\src/port.c **** 	"	msr CONTROL, r0				\n"
 182:freertos\src/port.c **** 	"	pop {r0-r5}					\n" /* Pop the registers that are saved automatically. */
 183:freertos\src/port.c **** 	"	mov lr, r5					\n" /* lr is now in r5. */
 184:freertos\src/port.c **** 	"	cpsie i						\n" /* The first task has its context and interrupts can be enabled. */
 185:freertos\src/port.c **** 	"	pop {pc}					\n" /* Finally, pop the PC to jump to the user defined task code. */
 186:freertos\src/port.c **** 	"								\n"
 187:freertos\src/port.c **** 	"	.align 2					\n"
 188:freertos\src/port.c **** 	"pxCurrentTCBConst2: .word pxCurrentTCB	  "					
 189:freertos\src/port.c **** 				  );
 190:freertos\src/port.c **** }
  75              		.loc 1 190 0
  76              		.thumb
  77              		.syntax unified
  78              		.cfi_endproc
  79              	.LFE35:
  80              		.size	vPortStartFirstTask, .-vPortStartFirstTask
  81              		.section	.text.pxPortInitialiseStack,"ax",%progbits
  82              		.align	1
  83              		.global	pxPortInitialiseStack
  84              		.code	16
  85              		.thumb_func
  86              		.type	pxPortInitialiseStack, %function
  87              	pxPortInitialiseStack:
  88              	.LFB32:
 131:freertos\src/port.c **** 	/* Simulate the stack frame as it would be created by a context switch
  89              		.loc 1 131 0
  90              		.cfi_startproc
  91              		@ args = 0, pretend = 0, frame = 0
  92              		@ frame_needed = 0, uses_anonymous_args = 0
  93              	.LVL0:
  94 0000 10B5     		push	{r4, lr}
ARM GAS  C:\Users\VIDEOH~1\AppData\Local\Temp\ccmqp9Ih.s 			page 6


  95              		.cfi_def_cfa_offset 8
  96              		.cfi_offset 4, -8
  97              		.cfi_offset 14, -4
 135:freertos\src/port.c **** 	pxTopOfStack--;
  98              		.loc 1 135 0
  99 0002 8024     		movs	r4, #128
 100 0004 031F     		subs	r3, r0, #4
 101              	.LVL1:
 102 0006 6404     		lsls	r4, r4, #17
 103 0008 1C60     		str	r4, [r3]
 104              	.LVL2:
 137:freertos\src/port.c **** 	pxTopOfStack--;
 105              		.loc 1 137 0
 106 000a 043B     		subs	r3, r3, #4
 107 000c 1960     		str	r1, [r3]
 108              	.LVL3:
 139:freertos\src/port.c **** 	pxTopOfStack -= 5;	/* R12, R3, R2 and R1. */
 109              		.loc 1 139 0
 110 000e 0349     		ldr	r1, .L6
 111              	.LVL4:
 112 0010 043B     		subs	r3, r3, #4
 113              	.LVL5:
 114 0012 1960     		str	r1, [r3]
 115              	.LVL6:
 141:freertos\src/port.c **** 	pxTopOfStack -= 8; /* R11..R4. */
 116              		.loc 1 141 0
 117 0014 143B     		subs	r3, r3, #20
 118              	.LVL7:
 142:freertos\src/port.c **** 
 119              		.loc 1 142 0
 120 0016 4038     		subs	r0, r0, #64
 121              	.LVL8:
 141:freertos\src/port.c **** 	pxTopOfStack -= 8; /* R11..R4. */
 122              		.loc 1 141 0
 123 0018 1A60     		str	r2, [r3]
 124              	.LVL9:
 145:freertos\src/port.c **** /*-----------------------------------------------------------*/
 125              		.loc 1 145 0
 126              		@ sp needed
 127 001a 10BD     		pop	{r4, pc}
 128              	.L7:
 129              		.align	2
 130              	.L6:
 131 001c 00000000 		.word	prvTaskExitError
 132              		.cfi_endproc
 133              	.LFE32:
 134              		.size	pxPortInitialiseStack, .-pxPortInitialiseStack
 135              		.section	.text.vPortSVCHandler,"ax",%progbits
 136              		.align	1
 137              		.global	vPortSVCHandler
 138              		.code	16
 139              		.thumb_func
 140              		.type	vPortSVCHandler, %function
 141              	vPortSVCHandler:
 142              	.LFB47:
 143              		.cfi_startproc
 144              		@ args = 0, pretend = 0, frame = 0
ARM GAS  C:\Users\VIDEOH~1\AppData\Local\Temp\ccmqp9Ih.s 			page 7


 145              		@ frame_needed = 0, uses_anonymous_args = 0
 146              		@ link register save eliminated.
 147              		@ sp needed
 148 0000 7047     		bx	lr
 149              		.cfi_endproc
 150              	.LFE47:
 151              		.size	vPortSVCHandler, .-vPortSVCHandler
 152              		.section	.text.xPortStartScheduler,"ax",%progbits
 153              		.align	1
 154              		.global	xPortStartScheduler
 155              		.code	16
 156              		.thumb_func
 157              		.type	xPortStartScheduler, %function
 158              	xPortStartScheduler:
 159              	.LFB36:
 191:freertos\src/port.c **** /*-----------------------------------------------------------*/
 192:freertos\src/port.c **** 
 193:freertos\src/port.c **** /*
 194:freertos\src/port.c ****  * See header file for description.
 195:freertos\src/port.c ****  */
 196:freertos\src/port.c **** portBASE_TYPE xPortStartScheduler( void )
 197:freertos\src/port.c **** {
 160              		.loc 1 197 0
 161              		.cfi_startproc
 162              		@ Volatile: function does not return.
 163              		@ args = 0, pretend = 0, frame = 0
 164              		@ frame_needed = 0, uses_anonymous_args = 0
 198:freertos\src/port.c **** 	/* Make PendSV, CallSV and SysTick the same priroity as the kernel. */
 199:freertos\src/port.c **** 	*(portNVIC_SYSPRI2) |= portNVIC_PENDSV_PRI;
 165              		.loc 1 199 0
 166 0000 FF21     		movs	r1, #255
 167 0002 0C4B     		ldr	r3, .L11
 168 0004 0904     		lsls	r1, r1, #16
 169 0006 1A68     		ldr	r2, [r3]
 197:freertos\src/port.c **** 	/* Make PendSV, CallSV and SysTick the same priroity as the kernel. */
 170              		.loc 1 197 0
 171 0008 10B5     		push	{r4, lr}
 172              		.cfi_def_cfa_offset 8
 173              		.cfi_offset 4, -8
 174              		.cfi_offset 14, -4
 175              		.loc 1 199 0
 176 000a 0A43     		orrs	r2, r1
 200:freertos\src/port.c **** 	*(portNVIC_SYSPRI2) |= portNVIC_SYSTICK_PRI;
 177              		.loc 1 200 0
 178 000c FF21     		movs	r1, #255
 199:freertos\src/port.c **** 	*(portNVIC_SYSPRI2) |= portNVIC_SYSTICK_PRI;
 179              		.loc 1 199 0
 180 000e 1A60     		str	r2, [r3]
 181              		.loc 1 200 0
 182 0010 1A68     		ldr	r2, [r3]
 183 0012 0906     		lsls	r1, r1, #24
 184 0014 0A43     		orrs	r2, r1
 185 0016 1A60     		str	r2, [r3]
 186              	.LBB8:
 187              	.LBB9:
 201:freertos\src/port.c **** 
 202:freertos\src/port.c **** 	/* Start the timer that generates the tick ISR.  Interrupts are disabled
ARM GAS  C:\Users\VIDEOH~1\AppData\Local\Temp\ccmqp9Ih.s 			page 8


 203:freertos\src/port.c **** 	here already. */
 204:freertos\src/port.c **** 	prvSetupTimerInterrupt();
 205:freertos\src/port.c **** 
 206:freertos\src/port.c **** 	/* Initialise the critical nesting count ready for the first task. */
 207:freertos\src/port.c **** 	uxCriticalNesting = 0;
 208:freertos\src/port.c **** 
 209:freertos\src/port.c **** 	/* Start the first task. */
 210:freertos\src/port.c **** 	vPortStartFirstTask();
 211:freertos\src/port.c **** 	
 212:freertos\src/port.c **** 	/* Should never get here as the tasks will now be executing!  Call the task
 213:freertos\src/port.c **** 	exit error function to prevent compiler warnings about a static function
 214:freertos\src/port.c **** 	not being called in the case that the application writer overrides this
 215:freertos\src/port.c **** 	functionality by defining configTASK_RETURN_ADDRESS. */
 216:freertos\src/port.c **** 	prvTaskExitError();
 217:freertos\src/port.c **** 
 218:freertos\src/port.c **** 	/* Should not get here! */
 219:freertos\src/port.c **** 	return 0;
 220:freertos\src/port.c **** }
 221:freertos\src/port.c **** /*-----------------------------------------------------------*/
 222:freertos\src/port.c **** 
 223:freertos\src/port.c **** void vPortEndScheduler( void )
 224:freertos\src/port.c **** {
 225:freertos\src/port.c ****   /* It is unlikely that the CM0 port will require this function as there
 226:freertos\src/port.c ****     is nothing to return to.  */
 227:freertos\src/port.c **** }
 228:freertos\src/port.c **** /*-----------------------------------------------------------*/
 229:freertos\src/port.c **** 
 230:freertos\src/port.c **** void vPortYield( void )
 231:freertos\src/port.c **** {
 232:freertos\src/port.c **** 	/* Set a PendSV to request a context switch. */
 233:freertos\src/port.c **** 	*( portNVIC_INT_CTRL ) = portNVIC_PENDSVSET;
 234:freertos\src/port.c **** 
 235:freertos\src/port.c **** 	/* Barriers are normally not required but do ensure the code is completely
 236:freertos\src/port.c **** 	within the specified behaviour for the architecture. */
 237:freertos\src/port.c **** 	__asm volatile( "dsb" );
 238:freertos\src/port.c **** 	__asm volatile( "isb" );
 239:freertos\src/port.c **** }
 240:freertos\src/port.c **** /*-----------------------------------------------------------*/
 241:freertos\src/port.c **** 
 242:freertos\src/port.c **** void vPortEnterCritical( void )
 243:freertos\src/port.c **** {
 244:freertos\src/port.c ****     portDISABLE_INTERRUPTS();
 245:freertos\src/port.c ****     uxCriticalNesting++;
 246:freertos\src/port.c **** 	__asm volatile( "dsb" );
 247:freertos\src/port.c **** 	__asm volatile( "isb" );
 248:freertos\src/port.c **** }
 249:freertos\src/port.c **** /*-----------------------------------------------------------*/
 250:freertos\src/port.c **** 
 251:freertos\src/port.c **** void vPortExitCritical( void )
 252:freertos\src/port.c **** {
 253:freertos\src/port.c ****     uxCriticalNesting--;
 254:freertos\src/port.c ****     if( uxCriticalNesting == 0 )
 255:freertos\src/port.c ****     {
 256:freertos\src/port.c ****         portENABLE_INTERRUPTS();
 257:freertos\src/port.c ****     }
 258:freertos\src/port.c **** }
 259:freertos\src/port.c **** /*-----------------------------------------------------------*/
ARM GAS  C:\Users\VIDEOH~1\AppData\Local\Temp\ccmqp9Ih.s 			page 9


 260:freertos\src/port.c **** 
 261:freertos\src/port.c **** unsigned long ulSetInterruptMaskFromISR( void )
 262:freertos\src/port.c **** {
 263:freertos\src/port.c **** 	__asm volatile(
 264:freertos\src/port.c **** 					" mrs r0, PRIMASK	\n"
 265:freertos\src/port.c **** 					" cpsid i			\n"
 266:freertos\src/port.c **** 					" bx lr				  "
 267:freertos\src/port.c **** 				  );
 268:freertos\src/port.c **** 
 269:freertos\src/port.c **** 	/* To avoid compiler warnings.  This line will never be reached. */
 270:freertos\src/port.c **** 	return 0;
 271:freertos\src/port.c **** }
 272:freertos\src/port.c **** /*-----------------------------------------------------------*/
 273:freertos\src/port.c **** 
 274:freertos\src/port.c **** void vClearInterruptMaskFromISR( unsigned long ulMask )
 275:freertos\src/port.c **** {
 276:freertos\src/port.c **** 	__asm volatile(
 277:freertos\src/port.c **** 					" msr PRIMASK, r0	\n"
 278:freertos\src/port.c **** 					" bx lr				  "
 279:freertos\src/port.c **** 				  );
 280:freertos\src/port.c **** 
 281:freertos\src/port.c **** 	/* Just to avoid compiler warning. */
 282:freertos\src/port.c **** 	( void ) ulMask;
 283:freertos\src/port.c **** }
 284:freertos\src/port.c **** /*-----------------------------------------------------------*/
 285:freertos\src/port.c **** 
 286:freertos\src/port.c **** void xPortPendSVHandler( void )
 287:freertos\src/port.c **** {
 288:freertos\src/port.c **** 	/* This is a naked function. */
 289:freertos\src/port.c **** 
 290:freertos\src/port.c **** 	__asm volatile
 291:freertos\src/port.c **** 	(
 292:freertos\src/port.c **** 	"	mrs r0, psp							\n"
 293:freertos\src/port.c **** 	"										\n"
 294:freertos\src/port.c **** 	"	ldr	r3, pxCurrentTCBConst			\n" /* Get the location of the current TCB. */
 295:freertos\src/port.c **** 	"	ldr	r2, [r3]						\n"
 296:freertos\src/port.c **** 	"										\n"
 297:freertos\src/port.c **** 	"	sub r0, r0, #32						\n" /* Make space for the remaining low registers. */
 298:freertos\src/port.c **** 	"	str r0, [r2]						\n" /* Save the new top of stack. */
 299:freertos\src/port.c **** 	"	stmia r0!, {r4-r7}					\n" /* Store the low registers that are not saved automatically. */
 300:freertos\src/port.c **** 	" 	mov r4, r8							\n" /* Store the high registers. */
 301:freertos\src/port.c **** 	" 	mov r5, r9							\n"
 302:freertos\src/port.c **** 	" 	mov r6, r10							\n"
 303:freertos\src/port.c **** 	" 	mov r7, r11							\n"
 304:freertos\src/port.c **** 	" 	stmia r0!, {r4-r7}              	\n"
 305:freertos\src/port.c **** 	"										\n"
 306:freertos\src/port.c **** 	"	push {r3, r14}						\n"
 307:freertos\src/port.c **** 	"	cpsid i								\n"
 308:freertos\src/port.c **** 	"	bl vTaskSwitchContext				\n"
 309:freertos\src/port.c **** 	"	cpsie i								\n"
 310:freertos\src/port.c **** 	"	pop {r2, r3}						\n" /* lr goes in r3. r2 now holds tcb pointer. */
 311:freertos\src/port.c **** 	"										\n"
 312:freertos\src/port.c **** 	"	ldr r1, [r2]						\n"
 313:freertos\src/port.c **** 	"	ldr r0, [r1]						\n" /* The first item in pxCurrentTCB is the task top of stack. */
 314:freertos\src/port.c **** 	"	add r0, r0, #16						\n" /* Move to the high registers. */
 315:freertos\src/port.c **** 	"	ldmia r0!, {r4-r7}					\n" /* Pop the high registers. */
 316:freertos\src/port.c **** 	" 	mov r8, r4							\n"
ARM GAS  C:\Users\VIDEOH~1\AppData\Local\Temp\ccmqp9Ih.s 			page 10


 317:freertos\src/port.c **** 	" 	mov r9, r5							\n"
 318:freertos\src/port.c **** 	" 	mov r10, r6							\n"
 319:freertos\src/port.c **** 	" 	mov r11, r7							\n"
 320:freertos\src/port.c **** 	"										\n"
 321:freertos\src/port.c **** 	"	msr psp, r0							\n" /* Remember the new top of stack for the task. */
 322:freertos\src/port.c **** 	"										\n"
 323:freertos\src/port.c **** 	"	sub r0, r0, #32						\n" /* Go back for the low registers that are not automatically restored. *
 324:freertos\src/port.c **** 	" 	ldmia r0!, {r4-r7}              	\n" /* Pop low registers.  */
 325:freertos\src/port.c **** 	"										\n"
 326:freertos\src/port.c **** 	"	bx r3								\n"
 327:freertos\src/port.c **** 	"										\n"
 328:freertos\src/port.c **** 	"	.align 2							\n"
 329:freertos\src/port.c **** 	"pxCurrentTCBConst: .word pxCurrentTCB	  "
 330:freertos\src/port.c **** 	);
 331:freertos\src/port.c **** }
 332:freertos\src/port.c **** /*-----------------------------------------------------------*/
 333:freertos\src/port.c **** 
 334:freertos\src/port.c **** void xPortSysTickHandler( void )
 335:freertos\src/port.c **** {
 336:freertos\src/port.c **** unsigned long ulPreviousMask;
 337:freertos\src/port.c **** 
 338:freertos\src/port.c **** 	ulPreviousMask = portSET_INTERRUPT_MASK_FROM_ISR();
 339:freertos\src/port.c **** 	{
 340:freertos\src/port.c **** 		/* Increment the RTOS tick. */
 341:freertos\src/port.c **** 		if( xTaskIncrementTick() != pdFALSE )
 342:freertos\src/port.c **** 		{
 343:freertos\src/port.c **** 			/* Pend a context switch. */
 344:freertos\src/port.c **** 			*(portNVIC_INT_CTRL) = portNVIC_PENDSVSET;
 345:freertos\src/port.c **** 		}
 346:freertos\src/port.c **** 	}
 347:freertos\src/port.c **** 	portCLEAR_INTERRUPT_MASK_FROM_ISR( ulPreviousMask );
 348:freertos\src/port.c **** }
 349:freertos\src/port.c **** /*-----------------------------------------------------------*/
 350:freertos\src/port.c **** 
 351:freertos\src/port.c **** /*
 352:freertos\src/port.c ****  * Setup the systick timer to generate the tick interrupts at the required
 353:freertos\src/port.c ****  * frequency.
 354:freertos\src/port.c ****  */
 355:freertos\src/port.c **** void prvSetupTimerInterrupt( void )
 356:freertos\src/port.c **** {
 357:freertos\src/port.c **** 	/* Configure SysTick to interrupt at the requested rate. */
 358:freertos\src/port.c **** 	*(portNVIC_SYSTICK_LOAD) = ( configCPU_CLOCK_HZ / configTICK_RATE_HZ ) - 1UL;
 188              		.loc 1 358 0
 189 0018 074A     		ldr	r2, .L11+4
 190 001a 084B     		ldr	r3, .L11+8
 191 001c 1A60     		str	r2, [r3]
 359:freertos\src/port.c **** 	*(portNVIC_SYSTICK_CTRL) = portNVIC_SYSTICK_CLK | portNVIC_SYSTICK_INT | portNVIC_SYSTICK_ENABLE;
 192              		.loc 1 359 0
 193 001e 0722     		movs	r2, #7
 194 0020 074B     		ldr	r3, .L11+12
 195 0022 1A60     		str	r2, [r3]
 196              	.LBE9:
 197              	.LBE8:
 207:freertos\src/port.c **** 
 198              		.loc 1 207 0
 199 0024 0022     		movs	r2, #0
 200 0026 074B     		ldr	r3, .L11+16
ARM GAS  C:\Users\VIDEOH~1\AppData\Local\Temp\ccmqp9Ih.s 			page 11


 201 0028 1A60     		str	r2, [r3]
 210:freertos\src/port.c **** 	
 202              		.loc 1 210 0
 203 002a FFF7FEFF 		bl	vPortStartFirstTask
 204              	.LVL10:
 205              	.LBB10:
 206              	.LBB11:
 157:freertos\src/port.c **** 	for( ;; );
 207              		.loc 1 157 0
 208              		.syntax divided
 209              	@ 157 "freertos\src\port.c" 1
 210 002e 72B6     		 cpsid i 
 211              	@ 0 "" 2
 212              		.thumb
 213              		.syntax unified
 214              	.L10:
 215 0030 FEE7     		b	.L10
 216              	.L12:
 217 0032 C046     		.align	2
 218              	.L11:
 219 0034 20ED00E0 		.word	-536810208
 220 0038 7FA90300 		.word	239999
 221 003c 14E000E0 		.word	-536813548
 222 0040 10E000E0 		.word	-536813552
 223 0044 00000000 		.word	.LANCHOR0
 224              	.LBE11:
 225              	.LBE10:
 226              		.cfi_endproc
 227              	.LFE36:
 228              		.size	xPortStartScheduler, .-xPortStartScheduler
 229              		.section	.text.vPortEndScheduler,"ax",%progbits
 230              		.align	1
 231              		.global	vPortEndScheduler
 232              		.code	16
 233              		.thumb_func
 234              		.type	vPortEndScheduler, %function
 235              	vPortEndScheduler:
 236              	.LFB37:
 224:freertos\src/port.c ****   /* It is unlikely that the CM0 port will require this function as there
 237              		.loc 1 224 0
 238              		.cfi_startproc
 239              		@ args = 0, pretend = 0, frame = 0
 240              		@ frame_needed = 0, uses_anonymous_args = 0
 241              		@ link register save eliminated.
 227:freertos\src/port.c **** /*-----------------------------------------------------------*/
 242              		.loc 1 227 0
 243              		@ sp needed
 244 0000 7047     		bx	lr
 245              		.cfi_endproc
 246              	.LFE37:
 247              		.size	vPortEndScheduler, .-vPortEndScheduler
 248              		.section	.text.vPortYield,"ax",%progbits
 249              		.align	1
 250              		.global	vPortYield
 251              		.code	16
 252              		.thumb_func
 253              		.type	vPortYield, %function
ARM GAS  C:\Users\VIDEOH~1\AppData\Local\Temp\ccmqp9Ih.s 			page 12


 254              	vPortYield:
 255              	.LFB38:
 231:freertos\src/port.c **** 	/* Set a PendSV to request a context switch. */
 256              		.loc 1 231 0
 257              		.cfi_startproc
 258              		@ args = 0, pretend = 0, frame = 0
 259              		@ frame_needed = 0, uses_anonymous_args = 0
 260              		@ link register save eliminated.
 233:freertos\src/port.c **** 
 261              		.loc 1 233 0
 262 0000 8022     		movs	r2, #128
 263 0002 044B     		ldr	r3, .L15
 264 0004 5205     		lsls	r2, r2, #21
 265 0006 1A60     		str	r2, [r3]
 237:freertos\src/port.c **** 	__asm volatile( "isb" );
 266              		.loc 1 237 0
 267              		.syntax divided
 268              	@ 237 "freertos\src\port.c" 1
 269 0008 BFF34F8F 		dsb
 270              	@ 0 "" 2
 238:freertos\src/port.c **** }
 271              		.loc 1 238 0
 272              	@ 238 "freertos\src\port.c" 1
 273 000c BFF36F8F 		isb
 274              	@ 0 "" 2
 239:freertos\src/port.c **** /*-----------------------------------------------------------*/
 275              		.loc 1 239 0
 276              		.thumb
 277              		.syntax unified
 278              		@ sp needed
 279 0010 7047     		bx	lr
 280              	.L16:
 281 0012 C046     		.align	2
 282              	.L15:
 283 0014 04ED00E0 		.word	-536810236
 284              		.cfi_endproc
 285              	.LFE38:
 286              		.size	vPortYield, .-vPortYield
 287              		.section	.text.vPortEnterCritical,"ax",%progbits
 288              		.align	1
 289              		.global	vPortEnterCritical
 290              		.code	16
 291              		.thumb_func
 292              		.type	vPortEnterCritical, %function
 293              	vPortEnterCritical:
 294              	.LFB39:
 243:freertos\src/port.c ****     portDISABLE_INTERRUPTS();
 295              		.loc 1 243 0
 296              		.cfi_startproc
 297              		@ args = 0, pretend = 0, frame = 0
 298              		@ frame_needed = 0, uses_anonymous_args = 0
 299              		@ link register save eliminated.
 244:freertos\src/port.c ****     uxCriticalNesting++;
 300              		.loc 1 244 0
 301              		.syntax divided
 302              	@ 244 "freertos\src\port.c" 1
 303 0000 72B6     		 cpsid i 
ARM GAS  C:\Users\VIDEOH~1\AppData\Local\Temp\ccmqp9Ih.s 			page 13


 304              	@ 0 "" 2
 245:freertos\src/port.c **** 	__asm volatile( "dsb" );
 305              		.loc 1 245 0
 306              		.thumb
 307              		.syntax unified
 308 0002 044A     		ldr	r2, .L18
 309 0004 1368     		ldr	r3, [r2]
 310 0006 0133     		adds	r3, r3, #1
 311 0008 1360     		str	r3, [r2]
 246:freertos\src/port.c **** 	__asm volatile( "isb" );
 312              		.loc 1 246 0
 313              		.syntax divided
 314              	@ 246 "freertos\src\port.c" 1
 315 000a BFF34F8F 		dsb
 316              	@ 0 "" 2
 247:freertos\src/port.c **** }
 317              		.loc 1 247 0
 318              	@ 247 "freertos\src\port.c" 1
 319 000e BFF36F8F 		isb
 320              	@ 0 "" 2
 248:freertos\src/port.c **** /*-----------------------------------------------------------*/
 321              		.loc 1 248 0
 322              		.thumb
 323              		.syntax unified
 324              		@ sp needed
 325 0012 7047     		bx	lr
 326              	.L19:
 327              		.align	2
 328              	.L18:
 329 0014 00000000 		.word	.LANCHOR0
 330              		.cfi_endproc
 331              	.LFE39:
 332              		.size	vPortEnterCritical, .-vPortEnterCritical
 333              		.section	.text.vPortExitCritical,"ax",%progbits
 334              		.align	1
 335              		.global	vPortExitCritical
 336              		.code	16
 337              		.thumb_func
 338              		.type	vPortExitCritical, %function
 339              	vPortExitCritical:
 340              	.LFB40:
 252:freertos\src/port.c ****     uxCriticalNesting--;
 341              		.loc 1 252 0
 342              		.cfi_startproc
 343              		@ args = 0, pretend = 0, frame = 0
 344              		@ frame_needed = 0, uses_anonymous_args = 0
 345              		@ link register save eliminated.
 253:freertos\src/port.c ****     if( uxCriticalNesting == 0 )
 346              		.loc 1 253 0
 347 0000 034A     		ldr	r2, .L22
 348 0002 1368     		ldr	r3, [r2]
 349 0004 013B     		subs	r3, r3, #1
 350 0006 1360     		str	r3, [r2]
 254:freertos\src/port.c ****     {
 351              		.loc 1 254 0
 352 0008 002B     		cmp	r3, #0
 353 000a 00D1     		bne	.L20
ARM GAS  C:\Users\VIDEOH~1\AppData\Local\Temp\ccmqp9Ih.s 			page 14


 256:freertos\src/port.c ****     }
 354              		.loc 1 256 0
 355              		.syntax divided
 356              	@ 256 "freertos\src\port.c" 1
 357 000c 62B6     		 cpsie i 
 358              	@ 0 "" 2
 359              		.thumb
 360              		.syntax unified
 361              	.L20:
 258:freertos\src/port.c **** /*-----------------------------------------------------------*/
 362              		.loc 1 258 0
 363              		@ sp needed
 364 000e 7047     		bx	lr
 365              	.L23:
 366              		.align	2
 367              	.L22:
 368 0010 00000000 		.word	.LANCHOR0
 369              		.cfi_endproc
 370              	.LFE40:
 371              		.size	vPortExitCritical, .-vPortExitCritical
 372              		.section	.text.ulSetInterruptMaskFromISR,"ax",%progbits
 373              		.align	1
 374              		.global	ulSetInterruptMaskFromISR
 375              		.code	16
 376              		.thumb_func
 377              		.type	ulSetInterruptMaskFromISR, %function
 378              	ulSetInterruptMaskFromISR:
 379              	.LFB41:
 262:freertos\src/port.c **** 	__asm volatile(
 380              		.loc 1 262 0
 381              		.cfi_startproc
 382              		@ Naked Function: prologue and epilogue provided by programmer.
 383              		@ args = 0, pretend = 0, frame = 0
 384              		@ frame_needed = 0, uses_anonymous_args = 0
 263:freertos\src/port.c **** 					" mrs r0, PRIMASK	\n"
 385              		.loc 1 263 0
 386              		.syntax divided
 387              	@ 263 "freertos\src\port.c" 1
 388 0000 EFF31080 		 mrs r0, PRIMASK	
 389 0004 72B6     	 cpsid i			
 390 0006 7047     	 bx lr				  
 391              	@ 0 "" 2
 271:freertos\src/port.c **** /*-----------------------------------------------------------*/
 392              		.loc 1 271 0
 393              		.thumb
 394              		.syntax unified
 395 0008 0020     		movs	r0, #0
 396              		.cfi_endproc
 397              	.LFE41:
 398              		.size	ulSetInterruptMaskFromISR, .-ulSetInterruptMaskFromISR
 399              		.section	.text.vClearInterruptMaskFromISR,"ax",%progbits
 400              		.align	1
 401              		.global	vClearInterruptMaskFromISR
 402              		.code	16
 403              		.thumb_func
 404              		.type	vClearInterruptMaskFromISR, %function
 405              	vClearInterruptMaskFromISR:
ARM GAS  C:\Users\VIDEOH~1\AppData\Local\Temp\ccmqp9Ih.s 			page 15


 406              	.LFB42:
 275:freertos\src/port.c **** 	__asm volatile(
 407              		.loc 1 275 0
 408              		.cfi_startproc
 409              		@ Naked Function: prologue and epilogue provided by programmer.
 410              		@ args = 0, pretend = 0, frame = 0
 411              		@ frame_needed = 0, uses_anonymous_args = 0
 412              	.LVL11:
 276:freertos\src/port.c **** 					" msr PRIMASK, r0	\n"
 413              		.loc 1 276 0
 414              		.syntax divided
 415              	@ 276 "freertos\src\port.c" 1
 416 0000 80F31088 		 msr PRIMASK, r0	
 417 0004 7047     	 bx lr				  
 418              	@ 0 "" 2
 283:freertos\src/port.c **** /*-----------------------------------------------------------*/
 419              		.loc 1 283 0
 420              		.thumb
 421              		.syntax unified
 422              		.cfi_endproc
 423              	.LFE42:
 424              		.size	vClearInterruptMaskFromISR, .-vClearInterruptMaskFromISR
 425              		.section	.text.xPortPendSVHandler,"ax",%progbits
 426              		.align	1
 427              		.global	xPortPendSVHandler
 428              		.code	16
 429              		.thumb_func
 430              		.type	xPortPendSVHandler, %function
 431              	xPortPendSVHandler:
 432              	.LFB43:
 287:freertos\src/port.c **** 	/* This is a naked function. */
 433              		.loc 1 287 0
 434              		.cfi_startproc
 435              		@ Naked Function: prologue and epilogue provided by programmer.
 436              		@ args = 0, pretend = 0, frame = 0
 437              		@ frame_needed = 0, uses_anonymous_args = 0
 290:freertos\src/port.c **** 	(
 438              		.loc 1 290 0
 439              		.syntax divided
 440              	@ 290 "freertos\src\port.c" 1
 441 0000 EFF30980 			mrs r0, psp							
 442              											
 443 0004 0E4B     		ldr	r3, pxCurrentTCBConst			
 444 0006 1A68     		ldr	r2, [r3]						
 445              											
 446 0008 2038     		sub r0, r0, #32						
 447 000a 1060     		str r0, [r2]						
 448 000c F0C0     		stmia r0!, {r4-r7}					
 449 000e 4446     	 	mov r4, r8							
 450 0010 4D46     	 	mov r5, r9							
 451 0012 5646     	 	mov r6, r10							
 452 0014 5F46     	 	mov r7, r11							
 453 0016 F0C0     	 	stmia r0!, {r4-r7}              	
 454              											
 455 0018 08B5     		push {r3, r14}						
 456 001a 72B6     		cpsid i								
 457 001c FFF7FEFF 		bl vTaskSwitchContext				
ARM GAS  C:\Users\VIDEOH~1\AppData\Local\Temp\ccmqp9Ih.s 			page 16


 458 0020 62B6     		cpsie i								
 459 0022 0CBC     		pop {r2, r3}						
 460              											
 461 0024 1168     		ldr r1, [r2]						
 462 0026 0868     		ldr r0, [r1]						
 463 0028 1030     		add r0, r0, #16						
 464 002a F0C8     		ldmia r0!, {r4-r7}					
 465 002c A046     	 	mov r8, r4							
 466 002e A946     	 	mov r9, r5							
 467 0030 B246     	 	mov r10, r6							
 468 0032 BB46     	 	mov r11, r7							
 469              											
 470 0034 80F30988 		msr psp, r0							
 471              											
 472 0038 2038     		sub r0, r0, #32						
 473 003a F0C8     	 	ldmia r0!, {r4-r7}              	
 474              											
 475 003c 1847     		bx r3								
 476              											
 477 003e C046     		.align 2							
 478 0040 00000000 	pxCurrentTCBConst: .word pxCurrentTCB	  
 479              	@ 0 "" 2
 331:freertos\src/port.c **** /*-----------------------------------------------------------*/
 480              		.loc 1 331 0
 481              		.thumb
 482              		.syntax unified
 483              		.cfi_endproc
 484              	.LFE43:
 485              		.size	xPortPendSVHandler, .-xPortPendSVHandler
 486              		.section	.text.xPortSysTickHandler,"ax",%progbits
 487              		.align	1
 488              		.global	xPortSysTickHandler
 489              		.code	16
 490              		.thumb_func
 491              		.type	xPortSysTickHandler, %function
 492              	xPortSysTickHandler:
 493              	.LFB44:
 335:freertos\src/port.c **** unsigned long ulPreviousMask;
 494              		.loc 1 335 0
 495              		.cfi_startproc
 496              		@ args = 0, pretend = 0, frame = 0
 497              		@ frame_needed = 0, uses_anonymous_args = 0
 498 0000 10B5     		push	{r4, lr}
 499              		.cfi_def_cfa_offset 8
 500              		.cfi_offset 4, -8
 501              		.cfi_offset 14, -4
 338:freertos\src/port.c **** 	{
 502              		.loc 1 338 0
 503 0002 FFF7FEFF 		bl	ulSetInterruptMaskFromISR
 504              	.LVL12:
 505 0006 0400     		movs	r4, r0
 506              	.LVL13:
 341:freertos\src/port.c **** 		{
 507              		.loc 1 341 0
 508 0008 FFF7FEFF 		bl	xTaskIncrementTick
 509              	.LVL14:
 510 000c 0028     		cmp	r0, #0
ARM GAS  C:\Users\VIDEOH~1\AppData\Local\Temp\ccmqp9Ih.s 			page 17


 511 000e 03D0     		beq	.L28
 344:freertos\src/port.c **** 		}
 512              		.loc 1 344 0
 513 0010 8022     		movs	r2, #128
 514 0012 034B     		ldr	r3, .L32
 515 0014 5205     		lsls	r2, r2, #21
 516 0016 1A60     		str	r2, [r3]
 517              	.L28:
 347:freertos\src/port.c **** }
 518              		.loc 1 347 0
 519 0018 2000     		movs	r0, r4
 520 001a FFF7FEFF 		bl	vClearInterruptMaskFromISR
 521              	.LVL15:
 348:freertos\src/port.c **** /*-----------------------------------------------------------*/
 522              		.loc 1 348 0
 523              		@ sp needed
 524              	.LVL16:
 525 001e 10BD     		pop	{r4, pc}
 526              	.L33:
 527              		.align	2
 528              	.L32:
 529 0020 04ED00E0 		.word	-536810236
 530              		.cfi_endproc
 531              	.LFE44:
 532              		.size	xPortSysTickHandler, .-xPortSysTickHandler
 533              		.data
 534              		.align	2
 535              		.set	.LANCHOR0,. + 0
 536              		.type	uxCriticalNesting, %object
 537              		.size	uxCriticalNesting, 4
 538              	uxCriticalNesting:
 539 0000 AAAAAAAA 		.word	-1431655766
 540              		.text
 541              	.Letext0:
 542              		.file 2 ".\\freertos\\include/projdefs.h"
 543              		.file 3 ".\\freertos\\include/portmacro.h"
 544              		.file 4 ".\\freertos\\include/task.h"