ARM GAS  C:\Users\VIDEOH~1\AppData\Local\Temp\cc1cRMdm.s 			page 1


   1              		.syntax unified
   2              		.cpu cortex-m0
   3              		.fpu softvfp
   4              		.eabi_attribute 20, 1
   5              		.eabi_attribute 21, 1
   6              		.eabi_attribute 23, 3
   7              		.eabi_attribute 24, 1
   8              		.eabi_attribute 25, 1
   9              		.eabi_attribute 26, 1
  10              		.eabi_attribute 30, 4
  11              		.eabi_attribute 34, 0
  12              		.eabi_attribute 18, 4
  13              		.thumb
  14              		.syntax unified
  15              		.file	"queue.c"
  16              		.text
  17              	.Ltext0:
  18              		.cfi_sections	.debug_frame
  19              		.section	.text.prvCopyDataToQueue,"ax",%progbits
  20              		.align	1
  21              		.code	16
  22              		.thumb_func
  23              		.type	prvCopyDataToQueue, %function
  24              	prvCopyDataToQueue:
  25              	.LFB44:
  26              		.file 1 "freertos\\src\\queue.c"
   1:freertos\src/queue.c **** /*
   2:freertos\src/queue.c ****     FreeRTOS V7.6.0 - Copyright (C) 2013 Real Time Engineers Ltd.
   3:freertos\src/queue.c ****     All rights reserved
   4:freertos\src/queue.c **** 
   5:freertos\src/queue.c ****     VISIT http://www.FreeRTOS.org TO ENSURE YOU ARE USING THE LATEST VERSION.
   6:freertos\src/queue.c **** 
   7:freertos\src/queue.c ****     ***************************************************************************
   8:freertos\src/queue.c ****      *                                                                       *
   9:freertos\src/queue.c ****      *    FreeRTOS provides completely free yet professionally developed,    *
  10:freertos\src/queue.c ****      *    robust, strictly quality controlled, supported, and cross          *
  11:freertos\src/queue.c ****      *    platform software that has become a de facto standard.             *
  12:freertos\src/queue.c ****      *                                                                       *
  13:freertos\src/queue.c ****      *    Help yourself get started quickly and support the FreeRTOS         *
  14:freertos\src/queue.c ****      *    project by purchasing a FreeRTOS tutorial book, reference          *
  15:freertos\src/queue.c ****      *    manual, or both from: http://www.FreeRTOS.org/Documentation        *
  16:freertos\src/queue.c ****      *                                                                       *
  17:freertos\src/queue.c ****      *    Thank you!                                                         *
  18:freertos\src/queue.c ****      *                                                                       *
  19:freertos\src/queue.c ****     ***************************************************************************
  20:freertos\src/queue.c **** 
  21:freertos\src/queue.c ****     This file is part of the FreeRTOS distribution.
  22:freertos\src/queue.c **** 
  23:freertos\src/queue.c ****     FreeRTOS is free software; you can redistribute it and/or modify it under
  24:freertos\src/queue.c ****     the terms of the GNU General Public License (version 2) as published by the
  25:freertos\src/queue.c ****     Free Software Foundation >>!AND MODIFIED BY!<< the FreeRTOS exception.
  26:freertos\src/queue.c **** 
  27:freertos\src/queue.c ****     >>! NOTE: The modification to the GPL is included to allow you to distribute
  28:freertos\src/queue.c ****     >>! a combined work that includes FreeRTOS without being obliged to provide
  29:freertos\src/queue.c ****     >>! the source code for proprietary components outside of the FreeRTOS
  30:freertos\src/queue.c ****     >>! kernel.
  31:freertos\src/queue.c **** 
ARM GAS  C:\Users\VIDEOH~1\AppData\Local\Temp\cc1cRMdm.s 			page 2


  32:freertos\src/queue.c ****     FreeRTOS is distributed in the hope that it will be useful, but WITHOUT ANY
  33:freertos\src/queue.c ****     WARRANTY; without even the implied warranty of MERCHANTABILITY or FITNESS
  34:freertos\src/queue.c ****     FOR A PARTICULAR PURPOSE.  Full license text is available from the following
  35:freertos\src/queue.c ****     link: http://www.freertos.org/a00114.html
  36:freertos\src/queue.c **** 
  37:freertos\src/queue.c ****     1 tab == 4 spaces!
  38:freertos\src/queue.c **** 
  39:freertos\src/queue.c ****     ***************************************************************************
  40:freertos\src/queue.c ****      *                                                                       *
  41:freertos\src/queue.c ****      *    Having a problem?  Start by reading the FAQ "My application does   *
  42:freertos\src/queue.c ****      *    not run, what could be wrong?"                                     *
  43:freertos\src/queue.c ****      *                                                                       *
  44:freertos\src/queue.c ****      *    http://www.FreeRTOS.org/FAQHelp.html                               *
  45:freertos\src/queue.c ****      *                                                                       *
  46:freertos\src/queue.c ****     ***************************************************************************
  47:freertos\src/queue.c **** 
  48:freertos\src/queue.c ****     http://www.FreeRTOS.org - Documentation, books, training, latest versions,
  49:freertos\src/queue.c ****     license and Real Time Engineers Ltd. contact details.
  50:freertos\src/queue.c **** 
  51:freertos\src/queue.c ****     http://www.FreeRTOS.org/plus - A selection of FreeRTOS ecosystem products,
  52:freertos\src/queue.c ****     including FreeRTOS+Trace - an indispensable productivity tool, a DOS
  53:freertos\src/queue.c ****     compatible FAT file system, and our tiny thread aware UDP/IP stack.
  54:freertos\src/queue.c **** 
  55:freertos\src/queue.c ****     http://www.OpenRTOS.com - Real Time Engineers ltd license FreeRTOS to High
  56:freertos\src/queue.c ****     Integrity Systems to sell under the OpenRTOS brand.  Low cost OpenRTOS
  57:freertos\src/queue.c ****     licenses offer ticketed support, indemnification and middleware.
  58:freertos\src/queue.c **** 
  59:freertos\src/queue.c ****     http://www.SafeRTOS.com - High Integrity Systems also provide a safety
  60:freertos\src/queue.c ****     engineered and independently SIL3 certified version for use in safety and
  61:freertos\src/queue.c ****     mission critical applications that require provable dependability.
  62:freertos\src/queue.c **** 
  63:freertos\src/queue.c ****     1 tab == 4 spaces!
  64:freertos\src/queue.c **** */
  65:freertos\src/queue.c **** 
  66:freertos\src/queue.c **** #include <stdlib.h>
  67:freertos\src/queue.c **** #include <string.h>
  68:freertos\src/queue.c **** 
  69:freertos\src/queue.c **** /* Defining MPU_WRAPPERS_INCLUDED_FROM_API_FILE prevents task.h from redefining
  70:freertos\src/queue.c **** all the API functions to use the MPU wrappers.  That should only be done when
  71:freertos\src/queue.c **** task.h is included from an application file. */
  72:freertos\src/queue.c **** #define MPU_WRAPPERS_INCLUDED_FROM_API_FILE
  73:freertos\src/queue.c **** 
  74:freertos\src/queue.c **** #include "FreeRTOS.h"
  75:freertos\src/queue.c **** #include "task.h"
  76:freertos\src/queue.c **** #include "queue.h"
  77:freertos\src/queue.c **** 
  78:freertos\src/queue.c **** #if ( configUSE_CO_ROUTINES == 1 )
  79:freertos\src/queue.c **** 	#include "croutine.h"
  80:freertos\src/queue.c **** #endif
  81:freertos\src/queue.c **** 
  82:freertos\src/queue.c **** /* Lint e961 and e750 are suppressed as a MISRA exception justified because the
  83:freertos\src/queue.c **** MPU ports require MPU_WRAPPERS_INCLUDED_FROM_API_FILE to be defined for the
  84:freertos\src/queue.c **** header files above, but not in this file, in order to generate the correct
  85:freertos\src/queue.c **** privileged Vs unprivileged linkage and placement. */
  86:freertos\src/queue.c **** #undef MPU_WRAPPERS_INCLUDED_FROM_API_FILE /*lint !e961 !e750. */
  87:freertos\src/queue.c **** 
  88:freertos\src/queue.c **** 
ARM GAS  C:\Users\VIDEOH~1\AppData\Local\Temp\cc1cRMdm.s 			page 3


  89:freertos\src/queue.c **** /* Constants used with the cRxLock and xTxLock structure members. */
  90:freertos\src/queue.c **** #define queueUNLOCKED					( ( signed portBASE_TYPE ) -1 )
  91:freertos\src/queue.c **** #define queueLOCKED_UNMODIFIED			( ( signed portBASE_TYPE ) 0 )
  92:freertos\src/queue.c **** 
  93:freertos\src/queue.c **** /* When the xQUEUE structure is used to represent a base queue its pcHead and
  94:freertos\src/queue.c **** pcTail members are used as pointers into the queue storage area.  When the
  95:freertos\src/queue.c **** xQUEUE structure is used to represent a mutex pcHead and pcTail pointers are
  96:freertos\src/queue.c **** not necessary, and the pcHead pointer is set to NULL to indicate that the
  97:freertos\src/queue.c **** pcTail pointer actually points to the mutex holder (if any).  Map alternative
  98:freertos\src/queue.c **** names to the pcHead and pcTail structure members to ensure the readability of
  99:freertos\src/queue.c **** the code is maintained despite this dual use of two structure members.  An
 100:freertos\src/queue.c **** alternative implementation would be to use a union, but use of a union is
 101:freertos\src/queue.c **** against the coding standard (although an exception to the standard has been
 102:freertos\src/queue.c **** permitted where the dual use also significantly changes the type of the
 103:freertos\src/queue.c **** structure member). */
 104:freertos\src/queue.c **** #define pxMutexHolder					pcTail
 105:freertos\src/queue.c **** #define uxQueueType						pcHead
 106:freertos\src/queue.c **** #define queueQUEUE_IS_MUTEX				NULL
 107:freertos\src/queue.c **** 
 108:freertos\src/queue.c **** /* Semaphores do not actually store or copy data, so have an item size of
 109:freertos\src/queue.c **** zero. */
 110:freertos\src/queue.c **** #define queueSEMAPHORE_QUEUE_ITEM_LENGTH ( ( unsigned portBASE_TYPE ) 0 )
 111:freertos\src/queue.c **** #define queueMUTEX_GIVE_BLOCK_TIME		 ( ( portTickType ) 0U )
 112:freertos\src/queue.c **** 
 113:freertos\src/queue.c **** #if( configUSE_PREEMPTION == 0 )
 114:freertos\src/queue.c **** 	/* If the cooperative scheduler is being used then a yield should not be
 115:freertos\src/queue.c **** 	performed just because a higher priority task has been woken. */
 116:freertos\src/queue.c **** 	#define queueYIELD_IF_USING_PREEMPTION()
 117:freertos\src/queue.c **** #else
 118:freertos\src/queue.c **** 	#define queueYIELD_IF_USING_PREEMPTION() portYIELD_WITHIN_API()
 119:freertos\src/queue.c **** #endif
 120:freertos\src/queue.c **** 
 121:freertos\src/queue.c **** /*
 122:freertos\src/queue.c ****  * Definition of the queue used by the scheduler.
 123:freertos\src/queue.c ****  * Items are queued by copy, not reference.
 124:freertos\src/queue.c ****  */
 125:freertos\src/queue.c **** typedef struct QueueDefinition
 126:freertos\src/queue.c **** {
 127:freertos\src/queue.c **** 	signed char *pcHead;					/*< Points to the beginning of the queue storage area. */
 128:freertos\src/queue.c **** 	signed char *pcTail;					/*< Points to the byte at the end of the queue storage area.  Once more b
 129:freertos\src/queue.c **** 
 130:freertos\src/queue.c **** 	signed char *pcWriteTo;					/*< Points to the free next place in the storage area. */
 131:freertos\src/queue.c **** 
 132:freertos\src/queue.c **** 	union									/* Use of a union is an exception to the coding standard to ensure two mutually excl
 133:freertos\src/queue.c **** 	{
 134:freertos\src/queue.c **** 		signed char *pcReadFrom;			/*< Points to the last place that a queued item was read from when the
 135:freertos\src/queue.c **** 		unsigned portBASE_TYPE uxRecursiveCallCount;/*< Maintains a count of the numebr of times a recurs
 136:freertos\src/queue.c **** 	} u;
 137:freertos\src/queue.c **** 
 138:freertos\src/queue.c **** 	xList xTasksWaitingToSend;				/*< List of tasks that are blocked waiting to post onto this queue. 
 139:freertos\src/queue.c **** 	xList xTasksWaitingToReceive;			/*< List of tasks that are blocked waiting to read from this queue
 140:freertos\src/queue.c **** 
 141:freertos\src/queue.c **** 	volatile unsigned portBASE_TYPE uxMessagesWaiting;/*< The number of items currently in the queue. 
 142:freertos\src/queue.c **** 	unsigned portBASE_TYPE uxLength;		/*< The length of the queue defined as the number of items it wi
 143:freertos\src/queue.c **** 	unsigned portBASE_TYPE uxItemSize;		/*< The size of each items that the queue will hold. */
 144:freertos\src/queue.c **** 
 145:freertos\src/queue.c **** 	volatile signed portBASE_TYPE xRxLock;	/*< Stores the number of items received from the queue (rem
ARM GAS  C:\Users\VIDEOH~1\AppData\Local\Temp\cc1cRMdm.s 			page 4


 146:freertos\src/queue.c **** 	volatile signed portBASE_TYPE xTxLock;	/*< Stores the number of items transmitted to the queue (ad
 147:freertos\src/queue.c **** 
 148:freertos\src/queue.c **** 	#if ( configUSE_TRACE_FACILITY == 1 )
 149:freertos\src/queue.c **** 		unsigned char ucQueueNumber;
 150:freertos\src/queue.c **** 		unsigned char ucQueueType;
 151:freertos\src/queue.c **** 	#endif
 152:freertos\src/queue.c **** 
 153:freertos\src/queue.c **** 	#if ( configUSE_QUEUE_SETS == 1 )
 154:freertos\src/queue.c **** 		struct QueueDefinition *pxQueueSetContainer;
 155:freertos\src/queue.c **** 	#endif
 156:freertos\src/queue.c **** 
 157:freertos\src/queue.c **** } xQUEUE;
 158:freertos\src/queue.c **** /*-----------------------------------------------------------*/
 159:freertos\src/queue.c **** 
 160:freertos\src/queue.c **** /*
 161:freertos\src/queue.c ****  * The queue registry is just a means for kernel aware debuggers to locate
 162:freertos\src/queue.c ****  * queue structures.  It has no other purpose so is an optional component.
 163:freertos\src/queue.c ****  */
 164:freertos\src/queue.c **** #if ( configQUEUE_REGISTRY_SIZE > 0 )
 165:freertos\src/queue.c **** 
 166:freertos\src/queue.c **** 	/* The type stored within the queue registry array.  This allows a name
 167:freertos\src/queue.c **** 	to be assigned to each queue making kernel aware debugging a little
 168:freertos\src/queue.c **** 	more user friendly. */
 169:freertos\src/queue.c **** 	typedef struct QUEUE_REGISTRY_ITEM
 170:freertos\src/queue.c **** 	{
 171:freertos\src/queue.c **** 		signed char *pcQueueName;
 172:freertos\src/queue.c **** 		xQueueHandle xHandle;
 173:freertos\src/queue.c **** 	} xQueueRegistryItem;
 174:freertos\src/queue.c **** 
 175:freertos\src/queue.c **** 	/* The queue registry is simply an array of xQueueRegistryItem structures.
 176:freertos\src/queue.c **** 	The pcQueueName member of a structure being NULL is indicative of the
 177:freertos\src/queue.c **** 	array position being vacant. */
 178:freertos\src/queue.c **** 	xQueueRegistryItem xQueueRegistry[ configQUEUE_REGISTRY_SIZE ];
 179:freertos\src/queue.c **** 
 180:freertos\src/queue.c **** #endif /* configQUEUE_REGISTRY_SIZE */
 181:freertos\src/queue.c **** 
 182:freertos\src/queue.c **** /*
 183:freertos\src/queue.c ****  * Unlocks a queue locked by a call to prvLockQueue.  Locking a queue does not
 184:freertos\src/queue.c ****  * prevent an ISR from adding or removing items to the queue, but does prevent
 185:freertos\src/queue.c ****  * an ISR from removing tasks from the queue event lists.  If an ISR finds a
 186:freertos\src/queue.c ****  * queue is locked it will instead increment the appropriate queue lock count
 187:freertos\src/queue.c ****  * to indicate that a task may require unblocking.  When the queue in unlocked
 188:freertos\src/queue.c ****  * these lock counts are inspected, and the appropriate action taken.
 189:freertos\src/queue.c ****  */
 190:freertos\src/queue.c **** static void prvUnlockQueue( xQUEUE *pxQueue ) PRIVILEGED_FUNCTION;
 191:freertos\src/queue.c **** 
 192:freertos\src/queue.c **** /*
 193:freertos\src/queue.c ****  * Uses a critical section to determine if there is any data in a queue.
 194:freertos\src/queue.c ****  *
 195:freertos\src/queue.c ****  * @return pdTRUE if the queue contains no items, otherwise pdFALSE.
 196:freertos\src/queue.c ****  */
 197:freertos\src/queue.c **** static signed portBASE_TYPE prvIsQueueEmpty( const xQUEUE *pxQueue ) PRIVILEGED_FUNCTION;
 198:freertos\src/queue.c **** 
 199:freertos\src/queue.c **** /*
 200:freertos\src/queue.c ****  * Uses a critical section to determine if there is any space in a queue.
 201:freertos\src/queue.c ****  *
 202:freertos\src/queue.c ****  * @return pdTRUE if there is no space, otherwise pdFALSE;
ARM GAS  C:\Users\VIDEOH~1\AppData\Local\Temp\cc1cRMdm.s 			page 5


 203:freertos\src/queue.c ****  */
 204:freertos\src/queue.c **** static signed portBASE_TYPE prvIsQueueFull( const xQUEUE *pxQueue ) PRIVILEGED_FUNCTION;
 205:freertos\src/queue.c **** 
 206:freertos\src/queue.c **** /*
 207:freertos\src/queue.c ****  * Copies an item into the queue, either at the front of the queue or the
 208:freertos\src/queue.c ****  * back of the queue.
 209:freertos\src/queue.c ****  */
 210:freertos\src/queue.c **** static void prvCopyDataToQueue( xQUEUE *pxQueue, const void *pvItemToQueue, portBASE_TYPE xPosition
 211:freertos\src/queue.c **** 
 212:freertos\src/queue.c **** /*
 213:freertos\src/queue.c ****  * Copies an item out of a queue.
 214:freertos\src/queue.c ****  */
 215:freertos\src/queue.c **** static void prvCopyDataFromQueue( xQUEUE * const pxQueue, void * const pvBuffer ) PRIVILEGED_FUNCTI
 216:freertos\src/queue.c **** 
 217:freertos\src/queue.c **** #if ( configUSE_QUEUE_SETS == 1 )
 218:freertos\src/queue.c **** 	/*
 219:freertos\src/queue.c **** 	 * Checks to see if a queue is a member of a queue set, and if so, notifies
 220:freertos\src/queue.c **** 	 * the queue set that the queue contains data.
 221:freertos\src/queue.c **** 	 */
 222:freertos\src/queue.c **** 	static portBASE_TYPE prvNotifyQueueSetContainer( const xQUEUE * const pxQueue, portBASE_TYPE xCopy
 223:freertos\src/queue.c **** #endif
 224:freertos\src/queue.c **** 
 225:freertos\src/queue.c **** /*-----------------------------------------------------------*/
 226:freertos\src/queue.c **** 
 227:freertos\src/queue.c **** /*
 228:freertos\src/queue.c ****  * Macro to mark a queue as locked.  Locking a queue prevents an ISR from
 229:freertos\src/queue.c ****  * accessing the queue event lists.
 230:freertos\src/queue.c ****  */
 231:freertos\src/queue.c **** #define prvLockQueue( pxQueue )								\
 232:freertos\src/queue.c **** 	taskENTER_CRITICAL();									\
 233:freertos\src/queue.c **** 	{														\
 234:freertos\src/queue.c **** 		if( ( pxQueue )->xRxLock == queueUNLOCKED )			\
 235:freertos\src/queue.c **** 		{													\
 236:freertos\src/queue.c **** 			( pxQueue )->xRxLock = queueLOCKED_UNMODIFIED;	\
 237:freertos\src/queue.c **** 		}													\
 238:freertos\src/queue.c **** 		if( ( pxQueue )->xTxLock == queueUNLOCKED )			\
 239:freertos\src/queue.c **** 		{													\
 240:freertos\src/queue.c **** 			( pxQueue )->xTxLock = queueLOCKED_UNMODIFIED;	\
 241:freertos\src/queue.c **** 		}													\
 242:freertos\src/queue.c **** 	}														\
 243:freertos\src/queue.c **** 	taskEXIT_CRITICAL()
 244:freertos\src/queue.c **** /*-----------------------------------------------------------*/
 245:freertos\src/queue.c **** 
 246:freertos\src/queue.c **** portBASE_TYPE xQueueGenericReset( xQueueHandle xQueue, portBASE_TYPE xNewQueue )
 247:freertos\src/queue.c **** {
 248:freertos\src/queue.c **** xQUEUE * const pxQueue = ( xQUEUE * ) xQueue;
 249:freertos\src/queue.c **** 
 250:freertos\src/queue.c **** 	configASSERT( pxQueue );
 251:freertos\src/queue.c **** 
 252:freertos\src/queue.c **** 	taskENTER_CRITICAL();
 253:freertos\src/queue.c **** 	{
 254:freertos\src/queue.c **** 		pxQueue->pcTail = pxQueue->pcHead + ( pxQueue->uxLength * pxQueue->uxItemSize );
 255:freertos\src/queue.c **** 		pxQueue->uxMessagesWaiting = ( unsigned portBASE_TYPE ) 0U;
 256:freertos\src/queue.c **** 		pxQueue->pcWriteTo = pxQueue->pcHead;
 257:freertos\src/queue.c **** 		pxQueue->u.pcReadFrom = pxQueue->pcHead + ( ( pxQueue->uxLength - ( unsigned portBASE_TYPE ) 1U )
 258:freertos\src/queue.c **** 		pxQueue->xRxLock = queueUNLOCKED;
 259:freertos\src/queue.c **** 		pxQueue->xTxLock = queueUNLOCKED;
ARM GAS  C:\Users\VIDEOH~1\AppData\Local\Temp\cc1cRMdm.s 			page 6


 260:freertos\src/queue.c **** 
 261:freertos\src/queue.c **** 		if( xNewQueue == pdFALSE )
 262:freertos\src/queue.c **** 		{
 263:freertos\src/queue.c **** 			/* If there are tasks blocked waiting to read from the queue, then
 264:freertos\src/queue.c **** 			the tasks will remain blocked as after this function exits the queue
 265:freertos\src/queue.c **** 			will still be empty.  If there are tasks blocked waiting to write to
 266:freertos\src/queue.c **** 			the queue, then one should be unblocked as after this function exits
 267:freertos\src/queue.c **** 			it will be possible to write to it. */
 268:freertos\src/queue.c **** 			if( listLIST_IS_EMPTY( &( pxQueue->xTasksWaitingToSend ) ) == pdFALSE )
 269:freertos\src/queue.c **** 			{
 270:freertos\src/queue.c **** 				if( xTaskRemoveFromEventList( &( pxQueue->xTasksWaitingToSend ) ) == pdTRUE )
 271:freertos\src/queue.c **** 				{
 272:freertos\src/queue.c **** 					queueYIELD_IF_USING_PREEMPTION();
 273:freertos\src/queue.c **** 				}
 274:freertos\src/queue.c **** 			}
 275:freertos\src/queue.c **** 		}
 276:freertos\src/queue.c **** 		else
 277:freertos\src/queue.c **** 		{
 278:freertos\src/queue.c **** 			/* Ensure the event queues start in the correct state. */
 279:freertos\src/queue.c **** 			vListInitialise( &( pxQueue->xTasksWaitingToSend ) );
 280:freertos\src/queue.c **** 			vListInitialise( &( pxQueue->xTasksWaitingToReceive ) );
 281:freertos\src/queue.c **** 		}
 282:freertos\src/queue.c **** 	}
 283:freertos\src/queue.c **** 	taskEXIT_CRITICAL();
 284:freertos\src/queue.c **** 
 285:freertos\src/queue.c **** 	/* A value is returned for calling semantic consistency with previous
 286:freertos\src/queue.c **** 	versions. */
 287:freertos\src/queue.c **** 	return pdPASS;
 288:freertos\src/queue.c **** }
 289:freertos\src/queue.c **** /*-----------------------------------------------------------*/
 290:freertos\src/queue.c **** 
 291:freertos\src/queue.c **** xQueueHandle xQueueGenericCreate( unsigned portBASE_TYPE uxQueueLength, unsigned portBASE_TYPE uxIt
 292:freertos\src/queue.c **** {
 293:freertos\src/queue.c **** xQUEUE *pxNewQueue;
 294:freertos\src/queue.c **** size_t xQueueSizeInBytes;
 295:freertos\src/queue.c **** xQueueHandle xReturn = NULL;
 296:freertos\src/queue.c **** 
 297:freertos\src/queue.c **** 	/* Remove compiler warnings about unused parameters should
 298:freertos\src/queue.c **** 	configUSE_TRACE_FACILITY not be set to 1. */
 299:freertos\src/queue.c **** 	( void ) ucQueueType;
 300:freertos\src/queue.c **** 
 301:freertos\src/queue.c **** 	/* Allocate the new queue structure. */
 302:freertos\src/queue.c **** 	if( uxQueueLength > ( unsigned portBASE_TYPE ) 0 )
 303:freertos\src/queue.c **** 	{
 304:freertos\src/queue.c **** 		pxNewQueue = ( xQUEUE * ) pvPortMalloc( sizeof( xQUEUE ) );
 305:freertos\src/queue.c **** 		if( pxNewQueue != NULL )
 306:freertos\src/queue.c **** 		{
 307:freertos\src/queue.c **** 			/* Create the list of pointers to queue items.  The queue is one byte
 308:freertos\src/queue.c **** 			longer than asked for to make wrap checking easier/faster. */
 309:freertos\src/queue.c **** 			xQueueSizeInBytes = ( size_t ) ( uxQueueLength * uxItemSize ) + ( size_t ) 1; /*lint !e961 MISRA
 310:freertos\src/queue.c **** 
 311:freertos\src/queue.c **** 			pxNewQueue->pcHead = ( signed char * ) pvPortMalloc( xQueueSizeInBytes );
 312:freertos\src/queue.c **** 			if( pxNewQueue->pcHead != NULL )
 313:freertos\src/queue.c **** 			{
 314:freertos\src/queue.c **** 				/* Initialise the queue members as described above where the
 315:freertos\src/queue.c **** 				queue type is defined. */
 316:freertos\src/queue.c **** 				pxNewQueue->uxLength = uxQueueLength;
ARM GAS  C:\Users\VIDEOH~1\AppData\Local\Temp\cc1cRMdm.s 			page 7


 317:freertos\src/queue.c **** 				pxNewQueue->uxItemSize = uxItemSize;
 318:freertos\src/queue.c **** 				( void ) xQueueGenericReset( pxNewQueue, pdTRUE );
 319:freertos\src/queue.c **** 
 320:freertos\src/queue.c **** 				#if ( configUSE_TRACE_FACILITY == 1 )
 321:freertos\src/queue.c **** 				{
 322:freertos\src/queue.c **** 					pxNewQueue->ucQueueType = ucQueueType;
 323:freertos\src/queue.c **** 				}
 324:freertos\src/queue.c **** 				#endif /* configUSE_TRACE_FACILITY */
 325:freertos\src/queue.c **** 
 326:freertos\src/queue.c **** 				#if( configUSE_QUEUE_SETS == 1 )
 327:freertos\src/queue.c **** 				{
 328:freertos\src/queue.c **** 					pxNewQueue->pxQueueSetContainer = NULL;
 329:freertos\src/queue.c **** 				}
 330:freertos\src/queue.c **** 				#endif /* configUSE_QUEUE_SETS */
 331:freertos\src/queue.c **** 
 332:freertos\src/queue.c **** 				traceQUEUE_CREATE( pxNewQueue );
 333:freertos\src/queue.c **** 				xReturn = pxNewQueue;
 334:freertos\src/queue.c **** 			}
 335:freertos\src/queue.c **** 			else
 336:freertos\src/queue.c **** 			{
 337:freertos\src/queue.c **** 				traceQUEUE_CREATE_FAILED( ucQueueType );
 338:freertos\src/queue.c **** 				vPortFree( pxNewQueue );
 339:freertos\src/queue.c **** 			}
 340:freertos\src/queue.c **** 		}
 341:freertos\src/queue.c **** 	}
 342:freertos\src/queue.c **** 
 343:freertos\src/queue.c **** 	configASSERT( xReturn );
 344:freertos\src/queue.c **** 
 345:freertos\src/queue.c **** 	return xReturn;
 346:freertos\src/queue.c **** }
 347:freertos\src/queue.c **** /*-----------------------------------------------------------*/
 348:freertos\src/queue.c **** 
 349:freertos\src/queue.c **** #if ( configUSE_MUTEXES == 1 )
 350:freertos\src/queue.c **** 
 351:freertos\src/queue.c **** 	xQueueHandle xQueueCreateMutex( unsigned char ucQueueType )
 352:freertos\src/queue.c **** 	{
 353:freertos\src/queue.c **** 	xQUEUE *pxNewQueue;
 354:freertos\src/queue.c **** 
 355:freertos\src/queue.c **** 		/* Prevent compiler warnings about unused parameters if
 356:freertos\src/queue.c **** 		configUSE_TRACE_FACILITY does not equal 1. */
 357:freertos\src/queue.c **** 		( void ) ucQueueType;
 358:freertos\src/queue.c **** 
 359:freertos\src/queue.c **** 		/* Allocate the new queue structure. */
 360:freertos\src/queue.c **** 		pxNewQueue = ( xQUEUE * ) pvPortMalloc( sizeof( xQUEUE ) );
 361:freertos\src/queue.c **** 		if( pxNewQueue != NULL )
 362:freertos\src/queue.c **** 		{
 363:freertos\src/queue.c **** 			/* Information required for priority inheritance. */
 364:freertos\src/queue.c **** 			pxNewQueue->pxMutexHolder = NULL;
 365:freertos\src/queue.c **** 			pxNewQueue->uxQueueType = queueQUEUE_IS_MUTEX;
 366:freertos\src/queue.c **** 
 367:freertos\src/queue.c **** 			/* Queues used as a mutex no data is actually copied into or out
 368:freertos\src/queue.c **** 			of the queue. */
 369:freertos\src/queue.c **** 			pxNewQueue->pcWriteTo = NULL;
 370:freertos\src/queue.c **** 			pxNewQueue->u.pcReadFrom = NULL;
 371:freertos\src/queue.c **** 
 372:freertos\src/queue.c **** 			/* Each mutex has a length of 1 (like a binary semaphore) and
 373:freertos\src/queue.c **** 			an item size of 0 as nothing is actually copied into or out
ARM GAS  C:\Users\VIDEOH~1\AppData\Local\Temp\cc1cRMdm.s 			page 8


 374:freertos\src/queue.c **** 			of the mutex. */
 375:freertos\src/queue.c **** 			pxNewQueue->uxMessagesWaiting = ( unsigned portBASE_TYPE ) 0U;
 376:freertos\src/queue.c **** 			pxNewQueue->uxLength = ( unsigned portBASE_TYPE ) 1U;
 377:freertos\src/queue.c **** 			pxNewQueue->uxItemSize = ( unsigned portBASE_TYPE ) 0U;
 378:freertos\src/queue.c **** 			pxNewQueue->xRxLock = queueUNLOCKED;
 379:freertos\src/queue.c **** 			pxNewQueue->xTxLock = queueUNLOCKED;
 380:freertos\src/queue.c **** 
 381:freertos\src/queue.c **** 			#if ( configUSE_TRACE_FACILITY == 1 )
 382:freertos\src/queue.c **** 			{
 383:freertos\src/queue.c **** 				pxNewQueue->ucQueueType = ucQueueType;
 384:freertos\src/queue.c **** 			}
 385:freertos\src/queue.c **** 			#endif
 386:freertos\src/queue.c **** 
 387:freertos\src/queue.c **** 			#if ( configUSE_QUEUE_SETS == 1 )
 388:freertos\src/queue.c **** 			{
 389:freertos\src/queue.c **** 				pxNewQueue->pxQueueSetContainer = NULL;
 390:freertos\src/queue.c **** 			}
 391:freertos\src/queue.c **** 			#endif
 392:freertos\src/queue.c **** 
 393:freertos\src/queue.c **** 			/* Ensure the event queues start with the correct state. */
 394:freertos\src/queue.c **** 			vListInitialise( &( pxNewQueue->xTasksWaitingToSend ) );
 395:freertos\src/queue.c **** 			vListInitialise( &( pxNewQueue->xTasksWaitingToReceive ) );
 396:freertos\src/queue.c **** 
 397:freertos\src/queue.c **** 			traceCREATE_MUTEX( pxNewQueue );
 398:freertos\src/queue.c **** 
 399:freertos\src/queue.c **** 			/* Start with the semaphore in the expected state. */
 400:freertos\src/queue.c **** 			( void ) xQueueGenericSend( pxNewQueue, NULL, ( portTickType ) 0U, queueSEND_TO_BACK );
 401:freertos\src/queue.c **** 		}
 402:freertos\src/queue.c **** 		else
 403:freertos\src/queue.c **** 		{
 404:freertos\src/queue.c **** 			traceCREATE_MUTEX_FAILED();
 405:freertos\src/queue.c **** 		}
 406:freertos\src/queue.c **** 
 407:freertos\src/queue.c **** 		configASSERT( pxNewQueue );
 408:freertos\src/queue.c **** 		return pxNewQueue;
 409:freertos\src/queue.c **** 	}
 410:freertos\src/queue.c **** 
 411:freertos\src/queue.c **** #endif /* configUSE_MUTEXES */
 412:freertos\src/queue.c **** /*-----------------------------------------------------------*/
 413:freertos\src/queue.c **** 
 414:freertos\src/queue.c **** #if ( ( configUSE_MUTEXES == 1 ) && ( INCLUDE_xSemaphoreGetMutexHolder == 1 ) )
 415:freertos\src/queue.c **** 
 416:freertos\src/queue.c **** 	void* xQueueGetMutexHolder( xQueueHandle xSemaphore )
 417:freertos\src/queue.c **** 	{
 418:freertos\src/queue.c **** 	void *pxReturn;
 419:freertos\src/queue.c **** 
 420:freertos\src/queue.c **** 		/* This function is called by xSemaphoreGetMutexHolder(), and should not
 421:freertos\src/queue.c **** 		be called directly.  Note:  This is is a good way of determining if the
 422:freertos\src/queue.c **** 		calling task is the mutex holder, but not a good way of determining the
 423:freertos\src/queue.c **** 		identity of the mutex holder, as the holder may change between the
 424:freertos\src/queue.c **** 		following critical section exiting and the function returning. */
 425:freertos\src/queue.c **** 		taskENTER_CRITICAL();
 426:freertos\src/queue.c **** 		{
 427:freertos\src/queue.c **** 			if( ( ( xQUEUE * ) xSemaphore )->uxQueueType == queueQUEUE_IS_MUTEX )
 428:freertos\src/queue.c **** 			{
 429:freertos\src/queue.c **** 				pxReturn = ( void * ) ( ( xQUEUE * ) xSemaphore )->pxMutexHolder;
 430:freertos\src/queue.c **** 			}
ARM GAS  C:\Users\VIDEOH~1\AppData\Local\Temp\cc1cRMdm.s 			page 9


 431:freertos\src/queue.c **** 			else
 432:freertos\src/queue.c **** 			{
 433:freertos\src/queue.c **** 				pxReturn = NULL;
 434:freertos\src/queue.c **** 			}
 435:freertos\src/queue.c **** 		}
 436:freertos\src/queue.c **** 		taskEXIT_CRITICAL();
 437:freertos\src/queue.c **** 
 438:freertos\src/queue.c **** 		return pxReturn;
 439:freertos\src/queue.c **** 	}
 440:freertos\src/queue.c **** 
 441:freertos\src/queue.c **** #endif
 442:freertos\src/queue.c **** /*-----------------------------------------------------------*/
 443:freertos\src/queue.c **** 
 444:freertos\src/queue.c **** #if ( configUSE_RECURSIVE_MUTEXES == 1 )
 445:freertos\src/queue.c **** 
 446:freertos\src/queue.c **** 	portBASE_TYPE xQueueGiveMutexRecursive( xQueueHandle xMutex )
 447:freertos\src/queue.c **** 	{
 448:freertos\src/queue.c **** 	portBASE_TYPE xReturn;
 449:freertos\src/queue.c **** 	xQUEUE * const pxMutex = ( xQUEUE * ) xMutex;
 450:freertos\src/queue.c **** 
 451:freertos\src/queue.c **** 		configASSERT( pxMutex );
 452:freertos\src/queue.c **** 
 453:freertos\src/queue.c **** 		/* If this is the task that holds the mutex then pxMutexHolder will not
 454:freertos\src/queue.c **** 		change outside of this task.  If this task does not hold the mutex then
 455:freertos\src/queue.c **** 		pxMutexHolder can never coincidentally equal the tasks handle, and as
 456:freertos\src/queue.c **** 		this is the only condition we are interested in it does not matter if
 457:freertos\src/queue.c **** 		pxMutexHolder is accessed simultaneously by another task.  Therefore no
 458:freertos\src/queue.c **** 		mutual exclusion is required to test the pxMutexHolder variable. */
 459:freertos\src/queue.c **** 		if( pxMutex->pxMutexHolder == ( void * ) xTaskGetCurrentTaskHandle() ) /*lint !e961 Not a redunda
 460:freertos\src/queue.c **** 		{
 461:freertos\src/queue.c **** 			traceGIVE_MUTEX_RECURSIVE( pxMutex );
 462:freertos\src/queue.c **** 
 463:freertos\src/queue.c **** 			/* uxRecursiveCallCount cannot be zero if pxMutexHolder is equal to
 464:freertos\src/queue.c **** 			the task handle, therefore no underflow check is required.  Also,
 465:freertos\src/queue.c **** 			uxRecursiveCallCount is only modified by the mutex holder, and as
 466:freertos\src/queue.c **** 			there can only be one, no mutual exclusion is required to modify the
 467:freertos\src/queue.c **** 			uxRecursiveCallCount member. */
 468:freertos\src/queue.c **** 			( pxMutex->u.uxRecursiveCallCount )--;
 469:freertos\src/queue.c **** 
 470:freertos\src/queue.c **** 			/* Have we unwound the call count? */
 471:freertos\src/queue.c **** 			if( pxMutex->u.uxRecursiveCallCount == ( unsigned portBASE_TYPE ) 0 )
 472:freertos\src/queue.c **** 			{
 473:freertos\src/queue.c **** 				/* Return the mutex.  This will automatically unblock any other
 474:freertos\src/queue.c **** 				task that might be waiting to access the mutex. */
 475:freertos\src/queue.c **** 				( void ) xQueueGenericSend( pxMutex, NULL, queueMUTEX_GIVE_BLOCK_TIME, queueSEND_TO_BACK );
 476:freertos\src/queue.c **** 			}
 477:freertos\src/queue.c **** 
 478:freertos\src/queue.c **** 			xReturn = pdPASS;
 479:freertos\src/queue.c **** 		}
 480:freertos\src/queue.c **** 		else
 481:freertos\src/queue.c **** 		{
 482:freertos\src/queue.c **** 			/* We cannot give the mutex because we are not the holder. */
 483:freertos\src/queue.c **** 			xReturn = pdFAIL;
 484:freertos\src/queue.c **** 
 485:freertos\src/queue.c **** 			traceGIVE_MUTEX_RECURSIVE_FAILED( pxMutex );
 486:freertos\src/queue.c **** 		}
 487:freertos\src/queue.c **** 
ARM GAS  C:\Users\VIDEOH~1\AppData\Local\Temp\cc1cRMdm.s 			page 10


 488:freertos\src/queue.c **** 		return xReturn;
 489:freertos\src/queue.c **** 	}
 490:freertos\src/queue.c **** 
 491:freertos\src/queue.c **** #endif /* configUSE_RECURSIVE_MUTEXES */
 492:freertos\src/queue.c **** /*-----------------------------------------------------------*/
 493:freertos\src/queue.c **** 
 494:freertos\src/queue.c **** #if ( configUSE_RECURSIVE_MUTEXES == 1 )
 495:freertos\src/queue.c **** 
 496:freertos\src/queue.c **** 	portBASE_TYPE xQueueTakeMutexRecursive( xQueueHandle xMutex, portTickType xBlockTime )
 497:freertos\src/queue.c **** 	{
 498:freertos\src/queue.c **** 	portBASE_TYPE xReturn;
 499:freertos\src/queue.c **** 	xQUEUE * const pxMutex = ( xQUEUE * ) xMutex;
 500:freertos\src/queue.c **** 
 501:freertos\src/queue.c **** 		configASSERT( pxMutex );
 502:freertos\src/queue.c **** 
 503:freertos\src/queue.c **** 		/* Comments regarding mutual exclusion as per those within
 504:freertos\src/queue.c **** 		xQueueGiveMutexRecursive(). */
 505:freertos\src/queue.c **** 
 506:freertos\src/queue.c **** 		traceTAKE_MUTEX_RECURSIVE( pxMutex );
 507:freertos\src/queue.c **** 
 508:freertos\src/queue.c **** 		if( pxMutex->pxMutexHolder == ( void * ) xTaskGetCurrentTaskHandle() ) /*lint !e961 Cast is not r
 509:freertos\src/queue.c **** 		{
 510:freertos\src/queue.c **** 			( pxMutex->u.uxRecursiveCallCount )++;
 511:freertos\src/queue.c **** 			xReturn = pdPASS;
 512:freertos\src/queue.c **** 		}
 513:freertos\src/queue.c **** 		else
 514:freertos\src/queue.c **** 		{
 515:freertos\src/queue.c **** 			xReturn = xQueueGenericReceive( pxMutex, NULL, xBlockTime, pdFALSE );
 516:freertos\src/queue.c **** 
 517:freertos\src/queue.c **** 			/* pdPASS will only be returned if we successfully obtained the mutex,
 518:freertos\src/queue.c **** 			we may have blocked to reach here. */
 519:freertos\src/queue.c **** 			if( xReturn == pdPASS )
 520:freertos\src/queue.c **** 			{
 521:freertos\src/queue.c **** 				( pxMutex->u.uxRecursiveCallCount )++;
 522:freertos\src/queue.c **** 			}
 523:freertos\src/queue.c **** 			else
 524:freertos\src/queue.c **** 			{
 525:freertos\src/queue.c **** 				traceTAKE_MUTEX_RECURSIVE_FAILED( pxMutex );
 526:freertos\src/queue.c **** 			}
 527:freertos\src/queue.c **** 		}
 528:freertos\src/queue.c **** 
 529:freertos\src/queue.c **** 		return xReturn;
 530:freertos\src/queue.c **** 	}
 531:freertos\src/queue.c **** 
 532:freertos\src/queue.c **** #endif /* configUSE_RECURSIVE_MUTEXES */
 533:freertos\src/queue.c **** /*-----------------------------------------------------------*/
 534:freertos\src/queue.c **** 
 535:freertos\src/queue.c **** #if ( configUSE_COUNTING_SEMAPHORES == 1 )
 536:freertos\src/queue.c **** 
 537:freertos\src/queue.c **** 	xQueueHandle xQueueCreateCountingSemaphore( unsigned portBASE_TYPE uxMaxCount, unsigned portBASE_T
 538:freertos\src/queue.c **** 	{
 539:freertos\src/queue.c **** 	xQueueHandle xHandle;
 540:freertos\src/queue.c **** 
 541:freertos\src/queue.c **** 		configASSERT( uxMaxCount != 0 );
 542:freertos\src/queue.c **** 		configASSERT( uxInitialCount <= uxMaxCount );
 543:freertos\src/queue.c **** 
 544:freertos\src/queue.c **** 		xHandle = xQueueGenericCreate( uxMaxCount, queueSEMAPHORE_QUEUE_ITEM_LENGTH, queueQUEUE_TYPE_COUN
ARM GAS  C:\Users\VIDEOH~1\AppData\Local\Temp\cc1cRMdm.s 			page 11


 545:freertos\src/queue.c **** 
 546:freertos\src/queue.c **** 		if( xHandle != NULL )
 547:freertos\src/queue.c **** 		{
 548:freertos\src/queue.c **** 			( ( xQUEUE * ) xHandle )->uxMessagesWaiting = uxInitialCount;
 549:freertos\src/queue.c **** 
 550:freertos\src/queue.c **** 			traceCREATE_COUNTING_SEMAPHORE();
 551:freertos\src/queue.c **** 		}
 552:freertos\src/queue.c **** 		else
 553:freertos\src/queue.c **** 		{
 554:freertos\src/queue.c **** 			traceCREATE_COUNTING_SEMAPHORE_FAILED();
 555:freertos\src/queue.c **** 		}
 556:freertos\src/queue.c **** 
 557:freertos\src/queue.c **** 		configASSERT( xHandle );
 558:freertos\src/queue.c **** 		return xHandle;
 559:freertos\src/queue.c **** 	}
 560:freertos\src/queue.c **** 
 561:freertos\src/queue.c **** #endif /* configUSE_COUNTING_SEMAPHORES */
 562:freertos\src/queue.c **** /*-----------------------------------------------------------*/
 563:freertos\src/queue.c **** 
 564:freertos\src/queue.c **** signed portBASE_TYPE xQueueGenericSend( xQueueHandle xQueue, const void * const pvItemToQueue, port
 565:freertos\src/queue.c **** {
 566:freertos\src/queue.c **** signed portBASE_TYPE xEntryTimeSet = pdFALSE;
 567:freertos\src/queue.c **** xTimeOutType xTimeOut;
 568:freertos\src/queue.c **** xQUEUE * const pxQueue = ( xQUEUE * ) xQueue;
 569:freertos\src/queue.c **** 
 570:freertos\src/queue.c **** 	configASSERT( pxQueue );
 571:freertos\src/queue.c **** 	configASSERT( !( ( pvItemToQueue == NULL ) && ( pxQueue->uxItemSize != ( unsigned portBASE_TYPE ) 
 572:freertos\src/queue.c **** 	configASSERT( !( ( xCopyPosition == queueOVERWRITE ) && ( pxQueue->uxLength != 1 ) ) );
 573:freertos\src/queue.c **** 
 574:freertos\src/queue.c **** 	/* This function relaxes the coding standard somewhat to allow return
 575:freertos\src/queue.c **** 	statements within the function itself.  This is done in the interest
 576:freertos\src/queue.c **** 	of execution time efficiency. */
 577:freertos\src/queue.c **** 	for( ;; )
 578:freertos\src/queue.c **** 	{
 579:freertos\src/queue.c **** 		taskENTER_CRITICAL();
 580:freertos\src/queue.c **** 		{
 581:freertos\src/queue.c **** 			/* Is there room on the queue now?  The running task must be
 582:freertos\src/queue.c **** 			the highest priority task wanting to access the queue.  If
 583:freertos\src/queue.c **** 			the head item in the queue is to be overwritten then it does
 584:freertos\src/queue.c **** 			not matter if the queue is full. */
 585:freertos\src/queue.c **** 			if( ( pxQueue->uxMessagesWaiting < pxQueue->uxLength ) || ( xCopyPosition == queueOVERWRITE ) )
 586:freertos\src/queue.c **** 			{
 587:freertos\src/queue.c **** 				traceQUEUE_SEND( pxQueue );
 588:freertos\src/queue.c **** 				prvCopyDataToQueue( pxQueue, pvItemToQueue, xCopyPosition );
 589:freertos\src/queue.c **** 
 590:freertos\src/queue.c **** 				#if ( configUSE_QUEUE_SETS == 1 )
 591:freertos\src/queue.c **** 				{
 592:freertos\src/queue.c **** 					if( pxQueue->pxQueueSetContainer != NULL )
 593:freertos\src/queue.c **** 					{
 594:freertos\src/queue.c **** 						if( prvNotifyQueueSetContainer( pxQueue, xCopyPosition ) == pdTRUE )
 595:freertos\src/queue.c **** 						{
 596:freertos\src/queue.c **** 							/* The queue is a member of a queue set, and posting
 597:freertos\src/queue.c **** 							to the queue set caused a higher priority task to
 598:freertos\src/queue.c **** 							unblock. A context switch is required. */
 599:freertos\src/queue.c **** 							queueYIELD_IF_USING_PREEMPTION();
 600:freertos\src/queue.c **** 						}
 601:freertos\src/queue.c **** 					}
ARM GAS  C:\Users\VIDEOH~1\AppData\Local\Temp\cc1cRMdm.s 			page 12


 602:freertos\src/queue.c **** 					else
 603:freertos\src/queue.c **** 					{
 604:freertos\src/queue.c **** 						/* If there was a task waiting for data to arrive on the
 605:freertos\src/queue.c **** 						queue then unblock it now. */
 606:freertos\src/queue.c **** 						if( listLIST_IS_EMPTY( &( pxQueue->xTasksWaitingToReceive ) ) == pdFALSE )
 607:freertos\src/queue.c **** 						{
 608:freertos\src/queue.c **** 							if( xTaskRemoveFromEventList( &( pxQueue->xTasksWaitingToReceive ) ) == pdTRUE )
 609:freertos\src/queue.c **** 							{
 610:freertos\src/queue.c **** 								/* The unblocked task has a priority higher than
 611:freertos\src/queue.c **** 								our own so yield immediately.  Yes it is ok to
 612:freertos\src/queue.c **** 								do this from within the critical section - the
 613:freertos\src/queue.c **** 								kernel takes care of that. */
 614:freertos\src/queue.c **** 								queueYIELD_IF_USING_PREEMPTION();
 615:freertos\src/queue.c **** 							}
 616:freertos\src/queue.c **** 						}
 617:freertos\src/queue.c **** 					}
 618:freertos\src/queue.c **** 				}
 619:freertos\src/queue.c **** 				#else /* configUSE_QUEUE_SETS */
 620:freertos\src/queue.c **** 				{
 621:freertos\src/queue.c **** 					/* If there was a task waiting for data to arrive on the
 622:freertos\src/queue.c **** 					queue then unblock it now. */
 623:freertos\src/queue.c **** 					if( listLIST_IS_EMPTY( &( pxQueue->xTasksWaitingToReceive ) ) == pdFALSE )
 624:freertos\src/queue.c **** 					{
 625:freertos\src/queue.c **** 						if( xTaskRemoveFromEventList( &( pxQueue->xTasksWaitingToReceive ) ) == pdTRUE )
 626:freertos\src/queue.c **** 						{
 627:freertos\src/queue.c **** 							/* The unblocked task has a priority higher than
 628:freertos\src/queue.c **** 							our own so yield immediately.  Yes it is ok to do
 629:freertos\src/queue.c **** 							this from within the critical section - the kernel
 630:freertos\src/queue.c **** 							takes care of that. */
 631:freertos\src/queue.c **** 							queueYIELD_IF_USING_PREEMPTION();
 632:freertos\src/queue.c **** 						}
 633:freertos\src/queue.c **** 					}
 634:freertos\src/queue.c **** 				}
 635:freertos\src/queue.c **** 				#endif /* configUSE_QUEUE_SETS */
 636:freertos\src/queue.c **** 
 637:freertos\src/queue.c **** 				taskEXIT_CRITICAL();
 638:freertos\src/queue.c **** 
 639:freertos\src/queue.c **** 				/* Return to the original privilege level before exiting the
 640:freertos\src/queue.c **** 				function. */
 641:freertos\src/queue.c **** 				return pdPASS;
 642:freertos\src/queue.c **** 			}
 643:freertos\src/queue.c **** 			else
 644:freertos\src/queue.c **** 			{
 645:freertos\src/queue.c **** 				if( xTicksToWait == ( portTickType ) 0 )
 646:freertos\src/queue.c **** 				{
 647:freertos\src/queue.c **** 					/* The queue was full and no block time is specified (or
 648:freertos\src/queue.c **** 					the block time has expired) so leave now. */
 649:freertos\src/queue.c **** 					taskEXIT_CRITICAL();
 650:freertos\src/queue.c **** 
 651:freertos\src/queue.c **** 					/* Return to the original privilege level before exiting
 652:freertos\src/queue.c **** 					the function. */
 653:freertos\src/queue.c **** 					traceQUEUE_SEND_FAILED( pxQueue );
 654:freertos\src/queue.c **** 					return errQUEUE_FULL;
 655:freertos\src/queue.c **** 				}
 656:freertos\src/queue.c **** 				else if( xEntryTimeSet == pdFALSE )
 657:freertos\src/queue.c **** 				{
 658:freertos\src/queue.c **** 					/* The queue was full and a block time was specified so
ARM GAS  C:\Users\VIDEOH~1\AppData\Local\Temp\cc1cRMdm.s 			page 13


 659:freertos\src/queue.c **** 					configure the timeout structure. */
 660:freertos\src/queue.c **** 					vTaskSetTimeOutState( &xTimeOut );
 661:freertos\src/queue.c **** 					xEntryTimeSet = pdTRUE;
 662:freertos\src/queue.c **** 				}
 663:freertos\src/queue.c **** 				else
 664:freertos\src/queue.c **** 				{
 665:freertos\src/queue.c **** 					/* Entry time was already set. */
 666:freertos\src/queue.c **** 				}
 667:freertos\src/queue.c **** 			}
 668:freertos\src/queue.c **** 		}
 669:freertos\src/queue.c **** 		taskEXIT_CRITICAL();
 670:freertos\src/queue.c **** 
 671:freertos\src/queue.c **** 		/* Interrupts and other tasks can send to and receive from the queue
 672:freertos\src/queue.c **** 		now the critical section has been exited. */
 673:freertos\src/queue.c **** 
 674:freertos\src/queue.c **** 		vTaskSuspendAll();
 675:freertos\src/queue.c **** 		prvLockQueue( pxQueue );
 676:freertos\src/queue.c **** 
 677:freertos\src/queue.c **** 		/* Update the timeout state to see if it has expired yet. */
 678:freertos\src/queue.c **** 		if( xTaskCheckForTimeOut( &xTimeOut, &xTicksToWait ) == pdFALSE )
 679:freertos\src/queue.c **** 		{
 680:freertos\src/queue.c **** 			if( prvIsQueueFull( pxQueue ) != pdFALSE )
 681:freertos\src/queue.c **** 			{
 682:freertos\src/queue.c **** 				traceBLOCKING_ON_QUEUE_SEND( pxQueue );
 683:freertos\src/queue.c **** 				vTaskPlaceOnEventList( &( pxQueue->xTasksWaitingToSend ), xTicksToWait );
 684:freertos\src/queue.c **** 
 685:freertos\src/queue.c **** 				/* Unlocking the queue means queue events can effect the
 686:freertos\src/queue.c **** 				event list.  It is possible	that interrupts occurring now
 687:freertos\src/queue.c **** 				remove this task from the event	list again - but as the
 688:freertos\src/queue.c **** 				scheduler is suspended the task will go onto the pending
 689:freertos\src/queue.c **** 				ready last instead of the actual ready list. */
 690:freertos\src/queue.c **** 				prvUnlockQueue( pxQueue );
 691:freertos\src/queue.c **** 
 692:freertos\src/queue.c **** 				/* Resuming the scheduler will move tasks from the pending
 693:freertos\src/queue.c **** 				ready list into the ready list - so it is feasible that this
 694:freertos\src/queue.c **** 				task is already in a ready list before it yields - in which
 695:freertos\src/queue.c **** 				case the yield will not cause a context switch unless there
 696:freertos\src/queue.c **** 				is also a higher priority task in the pending ready list. */
 697:freertos\src/queue.c **** 				if( xTaskResumeAll() == pdFALSE )
 698:freertos\src/queue.c **** 				{
 699:freertos\src/queue.c **** 					portYIELD_WITHIN_API();
 700:freertos\src/queue.c **** 				}
 701:freertos\src/queue.c **** 			}
 702:freertos\src/queue.c **** 			else
 703:freertos\src/queue.c **** 			{
 704:freertos\src/queue.c **** 				/* Try again. */
 705:freertos\src/queue.c **** 				prvUnlockQueue( pxQueue );
 706:freertos\src/queue.c **** 				( void ) xTaskResumeAll();
 707:freertos\src/queue.c **** 			}
 708:freertos\src/queue.c **** 		}
 709:freertos\src/queue.c **** 		else
 710:freertos\src/queue.c **** 		{
 711:freertos\src/queue.c **** 			/* The timeout has expired. */
 712:freertos\src/queue.c **** 			prvUnlockQueue( pxQueue );
 713:freertos\src/queue.c **** 			( void ) xTaskResumeAll();
 714:freertos\src/queue.c **** 
 715:freertos\src/queue.c **** 			/* Return to the original privilege level before exiting the
ARM GAS  C:\Users\VIDEOH~1\AppData\Local\Temp\cc1cRMdm.s 			page 14


 716:freertos\src/queue.c **** 			function. */
 717:freertos\src/queue.c **** 			traceQUEUE_SEND_FAILED( pxQueue );
 718:freertos\src/queue.c **** 			return errQUEUE_FULL;
 719:freertos\src/queue.c **** 		}
 720:freertos\src/queue.c **** 	}
 721:freertos\src/queue.c **** }
 722:freertos\src/queue.c **** /*-----------------------------------------------------------*/
 723:freertos\src/queue.c **** 
 724:freertos\src/queue.c **** #if ( configUSE_ALTERNATIVE_API == 1 )
 725:freertos\src/queue.c **** 
 726:freertos\src/queue.c **** 	signed portBASE_TYPE xQueueAltGenericSend( xQueueHandle xQueue, const void * const pvItemToQueue, 
 727:freertos\src/queue.c **** 	{
 728:freertos\src/queue.c **** 	signed portBASE_TYPE xEntryTimeSet = pdFALSE;
 729:freertos\src/queue.c **** 	xTimeOutType xTimeOut;
 730:freertos\src/queue.c **** 	xQUEUE * const pxQueue = ( xQUEUE * ) xQueue;
 731:freertos\src/queue.c **** 
 732:freertos\src/queue.c **** 		configASSERT( pxQueue );
 733:freertos\src/queue.c **** 		configASSERT( !( ( pvItemToQueue == NULL ) && ( pxQueue->uxItemSize != ( unsigned portBASE_TYPE )
 734:freertos\src/queue.c **** 
 735:freertos\src/queue.c **** 		for( ;; )
 736:freertos\src/queue.c **** 		{
 737:freertos\src/queue.c **** 			taskENTER_CRITICAL();
 738:freertos\src/queue.c **** 			{
 739:freertos\src/queue.c **** 				/* Is there room on the queue now?  To be running we must be
 740:freertos\src/queue.c **** 				the highest priority task wanting to access the queue. */
 741:freertos\src/queue.c **** 				if( pxQueue->uxMessagesWaiting < pxQueue->uxLength )
 742:freertos\src/queue.c **** 				{
 743:freertos\src/queue.c **** 					traceQUEUE_SEND( pxQueue );
 744:freertos\src/queue.c **** 					prvCopyDataToQueue( pxQueue, pvItemToQueue, xCopyPosition );
 745:freertos\src/queue.c **** 
 746:freertos\src/queue.c **** 					/* If there was a task waiting for data to arrive on the
 747:freertos\src/queue.c **** 					queue then unblock it now. */
 748:freertos\src/queue.c **** 					if( listLIST_IS_EMPTY( &( pxQueue->xTasksWaitingToReceive ) ) == pdFALSE )
 749:freertos\src/queue.c **** 					{
 750:freertos\src/queue.c **** 						if( xTaskRemoveFromEventList( &( pxQueue->xTasksWaitingToReceive ) ) == pdTRUE )
 751:freertos\src/queue.c **** 						{
 752:freertos\src/queue.c **** 							/* The unblocked task has a priority higher than
 753:freertos\src/queue.c **** 							our own so yield immediately. */
 754:freertos\src/queue.c **** 							portYIELD_WITHIN_API();
 755:freertos\src/queue.c **** 						}
 756:freertos\src/queue.c **** 					}
 757:freertos\src/queue.c **** 
 758:freertos\src/queue.c **** 					taskEXIT_CRITICAL();
 759:freertos\src/queue.c **** 					return pdPASS;
 760:freertos\src/queue.c **** 				}
 761:freertos\src/queue.c **** 				else
 762:freertos\src/queue.c **** 				{
 763:freertos\src/queue.c **** 					if( xTicksToWait == ( portTickType ) 0 )
 764:freertos\src/queue.c **** 					{
 765:freertos\src/queue.c **** 						taskEXIT_CRITICAL();
 766:freertos\src/queue.c **** 						return errQUEUE_FULL;
 767:freertos\src/queue.c **** 					}
 768:freertos\src/queue.c **** 					else if( xEntryTimeSet == pdFALSE )
 769:freertos\src/queue.c **** 					{
 770:freertos\src/queue.c **** 						vTaskSetTimeOutState( &xTimeOut );
 771:freertos\src/queue.c **** 						xEntryTimeSet = pdTRUE;
 772:freertos\src/queue.c **** 					}
ARM GAS  C:\Users\VIDEOH~1\AppData\Local\Temp\cc1cRMdm.s 			page 15


 773:freertos\src/queue.c **** 				}
 774:freertos\src/queue.c **** 			}
 775:freertos\src/queue.c **** 			taskEXIT_CRITICAL();
 776:freertos\src/queue.c **** 
 777:freertos\src/queue.c **** 			taskENTER_CRITICAL();
 778:freertos\src/queue.c **** 			{
 779:freertos\src/queue.c **** 				if( xTaskCheckForTimeOut( &xTimeOut, &xTicksToWait ) == pdFALSE )
 780:freertos\src/queue.c **** 				{
 781:freertos\src/queue.c **** 					if( prvIsQueueFull( pxQueue ) != pdFALSE )
 782:freertos\src/queue.c **** 					{
 783:freertos\src/queue.c **** 						traceBLOCKING_ON_QUEUE_SEND( pxQueue );
 784:freertos\src/queue.c **** 						vTaskPlaceOnEventList( &( pxQueue->xTasksWaitingToSend ), xTicksToWait );
 785:freertos\src/queue.c **** 						portYIELD_WITHIN_API();
 786:freertos\src/queue.c **** 					}
 787:freertos\src/queue.c **** 				}
 788:freertos\src/queue.c **** 				else
 789:freertos\src/queue.c **** 				{
 790:freertos\src/queue.c **** 					taskEXIT_CRITICAL();
 791:freertos\src/queue.c **** 					traceQUEUE_SEND_FAILED( pxQueue );
 792:freertos\src/queue.c **** 					return errQUEUE_FULL;
 793:freertos\src/queue.c **** 				}
 794:freertos\src/queue.c **** 			}
 795:freertos\src/queue.c **** 			taskEXIT_CRITICAL();
 796:freertos\src/queue.c **** 		}
 797:freertos\src/queue.c **** 	}
 798:freertos\src/queue.c **** 
 799:freertos\src/queue.c **** #endif /* configUSE_ALTERNATIVE_API */
 800:freertos\src/queue.c **** /*-----------------------------------------------------------*/
 801:freertos\src/queue.c **** 
 802:freertos\src/queue.c **** #if ( configUSE_ALTERNATIVE_API == 1 )
 803:freertos\src/queue.c **** 
 804:freertos\src/queue.c **** 	signed portBASE_TYPE xQueueAltGenericReceive( xQueueHandle xQueue, void * const pvBuffer, portTick
 805:freertos\src/queue.c **** 	{
 806:freertos\src/queue.c **** 	signed portBASE_TYPE xEntryTimeSet = pdFALSE;
 807:freertos\src/queue.c **** 	xTimeOutType xTimeOut;
 808:freertos\src/queue.c **** 	signed char *pcOriginalReadPosition;
 809:freertos\src/queue.c **** 	xQUEUE * const pxQueue = ( xQUEUE * ) xQueue;
 810:freertos\src/queue.c **** 
 811:freertos\src/queue.c **** 		configASSERT( pxQueue );
 812:freertos\src/queue.c **** 		configASSERT( !( ( pvBuffer == NULL ) && ( pxQueue->uxItemSize != ( unsigned portBASE_TYPE ) 0U )
 813:freertos\src/queue.c **** 
 814:freertos\src/queue.c **** 		for( ;; )
 815:freertos\src/queue.c **** 		{
 816:freertos\src/queue.c **** 			taskENTER_CRITICAL();
 817:freertos\src/queue.c **** 			{
 818:freertos\src/queue.c **** 				if( pxQueue->uxMessagesWaiting > ( unsigned portBASE_TYPE ) 0 )
 819:freertos\src/queue.c **** 				{
 820:freertos\src/queue.c **** 					/* Remember our read position in case we are just peeking. */
 821:freertos\src/queue.c **** 					pcOriginalReadPosition = pxQueue->u.pcReadFrom;
 822:freertos\src/queue.c **** 
 823:freertos\src/queue.c **** 					prvCopyDataFromQueue( pxQueue, pvBuffer );
 824:freertos\src/queue.c **** 
 825:freertos\src/queue.c **** 					if( xJustPeeking == pdFALSE )
 826:freertos\src/queue.c **** 					{
 827:freertos\src/queue.c **** 						traceQUEUE_RECEIVE( pxQueue );
 828:freertos\src/queue.c **** 
 829:freertos\src/queue.c **** 						/* Data is actually being removed (not just peeked). */
ARM GAS  C:\Users\VIDEOH~1\AppData\Local\Temp\cc1cRMdm.s 			page 16


 830:freertos\src/queue.c **** 						--( pxQueue->uxMessagesWaiting );
 831:freertos\src/queue.c **** 
 832:freertos\src/queue.c **** 						#if ( configUSE_MUTEXES == 1 )
 833:freertos\src/queue.c **** 						{
 834:freertos\src/queue.c **** 							if( pxQueue->uxQueueType == queueQUEUE_IS_MUTEX )
 835:freertos\src/queue.c **** 							{
 836:freertos\src/queue.c **** 								/* Record the information required to implement
 837:freertos\src/queue.c **** 								priority inheritance should it become necessary. */
 838:freertos\src/queue.c **** 								pxQueue->pxMutexHolder = ( signed char * ) xTaskGetCurrentTaskHandle();
 839:freertos\src/queue.c **** 							}
 840:freertos\src/queue.c **** 						}
 841:freertos\src/queue.c **** 						#endif
 842:freertos\src/queue.c **** 
 843:freertos\src/queue.c **** 						if( listLIST_IS_EMPTY( &( pxQueue->xTasksWaitingToSend ) ) == pdFALSE )
 844:freertos\src/queue.c **** 						{
 845:freertos\src/queue.c **** 							if( xTaskRemoveFromEventList( &( pxQueue->xTasksWaitingToSend ) ) == pdTRUE )
 846:freertos\src/queue.c **** 							{
 847:freertos\src/queue.c **** 								portYIELD_WITHIN_API();
 848:freertos\src/queue.c **** 							}
 849:freertos\src/queue.c **** 						}
 850:freertos\src/queue.c **** 					}
 851:freertos\src/queue.c **** 					else
 852:freertos\src/queue.c **** 					{
 853:freertos\src/queue.c **** 						traceQUEUE_PEEK( pxQueue );
 854:freertos\src/queue.c **** 
 855:freertos\src/queue.c **** 						/* We are not removing the data, so reset our read
 856:freertos\src/queue.c **** 						pointer. */
 857:freertos\src/queue.c **** 						pxQueue->u.pcReadFrom = pcOriginalReadPosition;
 858:freertos\src/queue.c **** 
 859:freertos\src/queue.c **** 						/* The data is being left in the queue, so see if there are
 860:freertos\src/queue.c **** 						any other tasks waiting for the data. */
 861:freertos\src/queue.c **** 						if( listLIST_IS_EMPTY( &( pxQueue->xTasksWaitingToReceive ) ) == pdFALSE )
 862:freertos\src/queue.c **** 						{
 863:freertos\src/queue.c **** 							/* Tasks that are removed from the event list will get added to
 864:freertos\src/queue.c **** 							the pending ready list as the scheduler is still suspended. */
 865:freertos\src/queue.c **** 							if( xTaskRemoveFromEventList( &( pxQueue->xTasksWaitingToReceive ) ) != pdFALSE )
 866:freertos\src/queue.c **** 							{
 867:freertos\src/queue.c **** 								/* The task waiting has a higher priority than this task. */
 868:freertos\src/queue.c **** 								portYIELD_WITHIN_API();
 869:freertos\src/queue.c **** 							}
 870:freertos\src/queue.c **** 						}
 871:freertos\src/queue.c **** 
 872:freertos\src/queue.c **** 					}
 873:freertos\src/queue.c **** 
 874:freertos\src/queue.c **** 					taskEXIT_CRITICAL();
 875:freertos\src/queue.c **** 					return pdPASS;
 876:freertos\src/queue.c **** 				}
 877:freertos\src/queue.c **** 				else
 878:freertos\src/queue.c **** 				{
 879:freertos\src/queue.c **** 					if( xTicksToWait == ( portTickType ) 0 )
 880:freertos\src/queue.c **** 					{
 881:freertos\src/queue.c **** 						taskEXIT_CRITICAL();
 882:freertos\src/queue.c **** 						traceQUEUE_RECEIVE_FAILED( pxQueue );
 883:freertos\src/queue.c **** 						return errQUEUE_EMPTY;
 884:freertos\src/queue.c **** 					}
 885:freertos\src/queue.c **** 					else if( xEntryTimeSet == pdFALSE )
 886:freertos\src/queue.c **** 					{
ARM GAS  C:\Users\VIDEOH~1\AppData\Local\Temp\cc1cRMdm.s 			page 17


 887:freertos\src/queue.c **** 						vTaskSetTimeOutState( &xTimeOut );
 888:freertos\src/queue.c **** 						xEntryTimeSet = pdTRUE;
 889:freertos\src/queue.c **** 					}
 890:freertos\src/queue.c **** 				}
 891:freertos\src/queue.c **** 			}
 892:freertos\src/queue.c **** 			taskEXIT_CRITICAL();
 893:freertos\src/queue.c **** 
 894:freertos\src/queue.c **** 			taskENTER_CRITICAL();
 895:freertos\src/queue.c **** 			{
 896:freertos\src/queue.c **** 				if( xTaskCheckForTimeOut( &xTimeOut, &xTicksToWait ) == pdFALSE )
 897:freertos\src/queue.c **** 				{
 898:freertos\src/queue.c **** 					if( prvIsQueueEmpty( pxQueue ) != pdFALSE )
 899:freertos\src/queue.c **** 					{
 900:freertos\src/queue.c **** 						traceBLOCKING_ON_QUEUE_RECEIVE( pxQueue );
 901:freertos\src/queue.c **** 
 902:freertos\src/queue.c **** 						#if ( configUSE_MUTEXES == 1 )
 903:freertos\src/queue.c **** 						{
 904:freertos\src/queue.c **** 							if( pxQueue->uxQueueType == queueQUEUE_IS_MUTEX )
 905:freertos\src/queue.c **** 							{
 906:freertos\src/queue.c **** 								portENTER_CRITICAL();
 907:freertos\src/queue.c **** 								{
 908:freertos\src/queue.c **** 									vTaskPriorityInherit( ( void * ) pxQueue->pxMutexHolder );
 909:freertos\src/queue.c **** 								}
 910:freertos\src/queue.c **** 								portEXIT_CRITICAL();
 911:freertos\src/queue.c **** 							}
 912:freertos\src/queue.c **** 						}
 913:freertos\src/queue.c **** 						#endif
 914:freertos\src/queue.c **** 
 915:freertos\src/queue.c **** 						vTaskPlaceOnEventList( &( pxQueue->xTasksWaitingToReceive ), xTicksToWait );
 916:freertos\src/queue.c **** 						portYIELD_WITHIN_API();
 917:freertos\src/queue.c **** 					}
 918:freertos\src/queue.c **** 				}
 919:freertos\src/queue.c **** 				else
 920:freertos\src/queue.c **** 				{
 921:freertos\src/queue.c **** 					taskEXIT_CRITICAL();
 922:freertos\src/queue.c **** 					traceQUEUE_RECEIVE_FAILED( pxQueue );
 923:freertos\src/queue.c **** 					return errQUEUE_EMPTY;
 924:freertos\src/queue.c **** 				}
 925:freertos\src/queue.c **** 			}
 926:freertos\src/queue.c **** 			taskEXIT_CRITICAL();
 927:freertos\src/queue.c **** 		}
 928:freertos\src/queue.c **** 	}
 929:freertos\src/queue.c **** 
 930:freertos\src/queue.c **** 
 931:freertos\src/queue.c **** #endif /* configUSE_ALTERNATIVE_API */
 932:freertos\src/queue.c **** /*-----------------------------------------------------------*/
 933:freertos\src/queue.c **** 
 934:freertos\src/queue.c **** signed portBASE_TYPE xQueueGenericSendFromISR( xQueueHandle xQueue, const void * const pvItemToQueu
 935:freertos\src/queue.c **** {
 936:freertos\src/queue.c **** signed portBASE_TYPE xReturn;
 937:freertos\src/queue.c **** unsigned portBASE_TYPE uxSavedInterruptStatus;
 938:freertos\src/queue.c **** xQUEUE * const pxQueue = ( xQUEUE * ) xQueue;
 939:freertos\src/queue.c **** 
 940:freertos\src/queue.c **** 	configASSERT( pxQueue );
 941:freertos\src/queue.c **** 	configASSERT( !( ( pvItemToQueue == NULL ) && ( pxQueue->uxItemSize != ( unsigned portBASE_TYPE ) 
 942:freertos\src/queue.c **** 	configASSERT( !( ( xCopyPosition == queueOVERWRITE ) && ( pxQueue->uxLength != 1 ) ) );
 943:freertos\src/queue.c **** 
ARM GAS  C:\Users\VIDEOH~1\AppData\Local\Temp\cc1cRMdm.s 			page 18


 944:freertos\src/queue.c **** 	/* RTOS ports that support interrupt nesting have the concept of a maximum
 945:freertos\src/queue.c **** 	system call (or maximum API call) interrupt priority.  Interrupts that are
 946:freertos\src/queue.c **** 	above the maximum system call priority are keep permanently enabled, even
 947:freertos\src/queue.c **** 	when the RTOS kernel is in a critical section, but cannot make any calls to
 948:freertos\src/queue.c **** 	FreeRTOS API functions.  If configASSERT() is defined in FreeRTOSConfig.h
 949:freertos\src/queue.c **** 	then portASSERT_IF_INTERRUPT_PRIORITY_INVALID() will result in an assertion
 950:freertos\src/queue.c **** 	failure if a FreeRTOS API function is called from an interrupt that has been
 951:freertos\src/queue.c **** 	assigned a priority above the configured maximum system call priority.
 952:freertos\src/queue.c **** 	Only FreeRTOS functions that end in FromISR can be called from interrupts
 953:freertos\src/queue.c **** 	that have been assigned a priority at or (logically) below the maximum
 954:freertos\src/queue.c **** 	system call	interrupt priority.  FreeRTOS maintains a separate interrupt
 955:freertos\src/queue.c **** 	safe API to ensure interrupt entry is as fast and as simple as possible.
 956:freertos\src/queue.c **** 	More information (albeit Cortex-M specific) is provided on the following
 957:freertos\src/queue.c **** 	link: http://www.freertos.org/RTOS-Cortex-M3-M4.html */
 958:freertos\src/queue.c **** 	portASSERT_IF_INTERRUPT_PRIORITY_INVALID();
 959:freertos\src/queue.c **** 
 960:freertos\src/queue.c **** 	/* Similar to xQueueGenericSend, except we don't block if there is no room
 961:freertos\src/queue.c **** 	in the queue.  Also we don't directly wake a task that was blocked on a
 962:freertos\src/queue.c **** 	queue read, instead we return a flag to say whether a context switch is
 963:freertos\src/queue.c **** 	required or not (i.e. has a task with a higher priority than us been woken
 964:freertos\src/queue.c **** 	by this	post). */
 965:freertos\src/queue.c **** 	uxSavedInterruptStatus = portSET_INTERRUPT_MASK_FROM_ISR();
 966:freertos\src/queue.c **** 	{
 967:freertos\src/queue.c **** 		if( ( pxQueue->uxMessagesWaiting < pxQueue->uxLength ) || ( xCopyPosition == queueOVERWRITE ) )
 968:freertos\src/queue.c **** 		{
 969:freertos\src/queue.c **** 			traceQUEUE_SEND_FROM_ISR( pxQueue );
 970:freertos\src/queue.c **** 
 971:freertos\src/queue.c **** 			prvCopyDataToQueue( pxQueue, pvItemToQueue, xCopyPosition );
 972:freertos\src/queue.c **** 
 973:freertos\src/queue.c **** 			/* If the queue is locked we do not alter the event list.  This will
 974:freertos\src/queue.c **** 			be done when the queue is unlocked later. */
 975:freertos\src/queue.c **** 			if( pxQueue->xTxLock == queueUNLOCKED )
 976:freertos\src/queue.c **** 			{
 977:freertos\src/queue.c **** 				#if ( configUSE_QUEUE_SETS == 1 )
 978:freertos\src/queue.c **** 				{
 979:freertos\src/queue.c **** 					if( pxQueue->pxQueueSetContainer != NULL )
 980:freertos\src/queue.c **** 					{
 981:freertos\src/queue.c **** 						if( prvNotifyQueueSetContainer( pxQueue, xCopyPosition ) == pdTRUE )
 982:freertos\src/queue.c **** 						{
 983:freertos\src/queue.c **** 							/* The queue is a member of a queue set, and posting
 984:freertos\src/queue.c **** 							to the queue set caused a higher priority task to
 985:freertos\src/queue.c **** 							unblock.  A context switch is required. */
 986:freertos\src/queue.c **** 							if( pxHigherPriorityTaskWoken != NULL )
 987:freertos\src/queue.c **** 							{
 988:freertos\src/queue.c **** 								*pxHigherPriorityTaskWoken = pdTRUE;
 989:freertos\src/queue.c **** 							}
 990:freertos\src/queue.c **** 						}
 991:freertos\src/queue.c **** 					}
 992:freertos\src/queue.c **** 					else
 993:freertos\src/queue.c **** 					{
 994:freertos\src/queue.c **** 						if( listLIST_IS_EMPTY( &( pxQueue->xTasksWaitingToReceive ) ) == pdFALSE )
 995:freertos\src/queue.c **** 						{
 996:freertos\src/queue.c **** 							if( xTaskRemoveFromEventList( &( pxQueue->xTasksWaitingToReceive ) ) != pdFALSE )
 997:freertos\src/queue.c **** 							{
 998:freertos\src/queue.c **** 								/* The task waiting has a higher priority so record that a
 999:freertos\src/queue.c **** 								context	switch is required. */
1000:freertos\src/queue.c **** 								if( pxHigherPriorityTaskWoken != NULL )
ARM GAS  C:\Users\VIDEOH~1\AppData\Local\Temp\cc1cRMdm.s 			page 19


1001:freertos\src/queue.c **** 								{
1002:freertos\src/queue.c **** 									*pxHigherPriorityTaskWoken = pdTRUE;
1003:freertos\src/queue.c **** 								}
1004:freertos\src/queue.c **** 							}
1005:freertos\src/queue.c **** 						}
1006:freertos\src/queue.c **** 					}
1007:freertos\src/queue.c **** 				}
1008:freertos\src/queue.c **** 				#else /* configUSE_QUEUE_SETS */
1009:freertos\src/queue.c **** 				{
1010:freertos\src/queue.c **** 					if( listLIST_IS_EMPTY( &( pxQueue->xTasksWaitingToReceive ) ) == pdFALSE )
1011:freertos\src/queue.c **** 					{
1012:freertos\src/queue.c **** 						if( xTaskRemoveFromEventList( &( pxQueue->xTasksWaitingToReceive ) ) != pdFALSE )
1013:freertos\src/queue.c **** 						{
1014:freertos\src/queue.c **** 							/* The task waiting has a higher priority so record that a
1015:freertos\src/queue.c **** 							context	switch is required. */
1016:freertos\src/queue.c **** 							if( pxHigherPriorityTaskWoken != NULL )
1017:freertos\src/queue.c **** 							{
1018:freertos\src/queue.c **** 								*pxHigherPriorityTaskWoken = pdTRUE;
1019:freertos\src/queue.c **** 							}
1020:freertos\src/queue.c **** 						}
1021:freertos\src/queue.c **** 					}
1022:freertos\src/queue.c **** 				}
1023:freertos\src/queue.c **** 				#endif /* configUSE_QUEUE_SETS */
1024:freertos\src/queue.c **** 			}
1025:freertos\src/queue.c **** 			else
1026:freertos\src/queue.c **** 			{
1027:freertos\src/queue.c **** 				/* Increment the lock count so the task that unlocks the queue
1028:freertos\src/queue.c **** 				knows that data was posted while it was locked. */
1029:freertos\src/queue.c **** 				++( pxQueue->xTxLock );
1030:freertos\src/queue.c **** 			}
1031:freertos\src/queue.c **** 
1032:freertos\src/queue.c **** 			xReturn = pdPASS;
1033:freertos\src/queue.c **** 		}
1034:freertos\src/queue.c **** 		else
1035:freertos\src/queue.c **** 		{
1036:freertos\src/queue.c **** 			traceQUEUE_SEND_FROM_ISR_FAILED( pxQueue );
1037:freertos\src/queue.c **** 			xReturn = errQUEUE_FULL;
1038:freertos\src/queue.c **** 		}
1039:freertos\src/queue.c **** 	}
1040:freertos\src/queue.c **** 	portCLEAR_INTERRUPT_MASK_FROM_ISR( uxSavedInterruptStatus );
1041:freertos\src/queue.c **** 
1042:freertos\src/queue.c **** 	return xReturn;
1043:freertos\src/queue.c **** }
1044:freertos\src/queue.c **** /*-----------------------------------------------------------*/
1045:freertos\src/queue.c **** 
1046:freertos\src/queue.c **** signed portBASE_TYPE xQueueGenericReceive( xQueueHandle xQueue, void * const pvBuffer, portTickType
1047:freertos\src/queue.c **** {
1048:freertos\src/queue.c **** signed portBASE_TYPE xEntryTimeSet = pdFALSE;
1049:freertos\src/queue.c **** xTimeOutType xTimeOut;
1050:freertos\src/queue.c **** signed char *pcOriginalReadPosition;
1051:freertos\src/queue.c **** xQUEUE * const pxQueue = ( xQUEUE * ) xQueue;
1052:freertos\src/queue.c **** 
1053:freertos\src/queue.c **** 	configASSERT( pxQueue );
1054:freertos\src/queue.c **** 	configASSERT( !( ( pvBuffer == NULL ) && ( pxQueue->uxItemSize != ( unsigned portBASE_TYPE ) 0U ) 
1055:freertos\src/queue.c **** 
1056:freertos\src/queue.c **** 	/* This function relaxes the coding standard somewhat to allow return
1057:freertos\src/queue.c **** 	statements within the function itself.  This is done in the interest
ARM GAS  C:\Users\VIDEOH~1\AppData\Local\Temp\cc1cRMdm.s 			page 20


1058:freertos\src/queue.c **** 	of execution time efficiency. */
1059:freertos\src/queue.c **** 
1060:freertos\src/queue.c **** 	for( ;; )
1061:freertos\src/queue.c **** 	{
1062:freertos\src/queue.c **** 		taskENTER_CRITICAL();
1063:freertos\src/queue.c **** 		{
1064:freertos\src/queue.c **** 			/* Is there data in the queue now?  To be running we must be
1065:freertos\src/queue.c **** 			the highest priority task wanting to access the queue. */
1066:freertos\src/queue.c **** 			if( pxQueue->uxMessagesWaiting > ( unsigned portBASE_TYPE ) 0 )
1067:freertos\src/queue.c **** 			{
1068:freertos\src/queue.c **** 				/* Remember the read position in case the queue is only being
1069:freertos\src/queue.c **** 				peeked. */
1070:freertos\src/queue.c **** 				pcOriginalReadPosition = pxQueue->u.pcReadFrom;
1071:freertos\src/queue.c **** 
1072:freertos\src/queue.c **** 				prvCopyDataFromQueue( pxQueue, pvBuffer );
1073:freertos\src/queue.c **** 
1074:freertos\src/queue.c **** 				if( xJustPeeking == pdFALSE )
1075:freertos\src/queue.c **** 				{
1076:freertos\src/queue.c **** 					traceQUEUE_RECEIVE( pxQueue );
1077:freertos\src/queue.c **** 
1078:freertos\src/queue.c **** 					/* Actually removing data, not just peeking. */
1079:freertos\src/queue.c **** 					--( pxQueue->uxMessagesWaiting );
1080:freertos\src/queue.c **** 
1081:freertos\src/queue.c **** 					#if ( configUSE_MUTEXES == 1 )
1082:freertos\src/queue.c **** 					{
1083:freertos\src/queue.c **** 						if( pxQueue->uxQueueType == queueQUEUE_IS_MUTEX )
1084:freertos\src/queue.c **** 						{
1085:freertos\src/queue.c **** 							/* Record the information required to implement
1086:freertos\src/queue.c **** 							priority inheritance should it become necessary. */
1087:freertos\src/queue.c **** 							pxQueue->pxMutexHolder = ( signed char * ) xTaskGetCurrentTaskHandle(); /*lint !e961 Cast is
1088:freertos\src/queue.c **** 						}
1089:freertos\src/queue.c **** 					}
1090:freertos\src/queue.c **** 					#endif
1091:freertos\src/queue.c **** 
1092:freertos\src/queue.c **** 					if( listLIST_IS_EMPTY( &( pxQueue->xTasksWaitingToSend ) ) == pdFALSE )
1093:freertos\src/queue.c **** 					{
1094:freertos\src/queue.c **** 						if( xTaskRemoveFromEventList( &( pxQueue->xTasksWaitingToSend ) ) == pdTRUE )
1095:freertos\src/queue.c **** 						{
1096:freertos\src/queue.c **** 							queueYIELD_IF_USING_PREEMPTION();
1097:freertos\src/queue.c **** 						}
1098:freertos\src/queue.c **** 					}
1099:freertos\src/queue.c **** 				}
1100:freertos\src/queue.c **** 				else
1101:freertos\src/queue.c **** 				{
1102:freertos\src/queue.c **** 					traceQUEUE_PEEK( pxQueue );
1103:freertos\src/queue.c **** 
1104:freertos\src/queue.c **** 					/* The data is not being removed, so reset the read
1105:freertos\src/queue.c **** 					pointer. */
1106:freertos\src/queue.c **** 					pxQueue->u.pcReadFrom = pcOriginalReadPosition;
1107:freertos\src/queue.c **** 
1108:freertos\src/queue.c **** 					/* The data is being left in the queue, so see if there are
1109:freertos\src/queue.c **** 					any other tasks waiting for the data. */
1110:freertos\src/queue.c **** 					if( listLIST_IS_EMPTY( &( pxQueue->xTasksWaitingToReceive ) ) == pdFALSE )
1111:freertos\src/queue.c **** 					{
1112:freertos\src/queue.c **** 						/* Tasks that are removed from the event list will get added to
1113:freertos\src/queue.c **** 						the pending ready list as the scheduler is still suspended. */
1114:freertos\src/queue.c **** 						if( xTaskRemoveFromEventList( &( pxQueue->xTasksWaitingToReceive ) ) != pdFALSE )
ARM GAS  C:\Users\VIDEOH~1\AppData\Local\Temp\cc1cRMdm.s 			page 21


1115:freertos\src/queue.c **** 						{
1116:freertos\src/queue.c **** 							/* The task waiting has a higher priority than this task. */
1117:freertos\src/queue.c **** 							queueYIELD_IF_USING_PREEMPTION();
1118:freertos\src/queue.c **** 						}
1119:freertos\src/queue.c **** 					}
1120:freertos\src/queue.c **** 				}
1121:freertos\src/queue.c **** 
1122:freertos\src/queue.c **** 				taskEXIT_CRITICAL();
1123:freertos\src/queue.c **** 				return pdPASS;
1124:freertos\src/queue.c **** 			}
1125:freertos\src/queue.c **** 			else
1126:freertos\src/queue.c **** 			{
1127:freertos\src/queue.c **** 				if( xTicksToWait == ( portTickType ) 0 )
1128:freertos\src/queue.c **** 				{
1129:freertos\src/queue.c **** 					/* The queue was empty and no block time is specified (or
1130:freertos\src/queue.c **** 					the block time has expired) so leave now. */
1131:freertos\src/queue.c **** 					taskEXIT_CRITICAL();
1132:freertos\src/queue.c **** 					traceQUEUE_RECEIVE_FAILED( pxQueue );
1133:freertos\src/queue.c **** 					return errQUEUE_EMPTY;
1134:freertos\src/queue.c **** 				}
1135:freertos\src/queue.c **** 				else if( xEntryTimeSet == pdFALSE )
1136:freertos\src/queue.c **** 				{
1137:freertos\src/queue.c **** 					/* The queue was empty and a block time was specified so
1138:freertos\src/queue.c **** 					configure the timeout structure. */
1139:freertos\src/queue.c **** 					vTaskSetTimeOutState( &xTimeOut );
1140:freertos\src/queue.c **** 					xEntryTimeSet = pdTRUE;
1141:freertos\src/queue.c **** 				}
1142:freertos\src/queue.c **** 				else
1143:freertos\src/queue.c **** 				{
1144:freertos\src/queue.c **** 					/* Entry time was already set. */
1145:freertos\src/queue.c **** 				}
1146:freertos\src/queue.c **** 			}
1147:freertos\src/queue.c **** 		}
1148:freertos\src/queue.c **** 		taskEXIT_CRITICAL();
1149:freertos\src/queue.c **** 
1150:freertos\src/queue.c **** 		/* Interrupts and other tasks can send to and receive from the queue
1151:freertos\src/queue.c **** 		now the critical section has been exited. */
1152:freertos\src/queue.c **** 
1153:freertos\src/queue.c **** 		vTaskSuspendAll();
1154:freertos\src/queue.c **** 		prvLockQueue( pxQueue );
1155:freertos\src/queue.c **** 
1156:freertos\src/queue.c **** 		/* Update the timeout state to see if it has expired yet. */
1157:freertos\src/queue.c **** 		if( xTaskCheckForTimeOut( &xTimeOut, &xTicksToWait ) == pdFALSE )
1158:freertos\src/queue.c **** 		{
1159:freertos\src/queue.c **** 			if( prvIsQueueEmpty( pxQueue ) != pdFALSE )
1160:freertos\src/queue.c **** 			{
1161:freertos\src/queue.c **** 				traceBLOCKING_ON_QUEUE_RECEIVE( pxQueue );
1162:freertos\src/queue.c **** 
1163:freertos\src/queue.c **** 				#if ( configUSE_MUTEXES == 1 )
1164:freertos\src/queue.c **** 				{
1165:freertos\src/queue.c **** 					if( pxQueue->uxQueueType == queueQUEUE_IS_MUTEX )
1166:freertos\src/queue.c **** 					{
1167:freertos\src/queue.c **** 						portENTER_CRITICAL();
1168:freertos\src/queue.c **** 						{
1169:freertos\src/queue.c **** 							vTaskPriorityInherit( ( void * ) pxQueue->pxMutexHolder );
1170:freertos\src/queue.c **** 						}
1171:freertos\src/queue.c **** 						portEXIT_CRITICAL();
ARM GAS  C:\Users\VIDEOH~1\AppData\Local\Temp\cc1cRMdm.s 			page 22


1172:freertos\src/queue.c **** 					}
1173:freertos\src/queue.c **** 				}
1174:freertos\src/queue.c **** 				#endif
1175:freertos\src/queue.c **** 
1176:freertos\src/queue.c **** 				vTaskPlaceOnEventList( &( pxQueue->xTasksWaitingToReceive ), xTicksToWait );
1177:freertos\src/queue.c **** 				prvUnlockQueue( pxQueue );
1178:freertos\src/queue.c **** 				if( xTaskResumeAll() == pdFALSE )
1179:freertos\src/queue.c **** 				{
1180:freertos\src/queue.c **** 					portYIELD_WITHIN_API();
1181:freertos\src/queue.c **** 				}
1182:freertos\src/queue.c **** 			}
1183:freertos\src/queue.c **** 			else
1184:freertos\src/queue.c **** 			{
1185:freertos\src/queue.c **** 				/* Try again. */
1186:freertos\src/queue.c **** 				prvUnlockQueue( pxQueue );
1187:freertos\src/queue.c **** 				( void ) xTaskResumeAll();
1188:freertos\src/queue.c **** 			}
1189:freertos\src/queue.c **** 		}
1190:freertos\src/queue.c **** 		else
1191:freertos\src/queue.c **** 		{
1192:freertos\src/queue.c **** 			prvUnlockQueue( pxQueue );
1193:freertos\src/queue.c **** 			( void ) xTaskResumeAll();
1194:freertos\src/queue.c **** 			traceQUEUE_RECEIVE_FAILED( pxQueue );
1195:freertos\src/queue.c **** 			return errQUEUE_EMPTY;
1196:freertos\src/queue.c **** 		}
1197:freertos\src/queue.c **** 	}
1198:freertos\src/queue.c **** }
1199:freertos\src/queue.c **** /*-----------------------------------------------------------*/
1200:freertos\src/queue.c **** 
1201:freertos\src/queue.c **** signed portBASE_TYPE xQueueReceiveFromISR( xQueueHandle xQueue, void * const pvBuffer, signed portB
1202:freertos\src/queue.c **** {
1203:freertos\src/queue.c **** signed portBASE_TYPE xReturn;
1204:freertos\src/queue.c **** unsigned portBASE_TYPE uxSavedInterruptStatus;
1205:freertos\src/queue.c **** xQUEUE * const pxQueue = ( xQUEUE * ) xQueue;
1206:freertos\src/queue.c **** 
1207:freertos\src/queue.c **** 	configASSERT( pxQueue );
1208:freertos\src/queue.c **** 	configASSERT( !( ( pvBuffer == NULL ) && ( pxQueue->uxItemSize != ( unsigned portBASE_TYPE ) 0U ) 
1209:freertos\src/queue.c **** 
1210:freertos\src/queue.c **** 	/* RTOS ports that support interrupt nesting have the concept of a maximum
1211:freertos\src/queue.c **** 	system call (or maximum API call) interrupt priority.  Interrupts that are
1212:freertos\src/queue.c **** 	above the maximum system call priority are keep permanently enabled, even
1213:freertos\src/queue.c **** 	when the RTOS kernel is in a critical section, but cannot make any calls to
1214:freertos\src/queue.c **** 	FreeRTOS API functions.  If configASSERT() is defined in FreeRTOSConfig.h
1215:freertos\src/queue.c **** 	then portASSERT_IF_INTERRUPT_PRIORITY_INVALID() will result in an assertion
1216:freertos\src/queue.c **** 	failure if a FreeRTOS API function is called from an interrupt that has been
1217:freertos\src/queue.c **** 	assigned a priority above the configured maximum system call priority.
1218:freertos\src/queue.c **** 	Only FreeRTOS functions that end in FromISR can be called from interrupts
1219:freertos\src/queue.c **** 	that have been assigned a priority at or (logically) below the maximum
1220:freertos\src/queue.c **** 	system call	interrupt priority.  FreeRTOS maintains a separate interrupt
1221:freertos\src/queue.c **** 	safe API to ensure interrupt entry is as fast and as simple as possible.
1222:freertos\src/queue.c **** 	More information (albeit Cortex-M specific) is provided on the following
1223:freertos\src/queue.c **** 	link: http://www.freertos.org/RTOS-Cortex-M3-M4.html */
1224:freertos\src/queue.c **** 	portASSERT_IF_INTERRUPT_PRIORITY_INVALID();
1225:freertos\src/queue.c **** 
1226:freertos\src/queue.c **** 	uxSavedInterruptStatus = portSET_INTERRUPT_MASK_FROM_ISR();
1227:freertos\src/queue.c **** 	{
1228:freertos\src/queue.c **** 		/* Cannot block in an ISR, so check there is data available. */
ARM GAS  C:\Users\VIDEOH~1\AppData\Local\Temp\cc1cRMdm.s 			page 23


1229:freertos\src/queue.c **** 		if( pxQueue->uxMessagesWaiting > ( unsigned portBASE_TYPE ) 0 )
1230:freertos\src/queue.c **** 		{
1231:freertos\src/queue.c **** 			traceQUEUE_RECEIVE_FROM_ISR( pxQueue );
1232:freertos\src/queue.c **** 
1233:freertos\src/queue.c **** 			prvCopyDataFromQueue( pxQueue, pvBuffer );
1234:freertos\src/queue.c **** 			--( pxQueue->uxMessagesWaiting );
1235:freertos\src/queue.c **** 
1236:freertos\src/queue.c **** 			/* If the queue is locked the event list will not be modified.
1237:freertos\src/queue.c **** 			Instead update the lock count so the task that unlocks the queue
1238:freertos\src/queue.c **** 			will know that an ISR has removed data while the queue was
1239:freertos\src/queue.c **** 			locked. */
1240:freertos\src/queue.c **** 			if( pxQueue->xRxLock == queueUNLOCKED )
1241:freertos\src/queue.c **** 			{
1242:freertos\src/queue.c **** 				if( listLIST_IS_EMPTY( &( pxQueue->xTasksWaitingToSend ) ) == pdFALSE )
1243:freertos\src/queue.c **** 				{
1244:freertos\src/queue.c **** 					if( xTaskRemoveFromEventList( &( pxQueue->xTasksWaitingToSend ) ) != pdFALSE )
1245:freertos\src/queue.c **** 					{
1246:freertos\src/queue.c **** 						/* The task waiting has a higher priority than us so
1247:freertos\src/queue.c **** 						force a context switch. */
1248:freertos\src/queue.c **** 						if( pxHigherPriorityTaskWoken != NULL )
1249:freertos\src/queue.c **** 						{
1250:freertos\src/queue.c **** 							*pxHigherPriorityTaskWoken = pdTRUE;
1251:freertos\src/queue.c **** 						}
1252:freertos\src/queue.c **** 					}
1253:freertos\src/queue.c **** 				}
1254:freertos\src/queue.c **** 			}
1255:freertos\src/queue.c **** 			else
1256:freertos\src/queue.c **** 			{
1257:freertos\src/queue.c **** 				/* Increment the lock count so the task that unlocks the queue
1258:freertos\src/queue.c **** 				knows that data was removed while it was locked. */
1259:freertos\src/queue.c **** 				++( pxQueue->xRxLock );
1260:freertos\src/queue.c **** 			}
1261:freertos\src/queue.c **** 
1262:freertos\src/queue.c **** 			xReturn = pdPASS;
1263:freertos\src/queue.c **** 		}
1264:freertos\src/queue.c **** 		else
1265:freertos\src/queue.c **** 		{
1266:freertos\src/queue.c **** 			xReturn = pdFAIL;
1267:freertos\src/queue.c **** 			traceQUEUE_RECEIVE_FROM_ISR_FAILED( pxQueue );
1268:freertos\src/queue.c **** 		}
1269:freertos\src/queue.c **** 	}
1270:freertos\src/queue.c **** 	portCLEAR_INTERRUPT_MASK_FROM_ISR( uxSavedInterruptStatus );
1271:freertos\src/queue.c **** 
1272:freertos\src/queue.c **** 	return xReturn;
1273:freertos\src/queue.c **** }
1274:freertos\src/queue.c **** /*-----------------------------------------------------------*/
1275:freertos\src/queue.c **** 
1276:freertos\src/queue.c **** signed portBASE_TYPE xQueuePeekFromISR( xQueueHandle xQueue,  void * const pvBuffer )
1277:freertos\src/queue.c **** {
1278:freertos\src/queue.c **** signed portBASE_TYPE xReturn;
1279:freertos\src/queue.c **** unsigned portBASE_TYPE uxSavedInterruptStatus;
1280:freertos\src/queue.c **** signed char *pcOriginalReadPosition;
1281:freertos\src/queue.c **** xQUEUE * const pxQueue = ( xQUEUE * ) xQueue;
1282:freertos\src/queue.c **** 
1283:freertos\src/queue.c **** 	configASSERT( pxQueue );
1284:freertos\src/queue.c **** 	configASSERT( !( ( pvBuffer == NULL ) && ( pxQueue->uxItemSize != ( unsigned portBASE_TYPE ) 0U ) 
1285:freertos\src/queue.c **** 
ARM GAS  C:\Users\VIDEOH~1\AppData\Local\Temp\cc1cRMdm.s 			page 24


1286:freertos\src/queue.c **** 	/* RTOS ports that support interrupt nesting have the concept of a maximum
1287:freertos\src/queue.c **** 	system call (or maximum API call) interrupt priority.  Interrupts that are
1288:freertos\src/queue.c **** 	above the maximum system call priority are keep permanently enabled, even
1289:freertos\src/queue.c **** 	when the RTOS kernel is in a critical section, but cannot make any calls to
1290:freertos\src/queue.c **** 	FreeRTOS API functions.  If configASSERT() is defined in FreeRTOSConfig.h
1291:freertos\src/queue.c **** 	then portASSERT_IF_INTERRUPT_PRIORITY_INVALID() will result in an assertion
1292:freertos\src/queue.c **** 	failure if a FreeRTOS API function is called from an interrupt that has been
1293:freertos\src/queue.c **** 	assigned a priority above the configured maximum system call priority.
1294:freertos\src/queue.c **** 	Only FreeRTOS functions that end in FromISR can be called from interrupts
1295:freertos\src/queue.c **** 	that have been assigned a priority at or (logically) below the maximum
1296:freertos\src/queue.c **** 	system call	interrupt priority.  FreeRTOS maintains a separate interrupt
1297:freertos\src/queue.c **** 	safe API to ensure interrupt entry is as fast and as simple as possible.
1298:freertos\src/queue.c **** 	More information (albeit Cortex-M specific) is provided on the following
1299:freertos\src/queue.c **** 	link: http://www.freertos.org/RTOS-Cortex-M3-M4.html */
1300:freertos\src/queue.c **** 	portASSERT_IF_INTERRUPT_PRIORITY_INVALID();
1301:freertos\src/queue.c **** 
1302:freertos\src/queue.c **** 	uxSavedInterruptStatus = portSET_INTERRUPT_MASK_FROM_ISR();
1303:freertos\src/queue.c **** 	{
1304:freertos\src/queue.c **** 		/* Cannot block in an ISR, so check there is data available. */
1305:freertos\src/queue.c **** 		if( pxQueue->uxMessagesWaiting > ( unsigned portBASE_TYPE ) 0 )
1306:freertos\src/queue.c **** 		{
1307:freertos\src/queue.c **** 			traceQUEUE_PEEK_FROM_ISR( pxQueue );
1308:freertos\src/queue.c **** 
1309:freertos\src/queue.c **** 			/* Remember the read position so it can be reset as nothing is
1310:freertos\src/queue.c **** 			actually being removed from the queue. */
1311:freertos\src/queue.c **** 			pcOriginalReadPosition = pxQueue->u.pcReadFrom;
1312:freertos\src/queue.c **** 			prvCopyDataFromQueue( pxQueue, pvBuffer );
1313:freertos\src/queue.c **** 			pxQueue->u.pcReadFrom = pcOriginalReadPosition;
1314:freertos\src/queue.c **** 
1315:freertos\src/queue.c **** 			xReturn = pdPASS;
1316:freertos\src/queue.c **** 		}
1317:freertos\src/queue.c **** 		else
1318:freertos\src/queue.c **** 		{
1319:freertos\src/queue.c **** 			xReturn = pdFAIL;
1320:freertos\src/queue.c **** 			traceQUEUE_PEEK_FROM_ISR_FAILED( pxQueue );
1321:freertos\src/queue.c **** 		}
1322:freertos\src/queue.c **** 	}
1323:freertos\src/queue.c **** 	portCLEAR_INTERRUPT_MASK_FROM_ISR( uxSavedInterruptStatus );
1324:freertos\src/queue.c **** 
1325:freertos\src/queue.c **** 	return xReturn;
1326:freertos\src/queue.c **** }
1327:freertos\src/queue.c **** /*-----------------------------------------------------------*/
1328:freertos\src/queue.c **** 
1329:freertos\src/queue.c **** unsigned portBASE_TYPE uxQueueMessagesWaiting( const xQueueHandle xQueue )
1330:freertos\src/queue.c **** {
1331:freertos\src/queue.c **** unsigned portBASE_TYPE uxReturn;
1332:freertos\src/queue.c **** 
1333:freertos\src/queue.c **** 	configASSERT( xQueue );
1334:freertos\src/queue.c **** 
1335:freertos\src/queue.c **** 	taskENTER_CRITICAL();
1336:freertos\src/queue.c **** 		uxReturn = ( ( xQUEUE * ) xQueue )->uxMessagesWaiting;
1337:freertos\src/queue.c **** 	taskEXIT_CRITICAL();
1338:freertos\src/queue.c **** 
1339:freertos\src/queue.c **** 	return uxReturn;
1340:freertos\src/queue.c **** } /*lint !e818 Pointer cannot be declared const as xQueue is a typedef not pointer. */
1341:freertos\src/queue.c **** /*-----------------------------------------------------------*/
1342:freertos\src/queue.c **** 
ARM GAS  C:\Users\VIDEOH~1\AppData\Local\Temp\cc1cRMdm.s 			page 25


1343:freertos\src/queue.c **** unsigned portBASE_TYPE uxQueueSpacesAvailable( const xQueueHandle xQueue )
1344:freertos\src/queue.c **** {
1345:freertos\src/queue.c **** unsigned portBASE_TYPE uxReturn;
1346:freertos\src/queue.c **** xQUEUE *pxQueue;
1347:freertos\src/queue.c **** 
1348:freertos\src/queue.c **** 	pxQueue = ( xQUEUE * ) xQueue;
1349:freertos\src/queue.c **** 	configASSERT( pxQueue );
1350:freertos\src/queue.c **** 
1351:freertos\src/queue.c **** 	taskENTER_CRITICAL();
1352:freertos\src/queue.c **** 		uxReturn = pxQueue->uxLength - pxQueue->uxMessagesWaiting;
1353:freertos\src/queue.c **** 	taskEXIT_CRITICAL();
1354:freertos\src/queue.c **** 
1355:freertos\src/queue.c **** 	return uxReturn;
1356:freertos\src/queue.c **** } /*lint !e818 Pointer cannot be declared const as xQueue is a typedef not pointer. */
1357:freertos\src/queue.c **** /*-----------------------------------------------------------*/
1358:freertos\src/queue.c **** 
1359:freertos\src/queue.c **** unsigned portBASE_TYPE uxQueueMessagesWaitingFromISR( const xQueueHandle xQueue )
1360:freertos\src/queue.c **** {
1361:freertos\src/queue.c **** unsigned portBASE_TYPE uxReturn;
1362:freertos\src/queue.c **** 
1363:freertos\src/queue.c **** 	configASSERT( xQueue );
1364:freertos\src/queue.c **** 
1365:freertos\src/queue.c **** 	uxReturn = ( ( xQUEUE * ) xQueue )->uxMessagesWaiting;
1366:freertos\src/queue.c **** 
1367:freertos\src/queue.c **** 	return uxReturn;
1368:freertos\src/queue.c **** } /*lint !e818 Pointer cannot be declared const as xQueue is a typedef not pointer. */
1369:freertos\src/queue.c **** /*-----------------------------------------------------------*/
1370:freertos\src/queue.c **** 
1371:freertos\src/queue.c **** void vQueueDelete( xQueueHandle xQueue )
1372:freertos\src/queue.c **** {
1373:freertos\src/queue.c **** xQUEUE * const pxQueue = ( xQUEUE * ) xQueue;
1374:freertos\src/queue.c **** 
1375:freertos\src/queue.c **** 	configASSERT( pxQueue );
1376:freertos\src/queue.c **** 
1377:freertos\src/queue.c **** 	traceQUEUE_DELETE( pxQueue );
1378:freertos\src/queue.c **** 	#if ( configQUEUE_REGISTRY_SIZE > 0 )
1379:freertos\src/queue.c **** 	{
1380:freertos\src/queue.c **** 		vQueueUnregisterQueue( pxQueue );
1381:freertos\src/queue.c **** 	}
1382:freertos\src/queue.c **** 	#endif
1383:freertos\src/queue.c **** 	vPortFree( pxQueue->pcHead );
1384:freertos\src/queue.c **** 	vPortFree( pxQueue );
1385:freertos\src/queue.c **** }
1386:freertos\src/queue.c **** /*-----------------------------------------------------------*/
1387:freertos\src/queue.c **** 
1388:freertos\src/queue.c **** #if ( configUSE_TRACE_FACILITY == 1 )
1389:freertos\src/queue.c **** 
1390:freertos\src/queue.c **** 	unsigned char ucQueueGetQueueNumber( xQueueHandle xQueue )
1391:freertos\src/queue.c **** 	{
1392:freertos\src/queue.c **** 		return ( ( xQUEUE * ) xQueue )->ucQueueNumber;
1393:freertos\src/queue.c **** 	}
1394:freertos\src/queue.c **** 
1395:freertos\src/queue.c **** #endif /* configUSE_TRACE_FACILITY */
1396:freertos\src/queue.c **** /*-----------------------------------------------------------*/
1397:freertos\src/queue.c **** 
1398:freertos\src/queue.c **** #if ( configUSE_TRACE_FACILITY == 1 )
1399:freertos\src/queue.c **** 
ARM GAS  C:\Users\VIDEOH~1\AppData\Local\Temp\cc1cRMdm.s 			page 26


1400:freertos\src/queue.c **** 	void vQueueSetQueueNumber( xQueueHandle xQueue, unsigned char ucQueueNumber )
1401:freertos\src/queue.c **** 	{
1402:freertos\src/queue.c **** 		( ( xQUEUE * ) xQueue )->ucQueueNumber = ucQueueNumber;
1403:freertos\src/queue.c **** 	}
1404:freertos\src/queue.c **** 
1405:freertos\src/queue.c **** #endif /* configUSE_TRACE_FACILITY */
1406:freertos\src/queue.c **** /*-----------------------------------------------------------*/
1407:freertos\src/queue.c **** 
1408:freertos\src/queue.c **** #if ( configUSE_TRACE_FACILITY == 1 )
1409:freertos\src/queue.c **** 
1410:freertos\src/queue.c **** 	unsigned char ucQueueGetQueueType( xQueueHandle xQueue )
1411:freertos\src/queue.c **** 	{
1412:freertos\src/queue.c **** 		return ( ( xQUEUE * ) xQueue )->ucQueueType;
1413:freertos\src/queue.c **** 	}
1414:freertos\src/queue.c **** 
1415:freertos\src/queue.c **** #endif /* configUSE_TRACE_FACILITY */
1416:freertos\src/queue.c **** /*-----------------------------------------------------------*/
1417:freertos\src/queue.c **** 
1418:freertos\src/queue.c **** static void prvCopyDataToQueue( xQUEUE *pxQueue, const void *pvItemToQueue, portBASE_TYPE xPosition
1419:freertos\src/queue.c **** {
  27              		.loc 1 1419 0
  28              		.cfi_startproc
  29              		@ args = 0, pretend = 0, frame = 0
  30              		@ frame_needed = 0, uses_anonymous_args = 0
  31              	.LVL0:
  32 0000 70B5     		push	{r4, r5, r6, lr}
  33              		.cfi_def_cfa_offset 16
  34              		.cfi_offset 4, -16
  35              		.cfi_offset 5, -12
  36              		.cfi_offset 6, -8
  37              		.cfi_offset 14, -4
  38              		.loc 1 1419 0
  39 0002 1500     		movs	r5, r2
1420:freertos\src/queue.c **** 	if( pxQueue->uxItemSize == ( unsigned portBASE_TYPE ) 0 )
  40              		.loc 1 1420 0
  41 0004 026C     		ldr	r2, [r0, #64]
  42              	.LVL1:
1419:freertos\src/queue.c **** 	if( pxQueue->uxItemSize == ( unsigned portBASE_TYPE ) 0 )
  43              		.loc 1 1419 0
  44 0006 0400     		movs	r4, r0
  45              		.loc 1 1420 0
  46 0008 002A     		cmp	r2, #0
  47 000a 07D1     		bne	.L2
1421:freertos\src/queue.c **** 	{
1422:freertos\src/queue.c **** 		#if ( configUSE_MUTEXES == 1 )
1423:freertos\src/queue.c **** 		{
1424:freertos\src/queue.c **** 			if( pxQueue->uxQueueType == queueQUEUE_IS_MUTEX )
  48              		.loc 1 1424 0
  49 000c 0568     		ldr	r5, [r0]
  50              	.LVL2:
  51 000e 002D     		cmp	r5, #0
  52 0010 29D1     		bne	.L4
1425:freertos\src/queue.c **** 			{
1426:freertos\src/queue.c **** 				/* The mutex is no longer being held. */
1427:freertos\src/queue.c **** 				vTaskPriorityDisinherit( ( void * ) pxQueue->pxMutexHolder );
  53              		.loc 1 1427 0
  54 0012 4068     		ldr	r0, [r0, #4]
ARM GAS  C:\Users\VIDEOH~1\AppData\Local\Temp\cc1cRMdm.s 			page 27


  55              	.LVL3:
  56 0014 FFF7FEFF 		bl	vTaskPriorityDisinherit
  57              	.LVL4:
1428:freertos\src/queue.c **** 				pxQueue->pxMutexHolder = NULL;
  58              		.loc 1 1428 0
  59 0018 6560     		str	r5, [r4, #4]
  60 001a 24E0     		b	.L4
  61              	.LVL5:
  62              	.L2:
1429:freertos\src/queue.c **** 			}
1430:freertos\src/queue.c **** 		}
1431:freertos\src/queue.c **** 		#endif /* configUSE_MUTEXES */
1432:freertos\src/queue.c **** 	}
1433:freertos\src/queue.c **** 	else if( xPosition == queueSEND_TO_BACK )
  63              		.loc 1 1433 0
  64 001c 002D     		cmp	r5, #0
  65 001e 0CD1     		bne	.L5
1434:freertos\src/queue.c **** 	{
1435:freertos\src/queue.c **** 		( void ) memcpy( ( void * ) pxQueue->pcWriteTo, pvItemToQueue, ( size_t ) pxQueue->uxItemSize ); 
  66              		.loc 1 1435 0
  67 0020 8068     		ldr	r0, [r0, #8]
  68              	.LVL6:
  69 0022 FFF7FEFF 		bl	memcpy
  70              	.LVL7:
1436:freertos\src/queue.c **** 		pxQueue->pcWriteTo += pxQueue->uxItemSize;
  71              		.loc 1 1436 0
  72 0026 A368     		ldr	r3, [r4, #8]
  73 0028 226C     		ldr	r2, [r4, #64]
  74 002a 9B18     		adds	r3, r3, r2
1437:freertos\src/queue.c **** 		if( pxQueue->pcWriteTo >= pxQueue->pcTail ) /*lint !e946 MISRA exception justified as comparison 
  75              		.loc 1 1437 0
  76 002c 6268     		ldr	r2, [r4, #4]
1436:freertos\src/queue.c **** 		pxQueue->pcWriteTo += pxQueue->uxItemSize;
  77              		.loc 1 1436 0
  78 002e A360     		str	r3, [r4, #8]
  79              		.loc 1 1437 0
  80 0030 9342     		cmp	r3, r2
  81 0032 18D3     		bcc	.L4
1438:freertos\src/queue.c **** 		{
1439:freertos\src/queue.c **** 			pxQueue->pcWriteTo = pxQueue->pcHead;
  82              		.loc 1 1439 0
  83 0034 2368     		ldr	r3, [r4]
  84 0036 A360     		str	r3, [r4, #8]
  85 0038 15E0     		b	.L4
  86              	.LVL8:
  87              	.L5:
1440:freertos\src/queue.c **** 		}
1441:freertos\src/queue.c **** 	}
1442:freertos\src/queue.c **** 	else
1443:freertos\src/queue.c **** 	{
1444:freertos\src/queue.c **** 		( void ) memcpy( ( void * ) pxQueue->u.pcReadFrom, pvItemToQueue, ( size_t ) pxQueue->uxItemSize 
  88              		.loc 1 1444 0
  89 003a C068     		ldr	r0, [r0, #12]
  90              	.LVL9:
  91 003c FFF7FEFF 		bl	memcpy
  92              	.LVL10:
1445:freertos\src/queue.c **** 		pxQueue->u.pcReadFrom -= pxQueue->uxItemSize;
ARM GAS  C:\Users\VIDEOH~1\AppData\Local\Temp\cc1cRMdm.s 			page 28


  93              		.loc 1 1445 0
  94 0040 236C     		ldr	r3, [r4, #64]
  95 0042 E268     		ldr	r2, [r4, #12]
  96 0044 5B42     		rsbs	r3, r3, #0
1446:freertos\src/queue.c **** 		if( pxQueue->u.pcReadFrom < pxQueue->pcHead ) /*lint !e946 MISRA exception justified as compariso
  97              		.loc 1 1446 0
  98 0046 2168     		ldr	r1, [r4]
1445:freertos\src/queue.c **** 		pxQueue->u.pcReadFrom -= pxQueue->uxItemSize;
  99              		.loc 1 1445 0
 100 0048 D218     		adds	r2, r2, r3
 101 004a E260     		str	r2, [r4, #12]
 102              		.loc 1 1446 0
 103 004c 8A42     		cmp	r2, r1
 104 004e 02D2     		bcs	.L7
1447:freertos\src/queue.c **** 		{
1448:freertos\src/queue.c **** 			pxQueue->u.pcReadFrom = ( pxQueue->pcTail - pxQueue->uxItemSize );
 105              		.loc 1 1448 0
 106 0050 6268     		ldr	r2, [r4, #4]
 107 0052 D318     		adds	r3, r2, r3
 108 0054 E360     		str	r3, [r4, #12]
 109              	.L7:
1449:freertos\src/queue.c **** 		}
1450:freertos\src/queue.c **** 
1451:freertos\src/queue.c **** 		if( xPosition == queueOVERWRITE )
 110              		.loc 1 1451 0
 111 0056 022D     		cmp	r5, #2
 112 0058 05D1     		bne	.L4
1452:freertos\src/queue.c **** 		{
1453:freertos\src/queue.c **** 			if( pxQueue->uxMessagesWaiting > ( unsigned portBASE_TYPE ) 0 )
 113              		.loc 1 1453 0
 114 005a A36B     		ldr	r3, [r4, #56]
 115 005c 002B     		cmp	r3, #0
 116 005e 02D0     		beq	.L4
1454:freertos\src/queue.c **** 			{
1455:freertos\src/queue.c **** 				/* An item is not being added but overwritten, so subtract
1456:freertos\src/queue.c **** 				one from the recorded number of items in the queue so when
1457:freertos\src/queue.c **** 				one is added again below the number of recorded items remains
1458:freertos\src/queue.c **** 				correct. */
1459:freertos\src/queue.c **** 				--( pxQueue->uxMessagesWaiting );
 117              		.loc 1 1459 0
 118 0060 A36B     		ldr	r3, [r4, #56]
 119 0062 013B     		subs	r3, r3, #1
 120 0064 A363     		str	r3, [r4, #56]
 121              	.LVL11:
 122              	.L4:
1460:freertos\src/queue.c **** 			}
1461:freertos\src/queue.c **** 		}
1462:freertos\src/queue.c **** 	}
1463:freertos\src/queue.c **** 
1464:freertos\src/queue.c **** 	++( pxQueue->uxMessagesWaiting );
 123              		.loc 1 1464 0
 124 0066 A36B     		ldr	r3, [r4, #56]
1465:freertos\src/queue.c **** }
 125              		.loc 1 1465 0
 126              		@ sp needed
1464:freertos\src/queue.c **** }
 127              		.loc 1 1464 0
ARM GAS  C:\Users\VIDEOH~1\AppData\Local\Temp\cc1cRMdm.s 			page 29


 128 0068 0133     		adds	r3, r3, #1
 129 006a A363     		str	r3, [r4, #56]
 130              	.LVL12:
 131              		.loc 1 1465 0
 132 006c 70BD     		pop	{r4, r5, r6, pc}
 133              		.cfi_endproc
 134              	.LFE44:
 135              		.size	prvCopyDataToQueue, .-prvCopyDataToQueue
 136              		.section	.text.prvCopyDataFromQueue,"ax",%progbits
 137              		.align	1
 138              		.code	16
 139              		.thumb_func
 140              		.type	prvCopyDataFromQueue, %function
 141              	prvCopyDataFromQueue:
 142              	.LFB45:
1466:freertos\src/queue.c **** /*-----------------------------------------------------------*/
1467:freertos\src/queue.c **** 
1468:freertos\src/queue.c **** static void prvCopyDataFromQueue( xQUEUE * const pxQueue, void * const pvBuffer )
1469:freertos\src/queue.c **** {
 143              		.loc 1 1469 0
 144              		.cfi_startproc
 145              		@ args = 0, pretend = 0, frame = 0
 146              		@ frame_needed = 0, uses_anonymous_args = 0
 147              	.LVL13:
 148 0000 0300     		movs	r3, r0
 149 0002 70B5     		push	{r4, r5, r6, lr}
 150              		.cfi_def_cfa_offset 16
 151              		.cfi_offset 4, -16
 152              		.cfi_offset 5, -12
 153              		.cfi_offset 6, -8
 154              		.cfi_offset 14, -4
1470:freertos\src/queue.c **** 	if( pxQueue->uxQueueType != queueQUEUE_IS_MUTEX )
 155              		.loc 1 1470 0
 156 0004 1C68     		ldr	r4, [r3]
1469:freertos\src/queue.c **** 	if( pxQueue->uxQueueType != queueQUEUE_IS_MUTEX )
 157              		.loc 1 1469 0
 158 0006 0800     		movs	r0, r1
 159              	.LVL14:
 160              		.loc 1 1470 0
 161 0008 002C     		cmp	r4, #0
 162 000a 0AD0     		beq	.L12
1471:freertos\src/queue.c **** 	{
1472:freertos\src/queue.c **** 		pxQueue->u.pcReadFrom += pxQueue->uxItemSize;
 163              		.loc 1 1472 0
 164 000c D968     		ldr	r1, [r3, #12]
 165              	.LVL15:
 166 000e 1A6C     		ldr	r2, [r3, #64]
1473:freertos\src/queue.c **** 		if( pxQueue->u.pcReadFrom >= pxQueue->pcTail ) /*lint !e946 MISRA exception justified as use of t
 167              		.loc 1 1473 0
 168 0010 5D68     		ldr	r5, [r3, #4]
1472:freertos\src/queue.c **** 		if( pxQueue->u.pcReadFrom >= pxQueue->pcTail ) /*lint !e946 MISRA exception justified as use of t
 169              		.loc 1 1472 0
 170 0012 8918     		adds	r1, r1, r2
 171 0014 D960     		str	r1, [r3, #12]
 172              		.loc 1 1473 0
 173 0016 A942     		cmp	r1, r5
 174 0018 00D3     		bcc	.L14
ARM GAS  C:\Users\VIDEOH~1\AppData\Local\Temp\cc1cRMdm.s 			page 30


1474:freertos\src/queue.c **** 		{
1475:freertos\src/queue.c **** 			pxQueue->u.pcReadFrom = pxQueue->pcHead;
 175              		.loc 1 1475 0
 176 001a DC60     		str	r4, [r3, #12]
 177              	.L14:
1476:freertos\src/queue.c **** 		}
1477:freertos\src/queue.c **** 		( void ) memcpy( ( void * ) pvBuffer, ( void * ) pxQueue->u.pcReadFrom, ( size_t ) pxQueue->uxIte
 178              		.loc 1 1477 0
 179 001c D968     		ldr	r1, [r3, #12]
 180 001e FFF7FEFF 		bl	memcpy
 181              	.LVL16:
 182              	.L12:
1478:freertos\src/queue.c **** 	}
1479:freertos\src/queue.c **** }
 183              		.loc 1 1479 0
 184              		@ sp needed
 185 0022 70BD     		pop	{r4, r5, r6, pc}
 186              		.cfi_endproc
 187              	.LFE45:
 188              		.size	prvCopyDataFromQueue, .-prvCopyDataFromQueue
 189              		.section	.text.prvUnlockQueue,"ax",%progbits
 190              		.align	1
 191              		.code	16
 192              		.thumb_func
 193              		.type	prvUnlockQueue, %function
 194              	prvUnlockQueue:
 195              	.LFB46:
1480:freertos\src/queue.c **** /*-----------------------------------------------------------*/
1481:freertos\src/queue.c **** 
1482:freertos\src/queue.c **** static void prvUnlockQueue( xQUEUE *pxQueue )
1483:freertos\src/queue.c **** {
 196              		.loc 1 1483 0
 197              		.cfi_startproc
 198              		@ args = 0, pretend = 0, frame = 0
 199              		@ frame_needed = 0, uses_anonymous_args = 0
 200              	.LVL17:
 201 0000 10B5     		push	{r4, lr}
 202              		.cfi_def_cfa_offset 8
 203              		.cfi_offset 4, -8
 204              		.cfi_offset 14, -4
 205              		.loc 1 1483 0
 206 0002 0400     		movs	r4, r0
1484:freertos\src/queue.c **** 	/* THIS FUNCTION MUST BE CALLED WITH THE SCHEDULER SUSPENDED. */
1485:freertos\src/queue.c **** 
1486:freertos\src/queue.c **** 	/* The lock counts contains the number of extra data items placed or
1487:freertos\src/queue.c **** 	removed from the queue while the queue was locked.  When a queue is
1488:freertos\src/queue.c **** 	locked items can be added or removed, but the event lists cannot be
1489:freertos\src/queue.c **** 	updated. */
1490:freertos\src/queue.c **** 	taskENTER_CRITICAL();
 207              		.loc 1 1490 0
 208 0004 FFF7FEFF 		bl	vPortEnterCritical
 209              	.LVL18:
 210              	.L19:
1491:freertos\src/queue.c **** 	{
1492:freertos\src/queue.c **** 		/* See if data was added to the queue while it was locked. */
1493:freertos\src/queue.c **** 		while( pxQueue->xTxLock > queueLOCKED_UNMODIFIED )
 211              		.loc 1 1493 0
ARM GAS  C:\Users\VIDEOH~1\AppData\Local\Temp\cc1cRMdm.s 			page 31


 212 0008 A36C     		ldr	r3, [r4, #72]
 213 000a 002B     		cmp	r3, #0
 214 000c 0EDD     		ble	.L20
1494:freertos\src/queue.c **** 		{
1495:freertos\src/queue.c **** 			/* Data was posted while the queue was locked.  Are any tasks
1496:freertos\src/queue.c **** 			blocked waiting for data to become available? */
1497:freertos\src/queue.c **** 			#if ( configUSE_QUEUE_SETS == 1 )
1498:freertos\src/queue.c **** 			{
1499:freertos\src/queue.c **** 				if( pxQueue->pxQueueSetContainer != NULL )
1500:freertos\src/queue.c **** 				{
1501:freertos\src/queue.c **** 					if( prvNotifyQueueSetContainer( pxQueue, queueSEND_TO_BACK ) == pdTRUE )
1502:freertos\src/queue.c **** 					{
1503:freertos\src/queue.c **** 						/* The queue is a member of a queue set, and posting to
1504:freertos\src/queue.c **** 						the queue set caused a higher priority task to unblock.
1505:freertos\src/queue.c **** 						A context switch is required. */
1506:freertos\src/queue.c **** 						vTaskMissedYield();
1507:freertos\src/queue.c **** 					}
1508:freertos\src/queue.c **** 				}
1509:freertos\src/queue.c **** 				else
1510:freertos\src/queue.c **** 				{
1511:freertos\src/queue.c **** 					/* Tasks that are removed from the event list will get added to
1512:freertos\src/queue.c **** 					the pending ready list as the scheduler is still suspended. */
1513:freertos\src/queue.c **** 					if( listLIST_IS_EMPTY( &( pxQueue->xTasksWaitingToReceive ) ) == pdFALSE )
1514:freertos\src/queue.c **** 					{
1515:freertos\src/queue.c **** 						if( xTaskRemoveFromEventList( &( pxQueue->xTasksWaitingToReceive ) ) != pdFALSE )
1516:freertos\src/queue.c **** 						{
1517:freertos\src/queue.c **** 							/* The task waiting has a higher priority so record that a
1518:freertos\src/queue.c **** 							context	switch is required. */
1519:freertos\src/queue.c **** 							vTaskMissedYield();
1520:freertos\src/queue.c **** 						}
1521:freertos\src/queue.c **** 					}
1522:freertos\src/queue.c **** 					else
1523:freertos\src/queue.c **** 					{
1524:freertos\src/queue.c **** 						break;
1525:freertos\src/queue.c **** 					}
1526:freertos\src/queue.c **** 				}
1527:freertos\src/queue.c **** 			}
1528:freertos\src/queue.c **** 			#else /* configUSE_QUEUE_SETS */
1529:freertos\src/queue.c **** 			{
1530:freertos\src/queue.c **** 				/* Tasks that are removed from the event list will get added to
1531:freertos\src/queue.c **** 				the pending ready list as the scheduler is still suspended. */
1532:freertos\src/queue.c **** 				if( listLIST_IS_EMPTY( &( pxQueue->xTasksWaitingToReceive ) ) == pdFALSE )
 215              		.loc 1 1532 0
 216 000e 636A     		ldr	r3, [r4, #36]
 217 0010 002B     		cmp	r3, #0
 218 0012 0BD0     		beq	.L20
1533:freertos\src/queue.c **** 				{
1534:freertos\src/queue.c **** 					if( xTaskRemoveFromEventList( &( pxQueue->xTasksWaitingToReceive ) ) != pdFALSE )
 219              		.loc 1 1534 0
 220 0014 2000     		movs	r0, r4
 221 0016 2430     		adds	r0, r0, #36
 222 0018 FFF7FEFF 		bl	xTaskRemoveFromEventList
 223              	.LVL19:
 224 001c 0028     		cmp	r0, #0
 225 001e 01D0     		beq	.L21
1535:freertos\src/queue.c **** 					{
1536:freertos\src/queue.c **** 						/* The task waiting has a higher priority so record that a
ARM GAS  C:\Users\VIDEOH~1\AppData\Local\Temp\cc1cRMdm.s 			page 32


1537:freertos\src/queue.c **** 						context	switch is required. */
1538:freertos\src/queue.c **** 						vTaskMissedYield();
 226              		.loc 1 1538 0
 227 0020 FFF7FEFF 		bl	vTaskMissedYield
 228              	.LVL20:
 229              	.L21:
1539:freertos\src/queue.c **** 					}
1540:freertos\src/queue.c **** 				}
1541:freertos\src/queue.c **** 				else
1542:freertos\src/queue.c **** 				{
1543:freertos\src/queue.c **** 					break;
1544:freertos\src/queue.c **** 				}
1545:freertos\src/queue.c **** 			}
1546:freertos\src/queue.c **** 			#endif /* configUSE_QUEUE_SETS */
1547:freertos\src/queue.c **** 
1548:freertos\src/queue.c **** 			--( pxQueue->xTxLock );
 230              		.loc 1 1548 0
 231 0024 A36C     		ldr	r3, [r4, #72]
 232 0026 013B     		subs	r3, r3, #1
 233 0028 A364     		str	r3, [r4, #72]
 234 002a EDE7     		b	.L19
 235              	.L20:
1549:freertos\src/queue.c **** 		}
1550:freertos\src/queue.c **** 
1551:freertos\src/queue.c **** 		pxQueue->xTxLock = queueUNLOCKED;
 236              		.loc 1 1551 0
 237 002c 0123     		movs	r3, #1
 238 002e 5B42     		rsbs	r3, r3, #0
 239 0030 A364     		str	r3, [r4, #72]
1552:freertos\src/queue.c **** 	}
1553:freertos\src/queue.c **** 	taskEXIT_CRITICAL();
 240              		.loc 1 1553 0
 241 0032 FFF7FEFF 		bl	vPortExitCritical
 242              	.LVL21:
1554:freertos\src/queue.c **** 
1555:freertos\src/queue.c **** 	/* Do the same for the Rx lock. */
1556:freertos\src/queue.c **** 	taskENTER_CRITICAL();
 243              		.loc 1 1556 0
 244 0036 FFF7FEFF 		bl	vPortEnterCritical
 245              	.LVL22:
 246              	.L23:
1557:freertos\src/queue.c **** 	{
1558:freertos\src/queue.c **** 		while( pxQueue->xRxLock > queueLOCKED_UNMODIFIED )
 247              		.loc 1 1558 0
 248 003a 636C     		ldr	r3, [r4, #68]
 249 003c 002B     		cmp	r3, #0
 250 003e 0EDD     		ble	.L24
1559:freertos\src/queue.c **** 		{
1560:freertos\src/queue.c **** 			if( listLIST_IS_EMPTY( &( pxQueue->xTasksWaitingToSend ) ) == pdFALSE )
 251              		.loc 1 1560 0
 252 0040 2369     		ldr	r3, [r4, #16]
 253 0042 002B     		cmp	r3, #0
 254 0044 0BD0     		beq	.L24
1561:freertos\src/queue.c **** 			{
1562:freertos\src/queue.c **** 				if( xTaskRemoveFromEventList( &( pxQueue->xTasksWaitingToSend ) ) != pdFALSE )
 255              		.loc 1 1562 0
 256 0046 2000     		movs	r0, r4
ARM GAS  C:\Users\VIDEOH~1\AppData\Local\Temp\cc1cRMdm.s 			page 33


 257 0048 1030     		adds	r0, r0, #16
 258 004a FFF7FEFF 		bl	xTaskRemoveFromEventList
 259              	.LVL23:
 260 004e 0028     		cmp	r0, #0
 261 0050 01D0     		beq	.L25
1563:freertos\src/queue.c **** 				{
1564:freertos\src/queue.c **** 					vTaskMissedYield();
 262              		.loc 1 1564 0
 263 0052 FFF7FEFF 		bl	vTaskMissedYield
 264              	.LVL24:
 265              	.L25:
1565:freertos\src/queue.c **** 				}
1566:freertos\src/queue.c **** 
1567:freertos\src/queue.c **** 				--( pxQueue->xRxLock );
 266              		.loc 1 1567 0
 267 0056 636C     		ldr	r3, [r4, #68]
 268 0058 013B     		subs	r3, r3, #1
 269 005a 6364     		str	r3, [r4, #68]
 270 005c EDE7     		b	.L23
 271              	.L24:
1568:freertos\src/queue.c **** 			}
1569:freertos\src/queue.c **** 			else
1570:freertos\src/queue.c **** 			{
1571:freertos\src/queue.c **** 				break;
1572:freertos\src/queue.c **** 			}
1573:freertos\src/queue.c **** 		}
1574:freertos\src/queue.c **** 
1575:freertos\src/queue.c **** 		pxQueue->xRxLock = queueUNLOCKED;
 272              		.loc 1 1575 0
 273 005e 0123     		movs	r3, #1
 274 0060 5B42     		rsbs	r3, r3, #0
 275 0062 6364     		str	r3, [r4, #68]
1576:freertos\src/queue.c **** 	}
1577:freertos\src/queue.c **** 	taskEXIT_CRITICAL();
 276              		.loc 1 1577 0
 277 0064 FFF7FEFF 		bl	vPortExitCritical
 278              	.LVL25:
1578:freertos\src/queue.c **** }
 279              		.loc 1 1578 0
 280              		@ sp needed
 281              	.LVL26:
 282 0068 10BD     		pop	{r4, pc}
 283              		.cfi_endproc
 284              	.LFE46:
 285              		.size	prvUnlockQueue, .-prvUnlockQueue
 286              		.section	.text.xQueueGenericReset,"ax",%progbits
 287              		.align	1
 288              		.global	xQueueGenericReset
 289              		.code	16
 290              		.thumb_func
 291              		.type	xQueueGenericReset, %function
 292              	xQueueGenericReset:
 293              	.LFB32:
 247:freertos\src/queue.c **** xQUEUE * const pxQueue = ( xQUEUE * ) xQueue;
 294              		.loc 1 247 0
 295              		.cfi_startproc
 296              		@ args = 0, pretend = 0, frame = 0
ARM GAS  C:\Users\VIDEOH~1\AppData\Local\Temp\cc1cRMdm.s 			page 34


 297              		@ frame_needed = 0, uses_anonymous_args = 0
 298              	.LVL27:
 299 0000 70B5     		push	{r4, r5, r6, lr}
 300              		.cfi_def_cfa_offset 16
 301              		.cfi_offset 4, -16
 302              		.cfi_offset 5, -12
 303              		.cfi_offset 6, -8
 304              		.cfi_offset 14, -4
 247:freertos\src/queue.c **** xQUEUE * const pxQueue = ( xQUEUE * ) xQueue;
 305              		.loc 1 247 0
 306 0002 0400     		movs	r4, r0
 307              	.LVL28:
 308 0004 0D00     		movs	r5, r1
 252:freertos\src/queue.c **** 	{
 309              		.loc 1 252 0
 310 0006 FFF7FEFF 		bl	vPortEnterCritical
 311              	.LVL29:
 254:freertos\src/queue.c **** 		pxQueue->uxMessagesWaiting = ( unsigned portBASE_TYPE ) 0U;
 312              		.loc 1 254 0
 313 000a 216C     		ldr	r1, [r4, #64]
 314 000c E36B     		ldr	r3, [r4, #60]
 315 000e 2268     		ldr	r2, [r4]
 316 0010 4B43     		muls	r3, r1
 317 0012 D018     		adds	r0, r2, r3
 257:freertos\src/queue.c **** 		pxQueue->xRxLock = queueUNLOCKED;
 318              		.loc 1 257 0
 319 0014 5B1A     		subs	r3, r3, r1
 320 0016 D318     		adds	r3, r2, r3
 321 0018 E360     		str	r3, [r4, #12]
 258:freertos\src/queue.c **** 		pxQueue->xTxLock = queueUNLOCKED;
 322              		.loc 1 258 0
 323 001a 0123     		movs	r3, #1
 254:freertos\src/queue.c **** 		pxQueue->uxMessagesWaiting = ( unsigned portBASE_TYPE ) 0U;
 324              		.loc 1 254 0
 325 001c 6060     		str	r0, [r4, #4]
 255:freertos\src/queue.c **** 		pxQueue->pcWriteTo = pxQueue->pcHead;
 326              		.loc 1 255 0
 327 001e 0020     		movs	r0, #0
 258:freertos\src/queue.c **** 		pxQueue->xTxLock = queueUNLOCKED;
 328              		.loc 1 258 0
 329 0020 5B42     		rsbs	r3, r3, #0
 255:freertos\src/queue.c **** 		pxQueue->pcWriteTo = pxQueue->pcHead;
 330              		.loc 1 255 0
 331 0022 A063     		str	r0, [r4, #56]
 256:freertos\src/queue.c **** 		pxQueue->u.pcReadFrom = pxQueue->pcHead + ( ( pxQueue->uxLength - ( unsigned portBASE_TYPE ) 1U )
 332              		.loc 1 256 0
 333 0024 A260     		str	r2, [r4, #8]
 258:freertos\src/queue.c **** 		pxQueue->xTxLock = queueUNLOCKED;
 334              		.loc 1 258 0
 335 0026 6364     		str	r3, [r4, #68]
 259:freertos\src/queue.c **** 
 336              		.loc 1 259 0
 337 0028 A364     		str	r3, [r4, #72]
 261:freertos\src/queue.c **** 		{
 338              		.loc 1 261 0
 339 002a 8542     		cmp	r5, r0
 340 002c 0BD1     		bne	.L40
ARM GAS  C:\Users\VIDEOH~1\AppData\Local\Temp\cc1cRMdm.s 			page 35


 268:freertos\src/queue.c **** 			{
 341              		.loc 1 268 0
 342 002e 2369     		ldr	r3, [r4, #16]
 343 0030 8342     		cmp	r3, r0
 344 0032 10D0     		beq	.L42
 270:freertos\src/queue.c **** 				{
 345              		.loc 1 270 0
 346 0034 2000     		movs	r0, r4
 347 0036 1030     		adds	r0, r0, #16
 348 0038 FFF7FEFF 		bl	xTaskRemoveFromEventList
 349              	.LVL30:
 350 003c 0128     		cmp	r0, #1
 351 003e 0AD1     		bne	.L42
 272:freertos\src/queue.c **** 				}
 352              		.loc 1 272 0
 353 0040 FFF7FEFF 		bl	vPortYield
 354              	.LVL31:
 355 0044 07E0     		b	.L42
 356              	.L40:
 279:freertos\src/queue.c **** 			vListInitialise( &( pxQueue->xTasksWaitingToReceive ) );
 357              		.loc 1 279 0
 358 0046 2000     		movs	r0, r4
 359 0048 1030     		adds	r0, r0, #16
 360 004a FFF7FEFF 		bl	vListInitialise
 361              	.LVL32:
 280:freertos\src/queue.c **** 		}
 362              		.loc 1 280 0
 363 004e 2000     		movs	r0, r4
 364 0050 2430     		adds	r0, r0, #36
 365 0052 FFF7FEFF 		bl	vListInitialise
 366              	.LVL33:
 367              	.L42:
 283:freertos\src/queue.c **** 
 368              		.loc 1 283 0
 369 0056 FFF7FEFF 		bl	vPortExitCritical
 370              	.LVL34:
 288:freertos\src/queue.c **** /*-----------------------------------------------------------*/
 371              		.loc 1 288 0
 372              		@ sp needed
 373 005a 0120     		movs	r0, #1
 374              	.LVL35:
 375              	.LVL36:
 376 005c 70BD     		pop	{r4, r5, r6, pc}
 377              		.cfi_endproc
 378              	.LFE32:
 379              		.size	xQueueGenericReset, .-xQueueGenericReset
 380              		.section	.text.xQueueGenericCreate,"ax",%progbits
 381              		.align	1
 382              		.global	xQueueGenericCreate
 383              		.code	16
 384              		.thumb_func
 385              		.type	xQueueGenericCreate, %function
 386              	xQueueGenericCreate:
 387              	.LFB33:
 292:freertos\src/queue.c **** xQUEUE *pxNewQueue;
 388              		.loc 1 292 0
 389              		.cfi_startproc
ARM GAS  C:\Users\VIDEOH~1\AppData\Local\Temp\cc1cRMdm.s 			page 36


 390              		@ args = 0, pretend = 0, frame = 0
 391              		@ frame_needed = 0, uses_anonymous_args = 0
 392              	.LVL37:
 393 0000 F8B5     		push	{r3, r4, r5, r6, r7, lr}
 394              		.cfi_def_cfa_offset 24
 395              		.cfi_offset 3, -24
 396              		.cfi_offset 4, -20
 397              		.cfi_offset 5, -16
 398              		.cfi_offset 6, -12
 399              		.cfi_offset 7, -8
 400              		.cfi_offset 14, -4
 292:freertos\src/queue.c **** xQUEUE *pxNewQueue;
 401              		.loc 1 292 0
 402 0002 0600     		movs	r6, r0
 403 0004 0F00     		movs	r7, r1
 302:freertos\src/queue.c **** 	{
 404              		.loc 1 302 0
 405 0006 0028     		cmp	r0, #0
 406 0008 01D1     		bne	.L45
 407              	.LVL38:
 408              	.L47:
 295:freertos\src/queue.c **** 
 409              		.loc 1 295 0
 410 000a 0024     		movs	r4, #0
 411 000c 17E0     		b	.L46
 412              	.LVL39:
 413              	.L45:
 304:freertos\src/queue.c **** 		if( pxNewQueue != NULL )
 414              		.loc 1 304 0
 415 000e 4C20     		movs	r0, #76
 416              	.LVL40:
 417 0010 FFF7FEFF 		bl	pvPortMalloc
 418              	.LVL41:
 419 0014 041E     		subs	r4, r0, #0
 420              	.LVL42:
 305:freertos\src/queue.c **** 		{
 421              		.loc 1 305 0
 422 0016 F8D0     		beq	.L47
 423              	.LVL43:
 311:freertos\src/queue.c **** 			if( pxNewQueue->pcHead != NULL )
 424              		.loc 1 311 0
 425 0018 3800     		movs	r0, r7
 426              	.LVL44:
 427 001a 7043     		muls	r0, r6
 428 001c 0130     		adds	r0, r0, #1
 429              	.LVL45:
 430 001e FFF7FEFF 		bl	pvPortMalloc
 431              	.LVL46:
 432 0022 051E     		subs	r5, r0, #0
 433 0024 2060     		str	r0, [r4]
 312:freertos\src/queue.c **** 			{
 434              		.loc 1 312 0
 435 0026 06D0     		beq	.L48
 316:freertos\src/queue.c **** 				pxNewQueue->uxItemSize = uxItemSize;
 436              		.loc 1 316 0
 437 0028 E663     		str	r6, [r4, #60]
 317:freertos\src/queue.c **** 				( void ) xQueueGenericReset( pxNewQueue, pdTRUE );
ARM GAS  C:\Users\VIDEOH~1\AppData\Local\Temp\cc1cRMdm.s 			page 37


 438              		.loc 1 317 0
 439 002a 2764     		str	r7, [r4, #64]
 318:freertos\src/queue.c **** 
 440              		.loc 1 318 0
 441 002c 0121     		movs	r1, #1
 442 002e 2000     		movs	r0, r4
 443 0030 FFF7FEFF 		bl	xQueueGenericReset
 444              	.LVL47:
 445 0034 03E0     		b	.L46
 446              	.LVL48:
 447              	.L48:
 338:freertos\src/queue.c **** 			}
 448              		.loc 1 338 0
 449 0036 2000     		movs	r0, r4
 450 0038 FFF7FEFF 		bl	vPortFree
 451              	.LVL49:
 295:freertos\src/queue.c **** 
 452              		.loc 1 295 0
 453 003c 2C00     		movs	r4, r5
 454              	.LVL50:
 455              	.L46:
 346:freertos\src/queue.c **** /*-----------------------------------------------------------*/
 456              		.loc 1 346 0
 457 003e 2000     		movs	r0, r4
 458              		@ sp needed
 459              	.LVL51:
 460              	.LVL52:
 461              	.LVL53:
 462 0040 F8BD     		pop	{r3, r4, r5, r6, r7, pc}
 463              		.cfi_endproc
 464              	.LFE33:
 465              		.size	xQueueGenericCreate, .-xQueueGenericCreate
 466              		.section	.text.xQueueGenericSend,"ax",%progbits
 467              		.align	1
 468              		.global	xQueueGenericSend
 469              		.code	16
 470              		.thumb_func
 471              		.type	xQueueGenericSend, %function
 472              	xQueueGenericSend:
 473              	.LFB35:
 565:freertos\src/queue.c **** signed portBASE_TYPE xEntryTimeSet = pdFALSE;
 474              		.loc 1 565 0
 475              		.cfi_startproc
 476              		@ args = 0, pretend = 0, frame = 16
 477              		@ frame_needed = 0, uses_anonymous_args = 0
 478              	.LVL54:
 479 0000 F0B5     		push	{r4, r5, r6, r7, lr}
 480              		.cfi_def_cfa_offset 20
 481              		.cfi_offset 4, -20
 482              		.cfi_offset 5, -16
 483              		.cfi_offset 6, -12
 484              		.cfi_offset 7, -8
 485              		.cfi_offset 14, -4
 486 0002 0400     		movs	r4, r0
 487              	.LVL55:
 488 0004 1F00     		movs	r7, r3
 566:freertos\src/queue.c **** xTimeOutType xTimeOut;
ARM GAS  C:\Users\VIDEOH~1\AppData\Local\Temp\cc1cRMdm.s 			page 38


 489              		.loc 1 566 0
 490 0006 0026     		movs	r6, #0
 565:freertos\src/queue.c **** signed portBASE_TYPE xEntryTimeSet = pdFALSE;
 491              		.loc 1 565 0
 492 0008 85B0     		sub	sp, sp, #20
 493              		.cfi_def_cfa_offset 40
 565:freertos\src/queue.c **** signed portBASE_TYPE xEntryTimeSet = pdFALSE;
 494              		.loc 1 565 0
 495 000a 0091     		str	r1, [sp]
 496 000c 0192     		str	r2, [sp, #4]
 497              	.LVL56:
 498              	.L53:
 579:freertos\src/queue.c **** 		{
 499              		.loc 1 579 0
 500 000e FFF7FEFF 		bl	vPortEnterCritical
 501              	.LVL57:
 585:freertos\src/queue.c **** 			{
 502              		.loc 1 585 0
 503 0012 A36B     		ldr	r3, [r4, #56]
 504 0014 E26B     		ldr	r2, [r4, #60]
 505 0016 9342     		cmp	r3, r2
 506 0018 01D3     		bcc	.L54
 585:freertos\src/queue.c **** 			{
 507              		.loc 1 585 0 is_stmt 0 discriminator 1
 508 001a 022F     		cmp	r7, #2
 509 001c 13D1     		bne	.L55
 510              	.L54:
 588:freertos\src/queue.c **** 
 511              		.loc 1 588 0 is_stmt 1
 512 001e 3A00     		movs	r2, r7
 513 0020 0099     		ldr	r1, [sp]
 514 0022 2000     		movs	r0, r4
 515 0024 FFF7FEFF 		bl	prvCopyDataToQueue
 516              	.LVL58:
 623:freertos\src/queue.c **** 					{
 517              		.loc 1 623 0
 518 0028 636A     		ldr	r3, [r4, #36]
 519 002a 002B     		cmp	r3, #0
 520 002c 07D0     		beq	.L57
 625:freertos\src/queue.c **** 						{
 521              		.loc 1 625 0
 522 002e 2000     		movs	r0, r4
 523 0030 2430     		adds	r0, r0, #36
 524 0032 FFF7FEFF 		bl	xTaskRemoveFromEventList
 525              	.LVL59:
 526 0036 0128     		cmp	r0, #1
 527 0038 01D1     		bne	.L57
 631:freertos\src/queue.c **** 						}
 528              		.loc 1 631 0
 529 003a FFF7FEFF 		bl	vPortYield
 530              	.LVL60:
 531              	.L57:
 637:freertos\src/queue.c **** 
 532              		.loc 1 637 0
 533 003e FFF7FEFF 		bl	vPortExitCritical
 534              	.LVL61:
 641:freertos\src/queue.c **** 			}
ARM GAS  C:\Users\VIDEOH~1\AppData\Local\Temp\cc1cRMdm.s 			page 39


 535              		.loc 1 641 0
 536 0042 0120     		movs	r0, #1
 537 0044 48E0     		b	.L59
 538              	.L55:
 645:freertos\src/queue.c **** 				{
 539              		.loc 1 645 0
 540 0046 019D     		ldr	r5, [sp, #4]
 541 0048 002D     		cmp	r5, #0
 542 004a 03D1     		bne	.L60
 649:freertos\src/queue.c **** 
 543              		.loc 1 649 0
 544 004c FFF7FEFF 		bl	vPortExitCritical
 545              	.LVL62:
 654:freertos\src/queue.c **** 				}
 546              		.loc 1 654 0
 547 0050 2800     		movs	r0, r5
 548 0052 41E0     		b	.L59
 549              	.L60:
 656:freertos\src/queue.c **** 				{
 550              		.loc 1 656 0
 551 0054 002E     		cmp	r6, #0
 552 0056 02D1     		bne	.L61
 660:freertos\src/queue.c **** 					xEntryTimeSet = pdTRUE;
 553              		.loc 1 660 0
 554 0058 02A8     		add	r0, sp, #8
 555 005a FFF7FEFF 		bl	vTaskSetTimeOutState
 556              	.LVL63:
 557              	.L61:
 669:freertos\src/queue.c **** 
 558              		.loc 1 669 0
 559 005e FFF7FEFF 		bl	vPortExitCritical
 560              	.LVL64:
 674:freertos\src/queue.c **** 		prvLockQueue( pxQueue );
 561              		.loc 1 674 0
 562 0062 FFF7FEFF 		bl	vTaskSuspendAll
 563              	.LVL65:
 675:freertos\src/queue.c **** 
 564              		.loc 1 675 0
 565 0066 FFF7FEFF 		bl	vPortEnterCritical
 566              	.LVL66:
 567 006a 636C     		ldr	r3, [r4, #68]
 568 006c 0133     		adds	r3, r3, #1
 569 006e 01D1     		bne	.L62
 675:freertos\src/queue.c **** 
 570              		.loc 1 675 0 is_stmt 0 discriminator 1
 571 0070 0023     		movs	r3, #0
 572 0072 6364     		str	r3, [r4, #68]
 573              	.L62:
 675:freertos\src/queue.c **** 
 574              		.loc 1 675 0 discriminator 3
 575 0074 A36C     		ldr	r3, [r4, #72]
 576 0076 0133     		adds	r3, r3, #1
 577 0078 01D1     		bne	.L63
 675:freertos\src/queue.c **** 
 578              		.loc 1 675 0 discriminator 4
 579 007a 0023     		movs	r3, #0
 580 007c A364     		str	r3, [r4, #72]
ARM GAS  C:\Users\VIDEOH~1\AppData\Local\Temp\cc1cRMdm.s 			page 40


 581              	.L63:
 675:freertos\src/queue.c **** 
 582              		.loc 1 675 0 discriminator 6
 583 007e FFF7FEFF 		bl	vPortExitCritical
 584              	.LVL67:
 678:freertos\src/queue.c **** 		{
 585              		.loc 1 678 0 is_stmt 1 discriminator 6
 586 0082 01A9     		add	r1, sp, #4
 587              	.LVL68:
 588 0084 02A8     		add	r0, sp, #8
 589 0086 FFF7FEFF 		bl	xTaskCheckForTimeOut
 590              	.LVL69:
 591 008a 0028     		cmp	r0, #0
 592 008c 1ED1     		bne	.L64
 593              	.LVL70:
 594              	.LBB4:
 595              	.LBB5:
1579:freertos\src/queue.c **** /*-----------------------------------------------------------*/
1580:freertos\src/queue.c **** 
1581:freertos\src/queue.c **** static signed portBASE_TYPE prvIsQueueEmpty( const xQUEUE *pxQueue )
1582:freertos\src/queue.c **** {
1583:freertos\src/queue.c **** signed portBASE_TYPE xReturn;
1584:freertos\src/queue.c **** 
1585:freertos\src/queue.c **** 	taskENTER_CRITICAL();
1586:freertos\src/queue.c **** 	{
1587:freertos\src/queue.c **** 		if( pxQueue->uxMessagesWaiting == ( unsigned portBASE_TYPE )  0 )
1588:freertos\src/queue.c **** 		{
1589:freertos\src/queue.c **** 			xReturn = pdTRUE;
1590:freertos\src/queue.c **** 		}
1591:freertos\src/queue.c **** 		else
1592:freertos\src/queue.c **** 		{
1593:freertos\src/queue.c **** 			xReturn = pdFALSE;
1594:freertos\src/queue.c **** 		}
1595:freertos\src/queue.c **** 	}
1596:freertos\src/queue.c **** 	taskEXIT_CRITICAL();
1597:freertos\src/queue.c **** 
1598:freertos\src/queue.c **** 	return xReturn;
1599:freertos\src/queue.c **** }
1600:freertos\src/queue.c **** /*-----------------------------------------------------------*/
1601:freertos\src/queue.c **** 
1602:freertos\src/queue.c **** signed portBASE_TYPE xQueueIsQueueEmptyFromISR( const xQueueHandle xQueue )
1603:freertos\src/queue.c **** {
1604:freertos\src/queue.c **** signed portBASE_TYPE xReturn;
1605:freertos\src/queue.c **** 
1606:freertos\src/queue.c **** 	configASSERT( xQueue );
1607:freertos\src/queue.c **** 	if( ( ( xQUEUE * ) xQueue )->uxMessagesWaiting == ( unsigned portBASE_TYPE ) 0 )
1608:freertos\src/queue.c **** 	{
1609:freertos\src/queue.c **** 		xReturn = pdTRUE;
1610:freertos\src/queue.c **** 	}
1611:freertos\src/queue.c **** 	else
1612:freertos\src/queue.c **** 	{
1613:freertos\src/queue.c **** 		xReturn = pdFALSE;
1614:freertos\src/queue.c **** 	}
1615:freertos\src/queue.c **** 
1616:freertos\src/queue.c **** 	return xReturn;
1617:freertos\src/queue.c **** } /*lint !e818 xQueue could not be pointer to const because it is a typedef. */
1618:freertos\src/queue.c **** /*-----------------------------------------------------------*/
ARM GAS  C:\Users\VIDEOH~1\AppData\Local\Temp\cc1cRMdm.s 			page 41


1619:freertos\src/queue.c **** 
1620:freertos\src/queue.c **** static signed portBASE_TYPE prvIsQueueFull( const xQUEUE *pxQueue )
1621:freertos\src/queue.c **** {
1622:freertos\src/queue.c **** signed portBASE_TYPE xReturn;
1623:freertos\src/queue.c **** 
1624:freertos\src/queue.c **** 	taskENTER_CRITICAL();
 596              		.loc 1 1624 0
 597 008e FFF7FEFF 		bl	vPortEnterCritical
 598              	.LVL71:
1625:freertos\src/queue.c **** 	{
1626:freertos\src/queue.c **** 		if( pxQueue->uxMessagesWaiting == pxQueue->uxLength )
 599              		.loc 1 1626 0
 600 0092 A66B     		ldr	r6, [r4, #56]
 601 0094 E56B     		ldr	r5, [r4, #60]
 602              	.LVL72:
1627:freertos\src/queue.c **** 		{
1628:freertos\src/queue.c **** 			xReturn = pdTRUE;
1629:freertos\src/queue.c **** 		}
1630:freertos\src/queue.c **** 		else
1631:freertos\src/queue.c **** 		{
1632:freertos\src/queue.c **** 			xReturn = pdFALSE;
1633:freertos\src/queue.c **** 		}
1634:freertos\src/queue.c **** 	}
1635:freertos\src/queue.c **** 	taskEXIT_CRITICAL();
 603              		.loc 1 1635 0
 604 0096 FFF7FEFF 		bl	vPortExitCritical
 605              	.LVL73:
 606              	.LBE5:
 607              	.LBE4:
 680:freertos\src/queue.c **** 			{
 608              		.loc 1 680 0
 609 009a AE42     		cmp	r6, r5
 610 009c 10D1     		bne	.L65
 683:freertos\src/queue.c **** 
 611              		.loc 1 683 0
 612 009e 2000     		movs	r0, r4
 613 00a0 0199     		ldr	r1, [sp, #4]
 614 00a2 1030     		adds	r0, r0, #16
 615 00a4 FFF7FEFF 		bl	vTaskPlaceOnEventList
 616              	.LVL74:
 690:freertos\src/queue.c **** 
 617              		.loc 1 690 0
 618 00a8 2000     		movs	r0, r4
 619 00aa FFF7FEFF 		bl	prvUnlockQueue
 620              	.LVL75:
 697:freertos\src/queue.c **** 				{
 621              		.loc 1 697 0
 622 00ae FFF7FEFF 		bl	xTaskResumeAll
 623              	.LVL76:
 624 00b2 0028     		cmp	r0, #0
 625 00b4 01D0     		beq	.L67
 626              	.L66:
 627 00b6 0126     		movs	r6, #1
 628 00b8 A9E7     		b	.L53
 629              	.L67:
 699:freertos\src/queue.c **** 				}
 630              		.loc 1 699 0
ARM GAS  C:\Users\VIDEOH~1\AppData\Local\Temp\cc1cRMdm.s 			page 42


 631 00ba FFF7FEFF 		bl	vPortYield
 632              	.LVL77:
 633 00be FAE7     		b	.L66
 634              	.L65:
 705:freertos\src/queue.c **** 				( void ) xTaskResumeAll();
 635              		.loc 1 705 0
 636 00c0 2000     		movs	r0, r4
 637 00c2 FFF7FEFF 		bl	prvUnlockQueue
 638              	.LVL78:
 706:freertos\src/queue.c **** 			}
 639              		.loc 1 706 0
 640 00c6 FFF7FEFF 		bl	xTaskResumeAll
 641              	.LVL79:
 642 00ca F4E7     		b	.L66
 643              	.L64:
 712:freertos\src/queue.c **** 			( void ) xTaskResumeAll();
 644              		.loc 1 712 0
 645 00cc 2000     		movs	r0, r4
 646 00ce FFF7FEFF 		bl	prvUnlockQueue
 647              	.LVL80:
 713:freertos\src/queue.c **** 
 648              		.loc 1 713 0
 649 00d2 FFF7FEFF 		bl	xTaskResumeAll
 650              	.LVL81:
 718:freertos\src/queue.c **** 		}
 651              		.loc 1 718 0
 652 00d6 0020     		movs	r0, #0
 653              	.LVL82:
 654              	.L59:
 721:freertos\src/queue.c **** /*-----------------------------------------------------------*/
 655              		.loc 1 721 0
 656 00d8 05B0     		add	sp, sp, #20
 657              	.LVL83:
 658              		@ sp needed
 659              	.LVL84:
 660              	.LVL85:
 661 00da F0BD     		pop	{r4, r5, r6, r7, pc}
 662              		.cfi_endproc
 663              	.LFE35:
 664              		.size	xQueueGenericSend, .-xQueueGenericSend
 665              		.section	.text.xQueueCreateMutex,"ax",%progbits
 666              		.align	1
 667              		.global	xQueueCreateMutex
 668              		.code	16
 669              		.thumb_func
 670              		.type	xQueueCreateMutex, %function
 671              	xQueueCreateMutex:
 672              	.LFB34:
 352:freertos\src/queue.c **** 	xQUEUE *pxNewQueue;
 673              		.loc 1 352 0
 674              		.cfi_startproc
 675              		@ args = 0, pretend = 0, frame = 0
 676              		@ frame_needed = 0, uses_anonymous_args = 0
 677              	.LVL86:
 678 0000 70B5     		push	{r4, r5, r6, lr}
 679              		.cfi_def_cfa_offset 16
 680              		.cfi_offset 4, -16
ARM GAS  C:\Users\VIDEOH~1\AppData\Local\Temp\cc1cRMdm.s 			page 43


 681              		.cfi_offset 5, -12
 682              		.cfi_offset 6, -8
 683              		.cfi_offset 14, -4
 360:freertos\src/queue.c **** 		if( pxNewQueue != NULL )
 684              		.loc 1 360 0
 685 0002 4C20     		movs	r0, #76
 686              	.LVL87:
 687 0004 FFF7FEFF 		bl	pvPortMalloc
 688              	.LVL88:
 689 0008 041E     		subs	r4, r0, #0
 690              	.LVL89:
 361:freertos\src/queue.c **** 		{
 691              		.loc 1 361 0
 692 000a 18D0     		beq	.L69
 376:freertos\src/queue.c **** 			pxNewQueue->uxItemSize = ( unsigned portBASE_TYPE ) 0U;
 693              		.loc 1 376 0
 694 000c 0123     		movs	r3, #1
 364:freertos\src/queue.c **** 			pxNewQueue->uxQueueType = queueQUEUE_IS_MUTEX;
 695              		.loc 1 364 0
 696 000e 0025     		movs	r5, #0
 376:freertos\src/queue.c **** 			pxNewQueue->uxItemSize = ( unsigned portBASE_TYPE ) 0U;
 697              		.loc 1 376 0
 698 0010 C363     		str	r3, [r0, #60]
 378:freertos\src/queue.c **** 			pxNewQueue->xTxLock = queueUNLOCKED;
 699              		.loc 1 378 0
 700 0012 023B     		subs	r3, r3, #2
 375:freertos\src/queue.c **** 			pxNewQueue->uxLength = ( unsigned portBASE_TYPE ) 1U;
 701              		.loc 1 375 0
 702 0014 8563     		str	r5, [r0, #56]
 377:freertos\src/queue.c **** 			pxNewQueue->xRxLock = queueUNLOCKED;
 703              		.loc 1 377 0
 704 0016 0564     		str	r5, [r0, #64]
 378:freertos\src/queue.c **** 			pxNewQueue->xTxLock = queueUNLOCKED;
 705              		.loc 1 378 0
 706 0018 4364     		str	r3, [r0, #68]
 364:freertos\src/queue.c **** 			pxNewQueue->uxQueueType = queueQUEUE_IS_MUTEX;
 707              		.loc 1 364 0
 708 001a 4560     		str	r5, [r0, #4]
 379:freertos\src/queue.c **** 
 709              		.loc 1 379 0
 710 001c 8364     		str	r3, [r0, #72]
 365:freertos\src/queue.c **** 
 711              		.loc 1 365 0
 712 001e 0560     		str	r5, [r0]
 369:freertos\src/queue.c **** 			pxNewQueue->u.pcReadFrom = NULL;
 713              		.loc 1 369 0
 714 0020 8560     		str	r5, [r0, #8]
 370:freertos\src/queue.c **** 
 715              		.loc 1 370 0
 716 0022 C560     		str	r5, [r0, #12]
 394:freertos\src/queue.c **** 			vListInitialise( &( pxNewQueue->xTasksWaitingToReceive ) );
 717              		.loc 1 394 0
 718 0024 1030     		adds	r0, r0, #16
 719              	.LVL90:
 720 0026 FFF7FEFF 		bl	vListInitialise
 721              	.LVL91:
 395:freertos\src/queue.c **** 
ARM GAS  C:\Users\VIDEOH~1\AppData\Local\Temp\cc1cRMdm.s 			page 44


 722              		.loc 1 395 0
 723 002a 2000     		movs	r0, r4
 724 002c 2430     		adds	r0, r0, #36
 725 002e FFF7FEFF 		bl	vListInitialise
 726              	.LVL92:
 400:freertos\src/queue.c **** 		}
 727              		.loc 1 400 0
 728 0032 2B00     		movs	r3, r5
 729 0034 2A00     		movs	r2, r5
 730 0036 2900     		movs	r1, r5
 731 0038 2000     		movs	r0, r4
 732 003a FFF7FEFF 		bl	xQueueGenericSend
 733              	.LVL93:
 734              	.L69:
 409:freertos\src/queue.c **** 
 735              		.loc 1 409 0
 736 003e 2000     		movs	r0, r4
 737              		@ sp needed
 738              	.LVL94:
 739 0040 70BD     		pop	{r4, r5, r6, pc}
 740              		.cfi_endproc
 741              	.LFE34:
 742              		.size	xQueueCreateMutex, .-xQueueCreateMutex
 743              		.section	.text.xQueueGenericSendFromISR,"ax",%progbits
 744              		.align	1
 745              		.global	xQueueGenericSendFromISR
 746              		.code	16
 747              		.thumb_func
 748              		.type	xQueueGenericSendFromISR, %function
 749              	xQueueGenericSendFromISR:
 750              	.LFB36:
 935:freertos\src/queue.c **** signed portBASE_TYPE xReturn;
 751              		.loc 1 935 0
 752              		.cfi_startproc
 753              		@ args = 0, pretend = 0, frame = 8
 754              		@ frame_needed = 0, uses_anonymous_args = 0
 755              	.LVL95:
 756 0000 F7B5     		push	{r0, r1, r2, r4, r5, r6, r7, lr}
 757              		.cfi_def_cfa_offset 32
 758              		.cfi_offset 0, -32
 759              		.cfi_offset 1, -28
 760              		.cfi_offset 2, -24
 761              		.cfi_offset 4, -20
 762              		.cfi_offset 5, -16
 763              		.cfi_offset 6, -12
 764              		.cfi_offset 7, -8
 765              		.cfi_offset 14, -4
 935:freertos\src/queue.c **** signed portBASE_TYPE xReturn;
 766              		.loc 1 935 0
 767 0002 0400     		movs	r4, r0
 768              	.LVL96:
 769 0004 1600     		movs	r6, r2
 770 0006 1F00     		movs	r7, r3
 771 0008 0191     		str	r1, [sp, #4]
 965:freertos\src/queue.c **** 	{
 772              		.loc 1 965 0
 773 000a FFF7FEFF 		bl	ulSetInterruptMaskFromISR
ARM GAS  C:\Users\VIDEOH~1\AppData\Local\Temp\cc1cRMdm.s 			page 45


 774              	.LVL97:
 967:freertos\src/queue.c **** 		{
 775              		.loc 1 967 0
 776 000e A36B     		ldr	r3, [r4, #56]
 777 0010 E26B     		ldr	r2, [r4, #60]
 965:freertos\src/queue.c **** 	{
 778              		.loc 1 965 0
 779 0012 0090     		str	r0, [sp]
 780              	.LVL98:
 967:freertos\src/queue.c **** 		{
 781              		.loc 1 967 0
 782 0014 9342     		cmp	r3, r2
 783 0016 02D3     		bcc	.L74
1037:freertos\src/queue.c **** 		}
 784              		.loc 1 1037 0 discriminator 1
 785 0018 0025     		movs	r5, #0
 967:freertos\src/queue.c **** 		{
 786              		.loc 1 967 0 discriminator 1
 787 001a 022F     		cmp	r7, #2
 788 001c 19D1     		bne	.L75
 789              	.L74:
 971:freertos\src/queue.c **** 
 790              		.loc 1 971 0
 791 001e 3A00     		movs	r2, r7
 792 0020 0199     		ldr	r1, [sp, #4]
 793 0022 2000     		movs	r0, r4
 794              	.LVL99:
 795 0024 FFF7FEFF 		bl	prvCopyDataToQueue
 796              	.LVL100:
 975:freertos\src/queue.c **** 			{
 797              		.loc 1 975 0
 798 0028 A36C     		ldr	r3, [r4, #72]
 799 002a 0133     		adds	r3, r3, #1
 800 002c 0DD1     		bne	.L76
1010:freertos\src/queue.c **** 					{
 801              		.loc 1 1010 0
 802 002e 636A     		ldr	r3, [r4, #36]
 803 0030 002B     		cmp	r3, #0
 804 0032 0DD0     		beq	.L86
1012:freertos\src/queue.c **** 						{
 805              		.loc 1 1012 0
 806 0034 2000     		movs	r0, r4
 807 0036 2430     		adds	r0, r0, #36
 808 0038 FFF7FEFF 		bl	xTaskRemoveFromEventList
 809              	.LVL101:
 810 003c 0028     		cmp	r0, #0
 811 003e 07D0     		beq	.L86
1016:freertos\src/queue.c **** 							{
 812              		.loc 1 1016 0
 813 0040 002E     		cmp	r6, #0
 814 0042 05D0     		beq	.L86
1018:freertos\src/queue.c **** 							}
 815              		.loc 1 1018 0
 816 0044 0125     		movs	r5, #1
 817 0046 3560     		str	r5, [r6]
 818 0048 03E0     		b	.L75
 819              	.L76:
ARM GAS  C:\Users\VIDEOH~1\AppData\Local\Temp\cc1cRMdm.s 			page 46


1029:freertos\src/queue.c **** 			}
 820              		.loc 1 1029 0
 821 004a A36C     		ldr	r3, [r4, #72]
 822 004c 0133     		adds	r3, r3, #1
 823 004e A364     		str	r3, [r4, #72]
 824              	.L86:
1032:freertos\src/queue.c **** 		}
 825              		.loc 1 1032 0
 826 0050 0125     		movs	r5, #1
 827              	.L75:
 828              	.LVL102:
1040:freertos\src/queue.c **** 
 829              		.loc 1 1040 0
 830 0052 0098     		ldr	r0, [sp]
 831 0054 FFF7FEFF 		bl	vClearInterruptMaskFromISR
 832              	.LVL103:
1043:freertos\src/queue.c **** /*-----------------------------------------------------------*/
 833              		.loc 1 1043 0
 834              		@ sp needed
 835 0058 2800     		movs	r0, r5
 836              	.LVL104:
 837              	.LVL105:
 838              	.LVL106:
 839              	.LVL107:
 840 005a FEBD     		pop	{r1, r2, r3, r4, r5, r6, r7, pc}
 841              		.cfi_endproc
 842              	.LFE36:
 843              		.size	xQueueGenericSendFromISR, .-xQueueGenericSendFromISR
 844              		.section	.text.xQueueGenericReceive,"ax",%progbits
 845              		.align	1
 846              		.global	xQueueGenericReceive
 847              		.code	16
 848              		.thumb_func
 849              		.type	xQueueGenericReceive, %function
 850              	xQueueGenericReceive:
 851              	.LFB37:
1047:freertos\src/queue.c **** signed portBASE_TYPE xEntryTimeSet = pdFALSE;
 852              		.loc 1 1047 0
 853              		.cfi_startproc
 854              		@ args = 0, pretend = 0, frame = 16
 855              		@ frame_needed = 0, uses_anonymous_args = 0
 856              	.LVL108:
 857 0000 F0B5     		push	{r4, r5, r6, r7, lr}
 858              		.cfi_def_cfa_offset 20
 859              		.cfi_offset 4, -20
 860              		.cfi_offset 5, -16
 861              		.cfi_offset 6, -12
 862              		.cfi_offset 7, -8
 863              		.cfi_offset 14, -4
 864 0002 0400     		movs	r4, r0
 865              	.LVL109:
 866 0004 0F00     		movs	r7, r1
1048:freertos\src/queue.c **** xTimeOutType xTimeOut;
 867              		.loc 1 1048 0
 868 0006 0026     		movs	r6, #0
1047:freertos\src/queue.c **** signed portBASE_TYPE xEntryTimeSet = pdFALSE;
 869              		.loc 1 1047 0
ARM GAS  C:\Users\VIDEOH~1\AppData\Local\Temp\cc1cRMdm.s 			page 47


 870 0008 85B0     		sub	sp, sp, #20
 871              		.cfi_def_cfa_offset 40
1047:freertos\src/queue.c **** signed portBASE_TYPE xEntryTimeSet = pdFALSE;
 872              		.loc 1 1047 0
 873 000a 0192     		str	r2, [sp, #4]
 874 000c 0093     		str	r3, [sp]
 875              	.LVL110:
 876              	.L88:
1062:freertos\src/queue.c **** 		{
 877              		.loc 1 1062 0
 878 000e FFF7FEFF 		bl	vPortEnterCritical
 879              	.LVL111:
1066:freertos\src/queue.c **** 			{
 880              		.loc 1 1066 0
 881 0012 A36B     		ldr	r3, [r4, #56]
 882 0014 002B     		cmp	r3, #0
 883 0016 2AD0     		beq	.L89
1072:freertos\src/queue.c **** 
 884              		.loc 1 1072 0
 885 0018 3900     		movs	r1, r7
 886 001a 2000     		movs	r0, r4
1070:freertos\src/queue.c **** 
 887              		.loc 1 1070 0
 888 001c E568     		ldr	r5, [r4, #12]
 889              	.LVL112:
1072:freertos\src/queue.c **** 
 890              		.loc 1 1072 0
 891 001e FFF7FEFF 		bl	prvCopyDataFromQueue
 892              	.LVL113:
1074:freertos\src/queue.c **** 				{
 893              		.loc 1 1074 0
 894 0022 009B     		ldr	r3, [sp]
 895 0024 002B     		cmp	r3, #0
 896 0026 14D1     		bne	.L90
1079:freertos\src/queue.c **** 
 897              		.loc 1 1079 0
 898 0028 A36B     		ldr	r3, [r4, #56]
 899 002a 013B     		subs	r3, r3, #1
 900 002c A363     		str	r3, [r4, #56]
1083:freertos\src/queue.c **** 						{
 901              		.loc 1 1083 0
 902 002e 2368     		ldr	r3, [r4]
 903 0030 002B     		cmp	r3, #0
 904 0032 02D1     		bne	.L91
1087:freertos\src/queue.c **** 						}
 905              		.loc 1 1087 0
 906 0034 FFF7FEFF 		bl	xTaskGetCurrentTaskHandle
 907              	.LVL114:
 908 0038 6060     		str	r0, [r4, #4]
 909              	.L91:
1092:freertos\src/queue.c **** 					{
 910              		.loc 1 1092 0
 911 003a 2369     		ldr	r3, [r4, #16]
 912 003c 002B     		cmp	r3, #0
 913 003e 12D0     		beq	.L93
1094:freertos\src/queue.c **** 						{
 914              		.loc 1 1094 0
ARM GAS  C:\Users\VIDEOH~1\AppData\Local\Temp\cc1cRMdm.s 			page 48


 915 0040 2000     		movs	r0, r4
 916 0042 1030     		adds	r0, r0, #16
 917 0044 FFF7FEFF 		bl	xTaskRemoveFromEventList
 918              	.LVL115:
 919 0048 0128     		cmp	r0, #1
 920 004a 0CD1     		bne	.L93
 921              	.L95:
1096:freertos\src/queue.c **** 						}
 922              		.loc 1 1096 0
 923 004c FFF7FEFF 		bl	vPortYield
 924              	.LVL116:
 925 0050 09E0     		b	.L93
 926              	.L90:
1110:freertos\src/queue.c **** 					{
 927              		.loc 1 1110 0
 928 0052 636A     		ldr	r3, [r4, #36]
1106:freertos\src/queue.c **** 
 929              		.loc 1 1106 0
 930 0054 E560     		str	r5, [r4, #12]
1110:freertos\src/queue.c **** 					{
 931              		.loc 1 1110 0
 932 0056 002B     		cmp	r3, #0
 933 0058 05D0     		beq	.L93
1114:freertos\src/queue.c **** 						{
 934              		.loc 1 1114 0
 935 005a 2000     		movs	r0, r4
 936 005c 2430     		adds	r0, r0, #36
 937 005e FFF7FEFF 		bl	xTaskRemoveFromEventList
 938              	.LVL117:
 939 0062 0028     		cmp	r0, #0
 940 0064 F2D1     		bne	.L95
 941              	.L93:
1122:freertos\src/queue.c **** 				return pdPASS;
 942              		.loc 1 1122 0
 943 0066 FFF7FEFF 		bl	vPortExitCritical
 944              	.LVL118:
1123:freertos\src/queue.c **** 			}
 945              		.loc 1 1123 0
 946 006a 0120     		movs	r0, #1
 947 006c 51E0     		b	.L96
 948              	.LVL119:
 949              	.L89:
1127:freertos\src/queue.c **** 				{
 950              		.loc 1 1127 0
 951 006e 019D     		ldr	r5, [sp, #4]
 952 0070 002D     		cmp	r5, #0
 953 0072 03D1     		bne	.L97
1131:freertos\src/queue.c **** 					traceQUEUE_RECEIVE_FAILED( pxQueue );
 954              		.loc 1 1131 0
 955 0074 FFF7FEFF 		bl	vPortExitCritical
 956              	.LVL120:
1133:freertos\src/queue.c **** 				}
 957              		.loc 1 1133 0
 958 0078 2800     		movs	r0, r5
 959 007a 4AE0     		b	.L96
 960              	.L97:
1135:freertos\src/queue.c **** 				{
ARM GAS  C:\Users\VIDEOH~1\AppData\Local\Temp\cc1cRMdm.s 			page 49


 961              		.loc 1 1135 0
 962 007c 002E     		cmp	r6, #0
 963 007e 02D1     		bne	.L98
1139:freertos\src/queue.c **** 					xEntryTimeSet = pdTRUE;
 964              		.loc 1 1139 0
 965 0080 02A8     		add	r0, sp, #8
 966 0082 FFF7FEFF 		bl	vTaskSetTimeOutState
 967              	.LVL121:
 968              	.L98:
1148:freertos\src/queue.c **** 
 969              		.loc 1 1148 0
 970 0086 FFF7FEFF 		bl	vPortExitCritical
 971              	.LVL122:
1153:freertos\src/queue.c **** 		prvLockQueue( pxQueue );
 972              		.loc 1 1153 0
 973 008a FFF7FEFF 		bl	vTaskSuspendAll
 974              	.LVL123:
1154:freertos\src/queue.c **** 
 975              		.loc 1 1154 0
 976 008e FFF7FEFF 		bl	vPortEnterCritical
 977              	.LVL124:
 978 0092 636C     		ldr	r3, [r4, #68]
 979 0094 0133     		adds	r3, r3, #1
 980 0096 01D1     		bne	.L99
1154:freertos\src/queue.c **** 
 981              		.loc 1 1154 0 is_stmt 0 discriminator 1
 982 0098 0023     		movs	r3, #0
 983 009a 6364     		str	r3, [r4, #68]
 984              	.L99:
1154:freertos\src/queue.c **** 
 985              		.loc 1 1154 0 discriminator 3
 986 009c A36C     		ldr	r3, [r4, #72]
 987 009e 0133     		adds	r3, r3, #1
 988 00a0 01D1     		bne	.L100
1154:freertos\src/queue.c **** 
 989              		.loc 1 1154 0 discriminator 4
 990 00a2 0023     		movs	r3, #0
 991 00a4 A364     		str	r3, [r4, #72]
 992              	.L100:
1154:freertos\src/queue.c **** 
 993              		.loc 1 1154 0 discriminator 6
 994 00a6 FFF7FEFF 		bl	vPortExitCritical
 995              	.LVL125:
1157:freertos\src/queue.c **** 		{
 996              		.loc 1 1157 0 is_stmt 1 discriminator 6
 997 00aa 01A9     		add	r1, sp, #4
 998              	.LVL126:
 999 00ac 02A8     		add	r0, sp, #8
 1000 00ae FFF7FEFF 		bl	xTaskCheckForTimeOut
 1001              	.LVL127:
 1002 00b2 0028     		cmp	r0, #0
 1003 00b4 27D1     		bne	.L101
 1004              	.LVL128:
 1005              	.LBB8:
 1006              	.LBB9:
1585:freertos\src/queue.c **** 	{
 1007              		.loc 1 1585 0
ARM GAS  C:\Users\VIDEOH~1\AppData\Local\Temp\cc1cRMdm.s 			page 50


 1008 00b6 FFF7FEFF 		bl	vPortEnterCritical
 1009              	.LVL129:
1587:freertos\src/queue.c **** 		{
 1010              		.loc 1 1587 0
 1011 00ba A56B     		ldr	r5, [r4, #56]
 1012              	.LVL130:
1596:freertos\src/queue.c **** 
 1013              		.loc 1 1596 0
 1014 00bc FFF7FEFF 		bl	vPortExitCritical
 1015              	.LVL131:
 1016              	.LBE9:
 1017              	.LBE8:
1159:freertos\src/queue.c **** 			{
 1018              		.loc 1 1159 0
 1019 00c0 002D     		cmp	r5, #0
 1020 00c2 1AD1     		bne	.L102
1165:freertos\src/queue.c **** 					{
 1021              		.loc 1 1165 0
 1022 00c4 2368     		ldr	r3, [r4]
 1023 00c6 002B     		cmp	r3, #0
 1024 00c8 06D1     		bne	.L103
1167:freertos\src/queue.c **** 						{
 1025              		.loc 1 1167 0
 1026 00ca FFF7FEFF 		bl	vPortEnterCritical
 1027              	.LVL132:
1169:freertos\src/queue.c **** 						}
 1028              		.loc 1 1169 0
 1029 00ce 6068     		ldr	r0, [r4, #4]
 1030 00d0 FFF7FEFF 		bl	vTaskPriorityInherit
 1031              	.LVL133:
1171:freertos\src/queue.c **** 					}
 1032              		.loc 1 1171 0
 1033 00d4 FFF7FEFF 		bl	vPortExitCritical
 1034              	.LVL134:
 1035              	.L103:
1176:freertos\src/queue.c **** 				prvUnlockQueue( pxQueue );
 1036              		.loc 1 1176 0
 1037 00d8 2000     		movs	r0, r4
 1038 00da 0199     		ldr	r1, [sp, #4]
 1039 00dc 2430     		adds	r0, r0, #36
 1040 00de FFF7FEFF 		bl	vTaskPlaceOnEventList
 1041              	.LVL135:
1177:freertos\src/queue.c **** 				if( xTaskResumeAll() == pdFALSE )
 1042              		.loc 1 1177 0
 1043 00e2 2000     		movs	r0, r4
 1044 00e4 FFF7FEFF 		bl	prvUnlockQueue
 1045              	.LVL136:
1178:freertos\src/queue.c **** 				{
 1046              		.loc 1 1178 0
 1047 00e8 FFF7FEFF 		bl	xTaskResumeAll
 1048              	.LVL137:
 1049 00ec 0028     		cmp	r0, #0
 1050 00ee 01D0     		beq	.L108
 1051              	.L104:
 1052 00f0 0126     		movs	r6, #1
 1053 00f2 8CE7     		b	.L88
 1054              	.L108:
ARM GAS  C:\Users\VIDEOH~1\AppData\Local\Temp\cc1cRMdm.s 			page 51


1180:freertos\src/queue.c **** 				}
 1055              		.loc 1 1180 0
 1056 00f4 FFF7FEFF 		bl	vPortYield
 1057              	.LVL138:
 1058 00f8 FAE7     		b	.L104
 1059              	.L102:
1186:freertos\src/queue.c **** 				( void ) xTaskResumeAll();
 1060              		.loc 1 1186 0
 1061 00fa 2000     		movs	r0, r4
 1062 00fc FFF7FEFF 		bl	prvUnlockQueue
 1063              	.LVL139:
1187:freertos\src/queue.c **** 			}
 1064              		.loc 1 1187 0
 1065 0100 FFF7FEFF 		bl	xTaskResumeAll
 1066              	.LVL140:
 1067 0104 F4E7     		b	.L104
 1068              	.L101:
1192:freertos\src/queue.c **** 			( void ) xTaskResumeAll();
 1069              		.loc 1 1192 0
 1070 0106 2000     		movs	r0, r4
 1071 0108 FFF7FEFF 		bl	prvUnlockQueue
 1072              	.LVL141:
1193:freertos\src/queue.c **** 			traceQUEUE_RECEIVE_FAILED( pxQueue );
 1073              		.loc 1 1193 0
 1074 010c FFF7FEFF 		bl	xTaskResumeAll
 1075              	.LVL142:
1195:freertos\src/queue.c **** 		}
 1076              		.loc 1 1195 0
 1077 0110 0020     		movs	r0, #0
 1078              	.LVL143:
 1079              	.L96:
1198:freertos\src/queue.c **** /*-----------------------------------------------------------*/
 1080              		.loc 1 1198 0
 1081 0112 05B0     		add	sp, sp, #20
 1082              	.LVL144:
 1083              		@ sp needed
 1084              	.LVL145:
 1085              	.LVL146:
 1086 0114 F0BD     		pop	{r4, r5, r6, r7, pc}
 1087              		.cfi_endproc
 1088              	.LFE37:
 1089              		.size	xQueueGenericReceive, .-xQueueGenericReceive
 1090              		.section	.text.xQueueReceiveFromISR,"ax",%progbits
 1091              		.align	1
 1092              		.global	xQueueReceiveFromISR
 1093              		.code	16
 1094              		.thumb_func
 1095              		.type	xQueueReceiveFromISR, %function
 1096              	xQueueReceiveFromISR:
 1097              	.LFB38:
1202:freertos\src/queue.c **** signed portBASE_TYPE xReturn;
 1098              		.loc 1 1202 0
 1099              		.cfi_startproc
 1100              		@ args = 0, pretend = 0, frame = 8
 1101              		@ frame_needed = 0, uses_anonymous_args = 0
 1102              	.LVL147:
 1103 0000 F7B5     		push	{r0, r1, r2, r4, r5, r6, r7, lr}
ARM GAS  C:\Users\VIDEOH~1\AppData\Local\Temp\cc1cRMdm.s 			page 52


 1104              		.cfi_def_cfa_offset 32
 1105              		.cfi_offset 0, -32
 1106              		.cfi_offset 1, -28
 1107              		.cfi_offset 2, -24
 1108              		.cfi_offset 4, -20
 1109              		.cfi_offset 5, -16
 1110              		.cfi_offset 6, -12
 1111              		.cfi_offset 7, -8
 1112              		.cfi_offset 14, -4
1202:freertos\src/queue.c **** signed portBASE_TYPE xReturn;
 1113              		.loc 1 1202 0
 1114 0002 0400     		movs	r4, r0
 1115              	.LVL148:
 1116 0004 0191     		str	r1, [sp, #4]
 1117 0006 1600     		movs	r6, r2
1266:freertos\src/queue.c **** 			traceQUEUE_RECEIVE_FROM_ISR_FAILED( pxQueue );
 1118              		.loc 1 1266 0
 1119 0008 0025     		movs	r5, #0
1226:freertos\src/queue.c **** 	{
 1120              		.loc 1 1226 0
 1121 000a FFF7FEFF 		bl	ulSetInterruptMaskFromISR
 1122              	.LVL149:
1229:freertos\src/queue.c **** 		{
 1123              		.loc 1 1229 0
 1124 000e A36B     		ldr	r3, [r4, #56]
1226:freertos\src/queue.c **** 	{
 1125              		.loc 1 1226 0
 1126 0010 0700     		movs	r7, r0
 1127              	.LVL150:
1229:freertos\src/queue.c **** 		{
 1128              		.loc 1 1229 0
 1129 0012 AB42     		cmp	r3, r5
 1130 0014 1BD0     		beq	.L110
1233:freertos\src/queue.c **** 			--( pxQueue->uxMessagesWaiting );
 1131              		.loc 1 1233 0
 1132 0016 0199     		ldr	r1, [sp, #4]
 1133 0018 2000     		movs	r0, r4
 1134              	.LVL151:
 1135 001a FFF7FEFF 		bl	prvCopyDataFromQueue
 1136              	.LVL152:
1234:freertos\src/queue.c **** 
 1137              		.loc 1 1234 0
 1138 001e A36B     		ldr	r3, [r4, #56]
 1139 0020 013B     		subs	r3, r3, #1
 1140 0022 A363     		str	r3, [r4, #56]
1240:freertos\src/queue.c **** 			{
 1141              		.loc 1 1240 0
 1142 0024 636C     		ldr	r3, [r4, #68]
 1143 0026 0133     		adds	r3, r3, #1
 1144 0028 0DD1     		bne	.L111
1242:freertos\src/queue.c **** 				{
 1145              		.loc 1 1242 0
 1146 002a 2369     		ldr	r3, [r4, #16]
 1147 002c AB42     		cmp	r3, r5
 1148 002e 0DD0     		beq	.L122
1244:freertos\src/queue.c **** 					{
 1149              		.loc 1 1244 0
ARM GAS  C:\Users\VIDEOH~1\AppData\Local\Temp\cc1cRMdm.s 			page 53


 1150 0030 2000     		movs	r0, r4
 1151 0032 1030     		adds	r0, r0, #16
 1152 0034 FFF7FEFF 		bl	xTaskRemoveFromEventList
 1153              	.LVL153:
 1154 0038 0028     		cmp	r0, #0
 1155 003a 07D0     		beq	.L122
1248:freertos\src/queue.c **** 						{
 1156              		.loc 1 1248 0
 1157 003c 002E     		cmp	r6, #0
 1158 003e 05D0     		beq	.L122
1250:freertos\src/queue.c **** 						}
 1159              		.loc 1 1250 0
 1160 0040 0125     		movs	r5, #1
 1161 0042 3560     		str	r5, [r6]
 1162 0044 03E0     		b	.L110
 1163              	.L111:
1259:freertos\src/queue.c **** 			}
 1164              		.loc 1 1259 0
 1165 0046 636C     		ldr	r3, [r4, #68]
 1166 0048 0133     		adds	r3, r3, #1
 1167 004a 6364     		str	r3, [r4, #68]
 1168              	.L122:
1262:freertos\src/queue.c **** 		}
 1169              		.loc 1 1262 0
 1170 004c 0125     		movs	r5, #1
 1171              	.L110:
 1172              	.LVL154:
1270:freertos\src/queue.c **** 
 1173              		.loc 1 1270 0
 1174 004e 3800     		movs	r0, r7
 1175 0050 FFF7FEFF 		bl	vClearInterruptMaskFromISR
 1176              	.LVL155:
1273:freertos\src/queue.c **** /*-----------------------------------------------------------*/
 1177              		.loc 1 1273 0
 1178              		@ sp needed
 1179 0054 2800     		movs	r0, r5
 1180              	.LVL156:
 1181              	.LVL157:
 1182              	.LVL158:
 1183              	.LVL159:
 1184 0056 FEBD     		pop	{r1, r2, r3, r4, r5, r6, r7, pc}
 1185              		.cfi_endproc
 1186              	.LFE38:
 1187              		.size	xQueueReceiveFromISR, .-xQueueReceiveFromISR
 1188              		.section	.text.xQueuePeekFromISR,"ax",%progbits
 1189              		.align	1
 1190              		.global	xQueuePeekFromISR
 1191              		.code	16
 1192              		.thumb_func
 1193              		.type	xQueuePeekFromISR, %function
 1194              	xQueuePeekFromISR:
 1195              	.LFB39:
1277:freertos\src/queue.c **** signed portBASE_TYPE xReturn;
 1196              		.loc 1 1277 0
 1197              		.cfi_startproc
 1198              		@ args = 0, pretend = 0, frame = 0
 1199              		@ frame_needed = 0, uses_anonymous_args = 0
ARM GAS  C:\Users\VIDEOH~1\AppData\Local\Temp\cc1cRMdm.s 			page 54


 1200              	.LVL160:
 1201 0000 F8B5     		push	{r3, r4, r5, r6, r7, lr}
 1202              		.cfi_def_cfa_offset 24
 1203              		.cfi_offset 3, -24
 1204              		.cfi_offset 4, -20
 1205              		.cfi_offset 5, -16
 1206              		.cfi_offset 6, -12
 1207              		.cfi_offset 7, -8
 1208              		.cfi_offset 14, -4
1277:freertos\src/queue.c **** signed portBASE_TYPE xReturn;
 1209              		.loc 1 1277 0
 1210 0002 0400     		movs	r4, r0
 1211              	.LVL161:
 1212 0004 0F00     		movs	r7, r1
1319:freertos\src/queue.c **** 			traceQUEUE_PEEK_FROM_ISR_FAILED( pxQueue );
 1213              		.loc 1 1319 0
 1214 0006 0025     		movs	r5, #0
1302:freertos\src/queue.c **** 	{
 1215              		.loc 1 1302 0
 1216 0008 FFF7FEFF 		bl	ulSetInterruptMaskFromISR
 1217              	.LVL162:
1305:freertos\src/queue.c **** 		{
 1218              		.loc 1 1305 0
 1219 000c A36B     		ldr	r3, [r4, #56]
1302:freertos\src/queue.c **** 	{
 1220              		.loc 1 1302 0
 1221 000e 0600     		movs	r6, r0
 1222              	.LVL163:
1305:freertos\src/queue.c **** 		{
 1223              		.loc 1 1305 0
 1224 0010 AB42     		cmp	r3, r5
 1225 0012 06D0     		beq	.L124
1311:freertos\src/queue.c **** 			prvCopyDataFromQueue( pxQueue, pvBuffer );
 1226              		.loc 1 1311 0
 1227 0014 E568     		ldr	r5, [r4, #12]
 1228              	.LVL164:
1312:freertos\src/queue.c **** 			pxQueue->u.pcReadFrom = pcOriginalReadPosition;
 1229              		.loc 1 1312 0
 1230 0016 3900     		movs	r1, r7
 1231 0018 2000     		movs	r0, r4
 1232              	.LVL165:
 1233 001a FFF7FEFF 		bl	prvCopyDataFromQueue
 1234              	.LVL166:
1313:freertos\src/queue.c **** 
 1235              		.loc 1 1313 0
 1236 001e E560     		str	r5, [r4, #12]
 1237              	.LVL167:
1315:freertos\src/queue.c **** 		}
 1238              		.loc 1 1315 0
 1239 0020 0125     		movs	r5, #1
 1240              	.LVL168:
 1241              	.L124:
1323:freertos\src/queue.c **** 
 1242              		.loc 1 1323 0
 1243 0022 3000     		movs	r0, r6
 1244 0024 FFF7FEFF 		bl	vClearInterruptMaskFromISR
 1245              	.LVL169:
ARM GAS  C:\Users\VIDEOH~1\AppData\Local\Temp\cc1cRMdm.s 			page 55


1326:freertos\src/queue.c **** /*-----------------------------------------------------------*/
 1246              		.loc 1 1326 0
 1247              		@ sp needed
 1248 0028 2800     		movs	r0, r5
 1249              	.LVL170:
 1250              	.LVL171:
 1251              	.LVL172:
 1252              	.LVL173:
 1253 002a F8BD     		pop	{r3, r4, r5, r6, r7, pc}
 1254              		.cfi_endproc
 1255              	.LFE39:
 1256              		.size	xQueuePeekFromISR, .-xQueuePeekFromISR
 1257              		.section	.text.uxQueueMessagesWaiting,"ax",%progbits
 1258              		.align	1
 1259              		.global	uxQueueMessagesWaiting
 1260              		.code	16
 1261              		.thumb_func
 1262              		.type	uxQueueMessagesWaiting, %function
 1263              	uxQueueMessagesWaiting:
 1264              	.LFB40:
1330:freertos\src/queue.c **** unsigned portBASE_TYPE uxReturn;
 1265              		.loc 1 1330 0
 1266              		.cfi_startproc
 1267              		@ args = 0, pretend = 0, frame = 0
 1268              		@ frame_needed = 0, uses_anonymous_args = 0
 1269              	.LVL174:
 1270 0000 10B5     		push	{r4, lr}
 1271              		.cfi_def_cfa_offset 8
 1272              		.cfi_offset 4, -8
 1273              		.cfi_offset 14, -4
1330:freertos\src/queue.c **** unsigned portBASE_TYPE uxReturn;
 1274              		.loc 1 1330 0
 1275 0002 0400     		movs	r4, r0
1335:freertos\src/queue.c **** 		uxReturn = ( ( xQUEUE * ) xQueue )->uxMessagesWaiting;
 1276              		.loc 1 1335 0
 1277 0004 FFF7FEFF 		bl	vPortEnterCritical
 1278              	.LVL175:
1336:freertos\src/queue.c **** 	taskEXIT_CRITICAL();
 1279              		.loc 1 1336 0
 1280 0008 A46B     		ldr	r4, [r4, #56]
 1281              	.LVL176:
1340:freertos\src/queue.c **** /*-----------------------------------------------------------*/
 1282              		.loc 1 1340 0
 1283              		@ sp needed
1337:freertos\src/queue.c **** 
 1284              		.loc 1 1337 0
 1285 000a FFF7FEFF 		bl	vPortExitCritical
 1286              	.LVL177:
1340:freertos\src/queue.c **** /*-----------------------------------------------------------*/
 1287              		.loc 1 1340 0
 1288 000e 2000     		movs	r0, r4
 1289              	.LVL178:
 1290 0010 10BD     		pop	{r4, pc}
 1291              		.cfi_endproc
 1292              	.LFE40:
 1293              		.size	uxQueueMessagesWaiting, .-uxQueueMessagesWaiting
 1294              		.section	.text.uxQueueSpacesAvailable,"ax",%progbits
ARM GAS  C:\Users\VIDEOH~1\AppData\Local\Temp\cc1cRMdm.s 			page 56


 1295              		.align	1
 1296              		.global	uxQueueSpacesAvailable
 1297              		.code	16
 1298              		.thumb_func
 1299              		.type	uxQueueSpacesAvailable, %function
 1300              	uxQueueSpacesAvailable:
 1301              	.LFB41:
1344:freertos\src/queue.c **** unsigned portBASE_TYPE uxReturn;
 1302              		.loc 1 1344 0
 1303              		.cfi_startproc
 1304              		@ args = 0, pretend = 0, frame = 0
 1305              		@ frame_needed = 0, uses_anonymous_args = 0
 1306              	.LVL179:
 1307 0000 70B5     		push	{r4, r5, r6, lr}
 1308              		.cfi_def_cfa_offset 16
 1309              		.cfi_offset 4, -16
 1310              		.cfi_offset 5, -12
 1311              		.cfi_offset 6, -8
 1312              		.cfi_offset 14, -4
1344:freertos\src/queue.c **** unsigned portBASE_TYPE uxReturn;
 1313              		.loc 1 1344 0
 1314 0002 0500     		movs	r5, r0
 1315              	.LVL180:
1351:freertos\src/queue.c **** 		uxReturn = pxQueue->uxLength - pxQueue->uxMessagesWaiting;
 1316              		.loc 1 1351 0
 1317 0004 FFF7FEFF 		bl	vPortEnterCritical
 1318              	.LVL181:
1352:freertos\src/queue.c **** 	taskEXIT_CRITICAL();
 1319              		.loc 1 1352 0
 1320 0008 AC6B     		ldr	r4, [r5, #56]
 1321 000a EB6B     		ldr	r3, [r5, #60]
1356:freertos\src/queue.c **** /*-----------------------------------------------------------*/
 1322              		.loc 1 1356 0
 1323              		@ sp needed
1352:freertos\src/queue.c **** 	taskEXIT_CRITICAL();
 1324              		.loc 1 1352 0
 1325 000c 1C1B     		subs	r4, r3, r4
 1326              	.LVL182:
1353:freertos\src/queue.c **** 
 1327              		.loc 1 1353 0
 1328 000e FFF7FEFF 		bl	vPortExitCritical
 1329              	.LVL183:
1356:freertos\src/queue.c **** /*-----------------------------------------------------------*/
 1330              		.loc 1 1356 0
 1331 0012 2000     		movs	r0, r4
 1332              	.LVL184:
 1333              	.LVL185:
 1334 0014 70BD     		pop	{r4, r5, r6, pc}
 1335              		.cfi_endproc
 1336              	.LFE41:
 1337              		.size	uxQueueSpacesAvailable, .-uxQueueSpacesAvailable
 1338              		.section	.text.uxQueueMessagesWaitingFromISR,"ax",%progbits
 1339              		.align	1
 1340              		.global	uxQueueMessagesWaitingFromISR
 1341              		.code	16
 1342              		.thumb_func
 1343              		.type	uxQueueMessagesWaitingFromISR, %function
ARM GAS  C:\Users\VIDEOH~1\AppData\Local\Temp\cc1cRMdm.s 			page 57


 1344              	uxQueueMessagesWaitingFromISR:
 1345              	.LFB42:
1360:freertos\src/queue.c **** unsigned portBASE_TYPE uxReturn;
 1346              		.loc 1 1360 0
 1347              		.cfi_startproc
 1348              		@ args = 0, pretend = 0, frame = 0
 1349              		@ frame_needed = 0, uses_anonymous_args = 0
 1350              		@ link register save eliminated.
 1351              	.LVL186:
1365:freertos\src/queue.c **** 
 1352              		.loc 1 1365 0
 1353 0000 806B     		ldr	r0, [r0, #56]
 1354              	.LVL187:
1368:freertos\src/queue.c **** /*-----------------------------------------------------------*/
 1355              		.loc 1 1368 0
 1356              		@ sp needed
 1357 0002 7047     		bx	lr
 1358              		.cfi_endproc
 1359              	.LFE42:
 1360              		.size	uxQueueMessagesWaitingFromISR, .-uxQueueMessagesWaitingFromISR
 1361              		.section	.text.xQueueIsQueueEmptyFromISR,"ax",%progbits
 1362              		.align	1
 1363              		.global	xQueueIsQueueEmptyFromISR
 1364              		.code	16
 1365              		.thumb_func
 1366              		.type	xQueueIsQueueEmptyFromISR, %function
 1367              	xQueueIsQueueEmptyFromISR:
 1368              	.LFB48:
1603:freertos\src/queue.c **** signed portBASE_TYPE xReturn;
 1369              		.loc 1 1603 0
 1370              		.cfi_startproc
 1371              		@ args = 0, pretend = 0, frame = 0
 1372              		@ frame_needed = 0, uses_anonymous_args = 0
 1373              		@ link register save eliminated.
 1374              	.LVL188:
1607:freertos\src/queue.c **** 	{
 1375              		.loc 1 1607 0
 1376 0000 806B     		ldr	r0, [r0, #56]
 1377              	.LVL189:
1617:freertos\src/queue.c **** /*-----------------------------------------------------------*/
 1378              		.loc 1 1617 0
 1379              		@ sp needed
1616:freertos\src/queue.c **** } /*lint !e818 xQueue could not be pointer to const because it is a typedef. */
 1380              		.loc 1 1616 0
 1381 0002 4342     		rsbs	r3, r0, #0
 1382 0004 5841     		adcs	r0, r0, r3
 1383              	.LVL190:
1617:freertos\src/queue.c **** /*-----------------------------------------------------------*/
 1384              		.loc 1 1617 0
 1385 0006 7047     		bx	lr
 1386              		.cfi_endproc
 1387              	.LFE48:
 1388              		.size	xQueueIsQueueEmptyFromISR, .-xQueueIsQueueEmptyFromISR
 1389              		.section	.text.xQueueIsQueueFullFromISR,"ax",%progbits
 1390              		.align	1
 1391              		.global	xQueueIsQueueFullFromISR
 1392              		.code	16
ARM GAS  C:\Users\VIDEOH~1\AppData\Local\Temp\cc1cRMdm.s 			page 58


 1393              		.thumb_func
 1394              		.type	xQueueIsQueueFullFromISR, %function
 1395              	xQueueIsQueueFullFromISR:
 1396              	.LFB50:
1636:freertos\src/queue.c **** 
1637:freertos\src/queue.c **** 	return xReturn;
1638:freertos\src/queue.c **** }
1639:freertos\src/queue.c **** /*-----------------------------------------------------------*/
1640:freertos\src/queue.c **** 
1641:freertos\src/queue.c **** signed portBASE_TYPE xQueueIsQueueFullFromISR( const xQueueHandle xQueue )
1642:freertos\src/queue.c **** {
 1397              		.loc 1 1642 0
 1398              		.cfi_startproc
 1399              		@ args = 0, pretend = 0, frame = 0
 1400              		@ frame_needed = 0, uses_anonymous_args = 0
 1401              		@ link register save eliminated.
 1402              	.LVL191:
1643:freertos\src/queue.c **** signed portBASE_TYPE xReturn;
1644:freertos\src/queue.c **** 
1645:freertos\src/queue.c **** 	configASSERT( xQueue );
1646:freertos\src/queue.c **** 	if( ( ( xQUEUE * ) xQueue )->uxMessagesWaiting == ( ( xQUEUE * ) xQueue )->uxLength )
1647:freertos\src/queue.c **** 	{
1648:freertos\src/queue.c **** 		xReturn = pdTRUE;
1649:freertos\src/queue.c **** 	}
1650:freertos\src/queue.c **** 	else
1651:freertos\src/queue.c **** 	{
1652:freertos\src/queue.c **** 		xReturn = pdFALSE;
1653:freertos\src/queue.c **** 	}
1654:freertos\src/queue.c **** 
1655:freertos\src/queue.c **** 	return xReturn;
 1403              		.loc 1 1655 0
 1404 0000 C36B     		ldr	r3, [r0, #60]
1646:freertos\src/queue.c **** 	{
 1405              		.loc 1 1646 0
 1406 0002 826B     		ldr	r2, [r0, #56]
 1407              	.LVL192:
1656:freertos\src/queue.c **** } /*lint !e818 xQueue could not be pointer to const because it is a typedef. */
 1408              		.loc 1 1656 0
 1409              		@ sp needed
1655:freertos\src/queue.c **** } /*lint !e818 xQueue could not be pointer to const because it is a typedef. */
 1410              		.loc 1 1655 0
 1411 0004 981A     		subs	r0, r3, r2
 1412              	.LVL193:
 1413 0006 4342     		rsbs	r3, r0, #0
 1414 0008 5841     		adcs	r0, r0, r3
 1415              	.LVL194:
 1416              		.loc 1 1656 0
 1417 000a 7047     		bx	lr
 1418              		.cfi_endproc
 1419              	.LFE50:
 1420              		.size	xQueueIsQueueFullFromISR, .-xQueueIsQueueFullFromISR
 1421              		.section	.text.vQueueAddToRegistry,"ax",%progbits
 1422              		.align	1
 1423              		.global	vQueueAddToRegistry
 1424              		.code	16
 1425              		.thumb_func
 1426              		.type	vQueueAddToRegistry, %function
ARM GAS  C:\Users\VIDEOH~1\AppData\Local\Temp\cc1cRMdm.s 			page 59


 1427              	vQueueAddToRegistry:
 1428              	.LFB51:
1657:freertos\src/queue.c **** /*-----------------------------------------------------------*/
1658:freertos\src/queue.c **** 
1659:freertos\src/queue.c **** #if ( configUSE_CO_ROUTINES == 1 )
1660:freertos\src/queue.c **** 
1661:freertos\src/queue.c **** 	signed portBASE_TYPE xQueueCRSend( xQueueHandle xQueue, const void *pvItemToQueue, portTickType xT
1662:freertos\src/queue.c **** 	{
1663:freertos\src/queue.c **** 	signed portBASE_TYPE xReturn;
1664:freertos\src/queue.c **** 	xQUEUE * const pxQueue = ( xQUEUE * ) xQueue;
1665:freertos\src/queue.c **** 
1666:freertos\src/queue.c **** 		/* If the queue is already full we may have to block.  A critical section
1667:freertos\src/queue.c **** 		is required to prevent an interrupt removing something from the queue
1668:freertos\src/queue.c **** 		between the check to see if the queue is full and blocking on the queue. */
1669:freertos\src/queue.c **** 		portDISABLE_INTERRUPTS();
1670:freertos\src/queue.c **** 		{
1671:freertos\src/queue.c **** 			if( prvIsQueueFull( pxQueue ) != pdFALSE )
1672:freertos\src/queue.c **** 			{
1673:freertos\src/queue.c **** 				/* The queue is full - do we want to block or just leave without
1674:freertos\src/queue.c **** 				posting? */
1675:freertos\src/queue.c **** 				if( xTicksToWait > ( portTickType ) 0 )
1676:freertos\src/queue.c **** 				{
1677:freertos\src/queue.c **** 					/* As this is called from a coroutine we cannot block directly, but
1678:freertos\src/queue.c **** 					return indicating that we need to block. */
1679:freertos\src/queue.c **** 					vCoRoutineAddToDelayedList( xTicksToWait, &( pxQueue->xTasksWaitingToSend ) );
1680:freertos\src/queue.c **** 					portENABLE_INTERRUPTS();
1681:freertos\src/queue.c **** 					return errQUEUE_BLOCKED;
1682:freertos\src/queue.c **** 				}
1683:freertos\src/queue.c **** 				else
1684:freertos\src/queue.c **** 				{
1685:freertos\src/queue.c **** 					portENABLE_INTERRUPTS();
1686:freertos\src/queue.c **** 					return errQUEUE_FULL;
1687:freertos\src/queue.c **** 				}
1688:freertos\src/queue.c **** 			}
1689:freertos\src/queue.c **** 		}
1690:freertos\src/queue.c **** 		portENABLE_INTERRUPTS();
1691:freertos\src/queue.c **** 
1692:freertos\src/queue.c **** 		portDISABLE_INTERRUPTS();
1693:freertos\src/queue.c **** 		{
1694:freertos\src/queue.c **** 			if( pxQueue->uxMessagesWaiting < pxQueue->uxLength )
1695:freertos\src/queue.c **** 			{
1696:freertos\src/queue.c **** 				/* There is room in the queue, copy the data into the queue. */
1697:freertos\src/queue.c **** 				prvCopyDataToQueue( pxQueue, pvItemToQueue, queueSEND_TO_BACK );
1698:freertos\src/queue.c **** 				xReturn = pdPASS;
1699:freertos\src/queue.c **** 
1700:freertos\src/queue.c **** 				/* Were any co-routines waiting for data to become available? */
1701:freertos\src/queue.c **** 				if( listLIST_IS_EMPTY( &( pxQueue->xTasksWaitingToReceive ) ) == pdFALSE )
1702:freertos\src/queue.c **** 				{
1703:freertos\src/queue.c **** 					/* In this instance the co-routine could be placed directly
1704:freertos\src/queue.c **** 					into the ready list as we are within a critical section.
1705:freertos\src/queue.c **** 					Instead the same pending ready list mechanism is used as if
1706:freertos\src/queue.c **** 					the event were caused from within an interrupt. */
1707:freertos\src/queue.c **** 					if( xCoRoutineRemoveFromEventList( &( pxQueue->xTasksWaitingToReceive ) ) != pdFALSE )
1708:freertos\src/queue.c **** 					{
1709:freertos\src/queue.c **** 						/* The co-routine waiting has a higher priority so record
1710:freertos\src/queue.c **** 						that a yield might be appropriate. */
1711:freertos\src/queue.c **** 						xReturn = errQUEUE_YIELD;
ARM GAS  C:\Users\VIDEOH~1\AppData\Local\Temp\cc1cRMdm.s 			page 60


1712:freertos\src/queue.c **** 					}
1713:freertos\src/queue.c **** 				}
1714:freertos\src/queue.c **** 			}
1715:freertos\src/queue.c **** 			else
1716:freertos\src/queue.c **** 			{
1717:freertos\src/queue.c **** 				xReturn = errQUEUE_FULL;
1718:freertos\src/queue.c **** 			}
1719:freertos\src/queue.c **** 		}
1720:freertos\src/queue.c **** 		portENABLE_INTERRUPTS();
1721:freertos\src/queue.c **** 
1722:freertos\src/queue.c **** 		return xReturn;
1723:freertos\src/queue.c **** 	}
1724:freertos\src/queue.c **** 
1725:freertos\src/queue.c **** #endif /* configUSE_CO_ROUTINES */
1726:freertos\src/queue.c **** /*-----------------------------------------------------------*/
1727:freertos\src/queue.c **** 
1728:freertos\src/queue.c **** #if ( configUSE_CO_ROUTINES == 1 )
1729:freertos\src/queue.c **** 
1730:freertos\src/queue.c **** 	signed portBASE_TYPE xQueueCRReceive( xQueueHandle xQueue, void *pvBuffer, portTickType xTicksToWa
1731:freertos\src/queue.c **** 	{
1732:freertos\src/queue.c **** 	signed portBASE_TYPE xReturn;
1733:freertos\src/queue.c **** 	xQUEUE * const pxQueue = ( xQUEUE * ) xQueue;
1734:freertos\src/queue.c **** 
1735:freertos\src/queue.c **** 		/* If the queue is already empty we may have to block.  A critical section
1736:freertos\src/queue.c **** 		is required to prevent an interrupt adding something to the queue
1737:freertos\src/queue.c **** 		between the check to see if the queue is empty and blocking on the queue. */
1738:freertos\src/queue.c **** 		portDISABLE_INTERRUPTS();
1739:freertos\src/queue.c **** 		{
1740:freertos\src/queue.c **** 			if( pxQueue->uxMessagesWaiting == ( unsigned portBASE_TYPE ) 0 )
1741:freertos\src/queue.c **** 			{
1742:freertos\src/queue.c **** 				/* There are no messages in the queue, do we want to block or just
1743:freertos\src/queue.c **** 				leave with nothing? */
1744:freertos\src/queue.c **** 				if( xTicksToWait > ( portTickType ) 0 )
1745:freertos\src/queue.c **** 				{
1746:freertos\src/queue.c **** 					/* As this is a co-routine we cannot block directly, but return
1747:freertos\src/queue.c **** 					indicating that we need to block. */
1748:freertos\src/queue.c **** 					vCoRoutineAddToDelayedList( xTicksToWait, &( pxQueue->xTasksWaitingToReceive ) );
1749:freertos\src/queue.c **** 					portENABLE_INTERRUPTS();
1750:freertos\src/queue.c **** 					return errQUEUE_BLOCKED;
1751:freertos\src/queue.c **** 				}
1752:freertos\src/queue.c **** 				else
1753:freertos\src/queue.c **** 				{
1754:freertos\src/queue.c **** 					portENABLE_INTERRUPTS();
1755:freertos\src/queue.c **** 					return errQUEUE_FULL;
1756:freertos\src/queue.c **** 				}
1757:freertos\src/queue.c **** 			}
1758:freertos\src/queue.c **** 		}
1759:freertos\src/queue.c **** 		portENABLE_INTERRUPTS();
1760:freertos\src/queue.c **** 
1761:freertos\src/queue.c **** 		portDISABLE_INTERRUPTS();
1762:freertos\src/queue.c **** 		{
1763:freertos\src/queue.c **** 			if( pxQueue->uxMessagesWaiting > ( unsigned portBASE_TYPE ) 0 )
1764:freertos\src/queue.c **** 			{
1765:freertos\src/queue.c **** 				/* Data is available from the queue. */
1766:freertos\src/queue.c **** 				pxQueue->u.pcReadFrom += pxQueue->uxItemSize;
1767:freertos\src/queue.c **** 				if( pxQueue->u.pcReadFrom >= pxQueue->pcTail )
1768:freertos\src/queue.c **** 				{
ARM GAS  C:\Users\VIDEOH~1\AppData\Local\Temp\cc1cRMdm.s 			page 61


1769:freertos\src/queue.c **** 					pxQueue->u.pcReadFrom = pxQueue->pcHead;
1770:freertos\src/queue.c **** 				}
1771:freertos\src/queue.c **** 				--( pxQueue->uxMessagesWaiting );
1772:freertos\src/queue.c **** 				( void ) memcpy( ( void * ) pvBuffer, ( void * ) pxQueue->u.pcReadFrom, ( unsigned ) pxQueue->u
1773:freertos\src/queue.c **** 
1774:freertos\src/queue.c **** 				xReturn = pdPASS;
1775:freertos\src/queue.c **** 
1776:freertos\src/queue.c **** 				/* Were any co-routines waiting for space to become available? */
1777:freertos\src/queue.c **** 				if( listLIST_IS_EMPTY( &( pxQueue->xTasksWaitingToSend ) ) == pdFALSE )
1778:freertos\src/queue.c **** 				{
1779:freertos\src/queue.c **** 					/* In this instance the co-routine could be placed directly
1780:freertos\src/queue.c **** 					into the ready list as we are within a critical section.
1781:freertos\src/queue.c **** 					Instead the same pending ready list mechanism is used as if
1782:freertos\src/queue.c **** 					the event were caused from within an interrupt. */
1783:freertos\src/queue.c **** 					if( xCoRoutineRemoveFromEventList( &( pxQueue->xTasksWaitingToSend ) ) != pdFALSE )
1784:freertos\src/queue.c **** 					{
1785:freertos\src/queue.c **** 						xReturn = errQUEUE_YIELD;
1786:freertos\src/queue.c **** 					}
1787:freertos\src/queue.c **** 				}
1788:freertos\src/queue.c **** 			}
1789:freertos\src/queue.c **** 			else
1790:freertos\src/queue.c **** 			{
1791:freertos\src/queue.c **** 				xReturn = pdFAIL;
1792:freertos\src/queue.c **** 			}
1793:freertos\src/queue.c **** 		}
1794:freertos\src/queue.c **** 		portENABLE_INTERRUPTS();
1795:freertos\src/queue.c **** 
1796:freertos\src/queue.c **** 		return xReturn;
1797:freertos\src/queue.c **** 	}
1798:freertos\src/queue.c **** 
1799:freertos\src/queue.c **** #endif /* configUSE_CO_ROUTINES */
1800:freertos\src/queue.c **** /*-----------------------------------------------------------*/
1801:freertos\src/queue.c **** 
1802:freertos\src/queue.c **** #if ( configUSE_CO_ROUTINES == 1 )
1803:freertos\src/queue.c **** 
1804:freertos\src/queue.c **** 	signed portBASE_TYPE xQueueCRSendFromISR( xQueueHandle xQueue, const void *pvItemToQueue, signed p
1805:freertos\src/queue.c **** 	{
1806:freertos\src/queue.c **** 	xQUEUE * const pxQueue = ( xQUEUE * ) xQueue;
1807:freertos\src/queue.c **** 
1808:freertos\src/queue.c **** 		/* Cannot block within an ISR so if there is no space on the queue then
1809:freertos\src/queue.c **** 		exit without doing anything. */
1810:freertos\src/queue.c **** 		if( pxQueue->uxMessagesWaiting < pxQueue->uxLength )
1811:freertos\src/queue.c **** 		{
1812:freertos\src/queue.c **** 			prvCopyDataToQueue( pxQueue, pvItemToQueue, queueSEND_TO_BACK );
1813:freertos\src/queue.c **** 
1814:freertos\src/queue.c **** 			/* We only want to wake one co-routine per ISR, so check that a
1815:freertos\src/queue.c **** 			co-routine has not already been woken. */
1816:freertos\src/queue.c **** 			if( xCoRoutinePreviouslyWoken == pdFALSE )
1817:freertos\src/queue.c **** 			{
1818:freertos\src/queue.c **** 				if( listLIST_IS_EMPTY( &( pxQueue->xTasksWaitingToReceive ) ) == pdFALSE )
1819:freertos\src/queue.c **** 				{
1820:freertos\src/queue.c **** 					if( xCoRoutineRemoveFromEventList( &( pxQueue->xTasksWaitingToReceive ) ) != pdFALSE )
1821:freertos\src/queue.c **** 					{
1822:freertos\src/queue.c **** 						return pdTRUE;
1823:freertos\src/queue.c **** 					}
1824:freertos\src/queue.c **** 				}
1825:freertos\src/queue.c **** 			}
ARM GAS  C:\Users\VIDEOH~1\AppData\Local\Temp\cc1cRMdm.s 			page 62


1826:freertos\src/queue.c **** 		}
1827:freertos\src/queue.c **** 
1828:freertos\src/queue.c **** 		return xCoRoutinePreviouslyWoken;
1829:freertos\src/queue.c **** 	}
1830:freertos\src/queue.c **** 
1831:freertos\src/queue.c **** #endif /* configUSE_CO_ROUTINES */
1832:freertos\src/queue.c **** /*-----------------------------------------------------------*/
1833:freertos\src/queue.c **** 
1834:freertos\src/queue.c **** #if ( configUSE_CO_ROUTINES == 1 )
1835:freertos\src/queue.c **** 
1836:freertos\src/queue.c **** 	signed portBASE_TYPE xQueueCRReceiveFromISR( xQueueHandle xQueue, void *pvBuffer, signed portBASE_
1837:freertos\src/queue.c **** 	{
1838:freertos\src/queue.c **** 	signed portBASE_TYPE xReturn;
1839:freertos\src/queue.c **** 	xQUEUE * const pxQueue = ( xQUEUE * ) xQueue;
1840:freertos\src/queue.c **** 
1841:freertos\src/queue.c **** 		/* We cannot block from an ISR, so check there is data available. If
1842:freertos\src/queue.c **** 		not then just leave without doing anything. */
1843:freertos\src/queue.c **** 		if( pxQueue->uxMessagesWaiting > ( unsigned portBASE_TYPE ) 0 )
1844:freertos\src/queue.c **** 		{
1845:freertos\src/queue.c **** 			/* Copy the data from the queue. */
1846:freertos\src/queue.c **** 			pxQueue->u.pcReadFrom += pxQueue->uxItemSize;
1847:freertos\src/queue.c **** 			if( pxQueue->u.pcReadFrom >= pxQueue->pcTail )
1848:freertos\src/queue.c **** 			{
1849:freertos\src/queue.c **** 				pxQueue->u.pcReadFrom = pxQueue->pcHead;
1850:freertos\src/queue.c **** 			}
1851:freertos\src/queue.c **** 			--( pxQueue->uxMessagesWaiting );
1852:freertos\src/queue.c **** 			( void ) memcpy( ( void * ) pvBuffer, ( void * ) pxQueue->u.pcReadFrom, ( unsigned ) pxQueue->ux
1853:freertos\src/queue.c **** 
1854:freertos\src/queue.c **** 			if( ( *pxCoRoutineWoken ) == pdFALSE )
1855:freertos\src/queue.c **** 			{
1856:freertos\src/queue.c **** 				if( listLIST_IS_EMPTY( &( pxQueue->xTasksWaitingToSend ) ) == pdFALSE )
1857:freertos\src/queue.c **** 				{
1858:freertos\src/queue.c **** 					if( xCoRoutineRemoveFromEventList( &( pxQueue->xTasksWaitingToSend ) ) != pdFALSE )
1859:freertos\src/queue.c **** 					{
1860:freertos\src/queue.c **** 						*pxCoRoutineWoken = pdTRUE;
1861:freertos\src/queue.c **** 					}
1862:freertos\src/queue.c **** 				}
1863:freertos\src/queue.c **** 			}
1864:freertos\src/queue.c **** 
1865:freertos\src/queue.c **** 			xReturn = pdPASS;
1866:freertos\src/queue.c **** 		}
1867:freertos\src/queue.c **** 		else
1868:freertos\src/queue.c **** 		{
1869:freertos\src/queue.c **** 			xReturn = pdFAIL;
1870:freertos\src/queue.c **** 		}
1871:freertos\src/queue.c **** 
1872:freertos\src/queue.c **** 		return xReturn;
1873:freertos\src/queue.c **** 	}
1874:freertos\src/queue.c **** 
1875:freertos\src/queue.c **** #endif /* configUSE_CO_ROUTINES */
1876:freertos\src/queue.c **** /*-----------------------------------------------------------*/
1877:freertos\src/queue.c **** 
1878:freertos\src/queue.c **** #if ( configQUEUE_REGISTRY_SIZE > 0 )
1879:freertos\src/queue.c **** 
1880:freertos\src/queue.c **** 	void vQueueAddToRegistry( xQueueHandle xQueue, signed char *pcQueueName )
1881:freertos\src/queue.c **** 	{
 1429              		.loc 1 1881 0
ARM GAS  C:\Users\VIDEOH~1\AppData\Local\Temp\cc1cRMdm.s 			page 63


 1430              		.cfi_startproc
 1431              		@ args = 0, pretend = 0, frame = 0
 1432              		@ frame_needed = 0, uses_anonymous_args = 0
 1433              	.LVL195:
1882:freertos\src/queue.c **** 	unsigned portBASE_TYPE ux;
1883:freertos\src/queue.c **** 
1884:freertos\src/queue.c **** 		/* See if there is an empty space in the registry.  A NULL name denotes
1885:freertos\src/queue.c **** 		a free slot. */
1886:freertos\src/queue.c **** 		for( ux = ( unsigned portBASE_TYPE ) 0U; ux < ( unsigned portBASE_TYPE ) configQUEUE_REGISTRY_SIZ
 1434              		.loc 1 1886 0
 1435 0000 0023     		movs	r3, #0
1881:freertos\src/queue.c **** 	unsigned portBASE_TYPE ux;
 1436              		.loc 1 1881 0
 1437 0002 70B5     		push	{r4, r5, r6, lr}
 1438              		.cfi_def_cfa_offset 16
 1439              		.cfi_offset 4, -16
 1440              		.cfi_offset 5, -12
 1441              		.cfi_offset 6, -8
 1442              		.cfi_offset 14, -4
1887:freertos\src/queue.c **** 		{
1888:freertos\src/queue.c **** 			if( xQueueRegistry[ ux ].pcQueueName == NULL )
 1443              		.loc 1 1888 0
 1444 0004 064A     		ldr	r2, .L137
 1445              	.LVL196:
 1446              	.L135:
 1447 0006 DD00     		lsls	r5, r3, #3
 1448 0008 AC18     		adds	r4, r5, r2
 1449 000a 2668     		ldr	r6, [r4]
 1450 000c 002E     		cmp	r6, #0
 1451 000e 02D1     		bne	.L133
1889:freertos\src/queue.c **** 			{
1890:freertos\src/queue.c **** 				/* Store the information on this queue. */
1891:freertos\src/queue.c **** 				xQueueRegistry[ ux ].pcQueueName = pcQueueName;
 1452              		.loc 1 1891 0
 1453 0010 A950     		str	r1, [r5, r2]
1892:freertos\src/queue.c **** 				xQueueRegistry[ ux ].xHandle = xQueue;
 1454              		.loc 1 1892 0
 1455 0012 6060     		str	r0, [r4, #4]
1893:freertos\src/queue.c **** 				break;
 1456              		.loc 1 1893 0
 1457 0014 02E0     		b	.L132
 1458              	.L133:
1886:freertos\src/queue.c **** 		{
 1459              		.loc 1 1886 0 discriminator 2
 1460 0016 0133     		adds	r3, r3, #1
 1461              	.LVL197:
 1462 0018 0A2B     		cmp	r3, #10
 1463 001a F4D1     		bne	.L135
 1464              	.L132:
1894:freertos\src/queue.c **** 			}
1895:freertos\src/queue.c **** 		}
1896:freertos\src/queue.c **** 	}
 1465              		.loc 1 1896 0
 1466              		@ sp needed
 1467 001c 70BD     		pop	{r4, r5, r6, pc}
 1468              	.L138:
 1469 001e C046     		.align	2
ARM GAS  C:\Users\VIDEOH~1\AppData\Local\Temp\cc1cRMdm.s 			page 64


 1470              	.L137:
 1471 0020 00000000 		.word	xQueueRegistry
 1472              		.cfi_endproc
 1473              	.LFE51:
 1474              		.size	vQueueAddToRegistry, .-vQueueAddToRegistry
 1475              		.section	.text.vQueueUnregisterQueue,"ax",%progbits
 1476              		.align	1
 1477              		.global	vQueueUnregisterQueue
 1478              		.code	16
 1479              		.thumb_func
 1480              		.type	vQueueUnregisterQueue, %function
 1481              	vQueueUnregisterQueue:
 1482              	.LFB52:
1897:freertos\src/queue.c **** 
1898:freertos\src/queue.c **** #endif /* configQUEUE_REGISTRY_SIZE */
1899:freertos\src/queue.c **** /*-----------------------------------------------------------*/
1900:freertos\src/queue.c **** 
1901:freertos\src/queue.c **** #if ( configQUEUE_REGISTRY_SIZE > 0 )
1902:freertos\src/queue.c **** 
1903:freertos\src/queue.c **** 	void vQueueUnregisterQueue( xQueueHandle xQueue )
1904:freertos\src/queue.c **** 	{
 1483              		.loc 1 1904 0
 1484              		.cfi_startproc
 1485              		@ args = 0, pretend = 0, frame = 0
 1486              		@ frame_needed = 0, uses_anonymous_args = 0
 1487              	.LVL198:
1905:freertos\src/queue.c **** 	unsigned portBASE_TYPE ux;
1906:freertos\src/queue.c **** 
1907:freertos\src/queue.c **** 		/* See if the handle of the queue being unregistered in actually in the
1908:freertos\src/queue.c **** 		registry. */
1909:freertos\src/queue.c **** 		for( ux = ( unsigned portBASE_TYPE ) 0U; ux < ( unsigned portBASE_TYPE ) configQUEUE_REGISTRY_SIZ
 1488              		.loc 1 1909 0
 1489 0000 0023     		movs	r3, #0
1904:freertos\src/queue.c **** 	unsigned portBASE_TYPE ux;
 1490              		.loc 1 1904 0
 1491 0002 10B5     		push	{r4, lr}
 1492              		.cfi_def_cfa_offset 8
 1493              		.cfi_offset 4, -8
 1494              		.cfi_offset 14, -4
1910:freertos\src/queue.c **** 		{
1911:freertos\src/queue.c **** 			if( xQueueRegistry[ ux ].xHandle == xQueue )
 1495              		.loc 1 1911 0
 1496 0004 064A     		ldr	r2, .L144
 1497              	.LVL199:
 1498              	.L142:
 1499 0006 D900     		lsls	r1, r3, #3
 1500 0008 8C18     		adds	r4, r1, r2
 1501 000a 6468     		ldr	r4, [r4, #4]
 1502 000c 8442     		cmp	r4, r0
 1503 000e 02D1     		bne	.L140
1912:freertos\src/queue.c **** 			{
1913:freertos\src/queue.c **** 				/* Set the name to NULL to show that this slot if free again. */
1914:freertos\src/queue.c **** 				xQueueRegistry[ ux ].pcQueueName = NULL;
 1504              		.loc 1 1914 0
 1505 0010 0023     		movs	r3, #0
 1506              	.LVL200:
 1507 0012 8B50     		str	r3, [r1, r2]
ARM GAS  C:\Users\VIDEOH~1\AppData\Local\Temp\cc1cRMdm.s 			page 65


1915:freertos\src/queue.c **** 				break;
 1508              		.loc 1 1915 0
 1509 0014 02E0     		b	.L139
 1510              	.LVL201:
 1511              	.L140:
1909:freertos\src/queue.c **** 		{
 1512              		.loc 1 1909 0 discriminator 2
 1513 0016 0133     		adds	r3, r3, #1
 1514              	.LVL202:
 1515 0018 0A2B     		cmp	r3, #10
 1516 001a F4D1     		bne	.L142
 1517              	.LVL203:
 1518              	.L139:
1916:freertos\src/queue.c **** 			}
1917:freertos\src/queue.c **** 		}
1918:freertos\src/queue.c **** 
1919:freertos\src/queue.c **** 	} /*lint !e818 xQueue could not be pointer to const because it is a typedef. */
 1519              		.loc 1 1919 0
 1520              		@ sp needed
 1521 001c 10BD     		pop	{r4, pc}
 1522              	.L145:
 1523 001e C046     		.align	2
 1524              	.L144:
 1525 0020 00000000 		.word	xQueueRegistry
 1526              		.cfi_endproc
 1527              	.LFE52:
 1528              		.size	vQueueUnregisterQueue, .-vQueueUnregisterQueue
 1529              		.section	.text.vQueueDelete,"ax",%progbits
 1530              		.align	1
 1531              		.global	vQueueDelete
 1532              		.code	16
 1533              		.thumb_func
 1534              		.type	vQueueDelete, %function
 1535              	vQueueDelete:
 1536              	.LFB43:
1372:freertos\src/queue.c **** xQUEUE * const pxQueue = ( xQUEUE * ) xQueue;
 1537              		.loc 1 1372 0
 1538              		.cfi_startproc
 1539              		@ args = 0, pretend = 0, frame = 0
 1540              		@ frame_needed = 0, uses_anonymous_args = 0
 1541              	.LVL204:
 1542 0000 10B5     		push	{r4, lr}
 1543              		.cfi_def_cfa_offset 8
 1544              		.cfi_offset 4, -8
 1545              		.cfi_offset 14, -4
1372:freertos\src/queue.c **** xQUEUE * const pxQueue = ( xQUEUE * ) xQueue;
 1546              		.loc 1 1372 0
 1547 0002 0400     		movs	r4, r0
1380:freertos\src/queue.c **** 	}
 1548              		.loc 1 1380 0
 1549 0004 FFF7FEFF 		bl	vQueueUnregisterQueue
 1550              	.LVL205:
1383:freertos\src/queue.c **** 	vPortFree( pxQueue );
 1551              		.loc 1 1383 0
 1552 0008 2068     		ldr	r0, [r4]
 1553 000a FFF7FEFF 		bl	vPortFree
 1554              	.LVL206:
ARM GAS  C:\Users\VIDEOH~1\AppData\Local\Temp\cc1cRMdm.s 			page 66


1384:freertos\src/queue.c **** }
 1555              		.loc 1 1384 0
 1556 000e 2000     		movs	r0, r4
 1557 0010 FFF7FEFF 		bl	vPortFree
 1558              	.LVL207:
1385:freertos\src/queue.c **** /*-----------------------------------------------------------*/
 1559              		.loc 1 1385 0
 1560              		@ sp needed
 1561              	.LVL208:
 1562 0014 10BD     		pop	{r4, pc}
 1563              		.cfi_endproc
 1564              	.LFE43:
 1565              		.size	vQueueDelete, .-vQueueDelete
 1566              		.comm	xQueueRegistry,80,4
 1567              		.text
 1568              	.Letext0:
 1569              		.file 2 "c:\\program files (x86)\\cypress\\psoc creator\\4.2\\psoc creator\\import\\gnu\\arm\\5.4.
 1570              		.file 3 ".\\freertos\\include/portmacro.h"
 1571              		.file 4 ".\\freertos\\include/list.h"
 1572              		.file 5 ".\\freertos\\include/task.h"
 1573              		.file 6 ".\\freertos\\include/queue.h"
 1574              		.file 7 ".\\freertos\\include/portable.h"