ARM GAS  C:\Users\VIDEOH~1\AppData\Local\Temp\ccM4oHTP.s 			page 1


   1              		.syntax unified
   2              		.cpu cortex-m0
   3              		.fpu softvfp
   4              		.eabi_attribute 20, 1
   5              		.eabi_attribute 21, 1
   6              		.eabi_attribute 23, 3
   7              		.eabi_attribute 24, 1
   8              		.eabi_attribute 25, 1
   9              		.eabi_attribute 26, 1
  10              		.eabi_attribute 30, 1
  11              		.eabi_attribute 34, 0
  12              		.eabi_attribute 18, 4
  13              		.thumb
  14              		.syntax unified
  15              		.file	"ui.c"
  16              		.text
  17              	.Ltext0:
  18              		.cfi_sections	.debug_frame
  19              		.section	.text.call_void_func,"ax",%progbits
  20              		.align	2
  21              		.code	16
  22              		.thumb_func
  23              		.type	call_void_func, %function
  24              	call_void_func:
  25              	.LFB52:
  26              		.file 1 "ui.c"
   1:ui.c          **** /* ========================================
   2:ui.c          ****  *
   3:ui.c          ****  * Copyright Arachnid Labs, 2013
   4:ui.c          ****  * All Rights Reserved
   5:ui.c          ****  * UNPUBLISHED, LICENSED SOFTWARE.
   6:ui.c          ****  *
   7:ui.c          ****  * CONFIDENTIAL AND PROPRIETARY INFORMATION
   8:ui.c          ****  * WHICH IS THE PROPERTY OF your company.
   9:ui.c          ****  *
  10:ui.c          ****  * ========================================
  11:ui.c          **** */
  12:ui.c          **** 
  13:ui.c          **** #include "comms.h"
  14:ui.c          **** #include "calibrate.h"
  15:ui.c          **** #include "tasks.h"
  16:ui.c          **** #include "Display_font.h"
  17:ui.c          **** #include "config.h"
  18:ui.c          **** #include <FreeRTOS.h>
  19:ui.c          **** #include <task.h>
  20:ui.c          **** #include <queue.h>
  21:ui.c          **** #include <stdio.h>
  22:ui.c          **** #include <stdlib.h>
  23:ui.c          **** 
  24:ui.c          **** xQueueHandle ui_queue;
  25:ui.c          **** 
  26:ui.c          **** typedef struct {
  27:ui.c          **** 	void (*func)(char *);
  28:ui.c          **** 	char *label;
  29:ui.c          **** } readout_function_impl;
  30:ui.c          **** 
  31:ui.c          **** typedef struct state_func_t {
ARM GAS  C:\Users\VIDEOH~1\AppData\Local\Temp\ccM4oHTP.s 			page 2


  32:ui.c          **** 	struct state_func_t (*func)(const void*);
  33:ui.c          **** 	const void *arg;
  34:ui.c          **** 	const int8 is_main_state;
  35:ui.c          **** } state_func;
  36:ui.c          **** 
  37:ui.c          **** typedef enum {
  38:ui.c          **** 	VALUE_TYPE_CURRENT_RANGE,
  39:ui.c          **** } value_type;
  40:ui.c          **** 
  41:ui.c          **** typedef struct {
  42:ui.c          **** 	const char *caption;
  43:ui.c          **** 	const state_func new_state;
  44:ui.c          **** } menuitem;
  45:ui.c          **** 
  46:ui.c          **** typedef struct {
  47:ui.c          **** 	const char *title;
  48:ui.c          **** 	const menuitem items[];
  49:ui.c          **** } menudata;
  50:ui.c          **** 
  51:ui.c          **** typedef struct {
  52:ui.c          **** 	const value_type type;
  53:ui.c          **** 	const void *target;
  54:ui.c          **** 	const int value;
  55:ui.c          **** } valueconfig;
  56:ui.c          **** 
  57:ui.c          **** typedef void (*void_func)();
  58:ui.c          **** 
  59:ui.c          **** static state_func cc_load(const void*);
  60:ui.c          **** static state_func menu(const void*);
  61:ui.c          **** static state_func ui_set_min_voltage(const void*);
  62:ui.c          **** static state_func ui_calibrate(const void*);
  63:ui.c          **** static state_func display_config(const void*);
  64:ui.c          **** static state_func set_contrast(const void *);
  65:ui.c          **** static state_func overlimit(const void*);
  66:ui.c          **** static state_func call_void_func(const void*);
  67:ui.c          **** static state_func upgrade(const void*);
  68:ui.c          **** static void measure_Battery_ISR();
  69:ui.c          **** 
  70:ui.c          **** #define STATE_MAIN_MENU {menu, &main_menu, 0}/*Initally we start on this menu entry*/
  71:ui.c          **** #define STATE_TOOLS_MENU {menu,&tools_menu,0}/*Tools menu*/
  72:ui.c          **** /*Following are all the details for the menu items*/
  73:ui.c          **** #define STATE_MAIN                  {NULL, NULL, 0}
  74:ui.c          **** #define STATE_CC_LOAD               {cc_load, NULL, 1}
  75:ui.c          **** #define STATE_MIN_VOLTAGE           {ui_set_min_voltage, NULL, 0}
  76:ui.c          **** #define STATE_CALIBRATE             {ui_calibrate, NULL, 0}
  77:ui.c          **** #define STATE_CONFIGURE_CC_DISPLAY  {display_config, 0, 0}
  78:ui.c          **** #define STATE_SET_CONTRAST          {set_contrast, NULL, 0}
  79:ui.c          **** #define STATE_LIMIT                 {overlimit, NULL, 0}
  80:ui.c          **** #define STATE_RESET_TOTALS          {call_void_func, (void_func)reset_running_totals, 0}
  81:ui.c          **** #define STATE_UPGRADE               {upgrade, NULL, 0}
  82:ui.c          **** #define STATE_BATTERY_ISR           {"Batt ISR.", {call_void_func,measure_Battery_ISR , 0}}
  83:ui.c          **** 
  84:ui.c          **** const menudata set_readout_menu = {
  85:ui.c          **** 	"Choose value",
  86:ui.c          **** 	{
  87:ui.c          **** 		{"Set Current", {NULL, (void*)READOUT_CURRENT_SETPOINT, 0}},
  88:ui.c          **** 		{"Act. Current", {NULL, (void*)READOUT_CURRENT_USAGE, 0}},
ARM GAS  C:\Users\VIDEOH~1\AppData\Local\Temp\ccM4oHTP.s 			page 3


  89:ui.c          **** 		{"Voltage", {NULL, (void*)READOUT_VOLTAGE, 0}},
  90:ui.c          **** 		{"Power", {NULL, (void*)READOUT_POWER, 0}},
  91:ui.c          **** 		{"Resistance", {NULL, (void*)READOUT_RESISTANCE, 0}},
  92:ui.c          **** 		{"Total current", {NULL, (void*)READOUT_TOTAL_CURRENT, 0}},
  93:ui.c          **** 		{"Total power", {NULL, (void*)READOUT_TOTAL_POWER, 0}},
  94:ui.c          **** 		{"None", {NULL, (void*)READOUT_NONE, 0}},
  95:ui.c          ****         {"EXIT", STATE_MAIN},
  96:ui.c          **** 		{NULL, {NULL, NULL, 0}},
  97:ui.c          **** 	}
  98:ui.c          **** };
  99:ui.c          **** 
 100:ui.c          **** const menudata choose_readout_menu = {
 101:ui.c          **** 	"Readouts",
 102:ui.c          **** 	{
 103:ui.c          **** 		{"Main disp.", {NULL, (void*)1, 0}},
 104:ui.c          **** 		{"Left disp.", {NULL, (void*)2, 0}},
 105:ui.c          **** 		{"Right disp.", {NULL, (void*)3, 0}},
 106:ui.c          ****         {"EXIT", STATE_MAIN},
 107:ui.c          **** 		{NULL, {NULL, NULL, 0}},
 108:ui.c          **** 	}
 109:ui.c          **** };
 110:ui.c          **** 
 111:ui.c          **** const menudata tools_menu = {
 112:ui.c          **** 	NULL,
 113:ui.c          **** 	{
 114:ui.c          **** 		STATE_BATTERY_ISR,
 115:ui.c          ****         {"EXIT", STATE_MAIN},
 116:ui.c          **** 		{NULL, {NULL, NULL, 0}},
 117:ui.c          **** 	}
 118:ui.c          **** };
 119:ui.c          **** 
 120:ui.c          **** 
 121:ui.c          **** const menudata main_menu = {
 122:ui.c          **** 	NULL,
 123:ui.c          **** 	{
 124:ui.c          **** 		{"C/C Load", STATE_CC_LOAD},
 125:ui.c          **** 		{"Readouts", STATE_CONFIGURE_CC_DISPLAY},
 126:ui.c          ****         {"Min Voltage", STATE_MIN_VOLTAGE},
 127:ui.c          **** 		{"Reset Totals", STATE_RESET_TOTALS},
 128:ui.c          ****         {"Tools",STATE_TOOLS_MENU},
 129:ui.c          **** 		{"Contrast", STATE_SET_CONTRAST},
 130:ui.c          **** 		{"Calibrate", STATE_CALIBRATE},
 131:ui.c          **** 		{"Upgrade Mode", STATE_UPGRADE},
 132:ui.c          ****         {"EXIT", STATE_MAIN},
 133:ui.c          **** 		{NULL, {NULL, NULL, 0}},
 134:ui.c          **** 	}
 135:ui.c          **** };
 136:ui.c          **** 
 137:ui.c          **** 
 138:ui.c          **** 
 139:ui.c          **** volatile portTickType long_button_press_tick_count = portMAX_DELAY;
 140:ui.c          **** 
 141:ui.c          **** void vApplicationTickHook( void )
 142:ui.c          **** {
 143:ui.c          **** 	static ui_event event = {.type = UI_EVENT_BUTTONPRESS, .when = 0};
 144:ui.c          ****     static portTickType before = 0;
 145:ui.c          **** 
ARM GAS  C:\Users\VIDEOH~1\AppData\Local\Temp\ccM4oHTP.s 			page 4


 146:ui.c          ****     int button_now = QuadButton_Read();
 147:ui.c          ****     if (button_now != event.int_arg)
 148:ui.c          ****     {
 149:ui.c          ****         before = event.when;
 150:ui.c          ****         event.when = xTaskGetTickCountFromISR();
 151:ui.c          **** 
 152:ui.c          ****     	event.int_arg = button_now;
 153:ui.c          **** 
 154:ui.c          ****         // it is suggested to have debounce timer of 5-30 ms in different sources, so going with co
 155:ui.c          ****     	if(event.int_arg) {
 156:ui.c          ****             long_button_press_tick_count = portMAX_DELAY;
 157:ui.c          ****             if(event.when - before >= (30 * configTICK_RATE_HZ / 1000)) {
 158:ui.c          ****     		    xQueueSendToBackFromISR(ui_queue, &event, NULL);
 159:ui.c          ****             }
 160:ui.c          ****     	} else {
 161:ui.c          ****             long_button_press_tick_count = event.when + configTICK_RATE_HZ;
 162:ui.c          ****         }
 163:ui.c          ****     }
 164:ui.c          **** }
 165:ui.c          **** 
 166:ui.c          **** // Maps current state (index) to next state for a forward transition.
 167:ui.c          **** const int8 quadrature_states[] = {0x1, 0x3, 0x0, 0x2};
 168:ui.c          **** 
 169:ui.c          **** CY_ISR(quadrature_event_isr) {
 170:ui.c          **** 	static ui_event event = {.type = UI_EVENT_UPDOWN, .when = 0, .int_arg = 0};
 171:ui.c          ****     static int8 last_levels = 3;
 172:ui.c          **** 	static int8 count = 0;
 173:ui.c          ****     static portTickType before = 0;
 174:ui.c          **** 
 175:ui.c          **** 	int levels = Quadrature_Read();
 176:ui.c          **** 	Quadrature_ClearInterrupt();
 177:ui.c          **** 
 178:ui.c          **** 	if(quadrature_states[last_levels] == levels) {
 179:ui.c          **** 		count += 1;
 180:ui.c          **** 		last_levels = levels;
 181:ui.c          **** 	} else if(quadrature_states[levels] == last_levels) {
 182:ui.c          **** 		count -= 1;
 183:ui.c          **** 		last_levels = levels;
 184:ui.c          **** 	}
 185:ui.c          **** 
 186:ui.c          **** 	if(abs(count) >= 4) {
 187:ui.c          ****         before = event.when;
 188:ui.c          ****         event.when = xTaskGetTickCountFromISR();
 189:ui.c          **** 
 190:ui.c          ****         // calculate step size that is inversely proportional to the time that has passed since las
 191:ui.c          ****         event.duration = event.when - before;
 192:ui.c          ****         if(event.duration < 1)
 193:ui.c          ****             event.duration = 1;
 194:ui.c          **** 
 195:ui.c          ****         event.int_arg = count / 4;
 196:ui.c          **** 		xQueueSendToBackFromISR(ui_queue, &event, NULL);
 197:ui.c          **** 		count = count % 4;
 198:ui.c          **** 	}
 199:ui.c          **** }
 200:ui.c          **** 
 201:ui.c          **** static void format_number(int num, const char *suffix, char *out) {
 202:ui.c          **** 	if(num < 0)
ARM GAS  C:\Users\VIDEOH~1\AppData\Local\Temp\ccM4oHTP.s 			page 5


 203:ui.c          **** 		num = 0;
 204:ui.c          **** 
 205:ui.c          **** 	int magnitude = 1;
 206:ui.c          **** 	while(num >= 1000000) {
 207:ui.c          **** 		num /= 1000;
 208:ui.c          **** 		magnitude++;
 209:ui.c          **** 	}
 210:ui.c          **** 
 211:ui.c          **** 	int whole = num / 1000, remainder = num % 1000;
 212:ui.c          **** 	if(whole < 10) {
 213:ui.c          **** 		// Format: x.xx
 214:ui.c          **** 		sprintf(out, "%1d.%02d", whole, remainder / 10);
 215:ui.c          **** 	} else if(whole < 100) {
 216:ui.c          **** 		// Format: xx.x
 217:ui.c          **** 		sprintf(out, "%02d.%1d", whole, remainder / 100);
 218:ui.c          **** 	} else {
 219:ui.c          **** 		// Format: xxx
 220:ui.c          **** 		sprintf(out, "%03d", whole);
 221:ui.c          **** 	}
 222:ui.c          **** 
 223:ui.c          **** 	if(magnitude == 1) {
 224:ui.c          **** 		strcat(out, "m");
 225:ui.c          **** 		strcat(out, suffix);
 226:ui.c          **** 	} else {
 227:ui.c          **** 		strcat(out, suffix);
 228:ui.c          **** 		strcat(out, " ");
 229:ui.c          **** 	}
 230:ui.c          **** }
 231:ui.c          **** 
 232:ui.c          **** static void format_number_simple(int num, const char *suffix, char *out) {
 233:ui.c          **** 	if(num < 0) num = 0;
 234:ui.c          **** 	num /= 1000;
 235:ui.c          **** 	int whole = num / 1000, remainder = num % 1000;
 236:ui.c          **** 	sprintf(out, "%3d.%03d%s", whole, remainder, suffix);
 237:ui.c          **** }
 238:ui.c          **** 
 239:ui.c          **** static void adjust_current_setpoint(int delta, portTickType duration) {
 240:ui.c          ****     // Implement encoder acceleration
 241:ui.c          ****     int step = (((ENCODER_ACCEL_CONSTANT * configTICK_RATE_HZ) / 1000) / duration);
 242:ui.c          ****     if(step < 1)
 243:ui.c          ****         step = 1;
 244:ui.c          **** 	set_current(state.current_setpoint + delta * step * CURRENT_STEP);
 245:ui.c          ****     uart_printf("set %d\r\n", state.current_setpoint / 1000);
 246:ui.c          **** }
 247:ui.c          **** 
 248:ui.c          **** static void next_event(ui_event *event) {
 249:ui.c          **** 	static portTickType last_tick = 0;
 250:ui.c          ****     static uint8 long_press_sent = 0;
 251:ui.c          **** 
 252:ui.c          ****     portTickType now = xTaskGetTickCount();
 253:ui.c          **** 
 254:ui.c          ****     if(now > long_button_press_tick_count && !long_press_sent) {
 255:ui.c          ****         event->type = UI_EVENT_LONG_BUTTONPRESS;
 256:ui.c          ****         event->when = now;
 257:ui.c          ****         event->int_arg = 0;
 258:ui.c          ****         long_press_sent = 1;
 259:ui.c          ****     } else if(now - last_tick >  configTICK_RATE_HZ / UI_TASK_FREQUENCY
ARM GAS  C:\Users\VIDEOH~1\AppData\Local\Temp\ccM4oHTP.s 			page 6


 260:ui.c          ****         || !xQueueReceive(ui_queue, event, configTICK_RATE_HZ / UI_TASK_FREQUENCY - (now - last_tic
 261:ui.c          **** 		event->type = UI_EVENT_TICK;
 262:ui.c          **** 		event->when = now;
 263:ui.c          **** 		last_tick = now;
 264:ui.c          **** #ifdef USE_WATCHDOG
 265:ui.c          ****         CySysWdtResetCounters(CY_SYS_WDT_COUNTER0_RESET);
 266:ui.c          **** #endif
 267:ui.c          **** 	} else if(event->type == UI_EVENT_BOOTLOAD) {
 268:ui.c          ****         // Bootloading overrides everything
 269:ui.c          ****         upgrade(NULL); // Never returns
 270:ui.c          ****     } else if(event->type == UI_EVENT_BUTTONPRESS && long_press_sent) {
 271:ui.c          ****         long_press_sent = 0;
 272:ui.c          **** 		event->type = UI_EVENT_TICK;
 273:ui.c          **** 		event->when = now;
 274:ui.c          **** 		last_tick = now;
 275:ui.c          **** #ifdef USE_WATCHDOG
 276:ui.c          ****         CySysWdtResetCounters(CY_SYS_WDT_COUNTER0_RESET);
 277:ui.c          **** #endif
 278:ui.c          ****     }
 279:ui.c          **** }
 280:ui.c          **** 
 281:ui.c          **** static void draw_menu(const menudata *menu, int selected) {
 282:ui.c          **** 	int start_row = 0;
 283:ui.c          **** 	int height = 4;
 284:ui.c          **** 
 285:ui.c          **** 	if(menu->title) {
 286:ui.c          **** 		int8 padding = (158 - strlen(menu->title) * 12) / 2;
 287:ui.c          **** 		Display_Clear(0, 2, 2, padding + 1, 0xFF);
 288:ui.c          **** 		Display_DrawText(0, padding + 1, menu->title, 1);
 289:ui.c          **** 		Display_Clear(0, 160 - padding - 1, 2, 160, 0xFF);
 290:ui.c          **** 		start_row++;
 291:ui.c          **** 		height--;
 292:ui.c          **** 	}
 293:ui.c          **** 
 294:ui.c          **** 	Display_DrawText(start_row * 2, 148, ((selected / height) > 0)?FONT_GLYPH_UARR:" ", 0);
 295:ui.c          **** 
 296:ui.c          **** 	// Find the block of items the selected element is in
 297:ui.c          **** 	const menuitem *current = &menu->items[selected - selected % height];
 298:ui.c          **** 	selected %= height;
 299:ui.c          **** 
 300:ui.c          **** 	for(int i = 0; i < height; i++) {
 301:ui.c          **** 		if(current->caption != NULL) {
 302:ui.c          **** 			Display_DrawText((i + start_row) * 2, 2, current->caption, i == selected);
 303:ui.c          **** 			Display_Clear((i + start_row) * 2, strlen(current->caption) * 12 + 1, (i + start_row + 1) * 2, 1
 304:ui.c          **** 			current++;
 305:ui.c          **** 		} else {
 306:ui.c          **** 			Display_Clear((i + start_row) * 2, 1, (i + start_row + 1) * 2, 160, 0);
 307:ui.c          **** 		}
 308:ui.c          **** 	}
 309:ui.c          **** 
 310:ui.c          **** 	if(current->caption != NULL) {
 311:ui.c          **** 		Display_DrawText(6, 148, FONT_GLYPH_DARR, 0);
 312:ui.c          **** 	} else {
 313:ui.c          **** 		Display_DrawText(6, 148, " ", 0);
 314:ui.c          **** 	}
 315:ui.c          **** }
 316:ui.c          **** 
ARM GAS  C:\Users\VIDEOH~1\AppData\Local\Temp\ccM4oHTP.s 			page 7


 317:ui.c          **** void print_nothing(char *buf) {
 318:ui.c          **** 	strcpy(buf, "      ");
 319:ui.c          **** }
 320:ui.c          **** 
 321:ui.c          **** void print_setpoint(char *buf) {
 322:ui.c          **** 	format_number(get_current_setpoint(), "A", buf);
 323:ui.c          **** }
 324:ui.c          **** 
 325:ui.c          **** void print_current_usage(char *buf) {
 326:ui.c          **** 	format_number(get_current_usage(), "A", buf);
 327:ui.c          **** }
 328:ui.c          **** 
 329:ui.c          **** void print_voltage(char *buf) {
 330:ui.c          **** 	format_number(get_voltage(), "V", buf);
 331:ui.c          **** }
 332:ui.c          **** 
 333:ui.c          **** void print_power(char *buf) {
 334:ui.c          **** 	int power = (get_current_usage() / 1000) * (get_voltage() / 1000);
 335:ui.c          **** 	format_number(power, "W", buf);
 336:ui.c          **** }
 337:ui.c          **** 
 338:ui.c          **** void print_resistance(char *buf) {
 339:ui.c          **** 	int current = get_current_usage();
 340:ui.c          **** 	if(current > 0) {
 341:ui.c          **** 		format_number(((get_voltage() * 10) / (current / 100000)), FONT_GLYPH_OHM, buf);
 342:ui.c          **** 	} else {
 343:ui.c          **** 		strcpy(buf, "----" FONT_GLYPH_OHM);
 344:ui.c          **** 	}
 345:ui.c          **** }
 346:ui.c          **** 
 347:ui.c          **** void print_amp_hours(char *buf) {
 348:ui.c          **** 	format_number(get_microamp_hours(), "Ah", buf);
 349:ui.c          **** }
 350:ui.c          **** 
 351:ui.c          **** void print_watt_hours(char *buf) {
 352:ui.c          **** 	format_number(get_microwatt_hours(), "Wh", buf);
 353:ui.c          **** }
 354:ui.c          **** 
 355:ui.c          **** const readout_function_impl readout_functions[] = {
 356:ui.c          **** 	{print_nothing, ""},
 357:ui.c          **** 	{print_setpoint, "SET"},
 358:ui.c          **** 	{print_current_usage, "ACT"},
 359:ui.c          **** 	{print_voltage, ""},
 360:ui.c          **** 	{print_power, ""},
 361:ui.c          **** 	{print_resistance, ""},
 362:ui.c          **** 	{print_amp_hours, ""},
 363:ui.c          **** 	{print_watt_hours, ""},
 364:ui.c          **** };
 365:ui.c          **** 
 366:ui.c          **** static void draw_status(const display_config_t *config, uint8 force_current_setpoint_readout) {
 367:ui.c          **** 	char buf[8];
 368:ui.c          **** 
 369:ui.c          **** 	// Draw the main info
 370:ui.c          **** 	const readout_function_impl *readout = &readout_functions[force_current_setpoint_readout?READOUT_C
 371:ui.c          **** 	if(readout->func != print_nothing) {
 372:ui.c          **** 		readout->func(buf);
 373:ui.c          **** 		strcat(buf, " ");
ARM GAS  C:\Users\VIDEOH~1\AppData\Local\Temp\ccM4oHTP.s 			page 8


 374:ui.c          **** 		Display_DrawBigNumbers(0, 0, buf);
 375:ui.c          **** 		if(strchr(buf, '.') == NULL)
 376:ui.c          **** 			// Clear any detritus left over from longer strings
 377:ui.c          **** 			Display_Clear(0, 108, 4, 120, 0);
 378:ui.c          **** 	} else {
 379:ui.c          **** 		Display_Clear(0, 0, 6, 120, 0);
 380:ui.c          **** 		Display_Clear(4, 120, 6, 160, 0);
 381:ui.c          **** 	}
 382:ui.c          **** 
 383:ui.c          **** 	// Draw the type in the top right
 384:ui.c          **** 	uint8 labelsize = strlen(readout->label) * 12;
 385:ui.c          **** 	Display_DrawText(0, 160 - labelsize, readout->label, 1);
 386:ui.c          **** 	if(labelsize < 36)
 387:ui.c          **** 		Display_Clear(0, 124, 2, 160 - labelsize, 0);
 388:ui.c          **** 
 389:ui.c          ****     // Draw the state in the middle right
 390:ui.c          ****     if(get_output_mode() == OUTPUT_MODE_OFF) {
 391:ui.c          ****     	Display_DrawText(2, 160 - 36, "OFF", 1);
 392:ui.c          ****     } else {
 393:ui.c          ****         Display_Clear(2, 124, 4, 160, 0);
 394:ui.c          ****     }
 395:ui.c          **** 
 396:ui.c          **** 	// Draw the two smaller displays
 397:ui.c          **** 	for(int i = 0; i < 2; i++) {
 398:ui.c          **** 		readout = &readout_functions[config->readouts[i + 1]];
 399:ui.c          **** 		readout->func(buf);
 400:ui.c          **** 		if(strlen(buf) == 5)
 401:ui.c          **** 			strcat(buf, " ");
 402:ui.c          **** 		Display_DrawText(6, 88 * i, buf, 0);
 403:ui.c          **** 	}
 404:ui.c          **** }
 405:ui.c          **** 
 406:ui.c          **** static state_func display_config(const void *arg) {
 407:ui.c          **** 	const display_config_t *config = &settings->display_settings.numbered[(int)arg];
 408:ui.c          **** 
 409:ui.c          **** 	state_func display = menu(&choose_readout_menu);
 410:ui.c          **** 	if(display.arg == NULL)
 411:ui.c          **** 		return display;
 412:ui.c          **** 
 413:ui.c          **** 	state_func readout = menu(&set_readout_menu);
 414:ui.c          **** 	if(readout.arg == NULL)
 415:ui.c          **** 		return readout;
 416:ui.c          **** 
 417:ui.c          **** 	EEPROM_Write((uint8*)&settings-(uint8*)&config->readouts[(int)display.arg - 1],(uint8*)&((readout_
 418:ui.c          **** 
 419:ui.c          **** 	return (state_func)STATE_MAIN;
 420:ui.c          **** }
 421:ui.c          **** 
 422:ui.c          **** //Delay and resets the watchdog every second
 423:ui.c          **** static void delayWithWatchDog(uint8_t seconds)
 424:ui.c          **** {
 425:ui.c          ****     CySysWdtResetCounters(CY_SYS_WDT_COUNTER0_RESET);
 426:ui.c          ****      for(uint8_t i=0;i<seconds;i++)
 427:ui.c          ****     {
 428:ui.c          ****         CyDelay(1000);
 429:ui.c          ****         #if USE_WATCHDOG
 430:ui.c          ****         CySysWdtResetCounters(CY_SYS_WDT_COUNTER0_RESET);
ARM GAS  C:\Users\VIDEOH~1\AppData\Local\Temp\ccM4oHTP.s 			page 9


 431:ui.c          ****         #endif
 432:ui.c          ****     }
 433:ui.c          **** }
 434:ui.c          **** // Handles measuring the battery ISR with two current steps
 435:ui.c          **** static void measure_Battery_ISR()
 436:ui.c          **** {
 437:ui.c          ****      Display_ClearAll();
 438:ui.c          ****     Display_DrawText(0, 0, "Battery ISR", 1);
 439:ui.c          ****     //This is based roughly on what i can find of the  IEC 61951-1:2005 online
 440:ui.c          ****     //We use a current of 1A for testing.
 441:ui.c          ****     //First we measure light load
 442:ui.c          ****     Display_DrawText(2, 0, "Light Load", 0);
 443:ui.c          ****     set_current(100000);//100mA
 444:ui.c          ****     delayWithWatchDog(10);//light load for 10 seconds
 445:ui.c          ****     uint32_t halfLoadVoltage = get_voltage()*10; //measure in the middle (in 10x vuV)
 446:ui.c          ****     Display_DrawText(4, 0, "Full Load", 0);
 447:ui.c          ****     set_current(1000000);//1A
 448:ui.c          ****     delayWithWatchDog(3);//full load for 3 seconds
 449:ui.c          ****     uint32_t fullLoadVoltage = get_voltage()*10;
 450:ui.c          ****     set_current(0);//stop pulling current
 451:ui.c          ****     //Test done
 452:ui.c          ****     //Compute results
 453:ui.c          ****     //Ohms = V/A => We compute two values using the low current
 454:ui.c          ****     //Using Rdc = (V1-V2)/(I2-I1)
 455:ui.c          ****     int Rdc = (halfLoadVoltage-fullLoadVoltage)/(9);
 456:ui.c          ****     //would be divide by 900*100, but we want to shift into milli ohms by 1000*1000
 457:ui.c          ****     //so we move the divisor by 100 and shift the top by 10 previously
 458:ui.c          ****     //Basically we avoid doing the divide as we need to multiple to get the answer scaled correctly
 459:ui.c          ****     //So we basically just remove 1000 from that multiple ^ and then the other part is avoid as we 
 460:ui.c          ****     //So we want an answer that is 10^3 larger than 'correct'
 461:ui.c          **** 
 462:ui.c          ****     char buf[16];
 463:ui.c          ****     format_number(Rdc, FONT_GLYPH_OHM " " FONT_GLYPH_ENTER " Back", buf);//draw it in with the righ
 464:ui.c          ****     Display_DrawText(6, 0, buf, 0);
 465:ui.c          ****     //wait for user to acknowledge
 466:ui.c          ****     ui_event event;
 467:ui.c          **** 	event.type = UI_EVENT_NONE;
 468:ui.c          **** 	while(event.type != UI_EVENT_BUTTONPRESS || event.int_arg != 1) {
 469:ui.c          **** 		next_event(&event);
 470:ui.c          **** 	}
 471:ui.c          ****      //were done :)
 472:ui.c          **** }
 473:ui.c          **** 
 474:ui.c          **** static state_func call_void_func(const void *arg) {
  27              		.loc 1 474 0
  28              		.cfi_startproc
  29              		@ args = 0, pretend = 0, frame = 0
  30              		@ frame_needed = 0, uses_anonymous_args = 0
  31              	.LVL0:
  32 0000 10B5     		push	{r4, lr}
  33              		.cfi_def_cfa_offset 8
  34              		.cfi_offset 4, -8
  35              		.cfi_offset 14, -4
  36 0002 0400     		movs	r4, r0
 475:ui.c          **** 	((void_func)arg)();
  37              		.loc 1 475 0
  38 0004 8847     		blx	r1
ARM GAS  C:\Users\VIDEOH~1\AppData\Local\Temp\ccM4oHTP.s 			page 10


  39              	.LVL1:
 476:ui.c          **** 	return (state_func)STATE_MAIN;
  40              		.loc 1 476 0
  41 0006 0023     		movs	r3, #0
  42 0008 2360     		str	r3, [r4]
  43 000a 6360     		str	r3, [r4, #4]
  44 000c 2372     		strb	r3, [r4, #8]
 477:ui.c          **** }
  45              		.loc 1 477 0
  46 000e 2000     		movs	r0, r4
  47              		@ sp needed
  48              	.LVL2:
  49 0010 10BD     		pop	{r4, pc}
  50              		.cfi_endproc
  51              	.LFE52:
  52              		.size	call_void_func, .-call_void_func
  53 0012 C046     		.section	.text.delayWithWatchDog,"ax",%progbits
  54              		.align	2
  55              		.code	16
  56              		.thumb_func
  57              		.type	delayWithWatchDog, %function
  58              	delayWithWatchDog:
  59              	.LFB50:
 424:ui.c          ****     CySysWdtResetCounters(CY_SYS_WDT_COUNTER0_RESET);
  60              		.loc 1 424 0
  61              		.cfi_startproc
  62              		@ args = 0, pretend = 0, frame = 0
  63              		@ frame_needed = 0, uses_anonymous_args = 0
  64              	.LVL3:
  65 0000 70B5     		push	{r4, r5, r6, lr}
  66              		.cfi_def_cfa_offset 16
  67              		.cfi_offset 4, -16
  68              		.cfi_offset 5, -12
  69              		.cfi_offset 6, -8
  70              		.cfi_offset 14, -4
  71 0002 0500     		movs	r5, r0
 425:ui.c          ****      for(uint8_t i=0;i<seconds;i++)
  72              		.loc 1 425 0
  73 0004 0820     		movs	r0, #8
  74              	.LVL4:
  75 0006 FFF7FEFF 		bl	CySysWdtResetCounters
  76              	.LVL5:
  77              	.LBB2:
 426:ui.c          ****     {
  78              		.loc 1 426 0
  79 000a 0024     		movs	r4, #0
  80 000c 05E0     		b	.L3
  81              	.LVL6:
  82              	.L4:
 428:ui.c          ****         #if USE_WATCHDOG
  83              		.loc 1 428 0 discriminator 3
  84 000e FA20     		movs	r0, #250
  85 0010 8000     		lsls	r0, r0, #2
  86 0012 FFF7FEFF 		bl	CyDelay
  87              	.LVL7:
 426:ui.c          ****     {
  88              		.loc 1 426 0 discriminator 3
ARM GAS  C:\Users\VIDEOH~1\AppData\Local\Temp\ccM4oHTP.s 			page 11


  89 0016 0134     		adds	r4, r4, #1
  90              	.LVL8:
  91 0018 E4B2     		uxtb	r4, r4
  92              	.LVL9:
  93              	.L3:
 426:ui.c          ****     {
  94              		.loc 1 426 0 is_stmt 0 discriminator 1
  95 001a AC42     		cmp	r4, r5
  96 001c F7D3     		bcc	.L4
  97              	.LBE2:
 433:ui.c          **** // Handles measuring the battery ISR with two current steps
  98              		.loc 1 433 0 is_stmt 1
  99              		@ sp needed
 100              	.LVL10:
 101 001e 70BD     		pop	{r4, r5, r6, pc}
 102              		.cfi_endproc
 103              	.LFE50:
 104              		.size	delayWithWatchDog, .-delayWithWatchDog
 105              		.global	__aeabi_idiv
 106              		.global	__aeabi_idivmod
 107              		.section	.text.format_number_simple,"ax",%progbits
 108              		.align	2
 109              		.code	16
 110              		.thumb_func
 111              		.type	format_number_simple, %function
 112              	format_number_simple:
 113              	.LFB36:
 232:ui.c          **** 	if(num < 0) num = 0;
 114              		.loc 1 232 0
 115              		.cfi_startproc
 116              		@ args = 0, pretend = 0, frame = 0
 117              		@ frame_needed = 0, uses_anonymous_args = 0
 118              	.LVL11:
 119 0000 F0B5     		push	{r4, r5, r6, r7, lr}
 120              		.cfi_def_cfa_offset 20
 121              		.cfi_offset 4, -20
 122              		.cfi_offset 5, -16
 123              		.cfi_offset 6, -12
 124              		.cfi_offset 7, -8
 125              		.cfi_offset 14, -4
 126 0002 83B0     		sub	sp, sp, #12
 127              		.cfi_def_cfa_offset 32
 128 0004 0400     		movs	r4, r0
 129 0006 0F00     		movs	r7, r1
 130 0008 1500     		movs	r5, r2
 233:ui.c          **** 	num /= 1000;
 131              		.loc 1 233 0
 132 000a 0028     		cmp	r0, #0
 133 000c 00DA     		bge	.L6
 134 000e 0024     		movs	r4, #0
 135              	.L6:
 136              	.LVL12:
 234:ui.c          **** 	int whole = num / 1000, remainder = num % 1000;
 137              		.loc 1 234 0
 138 0010 FA21     		movs	r1, #250
 139              	.LVL13:
 140 0012 8900     		lsls	r1, r1, #2
ARM GAS  C:\Users\VIDEOH~1\AppData\Local\Temp\ccM4oHTP.s 			page 12


 141 0014 2000     		movs	r0, r4
 142 0016 FFF7FEFF 		bl	__aeabi_idiv
 143              	.LVL14:
 144 001a 0600     		movs	r6, r0
 145              	.LVL15:
 235:ui.c          **** 	sprintf(out, "%3d.%03d%s", whole, remainder, suffix);
 146              		.loc 1 235 0
 147 001c 0949     		ldr	r1, .L8
 148 001e 2000     		movs	r0, r4
 149              	.LVL16:
 150 0020 FFF7FEFF 		bl	__aeabi_idiv
 151              	.LVL17:
 152 0024 0400     		movs	r4, r0
 153              	.LVL18:
 154 0026 FA21     		movs	r1, #250
 155 0028 8900     		lsls	r1, r1, #2
 156 002a 3000     		movs	r0, r6
 157              	.LVL19:
 158 002c FFF7FEFF 		bl	__aeabi_idivmod
 159              	.LVL20:
 160 0030 0B00     		movs	r3, r1
 161              	.LVL21:
 236:ui.c          **** }
 162              		.loc 1 236 0
 163 0032 0097     		str	r7, [sp]
 164 0034 2200     		movs	r2, r4
 165 0036 0449     		ldr	r1, .L8+4
 166              	.LVL22:
 167 0038 2800     		movs	r0, r5
 168 003a FFF7FEFF 		bl	sprintf
 169              	.LVL23:
 237:ui.c          **** 
 170              		.loc 1 237 0
 171 003e 03B0     		add	sp, sp, #12
 172              		@ sp needed
 173              	.LVL24:
 174              	.LVL25:
 175              	.LVL26:
 176              	.LVL27:
 177 0040 F0BD     		pop	{r4, r5, r6, r7, pc}
 178              	.L9:
 179 0042 C046     		.align	2
 180              	.L8:
 181 0044 40420F00 		.word	1000000
 182 0048 00000000 		.word	.LC2
 183              		.cfi_endproc
 184              	.LFE36:
 185              		.size	format_number_simple, .-format_number_simple
 186              		.section	.text.print_nothing,"ax",%progbits
 187              		.align	2
 188              		.global	print_nothing
 189              		.code	16
 190              		.thumb_func
 191              		.type	print_nothing, %function
 192              	print_nothing:
 193              	.LFB40:
 317:ui.c          **** 	strcpy(buf, "      ");
ARM GAS  C:\Users\VIDEOH~1\AppData\Local\Temp\ccM4oHTP.s 			page 13


 194              		.loc 1 317 0
 195              		.cfi_startproc
 196              		@ args = 0, pretend = 0, frame = 0
 197              		@ frame_needed = 0, uses_anonymous_args = 0
 198              	.LVL28:
 199 0000 10B5     		push	{r4, lr}
 200              		.cfi_def_cfa_offset 8
 201              		.cfi_offset 4, -8
 202              		.cfi_offset 14, -4
 318:ui.c          **** }
 203              		.loc 1 318 0
 204 0002 0722     		movs	r2, #7
 205 0004 0149     		ldr	r1, .L11
 206 0006 FFF7FEFF 		bl	memcpy
 207              	.LVL29:
 319:ui.c          **** 
 208              		.loc 1 319 0
 209              		@ sp needed
 210 000a 10BD     		pop	{r4, pc}
 211              	.L12:
 212              		.align	2
 213              	.L11:
 214 000c 0C000000 		.word	.LC4
 215              		.cfi_endproc
 216              	.LFE40:
 217              		.size	print_nothing, .-print_nothing
 218              		.section	.text.format_number,"ax",%progbits
 219              		.align	2
 220              		.code	16
 221              		.thumb_func
 222              		.type	format_number, %function
 223              	format_number:
 224              	.LFB35:
 201:ui.c          **** 	if(num < 0)
 225              		.loc 1 201 0
 226              		.cfi_startproc
 227              		@ args = 0, pretend = 0, frame = 8
 228              		@ frame_needed = 0, uses_anonymous_args = 0
 229              	.LVL30:
 230 0000 F0B5     		push	{r4, r5, r6, r7, lr}
 231              		.cfi_def_cfa_offset 20
 232              		.cfi_offset 4, -20
 233              		.cfi_offset 5, -16
 234              		.cfi_offset 6, -12
 235              		.cfi_offset 7, -8
 236              		.cfi_offset 14, -4
 237 0002 83B0     		sub	sp, sp, #12
 238              		.cfi_def_cfa_offset 32
 239 0004 0400     		movs	r4, r0
 240 0006 0191     		str	r1, [sp, #4]
 241 0008 1600     		movs	r6, r2
 202:ui.c          **** 		num = 0;
 242              		.loc 1 202 0
 243 000a 0028     		cmp	r0, #0
 244 000c 00DA     		bge	.L14
 203:ui.c          **** 
 245              		.loc 1 203 0
ARM GAS  C:\Users\VIDEOH~1\AppData\Local\Temp\ccM4oHTP.s 			page 14


 246 000e 0024     		movs	r4, #0
 247              	.L14:
 248 0010 0125     		movs	r5, #1
 249 0012 06E0     		b	.L15
 250              	.LVL31:
 251              	.L16:
 207:ui.c          **** 		magnitude++;
 252              		.loc 1 207 0
 253 0014 FA21     		movs	r1, #250
 254 0016 8900     		lsls	r1, r1, #2
 255 0018 2000     		movs	r0, r4
 256 001a FFF7FEFF 		bl	__aeabi_idiv
 257              	.LVL32:
 258 001e 0400     		movs	r4, r0
 259              	.LVL33:
 208:ui.c          **** 	}
 260              		.loc 1 208 0
 261 0020 0135     		adds	r5, r5, #1
 262              	.LVL34:
 263              	.L15:
 206:ui.c          **** 		num /= 1000;
 264              		.loc 1 206 0
 265 0022 244B     		ldr	r3, .L23
 266 0024 9C42     		cmp	r4, r3
 267 0026 F5DC     		bgt	.L16
 211:ui.c          **** 	if(whole < 10) {
 268              		.loc 1 211 0
 269 0028 FA21     		movs	r1, #250
 270 002a 8900     		lsls	r1, r1, #2
 271 002c 2000     		movs	r0, r4
 272 002e FFF7FEFF 		bl	__aeabi_idiv
 273              	.LVL35:
 274 0032 0700     		movs	r7, r0
 275              	.LVL36:
 276 0034 FA21     		movs	r1, #250
 277 0036 8900     		lsls	r1, r1, #2
 278 0038 2000     		movs	r0, r4
 279              	.LVL37:
 280 003a FFF7FEFF 		bl	__aeabi_idivmod
 281              	.LVL38:
 282 003e 0800     		movs	r0, r1
 283              	.LVL39:
 212:ui.c          **** 		// Format: x.xx
 284              		.loc 1 212 0
 285 0040 092F     		cmp	r7, #9
 286 0042 09DC     		bgt	.L17
 214:ui.c          **** 	} else if(whole < 100) {
 287              		.loc 1 214 0
 288 0044 0A21     		movs	r1, #10
 289 0046 FFF7FEFF 		bl	__aeabi_idiv
 290              	.LVL40:
 291 004a 0300     		movs	r3, r0
 292 004c 3A00     		movs	r2, r7
 293 004e 1A49     		ldr	r1, .L23+4
 294 0050 3000     		movs	r0, r6
 295 0052 FFF7FEFF 		bl	sprintf
 296              	.LVL41:
ARM GAS  C:\Users\VIDEOH~1\AppData\Local\Temp\ccM4oHTP.s 			page 15


 297 0056 10E0     		b	.L18
 298              	.LVL42:
 299              	.L17:
 215:ui.c          **** 		// Format: xx.x
 300              		.loc 1 215 0
 301 0058 632F     		cmp	r7, #99
 302 005a 09DC     		bgt	.L19
 217:ui.c          **** 	} else {
 303              		.loc 1 217 0
 304 005c 6421     		movs	r1, #100
 305 005e FFF7FEFF 		bl	__aeabi_idiv
 306              	.LVL43:
 307 0062 0300     		movs	r3, r0
 308 0064 3A00     		movs	r2, r7
 309 0066 1549     		ldr	r1, .L23+8
 310 0068 3000     		movs	r0, r6
 311 006a FFF7FEFF 		bl	sprintf
 312              	.LVL44:
 313 006e 04E0     		b	.L18
 314              	.LVL45:
 315              	.L19:
 220:ui.c          **** 	}
 316              		.loc 1 220 0
 317 0070 3A00     		movs	r2, r7
 318 0072 1349     		ldr	r1, .L23+12
 319 0074 3000     		movs	r0, r6
 320              	.LVL46:
 321 0076 FFF7FEFF 		bl	sprintf
 322              	.LVL47:
 323              	.L18:
 223:ui.c          **** 		strcat(out, "m");
 324              		.loc 1 223 0
 325 007a 012D     		cmp	r5, #1
 326 007c 0CD1     		bne	.L20
 224:ui.c          **** 		strcat(out, suffix);
 327              		.loc 1 224 0
 328 007e 3000     		movs	r0, r6
 329 0080 FFF7FEFF 		bl	strlen
 330              	.LVL48:
 331 0084 3018     		adds	r0, r6, r0
 332 0086 0222     		movs	r2, #2
 333 0088 0E49     		ldr	r1, .L23+16
 334 008a FFF7FEFF 		bl	memcpy
 335              	.LVL49:
 225:ui.c          **** 	} else {
 336              		.loc 1 225 0
 337 008e 0199     		ldr	r1, [sp, #4]
 338 0090 3000     		movs	r0, r6
 339 0092 FFF7FEFF 		bl	strcat
 340              	.LVL50:
 341 0096 0BE0     		b	.L13
 342              	.L20:
 227:ui.c          **** 		strcat(out, " ");
 343              		.loc 1 227 0
 344 0098 0199     		ldr	r1, [sp, #4]
 345 009a 3000     		movs	r0, r6
 346 009c FFF7FEFF 		bl	strcat
ARM GAS  C:\Users\VIDEOH~1\AppData\Local\Temp\ccM4oHTP.s 			page 16


 347              	.LVL51:
 228:ui.c          **** 	}
 348              		.loc 1 228 0
 349 00a0 3000     		movs	r0, r6
 350 00a2 FFF7FEFF 		bl	strlen
 351              	.LVL52:
 352 00a6 3018     		adds	r0, r6, r0
 353 00a8 0222     		movs	r2, #2
 354 00aa 0749     		ldr	r1, .L23+20
 355 00ac FFF7FEFF 		bl	memcpy
 356              	.LVL53:
 357              	.L13:
 230:ui.c          **** 
 358              		.loc 1 230 0
 359 00b0 03B0     		add	sp, sp, #12
 360              		@ sp needed
 361              	.LVL54:
 362              	.LVL55:
 363              	.LVL56:
 364              	.LVL57:
 365 00b2 F0BD     		pop	{r4, r5, r6, r7, pc}
 366              	.L24:
 367              		.align	2
 368              	.L23:
 369 00b4 3F420F00 		.word	999999
 370 00b8 14000000 		.word	.LC6
 371 00bc 20000000 		.word	.LC8
 372 00c0 2C000000 		.word	.LC10
 373 00c4 34000000 		.word	.LC12
 374 00c8 38000000 		.word	.LC14
 375              		.cfi_endproc
 376              	.LFE35:
 377              		.size	format_number, .-format_number
 378              		.section	.text.print_voltage,"ax",%progbits
 379              		.align	2
 380              		.global	print_voltage
 381              		.code	16
 382              		.thumb_func
 383              		.type	print_voltage, %function
 384              	print_voltage:
 385              	.LFB43:
 329:ui.c          **** 	format_number(get_voltage(), "V", buf);
 386              		.loc 1 329 0
 387              		.cfi_startproc
 388              		@ args = 0, pretend = 0, frame = 0
 389              		@ frame_needed = 0, uses_anonymous_args = 0
 390              	.LVL58:
 391 0000 10B5     		push	{r4, lr}
 392              		.cfi_def_cfa_offset 8
 393              		.cfi_offset 4, -8
 394              		.cfi_offset 14, -4
 395 0002 0400     		movs	r4, r0
 330:ui.c          **** }
 396              		.loc 1 330 0
 397 0004 FFF7FEFF 		bl	get_voltage
 398              	.LVL59:
 399 0008 2200     		movs	r2, r4
ARM GAS  C:\Users\VIDEOH~1\AppData\Local\Temp\ccM4oHTP.s 			page 17


 400 000a 0249     		ldr	r1, .L26
 401 000c FFF7FEFF 		bl	format_number
 402              	.LVL60:
 331:ui.c          **** 
 403              		.loc 1 331 0
 404              		@ sp needed
 405              	.LVL61:
 406 0010 10BD     		pop	{r4, pc}
 407              	.L27:
 408 0012 C046     		.align	2
 409              	.L26:
 410 0014 3C000000 		.word	.LC16
 411              		.cfi_endproc
 412              	.LFE43:
 413              		.size	print_voltage, .-print_voltage
 414              		.section	.text.upgrade,"ax",%progbits
 415              		.align	2
 416              		.code	16
 417              		.thumb_func
 418              		.type	upgrade, %function
 419              	upgrade:
 420              	.LFB65:
 478:ui.c          **** //Set the LCD contrast
 479:ui.c          **** static state_func set_contrast(const void *arg) {
 480:ui.c          **** 	Display_ClearAll();
 481:ui.c          **** 	Display_Clear(0, 2, 2, 160, 0xFF);
 482:ui.c          **** 	Display_DrawText(0, 32, "Contrast", 1);
 483:ui.c          **** 	Display_DrawText(6, 38, FONT_GLYPH_ENTER ": Done", 0);
 484:ui.c          **** 
 485:ui.c          **** 	// Left and right ends of the bar
 486:ui.c          **** 	Display_Clear(4, 15, 5, 16, 0xFF);
 487:ui.c          **** 	Display_Clear(4, 145, 5, 146, 0xFF);
 488:ui.c          **** 
 489:ui.c          **** 	int contrast = settings->lcd_contrast;
 490:ui.c          **** 	ui_event event;
 491:ui.c          **** 	while(1) {
 492:ui.c          **** 		Display_Clear(4, 16, 5, 16 + contrast * 2, 0xFF);
 493:ui.c          **** 		Display_Clear(4, 16 + contrast * 2, 5, 145, 0x81);
 494:ui.c          **** 
 495:ui.c          **** 		next_event(&event);
 496:ui.c          **** 		switch(event.type) {
 497:ui.c          **** 		case UI_EVENT_UPDOWN:
 498:ui.c          **** 			contrast += event.int_arg;
 499:ui.c          **** 			if(contrast > 0x3F) {
 500:ui.c          **** 				contrast = 0x3F;
 501:ui.c          **** 			} else if(contrast < 0) {
 502:ui.c          **** 				contrast = 0;
 503:ui.c          **** 			}
 504:ui.c          **** 			Display_SetContrast(contrast);
 505:ui.c          **** 			break;
 506:ui.c          **** 		case UI_EVENT_BUTTONPRESS:
 507:ui.c          **** 			if(event.int_arg == 1) {
 508:ui.c          **** 				EEPROM_Write((const int*)&settings-(const int*)&settings->lcd_contrast,(void*)&contrast, sizeof
 509:ui.c          **** 				return (state_func)STATE_MAIN;
 510:ui.c          **** 			}
 511:ui.c          **** 			break;
 512:ui.c          **** 		case UI_EVENT_LIMIT:
ARM GAS  C:\Users\VIDEOH~1\AppData\Local\Temp\ccM4oHTP.s 			page 18


 513:ui.c          **** 			return (state_func){overlimit, (void *)event.int_arg, 0};
 514:ui.c          **** 		default:
 515:ui.c          **** 			break;
 516:ui.c          **** 		}
 517:ui.c          **** 	}
 518:ui.c          **** }
 519:ui.c          **** 
 520:ui.c          **** static state_func ui_set_min_voltage(const void *arg) {
 521:ui.c          ****     Display_ClearAll();
 522:ui.c          **** 	Display_Clear(0, 2, 2, 160, 0xFF);
 523:ui.c          **** 	Display_DrawText(0, 20, "Min Voltage", 1);
 524:ui.c          **** 
 525:ui.c          ****     ui_event event;
 526:ui.c          ****     uint8_t on = state.lower_voltage_limit != -1;
 527:ui.c          ****     int vlim = on?state.lower_voltage_limit:get_voltage();
 528:ui.c          ****     vlim -= vlim % 100000;
 529:ui.c          ****     uint8_t stage = 0;
 530:ui.c          ****     char buf[8];
 531:ui.c          **** 
 532:ui.c          ****     while(stage == 0) {
 533:ui.c          ****         Display_DrawText(4, 30, "ON", on);
 534:ui.c          ****         Display_DrawText(4, 90, "OFF", !on);
 535:ui.c          ****         format_number(vlim, "V", buf);
 536:ui.c          ****         Display_DrawText(6, 48, buf, 0);
 537:ui.c          **** 
 538:ui.c          ****         next_event(&event);
 539:ui.c          ****         switch(event.type) {
 540:ui.c          ****         case UI_EVENT_UPDOWN:
 541:ui.c          ****             on ^= event.int_arg & 1;
 542:ui.c          ****             break;
 543:ui.c          ****         case UI_EVENT_BUTTONPRESS:
 544:ui.c          ****             if(event.int_arg != 1)
 545:ui.c          ****                 break;
 546:ui.c          ****             if(on) {
 547:ui.c          ****                 stage = 1;
 548:ui.c          ****             } else {
 549:ui.c          ****                 state.lower_voltage_limit = -1;
 550:ui.c          ****                 return (state_func)STATE_MAIN;
 551:ui.c          ****             }
 552:ui.c          ****             break;
 553:ui.c          ****         case UI_EVENT_LIMIT:
 554:ui.c          ****             return (state_func){overlimit, (void *)event.int_arg, 0};
 555:ui.c          ****         default:
 556:ui.c          ****             break;
 557:ui.c          ****         }
 558:ui.c          ****     }
 559:ui.c          **** 
 560:ui.c          ****     while(1) {
 561:ui.c          ****         format_number(vlim, "V", buf);
 562:ui.c          ****         buf[strlen(buf) - 1] = '\0';
 563:ui.c          ****         Display_DrawText(6, 48, buf, 1);
 564:ui.c          **** 
 565:ui.c          ****         next_event(&event);
 566:ui.c          ****         switch(event.type) {
 567:ui.c          ****         case UI_EVENT_UPDOWN:
 568:ui.c          ****             vlim += 100000 * event.int_arg;
 569:ui.c          ****             break;
ARM GAS  C:\Users\VIDEOH~1\AppData\Local\Temp\ccM4oHTP.s 			page 19


 570:ui.c          ****         case UI_EVENT_BUTTONPRESS:
 571:ui.c          ****             if(event.int_arg != 1)
 572:ui.c          ****                 break;
 573:ui.c          ****             state.lower_voltage_limit = vlim;
 574:ui.c          ****             return (state_func)STATE_MAIN;
 575:ui.c          ****         case UI_EVENT_LIMIT:
 576:ui.c          ****             return (state_func){overlimit, (void *)event.int_arg, 0};
 577:ui.c          ****         default:
 578:ui.c          ****             break;
 579:ui.c          ****         }
 580:ui.c          ****     }
 581:ui.c          **** }
 582:ui.c          **** 
 583:ui.c          **** static state_func overlimit(const void *arg) {
 584:ui.c          **** 	Display_Clear(0, 0, 8, 160, 0xFF);
 585:ui.c          ****     switch((limit_type)arg) {
 586:ui.c          ****     case LIMIT_TYPE_OVERTEMP:
 587:ui.c          ****     	Display_DrawText(2, 6, "! OVERTEMP !", 1);
 588:ui.c          ****         break;
 589:ui.c          ****     case LIMIT_TYPE_UNDERVOLT:
 590:ui.c          ****         Display_DrawText(2, 0, "! UNDERVOLT !", 1);
 591:ui.c          ****         break;
 592:ui.c          ****     }
 593:ui.c          **** 	Display_DrawText(6, 32, FONT_GLYPH_ENTER ": Reset", 1);
 594:ui.c          **** 
 595:ui.c          **** 	ui_event event;
 596:ui.c          **** 	event.type = UI_EVENT_NONE;
 597:ui.c          **** 	while(event.type != UI_EVENT_BUTTONPRESS || event.int_arg != 1) {
 598:ui.c          **** 		next_event(&event);
 599:ui.c          **** 		if(get_output_mode() == OUTPUT_MODE_FEEDBACK)
 600:ui.c          **** 			return (state_func)STATE_MAIN;
 601:ui.c          **** 	}
 602:ui.c          **** 
 603:ui.c          **** 	set_current(0);
 604:ui.c          **** 	set_output_mode(OUTPUT_MODE_FEEDBACK);
 605:ui.c          **** 	return (state_func)STATE_MAIN;
 606:ui.c          **** }
 607:ui.c          **** 
 608:ui.c          **** static state_func menu(const void *arg) {
 609:ui.c          **** 	const menudata *menu = (const menudata *)arg;
 610:ui.c          **** 
 611:ui.c          **** 	Display_ClearAll();
 612:ui.c          **** 
 613:ui.c          **** 	int selected = 0;
 614:ui.c          **** 	ui_event event;
 615:ui.c          **** 	event.type = UI_EVENT_NONE;
 616:ui.c          **** 	while(event.type != UI_EVENT_BUTTONPRESS || event.int_arg != 1) {
 617:ui.c          **** 		draw_menu(menu, selected);
 618:ui.c          **** 		next_event(&event);
 619:ui.c          **** 		switch(event.type) {
 620:ui.c          **** 		case UI_EVENT_UPDOWN:
 621:ui.c          **** 			if(event.int_arg < 0) {
 622:ui.c          **** 				// Move up the menu
 623:ui.c          **** 				if(selected + event.int_arg >= 0) {
 624:ui.c          **** 					selected += event.int_arg;
 625:ui.c          **** 				} else {
 626:ui.c          **** 					selected = 0;
ARM GAS  C:\Users\VIDEOH~1\AppData\Local\Temp\ccM4oHTP.s 			page 20


 627:ui.c          **** 				}
 628:ui.c          **** 			} else {
 629:ui.c          **** 				// Move down the menu (but not past the end)
 630:ui.c          **** 				for(int i = 0; i < event.int_arg; i++) {
 631:ui.c          **** 					if(menu->items[selected + 1].caption == NULL)
 632:ui.c          **** 						break;
 633:ui.c          **** 					selected++;
 634:ui.c          **** 				}
 635:ui.c          **** 			}
 636:ui.c          **** 			break;
 637:ui.c          **** 		case UI_EVENT_LIMIT:
 638:ui.c          **** 			return (state_func){overlimit, (void *)event.int_arg, 0};
 639:ui.c          **** 		default:
 640:ui.c          **** 			break;
 641:ui.c          **** 		}
 642:ui.c          **** 	}
 643:ui.c          **** 
 644:ui.c          **** 	return menu->items[selected].new_state;
 645:ui.c          **** }
 646:ui.c          **** 
 647:ui.c          **** 
 648:ui.c          **** static state_func cc_load(const void *arg) {
 649:ui.c          **** 	static portTickType last_adjust_current_setpoint = 0;
 650:ui.c          **** 
 651:ui.c          **** 	Display_ClearAll();
 652:ui.c          **** 
 653:ui.c          **** 	ui_event event;
 654:ui.c          **** 	while(1) {
 655:ui.c          **** 		next_event(&event);
 656:ui.c          **** 		switch(event.type) {
 657:ui.c          **** 		case UI_EVENT_BUTTONPRESS:
 658:ui.c          **** 			if(event.int_arg == 1)
 659:ui.c          **** 				return (state_func)STATE_MAIN_MENU;
 660:ui.c          ****             break;
 661:ui.c          ****         case UI_EVENT_LONG_BUTTONPRESS:
 662:ui.c          ****             if(get_output_mode() != OUTPUT_MODE_FEEDBACK) {
 663:ui.c          ****                 set_output_mode(OUTPUT_MODE_FEEDBACK);
 664:ui.c          ****             } else {
 665:ui.c          ****                 set_output_mode(OUTPUT_MODE_OFF);
 666:ui.c          ****             }
 667:ui.c          ****             break;
 668:ui.c          **** 		case UI_EVENT_UPDOWN:
 669:ui.c          **** 			last_adjust_current_setpoint = xTaskGetTickCount();
 670:ui.c          **** 			adjust_current_setpoint(event.int_arg, event.duration);
 671:ui.c          **** 			break;
 672:ui.c          **** 		case UI_EVENT_LIMIT:
 673:ui.c          **** 			return (state_func){overlimit, (void *)event.int_arg, 0};
 674:ui.c          **** 		default:
 675:ui.c          **** 			break;
 676:ui.c          **** 		}
 677:ui.c          **** 		draw_status(&settings->display_settings.named.cc, (xTaskGetTickCount() - last_adjust_current_setp
 678:ui.c          **** 		//CyDelay(200);
 679:ui.c          **** 	}
 680:ui.c          **** }
 681:ui.c          **** 
 682:ui.c          **** #define CALIBRATION_CURRENT 2000000
 683:ui.c          **** 
ARM GAS  C:\Users\VIDEOH~1\AppData\Local\Temp\ccM4oHTP.s 			page 21


 684:ui.c          **** // Calibrates the ADC voltage and current offsets.
 685:ui.c          **** // Run with nothing attached to the terminals.
 686:ui.c          **** static void ui_calibrate_offsets(settings_t *new_settings) {
 687:ui.c          ****     state.calibrating = 1;
 688:ui.c          **** 
 689:ui.c          ****     IDAC_Low_SetValue(0);
 690:ui.c          ****     IDAC_High_SetValue(0);
 691:ui.c          **** 
 692:ui.c          **** 	Display_DrawText(2, 0, " Remove Leads", 1);
 693:ui.c          **** 	Display_DrawText(6, 38, FONT_GLYPH_ENTER ": Next", 0);
 694:ui.c          **** 
 695:ui.c          **** 	// Wait for a button press
 696:ui.c          **** 	ui_event event;
 697:ui.c          **** 	event.type = UI_EVENT_NONE;
 698:ui.c          **** 	while(event.type != UI_EVENT_BUTTONPRESS || event.int_arg != 1)
 699:ui.c          **** 		next_event(&event);
 700:ui.c          **** 
 701:ui.c          **** 	calibrate_offsets(new_settings);
 702:ui.c          ****     state.calibrating = 0;
 703:ui.c          **** }
 704:ui.c          **** 
 705:ui.c          **** // Calibrate the ADC voltage gain.
 706:ui.c          **** // Run with a known voltage across the terminals
 707:ui.c          **** static void ui_calibrate_voltage(settings_t *new_settings) {
 708:ui.c          ****     state.calibrating = 1;
 709:ui.c          **** 
 710:ui.c          ****     IDAC_Low_SetValue(0);
 711:ui.c          ****     IDAC_High_SetValue(0);
 712:ui.c          **** 
 713:ui.c          **** 	Display_DrawText(2, 0, " Adj. voltage", 1);
 714:ui.c          **** 
 715:ui.c          **** 	ui_event event;
 716:ui.c          **** 	char buf[16];
 717:ui.c          **** 	event.type = UI_EVENT_NONE;
 718:ui.c          **** 	while(event.type != UI_EVENT_BUTTONPRESS || event.int_arg != 1) {
 719:ui.c          **** 		next_event(&event);
 720:ui.c          **** 
 721:ui.c          **** 		int voltage = (get_raw_voltage() - new_settings->calibration_settings.adc_voltage_offset) * new_s
 722:ui.c          **** 		format_number_simple(voltage, "V", buf);
 723:ui.c          **** 		strcat(buf, " ");
 724:ui.c          **** 		Display_DrawText(4, 43, buf, 0);
 725:ui.c          **** 
 726:ui.c          **** 		switch(event.type) {
 727:ui.c          **** 		case UI_EVENT_UPDOWN:
 728:ui.c          **** 			new_settings->calibration_settings.adc_voltage_gain += event.int_arg;
 729:ui.c          **** 			break;
 730:ui.c          **** 		default:
 731:ui.c          **** 			break;
 732:ui.c          **** 		}
 733:ui.c          **** 	}
 734:ui.c          ****     state.calibrating = 0;
 735:ui.c          **** }
 736:ui.c          **** 
 737:ui.c          **** static void ui_calibrate_current(settings_t *new_settings) {
 738:ui.c          ****     state.calibrating = 1;
 739:ui.c          **** 
 740:ui.c          ****     IDAC_Low_SetValue(0);
ARM GAS  C:\Users\VIDEOH~1\AppData\Local\Temp\ccM4oHTP.s 			page 22


 741:ui.c          ****     IDAC_High_SetValue((CALIBRATION_CURRENT - new_settings->calibration_settings.dac_offset) / new_
 742:ui.c          **** 
 743:ui.c          ****     Display_Clear(4, 0, 8, 160, 0);
 744:ui.c          **** 	Display_DrawText(2, 0, " Adj. Current", 1);
 745:ui.c          **** 	Display_DrawText(6, 38, FONT_GLYPH_ENTER ": Next", 0);
 746:ui.c          **** 
 747:ui.c          **** 	ui_event event;
 748:ui.c          **** 	char buf[16];
 749:ui.c          **** 	int current;
 750:ui.c          **** 
 751:ui.c          **** 	event.type = UI_EVENT_NONE;
 752:ui.c          **** 	while(event.type != UI_EVENT_BUTTONPRESS || event.int_arg != 1) {
 753:ui.c          **** 		next_event(&event);
 754:ui.c          **** 
 755:ui.c          **** 		current = (get_raw_current_usage() - new_settings->calibration_settings.adc_current_offset) * new
 756:ui.c          **** 		format_number_simple(current, "A", buf);
 757:ui.c          **** 		strcat(buf, " ");
 758:ui.c          **** 		Display_DrawText(4, 43, buf, 0);
 759:ui.c          **** 
 760:ui.c          **** 		switch(event.type) {
 761:ui.c          **** 		case UI_EVENT_UPDOWN:
 762:ui.c          **** 			new_settings->calibration_settings.adc_current_gain += event.int_arg;
 763:ui.c          **** 			break;
 764:ui.c          **** 		default:
 765:ui.c          **** 			break;
 766:ui.c          **** 		}
 767:ui.c          **** 	}
 768:ui.c          ****     state.calibrating = 0;
 769:ui.c          **** }
 770:ui.c          **** 
 771:ui.c          **** static void ui_calibrate_voltage_correction(settings_t *new_settings) {
 772:ui.c          **** 	state.calibrating = 1;
 773:ui.c          **** 
 774:ui.c          **** 	IDAC_Low_SetValue(0);
 775:ui.c          **** 	IDAC_High_SetValue((CALIBRATION_CURRENT - new_settings->calibration_settings.dac_offset) / new_set
 776:ui.c          **** 
 777:ui.c          **** 	Display_Clear(4, 0, 8, 160, 0);
 778:ui.c          **** 	Display_DrawText(2, 0, " Adj. voltage", 1);
 779:ui.c          **** 	Display_DrawText(6, 38, FONT_GLYPH_ENTER ": Next", 0);
 780:ui.c          **** 
 781:ui.c          **** 	ui_event event;
 782:ui.c          **** 	char buf[16];
 783:ui.c          **** 	int current, voltage;
 784:ui.c          **** 
 785:ui.c          **** 	event.type = UI_EVENT_NONE;
 786:ui.c          **** 	while(event.type != UI_EVENT_BUTTONPRESS || event.int_arg != 1) {
 787:ui.c          **** 		next_event(&event);
 788:ui.c          **** 
 789:ui.c          **** 		current = (get_raw_current_usage() - new_settings->calibration_settings.adc_current_offset) * new
 790:ui.c          **** 		voltage = (get_raw_voltage() - new_settings->calibration_settings.adc_voltage_offset) * new_setti
 791:ui.c          **** 		voltage += (current / 1024) * new_settings->calibration_settings.voltage_correction_ratio;
 792:ui.c          **** 		format_number_simple(voltage, "V", buf);
 793:ui.c          **** 		strcat(buf, " ");
 794:ui.c          **** 		Display_DrawText(4, 43, buf, 0);
 795:ui.c          **** 
 796:ui.c          **** 		switch(event.type) {
 797:ui.c          **** 		case UI_EVENT_UPDOWN:
ARM GAS  C:\Users\VIDEOH~1\AppData\Local\Temp\ccM4oHTP.s 			page 23


 798:ui.c          **** 			new_settings->calibration_settings.voltage_correction_ratio += event.int_arg;
 799:ui.c          **** 			break;
 800:ui.c          **** 		default:
 801:ui.c          **** 			break;
 802:ui.c          **** 		}
 803:ui.c          **** 	}
 804:ui.c          **** 	state.calibrating = 0;
 805:ui.c          **** }
 806:ui.c          **** 
 807:ui.c          **** // Calibrates the opamp and current DAC offsets.
 808:ui.c          **** // Run with a voltage source attached
 809:ui.c          **** 
 810:ui.c          **** void ui_calibration_progress(int current, int all) {
 811:ui.c          **** 	Display_Clear(6, 16, 7, 16 + 129 * current / all, 0xFF);
 812:ui.c          **** }
 813:ui.c          **** 
 814:ui.c          **** static void ui_calibrate_dacs(settings_t *new_settings) {
 815:ui.c          **** 	Display_Clear(2, 0, 8, 160, 0);
 816:ui.c          **** 	Display_DrawText(3, 14, "Please wait", 0);
 817:ui.c          **** 
 818:ui.c          ****     // Draw a progress bar
 819:ui.c          ****     Display_Clear(6, 15, 7, 16, 0xFF);
 820:ui.c          **** 	Display_Clear(6, 145, 7, 146, 0xFF);
 821:ui.c          ****     Display_Clear(6, 16, 7, 145, 0x81);
 822:ui.c          ****     calibrate_opamp_offset_trim(new_settings, CALIBRATION_CURRENT,ui_calibration_progress);
 823:ui.c          **** 	calibrate_dacs(new_settings, CALIBRATION_CURRENT);
 824:ui.c          **** }
 825:ui.c          **** 
 826:ui.c          **** static state_func ui_calibrate(const void *arg) {
 827:ui.c          **** 	set_current(0);
 828:ui.c          **** 	set_output_mode(OUTPUT_MODE_FEEDBACK);
 829:ui.c          **** 
 830:ui.c          **** 	settings_t new_settings;
 831:ui.c          **** 	memcpy(&new_settings, settings, sizeof(settings_t));
 832:ui.c          **** 	memcpy(&new_settings.calibration_settings, &default_settings.calibration_settings, sizeof(calibrat
 833:ui.c          **** 
 834:ui.c          **** 	Display_ClearAll();
 835:ui.c          **** 	Display_DrawText(0, 0, " CALIBRATION ", 1);
 836:ui.c          **** 
 837:ui.c          **** 	ui_calibrate_offsets(&new_settings);
 838:ui.c          **** 	ui_calibrate_voltage(&new_settings);
 839:ui.c          **** 	ui_calibrate_current(&new_settings);
 840:ui.c          **** 	ui_calibrate_voltage_correction(&new_settings);
 841:ui.c          **** 	ui_calibrate_dacs(&new_settings);
 842:ui.c          **** 
 843:ui.c          **** 	EEPROM_Write(0,(uint8*)&new_settings, sizeof(settings_t));
 844:ui.c          **** 
 845:ui.c          **** 	return (state_func){NULL, NULL, 0};
 846:ui.c          **** }
 847:ui.c          **** 
 848:ui.c          **** static state_func upgrade(const void *arg) {
 421              		.loc 1 848 0
 422              		.cfi_startproc
 423              		@ args = 0, pretend = 0, frame = 0
 424              		@ frame_needed = 0, uses_anonymous_args = 0
 425              	.LVL62:
 426 0000 10B5     		push	{r4, lr}
ARM GAS  C:\Users\VIDEOH~1\AppData\Local\Temp\ccM4oHTP.s 			page 24


 427              		.cfi_def_cfa_offset 8
 428              		.cfi_offset 4, -8
 429              		.cfi_offset 14, -4
 430 0002 0400     		movs	r4, r0
 849:ui.c          **** #ifdef Bootloadable_START_BTLDR
 850:ui.c          ****     Display_ClearAll();
 431              		.loc 1 850 0
 432 0004 FFF7FEFF 		bl	Display_ClearAll
 433              	.LVL63:
 851:ui.c          ****     Display_DrawText(0, 0, "UPGRADE MODE ", 1);
 434              		.loc 1 851 0
 435 0008 0123     		movs	r3, #1
 436 000a 0C4A     		ldr	r2, .L29
 437 000c 0021     		movs	r1, #0
 438 000e 0020     		movs	r0, #0
 439 0010 FFF7FEFF 		bl	Display_DrawText
 440              	.LVL64:
 852:ui.c          ****     Display_DrawText(4, 0, "Ready to recv", 0);
 441              		.loc 1 852 0
 442 0014 0023     		movs	r3, #0
 443 0016 0A4A     		ldr	r2, .L29+4
 444 0018 0021     		movs	r1, #0
 445 001a 0420     		movs	r0, #4
 446 001c FFF7FEFF 		bl	Display_DrawText
 447              	.LVL65:
 853:ui.c          ****     Display_DrawText(6, 0, " f/w update  ", 0);
 448              		.loc 1 853 0
 449 0020 0023     		movs	r3, #0
 450 0022 084A     		ldr	r2, .L29+8
 451 0024 0021     		movs	r1, #0
 452 0026 0620     		movs	r0, #6
 453 0028 FFF7FEFF 		bl	Display_DrawText
 454              	.LVL66:
 854:ui.c          ****     Bootloadable_Load();  // Never returns...
 455              		.loc 1 854 0
 456 002c FFF7FEFF 		bl	Bootloadable_Load
 457              	.LVL67:
 855:ui.c          **** #endif
 856:ui.c          ****     return (state_func){NULL, NULL, 0}; // ...yet, we should make compiler happy
 458              		.loc 1 856 0
 459 0030 0023     		movs	r3, #0
 460 0032 2360     		str	r3, [r4]
 461 0034 6360     		str	r3, [r4, #4]
 462 0036 2372     		strb	r3, [r4, #8]
 857:ui.c          **** }
 463              		.loc 1 857 0
 464 0038 2000     		movs	r0, r4
 465              		@ sp needed
 466              	.LVL68:
 467 003a 10BD     		pop	{r4, pc}
 468              	.L30:
 469              		.align	2
 470              	.L29:
 471 003c 40000000 		.word	.LC18
 472 0040 50000000 		.word	.LC20
 473 0044 60000000 		.word	.LC22
 474              		.cfi_endproc
ARM GAS  C:\Users\VIDEOH~1\AppData\Local\Temp\ccM4oHTP.s 			page 25


 475              	.LFE65:
 476              		.size	upgrade, .-upgrade
 477              		.section	.text.next_event,"ax",%progbits
 478              		.align	2
 479              		.code	16
 480              		.thumb_func
 481              		.type	next_event, %function
 482              	next_event:
 483              	.LFB38:
 248:ui.c          **** 	static portTickType last_tick = 0;
 484              		.loc 1 248 0
 485              		.cfi_startproc
 486              		@ args = 0, pretend = 0, frame = 16
 487              		@ frame_needed = 0, uses_anonymous_args = 0
 488              	.LVL69:
 489 0000 30B5     		push	{r4, r5, lr}
 490              		.cfi_def_cfa_offset 12
 491              		.cfi_offset 4, -12
 492              		.cfi_offset 5, -8
 493              		.cfi_offset 14, -4
 494 0002 85B0     		sub	sp, sp, #20
 495              		.cfi_def_cfa_offset 32
 496 0004 0500     		movs	r5, r0
 252:ui.c          **** 
 497              		.loc 1 252 0
 498 0006 FFF7FEFF 		bl	xTaskGetTickCount
 499              	.LVL70:
 500 000a 0400     		movs	r4, r0
 501              	.LVL71:
 254:ui.c          ****         event->type = UI_EVENT_LONG_BUTTONPRESS;
 502              		.loc 1 254 0
 503 000c 214B     		ldr	r3, .L37
 504 000e 1B68     		ldr	r3, [r3]
 505 0010 9842     		cmp	r0, r3
 506 0012 0CD9     		bls	.L32
 254:ui.c          ****         event->type = UI_EVENT_LONG_BUTTONPRESS;
 507              		.loc 1 254 0 is_stmt 0 discriminator 1
 508 0014 204B     		ldr	r3, .L37+4
 509 0016 1B78     		ldrb	r3, [r3]
 510 0018 002B     		cmp	r3, #0
 511 001a 08D1     		bne	.L32
 255:ui.c          ****         event->when = now;
 512              		.loc 1 255 0 is_stmt 1
 513 001c 0233     		adds	r3, r3, #2
 514 001e 2B70     		strb	r3, [r5]
 256:ui.c          ****         event->int_arg = 0;
 515              		.loc 1 256 0
 516 0020 E860     		str	r0, [r5, #12]
 257:ui.c          ****         long_press_sent = 1;
 517              		.loc 1 257 0
 518 0022 0023     		movs	r3, #0
 519 0024 6B60     		str	r3, [r5, #4]
 258:ui.c          ****     } else if(now - last_tick >  configTICK_RATE_HZ / UI_TASK_FREQUENCY
 520              		.loc 1 258 0
 521 0026 0122     		movs	r2, #1
 522 0028 1B4B     		ldr	r3, .L37+4
 523 002a 1A70     		strb	r2, [r3]
ARM GAS  C:\Users\VIDEOH~1\AppData\Local\Temp\ccM4oHTP.s 			page 26


 524 002c 2FE0     		b	.L31
 525              	.L32:
 259:ui.c          ****         || !xQueueReceive(ui_queue, event, configTICK_RATE_HZ / UI_TASK_FREQUENCY - (now - last_tic
 526              		.loc 1 259 0
 527 002e 1A4B     		ldr	r3, .L37+4
 528 0030 5A68     		ldr	r2, [r3, #4]
 529 0032 A31A     		subs	r3, r4, r2
 530 0034 322B     		cmp	r3, #50
 531 0036 09D8     		bhi	.L34
 260:ui.c          **** 		event->type = UI_EVENT_TICK;
 532              		.loc 1 260 0
 533 0038 121B     		subs	r2, r2, r4
 534 003a 3232     		adds	r2, r2, #50
 535 003c 174B     		ldr	r3, .L37+8
 536 003e 1868     		ldr	r0, [r3]
 537              	.LVL72:
 538 0040 0023     		movs	r3, #0
 539 0042 2900     		movs	r1, r5
 540 0044 FFF7FEFF 		bl	xQueueGenericReceive
 541              	.LVL73:
 542 0048 0028     		cmp	r0, #0
 543 004a 08D1     		bne	.L35
 544              	.L34:
 261:ui.c          **** 		event->when = now;
 545              		.loc 1 261 0
 546 004c 0423     		movs	r3, #4
 547 004e 2B70     		strb	r3, [r5]
 262:ui.c          **** 		last_tick = now;
 548              		.loc 1 262 0
 549 0050 EC60     		str	r4, [r5, #12]
 263:ui.c          **** #ifdef USE_WATCHDOG
 550              		.loc 1 263 0
 551 0052 114B     		ldr	r3, .L37+4
 552 0054 5C60     		str	r4, [r3, #4]
 265:ui.c          **** #endif
 553              		.loc 1 265 0
 554 0056 0820     		movs	r0, #8
 555 0058 FFF7FEFF 		bl	CySysWdtResetCounters
 556              	.LVL74:
 557 005c 17E0     		b	.L31
 558              	.L35:
 267:ui.c          ****         // Bootloading overrides everything
 559              		.loc 1 267 0
 560 005e 2B78     		ldrb	r3, [r5]
 561 0060 062B     		cmp	r3, #6
 562 0062 04D1     		bne	.L36
 269:ui.c          ****     } else if(event->type == UI_EVENT_BUTTONPRESS && long_press_sent) {
 563              		.loc 1 269 0
 564 0064 0021     		movs	r1, #0
 565 0066 6846     		mov	r0, sp
 566 0068 FFF7FEFF 		bl	upgrade
 567              	.LVL75:
 568 006c 0FE0     		b	.L31
 569              	.L36:
 270:ui.c          ****         long_press_sent = 0;
 570              		.loc 1 270 0
 571 006e 012B     		cmp	r3, #1
ARM GAS  C:\Users\VIDEOH~1\AppData\Local\Temp\ccM4oHTP.s 			page 27


 572 0070 0DD1     		bne	.L31
 270:ui.c          ****         long_press_sent = 0;
 573              		.loc 1 270 0 is_stmt 0 discriminator 1
 574 0072 094B     		ldr	r3, .L37+4
 575 0074 1B78     		ldrb	r3, [r3]
 576 0076 002B     		cmp	r3, #0
 577 0078 09D0     		beq	.L31
 271:ui.c          **** 		event->type = UI_EVENT_TICK;
 578              		.loc 1 271 0 is_stmt 1
 579 007a 074B     		ldr	r3, .L37+4
 580 007c 0022     		movs	r2, #0
 581 007e 1A70     		strb	r2, [r3]
 272:ui.c          **** 		event->when = now;
 582              		.loc 1 272 0
 583 0080 0432     		adds	r2, r2, #4
 584 0082 2A70     		strb	r2, [r5]
 273:ui.c          **** 		last_tick = now;
 585              		.loc 1 273 0
 586 0084 EC60     		str	r4, [r5, #12]
 274:ui.c          **** #ifdef USE_WATCHDOG
 587              		.loc 1 274 0
 588 0086 5C60     		str	r4, [r3, #4]
 276:ui.c          **** #endif
 589              		.loc 1 276 0
 590 0088 0820     		movs	r0, #8
 591 008a FFF7FEFF 		bl	CySysWdtResetCounters
 592              	.LVL76:
 593              	.L31:
 279:ui.c          **** 
 594              		.loc 1 279 0
 595 008e 05B0     		add	sp, sp, #20
 596              		@ sp needed
 597              	.LVL77:
 598              	.LVL78:
 599 0090 30BD     		pop	{r4, r5, pc}
 600              	.L38:
 601 0092 C046     		.align	2
 602              	.L37:
 603 0094 00000000 		.word	.LANCHOR0
 604 0098 00000000 		.word	.LANCHOR1
 605 009c 00000000 		.word	ui_queue
 606              		.cfi_endproc
 607              	.LFE38:
 608              		.size	next_event, .-next_event
 609              		.global	__aeabi_uidiv
 610              		.section	.text.measure_Battery_ISR,"ax",%progbits
 611              		.align	2
 612              		.code	16
 613              		.thumb_func
 614              		.type	measure_Battery_ISR, %function
 615              	measure_Battery_ISR:
 616              	.LFB51:
 436:ui.c          ****      Display_ClearAll();
 617              		.loc 1 436 0
 618              		.cfi_startproc
 619              		@ args = 0, pretend = 0, frame = 32
 620              		@ frame_needed = 0, uses_anonymous_args = 0
ARM GAS  C:\Users\VIDEOH~1\AppData\Local\Temp\ccM4oHTP.s 			page 28


 621 0000 30B5     		push	{r4, r5, lr}
 622              		.cfi_def_cfa_offset 12
 623              		.cfi_offset 4, -12
 624              		.cfi_offset 5, -8
 625              		.cfi_offset 14, -4
 626 0002 89B0     		sub	sp, sp, #36
 627              		.cfi_def_cfa_offset 48
 437:ui.c          ****     Display_DrawText(0, 0, "Battery ISR", 1);
 628              		.loc 1 437 0
 629 0004 FFF7FEFF 		bl	Display_ClearAll
 630              	.LVL79:
 438:ui.c          ****     //This is based roughly on what i can find of the  IEC 61951-1:2005 online
 631              		.loc 1 438 0
 632 0008 0123     		movs	r3, #1
 633 000a 244A     		ldr	r2, .L42
 634 000c 0021     		movs	r1, #0
 635 000e 0020     		movs	r0, #0
 636 0010 FFF7FEFF 		bl	Display_DrawText
 637              	.LVL80:
 442:ui.c          ****     set_current(100000);//100mA
 638              		.loc 1 442 0
 639 0014 0023     		movs	r3, #0
 640 0016 224A     		ldr	r2, .L42+4
 641 0018 0021     		movs	r1, #0
 642 001a 0220     		movs	r0, #2
 643 001c FFF7FEFF 		bl	Display_DrawText
 644              	.LVL81:
 443:ui.c          ****     delayWithWatchDog(10);//light load for 10 seconds
 645              		.loc 1 443 0
 646 0020 2048     		ldr	r0, .L42+8
 647 0022 FFF7FEFF 		bl	set_current
 648              	.LVL82:
 444:ui.c          ****     uint32_t halfLoadVoltage = get_voltage()*10; //measure in the middle (in 10x vuV)
 649              		.loc 1 444 0
 650 0026 0A20     		movs	r0, #10
 651 0028 FFF7FEFF 		bl	delayWithWatchDog
 652              	.LVL83:
 445:ui.c          ****     Display_DrawText(4, 0, "Full Load", 0);
 653              		.loc 1 445 0
 654 002c FFF7FEFF 		bl	get_voltage
 655              	.LVL84:
 656 0030 8300     		lsls	r3, r0, #2
 657 0032 1818     		adds	r0, r3, r0
 658 0034 4400     		lsls	r4, r0, #1
 659              	.LVL85:
 446:ui.c          ****     set_current(1000000);//1A
 660              		.loc 1 446 0
 661 0036 0023     		movs	r3, #0
 662 0038 1B4A     		ldr	r2, .L42+12
 663 003a 0021     		movs	r1, #0
 664 003c 0420     		movs	r0, #4
 665 003e FFF7FEFF 		bl	Display_DrawText
 666              	.LVL86:
 447:ui.c          ****     delayWithWatchDog(3);//full load for 3 seconds
 667              		.loc 1 447 0
 668 0042 1A48     		ldr	r0, .L42+16
 669 0044 FFF7FEFF 		bl	set_current
ARM GAS  C:\Users\VIDEOH~1\AppData\Local\Temp\ccM4oHTP.s 			page 29


 670              	.LVL87:
 448:ui.c          ****     uint32_t fullLoadVoltage = get_voltage()*10;
 671              		.loc 1 448 0
 672 0048 0320     		movs	r0, #3
 673 004a FFF7FEFF 		bl	delayWithWatchDog
 674              	.LVL88:
 449:ui.c          ****     set_current(0);//stop pulling current
 675              		.loc 1 449 0
 676 004e FFF7FEFF 		bl	get_voltage
 677              	.LVL89:
 678 0052 8300     		lsls	r3, r0, #2
 679 0054 1818     		adds	r0, r3, r0
 680 0056 4500     		lsls	r5, r0, #1
 681              	.LVL90:
 450:ui.c          ****     //Test done
 682              		.loc 1 450 0
 683 0058 0020     		movs	r0, #0
 684 005a FFF7FEFF 		bl	set_current
 685              	.LVL91:
 455:ui.c          ****     //would be divide by 900*100, but we want to shift into milli ohms by 1000*1000
 686              		.loc 1 455 0
 687 005e 601B     		subs	r0, r4, r5
 688 0060 0921     		movs	r1, #9
 689 0062 FFF7FEFF 		bl	__aeabi_uidiv
 690              	.LVL92:
 463:ui.c          ****     Display_DrawText(6, 0, buf, 0);
 691              		.loc 1 463 0
 692 0066 04AA     		add	r2, sp, #16
 693 0068 1149     		ldr	r1, .L42+20
 694 006a FFF7FEFF 		bl	format_number
 695              	.LVL93:
 464:ui.c          ****     //wait for user to acknowledge
 696              		.loc 1 464 0
 697 006e 0023     		movs	r3, #0
 698 0070 04AA     		add	r2, sp, #16
 699 0072 0021     		movs	r1, #0
 700 0074 0620     		movs	r0, #6
 701 0076 FFF7FEFF 		bl	Display_DrawText
 702              	.LVL94:
 467:ui.c          **** 	while(event.type != UI_EVENT_BUTTONPRESS || event.int_arg != 1) {
 703              		.loc 1 467 0
 704 007a 0023     		movs	r3, #0
 705 007c 6A46     		mov	r2, sp
 706 007e 1370     		strb	r3, [r2]
 468:ui.c          **** 		next_event(&event);
 707              		.loc 1 468 0
 708 0080 02E0     		b	.L40
 709              	.L41:
 469:ui.c          **** 	}
 710              		.loc 1 469 0
 711 0082 6846     		mov	r0, sp
 712 0084 FFF7FEFF 		bl	next_event
 713              	.LVL95:
 714              	.L40:
 468:ui.c          **** 		next_event(&event);
 715              		.loc 1 468 0
 716 0088 6B46     		mov	r3, sp
ARM GAS  C:\Users\VIDEOH~1\AppData\Local\Temp\ccM4oHTP.s 			page 30


 717 008a 1B78     		ldrb	r3, [r3]
 718 008c 012B     		cmp	r3, #1
 719 008e F8D1     		bne	.L41
 468:ui.c          **** 		next_event(&event);
 720              		.loc 1 468 0 is_stmt 0 discriminator 1
 721 0090 019B     		ldr	r3, [sp, #4]
 722 0092 012B     		cmp	r3, #1
 723 0094 F5D1     		bne	.L41
 472:ui.c          **** 
 724              		.loc 1 472 0 is_stmt 1
 725 0096 09B0     		add	sp, sp, #36
 726              		@ sp needed
 727              	.LVL96:
 728              	.LVL97:
 729 0098 30BD     		pop	{r4, r5, pc}
 730              	.L43:
 731 009a C046     		.align	2
 732              	.L42:
 733 009c 70000000 		.word	.LC27
 734 00a0 7C000000 		.word	.LC29
 735 00a4 A0860100 		.word	100000
 736 00a8 88000000 		.word	.LC31
 737 00ac 40420F00 		.word	1000000
 738 00b0 94000000 		.word	.LC33
 739              		.cfi_endproc
 740              	.LFE51:
 741              		.size	measure_Battery_ISR, .-measure_Battery_ISR
 742              		.section	.text.ui_calibrate_offsets,"ax",%progbits
 743              		.align	2
 744              		.code	16
 745              		.thumb_func
 746              		.type	ui_calibrate_offsets, %function
 747              	ui_calibrate_offsets:
 748              	.LFB58:
 686:ui.c          ****     state.calibrating = 1;
 749              		.loc 1 686 0
 750              		.cfi_startproc
 751              		@ args = 0, pretend = 0, frame = 16
 752              		@ frame_needed = 0, uses_anonymous_args = 0
 753              	.LVL98:
 754 0000 10B5     		push	{r4, lr}
 755              		.cfi_def_cfa_offset 8
 756              		.cfi_offset 4, -8
 757              		.cfi_offset 14, -4
 758 0002 84B0     		sub	sp, sp, #16
 759              		.cfi_def_cfa_offset 24
 760 0004 0400     		movs	r4, r0
 687:ui.c          **** 
 761              		.loc 1 687 0
 762 0006 0122     		movs	r2, #1
 763 0008 144B     		ldr	r3, .L47
 764 000a 1A72     		strb	r2, [r3, #8]
 689:ui.c          ****     IDAC_High_SetValue(0);
 765              		.loc 1 689 0
 766 000c 0020     		movs	r0, #0
 767              	.LVL99:
 768 000e FFF7FEFF 		bl	IDAC_Low_SetValue
ARM GAS  C:\Users\VIDEOH~1\AppData\Local\Temp\ccM4oHTP.s 			page 31


 769              	.LVL100:
 690:ui.c          **** 
 770              		.loc 1 690 0
 771 0012 0020     		movs	r0, #0
 772 0014 FFF7FEFF 		bl	IDAC_High_SetValue
 773              	.LVL101:
 692:ui.c          **** 	Display_DrawText(6, 38, FONT_GLYPH_ENTER ": Next", 0);
 774              		.loc 1 692 0
 775 0018 0123     		movs	r3, #1
 776 001a 114A     		ldr	r2, .L47+4
 777 001c 0021     		movs	r1, #0
 778 001e 0220     		movs	r0, #2
 779 0020 FFF7FEFF 		bl	Display_DrawText
 780              	.LVL102:
 693:ui.c          **** 
 781              		.loc 1 693 0
 782 0024 0023     		movs	r3, #0
 783 0026 0F4A     		ldr	r2, .L47+8
 784 0028 2621     		movs	r1, #38
 785 002a 0620     		movs	r0, #6
 786 002c FFF7FEFF 		bl	Display_DrawText
 787              	.LVL103:
 697:ui.c          **** 	while(event.type != UI_EVENT_BUTTONPRESS || event.int_arg != 1)
 788              		.loc 1 697 0
 789 0030 0023     		movs	r3, #0
 790 0032 6A46     		mov	r2, sp
 791 0034 1370     		strb	r3, [r2]
 698:ui.c          **** 		next_event(&event);
 792              		.loc 1 698 0
 793 0036 02E0     		b	.L45
 794              	.L46:
 699:ui.c          **** 
 795              		.loc 1 699 0
 796 0038 6846     		mov	r0, sp
 797 003a FFF7FEFF 		bl	next_event
 798              	.LVL104:
 799              	.L45:
 698:ui.c          **** 		next_event(&event);
 800              		.loc 1 698 0
 801 003e 6B46     		mov	r3, sp
 802 0040 1B78     		ldrb	r3, [r3]
 803 0042 012B     		cmp	r3, #1
 804 0044 F8D1     		bne	.L46
 698:ui.c          **** 		next_event(&event);
 805              		.loc 1 698 0 is_stmt 0 discriminator 1
 806 0046 019B     		ldr	r3, [sp, #4]
 807 0048 012B     		cmp	r3, #1
 808 004a F5D1     		bne	.L46
 701:ui.c          ****     state.calibrating = 0;
 809              		.loc 1 701 0 is_stmt 1
 810 004c 2000     		movs	r0, r4
 811 004e FFF7FEFF 		bl	calibrate_offsets
 812              	.LVL105:
 702:ui.c          **** }
 813              		.loc 1 702 0
 814 0052 0022     		movs	r2, #0
 815 0054 014B     		ldr	r3, .L47
ARM GAS  C:\Users\VIDEOH~1\AppData\Local\Temp\ccM4oHTP.s 			page 32


 816 0056 1A72     		strb	r2, [r3, #8]
 703:ui.c          **** 
 817              		.loc 1 703 0
 818 0058 04B0     		add	sp, sp, #16
 819              		@ sp needed
 820              	.LVL106:
 821 005a 10BD     		pop	{r4, pc}
 822              	.L48:
 823              		.align	2
 824              	.L47:
 825 005c 00000000 		.word	state
 826 0060 A0000000 		.word	.LC36
 827 0064 B0000000 		.word	.LC38
 828              		.cfi_endproc
 829              	.LFE58:
 830              		.size	ui_calibrate_offsets, .-ui_calibrate_offsets
 831              		.section	.text.ui_calibrate_voltage,"ax",%progbits
 832              		.align	2
 833              		.code	16
 834              		.thumb_func
 835              		.type	ui_calibrate_voltage, %function
 836              	ui_calibrate_voltage:
 837              	.LFB59:
 707:ui.c          ****     state.calibrating = 1;
 838              		.loc 1 707 0
 839              		.cfi_startproc
 840              		@ args = 0, pretend = 0, frame = 32
 841              		@ frame_needed = 0, uses_anonymous_args = 0
 842              	.LVL107:
 843 0000 30B5     		push	{r4, r5, lr}
 844              		.cfi_def_cfa_offset 12
 845              		.cfi_offset 4, -12
 846              		.cfi_offset 5, -8
 847              		.cfi_offset 14, -4
 848 0002 89B0     		sub	sp, sp, #36
 849              		.cfi_def_cfa_offset 48
 850 0004 0500     		movs	r5, r0
 708:ui.c          **** 
 851              		.loc 1 708 0
 852 0006 0122     		movs	r2, #1
 853 0008 204B     		ldr	r3, .L54
 854 000a 1A72     		strb	r2, [r3, #8]
 710:ui.c          ****     IDAC_High_SetValue(0);
 855              		.loc 1 710 0
 856 000c 0020     		movs	r0, #0
 857              	.LVL108:
 858 000e FFF7FEFF 		bl	IDAC_Low_SetValue
 859              	.LVL109:
 711:ui.c          **** 
 860              		.loc 1 711 0
 861 0012 0020     		movs	r0, #0
 862 0014 FFF7FEFF 		bl	IDAC_High_SetValue
 863              	.LVL110:
 713:ui.c          **** 
 864              		.loc 1 713 0
 865 0018 0123     		movs	r3, #1
 866 001a 1D4A     		ldr	r2, .L54+4
ARM GAS  C:\Users\VIDEOH~1\AppData\Local\Temp\ccM4oHTP.s 			page 33


 867 001c 0021     		movs	r1, #0
 868 001e 0220     		movs	r0, #2
 869 0020 FFF7FEFF 		bl	Display_DrawText
 870              	.LVL111:
 717:ui.c          **** 	while(event.type != UI_EVENT_BUTTONPRESS || event.int_arg != 1) {
 871              		.loc 1 717 0
 872 0024 0022     		movs	r2, #0
 873 0026 04AB     		add	r3, sp, #16
 874 0028 1A70     		strb	r2, [r3]
 718:ui.c          **** 		next_event(&event);
 875              		.loc 1 718 0
 876 002a 23E0     		b	.L51
 877              	.L53:
 878              	.LBB3:
 719:ui.c          **** 
 879              		.loc 1 719 0
 880 002c 04AC     		add	r4, sp, #16
 881 002e 2000     		movs	r0, r4
 882 0030 FFF7FEFF 		bl	next_event
 883              	.LVL112:
 721:ui.c          **** 		format_number_simple(voltage, "V", buf);
 884              		.loc 1 721 0
 885 0034 FFF7FEFF 		bl	get_raw_voltage
 886              	.LVL113:
 887 0038 6B6A     		ldr	r3, [r5, #36]
 888 003a C01A     		subs	r0, r0, r3
 889 003c AB6A     		ldr	r3, [r5, #40]
 890 003e 5843     		muls	r0, r3
 891              	.LVL114:
 722:ui.c          **** 		strcat(buf, " ");
 892              		.loc 1 722 0
 893 0040 6A46     		mov	r2, sp
 894 0042 1449     		ldr	r1, .L54+8
 895 0044 FFF7FEFF 		bl	format_number_simple
 896              	.LVL115:
 723:ui.c          **** 		Display_DrawText(4, 43, buf, 0);
 897              		.loc 1 723 0
 898 0048 6846     		mov	r0, sp
 899 004a FFF7FEFF 		bl	strlen
 900              	.LVL116:
 901 004e 6844     		add	r0, r0, sp
 902 0050 0222     		movs	r2, #2
 903 0052 1149     		ldr	r1, .L54+12
 904 0054 FFF7FEFF 		bl	memcpy
 905              	.LVL117:
 724:ui.c          **** 
 906              		.loc 1 724 0
 907 0058 0023     		movs	r3, #0
 908 005a 6A46     		mov	r2, sp
 909 005c 2B21     		movs	r1, #43
 910 005e 0420     		movs	r0, #4
 911 0060 FFF7FEFF 		bl	Display_DrawText
 912              	.LVL118:
 726:ui.c          **** 		case UI_EVENT_UPDOWN:
 913              		.loc 1 726 0
 914 0064 2378     		ldrb	r3, [r4]
 915 0066 032B     		cmp	r3, #3
ARM GAS  C:\Users\VIDEOH~1\AppData\Local\Temp\ccM4oHTP.s 			page 34


 916 0068 04D1     		bne	.L51
 728:ui.c          **** 			break;
 917              		.loc 1 728 0
 918 006a AB6A     		ldr	r3, [r5, #40]
 919 006c 059A     		ldr	r2, [sp, #20]
 920 006e 9446     		mov	ip, r2
 921 0070 6344     		add	r3, r3, ip
 922 0072 AB62     		str	r3, [r5, #40]
 923              	.L51:
 924              	.LBE3:
 718:ui.c          **** 		next_event(&event);
 925              		.loc 1 718 0
 926 0074 04AB     		add	r3, sp, #16
 927 0076 1B78     		ldrb	r3, [r3]
 928 0078 012B     		cmp	r3, #1
 929 007a D7D1     		bne	.L53
 718:ui.c          **** 		next_event(&event);
 930              		.loc 1 718 0 is_stmt 0 discriminator 1
 931 007c 059B     		ldr	r3, [sp, #20]
 932 007e 012B     		cmp	r3, #1
 933 0080 D4D1     		bne	.L53
 734:ui.c          **** }
 934              		.loc 1 734 0 is_stmt 1
 935 0082 0022     		movs	r2, #0
 936 0084 014B     		ldr	r3, .L54
 937 0086 1A72     		strb	r2, [r3, #8]
 735:ui.c          **** 
 938              		.loc 1 735 0
 939 0088 09B0     		add	sp, sp, #36
 940              		@ sp needed
 941              	.LVL119:
 942 008a 30BD     		pop	{r4, r5, pc}
 943              	.L55:
 944              		.align	2
 945              	.L54:
 946 008c 00000000 		.word	state
 947 0090 B8000000 		.word	.LC41
 948 0094 3C000000 		.word	.LC16
 949 0098 38000000 		.word	.LC14
 950              		.cfi_endproc
 951              	.LFE59:
 952              		.size	ui_calibrate_voltage, .-ui_calibrate_voltage
 953              		.section	.text.ui_calibration_progress,"ax",%progbits
 954              		.align	2
 955              		.global	ui_calibration_progress
 956              		.code	16
 957              		.thumb_func
 958              		.type	ui_calibration_progress, %function
 959              	ui_calibration_progress:
 960              	.LFB62:
 810:ui.c          **** 	Display_Clear(6, 16, 7, 16 + 129 * current / all, 0xFF);
 961              		.loc 1 810 0
 962              		.cfi_startproc
 963              		@ args = 0, pretend = 0, frame = 0
 964              		@ frame_needed = 0, uses_anonymous_args = 0
 965              	.LVL120:
 966 0000 00B5     		push	{lr}
ARM GAS  C:\Users\VIDEOH~1\AppData\Local\Temp\ccM4oHTP.s 			page 35


 967              		.cfi_def_cfa_offset 4
 968              		.cfi_offset 14, -4
 969 0002 83B0     		sub	sp, sp, #12
 970              		.cfi_def_cfa_offset 16
 811:ui.c          **** }
 971              		.loc 1 811 0
 972 0004 C301     		lsls	r3, r0, #7
 973 0006 1818     		adds	r0, r3, r0
 974              	.LVL121:
 975 0008 FFF7FEFF 		bl	__aeabi_idiv
 976              	.LVL122:
 977 000c 0300     		movs	r3, r0
 978 000e 1033     		adds	r3, r3, #16
 979 0010 DBB2     		uxtb	r3, r3
 980 0012 FF22     		movs	r2, #255
 981 0014 0092     		str	r2, [sp]
 982 0016 F83A     		subs	r2, r2, #248
 983 0018 1021     		movs	r1, #16
 984 001a 0620     		movs	r0, #6
 985 001c FFF7FEFF 		bl	Display_Clear
 986              	.LVL123:
 812:ui.c          **** 
 987              		.loc 1 812 0
 988 0020 03B0     		add	sp, sp, #12
 989              		@ sp needed
 990 0022 00BD     		pop	{pc}
 991              		.cfi_endproc
 992              	.LFE62:
 993              		.size	ui_calibration_progress, .-ui_calibration_progress
 994              		.section	.text.ui_calibrate_current,"ax",%progbits
 995              		.align	2
 996              		.code	16
 997              		.thumb_func
 998              		.type	ui_calibrate_current, %function
 999              	ui_calibrate_current:
 1000              	.LFB60:
 737:ui.c          ****     state.calibrating = 1;
 1001              		.loc 1 737 0
 1002              		.cfi_startproc
 1003              		@ args = 0, pretend = 0, frame = 32
 1004              		@ frame_needed = 0, uses_anonymous_args = 0
 1005              	.LVL124:
 1006 0000 30B5     		push	{r4, r5, lr}
 1007              		.cfi_def_cfa_offset 12
 1008              		.cfi_offset 4, -12
 1009              		.cfi_offset 5, -8
 1010              		.cfi_offset 14, -4
 1011 0002 8BB0     		sub	sp, sp, #44
 1012              		.cfi_def_cfa_offset 56
 1013 0004 0500     		movs	r5, r0
 738:ui.c          **** 
 1014              		.loc 1 738 0
 1015 0006 0122     		movs	r2, #1
 1016 0008 2A4B     		ldr	r3, .L62
 1017 000a 1A72     		strb	r2, [r3, #8]
 740:ui.c          ****     IDAC_High_SetValue((CALIBRATION_CURRENT - new_settings->calibration_settings.dac_offset) / new_
 1018              		.loc 1 740 0
ARM GAS  C:\Users\VIDEOH~1\AppData\Local\Temp\ccM4oHTP.s 			page 36


 1019 000c 0020     		movs	r0, #0
 1020              	.LVL125:
 1021 000e FFF7FEFF 		bl	IDAC_Low_SetValue
 1022              	.LVL126:
 741:ui.c          **** 
 1023              		.loc 1 741 0
 1024 0012 2948     		ldr	r0, .L62+4
 1025 0014 6B69     		ldr	r3, [r5, #20]
 1026 0016 C01A     		subs	r0, r0, r3
 1027 0018 2969     		ldr	r1, [r5, #16]
 1028 001a FFF7FEFF 		bl	__aeabi_idiv
 1029              	.LVL127:
 1030 001e FFF7FEFF 		bl	IDAC_High_SetValue
 1031              	.LVL128:
 743:ui.c          **** 	Display_DrawText(2, 0, " Adj. Current", 1);
 1032              		.loc 1 743 0
 1033 0022 0024     		movs	r4, #0
 1034 0024 0094     		str	r4, [sp]
 1035 0026 A023     		movs	r3, #160
 1036 0028 0822     		movs	r2, #8
 1037 002a 0021     		movs	r1, #0
 1038 002c 0420     		movs	r0, #4
 1039 002e FFF7FEFF 		bl	Display_Clear
 1040              	.LVL129:
 744:ui.c          **** 	Display_DrawText(6, 38, FONT_GLYPH_ENTER ": Next", 0);
 1041              		.loc 1 744 0
 1042 0032 0123     		movs	r3, #1
 1043 0034 214A     		ldr	r2, .L62+8
 1044 0036 0021     		movs	r1, #0
 1045 0038 0220     		movs	r0, #2
 1046 003a FFF7FEFF 		bl	Display_DrawText
 1047              	.LVL130:
 745:ui.c          **** 
 1048              		.loc 1 745 0
 1049 003e 0023     		movs	r3, #0
 1050 0040 1F4A     		ldr	r2, .L62+12
 1051 0042 2621     		movs	r1, #38
 1052 0044 0620     		movs	r0, #6
 1053 0046 FFF7FEFF 		bl	Display_DrawText
 1054              	.LVL131:
 751:ui.c          **** 	while(event.type != UI_EVENT_BUTTONPRESS || event.int_arg != 1) {
 1055              		.loc 1 751 0
 1056 004a 06AB     		add	r3, sp, #24
 1057 004c 1C70     		strb	r4, [r3]
 752:ui.c          **** 		next_event(&event);
 1058              		.loc 1 752 0
 1059 004e 25E0     		b	.L59
 1060              	.L61:
 753:ui.c          **** 
 1061              		.loc 1 753 0
 1062 0050 06AC     		add	r4, sp, #24
 1063 0052 2000     		movs	r0, r4
 1064 0054 FFF7FEFF 		bl	next_event
 1065              	.LVL132:
 755:ui.c          **** 		format_number_simple(current, "A", buf);
 1066              		.loc 1 755 0
 1067 0058 FFF7FEFF 		bl	get_raw_current_usage
ARM GAS  C:\Users\VIDEOH~1\AppData\Local\Temp\ccM4oHTP.s 			page 37


 1068              	.LVL133:
 1069 005c EB69     		ldr	r3, [r5, #28]
 1070 005e C01A     		subs	r0, r0, r3
 1071 0060 2B6A     		ldr	r3, [r5, #32]
 1072 0062 5843     		muls	r0, r3
 1073              	.LVL134:
 756:ui.c          **** 		strcat(buf, " ");
 1074              		.loc 1 756 0
 1075 0064 02AA     		add	r2, sp, #8
 1076 0066 1749     		ldr	r1, .L62+16
 1077 0068 FFF7FEFF 		bl	format_number_simple
 1078              	.LVL135:
 757:ui.c          **** 		Display_DrawText(4, 43, buf, 0);
 1079              		.loc 1 757 0
 1080 006c 02A8     		add	r0, sp, #8
 1081 006e FFF7FEFF 		bl	strlen
 1082              	.LVL136:
 1083 0072 02AB     		add	r3, sp, #8
 1084 0074 9C46     		mov	ip, r3
 1085 0076 6044     		add	r0, r0, ip
 1086 0078 0222     		movs	r2, #2
 1087 007a 1349     		ldr	r1, .L62+20
 1088 007c FFF7FEFF 		bl	memcpy
 1089              	.LVL137:
 758:ui.c          **** 
 1090              		.loc 1 758 0
 1091 0080 0023     		movs	r3, #0
 1092 0082 02AA     		add	r2, sp, #8
 1093 0084 2B21     		movs	r1, #43
 1094 0086 0420     		movs	r0, #4
 1095 0088 FFF7FEFF 		bl	Display_DrawText
 1096              	.LVL138:
 760:ui.c          **** 		case UI_EVENT_UPDOWN:
 1097              		.loc 1 760 0
 1098 008c 2378     		ldrb	r3, [r4]
 1099 008e 032B     		cmp	r3, #3
 1100 0090 04D1     		bne	.L59
 762:ui.c          **** 			break;
 1101              		.loc 1 762 0
 1102 0092 2B6A     		ldr	r3, [r5, #32]
 1103 0094 079A     		ldr	r2, [sp, #28]
 1104 0096 9446     		mov	ip, r2
 1105 0098 6344     		add	r3, r3, ip
 1106 009a 2B62     		str	r3, [r5, #32]
 1107              	.L59:
 752:ui.c          **** 		next_event(&event);
 1108              		.loc 1 752 0
 1109 009c 06AB     		add	r3, sp, #24
 1110 009e 1B78     		ldrb	r3, [r3]
 1111 00a0 012B     		cmp	r3, #1
 1112 00a2 D5D1     		bne	.L61
 752:ui.c          **** 		next_event(&event);
 1113              		.loc 1 752 0 is_stmt 0 discriminator 1
 1114 00a4 079B     		ldr	r3, [sp, #28]
 1115 00a6 012B     		cmp	r3, #1
 1116 00a8 D2D1     		bne	.L61
 768:ui.c          **** }
ARM GAS  C:\Users\VIDEOH~1\AppData\Local\Temp\ccM4oHTP.s 			page 38


 1117              		.loc 1 768 0 is_stmt 1
 1118 00aa 0022     		movs	r2, #0
 1119 00ac 014B     		ldr	r3, .L62
 1120 00ae 1A72     		strb	r2, [r3, #8]
 769:ui.c          **** 
 1121              		.loc 1 769 0
 1122 00b0 0BB0     		add	sp, sp, #44
 1123              		@ sp needed
 1124              	.LVL139:
 1125 00b2 30BD     		pop	{r4, r5, pc}
 1126              	.L63:
 1127              		.align	2
 1128              	.L62:
 1129 00b4 00000000 		.word	state
 1130 00b8 80841E00 		.word	2000000
 1131 00bc C8000000 		.word	.LC46
 1132 00c0 B0000000 		.word	.LC38
 1133 00c4 D8000000 		.word	.LC49
 1134 00c8 38000000 		.word	.LC14
 1135              		.cfi_endproc
 1136              	.LFE60:
 1137              		.size	ui_calibrate_current, .-ui_calibrate_current
 1138              		.section	.text.ui_calibrate_voltage_correction,"ax",%progbits
 1139              		.align	2
 1140              		.code	16
 1141              		.thumb_func
 1142              		.type	ui_calibrate_voltage_correction, %function
 1143              	ui_calibrate_voltage_correction:
 1144              	.LFB61:
 771:ui.c          **** 	state.calibrating = 1;
 1145              		.loc 1 771 0
 1146              		.cfi_startproc
 1147              		@ args = 0, pretend = 0, frame = 32
 1148              		@ frame_needed = 0, uses_anonymous_args = 0
 1149              	.LVL140:
 1150 0000 70B5     		push	{r4, r5, r6, lr}
 1151              		.cfi_def_cfa_offset 16
 1152              		.cfi_offset 4, -16
 1153              		.cfi_offset 5, -12
 1154              		.cfi_offset 6, -8
 1155              		.cfi_offset 14, -4
 1156 0002 8AB0     		sub	sp, sp, #40
 1157              		.cfi_def_cfa_offset 56
 1158 0004 0500     		movs	r5, r0
 772:ui.c          **** 
 1159              		.loc 1 772 0
 1160 0006 0122     		movs	r2, #1
 1161 0008 314B     		ldr	r3, .L69
 1162 000a 1A72     		strb	r2, [r3, #8]
 774:ui.c          **** 	IDAC_High_SetValue((CALIBRATION_CURRENT - new_settings->calibration_settings.dac_offset) / new_set
 1163              		.loc 1 774 0
 1164 000c 0020     		movs	r0, #0
 1165              	.LVL141:
 1166 000e FFF7FEFF 		bl	IDAC_Low_SetValue
 1167              	.LVL142:
 775:ui.c          **** 
 1168              		.loc 1 775 0
ARM GAS  C:\Users\VIDEOH~1\AppData\Local\Temp\ccM4oHTP.s 			page 39


 1169 0012 3048     		ldr	r0, .L69+4
 1170 0014 6B69     		ldr	r3, [r5, #20]
 1171 0016 C01A     		subs	r0, r0, r3
 1172 0018 2969     		ldr	r1, [r5, #16]
 1173 001a FFF7FEFF 		bl	__aeabi_idiv
 1174              	.LVL143:
 1175 001e FFF7FEFF 		bl	IDAC_High_SetValue
 1176              	.LVL144:
 777:ui.c          **** 	Display_DrawText(2, 0, " Adj. voltage", 1);
 1177              		.loc 1 777 0
 1178 0022 0024     		movs	r4, #0
 1179 0024 0094     		str	r4, [sp]
 1180 0026 A023     		movs	r3, #160
 1181 0028 0822     		movs	r2, #8
 1182 002a 0021     		movs	r1, #0
 1183 002c 0420     		movs	r0, #4
 1184 002e FFF7FEFF 		bl	Display_Clear
 1185              	.LVL145:
 778:ui.c          **** 	Display_DrawText(6, 38, FONT_GLYPH_ENTER ": Next", 0);
 1186              		.loc 1 778 0
 1187 0032 0123     		movs	r3, #1
 1188 0034 284A     		ldr	r2, .L69+8
 1189 0036 0021     		movs	r1, #0
 1190 0038 0220     		movs	r0, #2
 1191 003a FFF7FEFF 		bl	Display_DrawText
 1192              	.LVL146:
 779:ui.c          **** 
 1193              		.loc 1 779 0
 1194 003e 0023     		movs	r3, #0
 1195 0040 264A     		ldr	r2, .L69+12
 1196 0042 2621     		movs	r1, #38
 1197 0044 0620     		movs	r0, #6
 1198 0046 FFF7FEFF 		bl	Display_DrawText
 1199              	.LVL147:
 785:ui.c          **** 	while(event.type != UI_EVENT_BUTTONPRESS || event.int_arg != 1) {
 1200              		.loc 1 785 0
 1201 004a 06AB     		add	r3, sp, #24
 1202 004c 1C70     		strb	r4, [r3]
 786:ui.c          **** 		next_event(&event);
 1203              		.loc 1 786 0
 1204 004e 33E0     		b	.L66
 1205              	.L68:
 787:ui.c          **** 
 1206              		.loc 1 787 0
 1207 0050 06AE     		add	r6, sp, #24
 1208 0052 3000     		movs	r0, r6
 1209 0054 FFF7FEFF 		bl	next_event
 1210              	.LVL148:
 789:ui.c          **** 		voltage = (get_raw_voltage() - new_settings->calibration_settings.adc_voltage_offset) * new_setti
 1211              		.loc 1 789 0
 1212 0058 FFF7FEFF 		bl	get_raw_current_usage
 1213              	.LVL149:
 1214 005c EB69     		ldr	r3, [r5, #28]
 1215 005e C41A     		subs	r4, r0, r3
 1216 0060 2B6A     		ldr	r3, [r5, #32]
 1217 0062 5C43     		muls	r4, r3
 1218              	.LVL150:
ARM GAS  C:\Users\VIDEOH~1\AppData\Local\Temp\ccM4oHTP.s 			page 40


 790:ui.c          **** 		voltage += (current / 1024) * new_settings->calibration_settings.voltage_correction_ratio;
 1219              		.loc 1 790 0
 1220 0064 FFF7FEFF 		bl	get_raw_voltage
 1221              	.LVL151:
 1222 0068 6B6A     		ldr	r3, [r5, #36]
 1223 006a C01A     		subs	r0, r0, r3
 1224 006c AB6A     		ldr	r3, [r5, #40]
 1225 006e 5843     		muls	r0, r3
 1226              	.LVL152:
 791:ui.c          **** 		format_number_simple(voltage, "V", buf);
 1227              		.loc 1 791 0
 1228 0070 E317     		asrs	r3, r4, #31
 1229 0072 9B05     		lsls	r3, r3, #22
 1230 0074 9B0D     		lsrs	r3, r3, #22
 1231 0076 1C19     		adds	r4, r3, r4
 1232              	.LVL153:
 1233 0078 A412     		asrs	r4, r4, #10
 1234 007a EB6A     		ldr	r3, [r5, #44]
 1235 007c 5C43     		muls	r4, r3
 1236 007e 0019     		adds	r0, r0, r4
 1237              	.LVL154:
 792:ui.c          **** 		strcat(buf, " ");
 1238              		.loc 1 792 0
 1239 0080 02AA     		add	r2, sp, #8
 1240 0082 1749     		ldr	r1, .L69+16
 1241 0084 FFF7FEFF 		bl	format_number_simple
 1242              	.LVL155:
 793:ui.c          **** 		Display_DrawText(4, 43, buf, 0);
 1243              		.loc 1 793 0
 1244 0088 02A8     		add	r0, sp, #8
 1245 008a FFF7FEFF 		bl	strlen
 1246              	.LVL156:
 1247 008e 02AB     		add	r3, sp, #8
 1248 0090 9C46     		mov	ip, r3
 1249 0092 6044     		add	r0, r0, ip
 1250 0094 0222     		movs	r2, #2
 1251 0096 1349     		ldr	r1, .L69+20
 1252 0098 FFF7FEFF 		bl	memcpy
 1253              	.LVL157:
 794:ui.c          **** 
 1254              		.loc 1 794 0
 1255 009c 0023     		movs	r3, #0
 1256 009e 02AA     		add	r2, sp, #8
 1257 00a0 2B21     		movs	r1, #43
 1258 00a2 0420     		movs	r0, #4
 1259 00a4 FFF7FEFF 		bl	Display_DrawText
 1260              	.LVL158:
 796:ui.c          **** 		case UI_EVENT_UPDOWN:
 1261              		.loc 1 796 0
 1262 00a8 3378     		ldrb	r3, [r6]
 1263 00aa 032B     		cmp	r3, #3
 1264 00ac 04D1     		bne	.L66
 798:ui.c          **** 			break;
 1265              		.loc 1 798 0
 1266 00ae EB6A     		ldr	r3, [r5, #44]
 1267 00b0 079A     		ldr	r2, [sp, #28]
 1268 00b2 9446     		mov	ip, r2
ARM GAS  C:\Users\VIDEOH~1\AppData\Local\Temp\ccM4oHTP.s 			page 41


 1269 00b4 6344     		add	r3, r3, ip
 1270 00b6 EB62     		str	r3, [r5, #44]
 1271              	.L66:
 786:ui.c          **** 		next_event(&event);
 1272              		.loc 1 786 0
 1273 00b8 06AB     		add	r3, sp, #24
 1274 00ba 1B78     		ldrb	r3, [r3]
 1275 00bc 012B     		cmp	r3, #1
 1276 00be C7D1     		bne	.L68
 786:ui.c          **** 		next_event(&event);
 1277              		.loc 1 786 0 is_stmt 0 discriminator 1
 1278 00c0 079B     		ldr	r3, [sp, #28]
 1279 00c2 012B     		cmp	r3, #1
 1280 00c4 C4D1     		bne	.L68
 804:ui.c          **** }
 1281              		.loc 1 804 0 is_stmt 1
 1282 00c6 0022     		movs	r2, #0
 1283 00c8 014B     		ldr	r3, .L69
 1284 00ca 1A72     		strb	r2, [r3, #8]
 805:ui.c          **** 
 1285              		.loc 1 805 0
 1286 00cc 0AB0     		add	sp, sp, #40
 1287              		@ sp needed
 1288              	.LVL159:
 1289 00ce 70BD     		pop	{r4, r5, r6, pc}
 1290              	.L70:
 1291              		.align	2
 1292              	.L69:
 1293 00d0 00000000 		.word	state
 1294 00d4 80841E00 		.word	2000000
 1295 00d8 B8000000 		.word	.LC41
 1296 00dc B0000000 		.word	.LC38
 1297 00e0 3C000000 		.word	.LC16
 1298 00e4 38000000 		.word	.LC14
 1299              		.cfi_endproc
 1300              	.LFE61:
 1301              		.size	ui_calibrate_voltage_correction, .-ui_calibrate_voltage_correction
 1302              		.section	.text.ui_calibrate_dacs,"ax",%progbits
 1303              		.align	2
 1304              		.code	16
 1305              		.thumb_func
 1306              		.type	ui_calibrate_dacs, %function
 1307              	ui_calibrate_dacs:
 1308              	.LFB63:
 814:ui.c          **** 	Display_Clear(2, 0, 8, 160, 0);
 1309              		.loc 1 814 0
 1310              		.cfi_startproc
 1311              		@ args = 0, pretend = 0, frame = 0
 1312              		@ frame_needed = 0, uses_anonymous_args = 0
 1313              	.LVL160:
 1314 0000 30B5     		push	{r4, r5, lr}
 1315              		.cfi_def_cfa_offset 12
 1316              		.cfi_offset 4, -12
 1317              		.cfi_offset 5, -8
 1318              		.cfi_offset 14, -4
 1319 0002 83B0     		sub	sp, sp, #12
 1320              		.cfi_def_cfa_offset 24
ARM GAS  C:\Users\VIDEOH~1\AppData\Local\Temp\ccM4oHTP.s 			page 42


 1321 0004 0400     		movs	r4, r0
 815:ui.c          **** 	Display_DrawText(3, 14, "Please wait", 0);
 1322              		.loc 1 815 0
 1323 0006 0023     		movs	r3, #0
 1324 0008 0093     		str	r3, [sp]
 1325 000a A033     		adds	r3, r3, #160
 1326 000c 0822     		movs	r2, #8
 1327 000e 0021     		movs	r1, #0
 1328 0010 0220     		movs	r0, #2
 1329              	.LVL161:
 1330 0012 FFF7FEFF 		bl	Display_Clear
 1331              	.LVL162:
 816:ui.c          **** 
 1332              		.loc 1 816 0
 1333 0016 0023     		movs	r3, #0
 1334 0018 134A     		ldr	r2, .L72
 1335 001a 0E21     		movs	r1, #14
 1336 001c 0320     		movs	r0, #3
 1337 001e FFF7FEFF 		bl	Display_DrawText
 1338              	.LVL163:
 819:ui.c          **** 	Display_Clear(6, 145, 7, 146, 0xFF);
 1339              		.loc 1 819 0
 1340 0022 FF25     		movs	r5, #255
 1341 0024 0095     		str	r5, [sp]
 1342 0026 1023     		movs	r3, #16
 1343 0028 0722     		movs	r2, #7
 1344 002a 0F21     		movs	r1, #15
 1345 002c 0620     		movs	r0, #6
 1346 002e FFF7FEFF 		bl	Display_Clear
 1347              	.LVL164:
 820:ui.c          ****     Display_Clear(6, 16, 7, 145, 0x81);
 1348              		.loc 1 820 0
 1349 0032 0095     		str	r5, [sp]
 1350 0034 9223     		movs	r3, #146
 1351 0036 0722     		movs	r2, #7
 1352 0038 9121     		movs	r1, #145
 1353 003a 0620     		movs	r0, #6
 1354 003c FFF7FEFF 		bl	Display_Clear
 1355              	.LVL165:
 821:ui.c          ****     calibrate_opamp_offset_trim(new_settings, CALIBRATION_CURRENT,ui_calibration_progress);
 1356              		.loc 1 821 0
 1357 0040 8123     		movs	r3, #129
 1358 0042 0093     		str	r3, [sp]
 1359 0044 1033     		adds	r3, r3, #16
 1360 0046 0722     		movs	r2, #7
 1361 0048 1021     		movs	r1, #16
 1362 004a 0620     		movs	r0, #6
 1363 004c FFF7FEFF 		bl	Display_Clear
 1364              	.LVL166:
 822:ui.c          **** 	calibrate_dacs(new_settings, CALIBRATION_CURRENT);
 1365              		.loc 1 822 0
 1366 0050 064D     		ldr	r5, .L72+4
 1367 0052 074A     		ldr	r2, .L72+8
 1368 0054 2900     		movs	r1, r5
 1369 0056 2000     		movs	r0, r4
 1370 0058 FFF7FEFF 		bl	calibrate_opamp_offset_trim
 1371              	.LVL167:
ARM GAS  C:\Users\VIDEOH~1\AppData\Local\Temp\ccM4oHTP.s 			page 43


 823:ui.c          **** }
 1372              		.loc 1 823 0
 1373 005c 2900     		movs	r1, r5
 1374 005e 2000     		movs	r0, r4
 1375 0060 FFF7FEFF 		bl	calibrate_dacs
 1376              	.LVL168:
 824:ui.c          **** 
 1377              		.loc 1 824 0
 1378 0064 03B0     		add	sp, sp, #12
 1379              		@ sp needed
 1380              	.LVL169:
 1381 0066 30BD     		pop	{r4, r5, pc}
 1382              	.L73:
 1383              		.align	2
 1384              	.L72:
 1385 0068 DC000000 		.word	.LC57
 1386 006c 80841E00 		.word	2000000
 1387 0070 00000000 		.word	ui_calibration_progress
 1388              		.cfi_endproc
 1389              	.LFE63:
 1390              		.size	ui_calibrate_dacs, .-ui_calibrate_dacs
 1391              		.section	.text.ui_calibrate,"ax",%progbits
 1392              		.align	2
 1393              		.code	16
 1394              		.thumb_func
 1395              		.type	ui_calibrate, %function
 1396              	ui_calibrate:
 1397              	.LFB64:
 826:ui.c          **** 	set_current(0);
 1398              		.loc 1 826 0
 1399              		.cfi_startproc
 1400              		@ args = 0, pretend = 0, frame = 48
 1401              		@ frame_needed = 0, uses_anonymous_args = 0
 1402              	.LVL170:
 1403 0000 30B5     		push	{r4, r5, lr}
 1404              		.cfi_def_cfa_offset 12
 1405              		.cfi_offset 4, -12
 1406              		.cfi_offset 5, -8
 1407              		.cfi_offset 14, -4
 1408 0002 8DB0     		sub	sp, sp, #52
 1409              		.cfi_def_cfa_offset 64
 1410 0004 0400     		movs	r4, r0
 827:ui.c          **** 	set_output_mode(OUTPUT_MODE_FEEDBACK);
 1411              		.loc 1 827 0
 1412 0006 0020     		movs	r0, #0
 1413              	.LVL171:
 1414 0008 FFF7FEFF 		bl	set_current
 1415              	.LVL172:
 828:ui.c          **** 
 1416              		.loc 1 828 0
 1417 000c 0220     		movs	r0, #2
 1418 000e FFF7FEFF 		bl	set_output_mode
 1419              	.LVL173:
 831:ui.c          **** 	memcpy(&new_settings.calibration_settings, &default_settings.calibration_settings, sizeof(calibrat
 1420              		.loc 1 831 0
 1421 0012 194B     		ldr	r3, .L75
 1422 0014 1968     		ldr	r1, [r3]
ARM GAS  C:\Users\VIDEOH~1\AppData\Local\Temp\ccM4oHTP.s 			page 44


 1423 0016 3022     		movs	r2, #48
 1424 0018 6846     		mov	r0, sp
 1425 001a FFF7FEFF 		bl	memcpy
 1426              	.LVL174:
 832:ui.c          **** 
 1427              		.loc 1 832 0
 1428 001e 03AA     		add	r2, sp, #12
 1429 0020 164B     		ldr	r3, .L75+4
 1430 0022 0C33     		adds	r3, r3, #12
 1431 0024 23CB     		ldmia	r3!, {r0, r1, r5}
 1432 0026 23C2     		stmia	r2!, {r0, r1, r5}
 1433 0028 23CB     		ldmia	r3!, {r0, r1, r5}
 1434 002a 23C2     		stmia	r2!, {r0, r1, r5}
 1435 002c 23CB     		ldmia	r3!, {r0, r1, r5}
 1436 002e 23C2     		stmia	r2!, {r0, r1, r5}
 834:ui.c          **** 	Display_DrawText(0, 0, " CALIBRATION ", 1);
 1437              		.loc 1 834 0
 1438 0030 FFF7FEFF 		bl	Display_ClearAll
 1439              	.LVL175:
 835:ui.c          **** 
 1440              		.loc 1 835 0
 1441 0034 0123     		movs	r3, #1
 1442 0036 124A     		ldr	r2, .L75+8
 1443 0038 0021     		movs	r1, #0
 1444 003a 0020     		movs	r0, #0
 1445 003c FFF7FEFF 		bl	Display_DrawText
 1446              	.LVL176:
 837:ui.c          **** 	ui_calibrate_voltage(&new_settings);
 1447              		.loc 1 837 0
 1448 0040 6846     		mov	r0, sp
 1449 0042 FFF7FEFF 		bl	ui_calibrate_offsets
 1450              	.LVL177:
 838:ui.c          **** 	ui_calibrate_current(&new_settings);
 1451              		.loc 1 838 0
 1452 0046 6846     		mov	r0, sp
 1453 0048 FFF7FEFF 		bl	ui_calibrate_voltage
 1454              	.LVL178:
 839:ui.c          **** 	ui_calibrate_voltage_correction(&new_settings);
 1455              		.loc 1 839 0
 1456 004c 6846     		mov	r0, sp
 1457 004e FFF7FEFF 		bl	ui_calibrate_current
 1458              	.LVL179:
 840:ui.c          **** 	ui_calibrate_dacs(&new_settings);
 1459              		.loc 1 840 0
 1460 0052 6846     		mov	r0, sp
 1461 0054 FFF7FEFF 		bl	ui_calibrate_voltage_correction
 1462              	.LVL180:
 841:ui.c          **** 
 1463              		.loc 1 841 0
 1464 0058 6846     		mov	r0, sp
 1465 005a FFF7FEFF 		bl	ui_calibrate_dacs
 1466              	.LVL181:
 843:ui.c          **** 
 1467              		.loc 1 843 0
 1468 005e 094B     		ldr	r3, .L75+12
 1469 0060 3022     		movs	r2, #48
 1470 0062 6946     		mov	r1, sp
ARM GAS  C:\Users\VIDEOH~1\AppData\Local\Temp\ccM4oHTP.s 			page 45


 1471 0064 0020     		movs	r0, #0
 1472 0066 FFF7FEFF 		bl	Cy_Em_EEPROM_Write
 1473              	.LVL182:
 845:ui.c          **** }
 1474              		.loc 1 845 0
 1475 006a 0023     		movs	r3, #0
 1476 006c 2360     		str	r3, [r4]
 1477 006e 6360     		str	r3, [r4, #4]
 1478 0070 2372     		strb	r3, [r4, #8]
 846:ui.c          **** 
 1479              		.loc 1 846 0
 1480 0072 2000     		movs	r0, r4
 1481 0074 0DB0     		add	sp, sp, #52
 1482              		@ sp needed
 1483              	.LVL183:
 1484 0076 30BD     		pop	{r4, r5, pc}
 1485              	.L76:
 1486              		.align	2
 1487              	.L75:
 1488 0078 00000000 		.word	settings
 1489 007c 00000000 		.word	default_settings
 1490 0080 E8000000 		.word	.LC62
 1491 0084 00000000 		.word	EEPROM_context
 1492              		.cfi_endproc
 1493              	.LFE64:
 1494              		.size	ui_calibrate, .-ui_calibrate
 1495              		.section	.text.set_contrast,"ax",%progbits
 1496              		.align	2
 1497              		.code	16
 1498              		.thumb_func
 1499              		.type	set_contrast, %function
 1500              	set_contrast:
 1501              	.LFB53:
 479:ui.c          **** 	Display_ClearAll();
 1502              		.loc 1 479 0
 1503              		.cfi_startproc
 1504              		@ args = 0, pretend = 0, frame = 24
 1505              		@ frame_needed = 0, uses_anonymous_args = 0
 1506              	.LVL184:
 1507 0000 30B5     		push	{r4, r5, lr}
 1508              		.cfi_def_cfa_offset 12
 1509              		.cfi_offset 4, -12
 1510              		.cfi_offset 5, -8
 1511              		.cfi_offset 14, -4
 1512 0002 89B0     		sub	sp, sp, #36
 1513              		.cfi_def_cfa_offset 48
 1514 0004 0400     		movs	r4, r0
 480:ui.c          **** 	Display_Clear(0, 2, 2, 160, 0xFF);
 1515              		.loc 1 480 0
 1516 0006 FFF7FEFF 		bl	Display_ClearAll
 1517              	.LVL185:
 481:ui.c          **** 	Display_DrawText(0, 32, "Contrast", 1);
 1518              		.loc 1 481 0
 1519 000a FF25     		movs	r5, #255
 1520 000c 0095     		str	r5, [sp]
 1521 000e A023     		movs	r3, #160
 1522 0010 0222     		movs	r2, #2
ARM GAS  C:\Users\VIDEOH~1\AppData\Local\Temp\ccM4oHTP.s 			page 46


 1523 0012 0221     		movs	r1, #2
 1524 0014 0020     		movs	r0, #0
 1525 0016 FFF7FEFF 		bl	Display_Clear
 1526              	.LVL186:
 482:ui.c          **** 	Display_DrawText(6, 38, FONT_GLYPH_ENTER ": Done", 0);
 1527              		.loc 1 482 0
 1528 001a 0123     		movs	r3, #1
 1529 001c 364A     		ldr	r2, .L86
 1530 001e 2021     		movs	r1, #32
 1531 0020 0020     		movs	r0, #0
 1532 0022 FFF7FEFF 		bl	Display_DrawText
 1533              	.LVL187:
 483:ui.c          **** 
 1534              		.loc 1 483 0
 1535 0026 0023     		movs	r3, #0
 1536 0028 344A     		ldr	r2, .L86+4
 1537 002a 2621     		movs	r1, #38
 1538 002c 0620     		movs	r0, #6
 1539 002e FFF7FEFF 		bl	Display_DrawText
 1540              	.LVL188:
 486:ui.c          **** 	Display_Clear(4, 145, 5, 146, 0xFF);
 1541              		.loc 1 486 0
 1542 0032 0095     		str	r5, [sp]
 1543 0034 1023     		movs	r3, #16
 1544 0036 0522     		movs	r2, #5
 1545 0038 0F21     		movs	r1, #15
 1546 003a 0420     		movs	r0, #4
 1547 003c FFF7FEFF 		bl	Display_Clear
 1548              	.LVL189:
 487:ui.c          **** 
 1549              		.loc 1 487 0
 1550 0040 0095     		str	r5, [sp]
 1551 0042 9223     		movs	r3, #146
 1552 0044 0522     		movs	r2, #5
 1553 0046 9121     		movs	r1, #145
 1554 0048 0420     		movs	r0, #4
 1555 004a FFF7FEFF 		bl	Display_Clear
 1556              	.LVL190:
 489:ui.c          **** 	ui_event event;
 1557              		.loc 1 489 0
 1558 004e 2C4B     		ldr	r3, .L86+8
 1559 0050 1B68     		ldr	r3, [r3]
 1560 0052 5B68     		ldr	r3, [r3, #4]
 1561 0054 0793     		str	r3, [sp, #28]
 1562              	.L78:
 492:ui.c          **** 		Display_Clear(4, 16 + contrast * 2, 5, 145, 0x81);
 1563              		.loc 1 492 0
 1564 0056 079B     		ldr	r3, [sp, #28]
 1565 0058 0833     		adds	r3, r3, #8
 1566 005a 5B00     		lsls	r3, r3, #1
 1567 005c DBB2     		uxtb	r3, r3
 1568 005e FF22     		movs	r2, #255
 1569 0060 0092     		str	r2, [sp]
 1570 0062 FA3A     		subs	r2, r2, #250
 1571 0064 1021     		movs	r1, #16
 1572 0066 0420     		movs	r0, #4
 1573 0068 FFF7FEFF 		bl	Display_Clear
ARM GAS  C:\Users\VIDEOH~1\AppData\Local\Temp\ccM4oHTP.s 			page 47


 1574              	.LVL191:
 493:ui.c          **** 
 1575              		.loc 1 493 0
 1576 006c 0799     		ldr	r1, [sp, #28]
 1577 006e 0831     		adds	r1, r1, #8
 1578 0070 4900     		lsls	r1, r1, #1
 1579 0072 C9B2     		uxtb	r1, r1
 1580 0074 8123     		movs	r3, #129
 1581 0076 0093     		str	r3, [sp]
 1582 0078 1033     		adds	r3, r3, #16
 1583 007a 0522     		movs	r2, #5
 1584 007c 0420     		movs	r0, #4
 1585 007e FFF7FEFF 		bl	Display_Clear
 1586              	.LVL192:
 495:ui.c          **** 		switch(event.type) {
 1587              		.loc 1 495 0
 1588 0082 03AD     		add	r5, sp, #12
 1589 0084 2800     		movs	r0, r5
 1590 0086 FFF7FEFF 		bl	next_event
 1591              	.LVL193:
 496:ui.c          **** 		case UI_EVENT_UPDOWN:
 1592              		.loc 1 496 0
 1593 008a 2B78     		ldrb	r3, [r5]
 1594 008c 032B     		cmp	r3, #3
 1595 008e 04D0     		beq	.L80
 1596 0090 052B     		cmp	r3, #5
 1597 0092 27D0     		beq	.L81
 1598 0094 012B     		cmp	r3, #1
 1599 0096 DED1     		bne	.L78
 1600 0098 12E0     		b	.L82
 1601              	.L80:
 498:ui.c          **** 			if(contrast > 0x3F) {
 1602              		.loc 1 498 0
 1603 009a 049B     		ldr	r3, [sp, #16]
 1604 009c 079A     		ldr	r2, [sp, #28]
 1605 009e 9446     		mov	ip, r2
 1606 00a0 6344     		add	r3, r3, ip
 1607 00a2 0793     		str	r3, [sp, #28]
 499:ui.c          **** 				contrast = 0x3F;
 1608              		.loc 1 499 0
 1609 00a4 3F2B     		cmp	r3, #63
 1610 00a6 02DD     		ble	.L83
 500:ui.c          **** 			} else if(contrast < 0) {
 1611              		.loc 1 500 0
 1612 00a8 3F23     		movs	r3, #63
 1613 00aa 0793     		str	r3, [sp, #28]
 1614 00ac 03E0     		b	.L84
 1615              	.L83:
 501:ui.c          **** 				contrast = 0;
 1616              		.loc 1 501 0
 1617 00ae 002B     		cmp	r3, #0
 1618 00b0 01DA     		bge	.L84
 502:ui.c          **** 			}
 1619              		.loc 1 502 0
 1620 00b2 0023     		movs	r3, #0
 1621 00b4 0793     		str	r3, [sp, #28]
 1622              	.L84:
ARM GAS  C:\Users\VIDEOH~1\AppData\Local\Temp\ccM4oHTP.s 			page 48


 504:ui.c          **** 			break;
 1623              		.loc 1 504 0
 1624 00b6 079B     		ldr	r3, [sp, #28]
 1625 00b8 D8B2     		uxtb	r0, r3
 1626 00ba FFF7FEFF 		bl	Display_SetContrast
 1627              	.LVL194:
 505:ui.c          **** 		case UI_EVENT_BUTTONPRESS:
 1628              		.loc 1 505 0
 1629 00be CAE7     		b	.L78
 1630              	.L82:
 507:ui.c          **** 				EEPROM_Write((const int*)&settings-(const int*)&settings->lcd_contrast,(void*)&contrast, sizeof
 1631              		.loc 1 507 0
 1632 00c0 049B     		ldr	r3, [sp, #16]
 1633 00c2 012B     		cmp	r3, #1
 1634 00c4 C7D1     		bne	.L78
 508:ui.c          **** 				return (state_func)STATE_MAIN;
 1635              		.loc 1 508 0
 1636 00c6 0E4B     		ldr	r3, .L86+8
 1637 00c8 1A68     		ldr	r2, [r3]
 1638 00ca 101D     		adds	r0, r2, #4
 1639 00cc 181A     		subs	r0, r3, r0
 1640 00ce 8010     		asrs	r0, r0, #2
 1641 00d0 0C4B     		ldr	r3, .L86+12
 1642 00d2 0422     		movs	r2, #4
 1643 00d4 07A9     		add	r1, sp, #28
 1644 00d6 FFF7FEFF 		bl	Cy_Em_EEPROM_Write
 1645              	.LVL195:
 509:ui.c          **** 			}
 1646              		.loc 1 509 0
 1647 00da 0023     		movs	r3, #0
 1648 00dc 2360     		str	r3, [r4]
 1649 00de 6360     		str	r3, [r4, #4]
 1650 00e0 2372     		strb	r3, [r4, #8]
 1651 00e2 05E0     		b	.L77
 1652              	.L81:
 513:ui.c          **** 		default:
 1653              		.loc 1 513 0
 1654 00e4 084B     		ldr	r3, .L86+16
 1655 00e6 2360     		str	r3, [r4]
 1656 00e8 049B     		ldr	r3, [sp, #16]
 1657 00ea 6360     		str	r3, [r4, #4]
 1658 00ec 0023     		movs	r3, #0
 1659 00ee 2372     		strb	r3, [r4, #8]
 1660              	.L77:
 518:ui.c          **** 
 1661              		.loc 1 518 0
 1662 00f0 2000     		movs	r0, r4
 1663 00f2 09B0     		add	sp, sp, #36
 1664              		@ sp needed
 1665              	.LVL196:
 1666 00f4 30BD     		pop	{r4, r5, pc}
 1667              	.L87:
 1668 00f6 C046     		.align	2
 1669              	.L86:
 1670 00f8 F8000000 		.word	.LC65
 1671 00fc 04010000 		.word	.LC67
 1672 0100 00000000 		.word	settings
ARM GAS  C:\Users\VIDEOH~1\AppData\Local\Temp\ccM4oHTP.s 			page 49


 1673 0104 00000000 		.word	EEPROM_context
 1674 0108 00000000 		.word	overlimit
 1675              		.cfi_endproc
 1676              	.LFE53:
 1677              		.size	set_contrast, .-set_contrast
 1678              		.section	.text.overlimit,"ax",%progbits
 1679              		.align	2
 1680              		.code	16
 1681              		.thumb_func
 1682              		.type	overlimit, %function
 1683              	overlimit:
 1684              	.LFB55:
 583:ui.c          **** 	Display_Clear(0, 0, 8, 160, 0xFF);
 1685              		.loc 1 583 0
 1686              		.cfi_startproc
 1687              		@ args = 0, pretend = 0, frame = 16
 1688              		@ frame_needed = 0, uses_anonymous_args = 0
 1689              	.LVL197:
 1690 0000 70B5     		push	{r4, r5, r6, lr}
 1691              		.cfi_def_cfa_offset 16
 1692              		.cfi_offset 4, -16
 1693              		.cfi_offset 5, -12
 1694              		.cfi_offset 6, -8
 1695              		.cfi_offset 14, -4
 1696 0002 86B0     		sub	sp, sp, #24
 1697              		.cfi_def_cfa_offset 40
 1698 0004 0400     		movs	r4, r0
 1699 0006 0D00     		movs	r5, r1
 584:ui.c          ****     switch((limit_type)arg) {
 1700              		.loc 1 584 0
 1701 0008 FF26     		movs	r6, #255
 1702 000a 0096     		str	r6, [sp]
 1703 000c A023     		movs	r3, #160
 1704 000e 0822     		movs	r2, #8
 1705 0010 0021     		movs	r1, #0
 1706              	.LVL198:
 1707 0012 0020     		movs	r0, #0
 1708              	.LVL199:
 1709 0014 FFF7FEFF 		bl	Display_Clear
 1710              	.LVL200:
 585:ui.c          ****     case LIMIT_TYPE_OVERTEMP:
 1711              		.loc 1 585 0
 1712 0018 3100     		movs	r1, r6
 1713 001a 2940     		ands	r1, r5
 1714 001c 02D0     		beq	.L90
 1715 001e 0129     		cmp	r1, #1
 1716 0020 07D0     		beq	.L91
 1717 0022 0CE0     		b	.L89
 1718              	.L90:
 587:ui.c          ****         break;
 1719              		.loc 1 587 0
 1720 0024 0123     		movs	r3, #1
 1721 0026 1B4A     		ldr	r2, .L95
 1722 0028 0621     		movs	r1, #6
 1723 002a 0220     		movs	r0, #2
 1724 002c FFF7FEFF 		bl	Display_DrawText
 1725              	.LVL201:
ARM GAS  C:\Users\VIDEOH~1\AppData\Local\Temp\ccM4oHTP.s 			page 50


 588:ui.c          ****     case LIMIT_TYPE_UNDERVOLT:
 1726              		.loc 1 588 0
 1727 0030 05E0     		b	.L89
 1728              	.L91:
 590:ui.c          ****         break;
 1729              		.loc 1 590 0
 1730 0032 0123     		movs	r3, #1
 1731 0034 184A     		ldr	r2, .L95+4
 1732 0036 0021     		movs	r1, #0
 1733 0038 0220     		movs	r0, #2
 1734 003a FFF7FEFF 		bl	Display_DrawText
 1735              	.LVL202:
 1736              	.L89:
 593:ui.c          **** 
 1737              		.loc 1 593 0
 1738 003e 0123     		movs	r3, #1
 1739 0040 164A     		ldr	r2, .L95+8
 1740 0042 2021     		movs	r1, #32
 1741 0044 0620     		movs	r0, #6
 1742 0046 FFF7FEFF 		bl	Display_DrawText
 1743              	.LVL203:
 596:ui.c          **** 	while(event.type != UI_EVENT_BUTTONPRESS || event.int_arg != 1) {
 1744              		.loc 1 596 0
 1745 004a 0022     		movs	r2, #0
 1746 004c 02AB     		add	r3, sp, #8
 1747 004e 1A70     		strb	r2, [r3]
 597:ui.c          **** 		next_event(&event);
 1748              		.loc 1 597 0
 1749 0050 0BE0     		b	.L92
 1750              	.L94:
 598:ui.c          **** 		if(get_output_mode() == OUTPUT_MODE_FEEDBACK)
 1751              		.loc 1 598 0
 1752 0052 02A8     		add	r0, sp, #8
 1753 0054 FFF7FEFF 		bl	next_event
 1754              	.LVL204:
 599:ui.c          **** 			return (state_func)STATE_MAIN;
 1755              		.loc 1 599 0
 1756 0058 FFF7FEFF 		bl	get_output_mode
 1757              	.LVL205:
 1758 005c 0228     		cmp	r0, #2
 1759 005e 04D1     		bne	.L92
 600:ui.c          **** 	}
 1760              		.loc 1 600 0
 1761 0060 0023     		movs	r3, #0
 1762 0062 2360     		str	r3, [r4]
 1763 0064 6360     		str	r3, [r4, #4]
 1764 0066 2372     		strb	r3, [r4, #8]
 1765 0068 10E0     		b	.L88
 1766              	.L92:
 597:ui.c          **** 		next_event(&event);
 1767              		.loc 1 597 0
 1768 006a 02AB     		add	r3, sp, #8
 1769 006c 1B78     		ldrb	r3, [r3]
 1770 006e 012B     		cmp	r3, #1
 1771 0070 EFD1     		bne	.L94
 597:ui.c          **** 		next_event(&event);
 1772              		.loc 1 597 0 is_stmt 0 discriminator 1
ARM GAS  C:\Users\VIDEOH~1\AppData\Local\Temp\ccM4oHTP.s 			page 51


 1773 0072 039B     		ldr	r3, [sp, #12]
 1774 0074 012B     		cmp	r3, #1
 1775 0076 ECD1     		bne	.L94
 603:ui.c          **** 	set_output_mode(OUTPUT_MODE_FEEDBACK);
 1776              		.loc 1 603 0 is_stmt 1
 1777 0078 0020     		movs	r0, #0
 1778 007a FFF7FEFF 		bl	set_current
 1779              	.LVL206:
 604:ui.c          **** 	return (state_func)STATE_MAIN;
 1780              		.loc 1 604 0
 1781 007e 0220     		movs	r0, #2
 1782 0080 FFF7FEFF 		bl	set_output_mode
 1783              	.LVL207:
 605:ui.c          **** }
 1784              		.loc 1 605 0
 1785 0084 0023     		movs	r3, #0
 1786 0086 2360     		str	r3, [r4]
 1787 0088 6360     		str	r3, [r4, #4]
 1788 008a 2372     		strb	r3, [r4, #8]
 1789              	.L88:
 606:ui.c          **** 
 1790              		.loc 1 606 0
 1791 008c 2000     		movs	r0, r4
 1792 008e 06B0     		add	sp, sp, #24
 1793              		@ sp needed
 1794              	.LVL208:
 1795              	.LVL209:
 1796 0090 70BD     		pop	{r4, r5, r6, pc}
 1797              	.L96:
 1798 0092 C046     		.align	2
 1799              	.L95:
 1800 0094 0C010000 		.word	.LC72
 1801 0098 1C010000 		.word	.LC74
 1802 009c 2C010000 		.word	.LC76
 1803              		.cfi_endproc
 1804              	.LFE55:
 1805              		.size	overlimit, .-overlimit
 1806              		.section	.text.draw_menu,"ax",%progbits
 1807              		.align	2
 1808              		.code	16
 1809              		.thumb_func
 1810              		.type	draw_menu, %function
 1811              	draw_menu:
 1812              	.LFB39:
 281:ui.c          **** 	int start_row = 0;
 1813              		.loc 1 281 0
 1814              		.cfi_startproc
 1815              		@ args = 0, pretend = 0, frame = 8
 1816              		@ frame_needed = 0, uses_anonymous_args = 0
 1817              	.LVL210:
 1818 0000 F0B5     		push	{r4, r5, r6, r7, lr}
 1819              		.cfi_def_cfa_offset 20
 1820              		.cfi_offset 4, -20
 1821              		.cfi_offset 5, -16
 1822              		.cfi_offset 6, -12
 1823              		.cfi_offset 7, -8
 1824              		.cfi_offset 14, -4
ARM GAS  C:\Users\VIDEOH~1\AppData\Local\Temp\ccM4oHTP.s 			page 52


 1825 0002 5746     		mov	r7, r10
 1826 0004 4E46     		mov	r6, r9
 1827 0006 4546     		mov	r5, r8
 1828 0008 E0B4     		push	{r5, r6, r7}
 1829              		.cfi_def_cfa_offset 32
 1830              		.cfi_offset 8, -32
 1831              		.cfi_offset 9, -28
 1832              		.cfi_offset 10, -24
 1833 000a 84B0     		sub	sp, sp, #16
 1834              		.cfi_def_cfa_offset 48
 1835 000c 0700     		movs	r7, r0
 1836 000e 0C00     		movs	r4, r1
 1837              	.LVL211:
 285:ui.c          **** 		int8 padding = (158 - strlen(menu->title) * 12) / 2;
 1838              		.loc 1 285 0
 1839 0010 0068     		ldr	r0, [r0]
 1840              	.LVL212:
 1841 0012 0028     		cmp	r0, #0
 1842 0014 27D0     		beq	.L107
 1843              	.LBB4:
 286:ui.c          **** 		Display_Clear(0, 2, 2, padding + 1, 0xFF);
 1844              		.loc 1 286 0
 1845 0016 FFF7FEFF 		bl	strlen
 1846              	.LVL213:
 1847 001a 4300     		lsls	r3, r0, #1
 1848 001c 1818     		adds	r0, r3, r0
 1849 001e 8500     		lsls	r5, r0, #2
 1850 0020 9E23     		movs	r3, #158
 1851 0022 5D1B     		subs	r5, r3, r5
 1852 0024 6D08     		lsrs	r5, r5, #1
 1853              	.LVL214:
 287:ui.c          **** 		Display_DrawText(0, padding + 1, menu->title, 1);
 1854              		.loc 1 287 0
 1855 0026 EDB2     		uxtb	r5, r5
 1856 0028 6E1C     		adds	r6, r5, #1
 1857 002a F3B2     		uxtb	r3, r6
 1858 002c FF26     		movs	r6, #255
 1859 002e 0096     		str	r6, [sp]
 1860 0030 0393     		str	r3, [sp, #12]
 1861 0032 0222     		movs	r2, #2
 1862 0034 0221     		movs	r1, #2
 1863 0036 0020     		movs	r0, #0
 1864 0038 FFF7FEFF 		bl	Display_Clear
 1865              	.LVL215:
 288:ui.c          **** 		Display_Clear(0, 160 - padding - 1, 2, 160, 0xFF);
 1866              		.loc 1 288 0
 1867 003c 0123     		movs	r3, #1
 1868 003e 3A68     		ldr	r2, [r7]
 1869 0040 0399     		ldr	r1, [sp, #12]
 1870 0042 0020     		movs	r0, #0
 1871 0044 FFF7FEFF 		bl	Display_DrawText
 1872              	.LVL216:
 289:ui.c          **** 		start_row++;
 1873              		.loc 1 289 0
 1874 0048 6121     		movs	r1, #97
 1875 004a 4942     		rsbs	r1, r1, #0
 1876 004c 491B     		subs	r1, r1, r5
ARM GAS  C:\Users\VIDEOH~1\AppData\Local\Temp\ccM4oHTP.s 			page 53


 1877 004e C9B2     		uxtb	r1, r1
 1878 0050 0096     		str	r6, [sp]
 1879 0052 A023     		movs	r3, #160
 1880 0054 0222     		movs	r2, #2
 1881 0056 0020     		movs	r0, #0
 1882 0058 FFF7FEFF 		bl	Display_Clear
 1883              	.LVL217:
 291:ui.c          **** 	}
 1884              		.loc 1 291 0
 1885 005c 0323     		movs	r3, #3
 1886 005e 9946     		mov	r9, r3
 290:ui.c          **** 		height--;
 1887              		.loc 1 290 0
 1888 0060 023B     		subs	r3, r3, #2
 1889 0062 9A46     		mov	r10, r3
 1890 0064 03E0     		b	.L98
 1891              	.LVL218:
 1892              	.L107:
 1893              	.LBE4:
 283:ui.c          **** 
 1894              		.loc 1 283 0
 1895 0066 0423     		movs	r3, #4
 1896 0068 9946     		mov	r9, r3
 282:ui.c          **** 	int height = 4;
 1897              		.loc 1 282 0
 1898 006a 0023     		movs	r3, #0
 1899 006c 9A46     		mov	r10, r3
 1900              	.LVL219:
 1901              	.L98:
 294:ui.c          **** 
 1902              		.loc 1 294 0
 1903 006e 5346     		mov	r3, r10
 1904 0070 5D00     		lsls	r5, r3, #1
 1905 0072 EDB2     		uxtb	r5, r5
 1906 0074 4946     		mov	r1, r9
 1907 0076 2000     		movs	r0, r4
 1908 0078 FFF7FEFF 		bl	__aeabi_idiv
 1909              	.LVL220:
 1910 007c 0028     		cmp	r0, #0
 1911 007e 01DD     		ble	.L108
 1912 0080 2F4A     		ldr	r2, .L110
 1913 0082 00E0     		b	.L99
 1914              	.L108:
 1915 0084 2F4A     		ldr	r2, .L110+4
 1916              	.L99:
 294:ui.c          **** 
 1917              		.loc 1 294 0 is_stmt 0 discriminator 4
 1918 0086 0023     		movs	r3, #0
 1919 0088 9421     		movs	r1, #148
 1920 008a 2800     		movs	r0, r5
 1921 008c FFF7FEFF 		bl	Display_DrawText
 1922              	.LVL221:
 297:ui.c          **** 	selected %= height;
 1923              		.loc 1 297 0 is_stmt 1 discriminator 4
 1924 0090 4946     		mov	r1, r9
 1925 0092 2000     		movs	r0, r4
 1926 0094 FFF7FEFF 		bl	__aeabi_idivmod
ARM GAS  C:\Users\VIDEOH~1\AppData\Local\Temp\ccM4oHTP.s 			page 54


 1927              	.LVL222:
 1928 0098 8846     		mov	r8, r1
 1929 009a 641A     		subs	r4, r4, r1
 1930              	.LVL223:
 1931 009c 2401     		lsls	r4, r4, #4
 1932 009e 3F19     		adds	r7, r7, r4
 1933              	.LVL224:
 1934 00a0 0437     		adds	r7, r7, #4
 1935              	.LVL225:
 1936              	.LBB5:
 300:ui.c          **** 		if(current->caption != NULL) {
 1937              		.loc 1 300 0 discriminator 4
 1938 00a2 0025     		movs	r5, #0
 1939 00a4 33E0     		b	.L100
 1940              	.LVL226:
 1941              	.L104:
 301:ui.c          **** 			Display_DrawText((i + start_row) * 2, 2, current->caption, i == selected);
 1942              		.loc 1 301 0
 1943 00a6 3A68     		ldr	r2, [r7]
 1944 00a8 002A     		cmp	r2, #0
 1945 00aa 22D0     		beq	.L101
 302:ui.c          **** 			Display_Clear((i + start_row) * 2, strlen(current->caption) * 12 + 1, (i + start_row + 1) * 2, 1
 1946              		.loc 1 302 0
 1947 00ac 5346     		mov	r3, r10
 1948 00ae 5C19     		adds	r4, r3, r5
 1949 00b0 6600     		lsls	r6, r4, #1
 1950 00b2 F6B2     		uxtb	r6, r6
 1951 00b4 4346     		mov	r3, r8
 1952 00b6 EB1A     		subs	r3, r5, r3
 1953 00b8 5842     		rsbs	r0, r3, #0
 1954 00ba 5841     		adcs	r0, r0, r3
 1955 00bc C3B2     		uxtb	r3, r0
 1956 00be 0221     		movs	r1, #2
 1957 00c0 3000     		movs	r0, r6
 1958 00c2 FFF7FEFF 		bl	Display_DrawText
 1959              	.LVL227:
 303:ui.c          **** 			current++;
 1960              		.loc 1 303 0
 1961 00c6 3868     		ldr	r0, [r7]
 1962 00c8 FFF7FEFF 		bl	strlen
 1963              	.LVL228:
 1964 00cc 0C21     		movs	r1, #12
 1965 00ce 4143     		muls	r1, r0
 1966 00d0 0131     		adds	r1, r1, #1
 1967 00d2 C9B2     		uxtb	r1, r1
 1968 00d4 0134     		adds	r4, r4, #1
 1969 00d6 6400     		lsls	r4, r4, #1
 1970 00d8 E2B2     		uxtb	r2, r4
 1971 00da 4545     		cmp	r5, r8
 1972 00dc 01D1     		bne	.L109
 1973 00de FF23     		movs	r3, #255
 1974 00e0 00E0     		b	.L102
 1975              	.L109:
 1976 00e2 0023     		movs	r3, #0
 1977              	.L102:
 303:ui.c          **** 			current++;
 1978              		.loc 1 303 0 is_stmt 0 discriminator 4
ARM GAS  C:\Users\VIDEOH~1\AppData\Local\Temp\ccM4oHTP.s 			page 55


 1979 00e4 0093     		str	r3, [sp]
 1980 00e6 9423     		movs	r3, #148
 1981 00e8 3000     		movs	r0, r6
 1982 00ea FFF7FEFF 		bl	Display_Clear
 1983              	.LVL229:
 304:ui.c          **** 		} else {
 1984              		.loc 1 304 0 is_stmt 1 discriminator 4
 1985 00ee 1037     		adds	r7, r7, #16
 1986              	.LVL230:
 1987 00f0 0CE0     		b	.L103
 1988              	.L101:
 306:ui.c          **** 		}
 1989              		.loc 1 306 0
 1990 00f2 5346     		mov	r3, r10
 1991 00f4 5819     		adds	r0, r3, r5
 1992 00f6 421C     		adds	r2, r0, #1
 1993 00f8 5200     		lsls	r2, r2, #1
 1994 00fa D2B2     		uxtb	r2, r2
 1995 00fc 4000     		lsls	r0, r0, #1
 1996 00fe C0B2     		uxtb	r0, r0
 1997 0100 0023     		movs	r3, #0
 1998 0102 0093     		str	r3, [sp]
 1999 0104 A033     		adds	r3, r3, #160
 2000 0106 0121     		movs	r1, #1
 2001 0108 FFF7FEFF 		bl	Display_Clear
 2002              	.LVL231:
 2003              	.L103:
 300:ui.c          **** 		if(current->caption != NULL) {
 2004              		.loc 1 300 0 discriminator 2
 2005 010c 0135     		adds	r5, r5, #1
 2006              	.LVL232:
 2007              	.L100:
 300:ui.c          **** 		if(current->caption != NULL) {
 2008              		.loc 1 300 0 is_stmt 0 discriminator 1
 2009 010e A945     		cmp	r9, r5
 2010 0110 C9DC     		bgt	.L104
 2011              	.LBE5:
 310:ui.c          **** 		Display_DrawText(6, 148, FONT_GLYPH_DARR, 0);
 2012              		.loc 1 310 0 is_stmt 1
 2013 0112 3B68     		ldr	r3, [r7]
 2014 0114 002B     		cmp	r3, #0
 2015 0116 06D0     		beq	.L105
 311:ui.c          **** 	} else {
 2016              		.loc 1 311 0
 2017 0118 0023     		movs	r3, #0
 2018 011a 0B4A     		ldr	r2, .L110+8
 2019 011c 9421     		movs	r1, #148
 2020 011e 0620     		movs	r0, #6
 2021 0120 FFF7FEFF 		bl	Display_DrawText
 2022              	.LVL233:
 2023 0124 05E0     		b	.L97
 2024              	.L105:
 313:ui.c          **** 	}
 2025              		.loc 1 313 0
 2026 0126 0023     		movs	r3, #0
 2027 0128 064A     		ldr	r2, .L110+4
 2028 012a 9421     		movs	r1, #148
ARM GAS  C:\Users\VIDEOH~1\AppData\Local\Temp\ccM4oHTP.s 			page 56


 2029 012c 0620     		movs	r0, #6
 2030 012e FFF7FEFF 		bl	Display_DrawText
 2031              	.LVL234:
 2032              	.L97:
 315:ui.c          **** 
 2033              		.loc 1 315 0
 2034 0132 04B0     		add	sp, sp, #16
 2035              		@ sp needed
 2036              	.LVL235:
 2037              	.LVL236:
 2038              	.LVL237:
 2039              	.LVL238:
 2040              	.LVL239:
 2041 0134 1CBC     		pop	{r2, r3, r4}
 2042 0136 9046     		mov	r8, r2
 2043 0138 9946     		mov	r9, r3
 2044 013a A246     		mov	r10, r4
 2045 013c F0BD     		pop	{r4, r5, r6, r7, pc}
 2046              	.L111:
 2047 013e C046     		.align	2
 2048              	.L110:
 2049 0140 38010000 		.word	.LC78
 2050 0144 38000000 		.word	.LC14
 2051 0148 3C010000 		.word	.LC81
 2052              		.cfi_endproc
 2053              	.LFE39:
 2054              		.size	draw_menu, .-draw_menu
 2055              		.section	.text.menu,"ax",%progbits
 2056              		.align	2
 2057              		.code	16
 2058              		.thumb_func
 2059              		.type	menu, %function
 2060              	menu:
 2061              	.LFB56:
 608:ui.c          **** 	const menudata *menu = (const menudata *)arg;
 2062              		.loc 1 608 0
 2063              		.cfi_startproc
 2064              		@ args = 0, pretend = 0, frame = 16
 2065              		@ frame_needed = 0, uses_anonymous_args = 0
 2066              	.LVL240:
 2067 0000 70B5     		push	{r4, r5, r6, lr}
 2068              		.cfi_def_cfa_offset 16
 2069              		.cfi_offset 4, -16
 2070              		.cfi_offset 5, -12
 2071              		.cfi_offset 6, -8
 2072              		.cfi_offset 14, -4
 2073 0002 84B0     		sub	sp, sp, #16
 2074              		.cfi_def_cfa_offset 32
 2075 0004 0500     		movs	r5, r0
 2076 0006 0E00     		movs	r6, r1
 2077              	.LVL241:
 611:ui.c          **** 
 2078              		.loc 1 611 0
 2079 0008 FFF7FEFF 		bl	Display_ClearAll
 2080              	.LVL242:
 615:ui.c          **** 	while(event.type != UI_EVENT_BUTTONPRESS || event.int_arg != 1) {
 2081              		.loc 1 615 0
ARM GAS  C:\Users\VIDEOH~1\AppData\Local\Temp\ccM4oHTP.s 			page 57


 2082 000c 0023     		movs	r3, #0
 2083 000e 6A46     		mov	r2, sp
 2084 0010 1370     		strb	r3, [r2]
 613:ui.c          **** 	ui_event event;
 2085              		.loc 1 613 0
 2086 0012 0024     		movs	r4, #0
 616:ui.c          **** 		draw_menu(menu, selected);
 2087              		.loc 1 616 0
 2088 0014 28E0     		b	.L113
 2089              	.LVL243:
 2090              	.L120:
 617:ui.c          **** 		next_event(&event);
 2091              		.loc 1 617 0
 2092 0016 2100     		movs	r1, r4
 2093 0018 3000     		movs	r0, r6
 2094 001a FFF7FEFF 		bl	draw_menu
 2095              	.LVL244:
 618:ui.c          **** 		switch(event.type) {
 2096              		.loc 1 618 0
 2097 001e 6846     		mov	r0, sp
 2098 0020 FFF7FEFF 		bl	next_event
 2099              	.LVL245:
 619:ui.c          **** 		case UI_EVENT_UPDOWN:
 2100              		.loc 1 619 0
 2101 0024 6B46     		mov	r3, sp
 2102 0026 1B78     		ldrb	r3, [r3]
 2103 0028 032B     		cmp	r3, #3
 2104 002a 02D0     		beq	.L115
 2105 002c 052B     		cmp	r3, #5
 2106 002e 14D0     		beq	.L116
 2107 0030 1AE0     		b	.L113
 2108              	.L115:
 621:ui.c          **** 				// Move up the menu
 2109              		.loc 1 621 0
 2110 0032 0198     		ldr	r0, [sp, #4]
 2111 0034 0028     		cmp	r0, #0
 2112 0036 0CDA     		bge	.L121
 623:ui.c          **** 					selected += event.int_arg;
 2113              		.loc 1 623 0
 2114 0038 2418     		adds	r4, r4, r0
 2115 003a 15D5     		bpl	.L113
 2116              	.LVL246:
 626:ui.c          **** 				}
 2117              		.loc 1 626 0
 2118 003c 0024     		movs	r4, #0
 2119 003e 13E0     		b	.L113
 2120              	.LVL247:
 2121              	.L118:
 2122              	.LBB6:
 631:ui.c          **** 						break;
 2123              		.loc 1 631 0
 2124 0040 611C     		adds	r1, r4, #1
 2125 0042 0B01     		lsls	r3, r1, #4
 2126 0044 F318     		adds	r3, r6, r3
 2127 0046 5B68     		ldr	r3, [r3, #4]
 2128 0048 002B     		cmp	r3, #0
 2129 004a 0DD0     		beq	.L113
ARM GAS  C:\Users\VIDEOH~1\AppData\Local\Temp\ccM4oHTP.s 			page 58


 2130              	.LVL248:
 630:ui.c          **** 					if(menu->items[selected + 1].caption == NULL)
 2131              		.loc 1 630 0 discriminator 2
 2132 004c 0132     		adds	r2, r2, #1
 2133              	.LVL249:
 633:ui.c          **** 				}
 2134              		.loc 1 633 0 discriminator 2
 2135 004e 0C00     		movs	r4, r1
 2136 0050 00E0     		b	.L117
 2137              	.LVL250:
 2138              	.L121:
 2139              	.LBE6:
 2140 0052 0022     		movs	r2, #0
 2141              	.L117:
 2142              	.LVL251:
 2143              	.LBB7:
 630:ui.c          **** 					if(menu->items[selected + 1].caption == NULL)
 2144              		.loc 1 630 0 discriminator 1
 2145 0054 8242     		cmp	r2, r0
 2146 0056 F3DB     		blt	.L118
 2147 0058 06E0     		b	.L113
 2148              	.LVL252:
 2149              	.L116:
 2150              	.LBE7:
 638:ui.c          **** 		default:
 2151              		.loc 1 638 0
 2152 005a 0C4B     		ldr	r3, .L122
 2153 005c 2B60     		str	r3, [r5]
 2154 005e 019B     		ldr	r3, [sp, #4]
 2155 0060 6B60     		str	r3, [r5, #4]
 2156 0062 0023     		movs	r3, #0
 2157 0064 2B72     		strb	r3, [r5, #8]
 2158 0066 0DE0     		b	.L112
 2159              	.LVL253:
 2160              	.L113:
 616:ui.c          **** 		draw_menu(menu, selected);
 2161              		.loc 1 616 0
 2162 0068 6B46     		mov	r3, sp
 2163 006a 1B78     		ldrb	r3, [r3]
 2164 006c 012B     		cmp	r3, #1
 2165 006e D2D1     		bne	.L120
 616:ui.c          **** 		draw_menu(menu, selected);
 2166              		.loc 1 616 0 is_stmt 0 discriminator 1
 2167 0070 019B     		ldr	r3, [sp, #4]
 2168 0072 012B     		cmp	r3, #1
 2169 0074 CFD1     		bne	.L120
 644:ui.c          **** }
 2170              		.loc 1 644 0 is_stmt 1
 2171 0076 2301     		lsls	r3, r4, #4
 2172 0078 F418     		adds	r4, r6, r3
 2173              	.LVL254:
 2174 007a 2300     		movs	r3, r4
 2175 007c 0833     		adds	r3, r3, #8
 2176 007e 2A00     		movs	r2, r5
 2177 0080 13CB     		ldmia	r3!, {r0, r1, r4}
 2178 0082 13C2     		stmia	r2!, {r0, r1, r4}
 2179              	.L112:
ARM GAS  C:\Users\VIDEOH~1\AppData\Local\Temp\ccM4oHTP.s 			page 59


 645:ui.c          **** 
 2180              		.loc 1 645 0
 2181 0084 2800     		movs	r0, r5
 2182 0086 04B0     		add	sp, sp, #16
 2183              		@ sp needed
 2184              	.LVL255:
 2185              	.LVL256:
 2186 0088 70BD     		pop	{r4, r5, r6, pc}
 2187              	.L123:
 2188 008a C046     		.align	2
 2189              	.L122:
 2190 008c 00000000 		.word	overlimit
 2191              		.cfi_endproc
 2192              	.LFE56:
 2193              		.size	menu, .-menu
 2194              		.section	.text.display_config,"ax",%progbits
 2195              		.align	2
 2196              		.code	16
 2197              		.thumb_func
 2198              		.type	display_config, %function
 2199              	display_config:
 2200              	.LFB49:
 406:ui.c          **** 	const display_config_t *config = &settings->display_settings.numbered[(int)arg];
 2201              		.loc 1 406 0
 2202              		.cfi_startproc
 2203              		@ args = 0, pretend = 0, frame = 32
 2204              		@ frame_needed = 0, uses_anonymous_args = 0
 2205              	.LVL257:
 2206 0000 F0B5     		push	{r4, r5, r6, r7, lr}
 2207              		.cfi_def_cfa_offset 20
 2208              		.cfi_offset 4, -20
 2209              		.cfi_offset 5, -16
 2210              		.cfi_offset 6, -12
 2211              		.cfi_offset 7, -8
 2212              		.cfi_offset 14, -4
 2213 0002 89B0     		sub	sp, sp, #36
 2214              		.cfi_def_cfa_offset 56
 2215 0004 0500     		movs	r5, r0
 2216 0006 0F00     		movs	r7, r1
 407:ui.c          **** 
 2217              		.loc 1 407 0
 2218 0008 184B     		ldr	r3, .L128
 2219 000a 1E68     		ldr	r6, [r3]
 2220              	.LVL258:
 409:ui.c          **** 	if(display.arg == NULL)
 2221              		.loc 1 409 0
 2222 000c 1849     		ldr	r1, .L128+4
 2223              	.LVL259:
 2224 000e 04A8     		add	r0, sp, #16
 2225              	.LVL260:
 2226 0010 FFF7FEFF 		bl	menu
 2227              	.LVL261:
 410:ui.c          **** 		return display;
 2228              		.loc 1 410 0
 2229 0014 059C     		ldr	r4, [sp, #20]
 2230 0016 002C     		cmp	r4, #0
 2231 0018 04D1     		bne	.L125
ARM GAS  C:\Users\VIDEOH~1\AppData\Local\Temp\ccM4oHTP.s 			page 60


 411:ui.c          **** 
 2232              		.loc 1 411 0
 2233 001a 04AB     		add	r3, sp, #16
 2234 001c 2A00     		movs	r2, r5
 2235 001e 13CB     		ldmia	r3!, {r0, r1, r4}
 2236 0020 13C2     		stmia	r2!, {r0, r1, r4}
 2237 0022 1FE0     		b	.L124
 2238              	.L125:
 413:ui.c          **** 	if(readout.arg == NULL)
 2239              		.loc 1 413 0
 2240 0024 1249     		ldr	r1, .L128+4
 2241 0026 5431     		adds	r1, r1, #84
 2242 0028 01A8     		add	r0, sp, #4
 2243 002a FFF7FEFF 		bl	menu
 2244              	.LVL262:
 414:ui.c          **** 		return readout;
 2245              		.loc 1 414 0
 2246 002e 029A     		ldr	r2, [sp, #8]
 2247 0030 002A     		cmp	r2, #0
 2248 0032 04D1     		bne	.L127
 415:ui.c          **** 
 2249              		.loc 1 415 0
 2250 0034 01AB     		add	r3, sp, #4
 2251 0036 2A00     		movs	r2, r5
 2252 0038 13CB     		ldmia	r3!, {r0, r1, r4}
 2253 003a 13C2     		stmia	r2!, {r0, r1, r4}
 2254 003c 12E0     		b	.L124
 2255              	.L127:
 417:ui.c          **** 
 2256              		.loc 1 417 0
 2257 003e 631E     		subs	r3, r4, #1
 2258 0040 7800     		lsls	r0, r7, #1
 2259 0042 3818     		adds	r0, r7, r0
 2260 0044 C018     		adds	r0, r0, r3
 2261 0046 0830     		adds	r0, r0, #8
 2262 0048 3418     		adds	r4, r6, r0
 2263 004a 0848     		ldr	r0, .L128
 2264 004c 001B     		subs	r0, r0, r4
 2265 004e 1F21     		movs	r1, #31
 2266 0050 6944     		add	r1, r1, sp
 2267 0052 0A70     		strb	r2, [r1]
 2268 0054 074B     		ldr	r3, .L128+8
 2269 0056 0122     		movs	r2, #1
 2270 0058 FFF7FEFF 		bl	Cy_Em_EEPROM_Write
 2271              	.LVL263:
 419:ui.c          **** }
 2272              		.loc 1 419 0
 2273 005c 0023     		movs	r3, #0
 2274 005e 2B60     		str	r3, [r5]
 2275 0060 6B60     		str	r3, [r5, #4]
 2276 0062 2B72     		strb	r3, [r5, #8]
 2277              	.L124:
 420:ui.c          **** 
 2278              		.loc 1 420 0
 2279 0064 2800     		movs	r0, r5
 2280 0066 09B0     		add	sp, sp, #36
 2281              		@ sp needed
ARM GAS  C:\Users\VIDEOH~1\AppData\Local\Temp\ccM4oHTP.s 			page 61


 2282              	.LVL264:
 2283              	.LVL265:
 2284              	.LVL266:
 2285 0068 F0BD     		pop	{r4, r5, r6, r7, pc}
 2286              	.L129:
 2287 006a C046     		.align	2
 2288              	.L128:
 2289 006c 00000000 		.word	settings
 2290 0070 00000000 		.word	.LANCHOR2
 2291 0074 00000000 		.word	EEPROM_context
 2292              		.cfi_endproc
 2293              	.LFE49:
 2294              		.size	display_config, .-display_config
 2295              		.section	.text.ui_set_min_voltage,"ax",%progbits
 2296              		.align	2
 2297              		.code	16
 2298              		.thumb_func
 2299              		.type	ui_set_min_voltage, %function
 2300              	ui_set_min_voltage:
 2301              	.LFB54:
 520:ui.c          ****     Display_ClearAll();
 2302              		.loc 1 520 0
 2303              		.cfi_startproc
 2304              		@ args = 0, pretend = 0, frame = 32
 2305              		@ frame_needed = 0, uses_anonymous_args = 0
 2306              	.LVL267:
 2307 0000 F0B5     		push	{r4, r5, r6, r7, lr}
 2308              		.cfi_def_cfa_offset 20
 2309              		.cfi_offset 4, -20
 2310              		.cfi_offset 5, -16
 2311              		.cfi_offset 6, -12
 2312              		.cfi_offset 7, -8
 2313              		.cfi_offset 14, -4
 2314 0002 8BB0     		sub	sp, sp, #44
 2315              		.cfi_def_cfa_offset 64
 2316 0004 0700     		movs	r7, r0
 521:ui.c          **** 	Display_Clear(0, 2, 2, 160, 0xFF);
 2317              		.loc 1 521 0
 2318 0006 FFF7FEFF 		bl	Display_ClearAll
 2319              	.LVL268:
 522:ui.c          **** 	Display_DrawText(0, 20, "Min Voltage", 1);
 2320              		.loc 1 522 0
 2321 000a FF23     		movs	r3, #255
 2322 000c 0093     		str	r3, [sp]
 2323 000e 5F3B     		subs	r3, r3, #95
 2324 0010 0222     		movs	r2, #2
 2325 0012 0221     		movs	r1, #2
 2326 0014 0020     		movs	r0, #0
 2327 0016 FFF7FEFF 		bl	Display_Clear
 2328              	.LVL269:
 523:ui.c          **** 
 2329              		.loc 1 523 0
 2330 001a 0123     		movs	r3, #1
 2331 001c 4A4A     		ldr	r2, .L145
 2332 001e 1421     		movs	r1, #20
 2333 0020 0020     		movs	r0, #0
 2334 0022 FFF7FEFF 		bl	Display_DrawText
ARM GAS  C:\Users\VIDEOH~1\AppData\Local\Temp\ccM4oHTP.s 			page 62


 2335              	.LVL270:
 526:ui.c          ****     int vlim = on?state.lower_voltage_limit:get_voltage();
 2336              		.loc 1 526 0
 2337 0026 494B     		ldr	r3, .L145+4
 2338 0028 5D68     		ldr	r5, [r3, #4]
 2339 002a 6C1C     		adds	r4, r5, #1
 2340 002c 631E     		subs	r3, r4, #1
 2341 002e 9C41     		sbcs	r4, r4, r3
 2342 0030 E4B2     		uxtb	r4, r4
 2343              	.LVL271:
 527:ui.c          ****     vlim -= vlim % 100000;
 2344              		.loc 1 527 0
 2345 0032 6B1C     		adds	r3, r5, #1
 2346 0034 02D1     		bne	.L131
 527:ui.c          ****     vlim -= vlim % 100000;
 2347              		.loc 1 527 0 is_stmt 0 discriminator 2
 2348 0036 FFF7FEFF 		bl	get_voltage
 2349              	.LVL272:
 2350 003a 0500     		movs	r5, r0
 2351              	.L131:
 2352              	.LVL273:
 528:ui.c          ****     uint8_t stage = 0;
 2353              		.loc 1 528 0 is_stmt 1 discriminator 4
 2354 003c 4449     		ldr	r1, .L145+8
 2355 003e 2800     		movs	r0, r5
 2356 0040 FFF7FEFF 		bl	__aeabi_idivmod
 2357              	.LVL274:
 2358 0044 6B1A     		subs	r3, r5, r1
 2359 0046 0393     		str	r3, [sp, #12]
 2360              	.LVL275:
 529:ui.c          ****     char buf[8];
 2361              		.loc 1 529 0 discriminator 4
 2362 0048 0025     		movs	r5, #0
 532:ui.c          ****         Display_DrawText(4, 30, "ON", on);
 2363              		.loc 1 532 0 discriminator 4
 2364 004a 3FE0     		b	.L132
 2365              	.LVL276:
 2366              	.L138:
 533:ui.c          ****         Display_DrawText(4, 90, "OFF", !on);
 2367              		.loc 1 533 0
 2368 004c 2300     		movs	r3, r4
 2369 004e 414A     		ldr	r2, .L145+12
 2370 0050 1E21     		movs	r1, #30
 2371 0052 0420     		movs	r0, #4
 2372 0054 FFF7FEFF 		bl	Display_DrawText
 2373              	.LVL277:
 534:ui.c          ****         format_number(vlim, "V", buf);
 2374              		.loc 1 534 0
 2375 0058 6342     		rsbs	r3, r4, #0
 2376 005a 6341     		adcs	r3, r3, r4
 2377 005c DBB2     		uxtb	r3, r3
 2378 005e 3E4A     		ldr	r2, .L145+16
 2379 0060 5A21     		movs	r1, #90
 2380 0062 0420     		movs	r0, #4
 2381 0064 FFF7FEFF 		bl	Display_DrawText
 2382              	.LVL278:
 535:ui.c          ****         Display_DrawText(6, 48, buf, 0);
ARM GAS  C:\Users\VIDEOH~1\AppData\Local\Temp\ccM4oHTP.s 			page 63


 2383              		.loc 1 535 0
 2384 0068 04AA     		add	r2, sp, #16
 2385 006a 3C49     		ldr	r1, .L145+20
 2386 006c 0398     		ldr	r0, [sp, #12]
 2387 006e FFF7FEFF 		bl	format_number
 2388              	.LVL279:
 536:ui.c          **** 
 2389              		.loc 1 536 0
 2390 0072 0023     		movs	r3, #0
 2391 0074 04AA     		add	r2, sp, #16
 2392 0076 3021     		movs	r1, #48
 2393 0078 0620     		movs	r0, #6
 2394 007a FFF7FEFF 		bl	Display_DrawText
 2395              	.LVL280:
 538:ui.c          ****         switch(event.type) {
 2396              		.loc 1 538 0
 2397 007e 06AE     		add	r6, sp, #24
 2398 0080 3000     		movs	r0, r6
 2399 0082 FFF7FEFF 		bl	next_event
 2400              	.LVL281:
 539:ui.c          ****         case UI_EVENT_UPDOWN:
 2401              		.loc 1 539 0
 2402 0086 3378     		ldrb	r3, [r6]
 2403 0088 032B     		cmp	r3, #3
 2404 008a 04D0     		beq	.L134
 2405 008c 052B     		cmp	r3, #5
 2406 008e 15D0     		beq	.L135
 2407 0090 012B     		cmp	r3, #1
 2408 0092 1BD1     		bne	.L132
 2409 0094 04E0     		b	.L136
 2410              	.L134:
 541:ui.c          ****             break;
 2411              		.loc 1 541 0
 2412 0096 0123     		movs	r3, #1
 2413 0098 079A     		ldr	r2, [sp, #28]
 2414 009a 1340     		ands	r3, r2
 2415 009c 5C40     		eors	r4, r3
 2416              	.LVL282:
 542:ui.c          ****         case UI_EVENT_BUTTONPRESS:
 2417              		.loc 1 542 0
 2418 009e 15E0     		b	.L132
 2419              	.L136:
 544:ui.c          ****                 break;
 2420              		.loc 1 544 0
 2421 00a0 079B     		ldr	r3, [sp, #28]
 2422 00a2 012B     		cmp	r3, #1
 2423 00a4 12D1     		bne	.L132
 546:ui.c          ****                 stage = 1;
 2424              		.loc 1 546 0
 2425 00a6 002C     		cmp	r4, #0
 2426 00a8 0FD1     		bne	.L144
 549:ui.c          ****                 return (state_func)STATE_MAIN;
 2427              		.loc 1 549 0
 2428 00aa 0122     		movs	r2, #1
 2429 00ac 5242     		rsbs	r2, r2, #0
 2430 00ae 274B     		ldr	r3, .L145+4
 2431 00b0 5A60     		str	r2, [r3, #4]
ARM GAS  C:\Users\VIDEOH~1\AppData\Local\Temp\ccM4oHTP.s 			page 64


 550:ui.c          ****             }
 2432              		.loc 1 550 0
 2433 00b2 0023     		movs	r3, #0
 2434 00b4 3B60     		str	r3, [r7]
 2435 00b6 7B60     		str	r3, [r7, #4]
 2436 00b8 3B72     		strb	r3, [r7, #8]
 2437 00ba 41E0     		b	.L130
 2438              	.L135:
 554:ui.c          ****         default:
 2439              		.loc 1 554 0
 2440 00bc 284B     		ldr	r3, .L145+24
 2441 00be 3B60     		str	r3, [r7]
 2442 00c0 079B     		ldr	r3, [sp, #28]
 2443 00c2 7B60     		str	r3, [r7, #4]
 2444 00c4 0023     		movs	r3, #0
 2445 00c6 3B72     		strb	r3, [r7, #8]
 2446 00c8 3AE0     		b	.L130
 2447              	.L144:
 547:ui.c          ****             } else {
 2448              		.loc 1 547 0
 2449 00ca 0125     		movs	r5, #1
 2450              	.LVL283:
 2451              	.L132:
 532:ui.c          ****         Display_DrawText(4, 30, "ON", on);
 2452              		.loc 1 532 0
 2453 00cc 002D     		cmp	r5, #0
 2454 00ce BDD0     		beq	.L138
 2455              	.LVL284:
 2456              	.L139:
 561:ui.c          ****         buf[strlen(buf) - 1] = '\0';
 2457              		.loc 1 561 0
 2458 00d0 04AC     		add	r4, sp, #16
 2459 00d2 2200     		movs	r2, r4
 2460 00d4 2149     		ldr	r1, .L145+20
 2461 00d6 0398     		ldr	r0, [sp, #12]
 2462 00d8 FFF7FEFF 		bl	format_number
 2463              	.LVL285:
 562:ui.c          ****         Display_DrawText(6, 48, buf, 1);
 2464              		.loc 1 562 0
 2465 00dc 2000     		movs	r0, r4
 2466 00de FFF7FEFF 		bl	strlen
 2467              	.LVL286:
 2468 00e2 0138     		subs	r0, r0, #1
 2469 00e4 0023     		movs	r3, #0
 2470 00e6 2354     		strb	r3, [r4, r0]
 563:ui.c          **** 
 2471              		.loc 1 563 0
 2472 00e8 0133     		adds	r3, r3, #1
 2473 00ea 2200     		movs	r2, r4
 2474 00ec 3021     		movs	r1, #48
 2475 00ee 0620     		movs	r0, #6
 2476 00f0 FFF7FEFF 		bl	Display_DrawText
 2477              	.LVL287:
 565:ui.c          ****         switch(event.type) {
 2478              		.loc 1 565 0
 2479 00f4 06AC     		add	r4, sp, #24
 2480 00f6 2000     		movs	r0, r4
ARM GAS  C:\Users\VIDEOH~1\AppData\Local\Temp\ccM4oHTP.s 			page 65


 2481 00f8 FFF7FEFF 		bl	next_event
 2482              	.LVL288:
 566:ui.c          ****         case UI_EVENT_UPDOWN:
 2483              		.loc 1 566 0
 2484 00fc 2378     		ldrb	r3, [r4]
 2485 00fe 032B     		cmp	r3, #3
 2486 0100 04D0     		beq	.L141
 2487 0102 052B     		cmp	r3, #5
 2488 0104 16D0     		beq	.L142
 2489 0106 012B     		cmp	r3, #1
 2490 0108 E2D1     		bne	.L139
 2491 010a 08E0     		b	.L143
 2492              	.L141:
 568:ui.c          ****             break;
 2493              		.loc 1 568 0
 2494 010c 104B     		ldr	r3, .L145+8
 2495 010e 079A     		ldr	r2, [sp, #28]
 2496 0110 5343     		muls	r3, r2
 2497 0112 039A     		ldr	r2, [sp, #12]
 2498 0114 9446     		mov	ip, r2
 2499 0116 9C44     		add	ip, ip, r3
 2500 0118 6346     		mov	r3, ip
 2501 011a 0393     		str	r3, [sp, #12]
 2502              	.LVL289:
 569:ui.c          ****         case UI_EVENT_BUTTONPRESS:
 2503              		.loc 1 569 0
 2504 011c D8E7     		b	.L139
 2505              	.LVL290:
 2506              	.L143:
 571:ui.c          ****                 break;
 2507              		.loc 1 571 0
 2508 011e 079B     		ldr	r3, [sp, #28]
 2509 0120 012B     		cmp	r3, #1
 2510 0122 D5D1     		bne	.L139
 573:ui.c          ****             return (state_func)STATE_MAIN;
 2511              		.loc 1 573 0
 2512 0124 094B     		ldr	r3, .L145+4
 2513 0126 039A     		ldr	r2, [sp, #12]
 2514 0128 5A60     		str	r2, [r3, #4]
 574:ui.c          ****         case UI_EVENT_LIMIT:
 2515              		.loc 1 574 0
 2516 012a 0023     		movs	r3, #0
 2517 012c 3B60     		str	r3, [r7]
 2518 012e 7B60     		str	r3, [r7, #4]
 2519 0130 3B72     		strb	r3, [r7, #8]
 2520 0132 05E0     		b	.L130
 2521              	.L142:
 576:ui.c          ****         default:
 2522              		.loc 1 576 0
 2523 0134 0A4B     		ldr	r3, .L145+24
 2524 0136 3B60     		str	r3, [r7]
 2525 0138 079B     		ldr	r3, [sp, #28]
 2526 013a 7B60     		str	r3, [r7, #4]
 2527 013c 0023     		movs	r3, #0
 2528 013e 3B72     		strb	r3, [r7, #8]
 2529              	.L130:
 581:ui.c          **** 
ARM GAS  C:\Users\VIDEOH~1\AppData\Local\Temp\ccM4oHTP.s 			page 66


 2530              		.loc 1 581 0
 2531 0140 3800     		movs	r0, r7
 2532 0142 0BB0     		add	sp, sp, #44
 2533              		@ sp needed
 2534              	.LVL291:
 2535              	.LVL292:
 2536 0144 F0BD     		pop	{r4, r5, r6, r7, pc}
 2537              	.L146:
 2538 0146 C046     		.align	2
 2539              	.L145:
 2540 0148 40010000 		.word	.LC87
 2541 014c 00000000 		.word	state
 2542 0150 A0860100 		.word	100000
 2543 0154 4C010000 		.word	.LC90
 2544 0158 50010000 		.word	.LC92
 2545 015c 3C000000 		.word	.LC16
 2546 0160 00000000 		.word	overlimit
 2547              		.cfi_endproc
 2548              	.LFE54:
 2549              		.size	ui_set_min_voltage, .-ui_set_min_voltage
 2550              		.section	.text.adjust_current_setpoint,"ax",%progbits
 2551              		.align	2
 2552              		.code	16
 2553              		.thumb_func
 2554              		.type	adjust_current_setpoint, %function
 2555              	adjust_current_setpoint:
 2556              	.LFB37:
 239:ui.c          ****     // Implement encoder acceleration
 2557              		.loc 1 239 0
 2558              		.cfi_startproc
 2559              		@ args = 0, pretend = 0, frame = 0
 2560              		@ frame_needed = 0, uses_anonymous_args = 0
 2561              	.LVL293:
 2562 0000 70B5     		push	{r4, r5, r6, lr}
 2563              		.cfi_def_cfa_offset 16
 2564              		.cfi_offset 4, -16
 2565              		.cfi_offset 5, -12
 2566              		.cfi_offset 6, -8
 2567              		.cfi_offset 14, -4
 2568 0002 0400     		movs	r4, r0
 241:ui.c          ****     if(step < 1)
 2569              		.loc 1 241 0
 2570 0004 2820     		movs	r0, #40
 2571              	.LVL294:
 2572 0006 FFF7FEFF 		bl	__aeabi_uidiv
 2573              	.LVL295:
 242:ui.c          ****         step = 1;
 2574              		.loc 1 242 0
 2575 000a 0028     		cmp	r0, #0
 2576 000c 00DC     		bgt	.L148
 243:ui.c          **** 	set_current(state.current_setpoint + delta * step * CURRENT_STEP);
 2577              		.loc 1 243 0
 2578 000e 0120     		movs	r0, #1
 2579              	.LVL296:
 2580              	.L148:
 244:ui.c          ****     uart_printf("set %d\r\n", state.current_setpoint / 1000);
 2581              		.loc 1 244 0
ARM GAS  C:\Users\VIDEOH~1\AppData\Local\Temp\ccM4oHTP.s 			page 67


 2582 0010 094D     		ldr	r5, .L150
 2583 0012 6043     		muls	r0, r4
 2584              	.LVL297:
 2585 0014 094B     		ldr	r3, .L150+4
 2586 0016 5843     		muls	r0, r3
 2587 0018 2B68     		ldr	r3, [r5]
 2588 001a 9C46     		mov	ip, r3
 2589 001c 6044     		add	r0, r0, ip
 2590 001e FFF7FEFF 		bl	set_current
 2591              	.LVL298:
 245:ui.c          **** }
 2592              		.loc 1 245 0
 2593 0022 2868     		ldr	r0, [r5]
 2594 0024 FA21     		movs	r1, #250
 2595 0026 8900     		lsls	r1, r1, #2
 2596 0028 FFF7FEFF 		bl	__aeabi_idiv
 2597              	.LVL299:
 2598 002c 0100     		movs	r1, r0
 2599 002e 0448     		ldr	r0, .L150+8
 2600 0030 FFF7FEFF 		bl	uart_printf
 2601              	.LVL300:
 246:ui.c          **** 
 2602              		.loc 1 246 0
 2603              		@ sp needed
 2604              	.LVL301:
 2605 0034 70BD     		pop	{r4, r5, r6, pc}
 2606              	.L151:
 2607 0036 C046     		.align	2
 2608              	.L150:
 2609 0038 00000000 		.word	state
 2610 003c 10270000 		.word	10000
 2611 0040 54010000 		.word	.LC97
 2612              		.cfi_endproc
 2613              	.LFE37:
 2614              		.size	adjust_current_setpoint, .-adjust_current_setpoint
 2615              		.section	.text.draw_status,"ax",%progbits
 2616              		.align	2
 2617              		.code	16
 2618              		.thumb_func
 2619              		.type	draw_status, %function
 2620              	draw_status:
 2621              	.LFB48:
 366:ui.c          **** 	char buf[8];
 2622              		.loc 1 366 0
 2623              		.cfi_startproc
 2624              		@ args = 0, pretend = 0, frame = 8
 2625              		@ frame_needed = 0, uses_anonymous_args = 0
 2626              	.LVL302:
 2627 0000 F0B5     		push	{r4, r5, r6, r7, lr}
 2628              		.cfi_def_cfa_offset 20
 2629              		.cfi_offset 4, -20
 2630              		.cfi_offset 5, -16
 2631              		.cfi_offset 6, -12
 2632              		.cfi_offset 7, -8
 2633              		.cfi_offset 14, -4
 2634 0002 85B0     		sub	sp, sp, #20
 2635              		.cfi_def_cfa_offset 40
ARM GAS  C:\Users\VIDEOH~1\AppData\Local\Temp\ccM4oHTP.s 			page 68


 2636 0004 0500     		movs	r5, r0
 370:ui.c          **** 	if(readout->func != print_nothing) {
 2637              		.loc 1 370 0
 2638 0006 0029     		cmp	r1, #0
 2639 0008 01D1     		bne	.L162
 370:ui.c          **** 	if(readout->func != print_nothing) {
 2640              		.loc 1 370 0 is_stmt 0 discriminator 1
 2641 000a 0478     		ldrb	r4, [r0]
 2642 000c 00E0     		b	.L153
 2643              	.L162:
 370:ui.c          **** 	if(readout->func != print_nothing) {
 2644              		.loc 1 370 0
 2645 000e 0124     		movs	r4, #1
 2646              	.L153:
 2647              	.LVL303:
 371:ui.c          **** 		readout->func(buf);
 2648              		.loc 1 371 0 is_stmt 1 discriminator 4
 2649 0010 E300     		lsls	r3, r4, #3
 2650 0012 444A     		ldr	r2, .L163
 2651 0014 D318     		adds	r3, r2, r3
 2652 0016 9B6F     		ldr	r3, [r3, #120]
 2653 0018 434A     		ldr	r2, .L163+4
 2654 001a 9342     		cmp	r3, r2
 2655 001c 1ED0     		beq	.L154
 372:ui.c          **** 		strcat(buf, " ");
 2656              		.loc 1 372 0
 2657 001e 02A8     		add	r0, sp, #8
 2658              	.LVL304:
 2659 0020 9847     		blx	r3
 2660              	.LVL305:
 373:ui.c          **** 		Display_DrawBigNumbers(0, 0, buf);
 2661              		.loc 1 373 0
 2662 0022 02A8     		add	r0, sp, #8
 2663 0024 FFF7FEFF 		bl	strlen
 2664              	.LVL306:
 2665 0028 02AB     		add	r3, sp, #8
 2666 002a 9C46     		mov	ip, r3
 2667 002c 6044     		add	r0, r0, ip
 2668 002e 0222     		movs	r2, #2
 2669 0030 3E49     		ldr	r1, .L163+8
 2670 0032 FFF7FEFF 		bl	memcpy
 2671              	.LVL307:
 374:ui.c          **** 		if(strchr(buf, '.') == NULL)
 2672              		.loc 1 374 0
 2673 0036 02AA     		add	r2, sp, #8
 2674 0038 0021     		movs	r1, #0
 2675 003a 0020     		movs	r0, #0
 2676 003c FFF7FEFF 		bl	Display_DrawBigNumbers
 2677              	.LVL308:
 375:ui.c          **** 			// Clear any detritus left over from longer strings
 2678              		.loc 1 375 0
 2679 0040 2E21     		movs	r1, #46
 2680 0042 02A8     		add	r0, sp, #8
 2681 0044 FFF7FEFF 		bl	strchr
 2682              	.LVL309:
 2683 0048 0028     		cmp	r0, #0
 2684 004a 16D1     		bne	.L155
ARM GAS  C:\Users\VIDEOH~1\AppData\Local\Temp\ccM4oHTP.s 			page 69


 377:ui.c          **** 	} else {
 2685              		.loc 1 377 0
 2686 004c 0023     		movs	r3, #0
 2687 004e 0093     		str	r3, [sp]
 2688 0050 7833     		adds	r3, r3, #120
 2689 0052 0422     		movs	r2, #4
 2690 0054 6C21     		movs	r1, #108
 2691 0056 FFF7FEFF 		bl	Display_Clear
 2692              	.LVL310:
 2693 005a 0EE0     		b	.L155
 2694              	.LVL311:
 2695              	.L154:
 379:ui.c          **** 		Display_Clear(4, 120, 6, 160, 0);
 2696              		.loc 1 379 0
 2697 005c 0026     		movs	r6, #0
 2698 005e 0096     		str	r6, [sp]
 2699 0060 7823     		movs	r3, #120
 2700 0062 0622     		movs	r2, #6
 2701 0064 0021     		movs	r1, #0
 2702              	.LVL312:
 2703 0066 0020     		movs	r0, #0
 2704              	.LVL313:
 2705 0068 FFF7FEFF 		bl	Display_Clear
 2706              	.LVL314:
 380:ui.c          **** 	}
 2707              		.loc 1 380 0
 2708 006c 0096     		str	r6, [sp]
 2709 006e A023     		movs	r3, #160
 2710 0070 0622     		movs	r2, #6
 2711 0072 7821     		movs	r1, #120
 2712 0074 0420     		movs	r0, #4
 2713 0076 FFF7FEFF 		bl	Display_Clear
 2714              	.LVL315:
 2715              	.L155:
 384:ui.c          **** 	Display_DrawText(0, 160 - labelsize, readout->label, 1);
 2716              		.loc 1 384 0
 2717 007a E400     		lsls	r4, r4, #3
 2718              	.LVL316:
 2719 007c 294B     		ldr	r3, .L163
 2720 007e 1C19     		adds	r4, r3, r4
 2721 0080 E66F     		ldr	r6, [r4, #124]
 2722 0082 3000     		movs	r0, r6
 2723 0084 FFF7FEFF 		bl	strlen
 2724              	.LVL317:
 2725 0088 0C24     		movs	r4, #12
 2726 008a 6043     		muls	r0, r4
 2727 008c C4B2     		uxtb	r4, r0
 2728              	.LVL318:
 385:ui.c          **** 	if(labelsize < 36)
 2729              		.loc 1 385 0
 2730 008e 6027     		movs	r7, #96
 2731 0090 7F42     		rsbs	r7, r7, #0
 2732 0092 3F1B     		subs	r7, r7, r4
 2733 0094 FFB2     		uxtb	r7, r7
 2734 0096 0123     		movs	r3, #1
 2735 0098 3200     		movs	r2, r6
 2736 009a 3900     		movs	r1, r7
ARM GAS  C:\Users\VIDEOH~1\AppData\Local\Temp\ccM4oHTP.s 			page 70


 2737 009c 0020     		movs	r0, #0
 2738 009e FFF7FEFF 		bl	Display_DrawText
 2739              	.LVL319:
 386:ui.c          **** 		Display_Clear(0, 124, 2, 160 - labelsize, 0);
 2740              		.loc 1 386 0
 2741 00a2 232C     		cmp	r4, #35
 2742 00a4 07D8     		bhi	.L156
 387:ui.c          **** 
 2743              		.loc 1 387 0
 2744 00a6 0023     		movs	r3, #0
 2745 00a8 0093     		str	r3, [sp]
 2746 00aa 3B00     		movs	r3, r7
 2747 00ac 0222     		movs	r2, #2
 2748 00ae 7C21     		movs	r1, #124
 2749 00b0 0020     		movs	r0, #0
 2750 00b2 FFF7FEFF 		bl	Display_Clear
 2751              	.LVL320:
 2752              	.L156:
 390:ui.c          ****     	Display_DrawText(2, 160 - 36, "OFF", 1);
 2753              		.loc 1 390 0
 2754 00b6 FFF7FEFF 		bl	get_output_mode
 2755              	.LVL321:
 2756 00ba 0028     		cmp	r0, #0
 2757 00bc 07D1     		bne	.L157
 391:ui.c          ****     } else {
 2758              		.loc 1 391 0
 2759 00be 0123     		movs	r3, #1
 2760 00c0 1B4A     		ldr	r2, .L163+12
 2761 00c2 7C21     		movs	r1, #124
 2762 00c4 0230     		adds	r0, r0, #2
 2763 00c6 FFF7FEFF 		bl	Display_DrawText
 2764              	.LVL322:
 2765              	.L159:
 370:ui.c          **** 	if(readout->func != print_nothing) {
 2766              		.loc 1 370 0 discriminator 1
 2767 00ca 0026     		movs	r6, #0
 2768 00cc 25E0     		b	.L158
 2769              	.L157:
 393:ui.c          ****     }
 2770              		.loc 1 393 0
 2771 00ce 0023     		movs	r3, #0
 2772 00d0 0093     		str	r3, [sp]
 2773 00d2 A033     		adds	r3, r3, #160
 2774 00d4 0422     		movs	r2, #4
 2775 00d6 7C21     		movs	r1, #124
 2776 00d8 0220     		movs	r0, #2
 2777 00da FFF7FEFF 		bl	Display_Clear
 2778              	.LVL323:
 2779 00de F4E7     		b	.L159
 2780              	.LVL324:
 2781              	.L161:
 2782              	.LBB8:
 398:ui.c          **** 		readout->func(buf);
 2783              		.loc 1 398 0
 2784 00e0 741C     		adds	r4, r6, #1
 2785 00e2 2B5D     		ldrb	r3, [r5, r4]
 2786              	.LVL325:
ARM GAS  C:\Users\VIDEOH~1\AppData\Local\Temp\ccM4oHTP.s 			page 71


 399:ui.c          **** 		if(strlen(buf) == 5)
 2787              		.loc 1 399 0
 2788 00e4 DB00     		lsls	r3, r3, #3
 2789              	.LVL326:
 2790 00e6 0F4A     		ldr	r2, .L163
 2791 00e8 D318     		adds	r3, r2, r3
 2792 00ea 9B6F     		ldr	r3, [r3, #120]
 2793 00ec 02A8     		add	r0, sp, #8
 2794 00ee 9847     		blx	r3
 2795              	.LVL327:
 400:ui.c          **** 			strcat(buf, " ");
 2796              		.loc 1 400 0
 2797 00f0 02A8     		add	r0, sp, #8
 2798 00f2 FFF7FEFF 		bl	strlen
 2799              	.LVL328:
 2800 00f6 0528     		cmp	r0, #5
 2801 00f8 06D1     		bne	.L160
 401:ui.c          **** 		Display_DrawText(6, 88 * i, buf, 0);
 2802              		.loc 1 401 0
 2803 00fa 02AB     		add	r3, sp, #8
 2804 00fc 9C46     		mov	ip, r3
 2805 00fe 6044     		add	r0, r0, ip
 2806 0100 0222     		movs	r2, #2
 2807 0102 0A49     		ldr	r1, .L163+8
 2808 0104 FFF7FEFF 		bl	memcpy
 2809              	.LVL329:
 2810              	.L160:
 402:ui.c          **** 	}
 2811              		.loc 1 402 0 discriminator 2
 2812 0108 5821     		movs	r1, #88
 2813 010a 7143     		muls	r1, r6
 2814 010c C9B2     		uxtb	r1, r1
 2815 010e 0023     		movs	r3, #0
 2816 0110 02AA     		add	r2, sp, #8
 2817 0112 0620     		movs	r0, #6
 2818 0114 FFF7FEFF 		bl	Display_DrawText
 2819              	.LVL330:
 397:ui.c          **** 		readout = &readout_functions[config->readouts[i + 1]];
 2820              		.loc 1 397 0 discriminator 2
 2821 0118 2600     		movs	r6, r4
 2822              	.LVL331:
 2823              	.L158:
 397:ui.c          **** 		readout = &readout_functions[config->readouts[i + 1]];
 2824              		.loc 1 397 0 is_stmt 0 discriminator 1
 2825 011a 012E     		cmp	r6, #1
 2826 011c E0DD     		ble	.L161
 2827              	.LBE8:
 404:ui.c          **** 
 2828              		.loc 1 404 0 is_stmt 1
 2829 011e 05B0     		add	sp, sp, #20
 2830              		@ sp needed
 2831              	.LVL332:
 2832              	.LVL333:
 2833 0120 F0BD     		pop	{r4, r5, r6, r7, pc}
 2834              	.L164:
 2835 0122 C046     		.align	2
 2836              	.L163:
ARM GAS  C:\Users\VIDEOH~1\AppData\Local\Temp\ccM4oHTP.s 			page 72


 2837 0124 80000000 		.word	.LANCHOR3
 2838 0128 00000000 		.word	print_nothing
 2839 012c 38000000 		.word	.LC14
 2840 0130 50010000 		.word	.LC92
 2841              		.cfi_endproc
 2842              	.LFE48:
 2843              		.size	draw_status, .-draw_status
 2844              		.section	.text.cc_load,"ax",%progbits
 2845              		.align	2
 2846              		.code	16
 2847              		.thumb_func
 2848              		.type	cc_load, %function
 2849              	cc_load:
 2850              	.LFB57:
 648:ui.c          **** 	static portTickType last_adjust_current_setpoint = 0;
 2851              		.loc 1 648 0
 2852              		.cfi_startproc
 2853              		@ args = 0, pretend = 0, frame = 16
 2854              		@ frame_needed = 0, uses_anonymous_args = 0
 2855              	.LVL334:
 2856 0000 30B5     		push	{r4, r5, lr}
 2857              		.cfi_def_cfa_offset 12
 2858              		.cfi_offset 4, -12
 2859              		.cfi_offset 5, -8
 2860              		.cfi_offset 14, -4
 2861 0002 85B0     		sub	sp, sp, #20
 2862              		.cfi_def_cfa_offset 32
 2863 0004 0500     		movs	r5, r0
 651:ui.c          **** 
 2864              		.loc 1 651 0
 2865 0006 FFF7FEFF 		bl	Display_ClearAll
 2866              	.LVL335:
 2867              	.L174:
 655:ui.c          **** 		switch(event.type) {
 2868              		.loc 1 655 0
 2869 000a 6846     		mov	r0, sp
 2870 000c FFF7FEFF 		bl	next_event
 2871              	.LVL336:
 656:ui.c          **** 		case UI_EVENT_BUTTONPRESS:
 2872              		.loc 1 656 0
 2873 0010 6B46     		mov	r3, sp
 2874 0012 1B78     		ldrb	r3, [r3]
 2875 0014 022B     		cmp	r3, #2
 2876 0016 11D0     		beq	.L167
 2877 0018 02D8     		bhi	.L168
 2878 001a 012B     		cmp	r3, #1
 2879 001c 05D0     		beq	.L169
 2880 001e 29E0     		b	.L166
 2881              	.L168:
 2882 0020 032B     		cmp	r3, #3
 2883 0022 17D0     		beq	.L170
 2884 0024 052B     		cmp	r3, #5
 2885 0026 1ED0     		beq	.L171
 2886 0028 24E0     		b	.L166
 2887              	.L169:
 658:ui.c          **** 				return (state_func)STATE_MAIN_MENU;
 2888              		.loc 1 658 0
ARM GAS  C:\Users\VIDEOH~1\AppData\Local\Temp\ccM4oHTP.s 			page 73


 2889 002a 019B     		ldr	r3, [sp, #4]
 2890 002c 012B     		cmp	r3, #1
 2891 002e 21D1     		bne	.L166
 659:ui.c          ****             break;
 2892              		.loc 1 659 0
 2893 0030 1A4B     		ldr	r3, .L175
 2894 0032 3833     		adds	r3, r3, #56
 2895 0034 2A00     		movs	r2, r5
 2896 0036 13CB     		ldmia	r3!, {r0, r1, r4}
 2897 0038 13C2     		stmia	r2!, {r0, r1, r4}
 2898 003a 2CE0     		b	.L165
 2899              	.L167:
 662:ui.c          ****                 set_output_mode(OUTPUT_MODE_FEEDBACK);
 2900              		.loc 1 662 0
 2901 003c FFF7FEFF 		bl	get_output_mode
 2902              	.LVL337:
 2903 0040 0228     		cmp	r0, #2
 2904 0042 03D0     		beq	.L173
 663:ui.c          ****             } else {
 2905              		.loc 1 663 0
 2906 0044 0220     		movs	r0, #2
 2907 0046 FFF7FEFF 		bl	set_output_mode
 2908              	.LVL338:
 2909 004a 13E0     		b	.L166
 2910              	.L173:
 665:ui.c          ****             }
 2911              		.loc 1 665 0
 2912 004c 0020     		movs	r0, #0
 2913 004e FFF7FEFF 		bl	set_output_mode
 2914              	.LVL339:
 2915 0052 0FE0     		b	.L166
 2916              	.L170:
 669:ui.c          **** 			adjust_current_setpoint(event.int_arg, event.duration);
 2917              		.loc 1 669 0
 2918 0054 FFF7FEFF 		bl	xTaskGetTickCount
 2919              	.LVL340:
 2920 0058 114B     		ldr	r3, .L175+4
 2921 005a 9860     		str	r0, [r3, #8]
 670:ui.c          **** 			break;
 2922              		.loc 1 670 0
 2923 005c 0299     		ldr	r1, [sp, #8]
 2924 005e 0198     		ldr	r0, [sp, #4]
 2925 0060 FFF7FEFF 		bl	adjust_current_setpoint
 2926              	.LVL341:
 671:ui.c          **** 		case UI_EVENT_LIMIT:
 2927              		.loc 1 671 0
 2928 0064 06E0     		b	.L166
 2929              	.L171:
 673:ui.c          **** 		default:
 2930              		.loc 1 673 0
 2931 0066 0F4B     		ldr	r3, .L175+8
 2932 0068 2B60     		str	r3, [r5]
 2933 006a 019B     		ldr	r3, [sp, #4]
 2934 006c 6B60     		str	r3, [r5, #4]
 2935 006e 0023     		movs	r3, #0
 2936 0070 2B72     		strb	r3, [r5, #8]
 2937 0072 10E0     		b	.L165
ARM GAS  C:\Users\VIDEOH~1\AppData\Local\Temp\ccM4oHTP.s 			page 74


 2938              	.L166:
 677:ui.c          **** 		//CyDelay(200);
 2939              		.loc 1 677 0
 2940 0074 0C4B     		ldr	r3, .L175+12
 2941 0076 1C68     		ldr	r4, [r3]
 2942 0078 FFF7FEFF 		bl	xTaskGetTickCount
 2943              	.LVL342:
 2944 007c 084B     		ldr	r3, .L175+4
 2945 007e 9B68     		ldr	r3, [r3, #8]
 2946 0080 C01A     		subs	r0, r0, r3
 2947 0082 0021     		movs	r1, #0
 2948 0084 6323     		movs	r3, #99
 2949 0086 8342     		cmp	r3, r0
 2950 0088 4941     		adcs	r1, r1, r1
 2951 008a C9B2     		uxtb	r1, r1
 2952 008c 2000     		movs	r0, r4
 2953 008e 0830     		adds	r0, r0, #8
 2954 0090 FFF7FEFF 		bl	draw_status
 2955              	.LVL343:
 679:ui.c          **** }
 2956              		.loc 1 679 0
 2957 0094 B9E7     		b	.L174
 2958              	.L165:
 680:ui.c          **** 
 2959              		.loc 1 680 0
 2960 0096 2800     		movs	r0, r5
 2961 0098 05B0     		add	sp, sp, #20
 2962              		@ sp needed
 2963              	.LVL344:
 2964 009a 30BD     		pop	{r4, r5, pc}
 2965              	.L176:
 2966              		.align	2
 2967              	.L175:
 2968 009c 00010000 		.word	.LANCHOR4
 2969 00a0 00000000 		.word	.LANCHOR1
 2970 00a4 00000000 		.word	overlimit
 2971 00a8 00000000 		.word	settings
 2972              		.cfi_endproc
 2973              	.LFE57:
 2974              		.size	cc_load, .-cc_load
 2975              		.section	.text.quadrature_event_isr,"ax",%progbits
 2976              		.align	2
 2977              		.global	quadrature_event_isr
 2978              		.code	16
 2979              		.thumb_func
 2980              		.type	quadrature_event_isr, %function
 2981              	quadrature_event_isr:
 2982              	.LFB34:
 169:ui.c          **** 	static ui_event event = {.type = UI_EVENT_UPDOWN, .when = 0, .int_arg = 0};
 2983              		.loc 1 169 0
 2984              		.cfi_startproc
 2985              		@ args = 0, pretend = 0, frame = 0
 2986              		@ frame_needed = 0, uses_anonymous_args = 0
 2987 0000 70B5     		push	{r4, r5, r6, lr}
 2988              		.cfi_def_cfa_offset 16
 2989              		.cfi_offset 4, -16
 2990              		.cfi_offset 5, -12
ARM GAS  C:\Users\VIDEOH~1\AppData\Local\Temp\ccM4oHTP.s 			page 75


 2991              		.cfi_offset 6, -8
 2992              		.cfi_offset 14, -4
 175:ui.c          **** 	Quadrature_ClearInterrupt();
 2993              		.loc 1 175 0
 2994 0002 FFF7FEFF 		bl	Quadrature_Read
 2995              	.LVL345:
 2996 0006 0400     		movs	r4, r0
 2997              	.LVL346:
 176:ui.c          **** 
 2998              		.loc 1 176 0
 2999 0008 FFF7FEFF 		bl	Quadrature_ClearInterrupt
 3000              	.LVL347:
 178:ui.c          **** 		count += 1;
 3001              		.loc 1 178 0
 3002 000c 254B     		ldr	r3, .L182
 3003 000e 0422     		movs	r2, #4
 3004 0010 9A56     		ldrsb	r2, [r3, r2]
 3005 0012 254B     		ldr	r3, .L182+4
 3006 0014 9B18     		adds	r3, r3, r2
 3007 0016 4421     		movs	r1, #68
 3008 0018 5B56     		ldrsb	r3, [r3, r1]
 3009 001a 9C42     		cmp	r4, r3
 3010 001c 06D1     		bne	.L178
 179:ui.c          **** 		last_levels = levels;
 3011              		.loc 1 179 0
 3012 001e 234A     		ldr	r2, .L182+8
 3013 0020 137B     		ldrb	r3, [r2, #12]
 3014 0022 0133     		adds	r3, r3, #1
 3015 0024 1373     		strb	r3, [r2, #12]
 180:ui.c          **** 	} else if(quadrature_states[levels] == last_levels) {
 3016              		.loc 1 180 0
 3017 0026 1F4B     		ldr	r3, .L182
 3018 0028 1C71     		strb	r4, [r3, #4]
 3019 002a 0BE0     		b	.L179
 3020              	.L178:
 181:ui.c          **** 		count -= 1;
 3021              		.loc 1 181 0
 3022 002c 1E4B     		ldr	r3, .L182+4
 3023 002e 1B19     		adds	r3, r3, r4
 3024 0030 4421     		movs	r1, #68
 3025 0032 5B56     		ldrsb	r3, [r3, r1]
 3026 0034 9A42     		cmp	r2, r3
 3027 0036 05D1     		bne	.L179
 182:ui.c          **** 		last_levels = levels;
 3028              		.loc 1 182 0
 3029 0038 1C4A     		ldr	r2, .L182+8
 3030 003a 137B     		ldrb	r3, [r2, #12]
 3031 003c 013B     		subs	r3, r3, #1
 3032 003e 1373     		strb	r3, [r2, #12]
 183:ui.c          **** 	}
 3033              		.loc 1 183 0
 3034 0040 184B     		ldr	r3, .L182
 3035 0042 1C71     		strb	r4, [r3, #4]
 3036              	.L179:
 186:ui.c          ****         before = event.when;
 3037              		.loc 1 186 0
 3038 0044 194B     		ldr	r3, .L182+8
ARM GAS  C:\Users\VIDEOH~1\AppData\Local\Temp\ccM4oHTP.s 			page 76


 3039 0046 1B7B     		ldrb	r3, [r3, #12]
 3040 0048 5BB2     		sxtb	r3, r3
 3041 004a DA17     		asrs	r2, r3, #31
 3042 004c 9B18     		adds	r3, r3, r2
 3043 004e 5340     		eors	r3, r2
 3044 0050 032B     		cmp	r3, #3
 3045 0052 26DD     		ble	.L177
 187:ui.c          ****         event.when = xTaskGetTickCountFromISR();
 3046              		.loc 1 187 0
 3047 0054 134C     		ldr	r4, .L182
 3048              	.LVL348:
 3049 0056 154D     		ldr	r5, .L182+8
 3050 0058 6369     		ldr	r3, [r4, #20]
 3051 005a 2B61     		str	r3, [r5, #16]
 188:ui.c          **** 
 3052              		.loc 1 188 0
 3053 005c FFF7FEFF 		bl	xTaskGetTickCountFromISR
 3054              	.LVL349:
 3055 0060 6061     		str	r0, [r4, #20]
 191:ui.c          ****         if(event.duration < 1)
 3056              		.loc 1 191 0
 3057 0062 2B69     		ldr	r3, [r5, #16]
 3058 0064 C01A     		subs	r0, r0, r3
 3059 0066 2061     		str	r0, [r4, #16]
 192:ui.c          ****             event.duration = 1;
 3060              		.loc 1 192 0
 3061 0068 02D1     		bne	.L181
 193:ui.c          **** 
 3062              		.loc 1 193 0
 3063 006a 0122     		movs	r2, #1
 3064 006c 0D4B     		ldr	r3, .L182
 3065 006e 1A61     		str	r2, [r3, #16]
 3066              	.L181:
 195:ui.c          **** 		xQueueSendToBackFromISR(ui_queue, &event, NULL);
 3067              		.loc 1 195 0
 3068 0070 0E4C     		ldr	r4, .L182+8
 3069 0072 0C23     		movs	r3, #12
 3070 0074 E356     		ldrsb	r3, [r4, r3]
 3071 0076 DA17     		asrs	r2, r3, #31
 3072 0078 0325     		movs	r5, #3
 3073 007a 2A40     		ands	r2, r5
 3074 007c D318     		adds	r3, r2, r3
 3075 007e 9B10     		asrs	r3, r3, #2
 3076 0080 0849     		ldr	r1, .L182
 3077 0082 CB60     		str	r3, [r1, #12]
 196:ui.c          **** 		count = count % 4;
 3078              		.loc 1 196 0
 3079 0084 0831     		adds	r1, r1, #8
 3080 0086 0A4B     		ldr	r3, .L182+12
 3081 0088 1868     		ldr	r0, [r3]
 3082 008a 0023     		movs	r3, #0
 3083 008c 0022     		movs	r2, #0
 3084 008e FFF7FEFF 		bl	xQueueGenericSendFromISR
 3085              	.LVL350:
 197:ui.c          **** 	}
 3086              		.loc 1 197 0
 3087 0092 0C23     		movs	r3, #12
ARM GAS  C:\Users\VIDEOH~1\AppData\Local\Temp\ccM4oHTP.s 			page 77


 3088 0094 E356     		ldrsb	r3, [r4, r3]
 3089 0096 DA17     		asrs	r2, r3, #31
 3090 0098 920F     		lsrs	r2, r2, #30
 3091 009a 9B18     		adds	r3, r3, r2
 3092 009c 2B40     		ands	r3, r5
 3093 009e 9B1A     		subs	r3, r3, r2
 3094 00a0 2373     		strb	r3, [r4, #12]
 3095              	.L177:
 199:ui.c          **** 
 3096              		.loc 1 199 0
 3097              		@ sp needed
 3098 00a2 70BD     		pop	{r4, r5, r6, pc}
 3099              	.L183:
 3100              		.align	2
 3101              	.L182:
 3102 00a4 00000000 		.word	.LANCHOR0
 3103 00a8 00010000 		.word	.LANCHOR4
 3104 00ac 00000000 		.word	.LANCHOR1
 3105 00b0 00000000 		.word	ui_queue
 3106              		.cfi_endproc
 3107              	.LFE34:
 3108              		.size	quadrature_event_isr, .-quadrature_event_isr
 3109              		.section	.text.print_setpoint,"ax",%progbits
 3110              		.align	2
 3111              		.global	print_setpoint
 3112              		.code	16
 3113              		.thumb_func
 3114              		.type	print_setpoint, %function
 3115              	print_setpoint:
 3116              	.LFB41:
 321:ui.c          **** 	format_number(get_current_setpoint(), "A", buf);
 3117              		.loc 1 321 0
 3118              		.cfi_startproc
 3119              		@ args = 0, pretend = 0, frame = 0
 3120              		@ frame_needed = 0, uses_anonymous_args = 0
 3121              	.LVL351:
 3122 0000 10B5     		push	{r4, lr}
 3123              		.cfi_def_cfa_offset 8
 3124              		.cfi_offset 4, -8
 3125              		.cfi_offset 14, -4
 3126 0002 0400     		movs	r4, r0
 322:ui.c          **** }
 3127              		.loc 1 322 0
 3128 0004 FFF7FEFF 		bl	get_current_setpoint
 3129              	.LVL352:
 3130 0008 2200     		movs	r2, r4
 3131 000a 0249     		ldr	r1, .L185
 3132 000c FFF7FEFF 		bl	format_number
 3133              	.LVL353:
 323:ui.c          **** 
 3134              		.loc 1 323 0
 3135              		@ sp needed
 3136              	.LVL354:
 3137 0010 10BD     		pop	{r4, pc}
 3138              	.L186:
 3139 0012 C046     		.align	2
 3140              	.L185:
ARM GAS  C:\Users\VIDEOH~1\AppData\Local\Temp\ccM4oHTP.s 			page 78


 3141 0014 D8000000 		.word	.LC49
 3142              		.cfi_endproc
 3143              	.LFE41:
 3144              		.size	print_setpoint, .-print_setpoint
 3145              		.section	.text.print_current_usage,"ax",%progbits
 3146              		.align	2
 3147              		.global	print_current_usage
 3148              		.code	16
 3149              		.thumb_func
 3150              		.type	print_current_usage, %function
 3151              	print_current_usage:
 3152              	.LFB42:
 325:ui.c          **** 	format_number(get_current_usage(), "A", buf);
 3153              		.loc 1 325 0
 3154              		.cfi_startproc
 3155              		@ args = 0, pretend = 0, frame = 0
 3156              		@ frame_needed = 0, uses_anonymous_args = 0
 3157              	.LVL355:
 3158 0000 10B5     		push	{r4, lr}
 3159              		.cfi_def_cfa_offset 8
 3160              		.cfi_offset 4, -8
 3161              		.cfi_offset 14, -4
 3162 0002 0400     		movs	r4, r0
 326:ui.c          **** }
 3163              		.loc 1 326 0
 3164 0004 FFF7FEFF 		bl	get_current_usage
 3165              	.LVL356:
 3166 0008 2200     		movs	r2, r4
 3167 000a 0249     		ldr	r1, .L188
 3168 000c FFF7FEFF 		bl	format_number
 3169              	.LVL357:
 327:ui.c          **** 
 3170              		.loc 1 327 0
 3171              		@ sp needed
 3172              	.LVL358:
 3173 0010 10BD     		pop	{r4, pc}
 3174              	.L189:
 3175 0012 C046     		.align	2
 3176              	.L188:
 3177 0014 D8000000 		.word	.LC49
 3178              		.cfi_endproc
 3179              	.LFE42:
 3180              		.size	print_current_usage, .-print_current_usage
 3181              		.section	.text.print_power,"ax",%progbits
 3182              		.align	2
 3183              		.global	print_power
 3184              		.code	16
 3185              		.thumb_func
 3186              		.type	print_power, %function
 3187              	print_power:
 3188              	.LFB44:
 333:ui.c          **** 	int power = (get_current_usage() / 1000) * (get_voltage() / 1000);
 3189              		.loc 1 333 0
 3190              		.cfi_startproc
 3191              		@ args = 0, pretend = 0, frame = 0
 3192              		@ frame_needed = 0, uses_anonymous_args = 0
 3193              	.LVL359:
ARM GAS  C:\Users\VIDEOH~1\AppData\Local\Temp\ccM4oHTP.s 			page 79


 3194 0000 70B5     		push	{r4, r5, r6, lr}
 3195              		.cfi_def_cfa_offset 16
 3196              		.cfi_offset 4, -16
 3197              		.cfi_offset 5, -12
 3198              		.cfi_offset 6, -8
 3199              		.cfi_offset 14, -4
 3200 0002 0400     		movs	r4, r0
 334:ui.c          **** 	format_number(power, "W", buf);
 3201              		.loc 1 334 0
 3202 0004 FFF7FEFF 		bl	get_current_usage
 3203              	.LVL360:
 3204 0008 FA21     		movs	r1, #250
 3205 000a 8900     		lsls	r1, r1, #2
 3206 000c FFF7FEFF 		bl	__aeabi_idiv
 3207              	.LVL361:
 3208 0010 0500     		movs	r5, r0
 3209 0012 FFF7FEFF 		bl	get_voltage
 3210              	.LVL362:
 3211 0016 FA21     		movs	r1, #250
 3212 0018 8900     		lsls	r1, r1, #2
 3213 001a FFF7FEFF 		bl	__aeabi_idiv
 3214              	.LVL363:
 3215 001e 6843     		muls	r0, r5
 3216              	.LVL364:
 335:ui.c          **** }
 3217              		.loc 1 335 0
 3218 0020 2200     		movs	r2, r4
 3219 0022 0249     		ldr	r1, .L191
 3220 0024 FFF7FEFF 		bl	format_number
 3221              	.LVL365:
 336:ui.c          **** 
 3222              		.loc 1 336 0
 3223              		@ sp needed
 3224              	.LVL366:
 3225 0028 70BD     		pop	{r4, r5, r6, pc}
 3226              	.L192:
 3227 002a C046     		.align	2
 3228              	.L191:
 3229 002c 60010000 		.word	.LC115
 3230              		.cfi_endproc
 3231              	.LFE44:
 3232              		.size	print_power, .-print_power
 3233              		.section	.text.print_resistance,"ax",%progbits
 3234              		.align	2
 3235              		.global	print_resistance
 3236              		.code	16
 3237              		.thumb_func
 3238              		.type	print_resistance, %function
 3239              	print_resistance:
 3240              	.LFB45:
 338:ui.c          **** 	int current = get_current_usage();
 3241              		.loc 1 338 0
 3242              		.cfi_startproc
 3243              		@ args = 0, pretend = 0, frame = 0
 3244              		@ frame_needed = 0, uses_anonymous_args = 0
 3245              	.LVL367:
 3246 0000 70B5     		push	{r4, r5, r6, lr}
ARM GAS  C:\Users\VIDEOH~1\AppData\Local\Temp\ccM4oHTP.s 			page 80


 3247              		.cfi_def_cfa_offset 16
 3248              		.cfi_offset 4, -16
 3249              		.cfi_offset 5, -12
 3250              		.cfi_offset 6, -8
 3251              		.cfi_offset 14, -4
 3252 0002 0500     		movs	r5, r0
 339:ui.c          **** 	if(current > 0) {
 3253              		.loc 1 339 0
 3254 0004 FFF7FEFF 		bl	get_current_usage
 3255              	.LVL368:
 3256 0008 041E     		subs	r4, r0, #0
 3257              	.LVL369:
 340:ui.c          **** 		format_number(((get_voltage() * 10) / (current / 100000)), FONT_GLYPH_OHM, buf);
 3258              		.loc 1 340 0
 3259 000a 11DD     		ble	.L194
 341:ui.c          **** 	} else {
 3260              		.loc 1 341 0
 3261 000c FFF7FEFF 		bl	get_voltage
 3262              	.LVL370:
 3263 0010 8300     		lsls	r3, r0, #2
 3264 0012 1818     		adds	r0, r3, r0
 3265 0014 4600     		lsls	r6, r0, #1
 3266 0016 0949     		ldr	r1, .L196
 3267 0018 2000     		movs	r0, r4
 3268 001a FFF7FEFF 		bl	__aeabi_idiv
 3269              	.LVL371:
 3270 001e 0100     		movs	r1, r0
 3271 0020 3000     		movs	r0, r6
 3272 0022 FFF7FEFF 		bl	__aeabi_idiv
 3273              	.LVL372:
 3274 0026 2A00     		movs	r2, r5
 3275 0028 0549     		ldr	r1, .L196+4
 3276 002a FFF7FEFF 		bl	format_number
 3277              	.LVL373:
 3278 002e 04E0     		b	.L193
 3279              	.LVL374:
 3280              	.L194:
 343:ui.c          **** 	}
 3281              		.loc 1 343 0
 3282 0030 0622     		movs	r2, #6
 3283 0032 0449     		ldr	r1, .L196+8
 3284 0034 2800     		movs	r0, r5
 3285              	.LVL375:
 3286 0036 FFF7FEFF 		bl	memcpy
 3287              	.LVL376:
 3288              	.L193:
 345:ui.c          **** 
 3289              		.loc 1 345 0
 3290              		@ sp needed
 3291              	.LVL377:
 3292              	.LVL378:
 3293 003a 70BD     		pop	{r4, r5, r6, pc}
 3294              	.L197:
 3295              		.align	2
 3296              	.L196:
 3297 003c A0860100 		.word	100000
 3298 0040 64010000 		.word	.LC117
ARM GAS  C:\Users\VIDEOH~1\AppData\Local\Temp\ccM4oHTP.s 			page 81


 3299 0044 68010000 		.word	.LC119
 3300              		.cfi_endproc
 3301              	.LFE45:
 3302              		.size	print_resistance, .-print_resistance
 3303              		.section	.text.print_amp_hours,"ax",%progbits
 3304              		.align	2
 3305              		.global	print_amp_hours
 3306              		.code	16
 3307              		.thumb_func
 3308              		.type	print_amp_hours, %function
 3309              	print_amp_hours:
 3310              	.LFB46:
 347:ui.c          **** 	format_number(get_microamp_hours(), "Ah", buf);
 3311              		.loc 1 347 0
 3312              		.cfi_startproc
 3313              		@ args = 0, pretend = 0, frame = 0
 3314              		@ frame_needed = 0, uses_anonymous_args = 0
 3315              	.LVL379:
 3316 0000 10B5     		push	{r4, lr}
 3317              		.cfi_def_cfa_offset 8
 3318              		.cfi_offset 4, -8
 3319              		.cfi_offset 14, -4
 3320 0002 0400     		movs	r4, r0
 348:ui.c          **** }
 3321              		.loc 1 348 0
 3322 0004 FFF7FEFF 		bl	get_microamp_hours
 3323              	.LVL380:
 3324 0008 2200     		movs	r2, r4
 3325 000a 0249     		ldr	r1, .L199
 3326 000c FFF7FEFF 		bl	format_number
 3327              	.LVL381:
 349:ui.c          **** 
 3328              		.loc 1 349 0
 3329              		@ sp needed
 3330              	.LVL382:
 3331 0010 10BD     		pop	{r4, pc}
 3332              	.L200:
 3333 0012 C046     		.align	2
 3334              	.L199:
 3335 0014 70010000 		.word	.LC121
 3336              		.cfi_endproc
 3337              	.LFE46:
 3338              		.size	print_amp_hours, .-print_amp_hours
 3339              		.section	.text.print_watt_hours,"ax",%progbits
 3340              		.align	2
 3341              		.global	print_watt_hours
 3342              		.code	16
 3343              		.thumb_func
 3344              		.type	print_watt_hours, %function
 3345              	print_watt_hours:
 3346              	.LFB47:
 351:ui.c          **** 	format_number(get_microwatt_hours(), "Wh", buf);
 3347              		.loc 1 351 0
 3348              		.cfi_startproc
 3349              		@ args = 0, pretend = 0, frame = 0
 3350              		@ frame_needed = 0, uses_anonymous_args = 0
 3351              	.LVL383:
ARM GAS  C:\Users\VIDEOH~1\AppData\Local\Temp\ccM4oHTP.s 			page 82


 3352 0000 10B5     		push	{r4, lr}
 3353              		.cfi_def_cfa_offset 8
 3354              		.cfi_offset 4, -8
 3355              		.cfi_offset 14, -4
 3356 0002 0400     		movs	r4, r0
 352:ui.c          **** }
 3357              		.loc 1 352 0
 3358 0004 FFF7FEFF 		bl	get_microwatt_hours
 3359              	.LVL384:
 3360 0008 2200     		movs	r2, r4
 3361 000a 0249     		ldr	r1, .L202
 3362 000c FFF7FEFF 		bl	format_number
 3363              	.LVL385:
 353:ui.c          **** 
 3364              		.loc 1 353 0
 3365              		@ sp needed
 3366              	.LVL386:
 3367 0010 10BD     		pop	{r4, pc}
 3368              	.L203:
 3369 0012 C046     		.align	2
 3370              	.L202:
 3371 0014 74010000 		.word	.LC123
 3372              		.cfi_endproc
 3373              	.LFE47:
 3374              		.size	print_watt_hours, .-print_watt_hours
 3375              		.section	.text.vApplicationTickHook,"ax",%progbits
 3376              		.align	2
 3377              		.global	vApplicationTickHook
 3378              		.code	16
 3379              		.thumb_func
 3380              		.type	vApplicationTickHook, %function
 3381              	vApplicationTickHook:
 3382              	.LFB33:
 142:ui.c          **** 	static ui_event event = {.type = UI_EVENT_BUTTONPRESS, .when = 0};
 3383              		.loc 1 142 0
 3384              		.cfi_startproc
 3385              		@ args = 0, pretend = 0, frame = 0
 3386              		@ frame_needed = 0, uses_anonymous_args = 0
 3387 0000 70B5     		push	{r4, r5, r6, lr}
 3388              		.cfi_def_cfa_offset 16
 3389              		.cfi_offset 4, -16
 3390              		.cfi_offset 5, -12
 3391              		.cfi_offset 6, -8
 3392              		.cfi_offset 14, -4
 146:ui.c          ****     if (button_now != event.int_arg)
 3393              		.loc 1 146 0
 3394 0002 FFF7FEFF 		bl	QuadButton_Read
 3395              	.LVL387:
 3396 0006 0500     		movs	r5, r0
 3397              	.LVL388:
 147:ui.c          ****     {
 3398              		.loc 1 147 0
 3399 0008 114B     		ldr	r3, .L207
 3400 000a DB69     		ldr	r3, [r3, #28]
 3401 000c 9842     		cmp	r0, r3
 3402 000e 1ED0     		beq	.L204
 149:ui.c          ****         event.when = xTaskGetTickCountFromISR();
ARM GAS  C:\Users\VIDEOH~1\AppData\Local\Temp\ccM4oHTP.s 			page 83


 3403              		.loc 1 149 0
 3404 0010 0F4E     		ldr	r6, .L207
 3405 0012 104B     		ldr	r3, .L207+4
 3406 0014 726A     		ldr	r2, [r6, #36]
 3407 0016 5A61     		str	r2, [r3, #20]
 150:ui.c          **** 
 3408              		.loc 1 150 0
 3409 0018 FFF7FEFF 		bl	xTaskGetTickCountFromISR
 3410              	.LVL389:
 3411 001c 7062     		str	r0, [r6, #36]
 152:ui.c          **** 
 3412              		.loc 1 152 0
 3413 001e F561     		str	r5, [r6, #28]
 155:ui.c          ****             long_button_press_tick_count = portMAX_DELAY;
 3414              		.loc 1 155 0
 3415 0020 002D     		cmp	r5, #0
 3416 0022 11D0     		beq	.L206
 156:ui.c          ****             if(event.when - before >= (30 * configTICK_RATE_HZ / 1000)) {
 3417              		.loc 1 156 0
 3418 0024 0122     		movs	r2, #1
 3419 0026 5242     		rsbs	r2, r2, #0
 3420 0028 094B     		ldr	r3, .L207
 3421 002a 1A60     		str	r2, [r3]
 157:ui.c          ****     		    xQueueSendToBackFromISR(ui_queue, &event, NULL);
 3422              		.loc 1 157 0
 3423 002c 094B     		ldr	r3, .L207+4
 3424 002e 5B69     		ldr	r3, [r3, #20]
 3425 0030 C01A     		subs	r0, r0, r3
 3426 0032 0228     		cmp	r0, #2
 3427 0034 0BD9     		bls	.L204
 158:ui.c          ****             }
 3428              		.loc 1 158 0
 3429 0036 084B     		ldr	r3, .L207+8
 3430 0038 1868     		ldr	r0, [r3]
 3431 003a 0023     		movs	r3, #0
 3432 003c 0022     		movs	r2, #0
 3433 003e 0449     		ldr	r1, .L207
 3434 0040 1831     		adds	r1, r1, #24
 3435 0042 FFF7FEFF 		bl	xQueueGenericSendFromISR
 3436              	.LVL390:
 3437 0046 02E0     		b	.L204
 3438              	.L206:
 161:ui.c          ****         }
 3439              		.loc 1 161 0
 3440 0048 6430     		adds	r0, r0, #100
 3441 004a 014B     		ldr	r3, .L207
 3442 004c 1860     		str	r0, [r3]
 3443              	.L204:
 164:ui.c          **** 
 3444              		.loc 1 164 0
 3445              		@ sp needed
 3446              	.LVL391:
 3447 004e 70BD     		pop	{r4, r5, r6, pc}
 3448              	.L208:
 3449              		.align	2
 3450              	.L207:
 3451 0050 00000000 		.word	.LANCHOR0
ARM GAS  C:\Users\VIDEOH~1\AppData\Local\Temp\ccM4oHTP.s 			page 84


 3452 0054 00000000 		.word	.LANCHOR1
 3453 0058 00000000 		.word	ui_queue
 3454              		.cfi_endproc
 3455              	.LFE33:
 3456              		.size	vApplicationTickHook, .-vApplicationTickHook
 3457              		.section	.text.vTaskUI,"ax",%progbits
 3458              		.align	2
 3459              		.global	vTaskUI
 3460              		.code	16
 3461              		.thumb_func
 3462              		.type	vTaskUI, %function
 3463              	vTaskUI:
 3464              	.LFB66:
 858:ui.c          **** 
 859:ui.c          **** void vTaskUI( void *pvParameters ) {
 3465              		.loc 1 859 0
 3466              		.cfi_startproc
 3467              		@ args = 0, pretend = 0, frame = 40
 3468              		@ frame_needed = 0, uses_anonymous_args = 0
 3469              	.LVL392:
 3470 0000 30B5     		push	{r4, r5, lr}
 3471              		.cfi_def_cfa_offset 12
 3472              		.cfi_offset 4, -12
 3473              		.cfi_offset 5, -8
 3474              		.cfi_offset 14, -4
 3475 0002 8BB0     		sub	sp, sp, #44
 3476              		.cfi_def_cfa_offset 56
 860:ui.c          **** 	ui_queue = xQueueCreate(2, sizeof(ui_event));
 3477              		.loc 1 860 0
 3478 0004 0022     		movs	r2, #0
 3479 0006 1021     		movs	r1, #16
 3480 0008 0220     		movs	r0, #2
 3481              	.LVL393:
 3482 000a FFF7FEFF 		bl	xQueueGenericCreate
 3483              	.LVL394:
 3484 000e 144B     		ldr	r3, .L214
 3485 0010 1860     		str	r0, [r3]
 861:ui.c          **** 
 862:ui.c          **** 	QuadratureISR_StartEx(quadrature_event_isr);
 3486              		.loc 1 862 0
 3487 0012 1448     		ldr	r0, .L214+4
 3488 0014 FFF7FEFF 		bl	QuadratureISR_StartEx
 3489              	.LVL395:
 863:ui.c          **** 
 864:ui.c          **** 	state_func main_state = STATE_CC_LOAD;
 3490              		.loc 1 864 0
 3491 0018 07A9     		add	r1, sp, #28
 3492 001a 134B     		ldr	r3, .L214+8
 3493 001c 1A00     		movs	r2, r3
 3494 001e 4832     		adds	r2, r2, #72
 3495 0020 31CA     		ldmia	r2!, {r0, r4, r5}
 3496 0022 31C1     		stmia	r1!, {r0, r4, r5}
 865:ui.c          **** 	state_func state = STATE_CC_LOAD;
 3497              		.loc 1 865 0
 3498 0024 04AA     		add	r2, sp, #16
 3499 0026 4833     		adds	r3, r3, #72
 3500 0028 13CB     		ldmia	r3!, {r0, r1, r4}
ARM GAS  C:\Users\VIDEOH~1\AppData\Local\Temp\ccM4oHTP.s 			page 85


 3501 002a 13C2     		stmia	r2!, {r0, r1, r4}
 3502              	.L213:
 3503              	.LBB9:
 866:ui.c          **** 
 867:ui.c          **** 	while(1) {
 868:ui.c          **** 		state_func new_state = state.func(state.arg);
 3504              		.loc 1 868 0
 3505 002c 0599     		ldr	r1, [sp, #20]
 3506 002e 01A8     		add	r0, sp, #4
 3507 0030 049B     		ldr	r3, [sp, #16]
 3508 0032 9847     		blx	r3
 3509              	.LVL396:
 869:ui.c          **** 		if(new_state.func == NULL) {
 3510              		.loc 1 869 0
 3511 0034 019B     		ldr	r3, [sp, #4]
 3512 0036 002B     		cmp	r3, #0
 3513 0038 04D1     		bne	.L210
 870:ui.c          **** 			memcpy(&state, &main_state, sizeof(state_func));
 3514              		.loc 1 870 0
 3515 003a 04AA     		add	r2, sp, #16
 3516 003c 07AB     		add	r3, sp, #28
 3517 003e 13CB     		ldmia	r3!, {r0, r1, r4}
 3518 0040 13C2     		stmia	r2!, {r0, r1, r4}
 3519 0042 03E0     		b	.L211
 3520              	.L210:
 871:ui.c          **** 		} else {
 872:ui.c          **** 			memcpy(&state, &new_state, sizeof(state_func));
 3521              		.loc 1 872 0
 3522 0044 04AA     		add	r2, sp, #16
 3523 0046 01AB     		add	r3, sp, #4
 3524 0048 13CB     		ldmia	r3!, {r0, r1, r4}
 3525 004a 13C2     		stmia	r2!, {r0, r1, r4}
 3526              	.L211:
 873:ui.c          **** 		}
 874:ui.c          **** 
 875:ui.c          **** 		if(state.is_main_state) {
 3527              		.loc 1 875 0
 3528 004c 04AB     		add	r3, sp, #16
 3529 004e 1B7A     		ldrb	r3, [r3, #8]
 3530 0050 5BB2     		sxtb	r3, r3
 3531 0052 002B     		cmp	r3, #0
 3532 0054 EAD0     		beq	.L213
 876:ui.c          **** 			memcpy(&main_state, &state, sizeof(state_func));
 3533              		.loc 1 876 0
 3534 0056 07AA     		add	r2, sp, #28
 3535 0058 04AB     		add	r3, sp, #16
 3536 005a 13CB     		ldmia	r3!, {r0, r1, r4}
 3537 005c 13C2     		stmia	r2!, {r0, r1, r4}
 3538              	.LBE9:
 877:ui.c          **** 		}
 878:ui.c          **** 	}
 3539              		.loc 1 878 0
 3540 005e E5E7     		b	.L213
 3541              	.L215:
 3542              		.align	2
 3543              	.L214:
 3544 0060 00000000 		.word	ui_queue
ARM GAS  C:\Users\VIDEOH~1\AppData\Local\Temp\ccM4oHTP.s 			page 86


 3545 0064 00000000 		.word	quadrature_event_isr
 3546 0068 00010000 		.word	.LANCHOR4
 3547              		.cfi_endproc
 3548              	.LFE66:
 3549              		.size	vTaskUI, .-vTaskUI
 3550              		.global	readout_functions
 3551              		.global	quadrature_states
 3552              		.global	long_button_press_tick_count
 3553              		.global	main_menu
 3554              		.global	tools_menu
 3555              		.global	choose_readout_menu
 3556              		.global	set_readout_menu
 3557              		.comm	ui_queue,4,4
 3558              		.section	.rodata
 3559              		.align	2
 3560              		.set	.LANCHOR2,. + 0
 3561              		.set	.LANCHOR3,. + 128
 3562              		.set	.LANCHOR4,. + 256
 3563              		.type	choose_readout_menu, %object
 3564              		.size	choose_readout_menu, 84
 3565              	choose_readout_menu:
 3566 0000 90010000 		.word	.LC136
 3567 0004 E4010000 		.word	.LC143
 3568 0008 00000000 		.word	0
 3569 000c 01000000 		.word	1
 3570 0010 00       		.byte	0
 3571 0011 000000   		.space	3
 3572 0014 F0010000 		.word	.LC144
 3573 0018 00000000 		.word	0
 3574 001c 02000000 		.word	2
 3575 0020 00       		.byte	0
 3576 0021 000000   		.space	3
 3577 0024 FC010000 		.word	.LC145
 3578 0028 00000000 		.word	0
 3579 002c 03000000 		.word	3
 3580 0030 00       		.byte	0
 3581 0031 000000   		.space	3
 3582 0034 D0010000 		.word	.LC141
 3583 0038 00000000 		.word	0
 3584 003c 00000000 		.word	0
 3585 0040 00       		.byte	0
 3586 0041 000000   		.space	3
 3587 0044 00000000 		.word	0
 3588 0048 00000000 		.word	0
 3589 004c 00000000 		.word	0
 3590 0050 00       		.byte	0
 3591 0051 000000   		.space	3
 3592              		.type	set_readout_menu, %object
 3593              		.size	set_readout_menu, 164
 3594              	set_readout_menu:
 3595 0054 08020000 		.word	.LC146
 3596 0058 18020000 		.word	.LC147
 3597 005c 00000000 		.word	0
 3598 0060 01000000 		.word	1
 3599 0064 00       		.byte	0
 3600 0065 000000   		.space	3
 3601 0068 24020000 		.word	.LC148
ARM GAS  C:\Users\VIDEOH~1\AppData\Local\Temp\ccM4oHTP.s 			page 87


 3602 006c 00000000 		.word	0
 3603 0070 02000000 		.word	2
 3604 0074 00       		.byte	0
 3605 0075 000000   		.space	3
 3606 0078 34020000 		.word	.LC149
 3607 007c 00000000 		.word	0
 3608 0080 03000000 		.word	3
 3609 0084 00       		.byte	0
 3610 0085 000000   		.space	3
 3611 0088 3C020000 		.word	.LC150
 3612 008c 00000000 		.word	0
 3613 0090 04000000 		.word	4
 3614 0094 00       		.byte	0
 3615 0095 000000   		.space	3
 3616 0098 44020000 		.word	.LC151
 3617 009c 00000000 		.word	0
 3618 00a0 05000000 		.word	5
 3619 00a4 00       		.byte	0
 3620 00a5 000000   		.space	3
 3621 00a8 50020000 		.word	.LC152
 3622 00ac 00000000 		.word	0
 3623 00b0 06000000 		.word	6
 3624 00b4 00       		.byte	0
 3625 00b5 000000   		.space	3
 3626 00b8 60020000 		.word	.LC153
 3627 00bc 00000000 		.word	0
 3628 00c0 07000000 		.word	7
 3629 00c4 00       		.byte	0
 3630 00c5 000000   		.space	3
 3631 00c8 6C020000 		.word	.LC154
 3632 00cc 00000000 		.word	0
 3633 00d0 00000000 		.word	0
 3634 00d4 00       		.byte	0
 3635 00d5 000000   		.space	3
 3636 00d8 D0010000 		.word	.LC141
 3637 00dc 00000000 		.word	0
 3638 00e0 00000000 		.word	0
 3639 00e4 00       		.byte	0
 3640 00e5 000000   		.space	3
 3641 00e8 00000000 		.word	0
 3642 00ec 00000000 		.word	0
 3643 00f0 00000000 		.word	0
 3644 00f4 00       		.byte	0
 3645 00f5 000000   		.space	3
 3646              		.type	readout_functions, %object
 3647              		.size	readout_functions, 64
 3648              	readout_functions:
 3649 00f8 00000000 		.word	print_nothing
 3650 00fc 78010000 		.word	.LC132
 3651 0100 00000000 		.word	print_setpoint
 3652 0104 7C010000 		.word	.LC133
 3653 0108 00000000 		.word	print_current_usage
 3654 010c 80010000 		.word	.LC134
 3655 0110 00000000 		.word	print_voltage
 3656 0114 78010000 		.word	.LC132
 3657 0118 00000000 		.word	print_power
 3658 011c 78010000 		.word	.LC132
ARM GAS  C:\Users\VIDEOH~1\AppData\Local\Temp\ccM4oHTP.s 			page 88


 3659 0120 00000000 		.word	print_resistance
 3660 0124 78010000 		.word	.LC132
 3661 0128 00000000 		.word	print_amp_hours
 3662 012c 78010000 		.word	.LC132
 3663 0130 00000000 		.word	print_watt_hours
 3664 0134 78010000 		.word	.LC132
 3665              	.LC103:
 3666 0138 00000000 		.word	menu
 3667 013c 00000000 		.word	main_menu
 3668 0140 00       		.byte	0
 3669 0141 000000   		.space	3
 3670              		.type	quadrature_states, %object
 3671              		.size	quadrature_states, 4
 3672              	quadrature_states:
 3673 0144 01       		.byte	1
 3674 0145 03       		.byte	3
 3675 0146 00       		.byte	0
 3676 0147 02       		.byte	2
 3677              	.LC130:
 3678 0148 00000000 		.word	cc_load
 3679 014c 00000000 		.word	0
 3680 0150 01       		.byte	1
 3681 0151 000000   		.space	3
 3682              		.type	main_menu, %object
 3683              		.size	main_menu, 164
 3684              	main_menu:
 3685 0154 00000000 		.word	0
 3686 0158 84010000 		.word	.LC135
 3687 015c 00000000 		.word	cc_load
 3688 0160 00000000 		.word	0
 3689 0164 01       		.byte	1
 3690 0165 000000   		.space	3
 3691 0168 90010000 		.word	.LC136
 3692 016c 00000000 		.word	display_config
 3693 0170 00000000 		.word	0
 3694 0174 00       		.byte	0
 3695 0175 000000   		.space	3
 3696 0178 40010000 		.word	.LC87
 3697 017c 00000000 		.word	ui_set_min_voltage
 3698 0180 00000000 		.word	0
 3699 0184 00       		.byte	0
 3700 0185 000000   		.space	3
 3701 0188 9C010000 		.word	.LC137
 3702 018c 00000000 		.word	call_void_func
 3703 0190 00000000 		.word	reset_running_totals
 3704 0194 00       		.byte	0
 3705 0195 000000   		.space	3
 3706 0198 AC010000 		.word	.LC138
 3707 019c 00000000 		.word	menu
 3708 01a0 00000000 		.word	tools_menu
 3709 01a4 00       		.byte	0
 3710 01a5 000000   		.space	3
 3711 01a8 F8000000 		.word	.LC65
 3712 01ac 00000000 		.word	set_contrast
 3713 01b0 00000000 		.word	0
 3714 01b4 00       		.byte	0
 3715 01b5 000000   		.space	3
ARM GAS  C:\Users\VIDEOH~1\AppData\Local\Temp\ccM4oHTP.s 			page 89


 3716 01b8 B4010000 		.word	.LC139
 3717 01bc 00000000 		.word	ui_calibrate
 3718 01c0 00000000 		.word	0
 3719 01c4 00       		.byte	0
 3720 01c5 000000   		.space	3
 3721 01c8 C0010000 		.word	.LC140
 3722 01cc 00000000 		.word	upgrade
 3723 01d0 00000000 		.word	0
 3724 01d4 00       		.byte	0
 3725 01d5 000000   		.space	3
 3726 01d8 D0010000 		.word	.LC141
 3727 01dc 00000000 		.word	0
 3728 01e0 00000000 		.word	0
 3729 01e4 00       		.byte	0
 3730 01e5 000000   		.space	3
 3731 01e8 00000000 		.word	0
 3732 01ec 00000000 		.word	0
 3733 01f0 00000000 		.word	0
 3734 01f4 00       		.byte	0
 3735 01f5 000000   		.space	3
 3736              		.type	tools_menu, %object
 3737              		.size	tools_menu, 52
 3738              	tools_menu:
 3739 01f8 00000000 		.word	0
 3740 01fc D8010000 		.word	.LC142
 3741 0200 00000000 		.word	call_void_func
 3742 0204 00000000 		.word	measure_Battery_ISR
 3743 0208 00       		.byte	0
 3744 0209 000000   		.space	3
 3745 020c D0010000 		.word	.LC141
 3746 0210 00000000 		.word	0
 3747 0214 00000000 		.word	0
 3748 0218 00       		.byte	0
 3749 0219 000000   		.space	3
 3750 021c 00000000 		.word	0
 3751 0220 00000000 		.word	0
 3752 0224 00000000 		.word	0
 3753 0228 00       		.byte	0
 3754 0229 000000   		.space	3
 3755              		.data
 3756              		.align	2
 3757              		.set	.LANCHOR0,. + 0
 3758              		.type	long_button_press_tick_count, %object
 3759              		.size	long_button_press_tick_count, 4
 3760              	long_button_press_tick_count:
 3761 0000 FFFFFFFF 		.word	-1
 3762              		.type	last_levels.7711, %object
 3763              		.size	last_levels.7711, 1
 3764              	last_levels.7711:
 3765 0004 03       		.byte	3
 3766 0005 000000   		.space	3
 3767              		.type	event.7710, %object
 3768              		.size	event.7710, 16
 3769              	event.7710:
 3770 0008 03       		.byte	3
 3771 0009 000000   		.space	3
 3772 000c 00000000 		.word	0
ARM GAS  C:\Users\VIDEOH~1\AppData\Local\Temp\ccM4oHTP.s 			page 90


 3773 0010 00000000 		.space	4
 3774 0014 00000000 		.word	0
 3775              		.type	event.7703, %object
 3776              		.size	event.7703, 16
 3777              	event.7703:
 3778 0018 01       		.byte	1
 3779 0019 00000000 		.space	11
 3779      00000000 
 3779      000000
 3780 0024 00000000 		.word	0
 3781              		.section	.rodata.str1.4,"aMS",%progbits,1
 3782              		.align	2
 3783              	.LC2:
 3784 0000 2533642E 		.ascii	"%3d.%03d%s\000"
 3784      25303364 
 3784      257300
 3785 000b 00       		.space	1
 3786              	.LC4:
 3787 000c 20202020 		.ascii	"      \000"
 3787      202000
 3788 0013 00       		.space	1
 3789              	.LC6:
 3790 0014 2531642E 		.ascii	"%1d.%02d\000"
 3790      25303264 
 3790      00
 3791 001d 000000   		.space	3
 3792              	.LC8:
 3793 0020 25303264 		.ascii	"%02d.%1d\000"
 3793      2E253164 
 3793      00
 3794 0029 000000   		.space	3
 3795              	.LC10:
 3796 002c 25303364 		.ascii	"%03d\000"
 3796      00
 3797 0031 000000   		.space	3
 3798              	.LC12:
 3799 0034 6D00     		.ascii	"m\000"
 3800 0036 0000     		.space	2
 3801              	.LC14:
 3802 0038 2000     		.ascii	" \000"
 3803 003a 0000     		.space	2
 3804              	.LC16:
 3805 003c 5600     		.ascii	"V\000"
 3806 003e 0000     		.space	2
 3807              	.LC18:
 3808 0040 55504752 		.ascii	"UPGRADE MODE \000"
 3808      41444520 
 3808      4D4F4445 
 3808      2000
 3809 004e 0000     		.space	2
 3810              	.LC20:
 3811 0050 52656164 		.ascii	"Ready to recv\000"
 3811      7920746F 
 3811      20726563 
 3811      7600
 3812 005e 0000     		.space	2
 3813              	.LC22:
ARM GAS  C:\Users\VIDEOH~1\AppData\Local\Temp\ccM4oHTP.s 			page 91


 3814 0060 20662F77 		.ascii	" f/w update  \000"
 3814      20757064 
 3814      61746520 
 3814      2000
 3815 006e 0000     		.space	2
 3816              	.LC27:
 3817 0070 42617474 		.ascii	"Battery ISR\000"
 3817      65727920 
 3817      49535200 
 3818              	.LC29:
 3819 007c 4C696768 		.ascii	"Light Load\000"
 3819      74204C6F 
 3819      616400
 3820 0087 00       		.space	1
 3821              	.LC31:
 3822 0088 46756C6C 		.ascii	"Full Load\000"
 3822      204C6F61 
 3822      6400
 3823 0092 0000     		.space	2
 3824              	.LC33:
 3825 0094 7F20DF20 		.ascii	"\177 \337 Back\000"
 3825      4261636B 
 3825      00
 3826 009d 000000   		.space	3
 3827              	.LC36:
 3828 00a0 2052656D 		.ascii	" Remove Leads\000"
 3828      6F766520 
 3828      4C656164 
 3828      7300
 3829 00ae 0000     		.space	2
 3830              	.LC38:
 3831 00b0 DF3A204E 		.ascii	"\337: Next\000"
 3831      65787400 
 3832              	.LC41:
 3833 00b8 2041646A 		.ascii	" Adj. voltage\000"
 3833      2E20766F 
 3833      6C746167 
 3833      6500
 3834 00c6 0000     		.space	2
 3835              	.LC46:
 3836 00c8 2041646A 		.ascii	" Adj. Current\000"
 3836      2E204375 
 3836      7272656E 
 3836      7400
 3837 00d6 0000     		.space	2
 3838              	.LC49:
 3839 00d8 4100     		.ascii	"A\000"
 3840 00da 0000     		.space	2
 3841              	.LC57:
 3842 00dc 506C6561 		.ascii	"Please wait\000"
 3842      73652077 
 3842      61697400 
 3843              	.LC62:
 3844 00e8 2043414C 		.ascii	" CALIBRATION \000"
 3844      49425241 
 3844      54494F4E 
 3844      2000
ARM GAS  C:\Users\VIDEOH~1\AppData\Local\Temp\ccM4oHTP.s 			page 92


 3845 00f6 0000     		.space	2
 3846              	.LC65:
 3847 00f8 436F6E74 		.ascii	"Contrast\000"
 3847      72617374 
 3847      00
 3848 0101 000000   		.space	3
 3849              	.LC67:
 3850 0104 DF3A2044 		.ascii	"\337: Done\000"
 3850      6F6E6500 
 3851              	.LC72:
 3852 010c 21204F56 		.ascii	"! OVERTEMP !\000"
 3852      45525445 
 3852      4D502021 
 3852      00
 3853 0119 000000   		.space	3
 3854              	.LC74:
 3855 011c 2120554E 		.ascii	"! UNDERVOLT !\000"
 3855      44455256 
 3855      4F4C5420 
 3855      2100
 3856 012a 0000     		.space	2
 3857              	.LC76:
 3858 012c DF3A2052 		.ascii	"\337: Reset\000"
 3858      65736574 
 3858      00
 3859 0135 000000   		.space	3
 3860              	.LC78:
 3861 0138 BE00     		.ascii	"\276\000"
 3862 013a 0000     		.space	2
 3863              	.LC81:
 3864 013c BF00     		.ascii	"\277\000"
 3865 013e 0000     		.space	2
 3866              	.LC87:
 3867 0140 4D696E20 		.ascii	"Min Voltage\000"
 3867      566F6C74 
 3867      61676500 
 3868              	.LC90:
 3869 014c 4F4E00   		.ascii	"ON\000"
 3870 014f 00       		.space	1
 3871              	.LC92:
 3872 0150 4F464600 		.ascii	"OFF\000"
 3873              	.LC97:
 3874 0154 73657420 		.ascii	"set %d\015\012\000"
 3874      25640D0A 
 3874      00
 3875 015d 000000   		.space	3
 3876              	.LC115:
 3877 0160 5700     		.ascii	"W\000"
 3878 0162 0000     		.space	2
 3879              	.LC117:
 3880 0164 7F00     		.ascii	"\177\000"
 3881 0166 0000     		.space	2
 3882              	.LC119:
 3883 0168 2D2D2D2D 		.ascii	"----\177\000"
 3883      7F00
 3884 016e 0000     		.space	2
 3885              	.LC121:
ARM GAS  C:\Users\VIDEOH~1\AppData\Local\Temp\ccM4oHTP.s 			page 93


 3886 0170 416800   		.ascii	"Ah\000"
 3887 0173 00       		.space	1
 3888              	.LC123:
 3889 0174 576800   		.ascii	"Wh\000"
 3890 0177 00       		.space	1
 3891              	.LC132:
 3892 0178 00       		.ascii	"\000"
 3893 0179 000000   		.space	3
 3894              	.LC133:
 3895 017c 53455400 		.ascii	"SET\000"
 3896              	.LC134:
 3897 0180 41435400 		.ascii	"ACT\000"
 3898              	.LC135:
 3899 0184 432F4320 		.ascii	"C/C Load\000"
 3899      4C6F6164 
 3899      00
 3900 018d 000000   		.space	3
 3901              	.LC136:
 3902 0190 52656164 		.ascii	"Readouts\000"
 3902      6F757473 
 3902      00
 3903 0199 000000   		.space	3
 3904              	.LC137:
 3905 019c 52657365 		.ascii	"Reset Totals\000"
 3905      7420546F 
 3905      74616C73 
 3905      00
 3906 01a9 000000   		.space	3
 3907              	.LC138:
 3908 01ac 546F6F6C 		.ascii	"Tools\000"
 3908      7300
 3909 01b2 0000     		.space	2
 3910              	.LC139:
 3911 01b4 43616C69 		.ascii	"Calibrate\000"
 3911      62726174 
 3911      6500
 3912 01be 0000     		.space	2
 3913              	.LC140:
 3914 01c0 55706772 		.ascii	"Upgrade Mode\000"
 3914      61646520 
 3914      4D6F6465 
 3914      00
 3915 01cd 000000   		.space	3
 3916              	.LC141:
 3917 01d0 45584954 		.ascii	"EXIT\000"
 3917      00
 3918 01d5 000000   		.space	3
 3919              	.LC142:
 3920 01d8 42617474 		.ascii	"Batt ISR.\000"
 3920      20495352 
 3920      2E00
 3921 01e2 0000     		.space	2
 3922              	.LC143:
 3923 01e4 4D61696E 		.ascii	"Main disp.\000"
 3923      20646973 
 3923      702E00
 3924 01ef 00       		.space	1
ARM GAS  C:\Users\VIDEOH~1\AppData\Local\Temp\ccM4oHTP.s 			page 94


 3925              	.LC144:
 3926 01f0 4C656674 		.ascii	"Left disp.\000"
 3926      20646973 
 3926      702E00
 3927 01fb 00       		.space	1
 3928              	.LC145:
 3929 01fc 52696768 		.ascii	"Right disp.\000"
 3929      74206469 
 3929      73702E00 
 3930              	.LC146:
 3931 0208 43686F6F 		.ascii	"Choose value\000"
 3931      73652076 
 3931      616C7565 
 3931      00
 3932 0215 000000   		.space	3
 3933              	.LC147:
 3934 0218 53657420 		.ascii	"Set Current\000"
 3934      43757272 
 3934      656E7400 
 3935              	.LC148:
 3936 0224 4163742E 		.ascii	"Act. Current\000"
 3936      20437572 
 3936      72656E74 
 3936      00
 3937 0231 000000   		.space	3
 3938              	.LC149:
 3939 0234 566F6C74 		.ascii	"Voltage\000"
 3939      61676500 
 3940              	.LC150:
 3941 023c 506F7765 		.ascii	"Power\000"
 3941      7200
 3942 0242 0000     		.space	2
 3943              	.LC151:
 3944 0244 52657369 		.ascii	"Resistance\000"
 3944      7374616E 
 3944      636500
 3945 024f 00       		.space	1
 3946              	.LC152:
 3947 0250 546F7461 		.ascii	"Total current\000"
 3947      6C206375 
 3947      7272656E 
 3947      7400
 3948 025e 0000     		.space	2
 3949              	.LC153:
 3950 0260 546F7461 		.ascii	"Total power\000"
 3950      6C20706F 
 3950      77657200 
 3951              	.LC154:
 3952 026c 4E6F6E65 		.ascii	"None\000"
 3952      00
 3953              		.bss
 3954              		.align	2
 3955              		.set	.LANCHOR1,. + 0
 3956              		.type	long_press_sent.7742, %object
 3957              		.size	long_press_sent.7742, 1
 3958              	long_press_sent.7742:
 3959 0000 00       		.space	1
ARM GAS  C:\Users\VIDEOH~1\AppData\Local\Temp\ccM4oHTP.s 			page 95


 3960 0001 000000   		.space	3
 3961              		.type	last_tick.7741, %object
 3962              		.size	last_tick.7741, 4
 3963              	last_tick.7741:
 3964 0004 00000000 		.space	4
 3965              		.type	last_adjust_current_setpoint.7895, %object
 3966              		.size	last_adjust_current_setpoint.7895, 4
 3967              	last_adjust_current_setpoint.7895:
 3968 0008 00000000 		.space	4
 3969              		.type	count.7712, %object
 3970              		.size	count.7712, 1
 3971              	count.7712:
 3972 000c 00       		.space	1
 3973 000d 000000   		.space	3
 3974              		.type	before.7713, %object
 3975              		.size	before.7713, 4
 3976              	before.7713:
 3977 0010 00000000 		.space	4
 3978              		.type	before.7704, %object
 3979              		.size	before.7704, 4
 3980              	before.7704:
 3981 0014 00000000 		.space	4
 3982              		.text
 3983              	.Letext0:
 3984              		.file 2 "c:\\program files (x86)\\cypress\\psoc creator\\4.2\\psoc creator\\import\\gnu\\arm\\5.4.
 3985              		.file 3 "c:\\program files (x86)\\cypress\\psoc creator\\4.2\\psoc creator\\import\\gnu\\arm\\5.4.
 3986              		.file 4 "Generated_Source\\PSoC4/cytypes.h"
 3987              		.file 5 "Generated_Source\\PSoC4/cy_em_eeprom.h"
 3988              		.file 6 "config.h"
 3989              		.file 7 ".\\freertos\\include/portmacro.h"
 3990              		.file 8 ".\\freertos\\include/queue.h"
 3991              		.file 9 "tasks.h"
 3992              		.file 10 "Generated_Source\\PSoC4/EEPROM.h"
 3993              		.file 11 "Generated_Source\\PSoC4/CyLib.h"
 3994              		.file 12 "Generated_Source\\PSoC4/CyLFClk.h"
 3995              		.file 13 "c:\\program files (x86)\\cypress\\psoc creator\\4.2\\psoc creator\\import\\gnu\\arm\\5.4
 3996              		.file 14 "c:\\program files (x86)\\cypress\\psoc creator\\4.2\\psoc creator\\import\\gnu\\arm\\5.4
 3997              		.file 15 "Generated_Source\\PSoC4/Display.h"
 3998              		.file 16 "Generated_Source\\PSoC4/Bootloadable.h"
 3999              		.file 17 ".\\freertos\\include/task.h"
 4000              		.file 18 "Generated_Source\\PSoC4/IDAC_Low.h"
 4001              		.file 19 "Generated_Source\\PSoC4/IDAC_High.h"
 4002              		.file 20 "calibrate.h"
 4003              		.file 21 "comms.h"
 4004              		.file 22 "Generated_Source\\PSoC4/Quadrature.h"
 4005              		.file 23 "Generated_Source\\PSoC4/QuadButton.h"
 4006              		.file 24 "Generated_Source\\PSoC4/QuadratureISR.h"
 4007              		.file 25 "<built-in>"