ARM GAS  C:\Users\VIDEOH~1\AppData\Local\Temp\ccM4oHTP.s 			page 1


   1              		.syntax unified
   2              		.cpu cortex-m0
   3              		.fpu softvfp
   4              		.eabi_attribute 20, 1
   5              		.eabi_attribute 21, 1
   6              		.eabi_attribute 23, 3
   7              		.eabi_attribute 24, 1
   8              		.eabi_attribute 25, 1
   9              		.eabi_attribute 26, 1
  10              		.eabi_attribute 30, 1
  11              		.eabi_attribute 34, 0
  12              		.eabi_attribute 18, 4
  13              		.thumb
  14              		.syntax unified
  15              		.file	"ui.c"
  16              		.text
  17              	.Ltext0:
  18              		.cfi_sections	.debug_frame
  19              		.section	.text.call_void_func,"ax",%progbits
  20              		.align	2
  21              		.code	16
  22              		.thumb_func
  23              		.type	call_void_func, %function
  24              	call_void_func:
  25              	.LFB52:
  26              		.file 1 "ui.c"
   1:ui.c          **** /* ========================================
   2:ui.c          ****  *
   3:ui.c          ****  * Copyright Arachnid Labs, 2013
   4:ui.c          ****  * All Rights Reserved
   5:ui.c          ****  * UNPUBLISHED, LICENSED SOFTWARE.
   6:ui.c          ****  *
   7:ui.c          ****  * CONFIDENTIAL AND PROPRIETARY INFORMATION
   8:ui.c          ****  * WHICH IS THE PROPERTY OF your company.
   9:ui.c          ****  *
  10:ui.c          ****  * ========================================
  11:ui.c          **** */
  12:ui.c          **** 
  13:ui.c          **** #include "comms.h"
  14:ui.c          **** #include "calibrate.h"
  15:ui.c          **** #include "tasks.h"
  16:ui.c          **** #include "Display_font.h"
  17:ui.c          **** #include "config.h"
  18:ui.c          **** #include <FreeRTOS.h>
  19:ui.c          **** #include <task.h>
  20:ui.c          **** #include <queue.h>
  21:ui.c          **** #include <stdio.h>
  22:ui.c          **** #include <stdlib.h>
  23:ui.c          **** 
  24:ui.c          **** xQueueHandle ui_queue;
  25:ui.c          **** 
  26:ui.c          **** typedef struct {
  27:ui.c          **** 	void (*func)(char *);
  28:ui.c          **** 	char *label;
  29:ui.c          **** } readout_function_impl;
  30:ui.c          **** 
  31:ui.c          **** typedef struct state_func_t {
ARM GAS  C:\Users\VIDEOH~1\AppData\Local\Temp\ccM4oHTP.s 			page 2


  32:ui.c          **** 	struct state_func_t (*func)(const void*);
  33:ui.c          **** 	const void *arg;
  34:ui.c          **** 	const int8 is_main_state;
  35:ui.c          **** } state_func;
  36:ui.c          **** 
  37:ui.c          **** typedef enum {
  38:ui.c          **** 	VALUE_TYPE_CURRENT_RANGE,
  39:ui.c          **** } value_type;
  40:ui.c          **** 
  41:ui.c          **** typedef struct {
  42:ui.c          **** 	const char *caption;
  43:ui.c          **** 	const state_func new_state;
  44:ui.c          **** } menuitem;
  45:ui.c          **** 
  46:ui.c          **** typedef struct {
  47:ui.c          **** 	const char *title;
  48:ui.c          **** 	const menuitem items[];
  49:ui.c          **** } menudata;
  50:ui.c          **** 
  51:ui.c          **** typedef struct {
  52:ui.c          **** 	const value_type type;
  53:ui.c          **** 	const void *target;
  54:ui.c          **** 	const int value;
  55:ui.c          **** } valueconfig;
  56:ui.c          **** 
  57:ui.c          **** typedef void (*void_func)();
  58:ui.c          **** 
  59:ui.c          **** static state_func cc_load(const void*);
  60:ui.c          **** static state_func menu(const void*);
  61:ui.c          **** static state_func ui_set_min_voltage(const void*);
  62:ui.c          **** static state_func ui_calibrate(const void*);
  63:ui.c          **** static state_func display_config(const void*);
  64:ui.c          **** static state_func set_contrast(const void *);
  65:ui.c          **** static state_func overlimit(const void*);
  66:ui.c          **** static state_func call_void_func(const void*);
  67:ui.c          **** static state_func upgrade(const void*);
  68:ui.c          **** static void measure_Battery_ISR();
  69:ui.c          **** 
  70:ui.c          **** #define STATE_MAIN_MENU {menu, &main_menu, 0}/*Initally we start on this menu entry*/
  71:ui.c          **** #define STATE_TOOLS_MENU {menu,&tools_menu,0}/*Tools menu*/
  72:ui.c          **** /*Following are all the details for the menu items*/
  73:ui.c          **** #define STATE_MAIN                  {NULL, NULL, 0}
  74:ui.c          **** #define STATE_CC_LOAD               {cc_load, NULL, 1}
  75:ui.c          **** #define STATE_MIN_VOLTAGE           {ui_set_min_voltage, NULL, 0}
  76:ui.c          **** #define STATE_CALIBRATE             {ui_calibrate, NULL, 0}
  77:ui.c          **** #define STATE_CONFIGURE_CC_DISPLAY  {display_config, 0, 0}
  78:ui.c          **** #define STATE_SET_CONTRAST          {set_contrast, NULL, 0}
  79:ui.c          **** #define STATE_LIMIT                 {overlimit, NULL, 0}
  80:ui.c          **** #define STATE_RESET_TOTALS          {call_void_func, (void_func)reset_running_totals, 0}
  81:ui.c          **** #define STATE_UPGRADE               {upgrade, NULL, 0}
  82:ui.c          **** #define STATE_BATTERY_ISR           {"Batt ISR.", {call_void_func,measure_Battery_ISR , 0}}
  83:ui.c          **** 
  84:ui.c          **** const menudata set_readout_menu = {
  85:ui.c          **** 	"Choose value",
  86:ui.c          **** 	{
  87:ui.c          **** 		{"Set Current", {NULL, (void*)READOUT_CURRENT_SETPOINT, 0}},
  88:ui.c          **** 		{"Act. Current", {NULL, (void*)READOUT_CURRENT_USAGE, 0}},
ARM GAS  C:\Users\VIDEOH~1\AppData\Local\Temp\ccM4oHTP.s 			page 3


  89:ui.c          **** 		{"Voltage", {NULL, (void*)READOUT_VOLTAGE, 0}},
  90:ui.c          **** 		{"Power", {NULL, (void*)READOUT_POWER, 0}},
  91:ui.c          **** 		{"Resistance", {NULL, (void*)READOUT_RESISTANCE, 0}},
  92:ui.c          **** 		{"Total current", {NULL, (void*)READOUT_TOTAL_CURRENT, 0}},
  93:ui.c          **** 		{"Total power", {NULL, (void*)READOUT_TOTAL_POWER, 0}},
  94:ui.c          **** 		{"None", {NULL, (void*)READOUT_NONE, 0}},
  95:ui.c          ****         {"EXIT", STATE_MAIN},
  96:ui.c          **** 		{NULL, {NULL, NULL, 0}},
  97:ui.c          **** 	}
  98:ui.c          **** };
  99:ui.c          **** 
 100:ui.c          **** const menudata choose_readout_menu = {
 101:ui.c          **** 	"Readouts",
 102:ui.c          **** 	{
 103:ui.c          **** 		{"Main disp.", {NULL, (void*)1, 0}},
 104:ui.c          **** 		{"Left disp.", {NULL, (void*)2, 0}},
 105:ui.c          **** 		{"Right disp.", {NULL, (void*)3, 0}},
 106:ui.c          ****         {"EXIT", STATE_MAIN},
 107:ui.c          **** 		{NULL, {NULL, NULL, 0}},
 108:ui.c          **** 	}
 109:ui.c          **** };
 110:ui.c          **** 
 111:ui.c          **** const menudata tools_menu = {
 112:ui.c          **** 	NULL,
 113:ui.c          **** 	{
 114:ui.c          **** 		STATE_BATTERY_ISR,
 115:ui.c          ****         {"EXIT", STATE_MAIN},
 116:ui.c          **** 		{NULL, {NULL, NULL, 0}},
 117:ui.c          **** 	}
 118:ui.c          **** };
 119:ui.c          **** 
 120:ui.c          **** 
 121:ui.c          **** const menudata main_menu = {
 122:ui.c          **** 	NULL,
 123:ui.c          **** 	{
 124:ui.c          **** 		{"C/C Load", STATE_CC_LOAD},
 125:ui.c          **** 		{"Readouts", STATE_CONFIGURE_CC_DISPLAY},
 126:ui.c          ****         {"Min Voltage", STATE_MIN_VOLTAGE},
 127:ui.c          **** 		{"Reset Totals", STATE_RESET_TOTALS},
 128:ui.c          ****         {"Tools",STATE_TOOLS_MENU},
 129:ui.c          **** 		{"Contrast", STATE_SET_CONTRAST},
 130:ui.c          **** 		{"Calibrate", STATE_CALIBRATE},
 131:ui.c          **** 		{"Upgrade Mode", STATE_UPGRADE},
 132:ui.c          ****         {"EXIT", STATE_MAIN},
 133:ui.c          **** 		{NULL, {NULL, NULL, 0}},
 134:ui.c          **** 	}
 135:ui.c          **** };
 136:ui.c          **** 
 137:ui.c          **** 
 138:ui.c          **** 
 139:ui.c          **** volatile portTickType long_button_press_tick_count = portMAX_DELAY;
 140:ui.c          **** 
 141:ui.c          **** void vApplicationTickHook( void )
 142:ui.c          **** {
 143:ui.c          **** 	static ui_event event = {.type = UI_EVENT_BUTTONPRESS, .when = 0};
 144:ui.c          ****     static portTickType before = 0;
 145:ui.c          **** 
ARM GAS  C:\Users\VIDEOH~1\AppData\Local\Temp\ccM4oHTP.s 			page 4


 146:ui.c          ****     int button_now = QuadButton_Read();
 147:ui.c          ****     if (button_now != event.int_arg)
 148:ui.c          ****     {
 149:ui.c          ****         before = event.when;
 150:ui.c          ****         event.when = xTaskGetTickCountFromISR();
 151:ui.c          **** 
 152:ui.c          ****     	event.int_arg = button_now;
 153:ui.c          **** 
 154:ui.c          ****         // it is suggested to have debounce timer of 5-30 ms in different sources, so going with co
 155:ui.c          ****     	if(event.int_arg) {
 156:ui.c          ****             long_button_press_tick_count = portMAX_DELAY;
 157:ui.c          ****             if(event.when - before >= (30 * configTICK_RATE_HZ / 1000)) {
 158:ui.c          ****     		    xQueueSendToBackFromISR(ui_queue, &event, NULL);
 159:ui.c          ****             }
 160:ui.c          ****     	} else {
 161:ui.c          ****             long_button_press_tick_count = event.when + configTICK_RATE_HZ;
 162:ui.c          ****         }
 163:ui.c          ****     }
 164:ui.c          **** }
 165:ui.c          **** 
 166:ui.c          **** // Maps current state (index) to next state for a forward transition.
 167:ui.c          **** const int8 quadrature_states[] = {0x1, 0x3, 0x0, 0x2};
 168:ui.c          **** 
 169:ui.c          **** CY_ISR(quadrature_event_isr) {
 170:ui.c          **** 	static ui_event event = {.type = UI_EVENT_UPDOWN, .when = 0, .int_arg = 0};
 171:ui.c          ****     static int8 last_levels = 3;
 172:ui.c          **** 	static int8 count = 0;
 173:ui.c          ****     static portTickType before = 0;
 174:ui.c          **** 
 175:ui.c          **** 	int levels = Quadrature_Read();
 176:ui.c          **** 	Quadrature_ClearInterrupt();
 177:ui.c          **** 
 178:ui.c          **** 	if(quadrature_states[last_levels] == levels) {
 179:ui.c          **** 		count += 1;
 180:ui.c          **** 		last_levels = levels;
 181:ui.c          **** 	} else if(quadrature_states[levels] == last_levels) {
 182:ui.c          **** 		count -= 1;
 183:ui.c          **** 		last_levels = levels;
 184:ui.c          **** 	}
 185:ui.c          **** 
 186:ui.c          **** 	if(abs(count) >= 4) {
 187:ui.c          ****         before = event.when;
 188:ui.c          ****         event.when = xTaskGetTickCountFromISR();
 189:ui.c          **** 
 190:ui.c          ****         // calculate step size that is inversely proportional to the time that has passed since las
 191:ui.c          ****         event.duration = event.when - before;
 192:ui.c          ****         if(event.duration < 1)
 193:ui.c          ****             event.duration = 1;
 194:ui.c          **** 
 195:ui.c          ****         event.int_arg = count / 4;
 196:ui.c          **** 		xQueueSendToBackFromISR(ui_queue, &event, NULL);
 197:ui.c          **** 		count = count % 4;
 198:ui.c          **** 	}
 199:ui.c          **** }
 200:ui.c          **** 
 201:ui.c          **** static void format_number(int num, const char *suffix, char *out) {
 202:ui.c          **** 	if(num < 0)
ARM GAS  C:\Users\VIDEOH~1\AppData\Local\Temp\ccM4oHTP.s 			page 5


 203:ui.c          **** 		num = 0;
 204:ui.c          **** 
 205:ui.c          **** 	int magnitude = 1;
 206:ui.c          **** 	while(num >= 1000000) {
 207:ui.c          **** 		num /= 1000;
 208:ui.c          **** 		magnitude++;
 209:ui.c          **** 	}
 210:ui.c          **** 
 211:ui.c          **** 	int whole = num / 1000, remainder = num % 1000;
 212:ui.c          **** 	if(whole < 10) {
 213:ui.c          **** 		// Format: x.xx
 214:ui.c          **** 		sprintf(out, "%1d.%02d", whole, remainder / 10);
 215:ui.c          **** 	} else if(whole < 100) {
 216:ui.c          **** 		// Format: xx.x
 217:ui.c          **** 		sprintf(out, "%02d.%1d", whole, remainder / 100);
 218:ui.c          **** 	} else {
 219:ui.c          **** 		// Format: xxx
 220:ui.c          **** 		sprintf(out, "%03d", whole);
 221:ui.c          **** 	}
 222:ui.c          **** 
 223:ui.c          **** 	if(magnitude == 1) {
 224:ui.c          **** 		strcat(out, "m");
 225:ui.c          **** 		strcat(out, suffix);
 226:ui.c          **** 	} else {
 227:ui.c          **** 		strcat(out, suffix);
 228:ui.c          **** 		strcat(out, " ");
 229:ui.c          **** 	}
 230:ui.c          **** }
 231:ui.c          **** 
 232:ui.c          **** static void format_number_simple(int num, const char *suffix, char *out) {
 233:ui.c          **** 	if(num < 0) num = 0;
 234:ui.c          **** 	num /= 1000;
 235:ui.c          **** 	int whole = num / 1000, remainder = num % 1000;
 236:ui.c          **** 	sprintf(out, "%3d.%03d%s", whole, remainder, suffix);
 237:ui.c          **** }
 238:ui.c          **** 
 239:ui.c          **** static void adjust_current_setpoint(int delta, portTickType duration) {
 240:ui.c          ****     // Implement encoder acceleration
 241:ui.c          ****     int step = (((ENCODER_ACCEL_CONSTANT * configTICK_RATE_HZ) / 1000) / duration);
 242:ui.c          ****     if(step < 1)
 243:ui.c          ****         step = 1;
 244:ui.c          **** 	set_current(state.current_setpoint + delta * step * CURRENT_STEP);
 245:ui.c          ****     uart_printf("set %d\r\n", state.current_setpoint / 1000);
 246:ui.c          **** }
 247:ui.c          **** 
 248:ui.c          **** static void next_event(ui_event *event) {
 249:ui.c          **** 	static portTickType last_tick = 0;
 250:ui.c          ****     static uint8 long_press_sent = 0;
 251:ui.c          **** 
 252:ui.c          ****     portTickType now = xTaskGetTickCount();
 253:ui.c          **** 
 254:ui.c          ****     if(now > long_button_press_tick_count && !long_press_sent) {
 255:ui.c          ****         event->type = UI_EVENT_LONG_BUTTONPRESS;
 256:ui.c          ****         event->when = now;
 257:ui.c          ****         event->int_arg = 0;
 258:ui.c          ****         long_press_sent = 1;
 259:ui.c          ****     } else if(now - last_tick >  configTICK_RATE_HZ / UI_TASK_FREQUENCY
ARM GAS  C:\Users\VIDEOH~1\AppData\Local\Temp\ccM4oHTP.s 			page 6


 260:ui.c          ****         || !xQueueReceive(ui_queue, event, configTICK_RATE_HZ / UI_TASK_FREQUENCY - (now - last_tic
 261:ui.c          **** 		event->type = UI_EVENT_TICK;
 262:ui.c          **** 		event->when = now;
 263:ui.c          **** 		last_tick = now;
 264:ui.c          **** #ifdef USE_WATCHDOG
 265:ui.c          ****         CySysWdtResetCounters(CY_SYS_WDT_COUNTER0_RESET);
 266:ui.c          **** #endif
 267:ui.c          **** 	} else if(event->type == UI_EVENT_BOOTLOAD) {
 268:ui.c          ****         // Bootloading overrides everything
 269:ui.c          ****         upgrade(NULL); // Never returns
 270:ui.c          ****     } else if(event->type == UI_EVENT_BUTTONPRESS && long_press_sent) {
 271:ui.c          ****         long_press_sent = 0;
 272:ui.c          **** 		event->type = UI_EVENT_TICK;
 273:ui.c          **** 		event->when = now;
 274:ui.c          **** 		last_tick = now;
 275:ui.c          **** #ifdef USE_WATCHDOG
 276:ui.c          ****         CySysWdtResetCounters(CY_SYS_WDT_COUNTER0_RESET);
 277:ui.c          **** #endif
 278:ui.c          ****     }
 279:ui.c          **** }
 280:ui.c          **** 
 281:ui.c          **** static void draw_menu(const menudata *menu, int selected) {
 282:ui.c          **** 	int start_row = 0;
 283:ui.c          **** 	int height = 4;
 284:ui.c          **** 
 285:ui.c          **** 	if(menu->title) {
 286:ui.c          **** 		int8 padding = (158 - strlen(menu->title) * 12) / 2;
 287:ui.c          **** 		Display_Clear(0, 2, 2, padding + 1, 0xFF);
 288:ui.c          **** 		Display_DrawText(0, padding + 1, menu->title, 1);
 289:ui.c          **** 		Display_Clear(0, 160 - padding - 1, 2, 160, 0xFF);
 290:ui.c          **** 		start_row++;
 291:ui.c          **** 		height--;
 292:ui.c          **** 	}
 293:ui.c          **** 
 294:ui.c          **** 	Display_DrawText(start_row * 2, 148, ((selected / height) > 0)?FONT_GLYPH_UARR:" ", 0);
 295:ui.c          **** 
 296:ui.c          **** 	// Find the block of items the selected element is in
 297:ui.c          **** 	const menuitem *current = &menu->items[selected - selected % height];
 298:ui.c          **** 	selected %= height;
 299:ui.c          **** 
 300:ui.c          **** 	for(int i = 0; i < height; i++) {
 301:ui.c          **** 		if(current->caption != NULL) {
 302:ui.c          **** 			Display_DrawText((i + start_row) * 2, 2, current->caption, i == selected);
 303:ui.c          **** 			Display_Clear((i + start_row) * 2, strlen(current->caption) * 12 + 1, (i + start_row + 1) * 2, 1
 304:ui.c          **** 			current++;
 305:ui.c          **** 		} else {
 306:ui.c          **** 			Display_Clear((i + start_row) * 2, 1, (i + start_row + 1) * 2, 160, 0);
 307:ui.c          **** 		}
 308:ui.c          **** 	}
 309:ui.c          **** 
 310:ui.c          **** 	if(current->caption != NULL) {
 311:ui.c          **** 		Display_DrawText(6, 148, FONT_GLYPH_DARR, 0);
 312:ui.c          **** 	} else {
 313:ui.c          **** 		Display_DrawText(6, 148, " ", 0);
 314:ui.c          **** 	}
 315:ui.c          **** }
 316:ui.c          **** 
ARM GAS  C:\Users\VIDEOH~1\AppData\Local\Temp\ccM4oHTP.s 			page 7


 317:ui.c          **** void print_nothing(char *buf) {
 318:ui.c          **** 	strcpy(buf, "      ");
 319:ui.c          **** }
 320:ui.c          **** 
 321:ui.c          **** void print_setpoint(char *buf) {
 322:ui.c          **** 	format_number(get_current_setpoint(), "A", buf);
 323:ui.c          **** }
 324:ui.c          **** 
 325:ui.c          **** void print_current_usage(char *buf) {
 326:ui.c          **** 	format_number(get_current_usage(), "A", buf);
 327:ui.c          **** }
 328:ui.c          **** 
 329:ui.c          **** void print_voltage(char *buf) {
 330:ui.c          **** 	format_number(get_voltage(), "V", buf);
 331:ui.c          **** }
 332:ui.c          **** 
 333:ui.c          **** void print_power(char *buf) {
 334:ui.c          **** 	int power = (get_current_usage() / 1000) * (get_voltage() / 1000);
 335:ui.c          **** 	format_number(power, "W", buf);
 336:ui.c          **** }
 337:ui.c          **** 
 338:ui.c          **** void print_resistance(char *buf) {
 339:ui.c          **** 	int current = get_current_usage();
 340:ui.c          **** 	if(current > 0) {
 341:ui.c          **** 		format_number(((get_voltage() * 10) / (current / 100000)), FONT_GLYPH_OHM, buf);
 342:ui.c          **** 	} else {
 343:ui.c          **** 		strcpy(buf, "----" FONT_GLYPH_OHM);
 344:ui.c          **** 	}
 345:ui.c          **** }
 346:ui.c          **** 
 347:ui.c          **** void print_amp_hours(char *buf) {
 348:ui.c          **** 	format_number(get_microamp_hours(), "Ah", buf);
 349:ui.c          **** }
 350:ui.c          **** 
 351:ui.c          **** void print_watt_hours(char *buf) {
 352:ui.c          **** 	format_number(get_microwatt_hours(), "Wh", buf);
 353:ui.c          **** }
 354:ui.c          **** 
 355:ui.c          **** const readout_function_impl readout_functions[] = {
 356:ui.c          **** 	{print_nothing, ""},
 357:ui.c          **** 	{print_setpoint, "SET"},
 358:ui.c          **** 	{print_current_usage, "ACT"},
 359:ui.c          **** 	{print_voltage, ""},
 360:ui.c          **** 	{print_power, ""},
 361:ui.c          **** 	{print_resistance, ""},
 362:ui.c          **** 	{print_amp_hours, ""},
 363:ui.c          **** 	{print_watt_hours, ""},
 364:ui.c          **** };
 365:ui.c          **** 
 366:ui.c          **** static void draw_status(const display_config_t *config, uint8 force_current_setpoint_readout) {
 367:ui.c          **** 	char buf[8];
 368:ui.c          **** 
 369:ui.c          **** 	// Draw the main info
 370:ui.c          **** 	const readout_function_impl *readout = &readout_functions[force_current_setpoint_readout?READOUT_C
 371:ui.c          **** 	if(readout->func != print_nothing) {
 372:ui.c          **** 		readout->func(buf);
 373:ui.c          **** 		strcat(buf, " ");
ARM GAS  C:\Users\VIDEOH~1\AppData\Local\Temp\ccM4oHTP.s 			page 8


 374:ui.c          **** 		Display_DrawBigNumbers(0, 0, buf);
 375:ui.c          **** 		if(strchr(buf, '.') == NULL)
 376:ui.c          **** 			// Clear any detritus left over from longer strings
 377:ui.c          **** 			Display_Clear(0, 108, 4, 120, 0);
 378:ui.c          **** 	} else {
 379:ui.c          **** 		Display_Clear(0, 0, 6, 120, 0);
 380:ui.c          **** 		Display_Clear(4, 120, 6, 160, 0);
 381:ui.c          **** 	}
 382:ui.c          **** 
 383:ui.c          **** 	// Draw the type in the top right
 384:ui.c          **** 	uint8 labelsize = strlen(readout->label) * 12;
 385:ui.c          **** 	Display_DrawText(0, 160 - labelsize, readout->label, 1);
 386:ui.c          **** 	if(labelsize < 36)
 387:ui.c          **** 		Display_Clear(0, 124, 2, 160 - labelsize, 0);
 388:ui.c          **** 
 389:ui.c          ****     // Draw the state in the middle right
 390:ui.c          ****     if(get_output_mode() == OUTPUT_MODE_OFF) {
 391:ui.c          ****     	Display_DrawText(2, 160 - 36, "OFF", 1);
 392:ui.c          ****     } else {
 393:ui.c          ****         Display_Clear(2, 124, 4, 160, 0);
 394:ui.c          ****     }
 395:ui.c          **** 
 396:ui.c          **** 	// Draw the two smaller displays
 397:ui.c          **** 	for(int i = 0; i < 2; i++) {
 398:ui.c          **** 		readout = &readout_functions[config->readouts[i + 1]];
 399:ui.c          **** 		readout->func(buf);
 400:ui.c          **** 		if(strlen(buf) == 5)
 401:ui.c          **** 			strcat(buf, " ");
 402:ui.c          **** 		Display_DrawText(6, 88 * i, buf, 0);
 403:ui.c          **** 	}
 404:ui.c          **** }
 405:ui.c          **** 
 406:ui.c          **** static state_func display_config(const void *arg) {
 407:ui.c          **** 	const display_config_t *config = &settings->display_settings.numbered[(int)arg];
 408:ui.c          **** 
 409:ui.c          **** 	state_func display = menu(&choose_readout_menu);
 410:ui.c          **** 	if(display.arg == NULL)
 411:ui.c          **** 		return display;
 412:ui.c          **** 
 413:ui.c          **** 	state_func readout = menu(&set_readout_menu);
 414:ui.c          **** 	if(readout.arg == NULL)
 415:ui.c          **** 		return readout;
 416:ui.c          **** 
 417:ui.c          **** 	EEPROM_Write((uint8*)&settings-(uint8*)&config->readouts[(int)display.arg - 1],(uint8*)&((readout_
 418:ui.c          **** 
 419:ui.c          **** 	return (state_func)STATE_MAIN;
 420:ui.c          **** }
 421:ui.c          **** 
 422:ui.c          **** //Delay and resets the watchdog every second
 423:ui.c          **** static void delayWithWatchDog(uint8_t seconds)
 424:ui.c          **** {
 425:ui.c          ****     CySysWdtResetCounters(CY_SYS_WDT_COUNTER0_RESET);
 426:ui.c          ****      for(uint8_t i=0;i<seconds;i++)
 427:ui.c          ****     {
 428:ui.c          ****         CyDelay(1000);
 429:ui.c          ****         #if USE_WATCHDOG
 430:ui.c          ****         CySysWdtResetCounters(CY_SYS_WDT_COUNTER0_RESET);
ARM GAS  C:\Users\VIDEOH~1\AppData\Local\Temp\ccM4oHTP.s 			page 9


 431:ui.c          ****         #endif
 432:ui.c          ****     }
 433:ui.c          **** }
 434:ui.c          **** // Handles measuring the battery ISR with two current steps
 435:ui.c          **** static void measure_Battery_ISR()
 436:ui.c          **** {
 437:ui.c          ****      Display_ClearAll();
 438:ui.c          ****     Display_DrawText(0, 0, "Battery ISR", 1);
 439:ui.c          ****     //This is based roughly on what i can find of the  IEC 61951-1:2005 online
 440:ui.c          ****     //We use a current of 1A for testing.
 441:ui.c          ****     //First we measure light load
 442:ui.c          ****     Display_DrawText(2, 0, "Light Load", 0);
 443:ui.c          ****     set_current(100000);//100mA
 444:ui.c          ****     delayWithWatchDog(10);//light load for 10 seconds
 445:ui.c          ****     uint32_t halfLoadVoltage = get_voltage()*10; //measure in the middle (in 10x vuV)
 446:ui.c          ****     Display_DrawText(4, 0, "Full Load", 0);
 447:ui.c          ****     set_current(1000000);//1A
 448:ui.c          ****     delayWithWatchDog(3);//full load for 3 seconds
 449:ui.c          ****     uint32_t fullLoadVoltage = get_voltage()*10;
 450:ui.c          ****     set_current(0);//stop pulling current
 451:ui.c          ****     //Test done
 452:ui.c          ****     //Compute results
 453:ui.c          ****     //Ohms = V/A => We compute two values using the low current
 454:ui.c          ****     //Using Rdc = (V1-V2)/(I2-I1)
 455:ui.c          ****     int Rdc = (halfLoadVoltage-fullLoadVoltage)/(9);
 456:ui.c          ****     //would be divide by 900*100, but we want to shift into milli ohms by 1000*1000
 457:ui.c          ****     //so we move the divisor by 100 and shift the top by 10 previously
 458:ui.c          ****     //Basically we avoid doing the divide as we need to multiple to get the answer scaled correctly
 459:ui.c          ****     //So we basically just remove 1000 from that multiple ^ and then the other part is avoid as we 
 460:ui.c          ****     //So we want an answer that is 10^3 larger than 'correct'
 461:ui.c          **** 
 462:ui.c          ****     char buf[16];
 463:ui.c          ****     format_number(Rdc, FONT_GLYPH_OHM " " FONT_GLYPH_ENTER " Back", buf);//draw it in with the righ
 464:ui.c          ****     Display_DrawText(6, 0, buf, 0);
 465:ui.c          ****     //wait for user to acknowledge
 466:ui.c          ****     ui_event event;
 467:ui.c          **** 	event.type = UI_EVENT_NONE;
 468:ui.c          **** 	while(event.type != UI_EVENT_BUTTONPRESS || event.int_arg != 1) {
 469:ui.c          **** 		next_event(&event);
 470:ui.c          **** 	}
 471:ui.c          ****      //were done :)
 472:ui.c          **** }
 473:ui.c          **** 
 474:ui.c          **** static state_func call_void_func(const void *arg) {
  27              		.loc 1 474 0
  28              		.cfi_startproc
  29              		@ args = 0, pretend = 0, frame = 0
  30              		@ frame_needed = 0, uses_anonymous_args = 0
  31              	.LVL0:
  32 0000 10B5     		push	{r4, lr}
  33              		.cfi_def_cfa_offset 8
  34              		.cfi_offset 4, -8
  35              		.cfi_offset 14, -4
  36 0002 0400     		movs	r4, r0
 475:ui.c          **** 	((void_func)arg)();
  37              		.loc 1 475 0
  38 0004 8847     		blx	r1
ARM GAS  C:\Users\VIDEOH~1\AppData\Local\Temp\ccM4oHTP.s 			page 10


  39              	.LVL1:
 476:ui.c          **** 	return (state_func)STATE_MAIN;
  40              		.loc 1 476 0
  41 0006 0023     		movs	r3, #0
  42 0008 2360     		str	r3, [r4]
  43 000a 6360     		str	r3, [r4, #4]
  44 000c 2372     		strb	r3, [r4, #8]
 477:ui.c          **** }
  45              		.loc 1 477 0
  46 000e 2000     		movs	r0, r4
  47              		@ sp needed
  48              	.LVL2:
  49 0010 10BD     		pop	{r4, pc}
  50              		.cfi_endproc
  51              	.LFE52:
  52              		.size	call_void_func, .-call_void_func
  53 0012 C046     		.section	.text.delayWithWatchDog,"ax",%progbits
  54              		.align	2
  55              		.code	16
  56              		.thumb_func
  57              		.type	delayWithWatchDog, %function
  58              	delayWithWatchDog:
  59              	.LFB50:
 424:ui.c          ****     CySysWdtResetCounters(CY_SYS_WDT_COUNTER0_RESET);
  60              		.loc 1 424 0
  61              		.cfi_startproc
  62              		@ args = 0, pretend = 0, frame = 0
  63              		@ frame_needed = 0, uses_anonymous_args = 0
  64              	.LVL3:
  65 0000 70B5     		push	{r4, r5, r6, lr}
  66              		.cfi_def_cfa_offset 16
  67              		.cfi_offset 4, -16
  68              		.cfi_offset 5, -12
  69              		.cfi_offset 6, -8
  70              		.cfi_offset 14, -4
  71 0002 0500     		movs	r5, r0
 425:ui.c          ****      for(uint8_t i=0;i<seconds;i++)
  72              		.loc 1 425 0
  73 0004 0820     		movs	r0, #8
  74              	.LVL4:
  75 0006 FFF7FEFF 		bl	CySysWdtResetCounters
  76              	.LVL5:
  77              	.LBB2:
 426:ui.c          ****     {
  78              		.loc 1 426 0
  79 000a 0024     		movs	r4, #0
  80 000c 05E0     		b	.L3
  81              	.LVL6:
  82              	.L4:
 428:ui.c          ****         #if USE_WATCHDOG
  83              		.loc 1 428 0 discriminator 3
  84 000e FA20     		movs	r0, #250
  85 0010 8000     		lsls	r0, r0, #2
  86 0012 FFF7FEFF 		bl	CyDelay
  87              	.LVL7:
 426:ui.c          ****     {
  88              		.loc 1 426 0 discriminator 3
ARM GAS  C:\Users\VIDEOH~1\AppData\Local\Temp\ccM4oHTP.s 			page 11


  89 0016 0134     		adds	r4, r4, #1
  90              	.LVL8:
  91 0018 E4B2     		uxtb	r4, r4
  92              	.LVL9:
  93              	.L3:
 426:ui.c          ****     {
  94              		.loc 1 426 0 is_stmt 0 discriminator 1
  95 001a AC42     		cmp	r4, r5
  96 001c F7D3     		bcc	.L4
  97              	.LBE2:
 433:ui.c          **** // Handles measuring the battery ISR with two current steps
  98              		.loc 1 433 0 is_stmt 1
  99              		@ sp needed
 100              	.LVL10:
 101 001e 70BD     		pop	{r4, r5, r6, pc}
 102              		.cfi_endproc
 103              	.LFE50:
 104              		.size	delayWithWatchDog, .-delayWithWatchDog
 105              		.global	__aeabi_idiv
 106              		.global	__aeabi_idivmod
 107              		.section	.text.format_number_simple,"ax",%progbits
 108              		.align	2
 109              		.code	16
 110              		.thumb_func
 111              		.type	format_number_simple, %function
 112              	format_number_simple:
 113              	.LFB36:
 232:ui.c          **** 	if(num < 0) num = 0;
 114              		.loc 1 232 0
 115              		.cfi_startproc
 116              		@ args = 0, pretend = 0, frame = 0
 117              		@ frame_needed = 0, uses_anonymous_args = 0
 118              	.LVL11:
 119 0000 F0B5     		push	{r4, r5, r6, r7, lr}
 120              		.cfi_def_cfa_offset 20
 121              		.cfi_offset 4, -20
 122              		.cfi_offset 5, -16
 123              		.cfi_offset 6, -12
 124              		.cfi_offset 7, -8
 125              		.cfi_offset 14, -4
 126 0002 83B0     		sub	sp, sp, #12
 127              		.cfi_def_cfa_offset 32
 128 0004 0400     		movs	r4, r0
 129 0006 0F00     		movs	r7, r1
 130 0008 1500     		movs	r5, r2
 233:ui.c          **** 	num /= 1000;
 131              		.loc 1 233 0
 132 000a 0028     		cmp	r0, #0
 133 000c 00DA     		bge	.L6
 134 000e 0024     		movs	r4, #0
 135              	.L6:
 136              	.LVL12:
 234:ui.c          **** 	int whole = num / 1000, remainder = num % 1000;
 137              		.loc 1 234 0
 138 0010 FA21     		movs	r1, #250
 139              	.LVL13:
 140 0012 8900     		lsls	r1, r1, #2
ARM GAS  C:\Users\VIDEOH~1\AppData\Local\Temp\ccM4oHTP.s 			page 12


 141 0014 2000     		movs	r0, r4
 142 0016 FFF7FEFF 		bl	__aeabi_idiv
 143              	.LVL14:
 144 001a 0600     		movs	r6, r0
 145              	.LVL15:
 235:ui.c          **** 	sprintf(out, "%3d.%03d%s", whole, remainder, suffix);
 146              		.loc 1 235 0
 147 001c 0949     		ldr	r1, .L8
 148 001e 2000     		movs	r0, r4
 149              	.LVL16:
 150 0020 FFF7FEFF 		bl	__aeabi_idiv
 151              	.LVL17:
 152 0024 0400     		movs	r4, r0
 153              	.LVL18:
 154 0026 FA21     		movs	r1, #250
 155 0028 8900     		lsls	r1, r1, #2
 156 002a 3000     		movs	r0, r6
 157              	.LVL19:
 158 002c FFF7FEFF 		bl	__aeabi_idivmod
 159              	.LVL20:
 160 0030 0B00     		movs	r3, r1
 161              	.LVL21:
 236:ui.c          **** }
 162              		.loc 1 236 0
 163 0032 0097     		str	r7, [sp]
 164 0034 2200     		movs	r2, r4
 165 0036 0449     		ldr	r1, .L8+4
 166              	.LVL22:
 167 0038 2800     		movs	r0, r5
 168 003a FFF7FEFF 		bl	sprintf
 169              	.LVL23:
 237:ui.c          **** 
 170              		.loc 1 237 0
 171 003e 03B0     		add	sp, sp, #12
 172              		@ sp needed
 173              	.LVL24:
 174              	.LVL25:
 175              	.LVL26:
 176              	.LVL27:
 177 0040 F0BD     		pop	{r4, r5, r6, r7, pc}
 178              	.L9:
 179 0042 C046     		.align	2
 180              	.L8:
 181 0044 40420F00 		.word	1000000
 182 0048 00000000 		.word	.LC2
 183              		.cfi_endproc
 184              	.LFE36:
 185              		.size	format_number_simple, .-format_number_simple
 186              		.section	.text.print_nothing,"ax",%progbits
 187              		.align	2
 188              		.global	print_nothing
 189              		.code	16
 190              		.thumb_func
 191              		.type	print_nothing, %function
 192              	print_nothing:
 193              	.LFB40:
 317:ui.c          **** 	strcpy(buf, "      ");
ARM GAS  C:\Users\VIDEOH~1\AppData\Local\Temp\ccM4oHTP.s 			page 13


 194              		.loc 1 317 0
 195              		.cfi_startproc
 196              		@ args = 0, pretend = 0, frame = 0
 197              		@ frame_needed = 0, uses_anonymous_args = 0
 198              	.LVL28:
 199 0000 10B5     		push	{r4, lr}
 200              		.cfi_def_cfa_offset 8
 201              		.cfi_offset 4, -8
 202              		.cfi_offset 14, -4
 318:ui.c          **** }
 203              		.loc 1 318 0
 204 0002 0722     		movs	r2, #7
 205 0004 0149     		ldr	r1, .L11
 206 0006 FFF7FEFF 		bl	memcpy
 207              	.LVL29:
 319:ui.c          **** 
 208              		.loc 1 319 0
 209              		@ sp needed
 210 000a 10BD     		pop	{r4, pc}
 211              	.L12:
 212              		.align	2
 213              	.L11:
 214 000c 0C000000 		.word	.LC4
 215              		.cfi_endproc
 216              	.LFE40:
 217              		.size	print_nothing, .-print_nothing
 218              		.section	.text.format_number,"ax",%progbits
 219              		.align	2
 220              		.code	16
 221              		.thumb_func
 222              		.type	format_number, %function
 223              	format_number:
 224              	.LFB35:
 201:ui.c          **** 	if(num < 0)
 225              		.loc 1 201 0
 226              		.cfi_startproc
 227              		@ args = 0, pretend = 0, frame = 8
 228              		@ frame_needed = 0, uses_anonymous_args = 0
 229              	.LVL30:
 230 0000 F0B5     		push	{r4, r5, r6, r7, lr}
 231              		.cfi_def_cfa_offset 20
 232              		.cfi_offset 4, -20
 233              		.cfi_offset 5, -16
 234              		.cfi_offset 6, -12
 235              		.cfi_offset 7, -8
 236              		.cfi_offset 14, -4
 237 0002 83B0     		sub	sp, sp, #12
 238              		.cfi_def_cfa_offset 32
 239 0004 0400     		movs	r4, r0
 240 0006 0191     		str	r1, [sp, #4]
 241 0008 1600     		movs	r6, r2
 202:ui.c          **** 		num = 0;
 242              		.loc 1 202 0
 243 000a 0028     		cmp	r0, #0
 244 000c 00DA     		bge	.L14
 203:ui.c          **** 
 245              		.loc 1 203 0
ARM GAS  C:\Users\VIDEOH~1\AppData\Local\Temp\ccM4oHTP.s 			page 14


 246 000e 0024     		movs	r4, #0
 247              	.L14:
 248 0010 0125     		movs	r5, #1
 249 0012 06E0     		b	.L15
 250              	.LVL31:
 251              	.L16:
 207:ui.c          **** 		magnitude++;
 252              		.loc 1 207 0
 253 0014 FA21     		movs	r1, #250
 254 0016 8900     		lsls	r1, r1, #2
 255 0018 2000     		movs	r0, r4
 256 001a FFF7FEFF 		bl	__aeabi_idiv
 257              	.LVL32:
 258 001e 0400     		movs	r4, r0
 259              	.LVL33:
 208:ui.c          **** 	}
 260              		.loc 1 208 0
 261 0020 0135     		adds	r5, r5, #1
 262              	.LVL34:
 263              	.L15:
 206:ui.c          **** 		num /= 1000;
 264              		.loc 1 206 0
 265 0022 244B     		ldr	r3, .L23
 266 0024 9C42     		cmp	r4, r3
 267 0026 F5DC     		bgt	.L16
 211:ui.c          **** 	if(whole < 10) {
 268              		.loc 1 211 0
 269 0028 FA21     		movs	r1, #250
 270 002a 8900     		lsls	r1, r1, #2
 271 002c 2000     		movs	r0, r4
 272 002e FFF7FEFF 		bl	__aeabi_idiv
 273              	.LVL35:
 274 0032 0700     		movs	r7, r0
 275              	.LVL36:
 276 0034 FA21     		movs	r1, #250
 277 0036 8900     		lsls	r1, r1, #2
 278 0038 2000     		movs	r0, r4
 279              	.LVL37:
 280 003a FFF7FEFF 		bl	__aeabi_idivmod
 281              	.LVL38:
 282 003e 0800     		movs	r0, r1
 283              	.LVL39:
 212:ui.c          **** 		// Format: x.xx
 284              		.loc 1 212 0
 285 0040 092F     		cmp	r7, #9
 286 0042 09DC     		bgt	.L17
 214:ui.c          **** 	} else if(whole < 100) {
 287              		.loc 1 214 0
 288 0044 0A21     		movs	r1, #10
 289 0046 FFF7FEFF 		bl	__aeabi_idiv
 290              	.LVL40:
 291 004a 0300     		movs	r3, r0
 292 004c 3A00     		movs	r2, r7
 293 004e 1A49     		ldr	r1, .L23+4
 294 0050 3000     		movs	r0, r6
 295 0052 FFF7FEFF 		bl	sprintf
 296              	.LVL41:
ARM GAS  C:\Users\VIDEOH~1\AppData\Local\Temp\ccM4oHTP.s 			page 15


 297 0056 10E0     		b	.L18
 298              	.LVL42:
 299              	.L17:
 215:ui.c          **** 		// Format: xx.x
 300              		.loc 1 215 0
 301 0058 632F     		cmp	r7, #99
 302 005a 09DC     		bgt	.L19
 217:ui.c          **** 	} else {
 303              		.loc 1 217 0
 304 005c 6421     		movs	r1, #100
 305 005e FFF7FEFF 		bl	__aeabi_idiv
 306              	.LVL43:
 307 0062 0300     		movs	r3, r0
 308 0064 3A00     		movs	r2, r7
 309 0066 1549     		ldr	r1, .L23+8
 310 0068 3000     		movs	r0, r6
 311 006a FFF7FEFF 		bl	sprintf
 312              	.LVL44:
 313 006e 04E0     		b	.L18
 314              	.LVL45:
 315              	.L19:
 220:ui.c          **** 	}
 316              		.loc 1 220 0
 317 0070 3A00     		movs	r2, r7
 318 0072 1349     		ldr	r1, .L23+12
 319 0074 3000     		movs	r0, r6
 320              	.LVL46:
 321 0076 FFF7FEFF 		bl	sprintf
 322              	.LVL47:
 323              	.L18:
 223:ui.c          **** 		strcat(out, "m");
 324              		.loc 1 223 0
 325 007a 012D     		cmp	r5, #1
 326 007c 0CD1     		bne	.L20
 224:ui.c          **** 		strcat(out, suffix);
 327              		.loc 1 224 0
 328 007e 3000     		movs	r0, r6
 329 0080 FFF7FEFF 		bl	strlen
 330              	.LVL48:
 331 0084 3018     		adds	r0, r6, r0
 332 0086 0222     		movs	r2, #2
 333 0088 0E49     		ldr	r1, .L23+16
 334 008a FFF7FEFF 		bl	memcpy
 335              	.LVL49:
 225:ui.c          **** 	} else {
 336              		.loc 1 225 0
 337 008e 0199     		ldr	r1, [sp, #4]
 338 0090 3000     		movs	r0, r6
 339 0092 FFF7FEFF 		bl	strcat
 340              	.LVL50:
 341 0096 0BE0     		b	.L13
 342              	.L20:
 227:ui.c          **** 		strcat(out, " ");
 343              		.loc 1 227 0
 344 0098 0199     		ldr	r1, [sp, #4]
 345 009a 3000     		movs	r0, r6
 346 009c FFF7FEFF 		bl	strcat
ARM GAS  C:\Users\VIDEOH~1\AppData\Local\Temp\ccM4oHTP.s 			page 16


 347              	.LVL51:
 228:ui.c          **** 	}
 348              		.loc 1 228 0
 349 00a0 3000     		movs	r0, r6
 350 00a2 FFF7FEFF 		bl	strlen
 351              	.LVL52:
 352 00a6 3018     		adds	r0, r6, r0
 353 00a8 0222     		movs	r2, #2
 354 00aa 0749     		ldr	r1, .L23+20
 355 00ac FFF7FEFF 		bl	memcpy
 356              	.LVL53:
 357              	.L13:
 230:ui.c          **** 
 358              		.loc 1 230 0
 359 00b0 03B0     		add	sp, sp, #12
 360              		@ sp needed
 361              	.LVL54:
 362              	.LVL55:
 363              	.LVL56:
 364              	.LVL57:
 365 00b2 F0BD     		pop	{r4, r5, r6, r7, pc}
 366              	.L24:
 367              		.align	2
 368              	.L23:
 369 00b4 3F420F00 		.word	999999
 370 00b8 14000000 		.word	.LC6
 371 00bc 20000000 		.word	.LC8
 372 00c0 2C000000 		.word	.LC10
 373 00c4 34000000 		.word	.LC12
 374 00c8 38000000 		.word	.LC14
 375              		.cfi_endproc
 376              	.LFE35:
 377              		.size	format_number, .-format_number
 378              		.section	.text.print_voltage,"ax",%progbits
 379              		.align	2
 380              		.global	print_voltage
 381              		.code	16
 382              		.thumb_func
 383              		.type	print_voltage, %function
 384              	print_voltage:
 385              	.LFB43:
 329:ui.c          **** 	format_number(get_voltage(), "V", buf);
 386              		.loc 1 329 0
 387              		.cfi_startproc
 388              		@ args = 0, pretend = 0, frame = 0
 389              		@ frame_needed = 0, uses_anonymous_args = 0
 390              	.LVL58:
 391 0000 10B5     		push	{r4, lr}
 392              		.cfi_def_cfa_offset 8
 393              		.cfi_offset 4, -8
 394              		.cfi_offset 14, -4
 395 0002 0400     		movs	r4, r0
 330:ui.c          **** }
 396              		.loc 1 330 0
 397 0004 FFF7FEFF 		bl	get_voltage
 398              	.LVL59:
 399 0008 2200     		movs	r2, r4
ARM GAS  C:\Users\VIDEOH~1\AppData\Local\Temp\ccM4oHTP.s 			page 17


 400 000a 0249     		ldr	r1, .L26
 401 000c FFF7FEFF 		bl	format_number
 402              	.LVL60:
 331:ui.c          **** 
 403              		.loc 1 331 0
 404              		@ sp needed
 405              	.LVL61:
 406 0010 10BD     		pop	{r4, pc}
 407              	.L27:
 408 0012 C046     		.align	2
 409              	.L26:
 410 0014 3C000000 		.word	.LC16
 411              		.cfi_endproc
 412              	.LFE43:
 413              		.size	print_voltage, .-print_voltage
 414              		.section	.text.upgrade,"ax",%progbits
 415              		.align	2
 416              		.code	16
 417              		.thumb_func
 418              		.type	upgrade, %function
 419              	upgrade:
 420              	.LFB65:
 478:ui.c          **** //Set the LCD contrast
 479:ui.c          **** static state_func set_contrast(const void *arg) {
 480:ui.c          **** 	Display_ClearAll();
 481:ui.c          **** 	Display_Clear(0, 2, 2, 160, 0xFF);
 482:ui.c          **** 	Display_DrawText(0, 32, "Contrast", 1);
 483:ui.c          **** 	Display_DrawText(6, 38, FONT_GLYPH_ENTER ": Done", 0);
 484:ui.c          **** 
 485:ui.c          **** 	// Left and right ends of the bar
 486:ui.c          **** 	Display_Clear(4, 15, 5, 16, 0xFF);
 487:ui.c          **** 	Display_Clear(4, 145, 5, 146, 0xFF);
 488:ui.c          **** 
 489:ui.c          **** 	int contrast = settings->lcd_contrast;
 490:ui.c          **** 	ui_event event;
 491:ui.c          **** 	while(1) {
 492:ui.c          **** 		Display_Clear(4, 16, 5, 16 + contrast * 2, 0xFF);
 493:ui.c          **** 		Display_Clear(4, 16 + contrast * 2, 5, 145, 0x81);
 494:ui.c          **** 
 495:ui.c          **** 		next_event(&event);
 496:ui.c          **** 		switch(event.type) {
 497:ui.c          **** 		case UI_EVENT_UPDOWN:
 498:ui.c          **** 			contrast += event.int_arg;
 499:ui.c          **** 			if(contrast > 0x3F) {
 500:ui.c          **** 				contrast = 0x3F;
 501:ui.c          **** 			} else if(contrast < 0) {
 502:ui.c          **** 				contrast = 0;
 503:ui.c          **** 			}
 504:ui.c          **** 			Display_SetContrast(contrast);
 505:ui.c          **** 			break;
 506:ui.c          **** 		case UI_EVENT_BUTTONPRESS:
 507:ui.c          **** 			if(event.int_arg == 1) {
 508:ui.c          **** 				EEPROM_Write((const int*)&settings-(const int*)&settings->lcd_contrast,(void*)&contrast, sizeof
 509:ui.c          **** 				return (state_func)STATE_MAIN;
 510:ui.c          **** 			}
 511:ui.c          **** 			break;
 512:ui.c          **** 		case UI_EVENT_LIMIT:
ARM GAS  C:\Users\VIDEOH~1\AppData\Local\Temp\ccM4oHTP.s 			page 18


 513:ui.c          **** 			return (state_func){overlimit, (void *)event.int_arg, 0};
 514:ui.c          **** 		default:
 515:ui.c          **** 			break;
 516:ui.c          **** 		}
 517:ui.c          **** 	}
 518:ui.c          **** }
 519:ui.c          **** 
 520:ui.c          **** static state_func ui_set_min_voltage(const void *arg) {
 521:ui.c          ****     Display_ClearAll();
 522:ui.c          **** 	Display_Clear(0, 2, 2, 160, 0xFF);
 523:ui.c          **** 	Display_DrawText(0, 20, "Min Voltage", 1);
 524:ui.c          **** 
 525:ui.c          ****     ui_event event;
 526:ui.c          ****     uint8_t on = state.lower_voltage_limit != -1;
 527:ui.c          ****     int vlim = on?state.lower_voltage_limit:get_voltage();
 528:ui.c          ****     vlim -= vlim % 100000;
 529:ui.c          ****     uint8_t stage = 0;
 530:ui.c          ****     char buf[8];
 531:ui.c          **** 
 532:ui.c          ****     while(stage == 0) {
 533:ui.c          ****         Display_DrawText(4, 30, "ON", on);
 534:ui.c          ****         Display_DrawText(4, 90, "OFF", !on);
 535:ui.c          ****         format_number(vlim, "V", buf);
 536:ui.c          ****         Display_DrawText(6, 48, buf, 0);
 537:ui.c          **** 
 538:ui.c          ****         next_event(&event);
 539:ui.c          ****         switch(event.type) {
 540:ui.c          ****         case UI_EVENT_UPDOWN:
 541:ui.c          ****             on ^= event.int_arg & 1;
 542:ui.c          ****             break;
 543:ui.c          ****         case UI_EVENT_BUTTONPRESS:
 544:ui.c          ****             if(event.int_arg != 1)
 545:ui.c          ****                 break;
 546:ui.c          ****             if(on) {
 547:ui.c          ****                 stage = 1;
 548:ui.c          ****             } else {
 549:ui.c          ****                 state.lower_voltage_limit = -1;
 550:ui.c          ****                 return (state_func)STATE_MAIN;
 551:ui.c          ****             }
 552:ui.c          ****             break;
 553:ui.c          ****         case UI_EVENT_LIMIT:
 554:ui.c          ****             return (state_func){overlimit, (void *)event.int_arg, 0};
 555:ui.c          ****         default:
 556:ui.c          ****             break;
 557:ui.c          ****         }
 558:ui.c          ****     }
 559:ui.c          **** 
 560:ui.c          ****     while(1) {
 561:ui.c          ****         format_number(vlim, "V", buf);
 562:ui.c          ****         buf[strlen(buf) - 1] = '\0';
 563:ui.c          ****         Display_DrawText(6, 48, buf, 1);
 564:ui.c          **** 
 565:ui.c          ****         next_event(&event);
 566:ui.c          ****         switch(event.type) {
 567:ui.c          ****         case UI_EVENT_UPDOWN:
 568:ui.c          ****             vlim += 100000 * event.int_arg;
 569:ui.c          ****             break;
ARM GAS  C:\Users\VIDEOH~1\AppData\Local\Temp\ccM4oHTP.s 			page 19


 570:ui.c          ****         case UI_EVENT_BUTTONPRESS:
 571:ui.c          ****             if(event.int_arg != 1)
 572:ui.c          ****                 break;
 573:ui.c          ****             state.lower_voltage_limit = vlim;
 574:ui.c          ****             return (state_func)STATE_MAIN;
 575:ui.c          ****         case UI_EVENT_LIMIT:
 576:ui.c          ****             return (state_func){overlimit, (void *)event.int_arg, 0};
 577:ui.c          ****         default:
 578:ui.c          ****             break;
 579:ui.c          ****         }
 580:ui.c          ****     }
 581:ui.c          **** }
 582:ui.c          **** 
 583:ui.c          **** static state_func overlimit(const void *arg) {
 584:ui.c          **** 	Display_Clear(0, 0, 8, 160, 0xFF);
 585:ui.c          ****     switch((limit_type)arg) {
 586:ui.c          ****     case LIMIT_TYPE_OVERTEMP:
 587:ui.c          ****     	Display_DrawText(2, 6, "! OVERTEMP !", 1);
 588:ui.c          ****         break;
 589:ui.c          ****     case LIMIT_TYPE_UNDERVOLT:
 590:ui.c          ****         Display_DrawText(2, 0, "! UNDERVOLT !", 1);
 591:ui.c          ****         break;
 592:ui.c          ****     }
 593:ui.c          **** 	Display_DrawText(6, 32, FONT_GLYPH_ENTER ": Reset", 1);
 594:ui.c          **** 
 595:ui.c          **** 	ui_event event;
 596:ui.c          **** 	event.type = UI_EVENT_NONE;
 597:ui.c          **** 	while(event.type != UI_EVENT_BUTTONPRESS || event.int_arg != 1) {
 598:ui.c          **** 		next_event(&event);
 599:ui.c          **** 		if(get_output_mode() == OUTPUT_MODE_FEEDBACK)
 600:ui.c          **** 			return (state_func)STATE_MAIN;
 601:ui.c          **** 	}
 602:ui.c          **** 
 603:ui.c          **** 	set_current(0);
 604:ui.c          **** 	set_output_mode(OUTPUT_MODE_FEEDBACK);
 605:ui.c          **** 	return (state_func)STATE_MAIN;
 606:ui.c          **** }
 607:ui.c          **** 
 608:ui.c          **** static state_func menu(const void *arg) {
 609:ui.c          **** 	const menudata *menu = (const menudata *)arg;
 610:ui.c          **** 
 611:ui.c          **** 	Display_ClearAll();
 612:ui.c          **** 
 613:ui.c          **** 	int selected = 0;
 614:ui.c          **** 	ui_event event;
 615:ui.c          **** 	event.type = UI_EVENT_NONE;
 616:ui.c          **** 	while(event.type != UI_EVENT_BUTTONPRESS || event.int_arg != 1) {
 617:ui.c          **** 		draw_menu(menu, selected);
 618:ui.c          **** 		next_event(&event);
 619:ui.c          **** 		switch(event.type) {
 620:ui.c          **** 		case UI_EVENT_UPDOWN:
 621:ui.c          **** 			if(event.int_arg < 0) {
 622:ui.c          **** 				// Move up the menu
 623:ui.c          **** 				if(selected + event.int_arg >= 0) {
 624:ui.c          **** 					selected += event.int_arg;
 625:ui.c          **** 				} else {
 626:ui.c          **** 					selected = 0;
ARM GAS  C:\Users\VIDEOH~1\AppData\Local\Temp\ccM4oHTP.s 			page 20


 627:ui.c          **** 				}
 628:ui.c          **** 			} else {
 629:ui.c          **** 				// Move down the menu (but not past the end)
 630:ui.c          **** 				for(int i = 0; i < event.int_arg; i++) {
 631:ui.c          **** 					if(menu->items[selected + 1].caption == NULL)
 632:ui.c          **** 						break;
 633:ui.c          **** 					selected++;
 634:ui.c          **** 				}
 635:ui.c          **** 			}
 636:ui.c          **** 			break;
 637:ui.c          **** 		case UI_EVENT_LIMIT:
 638:ui.c          **** 			return (state_func){overlimit, (void *)event.int_arg, 0};
 639:ui.c          **** 		default:
 640:ui.c          **** 			break;
 641:ui.c          **** 		}
 642:ui.c          **** 	}
 643:ui.c          **** 
 644:ui.c          **** 	return menu->items[selected].new_state;
 645:ui.c          **** }
 646:ui.c          **** 
 647:ui.c          **** 
 648:ui.c          **** static state_func cc_load(const void *arg) {
 649:ui.c          **** 	static portTickType last_adjust_current_setpoint = 0;
 650:ui.c          **** 
 651:ui.c          **** 	Display_ClearAll();
 652:ui.c          **** 
 653:ui.c          **** 	ui_event event;
 654:ui.c          **** 	while(1) {
 655:ui.c          **** 		next_event(&event);
 656:ui.c          **** 		switch(event.type) {
 657:ui.c          **** 		case UI_EVENT_BUTTONPRESS:
 658:ui.c          **** 			if(event.int_arg == 1)
 659:ui.c          **** 				return (state_func)STATE_MAIN_MENU;
 660:ui.c          ****             break;
 661:ui.c          ****         case UI_EVENT_LONG_BUTTONPRESS:
 662:ui.c          ****             if(get_output_mode() != OUTPUT_MODE_FEEDBACK) {
 663:ui.c          ****                 set_output_mode(OUTPUT_MODE_FEEDBACK);
 664:ui.c          ****             } else {
 665:ui.c          ****                 set_output_mode(OUTPUT_MODE_OFF);
 666:ui.c          ****             }
 667:ui.c          ****             break;
 668:ui.c          **** 		case UI_EVENT_UPDOWN:
 669:ui.c          **** 			last_adjust_current_setpoint = xTaskGetTickCount();
 670:ui.c          **** 			adjust_current_setpoint(event.int_arg, event.duration);
 671:ui.c          **** 			break;
 672:ui.c          **** 		case UI_EVENT_LIMIT:
 673:ui.c          **** 			return (state_func){overlimit, (void *)event.int_arg, 0};
 674:ui.c          **** 		default:
 675:ui.c          **** 			break;
 676:ui.c          **** 		}
 677:ui.c          **** 		draw_status(&settings->display_settings.named.cc, (xTaskGetTickCount() - last_adjust_current_setp
 678:ui.c          **** 		//CyDelay(200);
 679:ui.c          **** 	}
 680:ui.c          **** }
 681:ui.c          **** 
 682:ui.c          **** #define CALIBRATION_CURRENT 2000000
 683:ui.c          **** 
ARM GAS  C:\Users\VIDEOH~1\AppData\Local\Temp\ccM4oHTP.s 			page 21


 684:ui.c          **** // Calibrates the ADC voltage and current offsets.
 685:ui.c          **** // Run with nothing attached to the terminals.
 686:ui.c          **** static void ui_calibrate_offsets(settings_t *new_settings) {
 687:ui.c          ****     state.calibrating = 1;
 688:ui.c          **** 
 689:ui.c          ****     IDAC_Low_SetValue(0);
 690:ui.c          ****     IDAC_High_SetValue(0);
 691:ui.c          **** 
 692:ui.c          **** 	Display_DrawText(2, 0, " Remove Leads", 1);
 693:ui.c          **** 	Display_DrawText(6, 38, FONT_GLYPH_ENTER ": Next", 0);
 694:ui.c          **** 
 695:ui.c          **** 	// Wait for a button press
 696:ui.c          **** 	ui_event event;
 697:ui.c          **** 	event.type = UI_EVENT_NONE;
 698:ui.c          **** 	while(event.type != UI_EVENT_BUTTONPRESS || event.int_arg != 1)
 699:ui.c          **** 		next_event(&event);
 700:ui.c          **** 
 701:ui.c          **** 	calibrate_offsets(new_settings);
 702:ui.c          ****     state.calibrating = 0;
 703:ui.c          **** }
 704:ui.c          **** 
 705:ui.c          **** // Calibrate the ADC voltage gain.
 706:ui.c          **** // Run with a known voltage across the terminals
 707:ui.c          **** static void ui_calibrate_voltage(settings_t *new_settings) {
 708:ui.c          ****     state.calibrating = 1;
 709:ui.c          **** 
 710:ui.c          ****     IDAC_Low_SetValue(0);
 711:ui.c          ****     IDAC_High_SetValue(0);
 712:ui.c          **** 
 713:ui.c          **** 	Display_DrawText(2, 0, " Adj. voltage", 1);
 714:ui.c          **** 
 715:ui.c          **** 	ui_event event;
 716:ui.c          **** 	char buf[16];
 717:ui.c          **** 	event.type = UI_EVENT_NONE;
 718:ui.c          **** 	while(event.type != UI_EVENT_BUTTONPRESS || event.int_arg != 1) {
 719:ui.c          **** 		next_event(&event);
 720:ui.c          **** 
 721:ui.c          **** 		int voltage = (get_raw_voltage() - new_settings->calibration_settings.adc_voltage_offset) * new_s
 722:ui.c          **** 		format_number_simple(voltage, "V", buf);
 723:ui.c          **** 		strcat(buf, " ");
 724:ui.c          **** 		Display_DrawText(4, 43, buf, 0);
 725:ui.c          **** 
 726:ui.c          **** 		switch(event.type) {
 727:ui.c          **** 		case UI_EVENT_UPDOWN:
 728:ui.c          **** 			new_settings->calibration_settings.adc_voltage_gain += event.int_arg;
 729:ui.c          **** 			break;
 730:ui.c          **** 		default:
 731:ui.c          **** 			break;
 732:ui.c          **** 		}
 733:ui.c          **** 	}
 734:ui.c          ****     state.calibrating = 0;
 735:ui.c          **** }
 736:ui.c          **** 
 737:ui.c          **** static void ui_calibrate_current(settings_t *new_settings) {
 738:ui.c          ****     state.calibrating = 1;
 739:ui.c          **** 
 740:ui.c          ****     IDAC_Low_SetValue(0);
ARM GAS  C:\Users\VIDEOH~1\AppData\Local\Temp\ccM4oHTP.s 			page 22


 741:ui.c          ****     IDAC_High_SetValue((CALIBRATION_CURRENT - new_settings->calibration_settings.dac_offset) / new_
 742:ui.c          **** 
 743:ui.c          ****     Display_Clear(4, 0, 8, 160, 0);
 744:ui.c          **** 	Display_DrawText(2, 0, " Adj. Current", 1);
 745:ui.c          **** 	Display_DrawText(6, 38, FONT_GLYPH_ENTER ": Next", 0);
 746:ui.c          **** 
 747:ui.c          **** 	ui_event event;
 748:ui.c          **** 	char buf[16];
 749:ui.c          **** 	int current;
 750:ui.c          **** 
 751:ui.c          **** 	event.type = UI_EVENT_NONE;
 752:ui.c          **** 	while(event.type != UI_EVENT_BUTTONPRESS || event.int_arg != 1) {
 753:ui.c          **** 		next_event(&event);
 754:ui.c          **** 
 755:ui.c          **** 		current = (get_raw_current_usage() - new_settings->calibration_settings.adc_current_offset) * new
 756:ui.c          **** 		format_number_simple(current, "A", buf);
 757:ui.c          **** 		strcat(buf, " ");
 758:ui.c          **** 		Display_DrawText(4, 43, buf, 0);
 759:ui.c          **** 
 760:ui.c          **** 		switch(event.type) {
 761:ui.c          **** 		case UI_EVENT_UPDOWN:
 762:ui.c          **** 			new_settings->calibration_settings.adc_current_gain += event.int_arg;
 763:ui.c          **** 			break;
 764:ui.c          **** 		default:
 765:ui.c          **** 			break;
 766:ui.c          **** 		}
 767:ui.c          **** 	}
 768:ui.c          ****     state.calibrating = 0;
 769:ui.c          **** }
 770:ui.c          **** 
 771:ui.c          **** static void ui_calibrate_voltage_correction(settings_t *new_settings) {
 772:ui.c          **** 	state.calibrating = 1;
 773:ui.c          **** 
 774:ui.c          **** 	IDAC_Low_SetValue(0);
 775:ui.c          **** 	IDAC_High_SetValue((CALIBRATION_CURRENT - new_settings->calibration_settings.dac_offset) / new_set
 776:ui.c          **** 
 777:ui.c          **** 	Display_Clear(4, 0, 8, 160, 0);
 778:ui.c          **** 	Display_DrawText(2, 0, " Adj. voltage", 1);
 779:ui.c          **** 	Display_DrawText(6, 38, FONT_GLYPH_ENTER ": Next", 0);
 780:ui.c          **** 
 781:ui.c          **** 	ui_event event;
 782:ui.c          **** 	char buf[16];
 783:ui.c          **** 	int current, voltage;
 784:ui.c          **** 
 785:ui.c          **** 	event.type = UI_EVENT_NONE;
 786:ui.c          **** 	while(event.type != UI_EVENT_BUTTONPRESS || event.int_arg != 1) {
 787:ui.c          **** 		next_event(&event);
 788:ui.c          **** 
 789:ui.c          **** 		current = (get_raw_current_usage() - new_settings->calibration_settings.adc_current_offset) * new
 790:ui.c          **** 		voltage = (get_raw_voltage() - new_settings->calibration_settings.adc_voltage_offset) * new_setti
 791:ui.c          **** 		voltage += (current / 1024) * new_settings->calibration_settings.voltage_correction_ratio;
 792:ui.c          **** 		format_number_simple(voltage, "V", buf);
 793:ui.c          **** 		strcat(buf, " ");
 794:ui.c          **** 		Display_DrawText(4, 43, buf, 0);
 795:ui.c          **** 
 796:ui.c          **** 		switch(event.type) {
 797:ui.c          **** 		case UI_EVENT_UPDOWN:
ARM GAS  C:\Users\VIDEOH~1\AppData\Local\Temp\ccM4oHTP.s 			page 23


 798:ui.c          **** 			new_settings->calibration_settings.voltage_correction_ratio += event.int_arg;
 799:ui.c          **** 			break;
 800:ui.c          **** 		default:
 801:ui.c          **** 			break;
 802:ui.c          **** 		}
 803:ui.c          **** 	}
 804:ui.c          **** 	state.calibrating = 0;
 805:ui.c          **** }
 806:ui.c          **** 
 807:ui.c          **** // Calibrates the opamp and current DAC offsets.
 808:ui.c          **** // Run with a voltage source attached
 809:ui.c          **** 
 810:ui.c          **** void ui_calibration_progress(int current, int all) {
 811:ui.c          **** 	Display_Clear(6, 16, 7, 16 + 129 * current / all, 0xFF);
 812:ui.c          **** }
 813:ui.c          **** 
 814:ui.c          **** static void ui_calibrate_dacs(settings_t *new_settings) {
 815:ui.c          **** 	Display_Clear(2, 0, 8, 160, 0);
 816:ui.c          **** 	Display_DrawText(3, 14, "Please wait", 0);
 817:ui.c          **** 
 818:ui.c          ****     // Draw a progress bar
 819:ui.c          ****     Display_Clear(6, 15, 7, 16, 0xFF);
 820:ui.c          **** 	Display_Clear(6, 145, 7, 146, 0xFF);
 821:ui.c          ****     Display_Clear(6, 16, 7, 145, 0x81);
 822:ui.c          ****     calibrate_opamp_offset_trim(new_settings, CALIBRATION_CURRENT,ui_calibration_progress);
 823:ui.c          **** 	calibrate_dacs(new_settings, CALIBRATION_CURRENT);
 824:ui.c          **** }
 825:ui.c          **** 
 826:ui.c          **** static state_func ui_calibrate(const void *arg) {
 827:ui.c          **** 	set_current(0);
 828:ui.c          **** 	set_output_mode(OUTPUT_MODE_FEEDBACK);
 829:ui.c          **** 
 830:ui.c          **** 	settings_t new_settings;
 831:ui.c          **** 	memcpy(&new_settings, settings, sizeof(settings_t));
 832:ui.c          **** 	memcpy(&new_settings.calibration_settings, &default_settings.calibration_settings, sizeof(calibrat
 833:ui.c          **** 
 834:ui.c          **** 	Display_ClearAll();
 835:ui.c          **** 	Display_DrawText(0, 0, " CALIBRATION ", 1);
 836:ui.c          **** 
 837:ui.c          **** 	ui_calibrate_offsets(&new_settings);
 838:ui.c          **** 	ui_calibrate_voltage(&new_settings);
 839:ui.c          **** 	ui_calibrate_current(&new_settings);
 840:ui.c          **** 	ui_calibrate_voltage_correction(&new_settings);
 841:ui.c          **** 	ui_calibrate_dacs(&new_settings);
 842:ui.c          **** 
 843:ui.c          **** 	EEPROM_Write(0,(uint8*)&new_settings, sizeof(settings_t));
 844:ui.c          **** 
 845:ui.c          **** 	return (state_func){NULL, NULL, 0};
 846:ui.c          **** }
 847:ui.c          **** 
 848:ui.c          **** static state_func upgrade(const void *arg) {
 421              		.loc 1 848 0
 422              		.cfi_startproc
 423              		@ args = 0, pretend = 0, frame = 0
 424              		@ frame_needed = 0, uses_anonymous_args = 0
 425              	.LVL62:
 426 0000 10B5     		push	{r4, lr}
ARM GAS  C:\Users\VIDEOH~1\AppData\Local\Temp\ccM4oHTP.s 			page 24


 427              		.cfi_def_cfa_offset 8
 428              		.cfi_offset 4, -8
 429              		.cfi_offset 14, -4
 430 0002 0400     		movs	r4, r0
 849:ui.c          **** #ifdef Bootloadable_START_BTLDR
 850:ui.c          ****     Display_ClearAll();
 431              		.loc 1 850 0
 432 0004 FFF7FEFF 		bl	Display_ClearAll
 433              	.LVL63:
 851:ui.c          ****     Display_DrawText(0, 0, "UPGRADE MODE ", 1);
 434              		.loc 1 851 0
 435 0008 0123     		movs	r3, #1
 436 000a 0C4A     		ldr	r2, .L29
 437 000c 0021     		movs	r1, #0
 438 000e 0020     		movs	r0, #0
 439 0010 FFF7FEFF 		bl	Display_DrawText
 440              	.LVL64:
 852:ui.c          ****     Display_DrawText(4, 0, "Ready to recv", 0);
 441              		.loc 1 852 0
 442 0014 0023     		movs	r3, #0
 443 0016 0A4A     		ldr	r2, .L29+4
 444 0018 0021     		movs	r1, #0
 445 001a 0420     		movs	r0, #4
 446 001c FFF7FEFF 		bl	Display_DrawText
 447              	.LVL65:
 853:ui.c          ****     Display_DrawText(6, 0, " f/w update  ", 0);
 448              		.loc 1 853 0
 449 0020 0023     		movs	r3, #0
 450 0022 084A     		ldr	r2, .L29+8
 451 0024 0021     		movs	r1, #0
 452 0026 0620     		movs	r0, #6
 453 0028 FFF7FEFF 		bl	Display_DrawText
 454              	.LVL66:
 854:ui.c          ****     Bootloadable_Load();  // Never returns...
 455              		.loc 1 854 0
 456 002c FFF7FEFF 		bl	Bootloadable_Load
 457              	.LVL67:
 855:ui.c          **** #endif
 856:ui.c          ****     return (state_func){NULL, NULL, 0}; // ...yet, we should make compiler happy
 458              		.loc 1 856 0
 459 0030 0023     		movs	r3, #0
 460 0032 2360     		str	r3, [r4]
 461 0034 6360     		str	r3, [r4, #4]
 462 0036 2372     		strb	r3, [r4, #8]
 857:ui.c          **** }
 463              		.loc 1 857 0
 464 0038 2000     		movs	r0, r4
 465              		@ sp needed
 466              	.LVL68:
 467 003a 10BD     		pop	{r4, pc}
 468              	.L30:
 469              		.align	2
 470              	.L29:
 471 003c 40000000 		.word	.LC18
 472 0040 50000000 		.word	.LC20
 473 0044 60000000 		.word	.LC22
 474              		.cfi_endproc
ARM GAS  C:\Users\VIDEOH~1\AppData\Local\Temp\ccM4oHTP.s 			page 25


 475              	.LFE65:
 476              		.size	upgrade, .-upgrade
 477              		.section	.text.next_event,"ax",%progbits
 478              		.align	2
 479              		.code	16
 480              		.thumb_func
 481              		.type	next_event, %function
 482              	next_event:
 483              	.LFB38:
 248:ui.c          **** 	static portTickType last_tick = 0;
 484              		.loc 1 248 0
 485              		.cfi_startproc
 486              		@ args = 0, pretend = 0, frame = 16
 487              		@ frame_needed = 0, uses_anonymous_args = 0
 488              	.LVL69:
 489 0000 30B5     		push	{r4, r5, lr}
 490              		.cfi_def_cfa_offset 12
 491              		.cfi_offset 4, -12
 492              		.cfi_offset 5, -8
 493              		.cfi_offset 14, -4
 494 0002 85B0     		sub	sp, sp, #20
 495              		.cfi_def_cfa_offset 32
 496 0004 0500     		movs	r5, r0
 252:ui.c          **** 
 497              		.loc 1 252 0
 498 0006 FFF7FEFF 		bl	xTaskGetTickCount
 499              	.LVL70:
 500 000a 0400     		movs	r4, r0
 501              	.LVL71:
 254:ui.c          ****         event->type = UI_EVENT_LONG_BUTTONPRESS;
 502              		.loc 1 254 0
 503 000c 214B     		ldr	r3, .L37
 504 000e 1B68     		ldr	r3, [r3]
 505 0010 9842     		cmp	r0, r3
 506 0012 0CD9     		bls	.L32
 254:ui.c          ****         event->type = UI_EVENT_LONG_BUTTONPRESS;
 507              		.loc 1 254 0 is_stmt 0 discriminator 1
 508 0014 204B     		ldr	r3, .L37+4
 509 0016 1B78     		ldrb	r3, [r3]
 510 0018 002B     		cmp	r3, #0
 511 001a 08D1     		bne	.L32
 255:ui.c          ****         event->when = now;
 512              		.loc 1 255 0 is_stmt 1
 513 001c 0233     		adds	r3, r3, #2
 514 001e 2B70     		strb	r3, [r5]
 256:ui.c          ****         event->int_arg = 0;
 515              		.loc 1 256 0
 516 0020 E860     		str	r0, [r5, #12]
 257:ui.c          ****         long_press_sent = 1;
 517              		.loc 1 257 0
 518 0022 0023     		movs	r3, #0
 519 0024 6B60     		str	r3, [r5, #4]
 258:ui.c          ****     } else if(now - last_tick >  configTICK_RATE_HZ / UI_TASK_FREQUENCY
 520              		.loc 1 258 0
 521 0026 0122     		movs	r2, #1
 522 0028 1B4B     		ldr	r3, .L37+4
 523 002a 1A70     		strb	r2, [r3]
ARM GAS  C:\Users\VIDEOH~1\AppData\Local\Temp\ccM4oHTP.s 			page 26


 524 002c 2FE0     		b	.L31
 525              	.L32:
 259:ui.c          ****         || !xQueueReceive(ui_queue, event, configTICK_RATE_HZ / UI_TASK_FREQUENCY - (now - last_tic
 526              		.loc 1 259 0
 527 002e 1A4B     		ldr	r3, .L37+4
 528 0030 5A68     		ldr	r2, [r3, #4]
 529 0032 A31A     		subs	r3, r4, r2
 530 0034 322B     		cmp	r3, #50
 531 0036 09D8     		bhi	.L34
 260:ui.c          **** 		event->type = UI_EVENT_TICK;
 532              		.loc 1 260 0
 533 0038 121B     		subs	r2, r2, r4
 534 003a 3232     		adds	r2, r2, #50
 535 003c 174B     		ldr	r3, .L37+8
 536 003e 1868     		ldr	r0, [r3]
 537              	.LVL72:
 538 0040 0023     		movs	r3, #0
 539 0042 2900     		movs	r1, r5
 540 0044 FFF7FEFF 		bl	xQueueGenericReceive
 541              	.LVL73:
 542 0048 0028     		cmp	r0, #0
 543 004a 08D1     		bne	.L35
 544              	.L34:
 261:ui.c          **** 		event->when = now;
 545              		.loc 1 261 0
 546 004c 0423     		movs	r3, #4
 547 004e 2B70     		strb	r3, [r5]
 262:ui.c          **** 		last_tick = now;
 548              		.loc 1 262 0
 549 0050 EC60     		str	r4, [r5, #12]
 263:ui.c          **** #ifdef USE_WATCHDOG
 550              		.loc 1 263 0
 551 0052 114B     		ldr	r3, .L37+4
 552 0054 5C60     		str	r4, [r3, #4]
 265:ui.c          **** #endif
 553              		.loc 1 265 0
 554 0056 0820     		movs	r0, #8
 555 0058 FFF7FEFF 		bl	CySysWdtResetCounters
 556              	.LVL74:
 557 005c 17E0     		b	.L31
 558              	.L35:
 267:ui.c          ****         // Bootloading overrides everything
 559              		.loc 1 267 0
 560 005e 2B78     		ldrb	r3, [r5]
 561 0060 062B     		cmp	r3, #6
 562 0062 04D1     		bne	.L36
 269:ui.c          ****     } else if(event->type == UI_EVENT_BUTTONPRESS && long_press_sent) {
 563              		.loc 1 269 0
 564 0064 0021     		movs	r1, #0
 565 0066 6846     		mov	r0, sp
 566 0068 FFF7FEFF 		bl	upgrade
 567              	.LVL75:
 568 006c 0FE0     		b	.L31
 569              	.L36:
 270:ui.c          ****         long_press_sent = 0;
 570              		.loc 1 270 0
 571 006e 012B     		cmp	r3, #1
ARM GAS  C:\Users\VIDEOH~1\AppData\Local\Temp\ccM4oHTP.s 			page 27


 572 0070 0DD1     		bne	.L31
 270:ui.c          ****         long_press_sent = 0;
 573              		.loc 1 270 0 is_stmt 0 discriminator 1
 574 0072 094B     		ldr	r3, .L37+4
 575 0074 1B78     		ldrb	r3, [r3]
 576 0076 002B     		cmp	r3, #0
 577 0078 09D0     		beq	.L31
 271:ui.c          **** 		event->type = UI_EVENT_TICK;
 578              		.loc 1 271 0 is_stmt 1
 579 007a 074B     		ldr	r3, .L37+4
 580 007c 0022     		movs	r2, #0
 581 007e 1A70     		strb	r2, [r3]
 272:ui.c          **** 		event->when = now;
 582              		.loc 1 272 0
 583 0080 0432     		adds	r2, r2, #4
 584 0082 2A70     		strb	r2, [r5]
 273:ui.c          **** 		last_tick = now;
 585              		.loc 1 273 0
 586 0084 EC60     		str	r4, [r5, #12]
 274:ui.c          **** #ifdef USE_WATCHDOG
 587              		.loc 1 274 0
 588 0086 5C60     		str	r4, [r3, #4]
 276:ui.c          **** #endif
 589              		.loc 1 276 0
 590 0088 0820     		movs	r0, #8
 591 008a FFF7FEFF 		bl	CySysWdtResetCounters
 592              	.LVL76:
 593              	.L31:
 279:ui.c          **** 
 594              		.loc 1 279 0
 595 008e 05B0     		add	sp, sp, #20
 596              		@ sp needed
 597              	.LVL77:
 598              	.LVL78:
 599 0090 30BD     		pop	{r4, r5, pc}
 600              	.L38:
 601 0092 C046     		.align	2
 602              	.L37:
 603 0094 00000000 		.word	.LANCHOR0
 604 0098 00000000 		.word	.LANCHOR1
 605 009c 00000000 		.word	ui_queue
 606              		.cfi_endproc
 607              	.LFE38:
 608              		.size	next_event, .-next_event
 609              		.global	__aeabi_uidiv
 610              		.section	.text.measure_Battery_ISR,"ax",%progbits
 611              		.align	2
 612              		.code	16
 613              		.thumb_func
 614              		.type	measure_Battery_ISR, %function
 615              	measure_Battery_ISR:
 616              	.LFB51:
 436:ui.c          ****      Display_ClearAll();
 617              		.loc 1 436 0
 618              		.cfi_startproc
 619              		@ args = 0, pretend = 0, frame = 32
 620              		@ frame_needed = 0, uses_anonymous_args = 0
ARM GAS  C:\Users\VIDEOH~1\AppData\Local\Temp\ccM4oHTP.s 			page 28


 621 0000 30B5     		push	{r4, r5, lr}
 622              		.cfi_def_cfa_offset 12
 623              		.cfi_offset 4, -12
 624              		.cfi_offset 5, -8
 625              		.cfi_offset 14, -4
 626 0002 89B0     		sub	sp, sp, #36
 627              		.cfi_def_cfa_offset 48
 437:ui.c          ****     Display_DrawText(0, 0, "Battery ISR", 1);
 628              		.loc 1 437 0
 629 0004 FFF7FEFF 		bl	Display_ClearAll
 630              	.LVL79:
 438:ui.c          ****     //This is based roughly on what i can find of the  IEC 61951-1:2005 online
 631              		.loc 1 438 0
 632 0008 0123     		movs	r3, #1
 633 000a 244A     		ldr	r2, .L42
 634 000c 0021     		movs	r1, #0
 635 000e 0020     		movs	r0, #0
 636 0010 FFF7FEFF 		bl	Display_DrawText
 637              	.LVL80:
 442:ui.c          ****     set_current(100000);//100mA
 638              		.loc 1 442 0
 639 0014 0023     		movs	r3, #0
 640 0016 224A     		ldr	r2, .L42+4
 641 0018 0021     		movs	r1, #0
 642 001a 0220     		movs	r0, #2
 643 001c FFF7FEFF 		bl	Display_DrawText
 644              	.LVL81:
 443:ui.c          ****     delayWithWatchDog(10);//light load for 10 seconds
 645              		.loc 1 443 0
 646 0020 2048     		ldr	r0, .L42+8
 647 0022 FFF7FEFF 		bl	set_current
 648              	.LVL82:
 444:ui.c          ****     uint32_t halfLoadVoltage = get_voltage()*10; //measure in the middle (in 10x vuV)
 649              		.loc 1 444 0
 650 0026 0A20     		movs	r0, #10
 651 0028 FFF7FEFF 		bl	delayWithWatchDog
 652              	.LVL83:
 445:ui.c          ****     Display_DrawText(4, 0, "Full Load", 0);
 653              		.loc 1 445 0
 654 002c FFF7FEFF 		bl	get_voltage
 655              	.LVL84:
 656 0030 8300     		lsls	r3, r0, #2
 657 0032 1818     		adds	r0, r3, r0
 658 0034 4400     		lsls	r4, r0, #1
 659              	.LVL85:
 446:ui.c          ****     set_current(1000000);//1A
 660              		.loc 1 446 0
 661 0036 0023     		movs	r3, #0
 662 0038 1B4A     		ldr	r2, .L42+12
 663 003a 0021     		movs	r1, #0
 664 003c 0420     		movs	r0, #4
 665 003e FFF7FEFF 		bl	Display_DrawText
 666              	.LVL86:
 447:ui.c          ****     delayWithWatchDog(3);//full load for 3 seconds
 667              		.loc 1 447 0
 668 0042 1A48     		ldr	r0, .L42+16
 669 0044 FFF7FEFF 		bl	set_current
ARM GAS  C:\Users\VIDEOH~1\AppData\Local\Temp\ccM4oHTP.s 			page 29


 670              	.LVL87:
 448:ui.c          ****     uint32_t fullLoadVoltage = get_voltage()*10;
 671              		.loc 1 448 0
 672 0048 0320     		movs	r0, #3
 673 004a FFF7FEFF 		bl	delayWithWatchDog
 674              	.LVL88:
 449:ui.c          ****     set_current(0);//stop pulling current
 675              		.loc 1 449 0
 676 004e FFF7FEFF 		bl	get_voltage
 677              	.LVL89:
 678 0052 8300     		lsls	r3, r0, #2
 679 0054 1818     		adds	r0, r3, r0
 680 0056 4500     		lsls	r5, r0, #1
 681              	.LVL90:
 450:ui.c          ****     //Test done
 682              		.loc 1 450 0
 683 0058 0020     		movs	r0, #0
 684 005a FFF7FEFF 		bl	set_current
 685              	.LVL91:
 455:ui.c          ****     //would be divide by 900*100, but we want to shift into milli ohms by 1000*1000
 686              		.loc 1 455 0
 687 005e 601B     		subs	r0, r4, r5
 688 0060 0921     		movs	r1, #9
 689 0062 FFF7FEFF 		bl	__aeabi_uidiv
 690              	.LVL92:
 463:ui.c          ****     Display_DrawText(6, 0, buf, 0);
 691              		.loc 1 463 0
 692 0066 04AA     		add	r2, sp, #16
 693 0068 1149     		ldr	r1, .L42+20
 694 006a FFF7FEFF 		bl	format_number
 695              	.LVL93:
 464:ui.c          ****     //wait for user to acknowledge
 696              		.loc 1 464 0
 697 006e 0023     		movs	r3, #0
 698 0070 04AA     		add	r2, sp, #16
 699 0072 0021     		movs	r1, #0
 700 0074 0620     		movs	r0, #6
 701 0076 FFF7FEFF 		bl	Display_DrawText
 702              	.LVL94:
 467:ui.c          **** 	while(event.type != UI_EVENT_BUTTONPRESS || event.int_arg != 1) {
 703              		.loc 1 467 0
 704 007a 0023     		movs	r3, #0
 705 007c 6A46     		mov	r2, sp
 706 007e 1370     		strb	r3, [r2]
 468:ui.c          **** 		next_event(&event);
 707              		.loc 1 468 0
 708 0080 02E0     		b	.L40
 709              	.L41:
 469:ui.c          **** 	}
 710              		.loc 1 469 0
 711 0082 6846     		mov	r0, sp
 712 0084 FFF7FEFF 		bl	next_event
 713              	.LVL95:
 714              	.L40:
 468:ui.c          **** 		next_event(&event);
 715              		.loc 1 468 0
 716 0088 6B46     		mov	r3, sp
ARM GAS  C:\Users\VIDEOH~1\AppData\Local\Temp\ccM4oHTP.s 			page 30


 717 008a 1B78     		ldrb	r3, [r3]
 718 008c 012B     		cmp	r3, #1
 719 008e F8D1     		bne	.L41
 468:ui.c          **** 		next_event(&event);
 720              		.loc 1 468 0 is_stmt 0 discriminator 1
 721 0090 019B     		ldr	r3, [sp, #4]
 722 0092 012B     		cmp	r3, #1
 723 0094 F5D1     		bne	.L41
 472:ui.c          **** 
 724              		.loc 1 472 0 is_stmt 1
 725 0096 09B0     		add	sp, sp, #36
 726              		@ sp needed
 727              	.LVL96:
 728              	.LVL97:
 729 0098 30BD     		pop	{r4, r5, pc}
 730              	.L43:
 731 009a C046     		.align	2
 732              	.L42:
 733 009c 70000000 		.word	.LC27
 734 00a0 7C000000 		.word	.LC29
 735 00a4 A0860100 		.word	100000
 736 00a8 88000000 		.word	.LC31
 737 00ac 40420F00 		.word	1000000
 738 00b0 94000000 		.word	.LC33
 739              		.cfi_endproc
 740              	.LFE51:
 741              		.size	measure_Battery_ISR, .-measure_Battery_ISR
 742              		.section	.text.ui_calibrate_offsets,"ax",%progbits
 743              		.align	2
 744              		.code	16
 745              		.thumb_func
 746              		.type	ui_calibrate_offsets, %function
 747              	ui_calibrate_offsets:
 748              	.LFB58:
 686:ui.c          ****     state.calibrating = 1;
 749              		.loc 1 686 0
 750              		.cfi_startproc
 751              		@ args = 0, pretend = 0, frame = 16
 752              		@ frame_needed = 0, uses_anonymous_args = 0
 753              	.LVL98:
 754 0000 10B5     		push	{r4, lr}
 755              		.cfi_def_cfa_offset 8
 756              		.cfi_offset 4, -8
 757              		.cfi_offset 14, -4
 758 0002 84B0     		sub	sp, sp, #16
 759              		.cfi_def_cfa_offset 24
 760 0004 0400     		movs	r4, r0
 687:ui.c          **** 
 761              		.loc 1 687 0
 762 0006 0122     		movs	r2, #1
 763 0008 144B     		ldr	r3, .L47
 764 000a 1A72     		strb	r2, [r3, #8]
 689:ui.c          ****     IDAC_High_SetValue(0);
 765              		.loc 1 689 0
 766 000c 0020     		movs	r0, #0
 767              	.LVL99:
 768 000e FFF7FEFF 		bl	IDAC_Low_SetValue
ARM GAS  C:\Users\VIDEOH~1\AppData\Local\Temp\ccM4oHTP.s 			page 31


 769              	.LVL100:
 690:ui.c          **** 
 770              		.loc 1 690 0
 771 0012 0020     		movs	r0, #0
 772 0014 FFF7FEFF 		bl	IDAC_High_SetValue
 773              	.LVL101:
 692:ui.c          **** 	Display_DrawText(6, 38, FONT_GLYPH_ENTER ": Next", 0);
 774              		.loc 1 692 0
 775 0018 0123     		movs	r3, #1
 776 001a 114A     		ldr	r2, .L47+4
 777 001c 0021     		movs	r1, #0
 778 001e 0220     		movs	r0, #2
 779 0020 FFF7FEFF 		bl	Display_DrawText
 780              	.LVL102:
 693:ui.c          **** 
 781              		.loc 1 693 0
 782 0024 0023     		movs	r3, #0
 783 0026 0F4A     		ldr	r2, .L47+8
 784 0028 2621     		movs	r1, #38
 785 002a 0620     		movs	r0, #6
 786 002c FFF7FEFF 		bl	Display_DrawText
 787              	.LVL103:
 697:ui.c          **** 	while(event.type != UI_EVENT_BUTTONPRESS || event.int_arg != 1)
 788              		.loc 1 697 0
 789 0030 0023     		movs	r3, #0
 790 0032 6A46     		mov	r2, sp
 791 0034 1370     		strb	r3, [r2]
 698:ui.c          **** 		next_event(&event);
 792              		.loc 1 698 0
 793 0036 02E0     		b	.L45
 794              	.L46:
 699:ui.c          **** 
 795              		.loc 1 699 0
 796 0038 6846     		mov	r0, sp
 797 003a FFF7FEFF 		bl	next_event
 798              	.LVL104:
 799              	.L45:
 698:ui.c          **** 		next_event(&event);
 800              		.loc 1 698 0
 801 003e 6B46     		mov	r3, sp
 802 0040 1B78     		ldrb	r3, [r3]
 803 0042 012B     		cmp	r3, #1
 804 0044 F8D1     		bne	.L46
 698:ui.c          **** 		next_event(&event);
 805              		.loc 1 698 0 is_stmt 0 discriminator 1
 806 0046 019B     		ldr	r3, [sp, #4]
 807 0048 012B     		cmp	r3, #1
 808 004a F5D1     		bne	.L46
 701:ui.c          ****     state.calibrating = 0;
 809              		.loc 1 701 0 is_stmt 1
 810 004c 2000     		movs	r0, r4
 811 004e FFF7FEFF 		bl	calibrate_offsets
 812              	.LVL105:
 702:ui.c          **** }
 813              		.loc 1 702 0
 814 0052 0022     		movs	r2, #0
 815 0054 014B     		ldr	r3, .L47
ARM GAS  C:\Users\VIDEOH~1\AppData\Local\Temp\ccM4oHTP.s 			page 32


 816 0056 1A72     		strb	r2, [r3, #8]
 703:ui.c          **** 
 817              		.loc 1 703 0
 818 0058 04B0     		add	sp, sp, #16
 819              		@ sp needed
 820              	.LVL106:
 821 005a 10BD     		pop	{r4, pc}
 822              	.L48:
 823              		.align	2
 824              	.L47:
 825 005c 00000000 		.word	state
 826 0060 A0000000 		.word	.LC36
 827 0064 B0000000 		.word	.LC38
 828              		.cfi_endproc
 829              	.LFE58:
 830              		.size	ui_calibrate_offsets, .-ui_calibrate_offsets
 831              		.section	.text.ui_calibrate_voltage,"ax",%progbits
 832              		.align	2
 833              		.code	16
 834              		.thumb_func
 835              		.type	ui_calibrate_voltage, %function
 836              	ui_calibrate_voltage:
 837              	.LFB59:
 707:ui.c          ****     state.calibrating = 1;
 838              		.loc 1 707 0
 839              		.cfi_startproc
 840              		@ args = 0, pretend = 0, frame = 32
 841              		@ frame_needed = 0, uses_anonymous_args = 0
 842              	.LVL107:
 843 0000 30B5     		push	{r4, r5, lr}
 844              		.cfi_def_cfa_offset 12
 845              		.cfi_offset 4, -12
 846              		.cfi_offset 5, -8
 847              		.cfi_offset 14, -4
 848 0002 89B0     		sub	sp, sp, #36
 849              		.cfi_def_cfa_offset 48
 850 0004 0500     		movs	r5, r0
 708:ui.c          **** 
 851              		.loc 1 708 0
 852 0006 0122     		movs	r2, #1
 853 0008 204B     		ldr	r3, .L54
 854 000a 1A72     		strb	r2, [r3, #8]
 710:ui.c          ****     IDAC_High_SetValue(0);
 855              		.loc 1 710 0
 856 000c 0020     		movs	r0, #0
 857              	.LVL108:
 858 000e FFF7FEFF 		bl	IDAC_Low_SetValue
 859              	.LVL109:
 711:ui.c          **** 
 860              		.loc 1 711 0
 861 0012 0020     		movs	r0, #0
 862 0014 FFF7FEFF 		bl	IDAC_High_SetValue
 863              	.LVL110:
 713:ui.c          **** 
 864              		.loc 1 713 0
 865 0018 0123     		movs	r3, #1
 866 001a 1D4A     		ldr	r2, .L54+4
ARM GAS  C:\Users\VIDEOH~1\AppData\Local\Temp\ccM4oHTP.s 			page 33


 867 001c 0021     		movs	r1, #0
 868 001e 0220     		movs	r0, #2
 869 0020 FFF7FEFF 		bl	Display_DrawText
 870              	.LVL111:
 717:ui.c          **** 	while(event.type != UI_EVENT_BUTTONPRESS || event.int_arg != 1) {
 871              		.loc 1 717 0
 872 0024 0022     		movs	r2, #0
 873 0026 04AB     		add	r3, sp, #16
 874 0028 1A70     		strb	r2, [r3]
 718:ui.c          **** 		next_event(&event);
 875              		.loc 1 718 0
 876 002a 23E0     		b	.L51
 877              	.L53:
 878              	.LBB3:
 719:ui.c          **** 
 879              		.loc 1 719 0
 880 002c 04AC     		add	r4, sp, #16
 881 002e 2000     		movs	r0, r4
 882 0030 FFF7FEFF 		bl	next_event
 883              	.LVL112:
 721:ui.c          **** 		format_number_simple(voltage, "V", buf);
 884              		.loc 1 721 0
 885 0034 FFF7FEFF 		bl	get_raw_voltage
 886              	.LVL113:
 887 0038 6B6A     		ldr	r3, [r5, #36]
 888 003a C01A     		subs	r0, r0, r3
 889 003c AB6A     		ldr	r3, [r5, #40]
 890 003e 5843     		muls	r0, r3
 891              	.LVL114:
 722:ui.c          **** 		strcat(buf, " ");
 892              		.loc 1 722 0
 893 0040 6A46     		mov	r2, sp
 894 0042 1449     		ldr	r1, .L54+8
 895 0044 FFF7FEFF 		bl	format_number_simple
 896              	.LVL115:
 723:ui.c          **** 		Display_DrawText(4, 43, buf, 0);
 897              		.loc 1 723 0
 898 0048 6846     		mov	r0, sp
 899 004a FFF7FEFF 		bl	strlen
 900              	.LVL116:
 901 004e 6844     		add	r0, r0, sp
 902 0050 0222     		movs	r2, #2
 903 0052 1149     		ldr	r1, .L54+12
 904 0054 FFF7FEFF 		bl	memcpy
 905              	.LVL117:
 724:ui.c          **** 
 906              		.loc 1 724 0
 907 0058 0023     		movs	r3, #0
 908 005a 6A46     		mov	r2, sp
 909 005c 2B21     		movs	r1, #43
 910 005e 0420     		movs	r0, #4
 911 0060 FFF7FEFF 		bl	Display_DrawText
 912              	.LVL118:
 726:ui.c          **** 		case UI_EVENT_UPDOWN:
 913              		.loc 1 726 0
 914 0064 2378     		ldrb	r3, [r4]
 915 0066 032B     		cmp	r3, #3
ARM GAS  C:\Users\VIDEOH~1\AppData\Local\Temp\ccM4oHTP.s 			page 34


 916 0068 04D1     		bne	.L51
 728:ui.c          **** 			break;
 917              		.loc 1 728 0
 918 006a AB6A     		ldr	r3, [r5, #40]
 919 006c 059A     		ldr	r2, [sp, #20]
 920 006e 9446     		mov	ip, r2
 921 0070 6344     		add	r3, r3, ip
 922 0072 AB62     		str	r3, [r5, #40]
 923              	.L51:
 924              	.LBE3:
 718:ui.c          **** 		next_event(&event);
 925              		.loc 1 718 0
 926 0074 04AB     		add	r3, sp, #16
 927 0076 1B78     		ldrb	r3, [r3]
 928 0078 012B     		cmp	r3, #1
 929 007a D7D1     		bne	.L53
 718:ui.c          **** 		next_event(&event);
 930              		.loc 1 718 0 is_stmt 0 discriminator 1
 931 007c 059B     		ldr	r3, [sp, #20]
 932 007e 012B     		cmp	r3, #1
 933 0080 D4D1     		bne	.L53
 734:ui.c          **** }
 934              		.loc 1 734 0 is_stmt 1
 935 0082 0022     		movs	r2, #0
 936 0084 014B     		ldr	r3, .L54
 937 0086 1A72     		strb	r2, [r3, #8]
 735:ui.c          **** 
 938              		.loc 1 735 0
 939 0088 09B0     		add	sp, sp, #36
 940              		@ sp needed
 941              	.LVL119:
 942 008a 30BD     		pop	{r4, r5, pc}
 943              	.L55:
 944              		.align	2
 945              	.L54:
 946 008c 00000000 		.word	state
 947 0090 B8000000 		.word	.LC41
 948 0094 3C000000 		.word	.LC16
 949 0098 38000000 		.word	.LC14
 950              		.cfi_endproc
 951              	.LFE59:
 952              		.size	ui_calibrate_voltage, .-ui_calibrate_voltage
 953              		.section	.text.ui_calibration_progress,"ax",%progbits
 954              		.align	2
 955              		.global	ui_calibration_progress
 956              		.code	16
 957              		.thumb_func
 958              		.type	ui_calibration_progress, %function
 959              	ui_calibration_progress:
 960              	.LFB62:
 810:ui.c          **** 	Display_Clear(6, 16, 7, 16 + 129 * current / all, 0xFF);
 961              		.loc 1 810 0
 962              		.cfi_startproc
 963              		@ args = 0, pretend = 0, frame = 0
 964              		@ frame_needed = 0, uses_anonymous_args = 0
 965              	.LVL120:
 966 0000 00B5     		push	{lr}
ARM GAS  C:\Users\VIDEOH~1\AppData\Local\Temp\ccM4oHTP.s 			page 35


 967              		.cfi_def_cfa_offset 4
 968              		.cfi_offset 14, -4
 969 0002 83B0     		sub	sp, sp, #12
 970              		.cfi_def_cfa_offset 16
 811:ui.c          **** }
 971              		.loc 1 811 0
 972 0004 C301     		lsls	r3, r0, #7
 973 0006 1818     		adds	r0, r3, r0
 974              	.LVL121:
 975 0008 FFF7FEFF 		bl	__aeabi_idiv
 976              	.LVL122:
 977 000c 0300     		movs	r3, r0
 978 000e 1033     		adds	r3, r3, #16
 979 0010 DBB2     		uxtb	r3, r3
 980 0012 FF22     		movs	r2, #255
 981 0014 0092     		str	r2, [sp]
 982 0016 F83A     		subs	r2, r2, #248
 983 0018 1021     		movs	r1, #16
 984 001a 0620     		movs	r0, #6
 985 001c FFF7FEFF 		bl	Display_Clear
 986              	.LVL123:
 812:ui.c          **** 
 987              		.loc 1 812 0
 988 0020 03B0     		add	sp, sp, #12
 989              		@ sp needed
 990 0022 00BD     		pop	{pc}
 991              		.cfi_endproc
 992              	.LFE62:
 993              		.size	ui_calibration_progress, .-ui_calibration_progress
 994              		.section	.text.ui_calibrate_current,"ax",%progbits
 995              		.align	2
 996              		.code	16
 997              		.thumb_func
 998              		.type	ui_calibrate_current, %function
 999              	ui_calibrate_current:
 1000              	.LFB60:
 737:ui.c          ****     state.calibrating = 1;
 1001              		.loc 1 737 0
 1002              		.cfi_startproc
 1003              		@ args = 0, pretend = 0, frame = 32
 1004              		@ frame_needed = 0, uses_anonymous_args = 0
 1005              	.LVL124:
 1006 0000 30B5     		push	{r4, r5, lr}
 1007              		.cfi_def_cfa_offset 12
 1008              		.cfi_offset 4, -12
 1009              		.cfi_offset 5, -8
 1010              		.cfi_offset 14, -4
 1011 0002 8BB0     		sub	sp, sp, #44
 1012              		.cfi_def_cfa_offset 56
 1013 0004 0500     		movs	r5, r0
 738:ui.c          **** 
 1014              		.loc 1 738 0
 1015 0006 0122     		movs	r2, #1
 1016 0008 2A4B     		ldr	r3, .L62
 1017 000a 1A72     		strb	r2, [r3, #8]
 740:ui.c          ****     IDAC_High_SetValue((CALIBRATION_CURRENT - new_settings->calibration_settings.dac_offset) / new_
 1018              		.loc 1 740 0
ARM GAS  C:\Users\VIDEOH~1\AppData\Local\Temp\ccM4oHTP.s 			page 36


 1019 000c 0020     		movs	r0, #0
 1020              	.LVL125:
 1021 000e FFF7FEFF 		bl	IDAC_Low_SetValue
 1022              	.LVL126:
 741:ui.c          **** 
 1023              		.loc 1 741 0
 1024 0012 2948     		ldr	r0, .L62+4
 1025 0014 6B69     		ldr	r3, [r5, #20]
 1026 0016 C01A     		subs	r0, r0, r3
 1027 0018 2969     		ldr	r1, [r5, #16]
 1028 001a FFF7FEFF 		bl	__aeabi_idiv
 1029              	.LVL127:
 1030 001e FFF7FEFF 		bl	IDAC_High_SetValue
 1031              	.LVL128:
 743:ui.c          **** 	Display_DrawText(2, 0, " Adj. Current", 1);
 1032              		.loc 1 743 0
 1033 0022 0024     		movs	r4, #0
 1034 0024 0094     		str	r4, [sp]
 1035 0026 A023     		movs	r3, #160
 1036 0028 0822     		movs	r2, #8
 1037 002a 0021     		movs	r1, #0
 1038 002c 0420     		movs	r0, #4
 1039 002e FFF7FEFF 		bl	Display_Clear
 1040              	.LVL129:
 744:ui.c          **** 	Display_DrawText(6, 38, FONT_GLYPH_ENTER ": Next", 0);
 1041              		.loc 1 744 0
 1042 0032 0123     		movs	r3, #1
 1043 0034 214A     		ldr	r2, .L62+8
 1044 0036 0021     		movs	r1, #0
 1045 0038 0220     		movs	r0, #2
 1046 003a FFF7FEFF 		bl	Display_DrawText
 1047              	.LVL130:
 745:ui.c          **** 
 1048              		.loc 1 745 0
 1049 003e 0023     		movs	r3, #0
 1050 0040 1F4A     		ldr	r2, .L62+12
 1051 0042 2621     		movs	r1, #38
 1052 0044 0620     		movs	r0, #6
 1053 0046 FFF7FEFF 		bl	Display_DrawText
 1054              	.LVL131:
 751:ui.c          **** 	while(event.type != UI_EVENT_BUTTONPRESS || event.int_arg != 1) {
 1055              		.loc 1 751 0
 1056 004a 06AB     		add	r3, sp, #24
 1057 004c 1C70     		strb	r4, [r3]
 752:ui.c          **** 		next_event(&event);
 1058              		.loc 1 752 0
 1059 004e 25E0     		b	.L59
 1060              	.L61:
 753:ui.c          **** 
 1061              		.loc 1 753 0
 1062 0050 06AC     		add	r4, sp, #24
 1063 0052 2000     		movs	r0, r4
 1064 0054 FFF7FEFF 		bl	next_event
 1065              	.LVL132:
 755:ui.c          **** 		format_number_simple(current, "A", buf);
 1066              		.loc 1 755 0
 1067 0058 FFF7FEFF 		bl	get_raw_current_usage
ARM GAS  C:\Users\VIDEOH~1\AppData\Local\Temp\ccM4oHTP.s 			page 37


 1068              	.LVL133:
 1069 005c EB69     		ldr	r3, [r5, #28]
 1070 005e C01A     		subs	r0, r0, r3
 1071 0060 2B6A     		ldr	r3, [r5, #32]
 1072 0062 5843     		muls	r0, r3
 1073              	.LVL134:
 756:ui.c          **** 		strcat(buf, " ");
 1074              		.loc 1 756 0
 1075 0064 02AA     		add	r2, sp, #8
 1076 0066 1749     		ldr	r1, .L62+16
 1077 0068 FFF7FEFF 		bl	format_number_simple
 1078              	.LVL135:
 757:ui.c          **** 		Display_DrawText(4, 43, buf, 0);
 1079              		.loc 1 757 0
 1080 006c 02A8     		add	r0, sp, #8
 1081 006e FFF7FEFF 		bl	strlen
 1082              	.LVL136:
 1083 0072 02AB     		add	r3, sp, #8
 1084 0074 9C46     		mov	ip, r3
 1085 0076 6044     		add	r0, r0, ip
 1086 0078 0222     		movs	r2, #2
 1087 007a 1349     		ldr	r1, .L62+20
 1088 007c FFF7FEFF 		bl	memcpy
 1089              	.LVL137:
 758:ui.c          **** 
 1090              		.loc 1 758 0
 1091 0080 0023     		movs	r3, #0
 1092 0082 02AA     		add	r2, sp, #8
 1093 0084 2B21     		movs	r1, #43
 1094 0086 0420     		movs	r0, #4
 1095 0088 FFF7FEFF 		bl	Display_DrawText
 1096              	.LVL138:
 760:ui.c          **** 		case UI_EVENT_UPDOWN:
 1097              		.loc 1 760 0
 1098 008c 2378     		ldrb	r3, [r4]
 1099 008e 032B     		cmp	r3, #3
 1100 0090 04D1     		bne	.L59
 762:ui.c          **** 			break;
 1101              		.loc 1 762 0
 1102 0092 2B6A     		ldr	r3, [r5, #32]
 1103 0094 079A     		ldr	r2, [sp, #28]
 1104 0096 9446     		mov	ip, r2
 1105 0098 6344     		add	r3, r3, ip
 1106 009a 2B62     		str	r3, [r5, #32]
 1107              	.L59:
 752:ui.c          **** 		next_event(&event);
 1108              		.loc 1 752 0
 1109 009c 06AB     		add	r3, sp, #24
 1110 009e 1B78     		ldrb	r3, [r3]
 1111 00a0 012B     		cmp	r3, #1
 1112 00a2 D5D1     		bne	.L61
 752:ui.c          **** 		next_event(&event);
 1113              		.loc 1 752 0 is_stmt 0 discriminator 1
 1114 00a4 079B     		ldr	r3, [sp, #28]
 1115 00a6 012B     		cmp	r3, #1
 1116 00a8 D2D1     		bne	.L61
 768:ui.c          **** }
ARM GAS  C:\Users\VIDEOH~1\AppData\Local\Temp\ccM4oHTP.s 			page 38


 1117              		.loc 1 768 0 is_stmt 1
 1118 00aa 0022     		movs	r2, #0
 1119 00ac 014B     		ldr	r3, .L62
 1120 00ae 1A72     		strb	r2, [r3, #8]
 769:ui.c          **** 
 1121              		.loc 1 769 0
 1122 00b0 0BB0     		add	sp, sp, #44
 1123              		@ sp needed
 1124              	.LVL139:
 1125 00b2 30BD     		pop	{r4, r5, pc}
 1126              	.L63:
 1127              		.align	2
 1128              	.L62:
 1129 00b4 00000000 		.word	state
 1130 00b8 80841E00 		.word	2000000
 1131 00bc C8000000 		.word	.LC46
 1132 00c0 B0000000 		.word	.LC38
 1133 00c4 D8000000 		.word	.LC49
 1134 00c8 38000000 		.word	.LC14
 1135              		.cfi_endproc
 1136              	.LFE60:
 1137              		.size	ui_calibrate_current, .-ui_calibrate_current
 1138              		.section	.text.ui_calibrate_voltage_correction,"ax",%progbits
 1139              		.align	2
 1140              		.code	16
 1141              		.thumb_func
 1142              		.type	ui_calibrate_voltage_correction, %function
 1143              	ui_calibrate_voltage_correction:
 1144              	.LFB61:
 771:ui.c          **** 	state.calibrating = 1;
 1145              		.loc 1 771 0
 1146              		.cfi_startproc
 1147              		@ args = 0, pretend = 0, frame = 32
 1148              		@ frame_needed = 0, uses_anonymous_args = 0
 1149              	.LVL140:
 1150 0000 70B5     		push	{r4, r5, r6, lr}
 1151              		.cfi_def_cfa_offset 16
 1152              		.cfi_offset 4, -16
 1153              		.cfi_offset 5, -12
 1154              		.cfi_offset 6, -8
 1155              		.cfi_offset 14, -4
 1156 0002 8AB0     		sub	sp, sp, #40
 1157              		.cfi_def_cfa_offset 56
 1158 0004 0500     		movs	r5, r0
 772:ui.c          **** 
 1159              		.loc 1 772 0
 1160 0006 0122     		movs	r2, #1
 1161 0008 314B     		ldr	r3, .L69
 1162 000a 1A72     		strb	r2, [r3, #8]
 774:ui.c          **** 	IDAC_High_SetValue((CALIBRATION_CURRENT - new_settings->calibration_settings.dac_offset) / new_set
 1163              		.loc 1 774 0
 1164 000c 0020     		movs	r0, #0
 1165              	.LVL141:
 1166 000e FFF7FEFF 		bl	IDAC_Low_SetValue
 1167              	.LVL142:
 775:ui.c          **** 
 1168              		.loc 1 775 0
ARM GAS  C:\Users\VIDEOH~1\AppData\Local\Temp\ccM4oHTP.s 			page 39


 1169 0012 3048     		ldr	r0, .L69+4
 1170 0014 6B69     		ldr	r3, [r5, #20]
 1171 0016 C01A     		subs	r0, r0, r3
 1172 0018 2969     		ldr	r1, [r5, #16]
 1173 001a FFF7FEFF 		bl	__aeabi_idiv
 1174              	.LVL143:
 1175 001e FFF7FEFF 		bl	IDAC_High_SetValue
 1176              	.LVL144:
 777:ui.c          **** 	Display_DrawText(2, 0, " Adj. voltage", 1);
 1177              		.loc 1 777 0
 1178 0022 0024     		movs	r4, #0
 1179 0024 0094     		str	r4, [sp]
 1180 0026 A023     		movs	r3, #160
 1181 0028 0822     		movs	r2, #8
 1182 002a 0021     		movs	r1, #0
 1183 002c 0420     		movs	r0, #4
 1184 002e FFF7FEFF 		bl	Display_Clear
 1185              	.LVL145:
 778:ui.c          **** 	Display_DrawText(6, 38, FONT_GLYPH_ENTER ": Next", 0);
 1186              		.loc 1 778 0
 1187 0032 0123     		movs	r3, #1
 1188 0034 284A     		ldr	r2, .L69+8
 1189 0036 0021     		movs	r1, #0
 1190 0038 0220     		movs	r0, #2
 1191 003a FFF7FEFF 		bl	Display_DrawText
 1192              	.LVL146:
 779:ui.c          **** 
 1193              		.loc 1 779 0
 1194 003e 0023     		movs	r3, #0
 1195 0040 264A     		ldr	r2, .L69+12
 1196 0042 2621     		movs	r1, #38
 1197 0044 0620     		movs	r0, #6
 1198 0046 FFF7FEFF 		bl	Display_DrawText
 1199              	.LVL147:
 785:ui.c          **** 	while(event.type != UI_EVENT_BUTTONPRESS || event.int_arg != 1) {
 1200              		.loc 1 785 0
 1201 004a 06AB     		add	r3, sp, #24
 1202 004c 1C70     		strb	r4, [r3]
 786:ui.c          **** 		next_event(&event);
 1203              		.loc 1 786 0
 1204 004e 33E0     		b	.L66
 1205              	.L68:
 787:ui.c          **** 
 1206              		.loc 1 787 0
 1207 0050 06AE     		add	r6, sp, #24
 1208 0052 3000     		movs	r0, r6
 1209 0054 FFF7FEFF 		bl	next_event
 1210              	.LVL148:
 789:ui.c          **** 		voltage = (get_raw_voltage() - new_settings->calibration_settings.adc_voltage_offset) * new_setti
 1211              		.loc 1 789 0
 1212 0058 FFF7FEFF 		bl	get_raw_current_usage
 1213              	.LVL149:
 1214 005c EB69     		ldr	r3, [r5, #28]
 1215 005e C41A     		subs	r4, r0, r3
 1216 0060 2B6A     		ldr	r3, [r5, #32]
 1217 0062 5C43     		muls	r4, r3
 1218              	.LVL150:
ARM GAS  C:\Users\VIDEOH~1\AppData\Local\Temp\ccM4oHTP.s 			page 40


 790:ui.c          **** 		voltage += (current / 1024) * new_settings->calibration_settings.voltage_correction_ratio;
 1219              		.loc 1 790 0
 1220 0064 FFF7FEFF 		bl	get_raw_voltage
 1221              	.LVL151:
 1222 0068 6B6A     		ldr	r3, [r5, #36]
 1223 006a C01A     		subs	r0, r0, r3
 1224 006c AB6A     		ldr	r3, [r5, #40]
 1225 006e 5843     		muls	r0, r3
 1226              	.LVL152:
 791:ui.c          **** 		format_number_simple(voltage, "V", buf);
 1227              		.loc 1 791 0
 1228 0070 E317     		asrs	r3, r4, #31
 1229 0072 9B05     		lsls	r3, r3, #22
 1230 0074 9B0D     		lsrs	r3, r3, #22
 1231 0076 1C19     		adds	r4, r3, r4
 1232              	.LVL153:
 1233 0078 A412     		asrs	r4, r4, #10
 1234 007a EB6A     		ldr	r3, [r5, #44]
 1235 007c 5C43     		muls	r4, r3
 1236 007e 0019     		adds	r0, r0, r4
 1237              	.LVL154:
 792:ui.c          **** 		strcat(buf, " ");
 1238              		.loc 1 792 0
 1239 0080 02AA     		add	r2, sp, #8
 1240 0082 1749     		ldr	r1, .L69+16
 1241 0084 FFF7FEFF 		bl	format_number_simple
 1242              	.LVL155:
 793:ui.c          **** 		Display_DrawText(4, 43, buf, 0);
 1243              		.loc 1 793 0
 1244 0088 02A8     		add	r0, sp, #8
 1245 008a FFF7FEFF 		bl	strlen
 1246              	.LVL156:
 1247 008e 02AB     		add	r3, sp, #8
 1248 0090 9C46     		mov	ip, r3
 1249 0092 6044     		add	r0, r0, ip
 1250 0094 0222     		movs	r2, #2
 1251 0096 1349     		ldr	r1, .L69+20
 1252 0098 FFF7FEFF 		bl	memcpy
 1253              	.LVL157:
 794:ui.c          **** 
 1254              		.loc 1 794 0
 1255 009c 0023     		movs	r3, #0
 1256 009e 02AA     		add	r2, sp, #8
 1257 00a0 2B21     		movs	r1, #43
 1258 00a2 0420     		movs	r0, #4
 1259 00a4 FFF7FEFF 		bl	Display_DrawText
 1260              	.LVL158:
 796:ui.c          **** 		case UI_EVENT_UPDOWN:
 1261              		.loc 1 796 0
 1262 00a8 3378     		ldrb	r3, [r6]
 1263 00aa 032B     		cmp	r3, #3
 1264 00ac 04D1     		bne	.L66
 798:ui.c          **** 			break;
 1265              		.loc 1 798 0
 1266 00ae EB6A     		ldr	r3, [r5, #44]
 1267 00b0 079A     		ldr	r2, [sp, #28]
 1268 00b2 9446     		mov	ip, r2
ARM GAS  C:\Users\VIDEOH~1\AppData\Local\Temp\ccM4oHTP.s 			page 41


 1269 00b4 6344     		add	r3, r3, ip
 1270 00b6 EB62     		str	r3, [r5, #44]
 1271              	.L66:
 786:ui.c          **** 		next_event(&event);
 1272              		.loc 1 786 0
 1273 00b8 06AB     		add	r3, sp, #24
 1274 00ba 1B78     		ldrb	r3, [r3]
 1275 00bc 012B     		cmp	r3, #1
 1276 00be C7D1     		bne	.L68
 786:ui.c          **** 		next_event(&event);
 1277              		.loc 1 786 0 is_stmt 0 discriminator 1
 1278 00c0 079B     		ldr	r3, [sp, #28]
 1279 00c2 012B     		cmp	r3, #1
 1280 00c4 C4D1     		bne	.L68
 804:ui.c          **** }
 1281              		.loc 1 804 0 is_stmt 1
 1282 00c6 0022     		movs	r2, #0
 1283 00c8 014B     		ldr	r3, .L69
 1284 00ca 1A72     		strb	r2, [r3, #8]
 805:ui.c          **** 
 1285              		.loc 1 805 0
 1286 00cc 0AB0     		add	sp, sp, #40
 1287              		@ sp needed
 1288              	.LVL159:
 1289 00ce 70BD     		pop	{r4, r5, r6, pc}
 1290              	.L70:
 1291              		.align	2
 1292              	.L69:
 1293 00d0 00000000 		.word	state
 1294 00d4 80841E00 		.word	2000000
 1295 00d8 B8000000 		.word	.LC41
 1296 00dc B0000000 		.word	.LC38
 1297 00e0 3C000000 		.word	.LC16
 1298 00e4 38000000 		.word	.LC14
 1299              		.cfi_endproc
 1300              	.LFE61:
 1301              		.size	ui_calibrate_voltage_correction, .-ui_calibrate_voltage_correction
 1302              		.section	.text.ui_calibrate_dacs,"ax",%progbits
 1303              		.align	2
 1304              		.code	16
 1305              		.thumb_func
 1306              		.type	ui_calibrate_dacs, %function
 1307              	ui_calibrate_dacs:
 1308              	.LFB63:
 814:ui.c          **** 	Display_Clear(2, 0, 8, 160, 0);
 1309              		.loc 1 814 0
 1310              		.cfi_startproc
 1311              		@ args = 0, pretend = 0, frame = 0
 1312              		@ frame_needed = 0, uses_anonymous_args = 0
 1313              	.LVL160:
 1314 0000 30B5     		push	{r4, r5, lr}
 1315              		.cfi_def_cfa_offset 12
 1316              		.cfi_offset 4, -12
 1317              		.cfi_offset 5, -8
 1318              		.cfi_offset 14, -4
 1319 0002 83B0     		sub	sp, sp, #12
 1320              		.cfi_def_cfa_offset 24
ARM GAS  C:\Users\VIDEOH~1\AppData\Local\Temp\ccM4oHTP.s 			page 42


 1321 0004 0400     		movs	r4, r0
 815:ui.c          **** 	Display_DrawText(3, 14, "Please wait", 0);
 1322              		.loc 1 815 0
 1323 0006 0023     		movs	r3, #0
 1324 0008 0093     		str	r3, [sp]
 1325 000a A033     		adds	r3, r3, #160
 1326 000c 0822     		movs	r2, #8
 1327 000e 0021     		movs	r1, #0
 1328 0010 0220     		movs	r0, #2
 1329              	.LVL161:
 1330 0012 FFF7FEFF 		bl	Display_Clear
 1331              	.LVL162:
 816:ui.c          **** 
 1332              		.loc 1 816 0
 1333 0016 0023     		movs	r3, #0
 1334 0018 134A     		ldr	r2, .L72
 1335 001a 0E21     		movs	r1, #14
 1336 001c 0320     		movs	r0, #3
 1337 001e FFF7FEFF 		bl	Display_DrawText
 1338              	.LVL163:
 819:ui.c          **** 	Display_Clear(6, 145, 7, 146, 0xFF);
 1339              		.loc 1 819 0
 1340 0022 FF25     		movs	r5, #255
 1341 0024 0095     		str	r5, [sp]
 1342 0026 1023     		movs	r3, #16
 1343 0028 0722     		movs	r2, #7
 1344 002a 0F21     		movs	r1, #15
 1345 002c 0620     		movs	r0, #6
 1346 002e FFF7FEFF 		bl	Display_Clear
 1347              	.LVL164:
 820:ui.c          ****     Display_Clear(6, 16, 7, 145, 0x81);
 1348              		.loc 1 820 0
 1349 0032 0095     		str	r5, [sp]
 1350 0034 9223     		movs	r3, #146
 1351 0036 0722     		movs	r2, #7
 1352 0038 9121     		movs	r1, #145
 1353 003a 0620     		movs	r0, #6
 1354 003c FFF7FEFF 		bl	Display_Clear
 1355              	.LVL165:
 821:ui.c          ****     calibrate_opamp_offset_trim(new_settings, CALIBRATION_CURRENT,ui_calibration_progress);
 1356              		.loc 1 821 0
 1357 0040 8123     		movs	r3, #129
 1358 0042 0093     		str	r3, [sp]
 1359 0044 1033     		adds	r3, r3, #16
 1360 0046 0722     		movs	r2, #7
 1361 0048 1021     		movs	r1, #16
 1362 004a 0620     		movs	r0, #6
 1363 004c FFF7FEFF 		bl	Display_Clear
 1364              	.LVL166:
 822:ui.c          **** 	calibrate_dacs(new_settings, CALIBRATION_CURRENT);
 1365              		.loc 1 822 0
 1366 0050 064D     		ldr	r5, .L72+4
 1367 0052 074A     		ldr	r2, .L72+8
 1368 0054 2900     		movs	r1, r5
 1369 0056 2000     		movs	r0, r4
 1370 0058 FFF7FEFF 		bl	calibrate_opamp_offset_trim
 1371              	.LVL167:
ARM GAS  C:\Users\VIDEOH~1\AppData\Local\Temp\ccM4oHTP.s 			page 43


 823:ui.c          **** }
 1372              		.loc 1 823 0
 1373 005c 2900     		movs	r1, r5
 1374 005e 2000     		movs	r0, r4
 1375 0060 FFF7FEFF 		bl	calibrate_dacs
 1376              	.LVL168:
 824:ui.c          **** 
 1377              		.loc 1 824 0
 1378 0064 03B0     		add	sp, sp, #12
 1379              		@ sp needed
 1380              	.LVL169:
 1381 0066 30BD     		pop	{r4, r5, pc}
 1382              	.L73:
 1383              		.align	2
 1384              	.L72:
 1385 0068 DC000000 		.word	.LC57
 1386 006c 80841E00 		.word	2000000
 1387 0070 00000000 		.word	ui_calibration_progress
 1388              		.cfi_endproc
 1389              	.LFE63:
 1390              		.size	ui_calibrate_dacs, .-ui_calibrate_dacs
 1391              		.section	.text.ui_calibrate,"ax",%progbits
 1392              		.align	2
 1393              		.code	16
 1394              		.thumb_func
 1395              		.type	ui_calibrate, %function
 1396              	ui_calibrate:
 1397              	.LFB64:
 826:ui.c          **** 	set_current(0);
 1398              		.loc 1 826 0
 1399              		.cfi_startproc
 1400              		@ args = 0, pretend = 0, frame = 48
 1401              		@ frame_needed = 0, uses_anonymous_args = 0
 1402              	.LVL170:
 1403 0000 30B5     		push	{r4, r5, lr}
 1404              		.cfi_def_cfa_offset 12
 1405              		.cfi_offset 4, -12
 1406              		.cfi_offset 5, -8
 1407              		.cfi_offset 14, -4
 1408 0002 8DB0     		sub	sp, sp, #52
 1409              		.cfi_def_cfa_offset 64
 1410 0004 0400     		movs	r4, r0
 827:ui.c          **** 	set_output_mode(OUTPUT_MODE_FEEDBACK);
 1411              		.loc 1 827 0
 1412 0006 0020     		movs	r0, #0
 1413              	.LVL171:
 1414 0008 FFF7FEFF 		bl	set_current
 1415              	.LVL172:
 828:ui.c          **** 
 1416              		.loc 1 828 0
 1417 000c 0220     		movs	r0, #2
 1418 000e FFF7FEFF 		bl	set_output_mode
 1419              	.LVL173:
 831:ui.c          **** 	memcpy(&new_settings.calibration_settings, &default_settings.calibration_settings, sizeof(calibrat
 1420              		.loc 1 831 0
 1421 0012 194B     		ldr	r3, .L75
 1422 0014 1968     		ldr	r1, [r3]
ARM GAS  C:\Users\VIDEOH~1\AppData\Local\Temp\ccM4oHTP.s 			page 44


 1423 0016 3022     		movs	r2, #48
 1424 0018 6846     		mov	r0, sp
 1425 001a FFF7FEFF 		bl	memcpy
 1426              	.LVL174:
 832:ui.c          **** 
 1427              		.loc 1 832 0
 1428 001e 03AA     		add	r2, sp, #12
 1429 0020 164B     		ldr	r3, .L75+4
 1430 0022 0C33     		adds	r3, r3, #12
 1431 0024 23CB     		ldmia	r3!, {r0, r1, r5}
 1432 0026 23C2     		stmia	r2!, {r0, r1, r5}
 1433 0028 23CB     		ldmia	r3!, {r0, r1, r5}
 1434 002a 23C2     		stmia	r2!, {r0, r1, r5}
 1435 002c 23CB     		ldmia	r3!, {r0, r1, r5}
 1436 002e 23C2     		stmia	r2!, {r0, r1, r5}
 834:ui.c          **** 	Display_DrawText(0, 0, " CALIBRATION ", 1);
 1437              		.loc 1 834 0
 1438 0030 FFF7FEFF 		bl	Display_ClearAll
 1439              	.LVL175:
 835:ui.c          **** 
 1440              		.loc 1 835 0
 1441 0034 0123     		movs	r3, #1
 1442 0036 124A     		ldr	r2, .L75+8
 1443 0038 0021     		movs	r1, #0
 1444 003a 0020     		movs	r0, #0
 1445 003c FFF7FEFF 		bl	Display_DrawText
 1446              	.LVL176:
 837:ui.c          **** 	ui_calibrate_voltage(&new_settings);
 1447              		.loc 1 837 0
 1448 0040 6846     		mov	r0, sp
 1449 0042 FFF7FEFF 		bl	ui_calibrate_offsets
 1450              	.LVL177:
 838:ui.c          **** 	ui_calibrate_current(&new_settings);
 1451              		.loc 1 838 0
 1452 0046 6846     		mov	r0, sp
 1453 0048 FFF7FEFF 		bl	ui_calibrate_voltage
 1454              	.LVL178:
 839:ui.c          **** 	ui_calibrate_voltage_correction(&new_settings);
 1455              		.loc 1 839 0
 1456 004c 6846     		mov	r0, sp
 1457 004e FFF7FEFF 		bl	ui_calibrate_current
 1458              	.LVL179:
 840:ui.c          **** 	ui_calibrate_dacs(&new_settings);
 1459              		.loc 1 840 0
 1460 0052 6846     		mov	r0, sp
 1461 0054 FFF7FEFF 		bl	ui_calibrate_voltage_correction
 1462              	.LVL180:
 841:ui.c          **** 
 1463              		.loc 1 841 0
 1464 0058 6846     		mov	r0, sp
 1465 005a FFF7FEFF 		bl	ui_calibrate_dacs
 1466              	.LVL181:
 843:ui.c          **** 
 1467              		.loc 1 843 0
 1468 005e 094B     		ldr	r3, .L75+12
 1469 0060 3022     		movs	r2, #48
 1470 0062 6946     		mov	r1, sp
ARM GAS  C:\Users\VIDEOH~1\AppData\Local\Temp\ccM4oHTP.s 			page 45


 1471 0064 0020     		movs	r0, #0
 1472 0066 FFF7FEFF 		bl	Cy_Em_EEPROM_Write
 1473              	.LVL182:
 845:ui.c          **** }
 1474              		.loc 1 845 0
 1475 006a 0023     		movs	r3, #0
 1476 006c 2360     		str	r3, [r4]
 1477 006e 6360     		str	r3, [r4, #4]
 1478 0070 2372     		strb	r3, [r4, #8]
 846:ui.c          **** 
 1479              		.loc 1 846 0
 1480 0072 2000     		movs	r0, r4
 1481 0074 0DB0     		add	sp, sp, #52
 1482              		@ sp needed
 1483              	.LVL183:
 1484 0076 30BD     		pop	{r4, r5, pc}
 1485              	.L76:
 1486              		.align	2
 1487              	.L75:
 1488 0078 00000000 		.word	settings
 1489 007c 00000000 		.word	default_settings
 1490 0080 E8000000 		.word	.LC62
 1491 0084 00000000 		.word	EEPROM_context
 1492              		.cfi_endproc
 1493              	.LFE64:
 1494              		.size	ui_calibrate, .-ui_calibrate
 1495              		.section	.text.set_contrast,"ax",%progbits
 1496              		.align	2
 1497              		.code	16
 1498              		.thumb_func
 1499              		.type	set_contrast, %function
 1500              	set_contrast:
 1501              	.LFB53:
 479:ui.c          **** 	Display_ClearAll();
 1502              		.loc 1 479 0
 1503              		.cfi_startproc
 1504              		@ args = 0, pretend = 0, frame = 24
 1505              		@ frame_needed = 0, uses_anonymous_args = 0
 1506              	.LVL184:
 1507 0000 30B5     		push	{r4, r5, lr}
 1508              		.cfi_def_cfa_offset 12
 1509              		.cfi_offset 4, -12
 1510              		.cfi_offset 5, -8
 1511              		.cfi_offset 14, -4
 1512 0002 89B0     		sub	sp, sp, #36
 1513              		.cfi_def_cfa_offset 48
 1514 0004 0400     		movs	r4, r0
 480:ui.c          **** 	Display_Clear(0, 2, 2, 160, 0xFF);
 1515              		.loc 1 480 0
 1516 0006 FFF7FEFF 		bl	Display_ClearAll
 1517              	.LVL185:
 481:ui.c          **** 	Display_DrawText(0, 32, "Contrast", 1);
 1518              		.loc 1 481 0
 1519 000a FF25     		movs	r5, #255
 1520 000c 0095     		str	r5, [sp]
 1521 000e A023     		movs	r3, #160
 1522 0010 0222     		movs	r2, #2
ARM GAS  C:\Users\VIDEOH~1\AppData\Local\Temp\ccM4oHTP.s 			page 46


 1523 0012 0221     		movs	r1, #2
 1524 0014 0020     		movs	r0, #0
 1525 0016 FFF7FEFF 		bl	Display_Clear
 1526              	.LVL186:
 482:ui.c          **** 	Display_DrawText(6, 38, FONT_GLYPH_ENTER ": Done", 0);
 1527              		.loc 1 482 0
 1528 001a 0123     		movs	r3, #1
 1529 001c 364A     		ldr	r2, .L86
 1530 001e 2021     		movs	r1, #32
 1531 0020 0020     		movs	r0, #0
 1532 0022 FFF7FEFF 		bl	Display_DrawText
 1533              	.LVL187:
 483:ui.c          **** 
 1534              		.loc 1 483 0
 1535 0026 0023     		movs	r3, #0
 1536 0028 344A     		ldr	r2, .L86+4
 1537 002a 2621     		movs	r1, #38
 1538 002c 0620     		movs	r0, #6
 1539 002e FFF7FEFF 		bl	Display_DrawText
 1540              	.LVL188:
 486:ui.c          **** 	Display_Clear(4, 145, 5, 146, 0xFF);
 1541              		.loc 1 486 0
 1542 0032 0095     		str	r5, [sp]
 1543 0034 1023     		movs	r3, #16
 1544 0036 0522     		movs	r2, #5
 1545 0038 0F21     		movs	r1, #15
 1546 003a 0420     		movs	r0, #4
 1547 003c FFF7FEFF 		bl	Display_Clear
 1548              	.LVL189:
 487:ui.c          **** 
 1549              		.loc 1 487 0
 1550 0040 0095     		str	r5, [sp]
 1551 0042 9223     		movs	r3, #146
 1552 0044 0522     		movs	r2, #5
 1553 0046 9121     		movs	r1, #145
 1554 0048 0420     		movs	r0, #4
 1555 004a FFF7FEFF 		bl	Display_Clear
 1556              	.LVL190:
 489:ui.c          **** 	ui_event event;
 1557              		.loc 1 489 0
 1558 004e 2C4B     		ldr	r3, .L86+8
 1559 0050 1B68     		ldr	r3, [r3]
 1560 0052 5B68     		ldr	r3, [r3, #4]
 1561 0054 0793     		str	r3, [sp, #28]
 1562              	.L78:
 492:ui.c          **** 		Display_Clear(4, 16 + contrast * 2, 5, 145, 0x81);
 1563              		.loc 1 492 0
 1564 0056 079B     		ldr	r3, [sp, #28]
 1565 0058 0833     		adds	r3, r3, #8
 1566 005a 5B00     		lsls	r3, r3, #1
 1567 005c DBB2     		uxtb	r3, r3
 1568 005e FF22     		movs	r2, #255
 1569 0060 0092     		str	r2, [sp]
 1570 0062 FA3A     		subs	r2, r2, #250
 1571 0064 1021     		movs	r1, #16
 1572 0066 0420     		movs	r0, #4
 1573 0068 FFF7FEFF 		bl	Display_Clear
ARM GAS  C:\Users\VIDEOH~1\AppData\Local\Temp\ccM4oHTP.s 			page 47


 1574              	.LVL191:
 493:ui.c          **** 
 1575              		.loc 1 493 0
 1576 006c 0799     		ldr	r1, [sp, #28]
 1577 006e 0831     		adds	r1, r1, #8
 1578 0070 4900     		lsls	r1, r1, #1
 1579 0072 C9B2     		uxtb	r1, r1
 1580 0074 8123     		movs	r3, #129
 1581 0076 0093     		str	r3, [sp]
 1582 0078 1033     		adds	r3, r3, #16
 1583 007a 0522     		movs	r2, #5
 1584 007c 0420     		movs	r0, #4
 1585 007e FFF7FEFF 		bl	Display_Clear
 1586              	.LVL192:
 495:ui.c          **** 		switch(event.type) {
 1587              		.loc 1 495 0
 1588 0082 03AD     		add	r5, sp, #12
 1589 0084 2800     		movs	r0, r5
 1590 0086 FFF7FEFF 		bl	next_event
 1591              	.LVL193:
 496:ui.c          **** 		case UI_EVENT_UPDOWN:
 1592              		.loc 1 496 0
 1593 008a 2B78     		ldrb	r3, [r5]
 1594 008c 032B     		cmp	r3, #3
 1595 008e 04D0     		beq	.L80
 1596 0090 052B     		cmp	r3, #5
 1597 0092 27D0     		beq	.L81
 1598 0094 012B     		cmp	r3, #1
 1599 0096 DED1     		bne	.L78
 1600 0098 12E0     		b	.L82
 1601              	.L80:
 498:ui.c          **** 			if(contrast > 0x3F) {
 1602              		.loc 1 498 0
 1603 009a 049B     		ldr	r3, [sp, #16]
 1604 009c 079A     		ldr	r2, [sp, #28]
 1605 009e 9446     		mov	ip, r2
 1606 00a0 6344     		add	r3, r3, ip
 1607 00a2 0793     		str	r3, [sp, #28]
 499:ui.c          **** 				contrast = 0x3F;
 1608              		.loc 1 499 0
 1609 00a4 3F2B     		cmp	r3, #63
 1610 00a6 02DD     		ble	.L83
 500:ui.c          **** 			} else if(contrast < 0) {
 1611              		.loc 1 500 0
 1612 00a8 3F23     		movs	r3, #63
 1613 00aa 0793     		str	r3, [sp, #28]
 1614 00ac 03E0     		b	.L84
 1615              	.L83:
 501:ui.c          **** 				contrast = 0;
 1616              		.loc 1 501 0
 1617 00ae 002B     		cmp	r3, #0
 1618 00b0 01DA     		bge	.L84
 502:ui.c          **** 			}
 1619              		.loc 1 502 0
 1620 00b2 0023     		movs	r3, #0
 1621 00b4 0793     		str	r3, [sp, #28]
 1622              	.L84:
ARM GAS  C:\Users\VIDEOH~1\AppData\Local\Temp\ccM4oHTP.s 			page 48


 504:ui.c          **** 			break;
 1623              		.loc 1 504 0
 1624 00b6 079B     		ldr	r3, [sp, #28]
 1625 00b8 D8B2     		uxtb	r0, r3
 1626 00ba FFF7FEFF 		bl	Display_SetContrast
 1627              	.LVL194:
 505:ui.c          **** 		case UI_EVENT_BUTTONPRESS:
 1628              		.loc 1 505 0
 1629 00be CAE7     		b	.L78
 1630              	.L82:
 507:ui.c          **** 				EEPROM_Write((const int*)&settings-(const int*)&settings->lcd_contrast,(void*)&contrast, sizeof
 1631              		.loc 1 507 0
 1632 00c0 049B     		ldr	r3, [sp, #16]
 1633 00c2 012B     		cmp	r3, #1
 1634 00c4 C7D1     		bne	.L78
 508:ui.c          **** 				return (state_func)STATE_MAIN;
 1635              		.loc 1 508 0
 1636 00c6 0E4B     		ldr	r3, .L86+8
 1637 00c8 1A68     		ldr	r2, [r3]
 1638 00ca 101D     		adds	r0, r2, #4
 1639 00cc 181A     		subs	r0, r3, r0
 1640 00ce 8010     		asrs	r0, r0, #2
 1641 00d0 0C4B     		ldr	r3, .L86+12
 1642 00d2 0422     		movs	r2, #4
 1643 00d4 07A9     		add	r1, sp, #28
 1644 00d6 FFF7FEFF 		bl	Cy_Em_EEPROM_Write
 1645              	.LVL195:
 509:ui.c          **** 			}
 1646              		.loc 1 509 0
 1647 00da 0023     		movs	r3, #0
 1648 00dc 2360     		str	r3, [r4]
 1649 00de 6360     		str	r3, [r4, #4]
 1650 00e0 2372     		strb	r3, [r4, #8]
 1651 00e2 05E0     		b	.L77
 1652              	.L81:
 513:ui.c          **** 		default:
 1653              		.loc 1 513 0
 1654 00e4 084B     		ldr	r3, .L86+16
 1655 00e6 2360     		str	r3, [r4]
 1656 00e8 049B     		ldr	r3, [sp, #16]
 1657 00ea 6360     		str	r3, [r4, #4]
 1658 00ec 0023     		movs	r3, #0
 1659 00ee 2372     		strb	r3, [r4, #8]
 1660              	.L77:
 518:ui.c          **** 
 1661              		.loc 1 518 0
 1662 00f0 2000     		movs	r0, r4
 1663 00f2 09B0     		add	sp, sp, #36
 1664              		@ sp needed
 1665              	.LVL196:
 1666 00f4 30BD     		pop	{r4, r5, pc}
 1667              	.L87:
 1668 00f6 C046     		.align	2
 1669              	.L86:
 1670 00f8 F8000000 		.word	.LC65
 1671 00fc 04010000 		.word	.LC67
 1672 0100 00000000 		.word	settings
ARM GAS  C:\Users\VIDEOH~1\AppData\Local\Temp\ccM4oHTP.s 			page 49


 1673 0104 00000000 		.word	EEPROM_context
 1674 0108 00000000 		.word	overlimit
 1675              		.cfi_endproc
 1676              	.LFE53:
 1677              		.size	set_contrast, .-set_contrast
 1678              		.section	.text.overlimit,"ax",%progbits
 1679              		.align	2
 1680              		.code	16
 1681              		.thumb_func
 1682              		.type	overlimit, %function
 1683              	overlimit:
 1684              	.LFB55:
 583:ui.c          **** 	Display_Clear(0, 0, 8, 160, 0xFF);
 1685              		.loc 1 583 0
 1686              		.cfi_startproc
 1687              		@ args = 0, pretend = 0, frame = 16
 1688              		@ frame_needed = 0, uses_anonymous_args = 0
 1689              	.LVL197:
 1690 0000 70B5     		push	{r4, r5, r6, lr}
 1691              		.cfi_def_cfa_offset 16
 1692              		.cfi_offset 4, -16
 1693              		.cfi_offset 5, -12
 1694              		.cfi_offset 6, -8
 1695              		.cfi_offset 14, -4
 1696 0002 86B0     		sub	sp, sp, #24
 1697              		.cfi_def_cfa_offset 40
 1698 0004 0400     		movs	r4, r0
 1699 0006 0D00     		movs	r5, r1
 584:ui.c          ****     switch((limit_type)arg) {
 1700              		.loc 1 584 0
 1701 0008 FF26     		movs	r6, #255
 1702 000a 0096     		str	r6, [sp]
 1703 000c A023     		movs	r3, #160
 1704 000e 0822     		movs	r2, #8
 1705 0010 0021     		movs	r1, #0
 1706              	.LVL198:
 1707 0012 0020     		movs	r0, #0
 1708              	.LVL199:
 1709 0014 FFF7FEFF 		bl	Display_Clear
 1710              	.LVL200:
 585:ui.c          ****     case LIMIT_TYPE_OVERTEMP:
 1711              		.loc 1 585 0
 1712 0018 3100     		movs	r1, r6
 1713 001a 2940     		ands	r1, r5
 1714 001c 02D0     		beq	.L90
 1715 001e 0129     		cmp	r1, #1
 1716 0020 07D0     		beq	.L91
 1717 0022 0CE0     		b	.L89
 1718              	.L90:
 587:ui.c          ****         break;
 1719              		.loc 1 587 0
 1720 0024 0123     		movs	r3, #1
 1721 0026 1B4A     		ldr	r2, .L95
 1722 0028 0621     		movs	r1, #6
 1723 002a 0220     		movs	r0, #2
 1724 002c FFF7FEFF 		bl	Display_DrawText
 1725              	.LVL201:
ARM GAS  C:\Users\VIDEOH~1\AppData\Local\Temp\ccM4oHTP.s 			page 50


 588:ui.c          ****     case LIMIT_TYPE_UNDERVOLT:
 1726              		.loc 1 588 0
 1727 0030 05E0     		b	.L89
 1728              	.L91:
 590:ui.c          ****         break;
 1729              		.loc 1 590 0
 1730 0032 0123     		movs	r3, #1
 1731 0034 184A     		ldr	r2, .L95+4
 1732 0036 0021     		movs	r1, #0
 1733 0038 0220     		movs	r0, #2
 1734 003a FFF7FEFF 		bl	Display_DrawText
 1735              	.LVL202:
 1736              	.L89:
 593:ui.c          **** 
 1737              		.loc 1 593 0
 1738 003e 0123     		movs	r3, #1
 1739 0040 164A     		ldr	r2, .L95+8
 1740 0042 2021     		movs	r1, #32
 1741 0044 0620     		movs	r0, #6
 1742 0046 FFF7FEFF 		bl	Display_DrawText
 1743              	.LVL203:
 596:ui.c          **** 	while(event.type != UI_EVENT_BUTTONPRESS || event.int_arg != 1) {
 1744              		.loc 1 596 0
 1745 004a 0022     		movs	r2, #0
 1746 004c 02AB     		add	r3, sp, #8
 1747 004e 1A70     		strb	r2, [r3]
 597:ui.c          **** 		next_event(&event);
 1748              		.loc 1 597 0
 1749 0050 0BE0     		b	.L92
 1750              	.L94:
 598:ui.c          **** 		if(get_output_mode() == OUTPUT_MODE_FEEDBACK)
 1751              		.loc 1 598 0
 1752 0052 02A8     		add	r0, sp, #8
 1753 0054 FFF7FEFF 		bl	next_event
 1754              	.LVL204:
 599:ui.c          **** 			return (state_func)STATE_MAIN;
 1755              		.loc 1 599 0
 1756 0058 FFF7FEFF 		bl	get_output_mode
 1757              	.LVL205:
 1758 005c 0228     		cmp	r0, #2
 1759 005e 04D1     		bne	.L92
 600:ui.c          **** 	}
 1760              		.loc 1 600 0
 1761 0060 0023     		movs	r3, #0
 1762 0062 2360     		str	r3, [r4]
 1763 0064 6360     		str	r3, [r4, #4]
 1764 0066 2372     		strb	r3, [r4, #8]
 1765 0068 10E0     		b	.L88
 1766              	.L92:
 597:ui.c          **** 		next_event(&event);
 1767              		.loc 1 597 0
 1768 006a 02AB     		add	r3, sp, #8
 1769 006c 1B78     		ldrb	r3, [r3]
 1770 006e 012B     		cmp	r3, #1
 1771 0070 EFD1     		bne	.L94
 597:ui.c          **** 		next_event(&event);
 1772              		.loc 1 597 0 is_stmt 0 discriminator 1
ARM GAS  C:\Users\VIDEOH~1\AppData\Local\Temp\ccM4oHTP.s 			page 51


 1773 0072 039B     		ldr	r3, [sp, #12]
 1774 0074 012B     		cmp	r3, #1
 1775 0076 ECD1     		bne	.L94
 603:ui.c          **** 	set_output_mode(OUTPUT_MODE_FEEDBACK);
 1776              		.loc 1 603 0 is_stmt 1
 1777 0078 0020     		movs	r0, #0
 1778 007a FFF7FEFF 		bl	set_current
 1779              	.LVL206:
 604:ui.c          **** 	return (state_func)STATE_MAIN;
 1780              		.loc 1 604 0
 1781 007e 0220     		movs	r0, #2
 1782 0080 FFF7FEFF 		bl	set_output_mode
 1783              	.LVL207:
 605:ui.c          **** }
 1784              		.loc 1 605 0
 1785 0084 0023     		movs	r3, #0
 1786 0086 2360     		str	r3, [r4]
 1787 0088 6360     		str	r3, [r4, #4]
 1788 008a 2372     		strb	r3, [r4, #8]
 1789              	.L88:
 606:ui.c          **** 
 1790              		.loc 1 606 0
 1791 008c 2000     		movs	r0, r4
 1792 008e 06B0     		add	sp, sp, #24
 1793              		@ sp needed
 1794              	.LVL208:
 1795              	.LVL209:
 1796 0090 70BD     		pop	{r4, r5, r6, pc}
 1797              	.L96:
 1798 0092 C046     		.align	2
 1799              	.L95:
 1800 0094 0C010000 		.word	.LC72
 1801 0098 1C010000 		.word	.LC74
 1802 009c 2C010000 		.word	.LC76
 1803              		.cfi_endproc
 1804              	.LFE55:
 1805              		.size	overlimit, .-overlimit
 1806              		.section	.text.draw_menu,"ax",%progbits
 1807              		.align	2
 1808              		.code	16
 1809              		.thumb_func
 1810              		.type	draw_menu, %function
 1811              	draw_menu:
 1812              	.LFB39:
 281:ui.c          **** 	int start_row = 0;
 1813              		.loc 1 281 0
 1814              		.cfi_startproc
 1815              		@ args = 0, pretend = 0, frame = 8
 1816              		@ frame_needed = 0, uses_anonymous_args = 0
 1817              	.LVL210:
 1818 0000 F0B5     		push	{r4, r5, r6, r7, lr}
 1819              		.cfi_def_cfa_offset 20
 1820              		.cfi_offset 4, -20
 1821              		.cfi_offset 5, -16
 1822              		.cfi_offset 6, -12
 1823              		.cfi_offset 7, -8
 1824              		.cfi_offset 14, -4
ARM GAS  C:\Users\VIDEOH~1\AppData\Local\Temp\ccM4oHTP.s 			page 52


 1825 0002 5746     		mov	r7, r10
 1826 0004 4E46     		mov	r6, r9
 1827 0006 4546     		mov	r5, r8
 1828 0008 E0B4     		push	{r5, r6, r7}
 1829              		.cfi_def_cfa_offset 32
 1830              		.cfi_offset 8, -32
 1831              		.cfi_offset 9, -28
 1832              		.cfi_offset 10, -24
 1833 000a 84B0     		sub	sp, sp, #16
 1834              		.cfi_def_cfa_offset 48
 1835 000c 0700     		movs	r7, r0
 1836 000e 0C00     		movs	r4, r1
 1837              	.LVL211:
 285:ui.c          **** 		int8 padding = (158 - strlen(menu->title) * 12) / 2;
 1838              		.loc 1 285 0
 1839 0010 0068     		ldr	r0, [r0]
 1840              	.LVL212:
 1841 0012 0028     		cmp	r0, #0
 1842 0014 27D0     		beq	.L107
 1843              	.LBB4:
 286:ui.c          **** 		Display_Clear(0, 2, 2, padding + 1, 0xFF);
 1844              		.loc 1 286 0
 1845 0016 FFF7FEFF 		bl	strlen
 1846              	.LVL213:
 1847 001a 4300     		lsls	r3, r0, #1
 1848 001c 1818     		adds	r0, r3, r0
 1849 001e 8500     		lsls	r5, r0, #2
 1850 0020 9E23     		movs	r3, #158
 1851 0022 5D1B     		subs	r5, r3, r5
 1852 0024 6D08     		lsrs	r5, r5, #1
 1853              	.LVL214:
 287:ui.c          **** 		Display_DrawText(0, padding + 1, menu->title, 1);
 1854              		.loc 1 287 0
 1855 0026 EDB2     		uxtb	r5, r5
 1856 0028 6E1C     		adds	r6, r5, #1
 1857 002a F3B2     		uxtb	r3, r6
 1858 002c FF26     		movs	r6, #255
 1859 002e 0096     		str	r6, [sp]
 1860 0030 0393     		str	r3, [sp, #12]
 1861 0032 0222     		movs	r2, #2
 1862 0034 0221     		movs	r1, #2
 1863 0036 0020     		movs	r0, #0
 1864 0038 FFF7FEFF 		bl	Display_Clear
 1865              	.LVL215:
 288:ui.c          **** 		Display_Clear(0, 160 - padding - 1, 2, 160, 0xFF);
 1866              		.loc 1 288 0
 1867 003c 0123     		movs	r3, #1
 1868 003e 3A68     		ldr	r2, [r7]
 1869 0040 0399     		ldr	r1, [sp, #12]
 1870 0042 0020     		movs	r0, #0
 1871 0044 FFF7FEFF 		bl	Display_DrawText
 1872              	.LVL216:
 289:ui.c          **** 		start_row++;
 1873              		.loc 1 289 0
 1874 0048 6121     		movs	r1, #97
 1875 004a 4942     		rsbs	r1, r1, #0
 1876 004c 491B     		subs	r1, r1, r5
ARM GAS  C:\Users\VIDEOH~1\AppData\Local\Temp\ccM4oHTP.s 			page 53


 1877 004e C9B2     		uxtb	r1, r1
 1878 0050 0096     		str	r6, [sp]
 1879 0052 A023     		movs	r3, #160
 1880 0054 0222     		movs	r2, #2
 1881 0056 0020     		movs	r0, #0
 1882 0058 FFF7FEFF 		bl	Display_Clear
 1883              	.LVL217:
 291:ui.c          **** 	}
 1884              		.loc 1 291 0
 1885 005c 0323     		movs	r3, #3
 1886 005e 9946     		mov	r9, r3
 290:ui.c          **** 		height--;
 1887              		.loc 1 290 0
 1888 0060 023B     		subs	r3, r3, #2
 1889 0062 9A46     		mov	r10, r3
 1890 0064 03E0     		b	.L98
 1891              	.LVL218:
 1892              	.L107:
 1893              	.LBE4:
 283:ui.c          **** 
 1894              		.loc 1 283 0
 1895 0066 0423     		movs	r3, #4
 1896 0068 9946     		mov	r9, r3
 282:ui.c          **** 	int height = 4;
 1897              		.loc 1 282 0
 1898 006a 0023     		movs	r3, #0
 1899 006c 9A46     		mov	r10, r3
 1900              	.LVL219:
 1901              	.L98:
 294:ui.c          **** 
 1902              		.loc 1 294 0
 1903 006e 5346     		mov	r3, r10
 1904 0070 5D00     		lsls	r5, r3, #1
 1905 0072 EDB2     		uxtb	r5, r5
 1906 0074 4946     		mov	r1, r9
 1907 0076 2000     		movs	r0, r4
 1908 0078 FFF7FEFF 		bl	__aeabi_idiv
 1909              	.LVL220:
 1910 007c 0028     		cmp	r0, #0
 1911 007e 01DD     		ble	.L108
 1912 0080 2F4A     		ldr	r2, .L110
 1913 0082 00E0     		b	.L99
 1914              	.L108:
 1915 0084 2F4A     		ldr	r2, .L110+4
 1916              	.L99:
 294:ui.c          **** 
 1917              		.loc 1 294 0 is_stmt 0 discriminator 4
 1918 0086 0023     		movs	r3, #0
 1919 0088 9421     		movs	r1, #148
 1920 008a 2800     		movs	r0, r5
 1921 008c FFF7FEFF 		bl	Display_DrawText
 1922              	.LVL221:
 297:ui.c          **** 	selected %= height;
 1923              		.loc 1 297 0 is_stmt 1 discriminator 4
 1924 0090 4946     		mov	r1, r9
 1925 0092 2000     		movs	r0, r4
 1926 0094 FFF7FEFF 		bl	__aeabi_idivmod
ARM GAS  C:\Users\VIDEOH~1\AppData\Local\Temp\ccM4oHTP.s 			page 54


 1927              	.LVL222:
 1928 0098 8846     		mov	r8, r1
 1929 009a 641A     		subs	r4, r4, r1
 1930              	.LVL223:
 1931 009c 2401     		lsls	r4, r4, #4
 1932 009e 3F19     		adds	r7, r7, r4
 1933              	.LVL224:
 1934 00a0 0437     		adds	r7, r7, #4
 1935              	.LVL225:
 1936              	.LBB5:
 300:ui.c          **** 		if(current->caption != NULL) {
 1937              		.loc 1 300 0 discriminator 4
 1938 00a2 0025     		movs	r5, #0
 1939 00a4 33E0     		b	.L100
 1940              	.LVL226:
 1941              	.L104:
 301:ui.c          **** 			Display_DrawText((i + start_row) * 2, 2, current->caption, i == selected);
 1942              		.loc 1 301 0
 1943 00a6 3A68     		ldr	r2, [r7]
 1944 00a8 002A     		cmp	r2, #0
 1945 00aa 22D0     		beq	.L101
 302:ui.c          **** 			Display_Clear((i + start_row) * 2, strlen(current->caption) * 12 + 1, (i + start_row + 1) * 2, 1
 1946              		.loc 1 302 0
 1947 00ac 5346     		mov	r3, r10
 1948 00ae 5C19     		adds	r4, r3, r5
 1949 00b0 6600     		lsls	r6, r4, #1
 1950 00b2 F6B2     		uxtb	r6, r6
 1951 00b4 4346     		mov	r3, r8
 1952 00b6 EB1A     		subs	r3, r5, r3
 1953 00b8 5842     		rsbs	r0, r3, #0
 1954 00ba 5841     		adcs	r0, r0, r3
 1955 00bc C3B2     		uxtb	r3, r0
 1956 00be 0221     		movs	r1, #2
 1957 00c0 3000     		movs	r0, r6
 1958 00c2 FFF7FEFF 		bl	Display_DrawText
 1959              	.LVL227:
 303:ui.c          **** 			current++;
 1960              		.loc 1 303 0
 1961 00c6 3868     		ldr	r0, [r7]
 1962 00c8 FFF7FEFF 		bl	strlen
 1963              	.LVL228:
 1964 00cc 0C21     		movs	r1, #12
 1965 00ce 4143     		muls	r1, r0
 1966 00d0 0131     		adds	r1, r1, #1
 1967 00d2 C9B2     		uxtb	r1, r1
 1968 00d4 0134     		adds	r4, r4, #1
 1969 00d6 6400     		lsls	r4, r4, #1
 1970 00d8 E2B2     		uxtb	r2, r4
 1971 00da 4545     		cmp	r5, r8
 1972 00dc 01D1     		bne	.L109
 1973 00de FF23     		movs	r3, #255
 1974 00e0 00E0     		b	.L102
 1975              	.L109:
 1976 00e2 0023     		movs	r3, #0
 1977              	.L102:
 303:ui.c          **** 			current++;
 1978              		.loc 1 303 0 is_stmt 0 discriminator 4
ARM GAS  C:\Users\VIDEOH~1\AppData\Local\Temp\ccM4oHTP.s 			page 55


 1979 00e4 0093     		str	r3, [sp]
 1980 00e6 9423     		movs	r3, #148
 1981 00e8 3000     		movs	r0, r6
 1982 00ea FFF7FEFF 		bl	Display_Clear
 1983              	.LVL229:
 304:ui.c          **** 		} else {
 1984              		.loc 1 304 0 is_stmt 1 discriminator 4
 1985 00ee 1037     		adds	r7, r7, #16
 1986              	.LVL230:
 1987 00f0 0CE0     		b	.L103
 1988              	.L101:
 306:ui.c          **** 		}
 1989              		.loc 1 306 0
 1990 00f2 5346     		mov	r3, r10
 1991 00f4 5819     		adds	r0, r3, r5
 1992 00f6 421C     		adds	r2, r0, #1
 1993 00f8 5200     		lsls	r2, r2, #1
 1994 00fa D2B2     		uxtb	r2, r2
 1995 00fc 4000     		lsls	r0, r0, #1
 1996 00fe C0B2     		uxtb	r0, r0
 1997 0100 0023     		movs	r3, #0
 1998 0102 0093     		str	r3, [sp]
 1999 0104 A033     		adds	r3, r3, #160
 2000 0106 0121     		movs	r1, #1
 2001 0108 FFF7FEFF 		bl	Display_Clear
 2002              	.LVL231:
 2003              	.L103:
 300:ui.c          **** 		if(current->caption != NULL) {
 2004              		.loc 1 300 0 discriminator 2
 2005 010c 0135     		adds	r5, r5, #1
 2006              	.LVL232:
 2007              	.L100:
 300:ui.c          **** 		if(current->caption != NULL) {
 2008              		.loc 1 300 0 is_stmt 0 discriminator 1
 2009 010e A945     		cmp	r9, r5
 2010 0110 C9DC     		bgt	.L104
 2011              	.LBE5:
 310:ui.c          **** 		Display_DrawText(6, 148, FONT_GLYPH_DARR, 0);
 2012              		.loc 1 310 0 is_stmt 1
 2013 0112 3B68     		ldr	r3, [r7]
 2014 0114 002B     		cmp	r3, #0
 2015 0116 06D0     		beq	.L105
 311:ui.c          **** 	} else {
 2016              		.loc 1 311 0
 2017 0118 0023     		movs	r3, #0
 2018 011a 0B4A     		ldr	r2, .L110+8
 2019 011c 9421     		movs	r1, #148
 2020 011e 0620     		movs	r0, #6
 2021 0120 FFF7FEFF 		bl	Display_DrawText
 2022              	.LVL233:
 2023 0124 05E0     		b	.L97
 2024              	.L105:
 313:ui.c          **** 	}
 2025              		.loc 1 313 0
 2026 0126 0023     		movs	r3, #0
 2027 0128 064A     		ldr	r2, .L110+4
 2028 012a 9421     		movs	r1, #148
ARM GAS  C:\Users\VIDEOH~1\AppData\Local\Temp\ccM4oHTP.s 			page 56


 2029 012c 0620     		movs	r0, #6
 2030 012e FFF7FEFF 		bl	Display_DrawText
 2031              	.LVL234:
 2032              	.L97:
 315:ui.c          **** 
 2033              		.loc 1 315 0
 2034 0132 04B0     		add	sp, sp, #16
 2035              		@ sp needed
 2036              	.LVL235:
 2037              	.LVL236:
 2038              	.LVL237:
 2039              	.LVL238:
 2040              	.LVL239:
 2041 0134 1CBC     		pop	{r2, r3, r4}
 2042 0136 9046     		mov	r8, r2
 2043 0138 9946     		mov	r9, r3
 2044 013a A246     		mov	r10, r4
 2045 013c F0BD     		pop	{r4, r5, r6, r7, pc}
 2046              	.L111:
 2047 013e C046     		.align	2
 2048              	.L110:
 2049 0140 38010000 		.word	.LC78
 2050 0144 38000000 		.word	.LC14
 2051 0148 3C010000 		.word	.LC81
 2052              		.cfi_endproc
 2053              	.LFE39:
 2054              		.size	draw_menu, .-draw_menu
 2055              		.section	.text.menu,"ax",%progbits
 2056              		.align	2
 2057              		.code	16
 2058              		.thumb_func
 2059              		.type	menu, %function
 2060              	menu:
 2061              	.LFB56:
 608:ui.c          **** 	const menudata *menu = (const menudata *)arg;
 2062              		.loc 1 608 0
 2063              		.cfi_startproc
 2064              		@ args = 0, pretend = 0, frame = 16
 2065              		@ frame_needed = 0, uses_anonymous_args = 0
 2066              	.LVL240:
 2067 0000 70B5     		push	{r4, r5, r6, lr}
 2068              		.cfi_def_cfa_offset 16
 2069              		.cfi_offset 4, -16
 2070              		.cfi_offset 5, -12
 2071              		.cfi_offset 6, -8
 2072              		.cfi_offset 14, -4
 2073 0002 84B0     		sub	sp, sp, #16
 2074              		.cfi_def_cfa_offset 32
 2075 0004 0500     		movs	r5, r0
 2076 0006 0E00     		movs	r6, r1
 2077              	.LVL241:
 611:ui.c          **** 
 2078              		.loc 1 611 0
 2079 0008 FFF7FEFF 		bl	Display_ClearAll
 2080              	.LVL242:
 615:ui.c          **** 	while(event.type != UI_EVENT_BUTTONPRESS || event.int_arg != 1) {
 2081              		.loc 1 615 0
ARM GAS  C:\Users\VIDEOH~1\AppData\Local\Temp\ccM4oHTP.s 			page 57


 2082 000c 0023     		movs	r3, #0
 2083 000e 6A46     		mov	r2, sp
 2084 0010 1370     		strb	r3, [r2]
 613:ui.c          **** 	ui_event event;
 2085              		.loc 1 613 0
 2086 0012 0024     		movs	r4, #0
 616:ui.c          **** 		draw_menu(menu, selected);
 2087              		.loc 1 616 0
 2088 0014 28E0     		b	.L113
 2089              	.LVL243:
 2090              	.L120:
 617:ui.c          **** 		next_event(&event);
 2091              		.loc 1 617 0
 2092 0016 2100     		movs	r1, r4
 2093 0018 3000     		movs	r0, r6
 2094 001a FFF7FEFF 		bl	draw_menu
 2095              	.LVL244:
 618:ui.c          **** 		switch(event.type) {
 2096              		.loc 1 618 0
 2097 001e 6846     		mov	r0, sp
 2098 0020 FFF7FEFF 		bl	next_event
 2099              	.LVL245:
 619:ui.c          **** 		case UI_EVENT_UPDOWN:
 2100              		.loc 1 619 0
 2101 0024 6B46     		mov	r3, sp
 2102 0026 1B78     		ldrb	r3, [r3]
 2103 0028 032B     		cmp	r3, #3
 2104 002a 02D0     		beq	.L115
 2105 002c 052B     		cmp	r3, #5
 2106 002e 14D0     		beq	.L116
 2107 0030 1AE0     		b	.L113
 2108              	.L115:
 621:ui.c          **** 				// Move up the menu
 2109              		.loc 1 621 0
 2110 0032 0198     		ldr	r0, [sp, #4]
 2111 0034 0028     		cmp	r0, #0
 2112 0036 0CDA     		bge	.L121
 623:ui.c          **** 					selected += event.int_arg;
 2113              		.loc 1 623 0
 2114 0038 2418     		adds	r4, r4, r0
 2115 003a 15D5     		bpl	.L113
 2116              	.LVL246:
 626:ui.c          **** 				}
 2117              		.loc 1 626 0
 2118 003c 0024     		movs	r4, #0
 2119 003e 13E0     		b	.L113
 2120              	.LVL247:
 2121              	.L118:
 2122              	.LBB6:
 631:ui.c          **** 						break;
 2123              		.loc 1 631 0
 2124 0040 611C     		adds	r1, r4, #1
 2125 0042 0B01     		lsls	r3, r1, #4
 2126 0044 F318     		adds	r3, r6, r3
 2127 0046 5B68     		ldr	r3, [r3, #4]
 2128 0048 002B     		cmp	r3, #0
 2129 004a 0DD0     		beq	.L113
ARM GAS  C:\Users\VIDEOH~1\AppData\Local\Temp\ccM4oHTP.s 			page 58


 2130              	.LVL248:
 630:ui.c          **** 					if(menu->items[selected + 1].caption == NULL)
 2131              		.loc 1 630 0 discriminator 2
 2132 004c 0132     		adds	r2, r2, #1
 2133              	.LVL249:
 633:ui.c          **** 				}
 2134              		.loc 1 633 0 discriminator 2
 2135 004e 0C00     		movs	r4, r1
 2136 0050 00E0     		b	.L117
 2137              	.LVL250:
 2138              	.L121:
 2139              	.LBE6:
 2140 0052 0022     		movs	r2, #0
 2141              	.L117:
 2142              	.LVL251:
 2143              	.LBB7:
 630:ui.c          **** 					if(menu->items[selected + 1].caption == NULL)
 2144              		.loc 1 630 0 discriminator 1
 2145 0054 8242     		cmp	r2, r0
 2146 0056 F3DB     		blt	.L118
 2147 0058 06E0     		b	.L113
 2148              	.LVL252:
 2149              	.L116:
 2150              	.LBE7:
 638:ui.c          **** 		default:
 2151              		.loc 1 638 0
 2152 005a 0C4B     		ldr	r3, .L122
 2153 005c 2B60     		str	r3, [r5]
 2154 005e 019B     		ldr	r3, [sp, #4]
 2155 0060 6B60     		str	r3, [r5, #4]
 2156 0062 0023     		movs	r3, #0
 2157 0064 2B72     		strb	r3, [r5, #8]
 2158 0066 0DE0     		b	.L112
 2159              	.LVL253:
 2160              	.L113:
 616:ui.c          **** 		draw_menu(menu, selected);
 2161              		.loc 1 616 0
 2162 0068 6B46     		mov	r3, sp
 2163 006a 1B78     		ldrb	r3, [r3]
 2164 006c 012B     		cmp	r3, #1
 2165 006e D2D1     		bne	.L120
 616:ui.c          **** 		draw_menu(menu, selected);
 2166              		.loc 1 616 0 is_stmt 0 discriminator 1
 2167 0070 019B     		ldr	r3, [sp, #4]
 2168 0072 012B     		cmp	r3, #1
 2169 0074 CFD1     		bne	.L120
 644:ui.c          **** }
 2170              		.loc 1 644 0 is_stmt 1
 2171 0076 2301     		lsls	r3, r4, #4
 2172 0078 F418     		adds	r4, r6, r3
 2173              	.LVL254:
 2174 007a 2300     		movs	r3, r4
 2175 007c 0833     		adds	r3, r3, #8
 2176 007e 2A00     		movs	r2, r5
 2177 0080 13CB     		ldmia	r3!, {r0, r1, r4}
 2178 0082 13C2     		stmia	r2!, {r0, r1, r4}
 2179              	.L112:
ARM GAS  C:\Users\VIDEOH~1\AppData\Local\Temp\ccM4oHTP.s 			page 59


 645:ui.c          **** 
 2180              		.loc 1 645 0
 2181 0084 2800     		movs	r0, r5
 2182 0086 04B0     		add	sp, sp, #16
 2183              		@ sp needed
 2184              	.LVL255:
 2185              	.LVL256:
 2186 0088 70BD     		pop	{r4, r5, r6, pc}
 2187              	.L123:
 2188 008a C046     		.align	2
 2189              	.L122:
 2190 008c 00000000 		.word	overlimit
 2191              		.cfi_endproc
 2192              	.LFE56:
 2193              		.size	menu, .-menu
 2194              		.section	.text.display_config,"ax",%progbits
 2195              		.align	2
 2196              		.code	16
 2197              		.thumb_func
 2198              		.type	display_config, %function
 2199              	display_config:
 2200              	.LFB49:
 406:ui.c          **** 	const display_config_t *config = &settings->display_settings.numbered[(int)arg];
 2201              		.loc 1 406 0
 2202              		.cfi_startproc
 2203              		@ args = 0, pretend = 0, frame = 32
 2204              		@ frame_needed = 0, uses_anonymous_args = 0
 2205              	.LVL257:
 2206 0000 F0B5     		push	{r4, r5, r6, r7, lr}
 2207              		.cfi_def_cfa_offset 20
 2208              		.cfi_offset 4, -20
 2209              		.cfi_offset 5, -16
 2210              		.cfi_offset 6, -12
 2211              		.cfi_offset 7, -8
 2212              		.cfi_offset 14, -4
 2213 0002 89B0     		sub	sp, sp, #36
 2214              		.cfi_def_cfa_offset 56
 2215 0004 0500     		movs	r5, r0
 2216 0006 0F00     		movs	r7, r1
 407:ui.c          **** 
 2217              		.loc 1 407 0
 2218 0008 184B     		ldr	r3, .L128
 2219 000a 1E68     		ldr	r6, [r3]
 2220              	.LVL258:
 409:ui.c          **** 	if(display.arg == NULL)
 2221              		.loc 1 409 0
 2222 000c 1849     		ldr	r1, .L128+4
 2223              	.LVL259:
 2224 000e 04A8     		add	r0, sp, #16
 2225              	.LVL260:
 2226 0010 FFF7FEFF 		bl	menu
 2227              	.LVL261:
 410:ui.c          **** 		return display;
 2228              		.loc 1 410 0
 2229 0014 059C     		ldr	r4, [sp, #20]
 2230 0016 002C     		cmp	r4, #0
 2231 0018 04D1     		bne	.L125
ARM GAS  C:\Users\VIDEOH~1\AppData\Local\Temp\ccM4oHTP.s 			page 60


 411:ui.c          **** 
 2232              		.loc 1 411 0
 2233 001a 04AB     		add	r3, sp, #16
 2234 001c 2A00     		movs	r2, r5
 2235 001e 13CB     		ldmia	r3!, {r0, r1, r4}
 2236 0020 13C2     		stmia	r2!, {r0, r1, r4}
 2237 0022 1FE0     		b	.L124
 2238              	.L125:
 413:ui.c          **** 	if(readout.arg == NULL)
 2239              		.loc 1 413 0
 2240 0024 1249     		ldr	r1, .L128+4
 2241 0026 5431     		adds	r1, r1, #84
 2242 0028 01A8     		add	r0, sp, #4
 2243 002a FFF7FEFF 		bl	menu
 2244              	.LVL262:
 414:ui.c          **** 		return readout;
 2245              		.loc 1 414 0
 2246 002e 029A     		ldr	r2, [sp, #8]
 2247 0030 002A     		cmp	r2, #0
 2248 0032 04D1     		bne	.L127
 415:ui.c          **** 
 2249              		.loc 1 415 0
 2250 0034 01AB     		add	r3, sp, #4
 2251 0036 2A00     		movs	r2, r5
 2252 0038 13CB     		ldmia	r3!, {r0, r1, r4}
 2253 003a 13C2     		stmia	r2!, {r0, r1, r4}
 2254 003c 12E0     		b	.L124
 2255              	.L127:
 417:ui.c          **** 
 2256              		.loc 1 417 0
 2257 003e 631E     		subs	r3, r4, #1
 2258 0040 7800     		lsls	r0, r7, #1
 2259 0042 3818     		adds	r0, r7, r0
 2260 0044 C018     		adds	r0, r0, r3
 2261 0046 0830     		adds	r0, r0, #8
 2262 0048 3418     		adds	r4, r6, r0
 2263 004a 0848     		ldr	r0, .L128
 2264 004c 001B     		subs	r0, r0, r4
 2265 004e 1F21     		movs	r1, #31
 2266 0050 6944     		add	r1, r1, sp
 2267 0052 0A70     		strb	r2, [r1]
 2268 0054 074B     		ldr	r3, .L128+8
 2269 0056 0122     		movs	r2, #1
 2270 0058 FFF7FEFF 		bl	Cy_Em_EEPROM_Write
 2271              	.LVL263:
 419:ui.c          **** }
 2272              		.loc 1 419 0
 2273 005c 0023     		movs	r3, #0
 2274 005e 2B60     		str	r3, [r5]
 2275 0060 6B60     		str	r3, [r5, #4]
 2276 0062 2B72     		strb	r3, [r5, #8]
 2277              	.L124:
 420:ui.c          **** 
 2278              		.loc 1 420 0
 2279 0064 2800     		movs	r0, r5
 2280 0066 09B0     		add	sp, sp, #36
 2281              		@ sp needed
ARM GAS  C:\Users\VIDEOH~1\AppData\Local\Temp\ccM4oHTP.s 			page 61


 2282              	.LVL264:
 2283              	.LVL265:
 2284              	.LVL266:
 2285 0068 F0BD     		pop	{r4, r5, r6, r7, pc}
 2286              	.L129:
 2287 006a C046     		.align	2
 2288              	.L128:
 2289 006c 00000000 		.word	settings
 2290 0070 00000000 		.word	.LANCHOR2
 2291 0074 00000000 		.word	EEPROM_context
 2292              		.cfi_endproc
 2293              	.LFE49:
 2294              		.size	display_config, .-display_config
 2295              		.section	.text.ui_set_min_voltage,"ax",%progbits
 2296              		.align	2
 2297              		.code	16
 2298              		.thumb_func
 2299              		.type	ui_set_min_voltage, %function
 2300              	ui_set_min_voltage:
 2301              	.LFB54:
 520:ui.c          ****     Display_ClearAll();
 2302              		.loc 1 520 0
 2303              		.cfi_startproc
 2304              		@ args = 0, pretend = 0, frame = 32
 2305              		@ frame_needed = 0, uses_anonymous_args = 0
 2306              	.LVL267:
 2307 0000 F0B5     		push	{r4, r5, r6, r7, lr}
 2308              		.cfi_def_cfa_offset 20
 2309              		.cfi_offset 4, -20
 2310              		.cfi_offset 5, -16
 2311              		.cfi_offset 6, -12
 2312              		.cfi_offset 7, -8
 2313              		.cfi_offset 14, -4
 2314 0002 8BB0     		sub	sp, sp, #44
 2315              		.cfi_def_cfa_offset 64
 2316 0004 0700     		movs	r7, r0
 521:ui.c          **** 	Display_Clear(0, 2, 2, 160, 0xFF);
 2317              		.loc 1 521 0
 2318 0006 FFF7FEFF 		bl	Display_ClearAll
 2319              	.LVL268:
 522:ui.c          **** 	Display_DrawText(0, 20, "Min Voltage", 1);
 2320              		.loc 1 522 0
 2321 000a FF23     		movs	r3, #255
 2322 000c 0093     		str	r3, [sp]
 2323 000e 5F3B     		subs	r3, r3, #95
 2324 0010 0222     		movs	r2, #2
 2325 0012 0221     		movs	r1, #2
 2326 0014 0020     		movs	r0, #0
 2327 0016 FFF7FEFF 		bl	Display_Clear
 2328              	.LVL269:
 523:ui.c          **** 
 2329              		.loc 1 523 0
 2330 001a 0123     		movs	r3, #1
 2331 001c 4A4A     		ldr	r2, .L145
 2332 001e 1421     		movs	r1, #20
 2333 0020 0020     		movs	r0, #0
 2334 0022 FFF7FEFF 		bl	Display_DrawText
ARM GAS  C:\Users\VIDEOH~1\AppData\Local\Temp\ccM4oHTP.s 			page 62


 2335              	.LVL270:
 526:ui.c          ****     int vlim = on?state.lower_voltage_limit:get_voltage();
 2336              		.loc 1 526 0
 2337 0026 494B     		ldr	r3, .L145+4
 2338 0028 5D68     		ldr	r5, [r3, #4]
 2339 002a 6C1C     		adds	r4, r5, #1
 2340 002c 631E     		subs	r3, r4, #1
 2341 002e 9C41     		sbcs	r4, r4, r3
 2342 0030 E4B2     		uxtb	r4, r4
 2343              	.LVL271:
 527:ui.c          ****     vlim -= vlim % 100000;
 2344              		.loc 1 527 0
 2345 0032 6B1C     		adds	r3, r5, #1
 2346 0034 02D1     		bne	.L131
 527:ui.c          ****     vlim -= vlim % 100000;
 2347              		.loc 1 527 0 is_stmt 0 discriminator 2
 2348 0036 FFF7FEFF 		bl	get_voltage
 2349              	.LVL272:
 2350 003a 0500     		movs	r5, r0
 2351              	.L131:
 2352              	.LVL273:
 528:ui.c          ****     uint8_t stage = 0;
 2353              		.loc 1 528 0 is_stmt 1 discriminator 4
 2354 003c 4449     		ldr	r1, .L145+8
 2355 003e 2800     		movs	r0, r5
 2356 0040 FFF7FEFF 		bl	__aeabi_idivmod
 2357              	.LVL274:
 2358 0044 6B1A     		subs	r3, r5, r1
 2359 0046 0393     		str	r3, [sp, #12]
 2360              	.LVL275:
 529:ui.c          ****     char buf[8];
 2361              		.loc 1 529 0 discriminator 4
 2362 0048 0025     		movs	r5, #0
 532:ui.c          ****         Display_DrawText(4, 30, "ON", on);
 2363              		.loc 1 532 0 discriminator 4
 2364 004a 3FE0     		b	.L132
 2365              	.LVL276:
 2366              	.L138:
 533:ui.c          ****         Display_DrawText(4, 90, "OFF", !on);
 2367              		.loc 1 533 0
 2368 004c 2300     		movs	r3, r4
 2369 004e 414A     		ldr	r2, .L145+12
 2370 0050 1E21     		movs	r1, #30
 2371 0052 0420     		movs	r0, #4
 2372 0054 FFF7FEFF 		bl	Display_DrawText
 2373              	.LVL277:
 534:ui.c          ****         format_number(vlim, "V", buf);
 2374              		.loc 1 534 0
 2375 0058 6342     		rsbs	r3, r4, #0
 2376 005a 6341     		adcs	r3, r3, r4
 2377 005c DBB2     		uxtb	r3, r3
 2378 005e 3E4A     		ldr	r2, .L145+16
 2379 0060 5A21     		movs	r1, #90
 2380 0062 0420     		movs	r0, #4
 2381 0064 FFF7FEFF 		bl	Display_DrawText
 2382              	.LVL278:
 535:ui.c          ****         Display_DrawText(6, 48, buf, 0);
ARM GAS  C:\Users\VIDEOH~1\AppData\Local\Temp\ccM4oHTP.s 			page 63


 2383              		.loc 1 535 0
 2384 0068 04AA     		add	r2, sp, #16
 2385 006a 3C49     		ldr	r1, .L145+20
 2386 006c 0398     		ldr	r0, [sp, #12]
 2387 006e FFF7FEFF 		bl	format_number
 2388              	.LVL279:
 536:ui.c          **** 
 2389              		.loc 1 536 0
 2390 0072 0023     		movs	r3, #0
 2391 0074 04AA     		add	r2, sp, #16
 2392 0076 3021     		movs	r1, #48
 2393 0078 0620     		movs	r0, #6
 2394 007a FFF7FEFF 		bl	Display_DrawText
 2395              	.LVL280:
 538:ui.c          ****         switch(event.type) {
 2396              		.loc 1 538 0
 2397 007e 06AE     		add	r6, sp, #24
 2398 0080 3000     		movs	r0, r6
 2399 0082 FFF7FEFF 		bl	next_event
 2400              	.LVL281:
 539:ui.c          ****         case UI_EVENT_UPDOWN:
 2401              		.loc 1 539 0
 2402 0086 3378     		ldrb	r3, [r6]
 2403 0088 032B     		cmp	r3, #3
 2404 008a 04D0     		beq	.L134
 2405 008c 052B     		cmp	r3, #5
 2406 008e 15D0     		beq	.L135
 2407 0090 012B     		cmp	r3, #1
 2408 0092 1BD1     		bne	.L132
 2409 0094 04E0     		b	.L136
 2410              	.L134:
 541:ui.c          ****             break;
 2411              		.loc 1 541 0
 2412 0096 0123     		movs	r3, #1
 2413 0098 079A     		ldr	r2, [sp, #28]
 2414 009a 1340     		ands	r3, r2
 2415 009c 5C40     		eors	r4, r3
 2416              	.LVL282:
 542:ui.c          ****         case UI_EVENT_BUTTONPRESS:
 2417              		.loc 1 542 0
 2418 009e 15E0     		b	.L132
 2419              	.L136:
 544:ui.c          ****                 break;
 2420              		.loc 1 544 0
 2421 00a0 079B     		ldr	r3, [sp, #28]
 2422 00a2 012B     		cmp	r3, #1
 2423 00a4 12D1     		bne	.L132
 546:ui.c          ****                 stage = 1;
 2424              		.loc 1 546 0
 2425 00a6 002C     		cmp	r4, #0
 2426 00a8 0FD1     		bne	.L144
 549:ui.c          ****                 return (state_func)STATE_MAIN;
 2427              		.loc 1 549 0
 2428 00aa 0122     		movs	r2, #1
 2429 00ac 5242     		rsbs	r2, r2, #0
 2430 00ae 274B     		ldr	r3, .L145+4
 2431 00b0 5A60     		str	r2, [r3, #4]
ARM GAS  C:\Users\VIDEOH~1\AppData\Local\Temp\ccM4oHTP.s 			page 64


 550:ui.c          ****             }
 2432              		.loc 1 550 0
 2433 00b2 0023     		movs	r3, #0
 2434 00b4 3B60     		str	r3, [r7]
 2435 00b6 7B60     		str	r3, [r7, #4]
 2436 00b8 3B72     		strb	r3, [r7, #8]
 2437 00ba 41E0     		b	.L130
 2438              	.L135:
 554:ui.c          ****         default:
 2439              		.loc 1 554 0
 2440 00bc 284B     		ldr	r3, .L145+24
 2441 00be 3B60     		str	r3, [r7]
 2442 00c0 079B     		ldr	r3, [sp, #28]
 2443 00c2 7B60     		str	r3, [r7, #4]
 2444 00c4 0023     		movs	r3, #0
 2445 00c6 3B72     		strb	r3, [r7, #8]
 2446 00c8 3AE0     		b	.L130
 2447              	.L144:
 547:ui.c          ****             } else {
 2448              		.loc 1 547 0
 2449 00ca 0125     		movs	r5, #1
 2450              	.LVL283:
 2451              	.L132:
 532:ui.c          ****         Display_DrawText(4, 30, "ON", on);
 2452              		.loc 1 532 0
 2453 00cc 002D     		cmp	r5, #0
 2454 00ce BDD0     		beq	.L138
 2455              	.LVL284:
 2456              	.L139:
 561:ui.c          ****         buf[strlen(buf) - 1] = '\0';
 2457              		.loc 1 561 0
 2458 00d0 04AC     		add	r4, sp, #16
 2459 00d2 2200     		movs	r2, r4
 2460 00d4 2149     		ldr	r1, .L145+20
 2461 00d6 0398     		ldr	r0, [sp, #12]
 2462 00d8 FFF7FEFF 		bl	format_number
 2463              	.LVL285:
 562:ui.c          ****         Display_DrawText(6, 48, buf, 1);
 2464              		.loc 1 562 0
 2465 00dc 2000     		movs	r0, r4
 2466 00de FFF7FEFF 		bl	strlen
 2467              	.LVL286:
 2468 00e2 0138     		subs	r0, r0, #1
 2469 00e4 0023     		movs	r3, #0
 2470 00e6 2354     		strb	r3, [r4, r0]
 563:ui.c          **** 
 2471              		.loc 1 563 0
 2472 00e8 0133     		adds	r3, r3, #1
 2473 00ea 2200     		movs	r2, r4
 2474 00ec 3021     		movs	r1, #48
 2475 00ee 0620     		movs	r0, #6
 2476 00f0 FFF7FEFF 		bl	Display_DrawText
 2477              	.LVL287:
 565:ui.c          ****         switch(event.type) {
 2478              		.loc 1 565 0
 2479 00f4 06AC     		add	r4, sp, #24
 2480 00f6 2000     		movs	r0, r4
ARM GAS  C:\Users\VIDEOH~1\AppData\Local\Temp\ccM4oHTP.s 			page 65


 2481 00f8 FFF7FEFF 		bl	next_event
 2482              	.LVL288:
 566:ui.c          ****         case UI_EVENT_UPDOWN:
 2483              		.loc 1 566 0
 2484 00fc 2378     		ldrb	r3, [r4]
 2485 00fe 032B     		cmp	r3, #3
 2486 0100 04D0     		beq	.L141
 2487 0102 052B     		cmp	r3, #5
 2488 0104 16D0     		beq	.L142
 2489 0106 012B     		cmp	r3, #1
 2490 0108 E2D1     		bne	.L139
 2491 010a 08E0     		b	.L143
 2492              	.L141:
 568:ui.c          ****             break;
 2493              		.loc 1 568 0
 2494 010c 104B     		ldr	r3, .L145+8
 2495 010e 079A     		ldr	r2, [sp, #28]
 2496 0110 5343     		muls	r3, r2
 2497 0112 039A     		ldr	r2, [sp, #12]
 2498 0114 9446     		mov	ip, r2
 2499 0116 9C44     		add	ip, ip, r3
 2500 0118 6346     		mov	r3, ip
 2501 011a 0393     		str	r3, [sp, #12]
 2502              	.LVL289:
 569:ui.c          ****         case UI_EVENT_BUTTONPRESS:
 2503              		.loc 1 569 0
 2504 011c D8E7     		b	.L139
 2505              	.LVL290:
 2506              	.L143:
 571:ui.c          ****                 break;
 2507              		.loc 1 571 0
 2508 011e 079B     		ldr	r3, [sp, #28]
 2509 0120 012B     		cmp	r3, #1
 2510 0122 D5D1     		bne	.L139
 573:ui.c          ****             return (state_func)STATE_MAIN;
 2511              		.loc 1 573 0
 2512 0124 094B     		ldr	r3, .L145+4
 2513 0126 039A     		ldr	r2, [sp, #12]
 2514 0128 5A60     		str	r2, [r3, #4]
 574:ui.c          ****         case UI_EVENT_LIMIT:
 2515              		.loc 1 574 0
 2516 012a 0023     		movs	r3, #0
 2517 012c 3B60     		str	r3, [r7]
 2518 012e 7B60     		str	r3, [r7, #4]
 2519 0130 3B72     		strb	r3, [r7, #8]
 2520 0132 05E0     		b	.L130
 2521              	.L142:
 576:ui.c          ****         default:
 2522              		.loc 1 576 0
 2523 0134 0A4B     		ldr	r3, .L145+24
 2524 0136 3B60     		str	r3, [r7]
 2525 0138 079B     		ldr	r3, [sp, #28]
 2526 013a 7B60     		str	r3, [r7, #4]
 2527 013c 0023     		movs	r3, #0
 2528 013e 3B72     		strb	r3, [r7, #8]
 2529              	.L130:
 581:ui.c          **** 
ARM GAS  C:\Users\VIDEOH~1\AppData\Local\Temp\ccM4oHTP.s 			page 66


 2530              		.loc 1 581 0
 2531 0140 3800     		movs	r0, r7
 2532 0142 0BB0     		add	sp, sp, #44
 2533              		@ sp needed
 2534              	.LVL291:
 2535              	.LVL292:
 2536 0144 F0BD     		pop	{r4, r5, r6, r7, pc}
 2537              	.L146:
 2538 0146 C046     		.align	2
 2539              	.L145:
 2540 0148 40010000 		.word	.LC87
 2541 014c 00000000 		.word	state
 2542 0150 A0860100 		.word	100000
 2543 0154 4C010000 		.word	.LC90
 2544 0158 50010000 		.word	.LC92
 2545 015c 3C000000 		.word	.LC16
 2546 0160 00000000 		.word	overlimit
 2547              		.cfi_endproc
 2548              	.LFE54:
 2549              		.size	ui_set_min_voltage, .-ui_set_min_voltage
 2550              		.section	.text.adjust_current_setpoint,"ax",%progbits
 2551              		.align	2
 2552              		.code	16
 2553              		.thumb_func
 2554              		.type	adjust_current_setpoint, %function
 2555              	adjust_current_setpoint:
 2556              	.LFB37:
 239:ui.c          ****     // Implement encoder acceleration
 2557              		.loc 1 239 0
 2558              		.cfi_startproc
 2559              		@ args = 0, pretend = 0, frame = 0
 2560              		@ frame_needed = 0, uses_anonymous_args = 0
 2561              	.LVL293:
 2562 0000 70B5     		push	{r4, r5, r6, lr}
 2563              		.cfi_def_cfa_offset 16
 2564              		.cfi_offset 4, -16
 2565              		.cfi_offset 5, -12
 2566              		.cfi_offset 6, -8
 2567              		.cfi_offset 14, -4
 2568 0002 0400     		movs	r4, r0
 241:ui.c          ****     if(step < 1)
 2569              		.loc 1 241 0
 2570 0004 2820     		movs	r0, #40
 2571              	.LVL294:
 2572 0006 FFF7FEFF 		bl	__aeabi_uidiv
 2573              	.LVL295:
 242:ui.c          ****         step = 1;
 2574              		.loc 1 242 0
 2575 000a 0028     		cmp	r0, #0
 2576 000c 00DC     		bgt	.L148
 243:ui.c          **** 	set_current(state.current_setpoint + delta * step * CURRENT_STEP);
 2577              		.loc 1 243 0
 2578 000e 0120     		movs	r0, #1
 2579              	.LVL296:
 2580              	.L148:
 244:ui.c          ****     uart_printf("set %d\r\n", state.current_setpoint / 1000);
 2581              		.loc 1 244 0
ARM GAS  C:\Users\VIDEOH~1\AppData\Local\Temp\ccM4oHTP.s 			page 67


 2582 0010 094D     		ldr	r5, .L150
 2583 0012 6043     		muls	r0, r4
 2584              	.LVL297:
 2585 0014 094B     		ldr	r3, .L150+4
 2586 0016 5843     		muls	r0, r3
 2587 0018 2B68     		ldr	r3, [r5]
 2588 001a 9C46     		mov	ip, r3
 2589 001c 6044     		add	r0, r0, ip
 2590 001e FFF7FEFF 		bl	set_current
 2591              	.LVL298:
 245:ui.c          **** }
 2592              		.loc 1 245 0
 2593 0022 2868     		ldr	r0, [r5]
 2594 0024 FA21     		movs	r1, #250
 2595 0026 8900     		lsls	r1, r1, #2
 2596 0028 FFF7FEFF 		bl	__aeabi_idiv
 2597              	.LVL299:
 2598 002c 0100     		movs	r1, r0
 2599 002e 0448     		ldr	r0, .L150+8
 2600 0030 FFF7FEFF 		bl	uart_printf
 2601              	.LVL300:
 246:ui.c          **** 
 2602              		.loc 1 246 0
 2603              		@ sp needed
 2604              	.LVL301:
 2605 0034 70BD     		pop	{r4, r5, r6, pc}
 2606              	.L151:
 2607 0036 C046     		.align	2
 2608              	.L150:
 2609 0038 00000000 		.word	state
 2610 003c 10270000 		.word	10000
 2611 0040 54010000 		.word	.LC97
 2612              		.cfi_endproc
 2613              	.LFE37:
 2614              		.size	adjust_current_setpoint, .-adjust_current_setpoint
 2615              		.section	.text.draw_status,"ax",%progbits
 2616              		.align	2
 2617              		.code	16
 2618              		.thumb_func
 2619              		.type	draw_status, %function
 2620              	draw_status:
 2621              	.LFB48:
 366:ui.c          **** 	char buf[8];
 2622              		.loc 1 366 0
 2623              		.cfi_startproc
 2624              		@ args = 0, pretend = 0, frame = 8
 2625              		@ frame_needed = 0, uses_anonymous_args = 0
 2626              	.LVL302:
 2627 0000 F0B5     		push	{r4, r5, r6, r7, lr}
 2628              		.cfi_def_cfa_offset 20
 2629              		.cfi_offset 4, -20
 2630              		.cfi_offset 5, -16
 2631              		.cfi_offset 6, -12
 2632              		.cfi_offset 7, -8
 2633              		.cfi_offset 14, -4
 2634 0002 85B0     		sub	sp, sp, #20
 2635              		.cfi_def_cfa_offset 40
ARM GAS  C:\Users\VIDEOH~1\AppData\Local\Temp\ccM4oHTP.s 			page 68


 2636 0004 0500     		movs	r5, r0
 370:ui.c          **** 	if(readout->func != print_nothing) {
 2637              		.loc 1 370 0
 2638 0006 0029     		cmp	r1, #0
 2639 0008 01D1     		bne	.L162
 370:ui.c          **** 	if(readout->func != print_nothing) {
 2640              		.loc 1 370 0 is_stmt 0 discriminator 1
 2641 000a 0478     		ldrb	r4, [r0]
 2642 000c 00E0     		b	.L153
 2643              	.L162:
 370:ui.c          **** 	if(readout->func != print_nothing) {
 2644              		.loc 1 370 0
 2645 000e 0124     		movs	r4, #1
 2646              	.L153:
 2647              	.LVL303:
 371:ui.c          **** 		readout->func(buf);
 2648              		.loc 1 371 0 is_stmt 1 discriminator 4
 2649 0010 E300     		lsls	r3, r4, #3
 2650 0012 444A     		ldr	r2, .L163
 2651 0014 D318     		adds	r3, r2, r3
 2652 0016 9B6F     		ldr	r3, [r3, #120]
 2653 0018 434A     		ldr	r2, .L163+4
 2654 001a 9342     		cmp	r3, r2
 2655 001c 1ED0     		beq	.L154
 372:ui.c          **** 		strcat(buf, " ");
 2656              		.loc 1 372 0
 2657 001e 02A8     		add	r0, sp, #8
 2658              	.LVL304:
 2659 0020 9847     		blx	r3
 2660              	.LVL305:
 373:ui.c          **** 		Display_DrawBigNumbers(0, 0, buf);
 2661              		.loc 1 373 0
 2662 0022 02A8     		add	r0, sp, #8
 2663 0024 FFF7FEFF 		bl	strlen
 2664              	.LVL306:
 2665 0028 02AB     		add	r3, sp, #8
 2666 002a 9C46     		mov	ip, r3
 2667 002c 6044     		add	r0, r0, ip
 2668 002e 0222     		movs	r2, #2
 2669 0030 3E49     		ldr	r1, .L163+8
 2670 0032 FFF7FEFF 		bl	memcpy
 2671              	.LVL307:
 374:ui.c          **** 		if(strchr(buf, '.') == NULL)
 2672              		.loc 1 374 0
 2673 0036 02AA     		add	r2, sp, #8
 2674 0038 0021     		movs	r1, #0
 2675 003a 0020     		movs	r0, #0
 2676 003c FFF7FEFF 		bl	Display_DrawBigNumbers
 2677              	.LVL308:
 375:ui.c          **** 			// Clear any detritus left over from longer strings
 2678              		.loc 1 375 0
 2679 0040 2E21     		movs	r1, #46
 2680 0042 02A8     		add	r0, sp, #8
 2681 0044 FFF7FEFF 		bl	strchr
 2682              	.LVL309:
 2683 0048 0028     		cmp	r0, #0
 2684 004a 16D1     		bne	.L155
ARM GAS  C:\Users\VIDEOH~1\AppData\Local\Temp\ccM4oHTP.s 			page 69


 377:ui.c          **** 	} else {
 2685              		.loc 1 377 0
 2686 004c 0023     		movs	r3, #0
 2687 004e 0093     		str	r3, [sp]
 2688 0050 7833     		adds	r3, r3, #120
 2689 0052 0422     		movs	r2, #4
 2690 0054 6C21     		movs	r1, #108
 2691 0056 FFF7FEFF 		bl	Display_Clear
 2692              	.LVL310:
 2693 005a 0EE0     		b	.L155
 2694              	.LVL311:
 2695              	.L154:
 379:ui.c          **** 		Display_Clear(4, 120, 6, 160, 0);
 2696              		.loc 1 379 0
 2697 005c 0026     		movs	r6, #0
 2698 005e 0096     		str	r6, [sp]
 2699 0060 7823     		movs	r3, #120
 2700 0062 0622     		movs	r2, #6
 2701 0064 0021     		movs	r1, #0
 2702              	.LVL312:
 2703 0066 0020     		movs	r0, #0
 2704              	.LVL313:
 2705 0068 FFF7FEFF 		bl	Display_Clear
 2706              	.LVL314:
 380:ui.c          **** 	}
 2707              		.loc 1 380 0
 2708 006c 0096     		str	r6, [sp]
 2709 006e A023     		movs	r3, #160
 2710 0070 0622     		movs	r2, #6
 2711 0072 7821     		movs	r1, #120
 2712 0074 0420     		movs	r0, #4
 2713 0076 FFF7FEFF 		bl	Display_Clear
 2714              	.LVL315:
 2715              	.L155:
 384:ui.c          **** 	Display_DrawText(0, 160 - labelsize, readout->label, 1);
 2716              		.loc 1 384 0
 2717 007a E400     		lsls	r4, r4, #3
 2718              	.LVL316:
 2719 007c 294B     		ldr	r3, .L163
 2720 007e 1C19     		adds	r4, r3, r4
 2721 0080 E66F     		ldr	r6, [r4, #124]
 2722 0082 3000     		movs	r0, r6
 2723 0084 FFF7FEFF 		bl	strlen
 2724              	.LVL317:
 2725 0088 0C24     		movs	r4, #12
 2726 008a 6043     		muls	r0, r4
 2727 008c C4B2     		uxtb	r4, r0
 2728              	.LVL318:
 385:ui.c          **** 	if(labelsize < 36)
 2729              		.loc 1 385 0
 2730 008e 6027     		movs	r7, #96
 2731 0090 7F42     		rsbs	r7, r7, #0
 2732 0092 3F1B     		subs	r7, r7, r4
 2733 0094 FFB2     		uxtb	r7, r7
 2734 0096 0123     		movs	r3, #1
 2735 0098 3200     		movs	r2, r6
 2736 009a 3900     		movs	r1, r7
ARM GAS  C:\Users\VIDEOH~1\AppData\Local\Temp\ccM4oHTP.s 			page 70


 2737 009c 0020     		movs	r0, #0
 2738 009e FFF7FEFF 		bl	Display_DrawText
 2739              	.LVL319:
 386:ui.c          **** 		Display_Clear(0, 124, 2, 160 - labelsize, 0);
 2740              		.loc 1 386 0
 2741 00a2 232C     		cmp	r4, #35
 2742 00a4 07D8     		bhi	.L156
 387:ui.c          **** 
 2743              		.loc 1 387 0
 2744 00a6 0023     		movs	r3, #0
 2745 00a8 0093     		str	r3, [sp]
 2746 00aa 3B00     		movs	r3, r7
 2747 00ac 0222     		movs	r2, #2
 2748 00ae 7C21     		movs	r1, #124
 2749 00b0 0020     		movs	r0, #0
 2750 00b2 FFF7FEFF 		bl	Display_Clear
 2751              	.LVL320:
 2752              	.L156:
 390:ui.c          ****     	Display_DrawText(2, 160 - 36, "OFF", 1);
 2753              		.loc 1 390 0
 2754 00b6 FFF7FEFF 		bl	get_output_mode
 2755              	.LVL321:
 2756 00ba 0028     		cmp	r0, #0
 2757 00bc 07D1     		bne	.L157
 391:ui.c          ****     } else {
 2758              		.loc 1 391 0
 2759 00be 0123     		movs	r3, #1
 2760 00c0 1B4A     		ldr	r2, .L163+12
 2761 00c2 7C21     		movs	r1, #124
 2762 00c4 0230     		adds	r0, r0, #2
 2763 00c6 FFF7FEFF 		bl	Display_DrawText
 2764              	.LVL322:
 2765              	.L159:
 370:ui.c          **** 	if(readout->func != print_nothing) {
 2766              		.loc 1 370 0 discriminator 1
 2767 00ca 0026     		movs	r6, #0
 2768 00cc 25E0     		b	.L158
 2769              	.L157:
 393:ui.c          ****     }
 2770              		.loc 1 393 0
 2771 00ce 0023     		movs	r3, #0
 2772 00d0 0093     		str	r3, [sp]
 2773 00d2 A033     		adds	r3, r3, #160
 2774 00d4 0422     		movs	r2, #4
 2775 00d6 7C21     		movs	r1, #124
 2776 00d8 0220     		movs	r0, #2
 2777 00da FFF7FEFF 		bl	Display_Clear
 2778              	.LVL323:
 2779 00de F4E7     		b	.L159
 2780              	.LVL324:
 2781              	.L161:
 2782              	.LBB8:
 398:ui.c          **** 		readout->func(buf);
 2783              		.loc 1 398 0
 2784 00e0 741C     		adds	r4, r6, #1
 2785 00e2 2B5D     		ldrb	r3, [r5, r4]
 2786              	.LVL325:
ARM GAS  C:\Users\VIDEOH~1\AppData\Local\Temp\ccM4oHTP.s 			page 71


 399:ui.c          **** 		if(strlen(buf) == 5)
 2787              		.loc 1 399 0
 2788 00e4 DB00     		lsls	r3, r3, #3
 2789              	.LVL326:
 2790 00e6 0F4A     		ldr	r2, .L163
 2791 00e8 D318     		adds	r3, r2, r3
 2792 00ea 9B6F     		ldr	r3, [r3, #120]
 2793 00ec 02A8     		add	r0, sp, #8
 2794 00ee 9847     		blx	r3
 2795              	.LVL327:
 400:ui.c          **** 			strcat(buf, " ");
 2796              		.loc 1 400 0
 2797 00f0 02A8     		add	r0, sp, #8
 2798 00f2 FFF7FEFF 		bl	strlen
 2799              	.LVL328:
 2800 00f6 0528     		cmp	r0, #5
 2801 00f8 06D1     		bne	.L160
 401:ui.c          **** 		Display_DrawText(6, 88 * i, buf, 0);
 2802              		.loc 1 401 0
 2803 00fa 02AB     		add	r3, sp, #8
 2804 00fc 9C46     		mov	ip, r3
 2805 00fe 6044     		add	r0, r0, ip
 2806 0100 0222     		movs	r2, #2
 2807 0102 0A49     		ldr	r1, .L163+8
 2808 0104 FFF7FEFF 		bl	memcpy
 2809              	.LVL329:
 2810              	.L160:
 402:ui.c          **** 	}
 2811              		.loc 1 402 0 discriminator 2
 2812 0108 5821     		movs	r1, #88
 2813 010a 7143     		muls	r1, r6
 2814 010c C9B2     		uxtb	r1, r1
 2815 010e 0023     		movs	r3, #0
 2816 0110 02AA     		add	r2, sp, #8
 2817 0112 0620     		movs	r0, #6
 2818 0114 FFF7FEFF 		bl	Display_DrawText
 2819              	.LVL330:
 397:ui.c          **** 		readout = &readout_functions[config->readouts[i + 1]];
 2820              		.loc 1 397 0 discriminator 2
 2821 0118 2600     		movs	r6, r4
 2822              	.LVL331:
 2823              	.L158:
 397:ui.c          **** 		readout = &readout_functions[config->readouts[i + 1]];
 2824              		.loc 1 397 0 is_stmt 0 discriminator 1
 2825 011a 012E     		cmp	r6, #1
 2826 011c E0DD     		ble	.L161
 2827              	.LBE8:
 404:ui.c          **** 
 2828              		.loc 1 404 0 is_stmt 1
 2829 011e 05B0     		add	sp, sp, #20
 2830              		@ sp needed
 2831              	.LVL332:
 2832              	.LVL333:
 2833 0120 F0BD     		pop	{r4, r5, r6, r7, pc}
 2834              	.L164:
 2835 0122 C046     		.align	2
 2836              	.L163:
ARM GAS  C:\Users\VIDEOH~1\AppData\Local\Temp\ccM4oHTP.s 			page 72


 2837 0124 80000000 		.word	.LANCHOR3
 2838 0128 00000000 		.word	print_nothing
 2839 012c 38000000 		.word	.LC14
 2840 0130 50010000 		.word	.LC92
 2841              		.cfi_endproc
 2842              	.LFE48:
 2843              		.size	draw_status, .-draw_status
 2844              		.section	.text.cc_load,"ax",%progbits
 2845              		.align	2
 2846              		.code	16
 2847              		.thumb_func
 2848              		.type	cc_load, %function
 2849              	cc_load:
 2850              	.LFB57:
 648:ui.c          **** 	static portTickType last_adjust_current_setpoint = 0;
 2851              		.loc 1 648 0
 2852              		.cfi_startproc
 2853              		@ args = 0, pretend = 0, frame = 16
 2854              		@ frame_needed = 0, uses_anonymous_args = 0
 2855              	.LVL334:
 2856 0000 30B5     		push	{r4, r5, lr}
 2857              		.cfi_def_cfa_offset 12
 2858              		.cfi_offset 4, -12
 2859              		.cfi_offset 5, -8
 2860              		.cfi_offset 14, -4
 2861 0002 85B0     		sub	sp, sp, #20
 2862              		.cfi_def_cfa_offset 32
 2863 0004 0500     		movs	r5, r0
 651:ui.c          **** 
 2864              		.loc 1 651 0
 2865 0006 FFF7FEFF 		bl	Display_ClearAll
 2866              	.LVL335:
 2867              	.L174:
 655:ui.c          **** 		switch(event.type) {
 2868              		.loc 1 655 0
 2869 000a 6846     		mov	r0, sp
 2870 000c FFF7FEFF 		bl	next_event
 2871              	.LVL336:
 656:ui.c          **** 		case UI_EVENT_BUTTONPRESS:
 2872              		.loc 1 656 0
 2873 0010 6B46     		mov	r3, sp
 2874 0012 1B78     		ldrb	r3, [r3]
 2875 0014 022B     		cmp	r3, #2
 2876 0016 11D0     		beq	.L167
 2877 0018 02D8     		bhi	.L168
 2878 001a 012B     		cmp	r3, #1
 2879 001c 05D0     		beq	.L169
 2880 001e 29E0     		b	.L166
 2881              	.L168:
 2882 0020 032B     		cmp	r3, #3
 2883 0022 17D0     		beq	.L170
 2884 0024 052B     		cmp	r3, #5
 2885 0026 1ED0     		beq	.L171
 2886 0028 24E0     		b	.L166
 2887              	.L169:
 658:ui.c          **** 				return (state_func)STATE_MAIN_MENU;
 2888              		.loc 1 658 0
ARM GAS  C:\Users\VIDEOH~1\AppData\Local\Temp\ccM4oHTP.s 			page 73


 2889 002a 019B     		ldr	r3, [sp, #4]
 2890 002c 012B     		cmp	r3, #1
 2891 002e 21D1     		bne	.L166
 659:ui.c          ****             break;
 2892              		.loc 1 659 0
 2893 0030 1A4B     		ldr	r3, .L175
 2894 0032 3833     		adds	r3, r3, #56
 2895 0034 2A00     		movs	r2, r5
 2896 0036 13CB     		ldmia	r3!, {r0, r1, r4}
 2897 0038 13C2     		stmia	r2!, {r0, r1, r4}
 2898 003a 2CE0     		b	.L165
 2899              	.L167:
 662:ui.c          ****                 set_output_mode(OUTPUT_MODE_FEEDBACK);
 2900              		.loc 1 662 0
 2901 003c FFF7FEFF 		bl	get_output_mode
 2902              	.LVL337:
 2903 0040 0228     		cmp	r0, #2
 2904 0042 03D0     		beq	.L173
 663:ui.c          ****             } else {
 2905              		.loc 1 663 0
 2906 0044 0220     		movs	r0, #2
 2907 0046 FFF7FEFF 		bl	set_output_mode
 2908              	.LVL338:
 2909 004a 13E0     		b	.L166
 2910              	.L173:
 665:ui.c          ****             }
 2911              		.loc 1 665 0
 2912 004c 0020     		movs	r0, #0
 2913 004e FFF7FEFF 		bl	set_output_mode
 2914              	.LVL339:
 2915 0052 0FE0     		b	.L166
 2916              	.L170:
 669:ui.c          **** 			adjust_current_setpoint(event.int_arg, event.duration);
 2917              		.loc 1 669 0
 2918 0054 FFF7FEFF 		bl	xTaskGetTickCount
 2919              	.LVL340:
 2920 0058 114B     		ldr	r3, .L175+4
 2921 005a 9860     		str	r0, [r3, #8]
 670:ui.c          **** 			break;
 2922              		.loc 1 670 0
 2923 005c 0299     		ldr	r1, [sp, #8]
 2924 005e 0198     		ldr	r0, [sp, #4]
 2925 0060 FFF7FEFF 		bl	adjust_current_setpoint
 2926              	.LVL341:
 671:ui.c          **** 		case UI_EVENT_LIMIT:
 2927              		.loc 1 671 0
 2928 0064 06E0     		b	.L166
 2929              	.L171:
 673:ui.c          **** 		default:
 2930              		.loc 1 673 0
 2931 0066 0F4B     		ldr	r3, .L175+8
 2932 0068 2B60     		str	r3, [r5]
 2933 006a 019B     		ldr	r3, [sp, #4]
 2934 006c 6B60     		str	r3, [r5, #4]
 2935 006e 0023     		movs	r3, #0
 2936 0070 2B72     		strb	r3, [r5, #8]
 2937 0072 10E0     		b	.L165
ARM GAS  C:\Users\VIDEOH~1\AppData\Local\Temp\ccM4oHTP.s 			page 74


 2938              	.L166:
 677:ui.c          **** 		//CyDelay(200);
 2939              		.loc 1 677 0
 2940 0074 0C4B     		ldr	r3, .L175+12
 2941 0076 1C68     		ldr	r4, [r3]
 2942 0078 FFF7FEFF 		bl	xTaskGetTickCount
 2943              	.LVL342:
 2944 007c 084B     		ldr	r3, .L175+4
 2945 007e 9B68     		ldr	r3, [r3, #8]
 2946 0080 C01A     		subs	r0, r0, r3
 2947 0082 0021     		movs	r1, #0
 2948 0084 6323     		movs	r3, #99
 2949 0086 8342     		cmp	r3, r0
 2950 0088 4941     		adcs	r1, r1, r1
 2951 008a C9B2     		uxtb	r1, r1
 2952 008c 2000     		movs	r0, r4
 2953 008e 0830     		adds	r0, r0, #8
 2954 0090 FFF7FEFF 		bl	draw_status
 2955              	.LVL343:
 679:ui.c          **** }
 2956              		.loc 1 679 0
 2957 0094 B9E7     		b	.L174
 2958              	.L165:
 680:ui.c          **** 
 2959              		.loc 1 680 0
 2960 0096 2800     		movs	r0, r5
 2961 0098 05B0     		add	sp, sp, #20
 2962              		@ sp needed
 2963              	.LVL344:
 2964 009a 30BD     		pop	{r4, r5, pc}
 2965              	.L176:
 2966              		.align	2
 2967              	.L175:
 2968 009c 00010000 		.word	.LANCHOR4
 2969 00a0 00000000 		.word	.LANCHOR1
 2970 00a4 00000000 		.word	overlimit
 2971 00a8 00000000 		.word	settings
 2972              		.cfi_endproc
 2973              	.LFE57:
 2974              		.size	cc_load, .-cc_load
 2975              		.section	.text.quadrature_event_isr,"ax",%progbits
 2976              		.align	2
 2977              		.global	quadrature_event_isr
 2978              		.code	16
 2979              		.thumb_func
 2980              		.type	quadrature_event_isr, %function
 2981              	quadrature_event_isr:
 2982              	.LFB34:
 169:ui.c          **** 	static ui_event event = {.type = UI_EVENT_UPDOWN, .when = 0, .int_arg = 0};
 2983              		.loc 1 169 0
 2984              		.cfi_startproc
 2985              		@ args = 0, pretend = 0, frame = 0
 2986              		@ frame_needed = 0, uses_anonymous_args = 0
 2987 0000 70B5     		push	{r4, r5, r6, lr}
 2988              		.cfi_def_cfa_offset 16
 2989              		.cfi_offset 4, -16
 2990              		.cfi_offset 5, -12
ARM GAS  C:\Users\VIDEOH~1\AppData\Local\Temp\ccM4oHTP.s 			page 75


 2991              		.cfi_offset 6, -8
 2992              		.cfi_offset 14, -4
 175:ui.c          **** 	Quadrature_ClearInterrupt();
 2993              		.loc 1 175 0
 2994 0002 FFF7FEFF 		bl	Quadrature_Read
 2995              	.LVL345:
 2996 0006 0400     		movs	r4, r0
 2997              	.LVL346:
 176:ui.c          **** 
 2998              		.loc 1 176 0
 2999 0008 FFF7FEFF 		bl	Quadrature_ClearInterrupt
 3000              	.LVL347:
 178:ui.c          **** 		count += 1;
 3001              		.loc 1 178 0
 3002 000c 254B     		ldr	r3, .L182
 3003 000e 0422     		movs	r2, #4
 3004 0010 9A56     		ldrsb	r2, [r3, r2]
 3005 0012 254B     		ldr	r3, .L182+4
 3006 0014 9B18     		adds	r3, r3, r2
 3007 0016 4421     		movs	r1, #68
 3008 0018 5B56     		ldrsb	r3, [r3, r1]
 3009 001a 9C42     		cmp	r4, r3
 3010 001c 06D1     		bne	.L178
 179:ui.c          **** 		last_levels = levels;
 3011              		.loc 1 179 0
 3012 001e 234A     		ldr	r2, .L182+8
 3013 0020 137B     		ldrb	r3, [r2, #12]
 3014 0022 0133     		adds	r3, r3, #1
 3015 0024 1373     		strb	r3, [r2, #12]
 180:ui.c          **** 	} else if(quadrature_states[levels] == last_levels) {
 3016              		.loc 1 180 0
 3017 0026 1F4B     		ldr	r3, .L182
 3018 0028 1C71     		strb	r4, [r3, #4]
 3019 002a 0BE0     		b	.L179
 3020              	.L178:
 181:ui.c          **** 		count -= 1;
 3021              		.loc 1 181 0
 3022 002c 1E4B     		ldr	r3, .L182+4
 3023 002e 1B19     		adds	r3, r3, r4
 3024 0030 4421     		movs	r1, #68
 3025 0032 5B56     		ldrsb	r3, [r3, r1]
 3026 0034 9A42     		cmp	r2, r3
 3027 0036 05D1     		bne	.L179
 182:ui.c          **** 		last_levels = levels;
 3028              		.loc 1 182 0
 3029 0038 1C4A     		ldr	r2, .L182+8
 3030 003a 137B     		ldrb	r3, [r2, #12]
 3031 003c 013B     		subs	r3, r3, #1
 3032 003e 1373     		strb	r3, [r2, #12]
 183:ui.c          **** 	}
 3033              		.loc 1 183 0
 3034 0040 184B     		ldr	r3, .L182
 3035 0042 1C71     		strb	r4, [r3, #4]
 3036              	.L179:
 186:ui.c          ****         before = event.when;
 3037              		.loc 1 186 0
 3038 0044 194B     		ldr	r3, .L182+8
ARM GAS  C:\Users\VIDEOH~1\AppData\Local\Temp\ccM4oHTP.s 			page 76


 3039 0046 1B7B     		ldrb	r3, [r3, #12]
 3040 0048 5BB2     		sxtb	r3, r3
 3041 004a DA17     		asrs	r2, r3, #31
 3042 004c 9B18     		adds	r3, r3, r2
 3043 004e 5340     		eors	r3, r2
 3044 0050 032B     		cmp	r3, #3
 3045 0052 26DD     		ble	.L177
 187:ui.c          ****         event.when = xTaskGetTickCountFromISR();
 3046              		.loc 1 187 0
 3047 0054 134C     		ldr	r4, .L182
 3048              	.LVL348:
 3049 0056 154D     		ldr	r5, .L182+8
 3050 0058 6369     		ldr	r3, [r4, #20]
 3051 005a 2B61     		str	r3, [r5, #16]
 188:ui.c          **** 
 3052              		.loc 1 188 0
 3053 005c FFF7FEFF 		bl	xTaskGetTickCountFromISR
 3054              	.LVL349:
 3055 0060 6061     		str	r0, [r4, #20]
 191:ui.c          ****         if(event.duration < 1)
 3056              		.loc 1 191 0
 3057 0062 2B69     		ldr	r3, [r5, #16]
 3058 0064 C01A     		subs	r0, r0, r3
 3059 0066 2061     		str	r0, [r4, #16]
 192:ui.c          ****             event.duration = 1;
 3060              		.loc 1 192 0
 3061 0068 02D1     		bne	.L181
 193:ui.c          **** 
 3062              		.loc 1 193 0
 3063 006a 0122     		movs	r2, #1
 3064 006c 0D4B     		ldr	r3, .L182
 3065 006e 1A61     		str	r2, [r3, #16]
 3066              	.L181:
 195:ui.c          **** 		xQueueSendToBackFromISR(ui_queue, &event, NULL);
 3067              		.loc 1 195 0
 3068 0070 0E4C     		ldr	r4, .L182+8
 3069 0072 0C23     		movs	r3, #12
 3070 0074 E356     		ldrsb	r3, [r4, r3]
 3071 0076 DA17     		asrs	r2, r3, #31
 3072 0078 0325     		movs	r5, #3
 3073 007a 2A40     		ands	r2, r5
 3074 007c D318     		adds	r3, r2, r3
 3075 007e 9B10     		asrs	r3, r3, #2
 3076 0080 0849     		ldr	r1, .L182
 3077 0082 CB60     		str	r3, [r1, #12]
 196:ui.c          **** 		count = count % 4;
 3078              		.loc 1 196 0
 3079 0084 0831     		adds	r1, r1, #8
 3080 0086 0A4B     		ldr	r3, .L182+12
 3081 0088 1868     		ldr	r0, [r3]
 3082 008a 0023     		movs	r3, #0
 3083 008c 0022     		movs	r2, #0
 3084 008e FFF7FEFF 		bl	xQueueGenericSendFromISR
 3085              	.LVL350:
 197:ui.c          **** 	}
 3086              		.loc 1 197 0
 3087 0092 0C23     		movs	r3, #12
ARM GAS  C:\Users\VIDEOH~1\AppData\Local\Temp\ccM4oHTP.s 			page 77


 3088 0094 E356     		ldrsb	r3, [r4, r3]
 3089 0096 DA17     		asrs	r2, r3, #31
 3090 0098 920F     		lsrs	r2, r2, #30
 3091 009a 9B18     		adds	r3, r3, r2
 3092 009c 2B40     		ands	r3, r5
 3093 009e 9B1A     		subs	r3, r3, r2
 3094 00a0 2373     		strb	r3, [r4, #12]
 3095              	.L177:
 199:ui.c          **** 
 3096              		.loc 1 199 0
 3097              		@ sp needed
 3098 00a2 70BD     		pop	{r4, r5, r6, pc}
 3099              	.L183:
 3100              		.align	2
 3101              	.L182:
 3102 00a4 00000000 		.word	.LANCHOR0
 3103 00a8 00010000 		.word	.LANCHOR4
 3104 00ac 00000000 		.word	.LANCHOR1
 3105 00b0 00000000 		.word	ui_queue
 3106              		.cfi_endproc
 3107              	.LFE34:
 3108              		.size	quadrature_event_isr, .-quadrature_event_isr
 3109              		.section	.text.print_setpoint,"ax",%progbits
 3110              		.align	2
 3111              		.global	print_setpoint
 3112              		.code	16
 3113              		.thumb_func
 3114              		.type	print_setpoint, %function
 3115              	print_setpoint:
 3116              	.LFB41:
 321:ui.c          **** 	format_number(get_current_setpoint(), "A", buf);
 3117              		.loc 1 321 0
 3118              		.cfi_startproc
 3119              		@ args = 0, pretend = 0, frame = 0
 3120              		@ frame_needed = 0, uses_anonymous_args = 0
 3121              	.LVL351:
 3122 0000 10B5     		push	{r4, lr}
 3123              		.cfi_def_cfa_offset 8
 3124              		.cfi_offset 4, -8
 3125              		.cfi_offset 14, -4
 3126 0002 0400     		movs	r4, r0
 322:ui.c          **** }
 3127              		.loc 1 322 0
 3128 0004 FFF7FEFF 		bl	get_current_setpoint
 3129              	.LVL352:
 3130 0008 2200     		movs	r2, r4
 3131 000a 0249     		ldr	r1, .L185
 3132 000c FFF7FEFF 		bl	format_number
 3133              	.LVL353:
 323:ui.c          **** 
 3134              		.loc 1 323 0
 3135              		@ sp needed
 3136              	.LVL354:
 3137 0010 10BD     		pop	{r4, pc}
 3138              	.L186:
 3139 0012 C046     		.align	2
 3140              	.L185:
ARM GAS  C:\Users\VIDEOH~1\AppData\Local\Temp\ccM4oHTP.s 			page 78


 3141 0014 D8000000 		.word	.LC49
 3142              		.cfi_endproc
 3143              	.LFE41:
 3144              		.size	print_setpoint, .-print_setpoint
 3145              		.section	.text.print_current_usage,"ax",%progbits
 3146              		.align	2
 3147              		.global	print_current_usage
 3148              		.code	16
 3149              		.thumb_func
 3150              		.type	print_current_usage, %function
 3151              	print_current_usage:
 3152              	.LFB42:
 325:ui.c          **** 	format_number(get_current_usage(), "A", buf);
 3153              		.loc 1 325 0
 3154              		.cfi_startproc
 3155              		@ args = 0, pretend = 0, frame = 0
 3156              		@ frame_needed = 0, uses_anonymous_args = 0
 3157              	.LVL355:
 3158 0000 10B5     		push	{r4, lr}
 3159              		.cfi_def_cfa_offset 8
 3160              		.cfi_offset 4, -8
 3161              		.cfi_offset 14, -4
 3162 0002 0400     		movs	r4, r0
 326:ui.c          **** }
 3163              		.loc 1 326 0
 3164 0004 FFF7FEFF 		bl	get_current_usage
 3165              	.LVL356:
 3166 0008 2200     		movs	r2, r4
 3167 000a 0249     		ldr	r1, .L188
 3168 000c FFF7FEFF 		bl	format_number
 3169              	.LVL357:
 327:ui.c          **** 
 3170              		.loc 1 327 0
 3171              		@ sp needed
 3172              	.LVL358:
 3173 0010 10BD     		pop	{r4, pc}
 3174              	.L189:
 3175 0012 C046     		.align	2
 3176              	.L188:
 3177 0014 D8000000 		.word	.LC49
 3178              		.cfi_endproc
 3179              	.LFE42:
 3180              		.size	print_current_usage, .-print_current_usage
 3181              		.section	.text.print_power,"ax",%progbits
 3182              		.align	2
 3183              		.global	print_power
 3184              		.code	16
 3185              		.thumb_func
 3186              		.type	print_power, %function
 3187              	print_power:
 3188              	.LFB44:
 333:ui.c          **** 	int power = (get_current_usage() / 1000) * (get_voltage() / 1000);
 3189              		.loc 1 333 0
 3190              		.cfi_startproc
 3191              		@ args = 0, pretend = 0, frame = 0
 3192              		@ frame_needed = 0, uses_anonymous_args = 0
 3193              	.LVL359:
ARM GAS  C:\Users\VIDEOH~1\AppData\Local\Temp\ccM4oHTP.s 			page 79


 3194 0000 70B5     		push	{r4, r5, r6, lr}
 3195              		.cfi_def_cfa_offset 16
 3196              		.cfi_offset 4, -16
 3197              		.cfi_offset 5, -12
 3198              		.cfi_offset 6, -8
 3199              		.cfi_offset 14, -4
 3200 0002 0400     		movs	r4, r0
 334:ui.c          **** 	format_number(power, "W", buf);
 3201              		.loc 1 334 0
 3202 0004 FFF7FEFF 		bl	get_current_usage
 3203              	.LVL360:
 3204 0008 FA21     		movs	r1, #250
 3205 000a 8900     		lsls	r1, r1, #2
 3206 000c FFF7FEFF 		bl	__aeabi_idiv
 3207              	.LVL361:
 3208 0010 0500     		movs	r5, r0
 3209 0012 FFF7FEFF 		bl	get_voltage
 3210              	.LVL362:
 3211 0016 FA21     		movs	r1, #250
 3212 0018 8900     		lsls	r1, r1, #2
 3213 001a FFF7FEFF 		bl	__aeabi_idiv
 3214              	.LVL363:
 3215 001e 6843     		muls	r0, r5
 3216              	.LVL364:
 335:ui.c          **** }
 3217              		.loc 1 335 0
 3218 0020 2200     		movs	r2, r4
 3219 0022 0249     		ldr	r1, .L191
 3220 0024 FFF7FEFF 		bl	format_number
 3221              	.LVL365:
 336:ui.c          **** 
 3222              		.loc 1 336 0
 3223              		@ sp needed
 3224              	.LVL366:
 3225 0028 70BD     		pop	{r4, r5, r6, pc}
 3226              	.L192:
 3227 002a C046     		.align	2
 3228              	.L191:
 3229 002c 60010000 		.word	.LC115
 3230              		.cfi_endproc
 3231              	.LFE44:
 3232              		.size	print_power, .-print_power
 3233              		.section	.text.print_resistance,"ax",%progbits
 3234              		.align	2
 3235              		.global	print_resistance
 3236              		.code	16
 3237              		.thumb_func
 3238              		.type	print_resistance, %function
 3239              	print_resistance:
 3240              	.LFB45:
 338:ui.c          **** 	int current = get_current_usage();
 3241              		.loc 1 338 0
 3242              		.cfi_startproc
 3243              		@ args = 0, pretend = 0, frame = 0
 3244              		@ frame_needed = 0, uses_anonymous_args = 0
 3245              	.LVL367:
 3246 0000 70B5     		push	{r4, r5, r6, lr}
ARM GAS  C:\Users\VIDEOH~1\AppData\Local\Temp\ccM4oHTP.s 			page 80


 3247              		.cfi_def_cfa_offset 16
 3248              		.cfi_offset 4, -16
 3249              		.cfi_offset 5, -12
 3250              		.cfi_offset 6, -8
 3251              		.cfi_offset 14, -4
 3252 0002 0500     		movs	r5, r0
 339:ui.c          **** 	if(current > 0) {
 3253              		.loc 1 339 0
 3254 0004 FFF7FEFF 		bl	get_current_usage
 3255              	.LVL368:
 3256 0008 041E     		subs	r4, r0, #0
 3257              	.LVL369:
 340:ui.c          **** 		format_number(((get_voltage() * 10) / (current / 100000)), FONT_GLYPH_OHM, buf);
 3258              		.loc 1 340 0
 3259 000a 11DD     		ble	.L194
 341:ui.c          **** 	} else {
 3260              		.loc 1 341 0
 3261 000c FFF7FEFF 		bl	get_voltage
 3262              	.LVL370:
 3263 0010 8300     		lsls	r3, r0, #2
 3264 0012 1818     		adds	r0, r3, r0
 3265 0014 4600     		lsls	r6, r0, #1
 3266 0016 0949     		ldr	r1, .L196
 3267 0018 2000     		movs	r0, r4
 3268 001a FFF7FEFF 		bl	__aeabi_idiv
 3269              	.LVL371:
 3270 001e 0100     		movs	r1, r0
 3271 0020 3000     		movs	r0, r6
 3272 0022 FFF7FEFF 		bl	__aeabi_idiv
 3273              	.LVL372:
 3274 0026 2A00     		movs	r2, r5
 3275 0028 0549     		ldr	r1, .L196+4
 3276 002a FFF7FEFF 		bl	format_number
 3277              	.LVL373:
 3278 002e 04E0     		b	.L193
 3279              	.LVL374:
 3280              	.L194:
 343:ui.c          **** 	}
 3281              		.loc 1 343 0
 3282 0030 0622     		movs	r2, #6
 3283 0032 0449     		ldr	r1, .L196+8
 3284 0034 2800     		movs	r0, r5
 3285              	.LVL375:
 3286 0036 FFF7FEFF 		bl	memcpy
 3287              	.LVL376:
 3288              	.L193:
 345:ui.c          **** 
 3289              		.loc 1 345 0
 3290              		@ sp needed
 3291              	.LVL377:
 3292              	.LVL378:
 3293 003a 70BD     		pop	{r4, r5, r6, pc}
 3294              	.L197:
 3295              		.align	2
 3296              	.L196:
 3297 003c A0860100 		.word	100000
 3298 0040 64010000 		.word	.LC117
ARM GAS  C:\Users\VIDEOH~1\AppData\Local\Temp\ccM4oHTP.s 			page 81


 3299 0044 68010000 		.word	.LC119
 3300              		.cfi_endproc
 3301              	.LFE45:
 3302              		.size	print_resistance, .-print_resistance
 3303              		.section	.text.print_amp_hours,"ax",%progbits
 3304              		.align	2
 3305              		.global	print_amp_hours
 3306              		.code	16
 3307              		.thumb_func
 3308              		.type	print_amp_hours, %function
 3309              	print_amp_hours:
 3310              	.LFB46:
 347:ui.c          **** 	format_number(get_microamp_hours(), "Ah", buf);
 3311              		.loc 1 347 0
 3312              		.cfi_startproc
 3313              		@ args = 0, pretend = 0, frame = 0
 3314              		@ frame_needed = 0, uses_anonymous_args = 0
 3315              	.LVL379:
 3316 0000 10B5     		push	{r4, lr}
 3317              		.cfi_def_cfa_offset 8
 3318              		.cfi_offset 4, -8
 3319              		.cfi_offset 14, -4
 3320 0002 0400     		movs	r4, r0
 348:ui.c          **** }
 3321              		.loc 1 348 0
 3322 0004 FFF7FEFF 		bl	get_microamp_hours
 3323              	.LVL380:
 3324 0008 2200     		movs	r2, r4
 3325 000a 0249     		ldr	r1, .L199
 3326 000c FFF7FEFF 		bl	format_number
 3327              	.LVL381:
 349:ui.c          **** 
 3328              		.loc 1 349 0
 3329              		@ sp needed
 3330              	.LVL382:
 3331 0010 10BD     		pop	{r4, pc}
 3332              	.L200:
 3333 0012 C046     		.align	2
 3334              	.L199:
 3335 0014 70010000 		.word	.LC121
 3336              		.cfi_endproc
 3337              	.LFE46:
 3338              		.size	print_amp_hours, .-print_amp_hours
 3339              		.section	.text.print_watt_hours,"ax",%progbits
 3340              		.align	2
 3341              		.global	print_watt_hours
 3342              		.code	16
 3343              		.thumb_func
 3344              		.type	print_watt_hours, %function
 3345              	print_watt_hours:
 3346              	.LFB47:
 351:ui.c          **** 	format_number(get_microwatt_hours(), "Wh", buf);
 3347              		.loc 1 351 0
 3348              		.cfi_startproc
 3349              		@ args = 0, pretend = 0, frame = 0
 3350              		@ frame_needed = 0, uses_anonymous_args = 0
 3351              	.LVL383:
ARM GAS  C:\Users\VIDEOH~1\AppData\Local\Temp\ccM4oHTP.s 			page 82


 3352 0000 10B5     		push	{r4, lr}
 3353              		.cfi_def_cfa_offset 8
 3354              		.cfi_offset 4, -8
 3355              		.cfi_offset 14, -4
 3356 0002 0400     		movs	r4, r0
 352:ui.c          **** }
 3357              		.loc 1 352 0
 3358 0004 FFF7FEFF 		bl	get_microwatt_hours
 3359              	.LVL384:
 3360 0008 2200     		movs	r2, r4
 3361 000a 0249     		ldr	r1, .L202
 3362 000c FFF7FEFF 		bl	format_number
 3363              	.LVL385:
 353:ui.c          **** 
 3364              		.loc 1 353 0
 3365              		@ sp needed
 3366              	.LVL386:
 3367 0010 10BD     		pop	{r4, pc}
 3368              	.L203:
 3369 0012 C046     		.align	2
 3370              	.L202:
 3371 0014 74010000 		.word	.LC123
 3372              		.cfi_endproc
 3373              	.LFE47:
 3374              		.size	print_watt_hours, .-print_watt_hours
 3375              		.section	.text.vApplicationTickHook,"ax",%progbits
 3376              		.align	2
 3377              		.global	vApplicationTickHook
 3378              		.code	16
 3379              		.thumb_func
 3380              		.type	vApplicationTickHook, %function
 3381              	vApplicationTickHook:
 3382              	.LFB33:
 142:ui.c          **** 	static ui_event event = {.type = UI_EVENT_BUTTONPRESS, .when = 0};
 3383              		.loc 1 142 0
 3384              		.cfi_startproc
 3385              		@ args = 0, pretend = 0, frame = 0
 3386              		@ frame_needed = 0, uses_anonymous_args = 0
 3387 0000 70B5     		push	{r4, r5, r6, lr}
 3388              		.cfi_def_cfa_offset 16
 3389              		.cfi_offset 4, -16
 3390              		.cfi_offset 5, -12
 3391              		.cfi_offset 6, -8
 3392              		.cfi_offset 14, -4
 146:ui.c          ****     if (button_now != event.int_arg)
 3393              		.loc 1 146 0
 3394 0002 FFF7FEFF 		bl	QuadButton_Read
 3395              	.LVL387:
 3396 0006 0500     		movs	r5, r0
 3397              	.LVL388:
 147:ui.c          ****     {
 3398              		.loc 1 147 0
 3399 0008 114B     		ldr	r3, .L207
 3400 000a DB69     		ldr	r3, [r3, #28]
 3401 000c 9842     		cmp	r0, r3
 3402 000e 1ED0     		beq	.L204
 149:ui.c          ****         event.when = xTaskGetTickCountFromISR();
ARM GAS  C:\Users\VIDEOH~1\AppData\Local\Temp\ccM4oHTP.s 			page 83


 3403              		.loc 1 149 0
 3404 0010 0F4E     		ldr	r6, .L207
 3405 0012 104B     		ldr	r3, .L207+4
 3406 0014 726A     		ldr	r2, [r6, #36]
 3407 0016 5A61     		str	r2, [r3, #20]
 150:ui.c          **** 
 3408              		.loc 1 150 0
 3409 0018 FFF7FEFF 		bl	xTaskGetTickCountFromISR
 3410              	.LVL389:
 3411 001c 7062     		str	r0, [r6, #36]
 152:ui.c          **** 
 3412              		.loc 1 152 0
 3413 001e F561     		str	r5, [r6, #28]
 155:ui.c          ****             long_button_press_tick_count = portMAX_DELAY;
 3414              		.loc 1 155 0
 3415 0020 002D     		cmp	r5, #0
 3416 0022 11D0     		beq	.L206
 156:ui.c          ****             if(event.when - before >= (30 * configTICK_RATE_HZ / 1000)) {
 3417              		.loc 1 156 0
 3418 0024 0122     		movs	r2, #1
 3419 0026 5242     		rsbs	r2, r2, #0
 3420 0028 094B     		ldr	r3, .L207
 3421 002a 1A60     		str	r2, [r3]
 157:ui.c          ****     		    xQueueSendToBackFromISR(ui_queue, &event, NULL);
 3422              		.loc 1 157 0
 3423 002c 094B     		ldr	r3, .L207+4
 3424 002e 5B69     		ldr	r3, [r3, #20]
 3425 0030 C01A     		subs	r0, r0, r3
 3426 0032 0228     		cmp	r0, #2
 3427 0034 0BD9     		bls	.L204
 158:ui.c          ****             }
 3428              		.loc 1 158 0
 3429 0036 084B     		ldr	r3, .L207+8
 3430 0038 1868     		ldr	r0, [r3]
 3431 003a 0023     		movs	r3, #0
 3432 003c 0022     		movs	r2, #0
 3433 003e 0449     		ldr	r1, .L207
 3434 0040 1831     		adds	r1, r1, #24
 3435 0042 FFF7FEFF 		bl	xQueueGenericSendFromISR
 3436              	.LVL390:
 3437 0046 02E0     		b	.L204
 3438              	.L206:
 161:ui.c          ****         }
 3439              		.loc 1 161 0
 3440 0048 6430     		adds	r0, r0, #100
 3441 004a 014B     		ldr	r3, .L207
 3442 004c 1860     		str	r0, [r3]
 3443              	.L204:
 164:ui.c          **** 
 3444              		.loc 1 164 0
 3445              		@ sp needed
 3446              	.LVL391:
 3447 004e 70BD     		pop	{r4, r5, r6, pc}
 3448              	.L208:
 3449              		.align	2
 3450              	.L207:
 3451 0050 00000000 		.word	.LANCHOR0
ARM GAS  C:\Users\VIDEOH~1\AppData\Local\Temp\ccM4oHTP.s 			page 84


 3452 0054 00000000 		.word	.LANCHOR1
 3453 0058 00000000 		.word	ui_queue
 3454              		.cfi_endproc
 3455              	.LFE33:
 3456              		.size	vApplicationTickHook, .-vApplicationTickHook
 3457              		.section	.text.vTaskUI,"ax",%progbits
 3458              		.align	2
 3459              		.global	vTaskUI
 3460              		.code	16
 3461              		.thumb_func
 3462              		.type	vTaskUI, %function
 3463              	vTaskUI:
 3464              	.LFB66:
 858:ui.c          **** 
 859:ui.c          **** void vTaskUI( void *pvParameters ) {
 3465              		.loc 1 859 0
 3466              		.cfi_startproc
 3467              		@ args = 0, pretend = 0, frame = 40
 3468              		@ frame_needed = 0, uses_anonymous_args = 0
 3469              	.LVL392:
 3470 0000 30B5     		push	{r4, r5, lr}
 3471              		.cfi_def_cfa_offset 12
 3472              		.cfi_offset 4, -12
 3473              		.cfi_offset 5, -8
 3474              		.cfi_offset 14, -4
 3475 0002 8BB0     		sub	sp, sp, #44
 3476              		.cfi_def_cfa_offset 56
 860:ui.c          **** 	ui_queue = xQueueCreate(2, sizeof(ui_event));
 3477              		.loc 1 860 0
 3478 0004 0022     		movs	r2, #0
 3479 0006 1021     		movs	r1, #16
 3480 0008 0220     		movs	r0, #2
 3481              	.LVL393:
 3482 000a FFF7FEFF 		bl	xQueueGenericCreate
 3483              	.LVL394:
 3484 000e 144B     		ldr	r3, .L214
 3485 0010 1860     		str	r0, [r3]
 861:ui.c          **** 
 862:ui.c          **** 	QuadratureISR_StartEx(quadrature_event_isr);
 3486              		.loc 1 862 0
 3487 0012 1448     		ldr	r0, .L214+4
 3488 0014 FFF7FEFF 		bl	QuadratureISR_StartEx
 3489              	.LVL395:
 863:ui.c          **** 
 864:ui.c          **** 	state_func main_state = STATE_CC_LOAD;
 3490              		.loc 1 864 0
 3491 0018 07A9     		add	r1, sp, #28
 3492 001a 134B     		ldr	r3, .L214+8
 3493 001c 1A00     		movs	r2, r3
 3494 001e 4832     		adds	r2, r2, #72
 3495 0020 31CA     		ldmia	r2!, {r0, r4, r5}
 3496 0022 31C1     		stmia	r1!, {r0, r4, r5}
 865:ui.c          **** 	state_func state = STATE_CC_LOAD;
 3497              		.loc 1 865 0
 3498 0024 04AA     		add	r2, sp, #16
 3499 0026 4833     		adds	r3, r3, #72
 3500 0028 13CB     		ldmia	r3!, {r0, r1, r4}
ARM GAS  C:\Users\VIDEOH~1\AppData\Local\Temp\ccM4oHTP.s 			page 85


 3501 002a 13C2     		stmia	r2!, {r0, r1, r4}
 3502              	.L213:
 3503              	.LBB9:
 866:ui.c          **** 
 867:ui.c          **** 	while(1) {
 868:ui.c          **** 		state_func new_state = state.func(state.arg);
 3504              		.loc 1 868 0
 3505 002c 0599     		ldr	r1, [sp, #20]
 3506 002e 01A8     		add	r0, sp, #4
 3507 0030 049B     		ldr	r3, [sp, #16]
 3508 0032 9847     		blx	r3
 3509              	.LVL396:
 869:ui.c          **** 		if(new_state.func == NULL) {
 3510              		.loc 1 869 0
 3511 0034 019B     		ldr	r3, [sp, #4]
 3512 0036 002B     		cmp	r3, #0
 3513 0038 04D1     		bne	.L210
 870:ui.c          **** 			memcpy(&state, &main_state, sizeof(state_func));
 3514              		.loc 1 870 0
 3515 003a 04AA     		add	r2, sp, #16
 3516 003c 07AB     		add	r3, sp, #28
 3517 003e 13CB     		ldmia	r3!, {r0, r1, r4}
 3518 0040 13C2     		stmia	r2!, {r0, r1, r4}
 3519 0042 03E0     		b	.L211
 3520              	.L210:
 871:ui.c          **** 		} else {
 872:ui.c          **** 			memcpy(&state, &new_state, sizeof(state_func));
 3521              		.loc 1 872 0
 3522 0044 04AA     		add	r2, sp, #16
 3523 0046 01AB     		add	r3, sp, #4
 3524 0048 13CB     		ldmia	r3!, {r0, r1, r4}
 3525 004a 13C2     		stmia	r2!, {r0, r1, r4}
 3526              	.L211:
 873:ui.c          **** 		}
 874:ui.c          **** 
 875:ui.c          **** 		if(state.is_main_state) {
 3527              		.loc 1 875 0
 3528 004c 04AB     		add	r3, sp, #16
 3529 004e 1B7A     		ldrb	r3, [r3, #8]
 3530 0050 5BB2     		sxtb	r3, r3
 3531 0052 002B     		cmp	r3, #0
 3532 0054 EAD0     		beq	.L213
 876:ui.c          **** 			memcpy(&main_state, &state, sizeof(state_func));
 3533              		.loc 1 876 0
 3534 0056 07AA     		add	r2, sp, #28
 3535 0058 04AB     		add	r3, sp, #16
 3536 005a 13CB     		ldmia	r3!, {r0, r1, r4}
 3537 005c 13C2     		stmia	r2!, {r0, r1, r4}
 3538              	.LBE9:
 877:ui.c          **** 		}
 878:ui.c          **** 	}
 3539              		.loc 1 878 0
 3540 005e E5E7     		b	.L213
 3541              	.L215:
 3542              		.align	2
 3543              	.L214:
 3544 0060 00000000 		.word	ui_queue
ARM GAS  C:\Users\VIDEOH~1\AppData\Local\Temp\ccM4oHTP.s 			page 86


 3545 0064 00000000 		.word	quadrature_event_isr
 3546 0068 00010000 		.word	.LANCHOR4
 3547              		.cfi_endproc
 3548              	.LFE66:
 3549              		.size	vTaskUI, .-vTaskUI
 3550              		.global	readout_functions
 3551              		.global	quadrature_states
 3552              		.global	long_button_press_tick_count
 3553              		.global	main_menu
 3554              		.global	tools_menu
 3555              		.global	choose_readout_menu
 3556              		.global	set_readout_menu
 3557              		.comm	ui_queue,4,4
 3558              		.section	.rodata
 3559              		.align	2
 3560              		.set	.LANCHOR2,. + 0
 3561              		.set	.LANCHOR3,. + 128
 3562              		.set	.LANCHOR4,. + 256
 3563              		.type	choose_readout_menu, %object
 3564              		.size	choose_readout_menu, 84
 3565              	choose_readout_menu:
 3566 0000 90010000 		.word	.LC136
 3567 0004 E4010000 		.word	.LC143
 3568 0008 00000000 		.word	0
 3569 000c 01000000 		.word	1
 3570 0010 00       		.byte	0
 3571 0011 000000   		.space	3
 3572 0014 F0010000 		.word	.LC144
 3573 0018 00000000 		.word	0
 3574 001c 02000000 		.word	2
 3575 0020 00       		.byte	0
 3576 0021 000000   		.space	3
 3577 0024 FC010000 		.word	.LC145
 3578 0028 00000000 		.word	0
 3579 002c 03000000 		.word	3
 3580 0030 00       		.byte	0
 3581 0031 000000   		.space	3
 3582 0034 D0010000 		.word	.LC141
 3583 0038 00000000 		.word	0
 3584 003c 00000000 		.word	0
 3585 0040 00       		.byte	0
 3586 0041 000000   		.space	3
 3587 0044 00000000 		.word	0
 3588 0048 00000000 		.word	0
 3589 004c 00000000 		.word	0
 3590 0050 00       		.byte	0
 3591 0051 000000   		.space	3
 3592              		.type	set_readout_menu, %object
 3593              		.size	set_readout_menu, 164
 3594              	set_readout_menu:
 3595 0054 08020000 		.word	.LC146
 3596 0058 18020000 		.word	.LC147
 3597 005c 00000000 		.word	0
 3598 0060 01000000 		.word	1
 3599 0064 00       		.byte	0
 3600 0065 000000   		.space	3
 3601 0068 24020000 		.word	.LC148
ARM GAS  C:\Users\VIDEOH~1\AppData\Local\Temp\ccM4oHTP.s 			page 87


 3602 006c 00000000 		.word	0
 3603 0070 02000000 		.word	2
 3604 0074 00       		.byte	0
 3605 0075 000000   		.space	3
 3606 0078 34020000 		.word	.LC149
 3607 007c 00000000 		.word	0
 3608 0080 03000000 		.word	3
 3609 0084 00       		.byte	0
 3610 0085 000000   		.space	3
 3611 0088 3C020000 		.word	.LC150
 3612 008c 00000000 		.word	0
 3613 0090 04000000 		.word	4
 3614 0094 00       		.byte	0
 3615 0095 000000   		.space	3
 3616 0098 44020000 		.word	.LC151
 3617 009c 00000000 		.word	0
 3618 00a0 05000000 		.word	5
 3619 00a4 00       		.byte	0
 3620 00a5 000000   		.space	3
 3621 00a8 50020000 		.word	.LC152
 3622 00ac 00000000 		.word	0
 3623 00b0 06000000 		.word	6
 3624 00b4 00       		.byte	0
 3625 00b5 000000   		.space	3
 3626 00b8 60020000 		.word	.LC153
 3627 00bc 00000000 		.word	0
 3628 00c0 07000000 		.word	7
 3629 00c4 00       		.byte	0
 3630 00c5 000000   		.space	3
 3631 00c8 6C020000 		.word	.LC154
 3632 00cc 00000000 		.word	0
 3633 00d0 00000000 		.word	0
 3634 00d4 00       		.byte	0
 3635 00d5 000000   		.space	3
 3636 00d8 D0010000 		.word	.LC141
 3637 00dc 00000000 		.word	0
 3638 00e0 00000000 		.word	0
 3639 00e4 00       		.byte	0
 3640 00e5 000000   		.space	3
 3641 00e8 00000000 		.word	0
 3642 00ec 00000000 		.word	0
 3643 00f0 00000000 		.word	0
 3644 00f4 00       		.byte	0
 3645 00f5 000000   		.space	3
 3646              		.type	readout_functions, %object
 3647              		.size	readout_functions, 64
 3648              	readout_functions:
 3649 00f8 00000000 		.word	print_nothing
 3650 00fc 78010000 		.word	.LC132
 3651 0100 00000000 		.word	print_setpoint
 3652 0104 7C010000 		.word	.LC133
 3653 0108 00000000 		.word	print_current_usage
 3654 010c 80010000 		.word	.LC134
 3655 0110 00000000 		.word	print_voltage
 3656 0114 78010000 		.word	.LC132
 3657 0118 00000000 		.word	print_power
 3658 011c 78010000 		.word	.LC132
ARM GAS  C:\Users\VIDEOH~1\AppData\Local\Temp\ccM4oHTP.s 			page 88


 3659 0120 00000000 		.word	print_resistance
 3660 0124 78010000 		.word	.LC132
 3661 0128 00000000 		.word	print_amp_hours
 3662 012c 78010000 		.word	.LC132
 3663 0130 00000000 		.word	print_watt_hours
 3664 0134 78010000 		.word	.LC132
 3665              	.LC103:
 3666 0138 00000000 		.word	menu
 3667 013c 00000000 		.word	main_menu
 3668 0140 00       		.byte	0
 3669 0141 000000   		.space	3
 3670              		.type	quadrature_states, %object
 3671              		.size	quadrature_states, 4
 3672              	quadrature_states:
 3673 0144 01       		.byte	1
 3674 0145 03       		.byte	3
 3675 0146 00       		.byte	0
 3676 0147 02       		.byte	2
 3677              	.LC130:
 3678 0148 00000000 		.word	cc_load
 3679 014c 00000000 		.word	0
 3680 0150 01       		.byte	1
 3681 0151 000000   		.space	3
 3682              		.type	main_menu, %object
 3683              		.size	main_menu, 164
 3684              	main_menu:
 3685 0154 00000000 		.word	0
 3686 0158 84010000 		.word	.LC135
 3687 015c 00000000 		.word	cc_load
 3688 0160 00000000 		.word	0
 3689 0164 01       		.byte	1
 3690 0165 000000   		.space	3
 3691 0168 90010000 		.word	.LC136
 3692 016c 00000000 		.word	display_config
 3693 0170 00000000 		.word	0
 3694 0174 00       		.byte	0
 3695 0175 000000   		.space	3
 3696 0178 40010000 		.word	.LC87
 3697 017c 00000000 		.word	ui_set_min_voltage
 3698 0180 00000000 		.word	0
 3699 0184 00       		.byte	0
 3700 0185 000000   		.space	3
 3701 0188 9C010000 		.word	.LC137
 3702 018c 00000000 		.word	call_void_func
 3703 0190 00000000 		.word	reset_running_totals
 3704 0194 00       		.byte	0
 3705 0195 000000   		.space	3
 3706 0198 AC010000 		.word	.LC138
 3707 019c 00000000 		.word	menu
 3708 01a0 00000000 		.word	tools_menu
 3709 01a4 00       		.byte	0
 3710 01a5 000000   		.space	3
 3711 01a8 F8000000 		.word	.LC65
 3712 01ac 00000000 		.word	set_contrast
 3713 01b0 00000000 		.word	0
 3714 01b4 00       		.byte	0
 3715 01b5 000000   		.space	3
ARM GAS  C:\Users\VIDEOH~1\AppData\Local\Temp\ccM4oHTP.s 			page 89


 3716 01b8 B4010000 		.word	.LC139
 3717 01bc 00000000 		.word	ui_calibrate
 3718 01c0 00000000 		.word	0
 3719 01c4 00       		.byte	0
 3720 01c5 000000   		.space	3
 3721 01c8 C0010000 		.word	.LC140
 3722 01cc 00000000 		.word	upgrade
 3723 01d0 00000000 		.word	0
 3724 01d4 00       		.byte	0
 3725 01d5 000000   		.space	3
 3726 01d8 D0010000 		.word	.LC141
 3727 01dc 00000000 		.word	0
 3728 01e0 00000000 		.word	0
 3729 01e4 00       		.byte	0
 3730 01e5 000000   		.space	3
 3731 01e8 00000000 		.word	0
 3732 01ec 00000000 		.word	0
 3733 01f0 00000000 		.word	0
 3734 01f4 00       		.byte	0
 3735 01f5 000000   		.space	3
 3736              		.type	tools_menu, %object
 3737              		.size	tools_menu, 52
 3738              	tools_menu:
 3739 01f8 00000000 		.word	0
 3740 01fc D8010000 		.word	.LC142
 3741 0200 00000000 		.word	call_void_func
 3742 0204 00000000 		.word	measure_Battery_ISR
 3743 0208 00       		.byte	0
 3744 0209 000000   		.space	3
 3745 020c D0010000 		.word	.LC141
 3746 0210 00000000 		.word	0
 3747 0214 00000000 		.word	0
 3748 0218 00       		.byte	0
 3749 0219 000000   		.space	3
 3750 021c 00000000 		.word	0
 3751 0220 00000000 		.word	0
 3752 0224 00000000 		.word	0
 3753 0228 00       		.byte	0
 3754 0229 000000   		.space	3
 3755              		.data
 3756              		.align	2
 3757              		.set	.LANCHOR0,. + 0
 3758              		.type	long_button_press_tick_count, %object
 3759              		.size	long_button_press_tick_count, 4
 3760              	long_button_press_tick_count:
 3761 0000 FFFFFFFF 		.word	-1
 3762              		.type	last_levels.7711, %object
 3763              		.size	last_levels.7711, 1
 3764              	last_levels.7711:
 3765 0004 03       		.byte	3
 3766 0005 000000   		.space	3
 3767              		.type	event.7710, %object
 3768              		.size	event.7710, 16
 3769              	event.7710:
 3770 0008 03       		.byte	3
 3771 0009 000000   		.space	3
 3772 000c 00000000 		.word	0
ARM GAS  C:\Users\VIDEOH~1\AppData\Local\Temp\ccM4oHTP.s 			page 90


 3773 0010 00000000 		.space	4
 3774 0014 00000000 		.word	0
 3775              		.type	event.7703, %object
 3776              		.size	event.7703, 16
 3777              	event.7703:
 3778 0018 01       		.byte	1
 3779 0019 00000000 		.space	11
 3779      00000000 
 3779      000000
 3780 0024 00000000 		.word	0
 3781              		.section	.rodata.str1.4,"aMS",%progbits,1
 3782              		.align	2
 3783              	.LC2:
 3784 0000 2533642E 		.ascii	"%3d.%03d%s\000"
 3784      25303364 
 3784      257300
 3785 000b 00       		.space	1
 3786              	.LC4:
 3787 000c 20202020 		.ascii	"      \000"
 3787      202000
 3788 0013 00       		.space	1
 3789              	.LC6:
 3790 0014 2531642E 		.ascii	"%1d.%02d\000"
 3790      25303264 
 3790      00
 3791 001d 000000   		.space	3
 3792              	.LC8:
 3793 0020 25303264 		.ascii	"%02d.%1d\000"
 3793      2E253164 
 3793      00
 3794 0029 000000   		.space	3
 3795              	.LC10:
 3796 002c 25303364 		.ascii	"%03d\000"
 3796      00
 3797 0031 000000   		.space	3
 3798              	.LC12:
 3799 0034 6D00     		.ascii	"m\000"
 3800 0036 0000     		.space	2
 3801              	.LC14:
 3802 0038 2000     		.ascii	" \000"
 3803 003a 0000     		.space	2
 3804              	.LC16:
 3805 003c 5600     		.ascii	"V\000"
 3806 003e 0000     		.space	2
 3807              	.LC18:
 3808 0040 55504752 		.ascii	"UPGRADE MODE \000"
 3808      41444520 
 3808      4D4F4445 
 3808      2000
 3809 004e 0000     		.space	2
 3810              	.LC20:
 3811 0050 52656164 		.ascii	"Ready to recv\000"
 3811      7920746F 
 3811      20726563 
 3811      7600
 3812 005e 0000     		.space	2
 3813              	.LC22:
ARM GAS  C:\Users\VIDEOH~1\AppData\Local\Temp\ccM4oHTP.s 			page 91


 3814 0060 20662F77 		.ascii	" f/w update  \000"
 3814      20757064 
 3814      61746520 
 3814      2000
 3815 006e 0000     		.space	2
 3816              	.LC27:
 3817 0070 42617474 		.ascii	"Battery ISR\000"
 3817      65727920 
 3817      49535200 
 3818              	.LC29:
 3819 007c 4C696768 		.ascii	"Light Load\000"
 3819      74204C6F 
 3819      616400
 3820 0087 00       		.space	1
 3821              	.LC31:
 3822 0088 46756C6C 		.ascii	"Full Load\000"
 3822      204C6F61 
 3822      6400
 3823 0092 0000     		.space	2
 3824              	.LC33:
 3825 0094 7F20DF20 		.ascii	"\177 \337 Back\000"
 3825      4261636B 
 3825      00
 3826 009d 000000   		.space	3
 3827              	.LC36:
 3828 00a0 2052656D 		.ascii	" Remove Leads\000"
 3828      6F766520 
 3828      4C656164 
 3828      7300
 3829 00ae 0000     		.space	2
 3830              	.LC38:
 3831 00b0 DF3A204E 		.ascii	"\337: Next\000"
 3831      65787400 
 3832              	.LC41:
 3833 00b8 2041646A 		.ascii	" Adj. voltage\000"
 3833      2E20766F 
 3833      6C746167 
 3833      6500
 3834 00c6 0000     		.space	2
 3835              	.LC46:
 3836 00c8 2041646A 		.ascii	" Adj. Current\000"
 3836      2E204375 
 3836      7272656E 
 3836      7400
 3837 00d6 0000     		.space	2
 3838              	.LC49:
 3839 00d8 4100     		.ascii	"A\000"
 3840 00da 0000     		.space	2
 3841              	.LC57:
 3842 00dc 506C6561 		.ascii	"Please wait\000"
 3842      73652077 
 3842      61697400 
 3843              	.LC62:
 3844 00e8 2043414C 		.ascii	" CALIBRATION \000"
 3844      49425241 
 3844      54494F4E 
 3844      2000
ARM GAS  C:\Users\VIDEOH~1\AppData\Local\Temp\ccM4oHTP.s 			page 92


 3845 00f6 0000     		.space	2
 3846              	.LC65:
 3847 00f8 436F6E74 		.ascii	"Contrast\000"
 3847      72617374 
 3847      00
 3848 0101 000000   		.space	3
 3849              	.LC67:
 3850 0104 DF3A2044 		.ascii	"\337: Done\000"
 3850      6F6E6500 
 3851              	.LC72:
 3852 010c 21204F56 		.ascii	"! OVERTEMP !\000"
 3852      45525445 
 3852      4D502021 
 3852      00
 3853 0119 000000   		.space	3
 3854              	.LC74:
 3855 011c 2120554E 		.ascii	"! UNDERVOLT !\000"
 3855      44455256 
 3855      4F4C5420 
 3855      2100
 3856 012a 0000     		.space	2
 3857              	.LC76:
 3858 012c DF3A2052 		.ascii	"\337: Reset\000"
 3858      65736574 
 3858      00
 3859 0135 000000   		.space	3
 3860              	.LC78:
 3861 0138 BE00     		.ascii	"\276\000"
 3862 013a 0000     		.space	2
 3863              	.LC81:
 3864 013c BF00     		.ascii	"\277\000"
 3865 013e 0000     		.space	2
 3866              	.LC87:
 3867 0140 4D696E20 		.ascii	"Min Voltage\000"
 3867      566F6C74 
 3867      61676500 
 3868              	.LC90:
 3869 014c 4F4E00   		.ascii	"ON\000"
 3870 014f 00       		.space	1
 3871              	.LC92:
 3872 0150 4F464600 		.ascii	"OFF\000"
 3873              	.LC97:
 3874 0154 73657420 		.ascii	"set %d\015\012\000"
 3874      25640D0A 
 3874      00
 3875 015d 000000   		.space	3
 3876              	.LC115:
 3877 0160 5700     		.ascii	"W\000"
 3878 0162 0000     		.space	2
 3879              	.LC117:
 3880 0164 7F00     		.ascii	"\177\000"
 3881 0166 0000     		.space	2
 3882              	.LC119:
 3883 0168 2D2D2D2D 		.ascii	"----\177\000"
 3883      7F00
 3884 016e 0000     		.space	2
 3885              	.LC121:
ARM GAS  C:\Users\VIDEOH~1\AppData\Local\Temp\ccM4oHTP.s 			page 93


 3886 0170 416800   		.ascii	"Ah\000"
 3887 0173 00       		.space	1
 3888              	.LC123:
 3889 0174 576800   		.ascii	"Wh\000"
 3890 0177 00       		.space	1
 3891              	.LC132:
 3892 0178 00       		.ascii	"\000"
 3893 0179 000000   		.space	3
 3894              	.LC133:
 3895 017c 53455400 		.ascii	"SET\000"
 3896              	.LC134:
 3897 0180 41435400 		.ascii	"ACT\000"
 3898              	.LC135:
 3899 0184 432F4320 		.ascii	"C/C Load\000"
 3899      4C6F6164 
 3899      00
 3900 018d 000000   		.space	3
 3901              	.LC136:
 3902 0190 52656164 		.ascii	"Readouts\000"
 3902      6F757473 
 3902      00
 3903 0199 000000   		.space	3
 3904              	.LC137:
 3905 019c 52657365 		.ascii	"Reset Totals\000"
 3905      7420546F 
 3905      74616C73 
 3905      00
 3906 01a9 000000   		.space	3
 3907              	.LC138:
 3908 01ac 546F6F6C 		.ascii	"Tools\000"
 3908      7300
 3909 01b2 0000     		.space	2
 3910              	.LC139:
 3911 01b4 43616C69 		.ascii	"Calibrate\000"
 3911      62726174 
 3911      6500
 3912 01be 0000     		.space	2
 3913              	.LC140:
 3914 01c0 55706772 		.ascii	"Upgrade Mode\000"
 3914      61646520 
 3914      4D6F6465 
 3914      00
 3915 01cd 000000   		.space	3
 3916              	.LC141:
 3917 01d0 45584954 		.ascii	"EXIT\000"
 3917      00
 3918 01d5 000000   		.space	3
 3919              	.LC142:
 3920 01d8 42617474 		.ascii	"Batt ISR.\000"
 3920      20495352 
 3920      2E00
 3921 01e2 0000     		.space	2
 3922              	.LC143:
 3923 01e4 4D61696E 		.ascii	"Main disp.\000"
 3923      20646973 
 3923      702E00
 3924 01ef 00       		.space	1
ARM GAS  C:\Users\VIDEOH~1\AppData\Local\Temp\ccM4oHTP.s 			page 94


 3925              	.LC144:
 3926 01f0 4C656674 		.ascii	"Left disp.\000"
 3926      20646973 
 3926      702E00
 3927 01fb 00       		.space	1
 3928              	.LC145:
 3929 01fc 52696768 		.ascii	"Right disp.\000"
 3929      74206469 
 3929      73702E00 
 3930              	.LC146:
 3931 0208 43686F6F 		.ascii	"Choose value\000"
 3931      73652076 
 3931      616C7565 
 3931      00
 3932 0215 000000   		.space	3
 3933              	.LC147:
 3934 0218 53657420 		.ascii	"Set Current\000"
 3934      43757272 
 3934      656E7400 
 3935              	.LC148:
 3936 0224 4163742E 		.ascii	"Act. Current\000"
 3936      20437572 
 3936      72656E74 
 3936      00
 3937 0231 000000   		.space	3
 3938              	.LC149:
 3939 0234 566F6C74 		.ascii	"Voltage\000"
 3939      61676500 
 3940              	.LC150:
 3941 023c 506F7765 		.ascii	"Power\000"
 3941      7200
 3942 0242 0000     		.space	2
 3943              	.LC151:
 3944 0244 52657369 		.ascii	"Resistance\000"
 3944      7374616E 
 3944      636500
 3945 024f 00       		.space	1
 3946              	.LC152:
 3947 0250 546F7461 		.ascii	"Total current\000"
 3947      6C206375 
 3947      7272656E 
 3947      7400
 3948 025e 0000     		.space	2
 3949              	.LC153:
 3950 0260 546F7461 		.ascii	"Total power\000"
 3950      6C20706F 
 3950      77657200 
 3951              	.LC154:
 3952 026c 4E6F6E65 		.ascii	"None\000"
 3952      00
 3953              		.bss
 3954              		.align	2
 3955              		.set	.LANCHOR1,. + 0
 3956              		.type	long_press_sent.7742, %object
 3957              		.size	long_press_sent.7742, 1
 3958              	long_press_sent.7742:
 3959 0000 00       		.space	1
ARM GAS  C:\Users\VIDEOH~1\AppData\Local\Temp\ccM4oHTP.s 			page 95


 3960 0001 000000   		.space	3
 3961              		.type	last_tick.7741, %object
 3962              		.size	last_tick.7741, 4
 3963              	last_tick.7741:
 3964 0004 00000000 		.space	4
 3965              		.type	last_adjust_current_setpoint.7895, %object
 3966              		.size	last_adjust_current_setpoint.7895, 4
 3967              	last_adjust_current_setpoint.7895:
 3968 0008 00000000 		.space	4
 3969              		.type	count.7712, %object
 3970              		.size	count.7712, 1
 3971              	count.7712:
 3972 000c 00       		.space	1
 3973 000d 000000   		.space	3
 3974              		.type	before.7713, %object
 3975              		.size	before.7713, 4
 3976              	before.7713:
 3977 0010 00000000 		.space	4
 3978              		.type	before.7704, %object
 3979              		.size	before.7704, 4
 3980              	before.7704:
 3981 0014 00000000 		.space	4
 3982              		.text
 3983              	.Letext0:
 3984              		.file 2 "c:\\program files (x86)\\cypress\\psoc creator\\4.2\\psoc creator\\import\\gnu\\arm\\5.4.
 3985              		.file 3 "c:\\program files (x86)\\cypress\\psoc creator\\4.2\\psoc creator\\import\\gnu\\arm\\5.4.
 3986              		.file 4 "Generated_Source\\PSoC4/cytypes.h"
 3987              		.file 5 "Generated_Source\\PSoC4/cy_em_eeprom.h"
 3988              		.file 6 "config.h"
 3989              		.file 7 ".\\freertos\\include/portmacro.h"
 3990              		.file 8 ".\\freertos\\include/queue.h"
 3991              		.file 9 "tasks.h"
 3992              		.file 10 "Generated_Source\\PSoC4/EEPROM.h"
 3993              		.file 11 "Generated_Source\\PSoC4/CyLib.h"
 3994              		.file 12 "Generated_Source\\PSoC4/CyLFClk.h"
 3995              		.file 13 "c:\\program files (x86)\\cypress\\psoc creator\\4.2\\psoc creator\\import\\gnu\\arm\\5.4
 3996              		.file 14 "c:\\program files (x86)\\cypress\\psoc creator\\4.2\\psoc creator\\import\\gnu\\arm\\5.4
 3997              		.file 15 "Generated_Source\\PSoC4/Display.h"
 3998              		.file 16 "Generated_Source\\PSoC4/Bootloadable.h"
 3999              		.file 17 ".\\freertos\\include/task.h"
 4000              		.file 18 "Generated_Source\\PSoC4/IDAC_Low.h"
 4001              		.file 19 "Generated_Source\\PSoC4/IDAC_High.h"
 4002              		.file 20 "calibrate.h"
 4003              		.file 21 "comms.h"
 4004              		.file 22 "Generated_Source\\PSoC4/Quadrature.h"
 4005              		.file 23 "Generated_Source\\PSoC4/QuadButton.h"
 4006              		.file 24 "Generated_Source\\PSoC4/QuadratureISR.h"
 4007              		.file 25 "<built-in>"
 4008              		.section	.debug_info,"",%progbits
 4009              	.Ldebug_info0:
 4010 0000 78250000 		.4byte	0x2578
 4011 0004 0400     		.2byte	0x4
 4012 0006 00000000 		.4byte	.Ldebug_abbrev0
 4013 000a 04       		.byte	0x4
 4014 000b 01       		.uleb128 0x1
 4015 000c A30A0000 		.4byte	.LASF213
 4016 0010 0C       		.byte	0xc
ARM GAS  C:\Users\VIDEOH~1\AppData\Local\Temp\ccM4oHTP.s 			page 96


 4017 0011 51090000 		.4byte	.LASF214
 4018 0015 CC000000 		.4byte	.LASF215
 4019 0019 18000000 		.4byte	.Ldebug_ranges0+0x18
 4020 001d 00000000 		.4byte	0
 4021 0021 00000000 		.4byte	.Ldebug_line0
 4022 0025 02       		.uleb128 0x2
 4023 0026 01       		.byte	0x1
 4024 0027 06       		.byte	0x6
 4025 0028 A70B0000 		.4byte	.LASF0
 4026 002c 03       		.uleb128 0x3
 4027 002d 7F090000 		.4byte	.LASF5
 4028 0031 02       		.byte	0x2
 4029 0032 1D       		.byte	0x1d
 4030 0033 37000000 		.4byte	0x37
 4031 0037 02       		.uleb128 0x2
 4032 0038 01       		.byte	0x1
 4033 0039 08       		.byte	0x8
 4034 003a 4E0A0000 		.4byte	.LASF1
 4035 003e 02       		.uleb128 0x2
 4036 003f 02       		.byte	0x2
 4037 0040 05       		.byte	0x5
 4038 0041 98080000 		.4byte	.LASF2
 4039 0045 02       		.uleb128 0x2
 4040 0046 02       		.byte	0x2
 4041 0047 07       		.byte	0x7
 4042 0048 B90B0000 		.4byte	.LASF3
 4043 004c 02       		.uleb128 0x2
 4044 004d 04       		.byte	0x4
 4045 004e 05       		.byte	0x5
 4046 004f B6080000 		.4byte	.LASF4
 4047 0053 03       		.uleb128 0x3
 4048 0054 6A0A0000 		.4byte	.LASF6
 4049 0058 02       		.byte	0x2
 4050 0059 41       		.byte	0x41
 4051 005a 5E000000 		.4byte	0x5e
 4052 005e 02       		.uleb128 0x2
 4053 005f 04       		.byte	0x4
 4054 0060 07       		.byte	0x7
 4055 0061 C0090000 		.4byte	.LASF7
 4056 0065 02       		.uleb128 0x2
 4057 0066 08       		.byte	0x8
 4058 0067 05       		.byte	0x5
 4059 0068 5C060000 		.4byte	.LASF8
 4060 006c 02       		.uleb128 0x2
 4061 006d 08       		.byte	0x8
 4062 006e 07       		.byte	0x7
 4063 006f DB020000 		.4byte	.LASF9
 4064 0073 04       		.uleb128 0x4
 4065 0074 04       		.byte	0x4
 4066 0075 05       		.byte	0x5
 4067 0076 696E7400 		.ascii	"int\000"
 4068 007a 02       		.uleb128 0x2
 4069 007b 04       		.byte	0x4
 4070 007c 07       		.byte	0x7
 4071 007d 10010000 		.4byte	.LASF10
 4072 0081 03       		.uleb128 0x3
 4073 0082 B8050000 		.4byte	.LASF11
ARM GAS  C:\Users\VIDEOH~1\AppData\Local\Temp\ccM4oHTP.s 			page 97


 4074 0086 03       		.byte	0x3
 4075 0087 18       		.byte	0x18
 4076 0088 2C000000 		.4byte	0x2c
 4077 008c 03       		.uleb128 0x3
 4078 008d 3C020000 		.4byte	.LASF12
 4079 0091 03       		.byte	0x3
 4080 0092 30       		.byte	0x30
 4081 0093 53000000 		.4byte	0x53
 4082 0097 05       		.uleb128 0x5
 4083 0098 310C0000 		.4byte	.LASF13
 4084 009c 04       		.byte	0x4
 4085 009d E401     		.2byte	0x1e4
 4086 009f 37000000 		.4byte	0x37
 4087 00a3 05       		.uleb128 0x5
 4088 00a4 41070000 		.4byte	.LASF14
 4089 00a8 04       		.byte	0x4
 4090 00a9 E601     		.2byte	0x1e6
 4091 00ab 5E000000 		.4byte	0x5e
 4092 00af 05       		.uleb128 0x5
 4093 00b0 72050000 		.4byte	.LASF15
 4094 00b4 04       		.byte	0x4
 4095 00b5 E701     		.2byte	0x1e7
 4096 00b7 25000000 		.4byte	0x25
 4097 00bb 02       		.uleb128 0x2
 4098 00bc 04       		.byte	0x4
 4099 00bd 04       		.byte	0x4
 4100 00be 68020000 		.4byte	.LASF16
 4101 00c2 02       		.uleb128 0x2
 4102 00c3 08       		.byte	0x8
 4103 00c4 04       		.byte	0x4
 4104 00c5 370C0000 		.4byte	.LASF17
 4105 00c9 02       		.uleb128 0x2
 4106 00ca 01       		.byte	0x1
 4107 00cb 08       		.byte	0x8
 4108 00cc 4B050000 		.4byte	.LASF18
 4109 00d0 02       		.uleb128 0x2
 4110 00d1 04       		.byte	0x4
 4111 00d2 07       		.byte	0x7
 4112 00d3 B7090000 		.4byte	.LASF19
 4113 00d7 06       		.uleb128 0x6
 4114 00d8 04       		.byte	0x4
 4115 00d9 07       		.uleb128 0x7
 4116 00da 04       		.byte	0x4
 4117 00db C9000000 		.4byte	0xc9
 4118 00df 07       		.uleb128 0x7
 4119 00e0 04       		.byte	0x4
 4120 00e1 E5000000 		.4byte	0xe5
 4121 00e5 08       		.uleb128 0x8
 4122 00e6 C9000000 		.4byte	0xc9
 4123 00ea 09       		.uleb128 0x9
 4124 00eb C9000000 		.4byte	0xc9
 4125 00ef FA000000 		.4byte	0xfa
 4126 00f3 0A       		.uleb128 0xa
 4127 00f4 D0000000 		.4byte	0xd0
 4128 00f8 07       		.byte	0x7
 4129 00f9 00       		.byte	0
 4130 00fa 0B       		.uleb128 0xb
ARM GAS  C:\Users\VIDEOH~1\AppData\Local\Temp\ccM4oHTP.s 			page 98


 4131 00fb 1C       		.byte	0x1c
 4132 00fc 05       		.byte	0x5
 4133 00fd 1601     		.2byte	0x116
 4134 00ff 6C010000 		.4byte	0x16c
 4135 0103 0C       		.uleb128 0xc
 4136 0104 12060000 		.4byte	.LASF20
 4137 0108 05       		.byte	0x5
 4138 0109 1B01     		.2byte	0x11b
 4139 010b A3000000 		.4byte	0xa3
 4140 010f 00       		.byte	0
 4141 0110 0C       		.uleb128 0xc
 4142 0111 45020000 		.4byte	.LASF21
 4143 0115 05       		.byte	0x5
 4144 0116 2001     		.2byte	0x120
 4145 0118 A3000000 		.4byte	0xa3
 4146 011c 04       		.byte	0x4
 4147 011d 0C       		.uleb128 0xc
 4148 011e 3E0C0000 		.4byte	.LASF22
 4149 0122 05       		.byte	0x5
 4150 0123 2301     		.2byte	0x123
 4151 0125 A3000000 		.4byte	0xa3
 4152 0129 08       		.byte	0x8
 4153 012a 0C       		.uleb128 0xc
 4154 012b A8020000 		.4byte	.LASF23
 4155 012f 05       		.byte	0x5
 4156 0130 2601     		.2byte	0x126
 4157 0132 A3000000 		.4byte	0xa3
 4158 0136 0C       		.byte	0xc
 4159 0137 0C       		.uleb128 0xc
 4160 0138 0A0A0000 		.4byte	.LASF24
 4161 013c 05       		.byte	0x5
 4162 013d 2B01     		.2byte	0x12b
 4163 013f A3000000 		.4byte	0xa3
 4164 0143 10       		.byte	0x10
 4165 0144 0C       		.uleb128 0xc
 4166 0145 860A0000 		.4byte	.LASF25
 4167 0149 05       		.byte	0x5
 4168 014a 2E01     		.2byte	0x12e
 4169 014c 97000000 		.4byte	0x97
 4170 0150 14       		.byte	0x14
 4171 0151 0C       		.uleb128 0xc
 4172 0152 C0030000 		.4byte	.LASF26
 4173 0156 05       		.byte	0x5
 4174 0157 3301     		.2byte	0x133
 4175 0159 97000000 		.4byte	0x97
 4176 015d 15       		.byte	0x15
 4177 015e 0C       		.uleb128 0xc
 4178 015f 4D040000 		.4byte	.LASF27
 4179 0163 05       		.byte	0x5
 4180 0164 3601     		.2byte	0x136
 4181 0166 A3000000 		.4byte	0xa3
 4182 016a 18       		.byte	0x18
 4183 016b 00       		.byte	0
 4184 016c 05       		.uleb128 0x5
 4185 016d 37000000 		.4byte	.LASF28
 4186 0171 05       		.byte	0x5
 4187 0172 3701     		.2byte	0x137
ARM GAS  C:\Users\VIDEOH~1\AppData\Local\Temp\ccM4oHTP.s 			page 99


 4188 0174 FA000000 		.4byte	0xfa
 4189 0178 0D       		.uleb128 0xd
 4190 0179 0C       		.byte	0xc
 4191 017a 06       		.byte	0x6
 4192 017b 3E       		.byte	0x3e
 4193 017c A5010000 		.4byte	0x1a5
 4194 0180 0E       		.uleb128 0xe
 4195 0181 13050000 		.4byte	.LASF29
 4196 0185 06       		.byte	0x6
 4197 0186 3F       		.byte	0x3f
 4198 0187 73000000 		.4byte	0x73
 4199 018b 00       		.byte	0
 4200 018c 0E       		.uleb128 0xe
 4201 018d BA060000 		.4byte	.LASF30
 4202 0191 06       		.byte	0x6
 4203 0192 40       		.byte	0x40
 4204 0193 73000000 		.4byte	0x73
 4205 0197 04       		.byte	0x4
 4206 0198 0E       		.uleb128 0xe
 4207 0199 FB060000 		.4byte	.LASF31
 4208 019d 06       		.byte	0x6
 4209 019e 41       		.byte	0x41
 4210 019f 81000000 		.4byte	0x81
 4211 01a3 08       		.byte	0x8
 4212 01a4 00       		.byte	0
 4213 01a5 03       		.uleb128 0x3
 4214 01a6 50050000 		.4byte	.LASF32
 4215 01aa 06       		.byte	0x6
 4216 01ab 42       		.byte	0x42
 4217 01ac 78010000 		.4byte	0x178
 4218 01b0 0F       		.uleb128 0xf
 4219 01b1 01       		.byte	0x1
 4220 01b2 37000000 		.4byte	0x37
 4221 01b6 06       		.byte	0x6
 4222 01b7 46       		.byte	0x46
 4223 01b8 ED010000 		.4byte	0x1ed
 4224 01bc 10       		.uleb128 0x10
 4225 01bd E1040000 		.4byte	.LASF33
 4226 01c1 00       		.byte	0
 4227 01c2 10       		.uleb128 0x10
 4228 01c3 32050000 		.4byte	.LASF34
 4229 01c7 01       		.byte	0x1
 4230 01c8 10       		.uleb128 0x10
 4231 01c9 A4060000 		.4byte	.LASF35
 4232 01cd 02       		.byte	0x2
 4233 01ce 10       		.uleb128 0x10
 4234 01cf C2020000 		.4byte	.LASF36
 4235 01d3 03       		.byte	0x3
 4236 01d4 10       		.uleb128 0x10
 4237 01d5 400A0000 		.4byte	.LASF37
 4238 01d9 04       		.byte	0x4
 4239 01da 10       		.uleb128 0x10
 4240 01db 7F0B0000 		.4byte	.LASF38
 4241 01df 05       		.byte	0x5
 4242 01e0 10       		.uleb128 0x10
 4243 01e1 EE070000 		.4byte	.LASF39
 4244 01e5 06       		.byte	0x6
ARM GAS  C:\Users\VIDEOH~1\AppData\Local\Temp\ccM4oHTP.s 			page 100


 4245 01e6 10       		.uleb128 0x10
 4246 01e7 79040000 		.4byte	.LASF40
 4247 01eb 07       		.byte	0x7
 4248 01ec 00       		.byte	0
 4249 01ed 03       		.uleb128 0x3
 4250 01ee DC080000 		.4byte	.LASF41
 4251 01f2 06       		.byte	0x6
 4252 01f3 4F       		.byte	0x4f
 4253 01f4 B0010000 		.4byte	0x1b0
 4254 01f8 0D       		.uleb128 0xd
 4255 01f9 03       		.byte	0x3
 4256 01fa 06       		.byte	0x6
 4257 01fb 52       		.byte	0x52
 4258 01fc 0D020000 		.4byte	0x20d
 4259 0200 0E       		.uleb128 0xe
 4260 0201 23020000 		.4byte	.LASF42
 4261 0205 06       		.byte	0x6
 4262 0206 53       		.byte	0x53
 4263 0207 22020000 		.4byte	0x222
 4264 020b 00       		.byte	0
 4265 020c 00       		.byte	0
 4266 020d 09       		.uleb128 0x9
 4267 020e 1D020000 		.4byte	0x21d
 4268 0212 1D020000 		.4byte	0x21d
 4269 0216 0A       		.uleb128 0xa
 4270 0217 D0000000 		.4byte	0xd0
 4271 021b 02       		.byte	0x2
 4272 021c 00       		.byte	0
 4273 021d 08       		.uleb128 0x8
 4274 021e ED010000 		.4byte	0x1ed
 4275 0222 08       		.uleb128 0x8
 4276 0223 0D020000 		.4byte	0x20d
 4277 0227 03       		.uleb128 0x3
 4278 0228 6B080000 		.4byte	.LASF43
 4279 022c 06       		.byte	0x6
 4280 022d 54       		.byte	0x54
 4281 022e F8010000 		.4byte	0x1f8
 4282 0232 0D       		.uleb128 0xd
 4283 0233 03       		.byte	0x3
 4284 0234 06       		.byte	0x6
 4285 0235 58       		.byte	0x58
 4286 0236 46020000 		.4byte	0x246
 4287 023a 11       		.uleb128 0x11
 4288 023b 636300   		.ascii	"cc\000"
 4289 023e 06       		.byte	0x6
 4290 023f 59       		.byte	0x59
 4291 0240 27020000 		.4byte	0x227
 4292 0244 00       		.byte	0
 4293 0245 00       		.byte	0
 4294 0246 12       		.uleb128 0x12
 4295 0247 03       		.byte	0x3
 4296 0248 06       		.byte	0x6
 4297 0249 57       		.byte	0x57
 4298 024a 65020000 		.4byte	0x265
 4299 024e 13       		.uleb128 0x13
 4300 024f F5060000 		.4byte	.LASF44
 4301 0253 06       		.byte	0x6
ARM GAS  C:\Users\VIDEOH~1\AppData\Local\Temp\ccM4oHTP.s 			page 101


 4302 0254 5A       		.byte	0x5a
 4303 0255 32020000 		.4byte	0x232
 4304 0259 13       		.uleb128 0x13
 4305 025a BF080000 		.4byte	.LASF45
 4306 025e 06       		.byte	0x6
 4307 025f 5B       		.byte	0x5b
 4308 0260 65020000 		.4byte	0x265
 4309 0264 00       		.byte	0
 4310 0265 09       		.uleb128 0x9
 4311 0266 27020000 		.4byte	0x227
 4312 026a 75020000 		.4byte	0x275
 4313 026e 0A       		.uleb128 0xa
 4314 026f D0000000 		.4byte	0xd0
 4315 0273 00       		.byte	0
 4316 0274 00       		.byte	0
 4317 0275 03       		.uleb128 0x3
 4318 0276 9C010000 		.4byte	.LASF46
 4319 027a 06       		.byte	0x6
 4320 027b 5C       		.byte	0x5c
 4321 027c 46020000 		.4byte	0x246
 4322 0280 0D       		.uleb128 0xd
 4323 0281 24       		.byte	0x24
 4324 0282 06       		.byte	0x6
 4325 0283 5E       		.byte	0x5e
 4326 0284 F5020000 		.4byte	0x2f5
 4327 0288 0E       		.uleb128 0xe
 4328 0289 50080000 		.4byte	.LASF47
 4329 028d 06       		.byte	0x6
 4330 028e 5F       		.byte	0x5f
 4331 028f 73000000 		.4byte	0x73
 4332 0293 00       		.byte	0
 4333 0294 0E       		.uleb128 0xe
 4334 0295 0A040000 		.4byte	.LASF48
 4335 0299 06       		.byte	0x6
 4336 029a 60       		.byte	0x60
 4337 029b 73000000 		.4byte	0x73
 4338 029f 04       		.byte	0x4
 4339 02a0 0E       		.uleb128 0xe
 4340 02a1 92070000 		.4byte	.LASF49
 4341 02a5 06       		.byte	0x6
 4342 02a6 61       		.byte	0x61
 4343 02a7 73000000 		.4byte	0x73
 4344 02ab 08       		.byte	0x8
 4345 02ac 0E       		.uleb128 0xe
 4346 02ad DF090000 		.4byte	.LASF50
 4347 02b1 06       		.byte	0x6
 4348 02b2 62       		.byte	0x62
 4349 02b3 73000000 		.4byte	0x73
 4350 02b7 0C       		.byte	0xc
 4351 02b8 0E       		.uleb128 0xe
 4352 02b9 AF070000 		.4byte	.LASF51
 4353 02bd 06       		.byte	0x6
 4354 02be 64       		.byte	0x64
 4355 02bf 73000000 		.4byte	0x73
 4356 02c3 10       		.byte	0x10
 4357 02c4 0E       		.uleb128 0xe
 4358 02c5 CE060000 		.4byte	.LASF52
ARM GAS  C:\Users\VIDEOH~1\AppData\Local\Temp\ccM4oHTP.s 			page 102


 4359 02c9 06       		.byte	0x6
 4360 02ca 65       		.byte	0x65
 4361 02cb 73000000 		.4byte	0x73
 4362 02cf 14       		.byte	0x14
 4363 02d0 0E       		.uleb128 0xe
 4364 02d1 58050000 		.4byte	.LASF53
 4365 02d5 06       		.byte	0x6
 4366 02d6 67       		.byte	0x67
 4367 02d7 73000000 		.4byte	0x73
 4368 02db 18       		.byte	0x18
 4369 02dc 0E       		.uleb128 0xe
 4370 02dd 18000000 		.4byte	.LASF54
 4371 02e1 06       		.byte	0x6
 4372 02e2 68       		.byte	0x68
 4373 02e3 73000000 		.4byte	0x73
 4374 02e7 1C       		.byte	0x1c
 4375 02e8 0E       		.uleb128 0xe
 4376 02e9 8A030000 		.4byte	.LASF55
 4377 02ed 06       		.byte	0x6
 4378 02ee 6A       		.byte	0x6a
 4379 02ef 73000000 		.4byte	0x73
 4380 02f3 20       		.byte	0x20
 4381 02f4 00       		.byte	0
 4382 02f5 03       		.uleb128 0x3
 4383 02f6 36040000 		.4byte	.LASF56
 4384 02fa 06       		.byte	0x6
 4385 02fb 6B       		.byte	0x6b
 4386 02fc 80020000 		.4byte	0x280
 4387 0300 0D       		.uleb128 0xd
 4388 0301 30       		.byte	0x30
 4389 0302 06       		.byte	0x6
 4390 0303 6D       		.byte	0x6d
 4391 0304 39030000 		.4byte	0x339
 4392 0308 0E       		.uleb128 0xe
 4393 0309 B3000000 		.4byte	.LASF57
 4394 030d 06       		.byte	0x6
 4395 030e 6E       		.byte	0x6e
 4396 030f 81000000 		.4byte	0x81
 4397 0313 00       		.byte	0
 4398 0314 0E       		.uleb128 0xe
 4399 0315 99090000 		.4byte	.LASF58
 4400 0319 06       		.byte	0x6
 4401 031a 6F       		.byte	0x6f
 4402 031b 73000000 		.4byte	0x73
 4403 031f 04       		.byte	0x4
 4404 0320 0E       		.uleb128 0xe
 4405 0321 4C0C0000 		.4byte	.LASF59
 4406 0325 06       		.byte	0x6
 4407 0326 70       		.byte	0x70
 4408 0327 75020000 		.4byte	0x275
 4409 032b 08       		.byte	0x8
 4410 032c 0E       		.uleb128 0xe
 4411 032d 83050000 		.4byte	.LASF60
 4412 0331 06       		.byte	0x6
 4413 0332 71       		.byte	0x71
 4414 0333 F5020000 		.4byte	0x2f5
 4415 0337 0C       		.byte	0xc
ARM GAS  C:\Users\VIDEOH~1\AppData\Local\Temp\ccM4oHTP.s 			page 103


 4416 0338 00       		.byte	0
 4417 0339 03       		.uleb128 0x3
 4418 033a ED0B0000 		.4byte	.LASF61
 4419 033e 06       		.byte	0x6
 4420 033f 72       		.byte	0x72
 4421 0340 00030000 		.4byte	0x300
 4422 0344 0F       		.uleb128 0xf
 4423 0345 01       		.byte	0x1
 4424 0346 37000000 		.4byte	0x37
 4425 034a 06       		.byte	0x6
 4426 034b 86       		.byte	0x86
 4427 034c 63030000 		.4byte	0x363
 4428 0350 10       		.uleb128 0x10
 4429 0351 89090000 		.4byte	.LASF62
 4430 0355 00       		.byte	0
 4431 0356 10       		.uleb128 0x10
 4432 0357 52020000 		.4byte	.LASF63
 4433 035b 01       		.byte	0x1
 4434 035c 10       		.uleb128 0x10
 4435 035d 000C0000 		.4byte	.LASF64
 4436 0361 02       		.byte	0x2
 4437 0362 00       		.byte	0
 4438 0363 03       		.uleb128 0x3
 4439 0364 78010000 		.4byte	.LASF65
 4440 0368 07       		.byte	0x7
 4441 0369 61       		.byte	0x61
 4442 036a 5E000000 		.4byte	0x5e
 4443 036e 03       		.uleb128 0x3
 4444 036f 330A0000 		.4byte	.LASF66
 4445 0373 08       		.byte	0x8
 4446 0374 54       		.byte	0x54
 4447 0375 D7000000 		.4byte	0xd7
 4448 0379 0F       		.uleb128 0xf
 4449 037a 01       		.byte	0x1
 4450 037b 37000000 		.4byte	0x37
 4451 037f 09       		.byte	0x9
 4452 0380 17       		.byte	0x17
 4453 0381 B0030000 		.4byte	0x3b0
 4454 0385 10       		.uleb128 0x10
 4455 0386 6A060000 		.4byte	.LASF67
 4456 038a 00       		.byte	0
 4457 038b 10       		.uleb128 0x10
 4458 038c 89000000 		.4byte	.LASF68
 4459 0390 01       		.byte	0x1
 4460 0391 10       		.uleb128 0x10
 4461 0392 09020000 		.4byte	.LASF69
 4462 0396 02       		.byte	0x2
 4463 0397 10       		.uleb128 0x10
 4464 0398 08000000 		.4byte	.LASF70
 4465 039c 03       		.byte	0x3
 4466 039d 10       		.uleb128 0x10
 4467 039e 3C0B0000 		.4byte	.LASF71
 4468 03a2 04       		.byte	0x4
 4469 03a3 10       		.uleb128 0x10
 4470 03a4 B3020000 		.4byte	.LASF72
 4471 03a8 05       		.byte	0x5
 4472 03a9 10       		.uleb128 0x10
ARM GAS  C:\Users\VIDEOH~1\AppData\Local\Temp\ccM4oHTP.s 			page 104


 4473 03aa 6D0B0000 		.4byte	.LASF73
 4474 03ae 06       		.byte	0x6
 4475 03af 00       		.byte	0
 4476 03b0 03       		.uleb128 0x3
 4477 03b1 590B0000 		.4byte	.LASF74
 4478 03b5 09       		.byte	0x9
 4479 03b6 1F       		.byte	0x1f
 4480 03b7 79030000 		.4byte	0x379
 4481 03bb 0F       		.uleb128 0xf
 4482 03bc 01       		.byte	0x1
 4483 03bd 37000000 		.4byte	0x37
 4484 03c1 09       		.byte	0x9
 4485 03c2 21       		.byte	0x21
 4486 03c3 D4030000 		.4byte	0x3d4
 4487 03c7 10       		.uleb128 0x10
 4488 03c8 64010000 		.4byte	.LASF75
 4489 03cc 00       		.byte	0
 4490 03cd 10       		.uleb128 0x10
 4491 03ce 9E000000 		.4byte	.LASF76
 4492 03d2 01       		.byte	0x1
 4493 03d3 00       		.byte	0
 4494 03d4 03       		.uleb128 0x3
 4495 03d5 58070000 		.4byte	.LASF77
 4496 03d9 09       		.byte	0x9
 4497 03da 24       		.byte	0x24
 4498 03db BB030000 		.4byte	0x3bb
 4499 03df 0D       		.uleb128 0xd
 4500 03e0 10       		.byte	0x10
 4501 03e1 09       		.byte	0x9
 4502 03e2 26       		.byte	0x26
 4503 03e3 18040000 		.4byte	0x418
 4504 03e7 0E       		.uleb128 0xe
 4505 03e8 C0050000 		.4byte	.LASF78
 4506 03ec 09       		.byte	0x9
 4507 03ed 27       		.byte	0x27
 4508 03ee B0030000 		.4byte	0x3b0
 4509 03f2 00       		.byte	0
 4510 03f3 0E       		.uleb128 0xe
 4511 03f4 C4000000 		.4byte	.LASF79
 4512 03f8 09       		.byte	0x9
 4513 03f9 28       		.byte	0x28
 4514 03fa 73000000 		.4byte	0x73
 4515 03fe 04       		.byte	0x4
 4516 03ff 0E       		.uleb128 0xe
 4517 0400 9F020000 		.4byte	.LASF80
 4518 0404 09       		.byte	0x9
 4519 0405 29       		.byte	0x29
 4520 0406 63030000 		.4byte	0x363
 4521 040a 08       		.byte	0x8
 4522 040b 0E       		.uleb128 0xe
 4523 040c 44010000 		.4byte	.LASF81
 4524 0410 09       		.byte	0x9
 4525 0411 2A       		.byte	0x2a
 4526 0412 63030000 		.4byte	0x363
 4527 0416 0C       		.byte	0xc
 4528 0417 00       		.byte	0
 4529 0418 03       		.uleb128 0x3
ARM GAS  C:\Users\VIDEOH~1\AppData\Local\Temp\ccM4oHTP.s 			page 105


 4530 0419 D2020000 		.4byte	.LASF82
 4531 041d 09       		.byte	0x9
 4532 041e 2B       		.byte	0x2b
 4533 041f DF030000 		.4byte	0x3df
 4534 0423 07       		.uleb128 0x7
 4535 0424 04       		.byte	0x4
 4536 0425 29040000 		.4byte	0x429
 4537 0429 14       		.uleb128 0x14
 4538 042a 0D       		.uleb128 0xd
 4539 042b 08       		.byte	0x8
 4540 042c 01       		.byte	0x1
 4541 042d 1A       		.byte	0x1a
 4542 042e 4B040000 		.4byte	0x44b
 4543 0432 0E       		.uleb128 0xe
 4544 0433 97010000 		.4byte	.LASF83
 4545 0437 01       		.byte	0x1
 4546 0438 1B       		.byte	0x1b
 4547 0439 56040000 		.4byte	0x456
 4548 043d 00       		.byte	0
 4549 043e 0E       		.uleb128 0xe
 4550 043f 670B0000 		.4byte	.LASF84
 4551 0443 01       		.byte	0x1
 4552 0444 1C       		.byte	0x1c
 4553 0445 D9000000 		.4byte	0xd9
 4554 0449 04       		.byte	0x4
 4555 044a 00       		.byte	0
 4556 044b 15       		.uleb128 0x15
 4557 044c 56040000 		.4byte	0x456
 4558 0450 16       		.uleb128 0x16
 4559 0451 D9000000 		.4byte	0xd9
 4560 0455 00       		.byte	0
 4561 0456 07       		.uleb128 0x7
 4562 0457 04       		.byte	0x4
 4563 0458 4B040000 		.4byte	0x44b
 4564 045c 03       		.uleb128 0x3
 4565 045d E9010000 		.4byte	.LASF85
 4566 0461 01       		.byte	0x1
 4567 0462 1D       		.byte	0x1d
 4568 0463 2A040000 		.4byte	0x42a
 4569 0467 17       		.uleb128 0x17
 4570 0468 AB050000 		.4byte	.LASF216
 4571 046c 0C       		.byte	0xc
 4572 046d 01       		.byte	0x1
 4573 046e 1F       		.byte	0x1f
 4574 046f 98040000 		.4byte	0x498
 4575 0473 0E       		.uleb128 0xe
 4576 0474 97010000 		.4byte	.LASF83
 4577 0478 01       		.byte	0x1
 4578 0479 20       		.byte	0x20
 4579 047a A7040000 		.4byte	0x4a7
 4580 047e 00       		.byte	0
 4581 047f 11       		.uleb128 0x11
 4582 0480 61726700 		.ascii	"arg\000"
 4583 0484 01       		.byte	0x1
 4584 0485 21       		.byte	0x21
 4585 0486 23040000 		.4byte	0x423
 4586 048a 04       		.byte	0x4
ARM GAS  C:\Users\VIDEOH~1\AppData\Local\Temp\ccM4oHTP.s 			page 106


 4587 048b 0E       		.uleb128 0xe
 4588 048c 5C0A0000 		.4byte	.LASF86
 4589 0490 01       		.byte	0x1
 4590 0491 22       		.byte	0x22
 4591 0492 AD040000 		.4byte	0x4ad
 4592 0496 08       		.byte	0x8
 4593 0497 00       		.byte	0
 4594 0498 18       		.uleb128 0x18
 4595 0499 67040000 		.4byte	0x467
 4596 049d A7040000 		.4byte	0x4a7
 4597 04a1 16       		.uleb128 0x16
 4598 04a2 23040000 		.4byte	0x423
 4599 04a6 00       		.byte	0
 4600 04a7 07       		.uleb128 0x7
 4601 04a8 04       		.byte	0x4
 4602 04a9 98040000 		.4byte	0x498
 4603 04ad 08       		.uleb128 0x8
 4604 04ae AF000000 		.4byte	0xaf
 4605 04b2 03       		.uleb128 0x3
 4606 04b3 7F030000 		.4byte	.LASF87
 4607 04b7 01       		.byte	0x1
 4608 04b8 23       		.byte	0x23
 4609 04b9 67040000 		.4byte	0x467
 4610 04bd 0D       		.uleb128 0xd
 4611 04be 10       		.byte	0x10
 4612 04bf 01       		.byte	0x1
 4613 04c0 29       		.byte	0x29
 4614 04c1 DE040000 		.4byte	0x4de
 4615 04c5 0E       		.uleb128 0xe
 4616 04c6 A3030000 		.4byte	.LASF88
 4617 04ca 01       		.byte	0x1
 4618 04cb 2A       		.byte	0x2a
 4619 04cc DF000000 		.4byte	0xdf
 4620 04d0 00       		.byte	0
 4621 04d1 0E       		.uleb128 0xe
 4622 04d2 AF010000 		.4byte	.LASF89
 4623 04d6 01       		.byte	0x1
 4624 04d7 2B       		.byte	0x2b
 4625 04d8 DE040000 		.4byte	0x4de
 4626 04dc 04       		.byte	0x4
 4627 04dd 00       		.byte	0
 4628 04de 08       		.uleb128 0x8
 4629 04df B2040000 		.4byte	0x4b2
 4630 04e3 03       		.uleb128 0x3
 4631 04e4 90060000 		.4byte	.LASF90
 4632 04e8 01       		.byte	0x1
 4633 04e9 2C       		.byte	0x2c
 4634 04ea BD040000 		.4byte	0x4bd
 4635 04ee 0D       		.uleb128 0xd
 4636 04ef 04       		.byte	0x4
 4637 04f0 01       		.byte	0x1
 4638 04f1 2E       		.byte	0x2e
 4639 04f2 0F050000 		.4byte	0x50f
 4640 04f6 0E       		.uleb128 0xe
 4641 04f7 2C020000 		.4byte	.LASF91
 4642 04fb 01       		.byte	0x1
 4643 04fc 2F       		.byte	0x2f
ARM GAS  C:\Users\VIDEOH~1\AppData\Local\Temp\ccM4oHTP.s 			page 107


 4644 04fd DF000000 		.4byte	0xdf
 4645 0501 00       		.byte	0
 4646 0502 0E       		.uleb128 0xe
 4647 0503 E8070000 		.4byte	.LASF92
 4648 0507 01       		.byte	0x1
 4649 0508 30       		.byte	0x30
 4650 0509 23050000 		.4byte	0x523
 4651 050d 04       		.byte	0x4
 4652 050e 00       		.byte	0
 4653 050f 09       		.uleb128 0x9
 4654 0510 1E050000 		.4byte	0x51e
 4655 0514 1E050000 		.4byte	0x51e
 4656 0518 19       		.uleb128 0x19
 4657 0519 D0000000 		.4byte	0xd0
 4658 051d 00       		.byte	0
 4659 051e 08       		.uleb128 0x8
 4660 051f E3040000 		.4byte	0x4e3
 4661 0523 08       		.uleb128 0x8
 4662 0524 0F050000 		.4byte	0x50f
 4663 0528 03       		.uleb128 0x3
 4664 0529 07010000 		.4byte	.LASF93
 4665 052d 01       		.byte	0x1
 4666 052e 31       		.byte	0x31
 4667 052f EE040000 		.4byte	0x4ee
 4668 0533 03       		.uleb128 0x3
 4669 0534 ED080000 		.4byte	.LASF94
 4670 0538 01       		.byte	0x1
 4671 0539 39       		.byte	0x39
 4672 053a 3E050000 		.4byte	0x53e
 4673 053e 07       		.uleb128 0x7
 4674 053f 04       		.byte	0x4
 4675 0540 44050000 		.4byte	0x544
 4676 0544 1A       		.uleb128 0x1a
 4677 0545 4B050000 		.4byte	0x54b
 4678 0549 1B       		.uleb128 0x1b
 4679 054a 00       		.byte	0
 4680 054b 1C       		.uleb128 0x1c
 4681 054c F7080000 		.4byte	.LASF105
 4682 0550 01       		.byte	0x1
 4683 0551 DA01     		.2byte	0x1da
 4684 0553 B2040000 		.4byte	0x4b2
 4685 0557 00000000 		.4byte	.LFB52
 4686 055b 12000000 		.4byte	.LFE52-.LFB52
 4687 055f 01       		.uleb128 0x1
 4688 0560 9C       		.byte	0x9c
 4689 0561 7F050000 		.4byte	0x57f
 4690 0565 1D       		.uleb128 0x1d
 4691 0566 61726700 		.ascii	"arg\000"
 4692 056a 01       		.byte	0x1
 4693 056b DA01     		.2byte	0x1da
 4694 056d 23040000 		.4byte	0x423
 4695 0571 00000000 		.4byte	.LLST0
 4696 0575 1E       		.uleb128 0x1e
 4697 0576 06000000 		.4byte	.LVL1
 4698 057a 03       		.uleb128 0x3
 4699 057b F3       		.byte	0xf3
 4700 057c 01       		.uleb128 0x1
ARM GAS  C:\Users\VIDEOH~1\AppData\Local\Temp\ccM4oHTP.s 			page 108


 4701 057d 51       		.byte	0x51
 4702 057e 00       		.byte	0
 4703 057f 1F       		.uleb128 0x1f
 4704 0580 670C0000 		.4byte	.LASF96
 4705 0584 01       		.byte	0x1
 4706 0585 A701     		.2byte	0x1a7
 4707 0587 00000000 		.4byte	.LFB50
 4708 058b 20000000 		.4byte	.LFE50-.LFB50
 4709 058f 01       		.uleb128 0x1
 4710 0590 9C       		.byte	0x9c
 4711 0591 E2050000 		.4byte	0x5e2
 4712 0595 20       		.uleb128 0x20
 4713 0596 63070000 		.4byte	.LASF95
 4714 059a 01       		.byte	0x1
 4715 059b A701     		.2byte	0x1a7
 4716 059d 81000000 		.4byte	0x81
 4717 05a1 21000000 		.4byte	.LLST1
 4718 05a5 21       		.uleb128 0x21
 4719 05a6 0A000000 		.4byte	.LBB2
 4720 05aa 14000000 		.4byte	.LBE2-.LBB2
 4721 05ae D2050000 		.4byte	0x5d2
 4722 05b2 22       		.uleb128 0x22
 4723 05b3 6900     		.ascii	"i\000"
 4724 05b5 01       		.byte	0x1
 4725 05b6 AA01     		.2byte	0x1aa
 4726 05b8 81000000 		.4byte	0x81
 4727 05bc 42000000 		.4byte	.LLST2
 4728 05c0 23       		.uleb128 0x23
 4729 05c1 16000000 		.4byte	.LVL7
 4730 05c5 BB230000 		.4byte	0x23bb
 4731 05c9 24       		.uleb128 0x24
 4732 05ca 01       		.uleb128 0x1
 4733 05cb 50       		.byte	0x50
 4734 05cc 03       		.uleb128 0x3
 4735 05cd 0A       		.byte	0xa
 4736 05ce E803     		.2byte	0x3e8
 4737 05d0 00       		.byte	0
 4738 05d1 00       		.byte	0
 4739 05d2 23       		.uleb128 0x23
 4740 05d3 0A000000 		.4byte	.LVL5
 4741 05d7 C6230000 		.4byte	0x23c6
 4742 05db 24       		.uleb128 0x24
 4743 05dc 01       		.uleb128 0x1
 4744 05dd 50       		.byte	0x50
 4745 05de 01       		.uleb128 0x1
 4746 05df 38       		.byte	0x38
 4747 05e0 00       		.byte	0
 4748 05e1 00       		.byte	0
 4749 05e2 25       		.uleb128 0x25
 4750 05e3 8D040000 		.4byte	.LASF97
 4751 05e7 01       		.byte	0x1
 4752 05e8 E8       		.byte	0xe8
 4753 05e9 00000000 		.4byte	.LFB36
 4754 05ed 4C000000 		.4byte	.LFE36-.LFB36
 4755 05f1 01       		.uleb128 0x1
 4756 05f2 9C       		.byte	0x9c
 4757 05f3 69060000 		.4byte	0x669
ARM GAS  C:\Users\VIDEOH~1\AppData\Local\Temp\ccM4oHTP.s 			page 109


 4758 05f7 26       		.uleb128 0x26
 4759 05f8 6E756D00 		.ascii	"num\000"
 4760 05fc 01       		.byte	0x1
 4761 05fd E8       		.byte	0xe8
 4762 05fe 73000000 		.4byte	0x73
 4763 0602 6C000000 		.4byte	.LLST3
 4764 0606 27       		.uleb128 0x27
 4765 0607 5D080000 		.4byte	.LASF98
 4766 060b 01       		.byte	0x1
 4767 060c E8       		.byte	0xe8
 4768 060d DF000000 		.4byte	0xdf
 4769 0611 A0000000 		.4byte	.LLST4
 4770 0615 26       		.uleb128 0x26
 4771 0616 6F757400 		.ascii	"out\000"
 4772 061a 01       		.byte	0x1
 4773 061b E8       		.byte	0xe8
 4774 061c D9000000 		.4byte	0xd9
 4775 0620 CC000000 		.4byte	.LLST5
 4776 0624 28       		.uleb128 0x28
 4777 0625 85070000 		.4byte	.LASF99
 4778 0629 01       		.byte	0x1
 4779 062a EB       		.byte	0xeb
 4780 062b 73000000 		.4byte	0x73
 4781 062f F8000000 		.4byte	.LLST6
 4782 0633 28       		.uleb128 0x28
 4783 0634 FF010000 		.4byte	.LASF100
 4784 0638 01       		.byte	0x1
 4785 0639 EB       		.byte	0xeb
 4786 063a 73000000 		.4byte	0x73
 4787 063e 16010000 		.4byte	.LLST7
 4788 0642 23       		.uleb128 0x23
 4789 0643 3E000000 		.4byte	.LVL23
 4790 0647 D1230000 		.4byte	0x23d1
 4791 064b 24       		.uleb128 0x24
 4792 064c 01       		.uleb128 0x1
 4793 064d 50       		.byte	0x50
 4794 064e 02       		.uleb128 0x2
 4795 064f 75       		.byte	0x75
 4796 0650 00       		.sleb128 0
 4797 0651 24       		.uleb128 0x24
 4798 0652 01       		.uleb128 0x1
 4799 0653 51       		.byte	0x51
 4800 0654 05       		.uleb128 0x5
 4801 0655 03       		.byte	0x3
 4802 0656 00000000 		.4byte	.LC2
 4803 065a 24       		.uleb128 0x24
 4804 065b 01       		.uleb128 0x1
 4805 065c 52       		.byte	0x52
 4806 065d 02       		.uleb128 0x2
 4807 065e 74       		.byte	0x74
 4808 065f 00       		.sleb128 0
 4809 0660 24       		.uleb128 0x24
 4810 0661 02       		.uleb128 0x2
 4811 0662 7D       		.byte	0x7d
 4812 0663 00       		.sleb128 0
 4813 0664 02       		.uleb128 0x2
 4814 0665 77       		.byte	0x77
ARM GAS  C:\Users\VIDEOH~1\AppData\Local\Temp\ccM4oHTP.s 			page 110


 4815 0666 00       		.sleb128 0
 4816 0667 00       		.byte	0
 4817 0668 00       		.byte	0
 4818 0669 29       		.uleb128 0x29
 4819 066a 24050000 		.4byte	.LASF103
 4820 066e 01       		.byte	0x1
 4821 066f 3D01     		.2byte	0x13d
 4822 0671 00000000 		.4byte	.LFB40
 4823 0675 10000000 		.4byte	.LFE40-.LFB40
 4824 0679 01       		.uleb128 0x1
 4825 067a 9C       		.byte	0x9c
 4826 067b AF060000 		.4byte	0x6af
 4827 067f 1D       		.uleb128 0x1d
 4828 0680 62756600 		.ascii	"buf\000"
 4829 0684 01       		.byte	0x1
 4830 0685 3D01     		.2byte	0x13d
 4831 0687 D9000000 		.4byte	0xd9
 4832 068b 34010000 		.4byte	.LLST8
 4833 068f 23       		.uleb128 0x23
 4834 0690 0A000000 		.4byte	.LVL29
 4835 0694 DC230000 		.4byte	0x23dc
 4836 0698 24       		.uleb128 0x24
 4837 0699 01       		.uleb128 0x1
 4838 069a 50       		.byte	0x50
 4839 069b 03       		.uleb128 0x3
 4840 069c F3       		.byte	0xf3
 4841 069d 01       		.uleb128 0x1
 4842 069e 50       		.byte	0x50
 4843 069f 24       		.uleb128 0x24
 4844 06a0 01       		.uleb128 0x1
 4845 06a1 51       		.byte	0x51
 4846 06a2 05       		.uleb128 0x5
 4847 06a3 03       		.byte	0x3
 4848 06a4 0C000000 		.4byte	.LC4
 4849 06a8 24       		.uleb128 0x24
 4850 06a9 01       		.uleb128 0x1
 4851 06aa 52       		.byte	0x52
 4852 06ab 01       		.uleb128 0x1
 4853 06ac 37       		.byte	0x37
 4854 06ad 00       		.byte	0
 4855 06ae 00       		.byte	0
 4856 06af 25       		.uleb128 0x25
 4857 06b0 29000000 		.4byte	.LASF101
 4858 06b4 01       		.byte	0x1
 4859 06b5 C9       		.byte	0xc9
 4860 06b6 00000000 		.4byte	.LFB35
 4861 06ba CC000000 		.4byte	.LFE35-.LFB35
 4862 06be 01       		.uleb128 0x1
 4863 06bf 9C       		.byte	0x9c
 4864 06c0 1A080000 		.4byte	0x81a
 4865 06c4 26       		.uleb128 0x26
 4866 06c5 6E756D00 		.ascii	"num\000"
 4867 06c9 01       		.byte	0x1
 4868 06ca C9       		.byte	0xc9
 4869 06cb 73000000 		.4byte	0x73
 4870 06cf 55010000 		.4byte	.LLST9
 4871 06d3 27       		.uleb128 0x27
ARM GAS  C:\Users\VIDEOH~1\AppData\Local\Temp\ccM4oHTP.s 			page 111


 4872 06d4 5D080000 		.4byte	.LASF98
 4873 06d8 01       		.byte	0x1
 4874 06d9 C9       		.byte	0xc9
 4875 06da DF000000 		.4byte	0xdf
 4876 06de 89010000 		.4byte	.LLST10
 4877 06e2 26       		.uleb128 0x26
 4878 06e3 6F757400 		.ascii	"out\000"
 4879 06e7 01       		.byte	0x1
 4880 06e8 C9       		.byte	0xc9
 4881 06e9 D9000000 		.4byte	0xd9
 4882 06ed A8010000 		.4byte	.LLST11
 4883 06f1 28       		.uleb128 0x28
 4884 06f2 5D0C0000 		.4byte	.LASF102
 4885 06f6 01       		.byte	0x1
 4886 06f7 CD       		.byte	0xcd
 4887 06f8 73000000 		.4byte	0x73
 4888 06fc D4010000 		.4byte	.LLST12
 4889 0700 28       		.uleb128 0x28
 4890 0701 85070000 		.4byte	.LASF99
 4891 0705 01       		.byte	0x1
 4892 0706 D3       		.byte	0xd3
 4893 0707 73000000 		.4byte	0x73
 4894 070b E7010000 		.4byte	.LLST13
 4895 070f 28       		.uleb128 0x28
 4896 0710 FF010000 		.4byte	.LASF100
 4897 0714 01       		.byte	0x1
 4898 0715 D3       		.byte	0xd3
 4899 0716 73000000 		.4byte	0x73
 4900 071a 05020000 		.4byte	.LLST14
 4901 071e 2A       		.uleb128 0x2a
 4902 071f 56000000 		.4byte	.LVL41
 4903 0723 D1230000 		.4byte	0x23d1
 4904 0727 41070000 		.4byte	0x741
 4905 072b 24       		.uleb128 0x24
 4906 072c 01       		.uleb128 0x1
 4907 072d 50       		.byte	0x50
 4908 072e 02       		.uleb128 0x2
 4909 072f 76       		.byte	0x76
 4910 0730 00       		.sleb128 0
 4911 0731 24       		.uleb128 0x24
 4912 0732 01       		.uleb128 0x1
 4913 0733 51       		.byte	0x51
 4914 0734 05       		.uleb128 0x5
 4915 0735 03       		.byte	0x3
 4916 0736 14000000 		.4byte	.LC6
 4917 073a 24       		.uleb128 0x24
 4918 073b 01       		.uleb128 0x1
 4919 073c 52       		.byte	0x52
 4920 073d 02       		.uleb128 0x2
 4921 073e 77       		.byte	0x77
 4922 073f 00       		.sleb128 0
 4923 0740 00       		.byte	0
 4924 0741 2A       		.uleb128 0x2a
 4925 0742 6E000000 		.4byte	.LVL44
 4926 0746 D1230000 		.4byte	0x23d1
 4927 074a 64070000 		.4byte	0x764
 4928 074e 24       		.uleb128 0x24
ARM GAS  C:\Users\VIDEOH~1\AppData\Local\Temp\ccM4oHTP.s 			page 112


 4929 074f 01       		.uleb128 0x1
 4930 0750 50       		.byte	0x50
 4931 0751 02       		.uleb128 0x2
 4932 0752 76       		.byte	0x76
 4933 0753 00       		.sleb128 0
 4934 0754 24       		.uleb128 0x24
 4935 0755 01       		.uleb128 0x1
 4936 0756 51       		.byte	0x51
 4937 0757 05       		.uleb128 0x5
 4938 0758 03       		.byte	0x3
 4939 0759 20000000 		.4byte	.LC8
 4940 075d 24       		.uleb128 0x24
 4941 075e 01       		.uleb128 0x1
 4942 075f 52       		.byte	0x52
 4943 0760 02       		.uleb128 0x2
 4944 0761 77       		.byte	0x77
 4945 0762 00       		.sleb128 0
 4946 0763 00       		.byte	0
 4947 0764 2A       		.uleb128 0x2a
 4948 0765 7A000000 		.4byte	.LVL47
 4949 0769 D1230000 		.4byte	0x23d1
 4950 076d 87070000 		.4byte	0x787
 4951 0771 24       		.uleb128 0x24
 4952 0772 01       		.uleb128 0x1
 4953 0773 50       		.byte	0x50
 4954 0774 02       		.uleb128 0x2
 4955 0775 76       		.byte	0x76
 4956 0776 00       		.sleb128 0
 4957 0777 24       		.uleb128 0x24
 4958 0778 01       		.uleb128 0x1
 4959 0779 51       		.byte	0x51
 4960 077a 05       		.uleb128 0x5
 4961 077b 03       		.byte	0x3
 4962 077c 2C000000 		.4byte	.LC10
 4963 0780 24       		.uleb128 0x24
 4964 0781 01       		.uleb128 0x1
 4965 0782 52       		.byte	0x52
 4966 0783 02       		.uleb128 0x2
 4967 0784 77       		.byte	0x77
 4968 0785 00       		.sleb128 0
 4969 0786 00       		.byte	0
 4970 0787 2A       		.uleb128 0x2a
 4971 0788 84000000 		.4byte	.LVL48
 4972 078c E5230000 		.4byte	0x23e5
 4973 0790 9B070000 		.4byte	0x79b
 4974 0794 24       		.uleb128 0x24
 4975 0795 01       		.uleb128 0x1
 4976 0796 50       		.byte	0x50
 4977 0797 02       		.uleb128 0x2
 4978 0798 76       		.byte	0x76
 4979 0799 00       		.sleb128 0
 4980 079a 00       		.byte	0
 4981 079b 2A       		.uleb128 0x2a
 4982 079c 8E000000 		.4byte	.LVL49
 4983 07a0 DC230000 		.4byte	0x23dc
 4984 07a4 B7070000 		.4byte	0x7b7
 4985 07a8 24       		.uleb128 0x24
ARM GAS  C:\Users\VIDEOH~1\AppData\Local\Temp\ccM4oHTP.s 			page 113


 4986 07a9 01       		.uleb128 0x1
 4987 07aa 51       		.byte	0x51
 4988 07ab 05       		.uleb128 0x5
 4989 07ac 03       		.byte	0x3
 4990 07ad 34000000 		.4byte	.LC12
 4991 07b1 24       		.uleb128 0x24
 4992 07b2 01       		.uleb128 0x1
 4993 07b3 52       		.byte	0x52
 4994 07b4 01       		.uleb128 0x1
 4995 07b5 32       		.byte	0x32
 4996 07b6 00       		.byte	0
 4997 07b7 2A       		.uleb128 0x2a
 4998 07b8 96000000 		.4byte	.LVL50
 4999 07bc F4230000 		.4byte	0x23f4
 5000 07c0 D2070000 		.4byte	0x7d2
 5001 07c4 24       		.uleb128 0x24
 5002 07c5 01       		.uleb128 0x1
 5003 07c6 50       		.byte	0x50
 5004 07c7 02       		.uleb128 0x2
 5005 07c8 76       		.byte	0x76
 5006 07c9 00       		.sleb128 0
 5007 07ca 24       		.uleb128 0x24
 5008 07cb 01       		.uleb128 0x1
 5009 07cc 51       		.byte	0x51
 5010 07cd 03       		.uleb128 0x3
 5011 07ce 91       		.byte	0x91
 5012 07cf 64       		.sleb128 -28
 5013 07d0 06       		.byte	0x6
 5014 07d1 00       		.byte	0
 5015 07d2 2A       		.uleb128 0x2a
 5016 07d3 A0000000 		.4byte	.LVL51
 5017 07d7 F4230000 		.4byte	0x23f4
 5018 07db ED070000 		.4byte	0x7ed
 5019 07df 24       		.uleb128 0x24
 5020 07e0 01       		.uleb128 0x1
 5021 07e1 50       		.byte	0x50
 5022 07e2 02       		.uleb128 0x2
 5023 07e3 76       		.byte	0x76
 5024 07e4 00       		.sleb128 0
 5025 07e5 24       		.uleb128 0x24
 5026 07e6 01       		.uleb128 0x1
 5027 07e7 51       		.byte	0x51
 5028 07e8 03       		.uleb128 0x3
 5029 07e9 91       		.byte	0x91
 5030 07ea 64       		.sleb128 -28
 5031 07eb 06       		.byte	0x6
 5032 07ec 00       		.byte	0
 5033 07ed 2A       		.uleb128 0x2a
 5034 07ee A6000000 		.4byte	.LVL52
 5035 07f2 E5230000 		.4byte	0x23e5
 5036 07f6 01080000 		.4byte	0x801
 5037 07fa 24       		.uleb128 0x24
 5038 07fb 01       		.uleb128 0x1
 5039 07fc 50       		.byte	0x50
 5040 07fd 02       		.uleb128 0x2
 5041 07fe 76       		.byte	0x76
 5042 07ff 00       		.sleb128 0
ARM GAS  C:\Users\VIDEOH~1\AppData\Local\Temp\ccM4oHTP.s 			page 114


 5043 0800 00       		.byte	0
 5044 0801 23       		.uleb128 0x23
 5045 0802 B0000000 		.4byte	.LVL53
 5046 0806 DC230000 		.4byte	0x23dc
 5047 080a 24       		.uleb128 0x24
 5048 080b 01       		.uleb128 0x1
 5049 080c 51       		.byte	0x51
 5050 080d 05       		.uleb128 0x5
 5051 080e 03       		.byte	0x3
 5052 080f 38000000 		.4byte	.LC14
 5053 0813 24       		.uleb128 0x24
 5054 0814 01       		.uleb128 0x1
 5055 0815 52       		.byte	0x52
 5056 0816 01       		.uleb128 0x1
 5057 0817 32       		.byte	0x32
 5058 0818 00       		.byte	0
 5059 0819 00       		.byte	0
 5060 081a 29       		.uleb128 0x29
 5061 081b D20C0000 		.4byte	.LASF104
 5062 081f 01       		.byte	0x1
 5063 0820 4901     		.2byte	0x149
 5064 0822 00000000 		.4byte	.LFB43
 5065 0826 18000000 		.4byte	.LFE43-.LFB43
 5066 082a 01       		.uleb128 0x1
 5067 082b 9C       		.byte	0x9c
 5068 082c 63080000 		.4byte	0x863
 5069 0830 1D       		.uleb128 0x1d
 5070 0831 62756600 		.ascii	"buf\000"
 5071 0835 01       		.byte	0x1
 5072 0836 4901     		.2byte	0x149
 5073 0838 D9000000 		.4byte	0xd9
 5074 083c 2E020000 		.4byte	.LLST15
 5075 0840 2B       		.uleb128 0x2b
 5076 0841 08000000 		.4byte	.LVL59
 5077 0845 FF230000 		.4byte	0x23ff
 5078 0849 23       		.uleb128 0x23
 5079 084a 10000000 		.4byte	.LVL60
 5080 084e AF060000 		.4byte	0x6af
 5081 0852 24       		.uleb128 0x24
 5082 0853 01       		.uleb128 0x1
 5083 0854 51       		.byte	0x51
 5084 0855 05       		.uleb128 0x5
 5085 0856 03       		.byte	0x3
 5086 0857 3C000000 		.4byte	.LC16
 5087 085b 24       		.uleb128 0x24
 5088 085c 01       		.uleb128 0x1
 5089 085d 52       		.byte	0x52
 5090 085e 02       		.uleb128 0x2
 5091 085f 74       		.byte	0x74
 5092 0860 00       		.sleb128 0
 5093 0861 00       		.byte	0
 5094 0862 00       		.byte	0
 5095 0863 1C       		.uleb128 0x1c
 5096 0864 6B070000 		.4byte	.LASF106
 5097 0868 01       		.byte	0x1
 5098 0869 5003     		.2byte	0x350
 5099 086b B2040000 		.4byte	0x4b2
ARM GAS  C:\Users\VIDEOH~1\AppData\Local\Temp\ccM4oHTP.s 			page 115


 5100 086f 00000000 		.4byte	.LFB65
 5101 0873 48000000 		.4byte	.LFE65-.LFB65
 5102 0877 01       		.uleb128 0x1
 5103 0878 9C       		.byte	0x9c
 5104 0879 12090000 		.4byte	0x912
 5105 087d 1D       		.uleb128 0x1d
 5106 087e 61726700 		.ascii	"arg\000"
 5107 0882 01       		.byte	0x1
 5108 0883 5003     		.2byte	0x350
 5109 0885 23040000 		.4byte	0x423
 5110 0889 5A020000 		.4byte	.LLST16
 5111 088d 2B       		.uleb128 0x2b
 5112 088e 08000000 		.4byte	.LVL63
 5113 0892 0A240000 		.4byte	0x240a
 5114 0896 2A       		.uleb128 0x2a
 5115 0897 14000000 		.4byte	.LVL64
 5116 089b 15240000 		.4byte	0x2415
 5117 089f BC080000 		.4byte	0x8bc
 5118 08a3 24       		.uleb128 0x24
 5119 08a4 01       		.uleb128 0x1
 5120 08a5 50       		.byte	0x50
 5121 08a6 01       		.uleb128 0x1
 5122 08a7 30       		.byte	0x30
 5123 08a8 24       		.uleb128 0x24
 5124 08a9 01       		.uleb128 0x1
 5125 08aa 51       		.byte	0x51
 5126 08ab 01       		.uleb128 0x1
 5127 08ac 30       		.byte	0x30
 5128 08ad 24       		.uleb128 0x24
 5129 08ae 01       		.uleb128 0x1
 5130 08af 52       		.byte	0x52
 5131 08b0 05       		.uleb128 0x5
 5132 08b1 03       		.byte	0x3
 5133 08b2 40000000 		.4byte	.LC18
 5134 08b6 24       		.uleb128 0x24
 5135 08b7 01       		.uleb128 0x1
 5136 08b8 53       		.byte	0x53
 5137 08b9 01       		.uleb128 0x1
 5138 08ba 31       		.byte	0x31
 5139 08bb 00       		.byte	0
 5140 08bc 2A       		.uleb128 0x2a
 5141 08bd 20000000 		.4byte	.LVL65
 5142 08c1 15240000 		.4byte	0x2415
 5143 08c5 E2080000 		.4byte	0x8e2
 5144 08c9 24       		.uleb128 0x24
 5145 08ca 01       		.uleb128 0x1
 5146 08cb 50       		.byte	0x50
 5147 08cc 01       		.uleb128 0x1
 5148 08cd 34       		.byte	0x34
 5149 08ce 24       		.uleb128 0x24
 5150 08cf 01       		.uleb128 0x1
 5151 08d0 51       		.byte	0x51
 5152 08d1 01       		.uleb128 0x1
 5153 08d2 30       		.byte	0x30
 5154 08d3 24       		.uleb128 0x24
 5155 08d4 01       		.uleb128 0x1
 5156 08d5 52       		.byte	0x52
ARM GAS  C:\Users\VIDEOH~1\AppData\Local\Temp\ccM4oHTP.s 			page 116


 5157 08d6 05       		.uleb128 0x5
 5158 08d7 03       		.byte	0x3
 5159 08d8 50000000 		.4byte	.LC20
 5160 08dc 24       		.uleb128 0x24
 5161 08dd 01       		.uleb128 0x1
 5162 08de 53       		.byte	0x53
 5163 08df 01       		.uleb128 0x1
 5164 08e0 30       		.byte	0x30
 5165 08e1 00       		.byte	0
 5166 08e2 2A       		.uleb128 0x2a
 5167 08e3 2C000000 		.4byte	.LVL66
 5168 08e7 15240000 		.4byte	0x2415
 5169 08eb 08090000 		.4byte	0x908
 5170 08ef 24       		.uleb128 0x24
 5171 08f0 01       		.uleb128 0x1
 5172 08f1 50       		.byte	0x50
 5173 08f2 01       		.uleb128 0x1
 5174 08f3 36       		.byte	0x36
 5175 08f4 24       		.uleb128 0x24
 5176 08f5 01       		.uleb128 0x1
 5177 08f6 51       		.byte	0x51
 5178 08f7 01       		.uleb128 0x1
 5179 08f8 30       		.byte	0x30
 5180 08f9 24       		.uleb128 0x24
 5181 08fa 01       		.uleb128 0x1
 5182 08fb 52       		.byte	0x52
 5183 08fc 05       		.uleb128 0x5
 5184 08fd 03       		.byte	0x3
 5185 08fe 60000000 		.4byte	.LC22
 5186 0902 24       		.uleb128 0x24
 5187 0903 01       		.uleb128 0x1
 5188 0904 53       		.byte	0x53
 5189 0905 01       		.uleb128 0x1
 5190 0906 30       		.byte	0x30
 5191 0907 00       		.byte	0
 5192 0908 2B       		.uleb128 0x2b
 5193 0909 30000000 		.4byte	.LVL67
 5194 090d 20240000 		.4byte	0x2420
 5195 0911 00       		.byte	0
 5196 0912 2C       		.uleb128 0x2c
 5197 0913 FF030000 		.4byte	.LASF107
 5198 0917 01       		.byte	0x1
 5199 0918 F8       		.byte	0xf8
 5200 0919 00000000 		.4byte	.LFB38
 5201 091d A0000000 		.4byte	.LFE38-.LFB38
 5202 0921 01       		.uleb128 0x1
 5203 0922 9C       		.byte	0x9c
 5204 0923 C5090000 		.4byte	0x9c5
 5205 0927 27       		.uleb128 0x27
 5206 0928 6E020000 		.4byte	.LASF108
 5207 092c 01       		.byte	0x1
 5208 092d F8       		.byte	0xf8
 5209 092e C5090000 		.4byte	0x9c5
 5210 0932 7B020000 		.4byte	.LLST17
 5211 0936 2D       		.uleb128 0x2d
 5212 0937 04080000 		.4byte	.LASF109
 5213 093b 01       		.byte	0x1
ARM GAS  C:\Users\VIDEOH~1\AppData\Local\Temp\ccM4oHTP.s 			page 117


 5214 093c F9       		.byte	0xf9
 5215 093d 63030000 		.4byte	0x363
 5216 0941 05       		.uleb128 0x5
 5217 0942 03       		.byte	0x3
 5218 0943 04000000 		.4byte	last_tick.7741
 5219 0947 2D       		.uleb128 0x2d
 5220 0948 8F0C0000 		.4byte	.LASF110
 5221 094c 01       		.byte	0x1
 5222 094d FA       		.byte	0xfa
 5223 094e 97000000 		.4byte	0x97
 5224 0952 05       		.uleb128 0x5
 5225 0953 03       		.byte	0x3
 5226 0954 00000000 		.4byte	long_press_sent.7742
 5227 0958 2E       		.uleb128 0x2e
 5228 0959 6E6F7700 		.ascii	"now\000"
 5229 095d 01       		.byte	0x1
 5230 095e FC       		.byte	0xfc
 5231 095f 63030000 		.4byte	0x363
 5232 0963 A7020000 		.4byte	.LLST18
 5233 0967 2B       		.uleb128 0x2b
 5234 0968 0A000000 		.4byte	.LVL70
 5235 096c 2B240000 		.4byte	0x242b
 5236 0970 2A       		.uleb128 0x2a
 5237 0971 48000000 		.4byte	.LVL73
 5238 0975 37240000 		.4byte	0x2437
 5239 0979 89090000 		.4byte	0x989
 5240 097d 24       		.uleb128 0x24
 5241 097e 01       		.uleb128 0x1
 5242 097f 51       		.byte	0x51
 5243 0980 02       		.uleb128 0x2
 5244 0981 75       		.byte	0x75
 5245 0982 00       		.sleb128 0
 5246 0983 24       		.uleb128 0x24
 5247 0984 01       		.uleb128 0x1
 5248 0985 53       		.byte	0x53
 5249 0986 01       		.uleb128 0x1
 5250 0987 30       		.byte	0x30
 5251 0988 00       		.byte	0
 5252 0989 2A       		.uleb128 0x2a
 5253 098a 5C000000 		.4byte	.LVL74
 5254 098e C6230000 		.4byte	0x23c6
 5255 0992 9C090000 		.4byte	0x99c
 5256 0996 24       		.uleb128 0x24
 5257 0997 01       		.uleb128 0x1
 5258 0998 50       		.byte	0x50
 5259 0999 01       		.uleb128 0x1
 5260 099a 38       		.byte	0x38
 5261 099b 00       		.byte	0
 5262 099c 2A       		.uleb128 0x2a
 5263 099d 6C000000 		.4byte	.LVL75
 5264 09a1 63080000 		.4byte	0x863
 5265 09a5 B5090000 		.4byte	0x9b5
 5266 09a9 24       		.uleb128 0x24
 5267 09aa 01       		.uleb128 0x1
 5268 09ab 50       		.byte	0x50
 5269 09ac 02       		.uleb128 0x2
 5270 09ad 7D       		.byte	0x7d
ARM GAS  C:\Users\VIDEOH~1\AppData\Local\Temp\ccM4oHTP.s 			page 118


 5271 09ae 00       		.sleb128 0
 5272 09af 24       		.uleb128 0x24
 5273 09b0 01       		.uleb128 0x1
 5274 09b1 51       		.byte	0x51
 5275 09b2 01       		.uleb128 0x1
 5276 09b3 30       		.byte	0x30
 5277 09b4 00       		.byte	0
 5278 09b5 23       		.uleb128 0x23
 5279 09b6 8E000000 		.4byte	.LVL76
 5280 09ba C6230000 		.4byte	0x23c6
 5281 09be 24       		.uleb128 0x24
 5282 09bf 01       		.uleb128 0x1
 5283 09c0 50       		.byte	0x50
 5284 09c1 01       		.uleb128 0x1
 5285 09c2 38       		.byte	0x38
 5286 09c3 00       		.byte	0
 5287 09c4 00       		.byte	0
 5288 09c5 07       		.uleb128 0x7
 5289 09c6 04       		.byte	0x4
 5290 09c7 18040000 		.4byte	0x418
 5291 09cb 2F       		.uleb128 0x2f
 5292 09cc 07070000 		.4byte	.LASF217
 5293 09d0 01       		.byte	0x1
 5294 09d1 B301     		.2byte	0x1b3
 5295 09d3 00000000 		.4byte	.LFB51
 5296 09d7 B4000000 		.4byte	.LFE51-.LFB51
 5297 09db 01       		.uleb128 0x1
 5298 09dc 9C       		.byte	0x9c
 5299 09dd 740B0000 		.4byte	0xb74
 5300 09e1 30       		.uleb128 0x30
 5301 09e2 A7040000 		.4byte	.LASF111
 5302 09e6 01       		.byte	0x1
 5303 09e7 BD01     		.2byte	0x1bd
 5304 09e9 8C000000 		.4byte	0x8c
 5305 09ed C5020000 		.4byte	.LLST19
 5306 09f1 30       		.uleb128 0x30
 5307 09f2 59030000 		.4byte	.LASF112
 5308 09f6 01       		.byte	0x1
 5309 09f7 C101     		.2byte	0x1c1
 5310 09f9 8C000000 		.4byte	0x8c
 5311 09fd D8020000 		.4byte	.LLST20
 5312 0a01 22       		.uleb128 0x22
 5313 0a02 52646300 		.ascii	"Rdc\000"
 5314 0a06 01       		.byte	0x1
 5315 0a07 C701     		.2byte	0x1c7
 5316 0a09 73000000 		.4byte	0x73
 5317 0a0d EB020000 		.4byte	.LLST21
 5318 0a11 31       		.uleb128 0x31
 5319 0a12 62756600 		.ascii	"buf\000"
 5320 0a16 01       		.byte	0x1
 5321 0a17 CE01     		.2byte	0x1ce
 5322 0a19 740B0000 		.4byte	0xb74
 5323 0a1d 02       		.uleb128 0x2
 5324 0a1e 91       		.byte	0x91
 5325 0a1f 60       		.sleb128 -32
 5326 0a20 32       		.uleb128 0x32
 5327 0a21 6E020000 		.4byte	.LASF108
ARM GAS  C:\Users\VIDEOH~1\AppData\Local\Temp\ccM4oHTP.s 			page 119


 5328 0a25 01       		.byte	0x1
 5329 0a26 D201     		.2byte	0x1d2
 5330 0a28 18040000 		.4byte	0x418
 5331 0a2c 02       		.uleb128 0x2
 5332 0a2d 91       		.byte	0x91
 5333 0a2e 50       		.sleb128 -48
 5334 0a2f 2B       		.uleb128 0x2b
 5335 0a30 08000000 		.4byte	.LVL79
 5336 0a34 0A240000 		.4byte	0x240a
 5337 0a38 2A       		.uleb128 0x2a
 5338 0a39 14000000 		.4byte	.LVL80
 5339 0a3d 15240000 		.4byte	0x2415
 5340 0a41 5E0A0000 		.4byte	0xa5e
 5341 0a45 24       		.uleb128 0x24
 5342 0a46 01       		.uleb128 0x1
 5343 0a47 50       		.byte	0x50
 5344 0a48 01       		.uleb128 0x1
 5345 0a49 30       		.byte	0x30
 5346 0a4a 24       		.uleb128 0x24
 5347 0a4b 01       		.uleb128 0x1
 5348 0a4c 51       		.byte	0x51
 5349 0a4d 01       		.uleb128 0x1
 5350 0a4e 30       		.byte	0x30
 5351 0a4f 24       		.uleb128 0x24
 5352 0a50 01       		.uleb128 0x1
 5353 0a51 52       		.byte	0x52
 5354 0a52 05       		.uleb128 0x5
 5355 0a53 03       		.byte	0x3
 5356 0a54 70000000 		.4byte	.LC27
 5357 0a58 24       		.uleb128 0x24
 5358 0a59 01       		.uleb128 0x1
 5359 0a5a 53       		.byte	0x53
 5360 0a5b 01       		.uleb128 0x1
 5361 0a5c 31       		.byte	0x31
 5362 0a5d 00       		.byte	0
 5363 0a5e 2A       		.uleb128 0x2a
 5364 0a5f 20000000 		.4byte	.LVL81
 5365 0a63 15240000 		.4byte	0x2415
 5366 0a67 840A0000 		.4byte	0xa84
 5367 0a6b 24       		.uleb128 0x24
 5368 0a6c 01       		.uleb128 0x1
 5369 0a6d 50       		.byte	0x50
 5370 0a6e 01       		.uleb128 0x1
 5371 0a6f 32       		.byte	0x32
 5372 0a70 24       		.uleb128 0x24
 5373 0a71 01       		.uleb128 0x1
 5374 0a72 51       		.byte	0x51
 5375 0a73 01       		.uleb128 0x1
 5376 0a74 30       		.byte	0x30
 5377 0a75 24       		.uleb128 0x24
 5378 0a76 01       		.uleb128 0x1
 5379 0a77 52       		.byte	0x52
 5380 0a78 05       		.uleb128 0x5
 5381 0a79 03       		.byte	0x3
 5382 0a7a 7C000000 		.4byte	.LC29
 5383 0a7e 24       		.uleb128 0x24
 5384 0a7f 01       		.uleb128 0x1
ARM GAS  C:\Users\VIDEOH~1\AppData\Local\Temp\ccM4oHTP.s 			page 120


 5385 0a80 53       		.byte	0x53
 5386 0a81 01       		.uleb128 0x1
 5387 0a82 30       		.byte	0x30
 5388 0a83 00       		.byte	0
 5389 0a84 2A       		.uleb128 0x2a
 5390 0a85 26000000 		.4byte	.LVL82
 5391 0a89 43240000 		.4byte	0x2443
 5392 0a8d 9B0A0000 		.4byte	0xa9b
 5393 0a91 24       		.uleb128 0x24
 5394 0a92 01       		.uleb128 0x1
 5395 0a93 50       		.byte	0x50
 5396 0a94 05       		.uleb128 0x5
 5397 0a95 0C       		.byte	0xc
 5398 0a96 A0860100 		.4byte	0x186a0
 5399 0a9a 00       		.byte	0
 5400 0a9b 2A       		.uleb128 0x2a
 5401 0a9c 2C000000 		.4byte	.LVL83
 5402 0aa0 7F050000 		.4byte	0x57f
 5403 0aa4 AE0A0000 		.4byte	0xaae
 5404 0aa8 24       		.uleb128 0x24
 5405 0aa9 01       		.uleb128 0x1
 5406 0aaa 50       		.byte	0x50
 5407 0aab 01       		.uleb128 0x1
 5408 0aac 3A       		.byte	0x3a
 5409 0aad 00       		.byte	0
 5410 0aae 2B       		.uleb128 0x2b
 5411 0aaf 30000000 		.4byte	.LVL84
 5412 0ab3 FF230000 		.4byte	0x23ff
 5413 0ab7 2A       		.uleb128 0x2a
 5414 0ab8 42000000 		.4byte	.LVL86
 5415 0abc 15240000 		.4byte	0x2415
 5416 0ac0 DD0A0000 		.4byte	0xadd
 5417 0ac4 24       		.uleb128 0x24
 5418 0ac5 01       		.uleb128 0x1
 5419 0ac6 50       		.byte	0x50
 5420 0ac7 01       		.uleb128 0x1
 5421 0ac8 34       		.byte	0x34
 5422 0ac9 24       		.uleb128 0x24
 5423 0aca 01       		.uleb128 0x1
 5424 0acb 51       		.byte	0x51
 5425 0acc 01       		.uleb128 0x1
 5426 0acd 30       		.byte	0x30
 5427 0ace 24       		.uleb128 0x24
 5428 0acf 01       		.uleb128 0x1
 5429 0ad0 52       		.byte	0x52
 5430 0ad1 05       		.uleb128 0x5
 5431 0ad2 03       		.byte	0x3
 5432 0ad3 88000000 		.4byte	.LC31
 5433 0ad7 24       		.uleb128 0x24
 5434 0ad8 01       		.uleb128 0x1
 5435 0ad9 53       		.byte	0x53
 5436 0ada 01       		.uleb128 0x1
 5437 0adb 30       		.byte	0x30
 5438 0adc 00       		.byte	0
 5439 0add 2A       		.uleb128 0x2a
 5440 0ade 48000000 		.4byte	.LVL87
 5441 0ae2 43240000 		.4byte	0x2443
ARM GAS  C:\Users\VIDEOH~1\AppData\Local\Temp\ccM4oHTP.s 			page 121


 5442 0ae6 F40A0000 		.4byte	0xaf4
 5443 0aea 24       		.uleb128 0x24
 5444 0aeb 01       		.uleb128 0x1
 5445 0aec 50       		.byte	0x50
 5446 0aed 05       		.uleb128 0x5
 5447 0aee 0C       		.byte	0xc
 5448 0aef 40420F00 		.4byte	0xf4240
 5449 0af3 00       		.byte	0
 5450 0af4 2A       		.uleb128 0x2a
 5451 0af5 4E000000 		.4byte	.LVL88
 5452 0af9 7F050000 		.4byte	0x57f
 5453 0afd 070B0000 		.4byte	0xb07
 5454 0b01 24       		.uleb128 0x24
 5455 0b02 01       		.uleb128 0x1
 5456 0b03 50       		.byte	0x50
 5457 0b04 01       		.uleb128 0x1
 5458 0b05 33       		.byte	0x33
 5459 0b06 00       		.byte	0
 5460 0b07 2B       		.uleb128 0x2b
 5461 0b08 52000000 		.4byte	.LVL89
 5462 0b0c FF230000 		.4byte	0x23ff
 5463 0b10 2A       		.uleb128 0x2a
 5464 0b11 5E000000 		.4byte	.LVL91
 5465 0b15 43240000 		.4byte	0x2443
 5466 0b19 230B0000 		.4byte	0xb23
 5467 0b1d 24       		.uleb128 0x24
 5468 0b1e 01       		.uleb128 0x1
 5469 0b1f 50       		.byte	0x50
 5470 0b20 01       		.uleb128 0x1
 5471 0b21 30       		.byte	0x30
 5472 0b22 00       		.byte	0
 5473 0b23 2A       		.uleb128 0x2a
 5474 0b24 6E000000 		.4byte	.LVL93
 5475 0b28 AF060000 		.4byte	0x6af
 5476 0b2c 400B0000 		.4byte	0xb40
 5477 0b30 24       		.uleb128 0x24
 5478 0b31 01       		.uleb128 0x1
 5479 0b32 51       		.byte	0x51
 5480 0b33 05       		.uleb128 0x5
 5481 0b34 03       		.byte	0x3
 5482 0b35 94000000 		.4byte	.LC33
 5483 0b39 24       		.uleb128 0x24
 5484 0b3a 01       		.uleb128 0x1
 5485 0b3b 52       		.byte	0x52
 5486 0b3c 02       		.uleb128 0x2
 5487 0b3d 91       		.byte	0x91
 5488 0b3e 60       		.sleb128 -32
 5489 0b3f 00       		.byte	0
 5490 0b40 2A       		.uleb128 0x2a
 5491 0b41 7A000000 		.4byte	.LVL94
 5492 0b45 15240000 		.4byte	0x2415
 5493 0b49 630B0000 		.4byte	0xb63
 5494 0b4d 24       		.uleb128 0x24
 5495 0b4e 01       		.uleb128 0x1
 5496 0b4f 50       		.byte	0x50
 5497 0b50 01       		.uleb128 0x1
 5498 0b51 36       		.byte	0x36
ARM GAS  C:\Users\VIDEOH~1\AppData\Local\Temp\ccM4oHTP.s 			page 122


 5499 0b52 24       		.uleb128 0x24
 5500 0b53 01       		.uleb128 0x1
 5501 0b54 51       		.byte	0x51
 5502 0b55 01       		.uleb128 0x1
 5503 0b56 30       		.byte	0x30
 5504 0b57 24       		.uleb128 0x24
 5505 0b58 01       		.uleb128 0x1
 5506 0b59 52       		.byte	0x52
 5507 0b5a 02       		.uleb128 0x2
 5508 0b5b 91       		.byte	0x91
 5509 0b5c 60       		.sleb128 -32
 5510 0b5d 24       		.uleb128 0x24
 5511 0b5e 01       		.uleb128 0x1
 5512 0b5f 53       		.byte	0x53
 5513 0b60 01       		.uleb128 0x1
 5514 0b61 30       		.byte	0x30
 5515 0b62 00       		.byte	0
 5516 0b63 23       		.uleb128 0x23
 5517 0b64 88000000 		.4byte	.LVL95
 5518 0b68 12090000 		.4byte	0x912
 5519 0b6c 24       		.uleb128 0x24
 5520 0b6d 01       		.uleb128 0x1
 5521 0b6e 50       		.byte	0x50
 5522 0b6f 02       		.uleb128 0x2
 5523 0b70 7D       		.byte	0x7d
 5524 0b71 00       		.sleb128 0
 5525 0b72 00       		.byte	0
 5526 0b73 00       		.byte	0
 5527 0b74 09       		.uleb128 0x9
 5528 0b75 C9000000 		.4byte	0xc9
 5529 0b79 840B0000 		.4byte	0xb84
 5530 0b7d 0A       		.uleb128 0xa
 5531 0b7e D0000000 		.4byte	0xd0
 5532 0b82 0F       		.byte	0xf
 5533 0b83 00       		.byte	0
 5534 0b84 1F       		.uleb128 0x1f
 5535 0b85 AB030000 		.4byte	.LASF113
 5536 0b89 01       		.byte	0x1
 5537 0b8a AE02     		.2byte	0x2ae
 5538 0b8c 00000000 		.4byte	.LFB58
 5539 0b90 68000000 		.4byte	.LFE58-.LFB58
 5540 0b94 01       		.uleb128 0x1
 5541 0b95 9C       		.byte	0x9c
 5542 0b96 510C0000 		.4byte	0xc51
 5543 0b9a 20       		.uleb128 0x20
 5544 0b9b 38090000 		.4byte	.LASF114
 5545 0b9f 01       		.byte	0x1
 5546 0ba0 AE02     		.2byte	0x2ae
 5547 0ba2 510C0000 		.4byte	0xc51
 5548 0ba6 FE020000 		.4byte	.LLST22
 5549 0baa 32       		.uleb128 0x32
 5550 0bab 6E020000 		.4byte	.LASF108
 5551 0baf 01       		.byte	0x1
 5552 0bb0 B802     		.2byte	0x2b8
 5553 0bb2 18040000 		.4byte	0x418
 5554 0bb6 02       		.uleb128 0x2
 5555 0bb7 91       		.byte	0x91
ARM GAS  C:\Users\VIDEOH~1\AppData\Local\Temp\ccM4oHTP.s 			page 123


 5556 0bb8 68       		.sleb128 -24
 5557 0bb9 2A       		.uleb128 0x2a
 5558 0bba 12000000 		.4byte	.LVL100
 5559 0bbe 4E240000 		.4byte	0x244e
 5560 0bc2 CC0B0000 		.4byte	0xbcc
 5561 0bc6 24       		.uleb128 0x24
 5562 0bc7 01       		.uleb128 0x1
 5563 0bc8 50       		.byte	0x50
 5564 0bc9 01       		.uleb128 0x1
 5565 0bca 30       		.byte	0x30
 5566 0bcb 00       		.byte	0
 5567 0bcc 2A       		.uleb128 0x2a
 5568 0bcd 18000000 		.4byte	.LVL101
 5569 0bd1 59240000 		.4byte	0x2459
 5570 0bd5 DF0B0000 		.4byte	0xbdf
 5571 0bd9 24       		.uleb128 0x24
 5572 0bda 01       		.uleb128 0x1
 5573 0bdb 50       		.byte	0x50
 5574 0bdc 01       		.uleb128 0x1
 5575 0bdd 30       		.byte	0x30
 5576 0bde 00       		.byte	0
 5577 0bdf 2A       		.uleb128 0x2a
 5578 0be0 24000000 		.4byte	.LVL102
 5579 0be4 15240000 		.4byte	0x2415
 5580 0be8 050C0000 		.4byte	0xc05
 5581 0bec 24       		.uleb128 0x24
 5582 0bed 01       		.uleb128 0x1
 5583 0bee 50       		.byte	0x50
 5584 0bef 01       		.uleb128 0x1
 5585 0bf0 32       		.byte	0x32
 5586 0bf1 24       		.uleb128 0x24
 5587 0bf2 01       		.uleb128 0x1
 5588 0bf3 51       		.byte	0x51
 5589 0bf4 01       		.uleb128 0x1
 5590 0bf5 30       		.byte	0x30
 5591 0bf6 24       		.uleb128 0x24
 5592 0bf7 01       		.uleb128 0x1
 5593 0bf8 52       		.byte	0x52
 5594 0bf9 05       		.uleb128 0x5
 5595 0bfa 03       		.byte	0x3
 5596 0bfb A0000000 		.4byte	.LC36
 5597 0bff 24       		.uleb128 0x24
 5598 0c00 01       		.uleb128 0x1
 5599 0c01 53       		.byte	0x53
 5600 0c02 01       		.uleb128 0x1
 5601 0c03 31       		.byte	0x31
 5602 0c04 00       		.byte	0
 5603 0c05 2A       		.uleb128 0x2a
 5604 0c06 30000000 		.4byte	.LVL103
 5605 0c0a 15240000 		.4byte	0x2415
 5606 0c0e 2C0C0000 		.4byte	0xc2c
 5607 0c12 24       		.uleb128 0x24
 5608 0c13 01       		.uleb128 0x1
 5609 0c14 50       		.byte	0x50
 5610 0c15 01       		.uleb128 0x1
 5611 0c16 36       		.byte	0x36
 5612 0c17 24       		.uleb128 0x24
ARM GAS  C:\Users\VIDEOH~1\AppData\Local\Temp\ccM4oHTP.s 			page 124


 5613 0c18 01       		.uleb128 0x1
 5614 0c19 51       		.byte	0x51
 5615 0c1a 02       		.uleb128 0x2
 5616 0c1b 08       		.byte	0x8
 5617 0c1c 26       		.byte	0x26
 5618 0c1d 24       		.uleb128 0x24
 5619 0c1e 01       		.uleb128 0x1
 5620 0c1f 52       		.byte	0x52
 5621 0c20 05       		.uleb128 0x5
 5622 0c21 03       		.byte	0x3
 5623 0c22 B0000000 		.4byte	.LC38
 5624 0c26 24       		.uleb128 0x24
 5625 0c27 01       		.uleb128 0x1
 5626 0c28 53       		.byte	0x53
 5627 0c29 01       		.uleb128 0x1
 5628 0c2a 30       		.byte	0x30
 5629 0c2b 00       		.byte	0
 5630 0c2c 2A       		.uleb128 0x2a
 5631 0c2d 3E000000 		.4byte	.LVL104
 5632 0c31 12090000 		.4byte	0x912
 5633 0c35 400C0000 		.4byte	0xc40
 5634 0c39 24       		.uleb128 0x24
 5635 0c3a 01       		.uleb128 0x1
 5636 0c3b 50       		.byte	0x50
 5637 0c3c 02       		.uleb128 0x2
 5638 0c3d 7D       		.byte	0x7d
 5639 0c3e 00       		.sleb128 0
 5640 0c3f 00       		.byte	0
 5641 0c40 23       		.uleb128 0x23
 5642 0c41 52000000 		.4byte	.LVL105
 5643 0c45 64240000 		.4byte	0x2464
 5644 0c49 24       		.uleb128 0x24
 5645 0c4a 01       		.uleb128 0x1
 5646 0c4b 50       		.byte	0x50
 5647 0c4c 02       		.uleb128 0x2
 5648 0c4d 74       		.byte	0x74
 5649 0c4e 00       		.sleb128 0
 5650 0c4f 00       		.byte	0
 5651 0c50 00       		.byte	0
 5652 0c51 07       		.uleb128 0x7
 5653 0c52 04       		.byte	0x4
 5654 0c53 39030000 		.4byte	0x339
 5655 0c57 1F       		.uleb128 0x1f
 5656 0c58 06090000 		.4byte	.LASF115
 5657 0c5c 01       		.byte	0x1
 5658 0c5d C302     		.2byte	0x2c3
 5659 0c5f 00000000 		.4byte	.LFB59
 5660 0c63 9C000000 		.4byte	.LFE59-.LFB59
 5661 0c67 01       		.uleb128 0x1
 5662 0c68 9C       		.byte	0x9c
 5663 0c69 8C0D0000 		.4byte	0xd8c
 5664 0c6d 20       		.uleb128 0x20
 5665 0c6e 38090000 		.4byte	.LASF114
 5666 0c72 01       		.byte	0x1
 5667 0c73 C302     		.2byte	0x2c3
 5668 0c75 510C0000 		.4byte	0xc51
 5669 0c79 2A030000 		.4byte	.LLST23
ARM GAS  C:\Users\VIDEOH~1\AppData\Local\Temp\ccM4oHTP.s 			page 125


 5670 0c7d 32       		.uleb128 0x32
 5671 0c7e 6E020000 		.4byte	.LASF108
 5672 0c82 01       		.byte	0x1
 5673 0c83 CB02     		.2byte	0x2cb
 5674 0c85 18040000 		.4byte	0x418
 5675 0c89 02       		.uleb128 0x2
 5676 0c8a 91       		.byte	0x91
 5677 0c8b 60       		.sleb128 -32
 5678 0c8c 31       		.uleb128 0x31
 5679 0c8d 62756600 		.ascii	"buf\000"
 5680 0c91 01       		.byte	0x1
 5681 0c92 CC02     		.2byte	0x2cc
 5682 0c94 740B0000 		.4byte	0xb74
 5683 0c98 02       		.uleb128 0x2
 5684 0c99 91       		.byte	0x91
 5685 0c9a 50       		.sleb128 -48
 5686 0c9b 21       		.uleb128 0x21
 5687 0c9c 2C000000 		.4byte	.LBB3
 5688 0ca0 48000000 		.4byte	.LBE3-.LBB3
 5689 0ca4 430D0000 		.4byte	0xd43
 5690 0ca8 30       		.uleb128 0x30
 5691 0ca9 4F010000 		.4byte	.LASF116
 5692 0cad 01       		.byte	0x1
 5693 0cae D102     		.2byte	0x2d1
 5694 0cb0 73000000 		.4byte	0x73
 5695 0cb4 56030000 		.4byte	.LLST24
 5696 0cb8 2A       		.uleb128 0x2a
 5697 0cb9 34000000 		.4byte	.LVL112
 5698 0cbd 12090000 		.4byte	0x912
 5699 0cc1 CC0C0000 		.4byte	0xccc
 5700 0cc5 24       		.uleb128 0x24
 5701 0cc6 01       		.uleb128 0x1
 5702 0cc7 50       		.byte	0x50
 5703 0cc8 02       		.uleb128 0x2
 5704 0cc9 74       		.byte	0x74
 5705 0cca 00       		.sleb128 0
 5706 0ccb 00       		.byte	0
 5707 0ccc 2B       		.uleb128 0x2b
 5708 0ccd 38000000 		.4byte	.LVL113
 5709 0cd1 6F240000 		.4byte	0x246f
 5710 0cd5 2A       		.uleb128 0x2a
 5711 0cd6 48000000 		.4byte	.LVL115
 5712 0cda E2050000 		.4byte	0x5e2
 5713 0cde F20C0000 		.4byte	0xcf2
 5714 0ce2 24       		.uleb128 0x24
 5715 0ce3 01       		.uleb128 0x1
 5716 0ce4 51       		.byte	0x51
 5717 0ce5 05       		.uleb128 0x5
 5718 0ce6 03       		.byte	0x3
 5719 0ce7 3C000000 		.4byte	.LC16
 5720 0ceb 24       		.uleb128 0x24
 5721 0cec 01       		.uleb128 0x1
 5722 0ced 52       		.byte	0x52
 5723 0cee 02       		.uleb128 0x2
 5724 0cef 7D       		.byte	0x7d
 5725 0cf0 00       		.sleb128 0
 5726 0cf1 00       		.byte	0
ARM GAS  C:\Users\VIDEOH~1\AppData\Local\Temp\ccM4oHTP.s 			page 126


 5727 0cf2 2A       		.uleb128 0x2a
 5728 0cf3 4E000000 		.4byte	.LVL116
 5729 0cf7 E5230000 		.4byte	0x23e5
 5730 0cfb 060D0000 		.4byte	0xd06
 5731 0cff 24       		.uleb128 0x24
 5732 0d00 01       		.uleb128 0x1
 5733 0d01 50       		.byte	0x50
 5734 0d02 02       		.uleb128 0x2
 5735 0d03 7D       		.byte	0x7d
 5736 0d04 00       		.sleb128 0
 5737 0d05 00       		.byte	0
 5738 0d06 2A       		.uleb128 0x2a
 5739 0d07 58000000 		.4byte	.LVL117
 5740 0d0b DC230000 		.4byte	0x23dc
 5741 0d0f 220D0000 		.4byte	0xd22
 5742 0d13 24       		.uleb128 0x24
 5743 0d14 01       		.uleb128 0x1
 5744 0d15 51       		.byte	0x51
 5745 0d16 05       		.uleb128 0x5
 5746 0d17 03       		.byte	0x3
 5747 0d18 38000000 		.4byte	.LC14
 5748 0d1c 24       		.uleb128 0x24
 5749 0d1d 01       		.uleb128 0x1
 5750 0d1e 52       		.byte	0x52
 5751 0d1f 01       		.uleb128 0x1
 5752 0d20 32       		.byte	0x32
 5753 0d21 00       		.byte	0
 5754 0d22 23       		.uleb128 0x23
 5755 0d23 64000000 		.4byte	.LVL118
 5756 0d27 15240000 		.4byte	0x2415
 5757 0d2b 24       		.uleb128 0x24
 5758 0d2c 01       		.uleb128 0x1
 5759 0d2d 50       		.byte	0x50
 5760 0d2e 01       		.uleb128 0x1
 5761 0d2f 34       		.byte	0x34
 5762 0d30 24       		.uleb128 0x24
 5763 0d31 01       		.uleb128 0x1
 5764 0d32 51       		.byte	0x51
 5765 0d33 02       		.uleb128 0x2
 5766 0d34 08       		.byte	0x8
 5767 0d35 2B       		.byte	0x2b
 5768 0d36 24       		.uleb128 0x24
 5769 0d37 01       		.uleb128 0x1
 5770 0d38 52       		.byte	0x52
 5771 0d39 02       		.uleb128 0x2
 5772 0d3a 7D       		.byte	0x7d
 5773 0d3b 00       		.sleb128 0
 5774 0d3c 24       		.uleb128 0x24
 5775 0d3d 01       		.uleb128 0x1
 5776 0d3e 53       		.byte	0x53
 5777 0d3f 01       		.uleb128 0x1
 5778 0d40 30       		.byte	0x30
 5779 0d41 00       		.byte	0
 5780 0d42 00       		.byte	0
 5781 0d43 2A       		.uleb128 0x2a
 5782 0d44 12000000 		.4byte	.LVL109
 5783 0d48 4E240000 		.4byte	0x244e
ARM GAS  C:\Users\VIDEOH~1\AppData\Local\Temp\ccM4oHTP.s 			page 127


 5784 0d4c 560D0000 		.4byte	0xd56
 5785 0d50 24       		.uleb128 0x24
 5786 0d51 01       		.uleb128 0x1
 5787 0d52 50       		.byte	0x50
 5788 0d53 01       		.uleb128 0x1
 5789 0d54 30       		.byte	0x30
 5790 0d55 00       		.byte	0
 5791 0d56 2A       		.uleb128 0x2a
 5792 0d57 18000000 		.4byte	.LVL110
 5793 0d5b 59240000 		.4byte	0x2459
 5794 0d5f 690D0000 		.4byte	0xd69
 5795 0d63 24       		.uleb128 0x24
 5796 0d64 01       		.uleb128 0x1
 5797 0d65 50       		.byte	0x50
 5798 0d66 01       		.uleb128 0x1
 5799 0d67 30       		.byte	0x30
 5800 0d68 00       		.byte	0
 5801 0d69 23       		.uleb128 0x23
 5802 0d6a 24000000 		.4byte	.LVL111
 5803 0d6e 15240000 		.4byte	0x2415
 5804 0d72 24       		.uleb128 0x24
 5805 0d73 01       		.uleb128 0x1
 5806 0d74 50       		.byte	0x50
 5807 0d75 01       		.uleb128 0x1
 5808 0d76 32       		.byte	0x32
 5809 0d77 24       		.uleb128 0x24
 5810 0d78 01       		.uleb128 0x1
 5811 0d79 51       		.byte	0x51
 5812 0d7a 01       		.uleb128 0x1
 5813 0d7b 30       		.byte	0x30
 5814 0d7c 24       		.uleb128 0x24
 5815 0d7d 01       		.uleb128 0x1
 5816 0d7e 52       		.byte	0x52
 5817 0d7f 05       		.uleb128 0x5
 5818 0d80 03       		.byte	0x3
 5819 0d81 B8000000 		.4byte	.LC41
 5820 0d85 24       		.uleb128 0x24
 5821 0d86 01       		.uleb128 0x1
 5822 0d87 53       		.byte	0x53
 5823 0d88 01       		.uleb128 0x1
 5824 0d89 31       		.byte	0x31
 5825 0d8a 00       		.byte	0
 5826 0d8b 00       		.byte	0
 5827 0d8c 33       		.uleb128 0x33
 5828 0d8d 78060000 		.4byte	.LASF117
 5829 0d91 01       		.byte	0x1
 5830 0d92 2A03     		.2byte	0x32a
 5831 0d94 00000000 		.4byte	.LFB62
 5832 0d98 24000000 		.4byte	.LFE62-.LFB62
 5833 0d9c 01       		.uleb128 0x1
 5834 0d9d 9C       		.byte	0x9c
 5835 0d9e E30D0000 		.4byte	0xde3
 5836 0da2 20       		.uleb128 0x20
 5837 0da3 F80B0000 		.4byte	.LASF118
 5838 0da7 01       		.byte	0x1
 5839 0da8 2A03     		.2byte	0x32a
 5840 0daa 73000000 		.4byte	0x73
ARM GAS  C:\Users\VIDEOH~1\AppData\Local\Temp\ccM4oHTP.s 			page 128


 5841 0dae 69030000 		.4byte	.LLST25
 5842 0db2 1D       		.uleb128 0x1d
 5843 0db3 616C6C00 		.ascii	"all\000"
 5844 0db7 01       		.byte	0x1
 5845 0db8 2A03     		.2byte	0x32a
 5846 0dba 73000000 		.4byte	0x73
 5847 0dbe 8A030000 		.4byte	.LLST26
 5848 0dc2 23       		.uleb128 0x23
 5849 0dc3 20000000 		.4byte	.LVL123
 5850 0dc7 7A240000 		.4byte	0x247a
 5851 0dcb 24       		.uleb128 0x24
 5852 0dcc 01       		.uleb128 0x1
 5853 0dcd 50       		.byte	0x50
 5854 0dce 01       		.uleb128 0x1
 5855 0dcf 36       		.byte	0x36
 5856 0dd0 24       		.uleb128 0x24
 5857 0dd1 01       		.uleb128 0x1
 5858 0dd2 51       		.byte	0x51
 5859 0dd3 01       		.uleb128 0x1
 5860 0dd4 40       		.byte	0x40
 5861 0dd5 24       		.uleb128 0x24
 5862 0dd6 01       		.uleb128 0x1
 5863 0dd7 52       		.byte	0x52
 5864 0dd8 01       		.uleb128 0x1
 5865 0dd9 37       		.byte	0x37
 5866 0dda 24       		.uleb128 0x24
 5867 0ddb 02       		.uleb128 0x2
 5868 0ddc 7D       		.byte	0x7d
 5869 0ddd 00       		.sleb128 0
 5870 0dde 02       		.uleb128 0x2
 5871 0ddf 09       		.byte	0x9
 5872 0de0 FF       		.byte	0xff
 5873 0de1 00       		.byte	0
 5874 0de2 00       		.byte	0
 5875 0de3 34       		.uleb128 0x34
 5876 0de4 83080000 		.4byte	.LASF119
 5877 0de8 01       		.byte	0x1
 5878 0de9 E102     		.2byte	0x2e1
 5879 0deb 00000000 		.4byte	.LFB60
 5880 0def CC000000 		.4byte	.LFE60-.LFB60
 5881 0df3 01       		.uleb128 0x1
 5882 0df4 9C       		.byte	0x9c
 5883 0df5 580F0000 		.4byte	0xf58
 5884 0df9 20       		.uleb128 0x20
 5885 0dfa 38090000 		.4byte	.LASF114
 5886 0dfe 01       		.byte	0x1
 5887 0dff E102     		.2byte	0x2e1
 5888 0e01 510C0000 		.4byte	0xc51
 5889 0e05 AB030000 		.4byte	.LLST27
 5890 0e09 32       		.uleb128 0x32
 5891 0e0a 6E020000 		.4byte	.LASF108
 5892 0e0e 01       		.byte	0x1
 5893 0e0f EB02     		.2byte	0x2eb
 5894 0e11 18040000 		.4byte	0x418
 5895 0e15 02       		.uleb128 0x2
 5896 0e16 91       		.byte	0x91
 5897 0e17 60       		.sleb128 -32
ARM GAS  C:\Users\VIDEOH~1\AppData\Local\Temp\ccM4oHTP.s 			page 129


 5898 0e18 31       		.uleb128 0x31
 5899 0e19 62756600 		.ascii	"buf\000"
 5900 0e1d 01       		.byte	0x1
 5901 0e1e EC02     		.2byte	0x2ec
 5902 0e20 740B0000 		.4byte	0xb74
 5903 0e24 02       		.uleb128 0x2
 5904 0e25 91       		.byte	0x91
 5905 0e26 50       		.sleb128 -48
 5906 0e27 30       		.uleb128 0x30
 5907 0e28 F80B0000 		.4byte	.LASF118
 5908 0e2c 01       		.byte	0x1
 5909 0e2d ED02     		.2byte	0x2ed
 5910 0e2f 73000000 		.4byte	0x73
 5911 0e33 D7030000 		.4byte	.LLST28
 5912 0e37 2A       		.uleb128 0x2a
 5913 0e38 12000000 		.4byte	.LVL126
 5914 0e3c 4E240000 		.4byte	0x244e
 5915 0e40 4A0E0000 		.4byte	0xe4a
 5916 0e44 24       		.uleb128 0x24
 5917 0e45 01       		.uleb128 0x1
 5918 0e46 50       		.byte	0x50
 5919 0e47 01       		.uleb128 0x1
 5920 0e48 30       		.byte	0x30
 5921 0e49 00       		.byte	0
 5922 0e4a 2B       		.uleb128 0x2b
 5923 0e4b 22000000 		.4byte	.LVL128
 5924 0e4f 59240000 		.4byte	0x2459
 5925 0e53 2A       		.uleb128 0x2a
 5926 0e54 32000000 		.4byte	.LVL129
 5927 0e58 7A240000 		.4byte	0x247a
 5928 0e5c 7E0E0000 		.4byte	0xe7e
 5929 0e60 24       		.uleb128 0x24
 5930 0e61 01       		.uleb128 0x1
 5931 0e62 50       		.byte	0x50
 5932 0e63 01       		.uleb128 0x1
 5933 0e64 34       		.byte	0x34
 5934 0e65 24       		.uleb128 0x24
 5935 0e66 01       		.uleb128 0x1
 5936 0e67 51       		.byte	0x51
 5937 0e68 02       		.uleb128 0x2
 5938 0e69 74       		.byte	0x74
 5939 0e6a 00       		.sleb128 0
 5940 0e6b 24       		.uleb128 0x24
 5941 0e6c 01       		.uleb128 0x1
 5942 0e6d 52       		.byte	0x52
 5943 0e6e 01       		.uleb128 0x1
 5944 0e6f 38       		.byte	0x38
 5945 0e70 24       		.uleb128 0x24
 5946 0e71 01       		.uleb128 0x1
 5947 0e72 53       		.byte	0x53
 5948 0e73 02       		.uleb128 0x2
 5949 0e74 09       		.byte	0x9
 5950 0e75 A0       		.byte	0xa0
 5951 0e76 24       		.uleb128 0x24
 5952 0e77 02       		.uleb128 0x2
 5953 0e78 7D       		.byte	0x7d
 5954 0e79 00       		.sleb128 0
ARM GAS  C:\Users\VIDEOH~1\AppData\Local\Temp\ccM4oHTP.s 			page 130


 5955 0e7a 02       		.uleb128 0x2
 5956 0e7b 74       		.byte	0x74
 5957 0e7c 00       		.sleb128 0
 5958 0e7d 00       		.byte	0
 5959 0e7e 2A       		.uleb128 0x2a
 5960 0e7f 3E000000 		.4byte	.LVL130
 5961 0e83 15240000 		.4byte	0x2415
 5962 0e87 A50E0000 		.4byte	0xea5
 5963 0e8b 24       		.uleb128 0x24
 5964 0e8c 01       		.uleb128 0x1
 5965 0e8d 50       		.byte	0x50
 5966 0e8e 01       		.uleb128 0x1
 5967 0e8f 32       		.byte	0x32
 5968 0e90 24       		.uleb128 0x24
 5969 0e91 01       		.uleb128 0x1
 5970 0e92 51       		.byte	0x51
 5971 0e93 02       		.uleb128 0x2
 5972 0e94 74       		.byte	0x74
 5973 0e95 00       		.sleb128 0
 5974 0e96 24       		.uleb128 0x24
 5975 0e97 01       		.uleb128 0x1
 5976 0e98 52       		.byte	0x52
 5977 0e99 05       		.uleb128 0x5
 5978 0e9a 03       		.byte	0x3
 5979 0e9b C8000000 		.4byte	.LC46
 5980 0e9f 24       		.uleb128 0x24
 5981 0ea0 01       		.uleb128 0x1
 5982 0ea1 53       		.byte	0x53
 5983 0ea2 01       		.uleb128 0x1
 5984 0ea3 31       		.byte	0x31
 5985 0ea4 00       		.byte	0
 5986 0ea5 2A       		.uleb128 0x2a
 5987 0ea6 4A000000 		.4byte	.LVL131
 5988 0eaa 15240000 		.4byte	0x2415
 5989 0eae CD0E0000 		.4byte	0xecd
 5990 0eb2 24       		.uleb128 0x24
 5991 0eb3 01       		.uleb128 0x1
 5992 0eb4 50       		.byte	0x50
 5993 0eb5 01       		.uleb128 0x1
 5994 0eb6 36       		.byte	0x36
 5995 0eb7 24       		.uleb128 0x24
 5996 0eb8 01       		.uleb128 0x1
 5997 0eb9 51       		.byte	0x51
 5998 0eba 02       		.uleb128 0x2
 5999 0ebb 08       		.byte	0x8
 6000 0ebc 26       		.byte	0x26
 6001 0ebd 24       		.uleb128 0x24
 6002 0ebe 01       		.uleb128 0x1
 6003 0ebf 52       		.byte	0x52
 6004 0ec0 05       		.uleb128 0x5
 6005 0ec1 03       		.byte	0x3
 6006 0ec2 B0000000 		.4byte	.LC38
 6007 0ec6 24       		.uleb128 0x24
 6008 0ec7 01       		.uleb128 0x1
 6009 0ec8 53       		.byte	0x53
 6010 0ec9 02       		.uleb128 0x2
 6011 0eca 74       		.byte	0x74
ARM GAS  C:\Users\VIDEOH~1\AppData\Local\Temp\ccM4oHTP.s 			page 131


 6012 0ecb 00       		.sleb128 0
 6013 0ecc 00       		.byte	0
 6014 0ecd 2A       		.uleb128 0x2a
 6015 0ece 58000000 		.4byte	.LVL132
 6016 0ed2 12090000 		.4byte	0x912
 6017 0ed6 E10E0000 		.4byte	0xee1
 6018 0eda 24       		.uleb128 0x24
 6019 0edb 01       		.uleb128 0x1
 6020 0edc 50       		.byte	0x50
 6021 0edd 02       		.uleb128 0x2
 6022 0ede 74       		.byte	0x74
 6023 0edf 00       		.sleb128 0
 6024 0ee0 00       		.byte	0
 6025 0ee1 2B       		.uleb128 0x2b
 6026 0ee2 5C000000 		.4byte	.LVL133
 6027 0ee6 85240000 		.4byte	0x2485
 6028 0eea 2A       		.uleb128 0x2a
 6029 0eeb 6C000000 		.4byte	.LVL135
 6030 0eef E2050000 		.4byte	0x5e2
 6031 0ef3 070F0000 		.4byte	0xf07
 6032 0ef7 24       		.uleb128 0x24
 6033 0ef8 01       		.uleb128 0x1
 6034 0ef9 51       		.byte	0x51
 6035 0efa 05       		.uleb128 0x5
 6036 0efb 03       		.byte	0x3
 6037 0efc D8000000 		.4byte	.LC49
 6038 0f00 24       		.uleb128 0x24
 6039 0f01 01       		.uleb128 0x1
 6040 0f02 52       		.byte	0x52
 6041 0f03 02       		.uleb128 0x2
 6042 0f04 91       		.byte	0x91
 6043 0f05 50       		.sleb128 -48
 6044 0f06 00       		.byte	0
 6045 0f07 2A       		.uleb128 0x2a
 6046 0f08 72000000 		.4byte	.LVL136
 6047 0f0c E5230000 		.4byte	0x23e5
 6048 0f10 1B0F0000 		.4byte	0xf1b
 6049 0f14 24       		.uleb128 0x24
 6050 0f15 01       		.uleb128 0x1
 6051 0f16 50       		.byte	0x50
 6052 0f17 02       		.uleb128 0x2
 6053 0f18 91       		.byte	0x91
 6054 0f19 50       		.sleb128 -48
 6055 0f1a 00       		.byte	0
 6056 0f1b 2A       		.uleb128 0x2a
 6057 0f1c 80000000 		.4byte	.LVL137
 6058 0f20 DC230000 		.4byte	0x23dc
 6059 0f24 370F0000 		.4byte	0xf37
 6060 0f28 24       		.uleb128 0x24
 6061 0f29 01       		.uleb128 0x1
 6062 0f2a 51       		.byte	0x51
 6063 0f2b 05       		.uleb128 0x5
 6064 0f2c 03       		.byte	0x3
 6065 0f2d 38000000 		.4byte	.LC14
 6066 0f31 24       		.uleb128 0x24
 6067 0f32 01       		.uleb128 0x1
 6068 0f33 52       		.byte	0x52
ARM GAS  C:\Users\VIDEOH~1\AppData\Local\Temp\ccM4oHTP.s 			page 132


 6069 0f34 01       		.uleb128 0x1
 6070 0f35 32       		.byte	0x32
 6071 0f36 00       		.byte	0
 6072 0f37 23       		.uleb128 0x23
 6073 0f38 8C000000 		.4byte	.LVL138
 6074 0f3c 15240000 		.4byte	0x2415
 6075 0f40 24       		.uleb128 0x24
 6076 0f41 01       		.uleb128 0x1
 6077 0f42 50       		.byte	0x50
 6078 0f43 01       		.uleb128 0x1
 6079 0f44 34       		.byte	0x34
 6080 0f45 24       		.uleb128 0x24
 6081 0f46 01       		.uleb128 0x1
 6082 0f47 51       		.byte	0x51
 6083 0f48 02       		.uleb128 0x2
 6084 0f49 08       		.byte	0x8
 6085 0f4a 2B       		.byte	0x2b
 6086 0f4b 24       		.uleb128 0x24
 6087 0f4c 01       		.uleb128 0x1
 6088 0f4d 52       		.byte	0x52
 6089 0f4e 02       		.uleb128 0x2
 6090 0f4f 91       		.byte	0x91
 6091 0f50 50       		.sleb128 -48
 6092 0f51 24       		.uleb128 0x24
 6093 0f52 01       		.uleb128 0x1
 6094 0f53 53       		.byte	0x53
 6095 0f54 01       		.uleb128 0x1
 6096 0f55 30       		.byte	0x30
 6097 0f56 00       		.byte	0
 6098 0f57 00       		.byte	0
 6099 0f58 34       		.uleb128 0x34
 6100 0f59 0B030000 		.4byte	.LASF120
 6101 0f5d 01       		.byte	0x1
 6102 0f5e 0303     		.2byte	0x303
 6103 0f60 00000000 		.4byte	.LFB61
 6104 0f64 E8000000 		.4byte	.LFE61-.LFB61
 6105 0f68 01       		.uleb128 0x1
 6106 0f69 9C       		.byte	0x9c
 6107 0f6a E6100000 		.4byte	0x10e6
 6108 0f6e 20       		.uleb128 0x20
 6109 0f6f 38090000 		.4byte	.LASF114
 6110 0f73 01       		.byte	0x1
 6111 0f74 0303     		.2byte	0x303
 6112 0f76 510C0000 		.4byte	0xc51
 6113 0f7a EA030000 		.4byte	.LLST29
 6114 0f7e 32       		.uleb128 0x32
 6115 0f7f 6E020000 		.4byte	.LASF108
 6116 0f83 01       		.byte	0x1
 6117 0f84 0D03     		.2byte	0x30d
 6118 0f86 18040000 		.4byte	0x418
 6119 0f8a 02       		.uleb128 0x2
 6120 0f8b 91       		.byte	0x91
 6121 0f8c 60       		.sleb128 -32
 6122 0f8d 31       		.uleb128 0x31
 6123 0f8e 62756600 		.ascii	"buf\000"
 6124 0f92 01       		.byte	0x1
 6125 0f93 0E03     		.2byte	0x30e
ARM GAS  C:\Users\VIDEOH~1\AppData\Local\Temp\ccM4oHTP.s 			page 133


 6126 0f95 740B0000 		.4byte	0xb74
 6127 0f99 02       		.uleb128 0x2
 6128 0f9a 91       		.byte	0x91
 6129 0f9b 50       		.sleb128 -48
 6130 0f9c 30       		.uleb128 0x30
 6131 0f9d F80B0000 		.4byte	.LASF118
 6132 0fa1 01       		.byte	0x1
 6133 0fa2 0F03     		.2byte	0x30f
 6134 0fa4 73000000 		.4byte	0x73
 6135 0fa8 16040000 		.4byte	.LLST30
 6136 0fac 30       		.uleb128 0x30
 6137 0fad 4F010000 		.4byte	.LASF116
 6138 0fb1 01       		.byte	0x1
 6139 0fb2 0F03     		.2byte	0x30f
 6140 0fb4 73000000 		.4byte	0x73
 6141 0fb8 29040000 		.4byte	.LLST31
 6142 0fbc 2A       		.uleb128 0x2a
 6143 0fbd 12000000 		.4byte	.LVL142
 6144 0fc1 4E240000 		.4byte	0x244e
 6145 0fc5 CF0F0000 		.4byte	0xfcf
 6146 0fc9 24       		.uleb128 0x24
 6147 0fca 01       		.uleb128 0x1
 6148 0fcb 50       		.byte	0x50
 6149 0fcc 01       		.uleb128 0x1
 6150 0fcd 30       		.byte	0x30
 6151 0fce 00       		.byte	0
 6152 0fcf 2B       		.uleb128 0x2b
 6153 0fd0 22000000 		.4byte	.LVL144
 6154 0fd4 59240000 		.4byte	0x2459
 6155 0fd8 2A       		.uleb128 0x2a
 6156 0fd9 32000000 		.4byte	.LVL145
 6157 0fdd 7A240000 		.4byte	0x247a
 6158 0fe1 03100000 		.4byte	0x1003
 6159 0fe5 24       		.uleb128 0x24
 6160 0fe6 01       		.uleb128 0x1
 6161 0fe7 50       		.byte	0x50
 6162 0fe8 01       		.uleb128 0x1
 6163 0fe9 34       		.byte	0x34
 6164 0fea 24       		.uleb128 0x24
 6165 0feb 01       		.uleb128 0x1
 6166 0fec 51       		.byte	0x51
 6167 0fed 02       		.uleb128 0x2
 6168 0fee 74       		.byte	0x74
 6169 0fef 00       		.sleb128 0
 6170 0ff0 24       		.uleb128 0x24
 6171 0ff1 01       		.uleb128 0x1
 6172 0ff2 52       		.byte	0x52
 6173 0ff3 01       		.uleb128 0x1
 6174 0ff4 38       		.byte	0x38
 6175 0ff5 24       		.uleb128 0x24
 6176 0ff6 01       		.uleb128 0x1
 6177 0ff7 53       		.byte	0x53
 6178 0ff8 02       		.uleb128 0x2
 6179 0ff9 09       		.byte	0x9
 6180 0ffa A0       		.byte	0xa0
 6181 0ffb 24       		.uleb128 0x24
 6182 0ffc 02       		.uleb128 0x2
ARM GAS  C:\Users\VIDEOH~1\AppData\Local\Temp\ccM4oHTP.s 			page 134


 6183 0ffd 7D       		.byte	0x7d
 6184 0ffe 00       		.sleb128 0
 6185 0fff 02       		.uleb128 0x2
 6186 1000 74       		.byte	0x74
 6187 1001 00       		.sleb128 0
 6188 1002 00       		.byte	0
 6189 1003 2A       		.uleb128 0x2a
 6190 1004 3E000000 		.4byte	.LVL146
 6191 1008 15240000 		.4byte	0x2415
 6192 100c 2A100000 		.4byte	0x102a
 6193 1010 24       		.uleb128 0x24
 6194 1011 01       		.uleb128 0x1
 6195 1012 50       		.byte	0x50
 6196 1013 01       		.uleb128 0x1
 6197 1014 32       		.byte	0x32
 6198 1015 24       		.uleb128 0x24
 6199 1016 01       		.uleb128 0x1
 6200 1017 51       		.byte	0x51
 6201 1018 02       		.uleb128 0x2
 6202 1019 74       		.byte	0x74
 6203 101a 00       		.sleb128 0
 6204 101b 24       		.uleb128 0x24
 6205 101c 01       		.uleb128 0x1
 6206 101d 52       		.byte	0x52
 6207 101e 05       		.uleb128 0x5
 6208 101f 03       		.byte	0x3
 6209 1020 B8000000 		.4byte	.LC41
 6210 1024 24       		.uleb128 0x24
 6211 1025 01       		.uleb128 0x1
 6212 1026 53       		.byte	0x53
 6213 1027 01       		.uleb128 0x1
 6214 1028 31       		.byte	0x31
 6215 1029 00       		.byte	0
 6216 102a 2A       		.uleb128 0x2a
 6217 102b 4A000000 		.4byte	.LVL147
 6218 102f 15240000 		.4byte	0x2415
 6219 1033 52100000 		.4byte	0x1052
 6220 1037 24       		.uleb128 0x24
 6221 1038 01       		.uleb128 0x1
 6222 1039 50       		.byte	0x50
 6223 103a 01       		.uleb128 0x1
 6224 103b 36       		.byte	0x36
 6225 103c 24       		.uleb128 0x24
 6226 103d 01       		.uleb128 0x1
 6227 103e 51       		.byte	0x51
 6228 103f 02       		.uleb128 0x2
 6229 1040 08       		.byte	0x8
 6230 1041 26       		.byte	0x26
 6231 1042 24       		.uleb128 0x24
 6232 1043 01       		.uleb128 0x1
 6233 1044 52       		.byte	0x52
 6234 1045 05       		.uleb128 0x5
 6235 1046 03       		.byte	0x3
 6236 1047 B0000000 		.4byte	.LC38
 6237 104b 24       		.uleb128 0x24
 6238 104c 01       		.uleb128 0x1
 6239 104d 53       		.byte	0x53
ARM GAS  C:\Users\VIDEOH~1\AppData\Local\Temp\ccM4oHTP.s 			page 135


 6240 104e 02       		.uleb128 0x2
 6241 104f 74       		.byte	0x74
 6242 1050 00       		.sleb128 0
 6243 1051 00       		.byte	0
 6244 1052 2A       		.uleb128 0x2a
 6245 1053 58000000 		.4byte	.LVL148
 6246 1057 12090000 		.4byte	0x912
 6247 105b 66100000 		.4byte	0x1066
 6248 105f 24       		.uleb128 0x24
 6249 1060 01       		.uleb128 0x1
 6250 1061 50       		.byte	0x50
 6251 1062 02       		.uleb128 0x2
 6252 1063 76       		.byte	0x76
 6253 1064 00       		.sleb128 0
 6254 1065 00       		.byte	0
 6255 1066 2B       		.uleb128 0x2b
 6256 1067 5C000000 		.4byte	.LVL149
 6257 106b 85240000 		.4byte	0x2485
 6258 106f 2B       		.uleb128 0x2b
 6259 1070 68000000 		.4byte	.LVL151
 6260 1074 6F240000 		.4byte	0x246f
 6261 1078 2A       		.uleb128 0x2a
 6262 1079 88000000 		.4byte	.LVL155
 6263 107d E2050000 		.4byte	0x5e2
 6264 1081 95100000 		.4byte	0x1095
 6265 1085 24       		.uleb128 0x24
 6266 1086 01       		.uleb128 0x1
 6267 1087 51       		.byte	0x51
 6268 1088 05       		.uleb128 0x5
 6269 1089 03       		.byte	0x3
 6270 108a 3C000000 		.4byte	.LC16
 6271 108e 24       		.uleb128 0x24
 6272 108f 01       		.uleb128 0x1
 6273 1090 52       		.byte	0x52
 6274 1091 02       		.uleb128 0x2
 6275 1092 91       		.byte	0x91
 6276 1093 50       		.sleb128 -48
 6277 1094 00       		.byte	0
 6278 1095 2A       		.uleb128 0x2a
 6279 1096 8E000000 		.4byte	.LVL156
 6280 109a E5230000 		.4byte	0x23e5
 6281 109e A9100000 		.4byte	0x10a9
 6282 10a2 24       		.uleb128 0x24
 6283 10a3 01       		.uleb128 0x1
 6284 10a4 50       		.byte	0x50
 6285 10a5 02       		.uleb128 0x2
 6286 10a6 91       		.byte	0x91
 6287 10a7 50       		.sleb128 -48
 6288 10a8 00       		.byte	0
 6289 10a9 2A       		.uleb128 0x2a
 6290 10aa 9C000000 		.4byte	.LVL157
 6291 10ae DC230000 		.4byte	0x23dc
 6292 10b2 C5100000 		.4byte	0x10c5
 6293 10b6 24       		.uleb128 0x24
 6294 10b7 01       		.uleb128 0x1
 6295 10b8 51       		.byte	0x51
 6296 10b9 05       		.uleb128 0x5
ARM GAS  C:\Users\VIDEOH~1\AppData\Local\Temp\ccM4oHTP.s 			page 136


 6297 10ba 03       		.byte	0x3
 6298 10bb 38000000 		.4byte	.LC14
 6299 10bf 24       		.uleb128 0x24
 6300 10c0 01       		.uleb128 0x1
 6301 10c1 52       		.byte	0x52
 6302 10c2 01       		.uleb128 0x1
 6303 10c3 32       		.byte	0x32
 6304 10c4 00       		.byte	0
 6305 10c5 23       		.uleb128 0x23
 6306 10c6 A8000000 		.4byte	.LVL158
 6307 10ca 15240000 		.4byte	0x2415
 6308 10ce 24       		.uleb128 0x24
 6309 10cf 01       		.uleb128 0x1
 6310 10d0 50       		.byte	0x50
 6311 10d1 01       		.uleb128 0x1
 6312 10d2 34       		.byte	0x34
 6313 10d3 24       		.uleb128 0x24
 6314 10d4 01       		.uleb128 0x1
 6315 10d5 51       		.byte	0x51
 6316 10d6 02       		.uleb128 0x2
 6317 10d7 08       		.byte	0x8
 6318 10d8 2B       		.byte	0x2b
 6319 10d9 24       		.uleb128 0x24
 6320 10da 01       		.uleb128 0x1
 6321 10db 52       		.byte	0x52
 6322 10dc 02       		.uleb128 0x2
 6323 10dd 91       		.byte	0x91
 6324 10de 50       		.sleb128 -48
 6325 10df 24       		.uleb128 0x24
 6326 10e0 01       		.uleb128 0x1
 6327 10e1 53       		.byte	0x53
 6328 10e2 01       		.uleb128 0x1
 6329 10e3 30       		.byte	0x30
 6330 10e4 00       		.byte	0
 6331 10e5 00       		.byte	0
 6332 10e6 1F       		.uleb128 0x1f
 6333 10e7 85010000 		.4byte	.LASF121
 6334 10eb 01       		.byte	0x1
 6335 10ec 2E03     		.2byte	0x32e
 6336 10ee 00000000 		.4byte	.LFB63
 6337 10f2 74000000 		.4byte	.LFE63-.LFB63
 6338 10f6 01       		.uleb128 0x1
 6339 10f7 9C       		.byte	0x9c
 6340 10f8 13120000 		.4byte	0x1213
 6341 10fc 20       		.uleb128 0x20
 6342 10fd 38090000 		.4byte	.LASF114
 6343 1101 01       		.byte	0x1
 6344 1102 2E03     		.2byte	0x32e
 6345 1104 510C0000 		.4byte	0xc51
 6346 1108 3C040000 		.4byte	.LLST32
 6347 110c 2A       		.uleb128 0x2a
 6348 110d 16000000 		.4byte	.LVL162
 6349 1111 7A240000 		.4byte	0x247a
 6350 1115 35110000 		.4byte	0x1135
 6351 1119 24       		.uleb128 0x24
 6352 111a 01       		.uleb128 0x1
 6353 111b 50       		.byte	0x50
ARM GAS  C:\Users\VIDEOH~1\AppData\Local\Temp\ccM4oHTP.s 			page 137


 6354 111c 01       		.uleb128 0x1
 6355 111d 32       		.byte	0x32
 6356 111e 24       		.uleb128 0x24
 6357 111f 01       		.uleb128 0x1
 6358 1120 51       		.byte	0x51
 6359 1121 01       		.uleb128 0x1
 6360 1122 30       		.byte	0x30
 6361 1123 24       		.uleb128 0x24
 6362 1124 01       		.uleb128 0x1
 6363 1125 52       		.byte	0x52
 6364 1126 01       		.uleb128 0x1
 6365 1127 38       		.byte	0x38
 6366 1128 24       		.uleb128 0x24
 6367 1129 01       		.uleb128 0x1
 6368 112a 53       		.byte	0x53
 6369 112b 02       		.uleb128 0x2
 6370 112c 09       		.byte	0x9
 6371 112d A0       		.byte	0xa0
 6372 112e 24       		.uleb128 0x24
 6373 112f 02       		.uleb128 0x2
 6374 1130 7D       		.byte	0x7d
 6375 1131 00       		.sleb128 0
 6376 1132 01       		.uleb128 0x1
 6377 1133 30       		.byte	0x30
 6378 1134 00       		.byte	0
 6379 1135 2A       		.uleb128 0x2a
 6380 1136 22000000 		.4byte	.LVL163
 6381 113a 15240000 		.4byte	0x2415
 6382 113e 5B110000 		.4byte	0x115b
 6383 1142 24       		.uleb128 0x24
 6384 1143 01       		.uleb128 0x1
 6385 1144 50       		.byte	0x50
 6386 1145 01       		.uleb128 0x1
 6387 1146 33       		.byte	0x33
 6388 1147 24       		.uleb128 0x24
 6389 1148 01       		.uleb128 0x1
 6390 1149 51       		.byte	0x51
 6391 114a 01       		.uleb128 0x1
 6392 114b 3E       		.byte	0x3e
 6393 114c 24       		.uleb128 0x24
 6394 114d 01       		.uleb128 0x1
 6395 114e 52       		.byte	0x52
 6396 114f 05       		.uleb128 0x5
 6397 1150 03       		.byte	0x3
 6398 1151 DC000000 		.4byte	.LC57
 6399 1155 24       		.uleb128 0x24
 6400 1156 01       		.uleb128 0x1
 6401 1157 53       		.byte	0x53
 6402 1158 01       		.uleb128 0x1
 6403 1159 30       		.byte	0x30
 6404 115a 00       		.byte	0
 6405 115b 2A       		.uleb128 0x2a
 6406 115c 32000000 		.4byte	.LVL164
 6407 1160 7A240000 		.4byte	0x247a
 6408 1164 84110000 		.4byte	0x1184
 6409 1168 24       		.uleb128 0x24
 6410 1169 01       		.uleb128 0x1
ARM GAS  C:\Users\VIDEOH~1\AppData\Local\Temp\ccM4oHTP.s 			page 138


 6411 116a 50       		.byte	0x50
 6412 116b 01       		.uleb128 0x1
 6413 116c 36       		.byte	0x36
 6414 116d 24       		.uleb128 0x24
 6415 116e 01       		.uleb128 0x1
 6416 116f 51       		.byte	0x51
 6417 1170 01       		.uleb128 0x1
 6418 1171 3F       		.byte	0x3f
 6419 1172 24       		.uleb128 0x24
 6420 1173 01       		.uleb128 0x1
 6421 1174 52       		.byte	0x52
 6422 1175 01       		.uleb128 0x1
 6423 1176 37       		.byte	0x37
 6424 1177 24       		.uleb128 0x24
 6425 1178 01       		.uleb128 0x1
 6426 1179 53       		.byte	0x53
 6427 117a 01       		.uleb128 0x1
 6428 117b 40       		.byte	0x40
 6429 117c 24       		.uleb128 0x24
 6430 117d 02       		.uleb128 0x2
 6431 117e 7D       		.byte	0x7d
 6432 117f 00       		.sleb128 0
 6433 1180 02       		.uleb128 0x2
 6434 1181 75       		.byte	0x75
 6435 1182 00       		.sleb128 0
 6436 1183 00       		.byte	0
 6437 1184 2A       		.uleb128 0x2a
 6438 1185 40000000 		.4byte	.LVL165
 6439 1189 7A240000 		.4byte	0x247a
 6440 118d AF110000 		.4byte	0x11af
 6441 1191 24       		.uleb128 0x24
 6442 1192 01       		.uleb128 0x1
 6443 1193 50       		.byte	0x50
 6444 1194 01       		.uleb128 0x1
 6445 1195 36       		.byte	0x36
 6446 1196 24       		.uleb128 0x24
 6447 1197 01       		.uleb128 0x1
 6448 1198 51       		.byte	0x51
 6449 1199 02       		.uleb128 0x2
 6450 119a 09       		.byte	0x9
 6451 119b 91       		.byte	0x91
 6452 119c 24       		.uleb128 0x24
 6453 119d 01       		.uleb128 0x1
 6454 119e 52       		.byte	0x52
 6455 119f 01       		.uleb128 0x1
 6456 11a0 37       		.byte	0x37
 6457 11a1 24       		.uleb128 0x24
 6458 11a2 01       		.uleb128 0x1
 6459 11a3 53       		.byte	0x53
 6460 11a4 02       		.uleb128 0x2
 6461 11a5 09       		.byte	0x9
 6462 11a6 92       		.byte	0x92
 6463 11a7 24       		.uleb128 0x24
 6464 11a8 02       		.uleb128 0x2
 6465 11a9 7D       		.byte	0x7d
 6466 11aa 00       		.sleb128 0
 6467 11ab 02       		.uleb128 0x2
ARM GAS  C:\Users\VIDEOH~1\AppData\Local\Temp\ccM4oHTP.s 			page 139


 6468 11ac 75       		.byte	0x75
 6469 11ad 00       		.sleb128 0
 6470 11ae 00       		.byte	0
 6471 11af 2A       		.uleb128 0x2a
 6472 11b0 50000000 		.4byte	.LVL166
 6473 11b4 7A240000 		.4byte	0x247a
 6474 11b8 D9110000 		.4byte	0x11d9
 6475 11bc 24       		.uleb128 0x24
 6476 11bd 01       		.uleb128 0x1
 6477 11be 50       		.byte	0x50
 6478 11bf 01       		.uleb128 0x1
 6479 11c0 36       		.byte	0x36
 6480 11c1 24       		.uleb128 0x24
 6481 11c2 01       		.uleb128 0x1
 6482 11c3 51       		.byte	0x51
 6483 11c4 01       		.uleb128 0x1
 6484 11c5 40       		.byte	0x40
 6485 11c6 24       		.uleb128 0x24
 6486 11c7 01       		.uleb128 0x1
 6487 11c8 52       		.byte	0x52
 6488 11c9 01       		.uleb128 0x1
 6489 11ca 37       		.byte	0x37
 6490 11cb 24       		.uleb128 0x24
 6491 11cc 01       		.uleb128 0x1
 6492 11cd 53       		.byte	0x53
 6493 11ce 02       		.uleb128 0x2
 6494 11cf 09       		.byte	0x9
 6495 11d0 91       		.byte	0x91
 6496 11d1 24       		.uleb128 0x24
 6497 11d2 02       		.uleb128 0x2
 6498 11d3 7D       		.byte	0x7d
 6499 11d4 00       		.sleb128 0
 6500 11d5 02       		.uleb128 0x2
 6501 11d6 09       		.byte	0x9
 6502 11d7 81       		.byte	0x81
 6503 11d8 00       		.byte	0
 6504 11d9 2A       		.uleb128 0x2a
 6505 11da 5C000000 		.4byte	.LVL167
 6506 11de 90240000 		.4byte	0x2490
 6507 11e2 FC110000 		.4byte	0x11fc
 6508 11e6 24       		.uleb128 0x24
 6509 11e7 01       		.uleb128 0x1
 6510 11e8 50       		.byte	0x50
 6511 11e9 02       		.uleb128 0x2
 6512 11ea 74       		.byte	0x74
 6513 11eb 00       		.sleb128 0
 6514 11ec 24       		.uleb128 0x24
 6515 11ed 01       		.uleb128 0x1
 6516 11ee 51       		.byte	0x51
 6517 11ef 02       		.uleb128 0x2
 6518 11f0 75       		.byte	0x75
 6519 11f1 00       		.sleb128 0
 6520 11f2 24       		.uleb128 0x24
 6521 11f3 01       		.uleb128 0x1
 6522 11f4 52       		.byte	0x52
 6523 11f5 05       		.uleb128 0x5
 6524 11f6 03       		.byte	0x3
ARM GAS  C:\Users\VIDEOH~1\AppData\Local\Temp\ccM4oHTP.s 			page 140


 6525 11f7 00000000 		.4byte	ui_calibration_progress
 6526 11fb 00       		.byte	0
 6527 11fc 23       		.uleb128 0x23
 6528 11fd 64000000 		.4byte	.LVL168
 6529 1201 9B240000 		.4byte	0x249b
 6530 1205 24       		.uleb128 0x24
 6531 1206 01       		.uleb128 0x1
 6532 1207 50       		.byte	0x50
 6533 1208 02       		.uleb128 0x2
 6534 1209 74       		.byte	0x74
 6535 120a 00       		.sleb128 0
 6536 120b 24       		.uleb128 0x24
 6537 120c 01       		.uleb128 0x1
 6538 120d 51       		.byte	0x51
 6539 120e 02       		.uleb128 0x2
 6540 120f 75       		.byte	0x75
 6541 1210 00       		.sleb128 0
 6542 1211 00       		.byte	0
 6543 1212 00       		.byte	0
 6544 1213 1C       		.uleb128 0x1c
 6545 1214 D2090000 		.4byte	.LASF122
 6546 1218 01       		.byte	0x1
 6547 1219 3A03     		.2byte	0x33a
 6548 121b B2040000 		.4byte	0x4b2
 6549 121f 00000000 		.4byte	.LFB64
 6550 1223 88000000 		.4byte	.LFE64-.LFB64
 6551 1227 01       		.uleb128 0x1
 6552 1228 9C       		.byte	0x9c
 6553 1229 3B130000 		.4byte	0x133b
 6554 122d 1D       		.uleb128 0x1d
 6555 122e 61726700 		.ascii	"arg\000"
 6556 1232 01       		.byte	0x1
 6557 1233 3A03     		.2byte	0x33a
 6558 1235 23040000 		.4byte	0x423
 6559 1239 68040000 		.4byte	.LLST33
 6560 123d 32       		.uleb128 0x32
 6561 123e 38090000 		.4byte	.LASF114
 6562 1242 01       		.byte	0x1
 6563 1243 3E03     		.2byte	0x33e
 6564 1245 39030000 		.4byte	0x339
 6565 1249 02       		.uleb128 0x2
 6566 124a 91       		.byte	0x91
 6567 124b 40       		.sleb128 -64
 6568 124c 2A       		.uleb128 0x2a
 6569 124d 0C000000 		.4byte	.LVL172
 6570 1251 43240000 		.4byte	0x2443
 6571 1255 5F120000 		.4byte	0x125f
 6572 1259 24       		.uleb128 0x24
 6573 125a 01       		.uleb128 0x1
 6574 125b 50       		.byte	0x50
 6575 125c 01       		.uleb128 0x1
 6576 125d 30       		.byte	0x30
 6577 125e 00       		.byte	0
 6578 125f 2A       		.uleb128 0x2a
 6579 1260 12000000 		.4byte	.LVL173
 6580 1264 A6240000 		.4byte	0x24a6
 6581 1268 72120000 		.4byte	0x1272
ARM GAS  C:\Users\VIDEOH~1\AppData\Local\Temp\ccM4oHTP.s 			page 141


 6582 126c 24       		.uleb128 0x24
 6583 126d 01       		.uleb128 0x1
 6584 126e 50       		.byte	0x50
 6585 126f 01       		.uleb128 0x1
 6586 1270 32       		.byte	0x32
 6587 1271 00       		.byte	0
 6588 1272 2A       		.uleb128 0x2a
 6589 1273 1E000000 		.4byte	.LVL174
 6590 1277 DC230000 		.4byte	0x23dc
 6591 127b 8C120000 		.4byte	0x128c
 6592 127f 24       		.uleb128 0x24
 6593 1280 01       		.uleb128 0x1
 6594 1281 50       		.byte	0x50
 6595 1282 02       		.uleb128 0x2
 6596 1283 7D       		.byte	0x7d
 6597 1284 00       		.sleb128 0
 6598 1285 24       		.uleb128 0x24
 6599 1286 01       		.uleb128 0x1
 6600 1287 52       		.byte	0x52
 6601 1288 02       		.uleb128 0x2
 6602 1289 08       		.byte	0x8
 6603 128a 30       		.byte	0x30
 6604 128b 00       		.byte	0
 6605 128c 2B       		.uleb128 0x2b
 6606 128d 34000000 		.4byte	.LVL175
 6607 1291 0A240000 		.4byte	0x240a
 6608 1295 2A       		.uleb128 0x2a
 6609 1296 40000000 		.4byte	.LVL176
 6610 129a 15240000 		.4byte	0x2415
 6611 129e BB120000 		.4byte	0x12bb
 6612 12a2 24       		.uleb128 0x24
 6613 12a3 01       		.uleb128 0x1
 6614 12a4 50       		.byte	0x50
 6615 12a5 01       		.uleb128 0x1
 6616 12a6 30       		.byte	0x30
 6617 12a7 24       		.uleb128 0x24
 6618 12a8 01       		.uleb128 0x1
 6619 12a9 51       		.byte	0x51
 6620 12aa 01       		.uleb128 0x1
 6621 12ab 30       		.byte	0x30
 6622 12ac 24       		.uleb128 0x24
 6623 12ad 01       		.uleb128 0x1
 6624 12ae 52       		.byte	0x52
 6625 12af 05       		.uleb128 0x5
 6626 12b0 03       		.byte	0x3
 6627 12b1 E8000000 		.4byte	.LC62
 6628 12b5 24       		.uleb128 0x24
 6629 12b6 01       		.uleb128 0x1
 6630 12b7 53       		.byte	0x53
 6631 12b8 01       		.uleb128 0x1
 6632 12b9 31       		.byte	0x31
 6633 12ba 00       		.byte	0
 6634 12bb 2A       		.uleb128 0x2a
 6635 12bc 46000000 		.4byte	.LVL177
 6636 12c0 840B0000 		.4byte	0xb84
 6637 12c4 CF120000 		.4byte	0x12cf
 6638 12c8 24       		.uleb128 0x24
ARM GAS  C:\Users\VIDEOH~1\AppData\Local\Temp\ccM4oHTP.s 			page 142


 6639 12c9 01       		.uleb128 0x1
 6640 12ca 50       		.byte	0x50
 6641 12cb 02       		.uleb128 0x2
 6642 12cc 7D       		.byte	0x7d
 6643 12cd 00       		.sleb128 0
 6644 12ce 00       		.byte	0
 6645 12cf 2A       		.uleb128 0x2a
 6646 12d0 4C000000 		.4byte	.LVL178
 6647 12d4 570C0000 		.4byte	0xc57
 6648 12d8 E3120000 		.4byte	0x12e3
 6649 12dc 24       		.uleb128 0x24
 6650 12dd 01       		.uleb128 0x1
 6651 12de 50       		.byte	0x50
 6652 12df 02       		.uleb128 0x2
 6653 12e0 7D       		.byte	0x7d
 6654 12e1 00       		.sleb128 0
 6655 12e2 00       		.byte	0
 6656 12e3 2A       		.uleb128 0x2a
 6657 12e4 52000000 		.4byte	.LVL179
 6658 12e8 E30D0000 		.4byte	0xde3
 6659 12ec F7120000 		.4byte	0x12f7
 6660 12f0 24       		.uleb128 0x24
 6661 12f1 01       		.uleb128 0x1
 6662 12f2 50       		.byte	0x50
 6663 12f3 02       		.uleb128 0x2
 6664 12f4 7D       		.byte	0x7d
 6665 12f5 00       		.sleb128 0
 6666 12f6 00       		.byte	0
 6667 12f7 2A       		.uleb128 0x2a
 6668 12f8 58000000 		.4byte	.LVL180
 6669 12fc 580F0000 		.4byte	0xf58
 6670 1300 0B130000 		.4byte	0x130b
 6671 1304 24       		.uleb128 0x24
 6672 1305 01       		.uleb128 0x1
 6673 1306 50       		.byte	0x50
 6674 1307 02       		.uleb128 0x2
 6675 1308 7D       		.byte	0x7d
 6676 1309 00       		.sleb128 0
 6677 130a 00       		.byte	0
 6678 130b 2A       		.uleb128 0x2a
 6679 130c 5E000000 		.4byte	.LVL181
 6680 1310 E6100000 		.4byte	0x10e6
 6681 1314 1F130000 		.4byte	0x131f
 6682 1318 24       		.uleb128 0x24
 6683 1319 01       		.uleb128 0x1
 6684 131a 50       		.byte	0x50
 6685 131b 02       		.uleb128 0x2
 6686 131c 7D       		.byte	0x7d
 6687 131d 00       		.sleb128 0
 6688 131e 00       		.byte	0
 6689 131f 23       		.uleb128 0x23
 6690 1320 6A000000 		.4byte	.LVL182
 6691 1324 B1240000 		.4byte	0x24b1
 6692 1328 24       		.uleb128 0x24
 6693 1329 01       		.uleb128 0x1
 6694 132a 50       		.byte	0x50
 6695 132b 01       		.uleb128 0x1
ARM GAS  C:\Users\VIDEOH~1\AppData\Local\Temp\ccM4oHTP.s 			page 143


 6696 132c 30       		.byte	0x30
 6697 132d 24       		.uleb128 0x24
 6698 132e 01       		.uleb128 0x1
 6699 132f 51       		.byte	0x51
 6700 1330 02       		.uleb128 0x2
 6701 1331 7D       		.byte	0x7d
 6702 1332 00       		.sleb128 0
 6703 1333 24       		.uleb128 0x24
 6704 1334 01       		.uleb128 0x1
 6705 1335 52       		.byte	0x52
 6706 1336 02       		.uleb128 0x2
 6707 1337 08       		.byte	0x8
 6708 1338 30       		.byte	0x30
 6709 1339 00       		.byte	0
 6710 133a 00       		.byte	0
 6711 133b 1C       		.uleb128 0x1c
 6712 133c 5E090000 		.4byte	.LASF123
 6713 1340 01       		.byte	0x1
 6714 1341 DF01     		.2byte	0x1df
 6715 1343 B2040000 		.4byte	0x4b2
 6716 1347 00000000 		.4byte	.LFB53
 6717 134b 0C010000 		.4byte	.LFE53-.LFB53
 6718 134f 01       		.uleb128 0x1
 6719 1350 9C       		.byte	0x9c
 6720 1351 D4140000 		.4byte	0x14d4
 6721 1355 1D       		.uleb128 0x1d
 6722 1356 61726700 		.ascii	"arg\000"
 6723 135a 01       		.byte	0x1
 6724 135b DF01     		.2byte	0x1df
 6725 135d 23040000 		.4byte	0x423
 6726 1361 89040000 		.4byte	.LLST34
 6727 1365 32       		.uleb128 0x32
 6728 1366 F6030000 		.4byte	.LASF124
 6729 136a 01       		.byte	0x1
 6730 136b E901     		.2byte	0x1e9
 6731 136d 73000000 		.4byte	0x73
 6732 1371 02       		.uleb128 0x2
 6733 1372 91       		.byte	0x91
 6734 1373 6C       		.sleb128 -20
 6735 1374 32       		.uleb128 0x32
 6736 1375 6E020000 		.4byte	.LASF108
 6737 1379 01       		.byte	0x1
 6738 137a EA01     		.2byte	0x1ea
 6739 137c 18040000 		.4byte	0x418
 6740 1380 02       		.uleb128 0x2
 6741 1381 91       		.byte	0x91
 6742 1382 5C       		.sleb128 -36
 6743 1383 2B       		.uleb128 0x2b
 6744 1384 0A000000 		.4byte	.LVL185
 6745 1388 0A240000 		.4byte	0x240a
 6746 138c 2A       		.uleb128 0x2a
 6747 138d 1A000000 		.4byte	.LVL186
 6748 1391 7A240000 		.4byte	0x247a
 6749 1395 B6130000 		.4byte	0x13b6
 6750 1399 24       		.uleb128 0x24
 6751 139a 01       		.uleb128 0x1
 6752 139b 50       		.byte	0x50
ARM GAS  C:\Users\VIDEOH~1\AppData\Local\Temp\ccM4oHTP.s 			page 144


 6753 139c 01       		.uleb128 0x1
 6754 139d 30       		.byte	0x30
 6755 139e 24       		.uleb128 0x24
 6756 139f 01       		.uleb128 0x1
 6757 13a0 51       		.byte	0x51
 6758 13a1 01       		.uleb128 0x1
 6759 13a2 32       		.byte	0x32
 6760 13a3 24       		.uleb128 0x24
 6761 13a4 01       		.uleb128 0x1
 6762 13a5 52       		.byte	0x52
 6763 13a6 01       		.uleb128 0x1
 6764 13a7 32       		.byte	0x32
 6765 13a8 24       		.uleb128 0x24
 6766 13a9 01       		.uleb128 0x1
 6767 13aa 53       		.byte	0x53
 6768 13ab 02       		.uleb128 0x2
 6769 13ac 09       		.byte	0x9
 6770 13ad A0       		.byte	0xa0
 6771 13ae 24       		.uleb128 0x24
 6772 13af 02       		.uleb128 0x2
 6773 13b0 7D       		.byte	0x7d
 6774 13b1 00       		.sleb128 0
 6775 13b2 02       		.uleb128 0x2
 6776 13b3 75       		.byte	0x75
 6777 13b4 00       		.sleb128 0
 6778 13b5 00       		.byte	0
 6779 13b6 2A       		.uleb128 0x2a
 6780 13b7 26000000 		.4byte	.LVL187
 6781 13bb 15240000 		.4byte	0x2415
 6782 13bf DD130000 		.4byte	0x13dd
 6783 13c3 24       		.uleb128 0x24
 6784 13c4 01       		.uleb128 0x1
 6785 13c5 50       		.byte	0x50
 6786 13c6 01       		.uleb128 0x1
 6787 13c7 30       		.byte	0x30
 6788 13c8 24       		.uleb128 0x24
 6789 13c9 01       		.uleb128 0x1
 6790 13ca 51       		.byte	0x51
 6791 13cb 02       		.uleb128 0x2
 6792 13cc 08       		.byte	0x8
 6793 13cd 20       		.byte	0x20
 6794 13ce 24       		.uleb128 0x24
 6795 13cf 01       		.uleb128 0x1
 6796 13d0 52       		.byte	0x52
 6797 13d1 05       		.uleb128 0x5
 6798 13d2 03       		.byte	0x3
 6799 13d3 F8000000 		.4byte	.LC65
 6800 13d7 24       		.uleb128 0x24
 6801 13d8 01       		.uleb128 0x1
 6802 13d9 53       		.byte	0x53
 6803 13da 01       		.uleb128 0x1
 6804 13db 31       		.byte	0x31
 6805 13dc 00       		.byte	0
 6806 13dd 2A       		.uleb128 0x2a
 6807 13de 32000000 		.4byte	.LVL188
 6808 13e2 15240000 		.4byte	0x2415
 6809 13e6 04140000 		.4byte	0x1404
ARM GAS  C:\Users\VIDEOH~1\AppData\Local\Temp\ccM4oHTP.s 			page 145


 6810 13ea 24       		.uleb128 0x24
 6811 13eb 01       		.uleb128 0x1
 6812 13ec 50       		.byte	0x50
 6813 13ed 01       		.uleb128 0x1
 6814 13ee 36       		.byte	0x36
 6815 13ef 24       		.uleb128 0x24
 6816 13f0 01       		.uleb128 0x1
 6817 13f1 51       		.byte	0x51
 6818 13f2 02       		.uleb128 0x2
 6819 13f3 08       		.byte	0x8
 6820 13f4 26       		.byte	0x26
 6821 13f5 24       		.uleb128 0x24
 6822 13f6 01       		.uleb128 0x1
 6823 13f7 52       		.byte	0x52
 6824 13f8 05       		.uleb128 0x5
 6825 13f9 03       		.byte	0x3
 6826 13fa 04010000 		.4byte	.LC67
 6827 13fe 24       		.uleb128 0x24
 6828 13ff 01       		.uleb128 0x1
 6829 1400 53       		.byte	0x53
 6830 1401 01       		.uleb128 0x1
 6831 1402 30       		.byte	0x30
 6832 1403 00       		.byte	0
 6833 1404 2A       		.uleb128 0x2a
 6834 1405 40000000 		.4byte	.LVL189
 6835 1409 7A240000 		.4byte	0x247a
 6836 140d 2D140000 		.4byte	0x142d
 6837 1411 24       		.uleb128 0x24
 6838 1412 01       		.uleb128 0x1
 6839 1413 50       		.byte	0x50
 6840 1414 01       		.uleb128 0x1
 6841 1415 34       		.byte	0x34
 6842 1416 24       		.uleb128 0x24
 6843 1417 01       		.uleb128 0x1
 6844 1418 51       		.byte	0x51
 6845 1419 01       		.uleb128 0x1
 6846 141a 3F       		.byte	0x3f
 6847 141b 24       		.uleb128 0x24
 6848 141c 01       		.uleb128 0x1
 6849 141d 52       		.byte	0x52
 6850 141e 01       		.uleb128 0x1
 6851 141f 35       		.byte	0x35
 6852 1420 24       		.uleb128 0x24
 6853 1421 01       		.uleb128 0x1
 6854 1422 53       		.byte	0x53
 6855 1423 01       		.uleb128 0x1
 6856 1424 40       		.byte	0x40
 6857 1425 24       		.uleb128 0x24
 6858 1426 02       		.uleb128 0x2
 6859 1427 7D       		.byte	0x7d
 6860 1428 00       		.sleb128 0
 6861 1429 02       		.uleb128 0x2
 6862 142a 75       		.byte	0x75
 6863 142b 00       		.sleb128 0
 6864 142c 00       		.byte	0
 6865 142d 2A       		.uleb128 0x2a
 6866 142e 4E000000 		.4byte	.LVL190
ARM GAS  C:\Users\VIDEOH~1\AppData\Local\Temp\ccM4oHTP.s 			page 146


 6867 1432 7A240000 		.4byte	0x247a
 6868 1436 58140000 		.4byte	0x1458
 6869 143a 24       		.uleb128 0x24
 6870 143b 01       		.uleb128 0x1
 6871 143c 50       		.byte	0x50
 6872 143d 01       		.uleb128 0x1
 6873 143e 34       		.byte	0x34
 6874 143f 24       		.uleb128 0x24
 6875 1440 01       		.uleb128 0x1
 6876 1441 51       		.byte	0x51
 6877 1442 02       		.uleb128 0x2
 6878 1443 09       		.byte	0x9
 6879 1444 91       		.byte	0x91
 6880 1445 24       		.uleb128 0x24
 6881 1446 01       		.uleb128 0x1
 6882 1447 52       		.byte	0x52
 6883 1448 01       		.uleb128 0x1
 6884 1449 35       		.byte	0x35
 6885 144a 24       		.uleb128 0x24
 6886 144b 01       		.uleb128 0x1
 6887 144c 53       		.byte	0x53
 6888 144d 02       		.uleb128 0x2
 6889 144e 09       		.byte	0x9
 6890 144f 92       		.byte	0x92
 6891 1450 24       		.uleb128 0x24
 6892 1451 02       		.uleb128 0x2
 6893 1452 7D       		.byte	0x7d
 6894 1453 00       		.sleb128 0
 6895 1454 02       		.uleb128 0x2
 6896 1455 75       		.byte	0x75
 6897 1456 00       		.sleb128 0
 6898 1457 00       		.byte	0
 6899 1458 2A       		.uleb128 0x2a
 6900 1459 6C000000 		.4byte	.LVL191
 6901 145d 7A240000 		.4byte	0x247a
 6902 1461 7C140000 		.4byte	0x147c
 6903 1465 24       		.uleb128 0x24
 6904 1466 01       		.uleb128 0x1
 6905 1467 50       		.byte	0x50
 6906 1468 01       		.uleb128 0x1
 6907 1469 34       		.byte	0x34
 6908 146a 24       		.uleb128 0x24
 6909 146b 01       		.uleb128 0x1
 6910 146c 51       		.byte	0x51
 6911 146d 01       		.uleb128 0x1
 6912 146e 40       		.byte	0x40
 6913 146f 24       		.uleb128 0x24
 6914 1470 01       		.uleb128 0x1
 6915 1471 52       		.byte	0x52
 6916 1472 01       		.uleb128 0x1
 6917 1473 35       		.byte	0x35
 6918 1474 24       		.uleb128 0x24
 6919 1475 02       		.uleb128 0x2
 6920 1476 7D       		.byte	0x7d
 6921 1477 00       		.sleb128 0
 6922 1478 02       		.uleb128 0x2
 6923 1479 09       		.byte	0x9
ARM GAS  C:\Users\VIDEOH~1\AppData\Local\Temp\ccM4oHTP.s 			page 147


 6924 147a FF       		.byte	0xff
 6925 147b 00       		.byte	0
 6926 147c 2A       		.uleb128 0x2a
 6927 147d 82000000 		.4byte	.LVL192
 6928 1481 7A240000 		.4byte	0x247a
 6929 1485 A1140000 		.4byte	0x14a1
 6930 1489 24       		.uleb128 0x24
 6931 148a 01       		.uleb128 0x1
 6932 148b 50       		.byte	0x50
 6933 148c 01       		.uleb128 0x1
 6934 148d 34       		.byte	0x34
 6935 148e 24       		.uleb128 0x24
 6936 148f 01       		.uleb128 0x1
 6937 1490 52       		.byte	0x52
 6938 1491 01       		.uleb128 0x1
 6939 1492 35       		.byte	0x35
 6940 1493 24       		.uleb128 0x24
 6941 1494 01       		.uleb128 0x1
 6942 1495 53       		.byte	0x53
 6943 1496 02       		.uleb128 0x2
 6944 1497 09       		.byte	0x9
 6945 1498 91       		.byte	0x91
 6946 1499 24       		.uleb128 0x24
 6947 149a 02       		.uleb128 0x2
 6948 149b 7D       		.byte	0x7d
 6949 149c 00       		.sleb128 0
 6950 149d 02       		.uleb128 0x2
 6951 149e 09       		.byte	0x9
 6952 149f 81       		.byte	0x81
 6953 14a0 00       		.byte	0
 6954 14a1 2A       		.uleb128 0x2a
 6955 14a2 8A000000 		.4byte	.LVL193
 6956 14a6 12090000 		.4byte	0x912
 6957 14aa B5140000 		.4byte	0x14b5
 6958 14ae 24       		.uleb128 0x24
 6959 14af 01       		.uleb128 0x1
 6960 14b0 50       		.byte	0x50
 6961 14b1 02       		.uleb128 0x2
 6962 14b2 75       		.byte	0x75
 6963 14b3 00       		.sleb128 0
 6964 14b4 00       		.byte	0
 6965 14b5 2B       		.uleb128 0x2b
 6966 14b6 BE000000 		.4byte	.LVL194
 6967 14ba BD240000 		.4byte	0x24bd
 6968 14be 23       		.uleb128 0x23
 6969 14bf DA000000 		.4byte	.LVL195
 6970 14c3 B1240000 		.4byte	0x24b1
 6971 14c7 24       		.uleb128 0x24
 6972 14c8 01       		.uleb128 0x1
 6973 14c9 51       		.byte	0x51
 6974 14ca 02       		.uleb128 0x2
 6975 14cb 91       		.byte	0x91
 6976 14cc 6C       		.sleb128 -20
 6977 14cd 24       		.uleb128 0x24
 6978 14ce 01       		.uleb128 0x1
 6979 14cf 52       		.byte	0x52
 6980 14d0 01       		.uleb128 0x1
ARM GAS  C:\Users\VIDEOH~1\AppData\Local\Temp\ccM4oHTP.s 			page 148


 6981 14d1 34       		.byte	0x34
 6982 14d2 00       		.byte	0
 6983 14d3 00       		.byte	0
 6984 14d4 1C       		.uleb128 0x1c
 6985 14d5 32020000 		.4byte	.LASF125
 6986 14d9 01       		.byte	0x1
 6987 14da 4702     		.2byte	0x247
 6988 14dc B2040000 		.4byte	0x4b2
 6989 14e0 00000000 		.4byte	.LFB55
 6990 14e4 A0000000 		.4byte	.LFE55-.LFB55
 6991 14e8 01       		.uleb128 0x1
 6992 14e9 9C       		.byte	0x9c
 6993 14ea EA150000 		.4byte	0x15ea
 6994 14ee 1D       		.uleb128 0x1d
 6995 14ef 61726700 		.ascii	"arg\000"
 6996 14f3 01       		.byte	0x1
 6997 14f4 4702     		.2byte	0x247
 6998 14f6 23040000 		.4byte	0x423
 6999 14fa AA040000 		.4byte	.LLST35
 7000 14fe 32       		.uleb128 0x32
 7001 14ff 6E020000 		.4byte	.LASF108
 7002 1503 01       		.byte	0x1
 7003 1504 5302     		.2byte	0x253
 7004 1506 18040000 		.4byte	0x418
 7005 150a 02       		.uleb128 0x2
 7006 150b 91       		.byte	0x91
 7007 150c 60       		.sleb128 -32
 7008 150d 2A       		.uleb128 0x2a
 7009 150e 18000000 		.4byte	.LVL200
 7010 1512 7A240000 		.4byte	0x247a
 7011 1516 37150000 		.4byte	0x1537
 7012 151a 24       		.uleb128 0x24
 7013 151b 01       		.uleb128 0x1
 7014 151c 50       		.byte	0x50
 7015 151d 01       		.uleb128 0x1
 7016 151e 30       		.byte	0x30
 7017 151f 24       		.uleb128 0x24
 7018 1520 01       		.uleb128 0x1
 7019 1521 51       		.byte	0x51
 7020 1522 01       		.uleb128 0x1
 7021 1523 30       		.byte	0x30
 7022 1524 24       		.uleb128 0x24
 7023 1525 01       		.uleb128 0x1
 7024 1526 52       		.byte	0x52
 7025 1527 01       		.uleb128 0x1
 7026 1528 38       		.byte	0x38
 7027 1529 24       		.uleb128 0x24
 7028 152a 01       		.uleb128 0x1
 7029 152b 53       		.byte	0x53
 7030 152c 02       		.uleb128 0x2
 7031 152d 09       		.byte	0x9
 7032 152e A0       		.byte	0xa0
 7033 152f 24       		.uleb128 0x24
 7034 1530 02       		.uleb128 0x2
 7035 1531 7D       		.byte	0x7d
 7036 1532 00       		.sleb128 0
 7037 1533 02       		.uleb128 0x2
ARM GAS  C:\Users\VIDEOH~1\AppData\Local\Temp\ccM4oHTP.s 			page 149


 7038 1534 76       		.byte	0x76
 7039 1535 00       		.sleb128 0
 7040 1536 00       		.byte	0
 7041 1537 2A       		.uleb128 0x2a
 7042 1538 30000000 		.4byte	.LVL201
 7043 153c 15240000 		.4byte	0x2415
 7044 1540 5D150000 		.4byte	0x155d
 7045 1544 24       		.uleb128 0x24
 7046 1545 01       		.uleb128 0x1
 7047 1546 50       		.byte	0x50
 7048 1547 01       		.uleb128 0x1
 7049 1548 32       		.byte	0x32
 7050 1549 24       		.uleb128 0x24
 7051 154a 01       		.uleb128 0x1
 7052 154b 51       		.byte	0x51
 7053 154c 01       		.uleb128 0x1
 7054 154d 36       		.byte	0x36
 7055 154e 24       		.uleb128 0x24
 7056 154f 01       		.uleb128 0x1
 7057 1550 52       		.byte	0x52
 7058 1551 05       		.uleb128 0x5
 7059 1552 03       		.byte	0x3
 7060 1553 0C010000 		.4byte	.LC72
 7061 1557 24       		.uleb128 0x24
 7062 1558 01       		.uleb128 0x1
 7063 1559 53       		.byte	0x53
 7064 155a 01       		.uleb128 0x1
 7065 155b 31       		.byte	0x31
 7066 155c 00       		.byte	0
 7067 155d 2A       		.uleb128 0x2a
 7068 155e 3E000000 		.4byte	.LVL202
 7069 1562 15240000 		.4byte	0x2415
 7070 1566 83150000 		.4byte	0x1583
 7071 156a 24       		.uleb128 0x24
 7072 156b 01       		.uleb128 0x1
 7073 156c 50       		.byte	0x50
 7074 156d 01       		.uleb128 0x1
 7075 156e 32       		.byte	0x32
 7076 156f 24       		.uleb128 0x24
 7077 1570 01       		.uleb128 0x1
 7078 1571 51       		.byte	0x51
 7079 1572 01       		.uleb128 0x1
 7080 1573 30       		.byte	0x30
 7081 1574 24       		.uleb128 0x24
 7082 1575 01       		.uleb128 0x1
 7083 1576 52       		.byte	0x52
 7084 1577 05       		.uleb128 0x5
 7085 1578 03       		.byte	0x3
 7086 1579 1C010000 		.4byte	.LC74
 7087 157d 24       		.uleb128 0x24
 7088 157e 01       		.uleb128 0x1
 7089 157f 53       		.byte	0x53
 7090 1580 01       		.uleb128 0x1
 7091 1581 31       		.byte	0x31
 7092 1582 00       		.byte	0
 7093 1583 2A       		.uleb128 0x2a
 7094 1584 4A000000 		.4byte	.LVL203
ARM GAS  C:\Users\VIDEOH~1\AppData\Local\Temp\ccM4oHTP.s 			page 150


 7095 1588 15240000 		.4byte	0x2415
 7096 158c AA150000 		.4byte	0x15aa
 7097 1590 24       		.uleb128 0x24
 7098 1591 01       		.uleb128 0x1
 7099 1592 50       		.byte	0x50
 7100 1593 01       		.uleb128 0x1
 7101 1594 36       		.byte	0x36
 7102 1595 24       		.uleb128 0x24
 7103 1596 01       		.uleb128 0x1
 7104 1597 51       		.byte	0x51
 7105 1598 02       		.uleb128 0x2
 7106 1599 08       		.byte	0x8
 7107 159a 20       		.byte	0x20
 7108 159b 24       		.uleb128 0x24
 7109 159c 01       		.uleb128 0x1
 7110 159d 52       		.byte	0x52
 7111 159e 05       		.uleb128 0x5
 7112 159f 03       		.byte	0x3
 7113 15a0 2C010000 		.4byte	.LC76
 7114 15a4 24       		.uleb128 0x24
 7115 15a5 01       		.uleb128 0x1
 7116 15a6 53       		.byte	0x53
 7117 15a7 01       		.uleb128 0x1
 7118 15a8 31       		.byte	0x31
 7119 15a9 00       		.byte	0
 7120 15aa 2A       		.uleb128 0x2a
 7121 15ab 58000000 		.4byte	.LVL204
 7122 15af 12090000 		.4byte	0x912
 7123 15b3 BE150000 		.4byte	0x15be
 7124 15b7 24       		.uleb128 0x24
 7125 15b8 01       		.uleb128 0x1
 7126 15b9 50       		.byte	0x50
 7127 15ba 02       		.uleb128 0x2
 7128 15bb 91       		.byte	0x91
 7129 15bc 60       		.sleb128 -32
 7130 15bd 00       		.byte	0
 7131 15be 2B       		.uleb128 0x2b
 7132 15bf 5C000000 		.4byte	.LVL205
 7133 15c3 C8240000 		.4byte	0x24c8
 7134 15c7 2A       		.uleb128 0x2a
 7135 15c8 7E000000 		.4byte	.LVL206
 7136 15cc 43240000 		.4byte	0x2443
 7137 15d0 DA150000 		.4byte	0x15da
 7138 15d4 24       		.uleb128 0x24
 7139 15d5 01       		.uleb128 0x1
 7140 15d6 50       		.byte	0x50
 7141 15d7 01       		.uleb128 0x1
 7142 15d8 30       		.byte	0x30
 7143 15d9 00       		.byte	0
 7144 15da 23       		.uleb128 0x23
 7145 15db 84000000 		.4byte	.LVL207
 7146 15df A6240000 		.4byte	0x24a6
 7147 15e3 24       		.uleb128 0x24
 7148 15e4 01       		.uleb128 0x1
 7149 15e5 50       		.byte	0x50
 7150 15e6 01       		.uleb128 0x1
 7151 15e7 32       		.byte	0x32
ARM GAS  C:\Users\VIDEOH~1\AppData\Local\Temp\ccM4oHTP.s 			page 151


 7152 15e8 00       		.byte	0
 7153 15e9 00       		.byte	0
 7154 15ea 34       		.uleb128 0x34
 7155 15eb D5050000 		.4byte	.LASF126
 7156 15ef 01       		.byte	0x1
 7157 15f0 1901     		.2byte	0x119
 7158 15f2 00000000 		.4byte	.LFB39
 7159 15f6 4C010000 		.4byte	.LFE39-.LFB39
 7160 15fa 01       		.uleb128 0x1
 7161 15fb 9C       		.byte	0x9c
 7162 15fc ED170000 		.4byte	0x17ed
 7163 1600 20       		.uleb128 0x20
 7164 1601 940A0000 		.4byte	.LASF127
 7165 1605 01       		.byte	0x1
 7166 1606 1901     		.2byte	0x119
 7167 1608 ED170000 		.4byte	0x17ed
 7168 160c D6040000 		.4byte	.LLST36
 7169 1610 20       		.uleb128 0x20
 7170 1611 DF070000 		.4byte	.LASF128
 7171 1615 01       		.byte	0x1
 7172 1616 1901     		.2byte	0x119
 7173 1618 73000000 		.4byte	0x73
 7174 161c 02050000 		.4byte	.LLST37
 7175 1620 30       		.uleb128 0x30
 7176 1621 4F030000 		.4byte	.LASF129
 7177 1625 01       		.byte	0x1
 7178 1626 1A01     		.2byte	0x11a
 7179 1628 73000000 		.4byte	0x73
 7180 162c 5A050000 		.4byte	.LLST38
 7181 1630 30       		.uleb128 0x30
 7182 1631 8B070000 		.4byte	.LASF130
 7183 1635 01       		.byte	0x1
 7184 1636 1B01     		.2byte	0x11b
 7185 1638 73000000 		.4byte	0x73
 7186 163c 91050000 		.4byte	.LLST39
 7187 1640 30       		.uleb128 0x30
 7188 1641 F80B0000 		.4byte	.LASF118
 7189 1645 01       		.byte	0x1
 7190 1646 2901     		.2byte	0x129
 7191 1648 F8170000 		.4byte	0x17f8
 7192 164c C8050000 		.4byte	.LLST40
 7193 1650 21       		.uleb128 0x21
 7194 1651 16000000 		.4byte	.LBB4
 7195 1655 50000000 		.4byte	.LBE4-.LBB4
 7196 1659 ED160000 		.4byte	0x16ed
 7197 165d 30       		.uleb128 0x30
 7198 165e B9010000 		.4byte	.LASF131
 7199 1662 01       		.byte	0x1
 7200 1663 1E01     		.2byte	0x11e
 7201 1665 AF000000 		.4byte	0xaf
 7202 1669 DB050000 		.4byte	.LLST41
 7203 166d 2B       		.uleb128 0x2b
 7204 166e 1A000000 		.4byte	.LVL213
 7205 1672 D3240000 		.4byte	0x24d3
 7206 1676 2A       		.uleb128 0x2a
 7207 1677 3C000000 		.4byte	.LVL215
 7208 167b 7A240000 		.4byte	0x247a
ARM GAS  C:\Users\VIDEOH~1\AppData\Local\Temp\ccM4oHTP.s 			page 152


 7209 167f A2160000 		.4byte	0x16a2
 7210 1683 24       		.uleb128 0x24
 7211 1684 01       		.uleb128 0x1
 7212 1685 50       		.byte	0x50
 7213 1686 01       		.uleb128 0x1
 7214 1687 30       		.byte	0x30
 7215 1688 24       		.uleb128 0x24
 7216 1689 01       		.uleb128 0x1
 7217 168a 51       		.byte	0x51
 7218 168b 01       		.uleb128 0x1
 7219 168c 32       		.byte	0x32
 7220 168d 24       		.uleb128 0x24
 7221 168e 01       		.uleb128 0x1
 7222 168f 52       		.byte	0x52
 7223 1690 01       		.uleb128 0x1
 7224 1691 32       		.byte	0x32
 7225 1692 24       		.uleb128 0x24
 7226 1693 01       		.uleb128 0x1
 7227 1694 53       		.byte	0x53
 7228 1695 04       		.uleb128 0x4
 7229 1696 91       		.byte	0x91
 7230 1697 5C       		.sleb128 -36
 7231 1698 94       		.byte	0x94
 7232 1699 01       		.byte	0x1
 7233 169a 24       		.uleb128 0x24
 7234 169b 02       		.uleb128 0x2
 7235 169c 7D       		.byte	0x7d
 7236 169d 00       		.sleb128 0
 7237 169e 02       		.uleb128 0x2
 7238 169f 76       		.byte	0x76
 7239 16a0 00       		.sleb128 0
 7240 16a1 00       		.byte	0
 7241 16a2 2A       		.uleb128 0x2a
 7242 16a3 48000000 		.4byte	.LVL216
 7243 16a7 15240000 		.4byte	0x2415
 7244 16ab C2160000 		.4byte	0x16c2
 7245 16af 24       		.uleb128 0x24
 7246 16b0 01       		.uleb128 0x1
 7247 16b1 50       		.byte	0x50
 7248 16b2 01       		.uleb128 0x1
 7249 16b3 30       		.byte	0x30
 7250 16b4 24       		.uleb128 0x24
 7251 16b5 01       		.uleb128 0x1
 7252 16b6 51       		.byte	0x51
 7253 16b7 04       		.uleb128 0x4
 7254 16b8 91       		.byte	0x91
 7255 16b9 5C       		.sleb128 -36
 7256 16ba 94       		.byte	0x94
 7257 16bb 01       		.byte	0x1
 7258 16bc 24       		.uleb128 0x24
 7259 16bd 01       		.uleb128 0x1
 7260 16be 53       		.byte	0x53
 7261 16bf 01       		.uleb128 0x1
 7262 16c0 31       		.byte	0x31
 7263 16c1 00       		.byte	0
 7264 16c2 23       		.uleb128 0x23
 7265 16c3 5C000000 		.4byte	.LVL217
ARM GAS  C:\Users\VIDEOH~1\AppData\Local\Temp\ccM4oHTP.s 			page 153


 7266 16c7 7A240000 		.4byte	0x247a
 7267 16cb 24       		.uleb128 0x24
 7268 16cc 01       		.uleb128 0x1
 7269 16cd 50       		.byte	0x50
 7270 16ce 01       		.uleb128 0x1
 7271 16cf 30       		.byte	0x30
 7272 16d0 24       		.uleb128 0x24
 7273 16d1 01       		.uleb128 0x1
 7274 16d2 51       		.byte	0x51
 7275 16d3 05       		.uleb128 0x5
 7276 16d4 09       		.byte	0x9
 7277 16d5 9F       		.byte	0x9f
 7278 16d6 75       		.byte	0x75
 7279 16d7 00       		.sleb128 0
 7280 16d8 1C       		.byte	0x1c
 7281 16d9 24       		.uleb128 0x24
 7282 16da 01       		.uleb128 0x1
 7283 16db 52       		.byte	0x52
 7284 16dc 01       		.uleb128 0x1
 7285 16dd 32       		.byte	0x32
 7286 16de 24       		.uleb128 0x24
 7287 16df 01       		.uleb128 0x1
 7288 16e0 53       		.byte	0x53
 7289 16e1 02       		.uleb128 0x2
 7290 16e2 09       		.byte	0x9
 7291 16e3 A0       		.byte	0xa0
 7292 16e4 24       		.uleb128 0x24
 7293 16e5 02       		.uleb128 0x2
 7294 16e6 7D       		.byte	0x7d
 7295 16e7 00       		.sleb128 0
 7296 16e8 02       		.uleb128 0x2
 7297 16e9 76       		.byte	0x76
 7298 16ea 00       		.sleb128 0
 7299 16eb 00       		.byte	0
 7300 16ec 00       		.byte	0
 7301 16ed 21       		.uleb128 0x21
 7302 16ee A2000000 		.4byte	.LBB5
 7303 16f2 70000000 		.4byte	.LBE5-.LBB5
 7304 16f6 83170000 		.4byte	0x1783
 7305 16fa 22       		.uleb128 0x22
 7306 16fb 6900     		.ascii	"i\000"
 7307 16fd 01       		.byte	0x1
 7308 16fe 2C01     		.2byte	0x12c
 7309 1700 73000000 		.4byte	0x73
 7310 1704 EE050000 		.4byte	.LLST42
 7311 1708 2A       		.uleb128 0x2a
 7312 1709 C6000000 		.4byte	.LVL227
 7313 170d 15240000 		.4byte	0x2415
 7314 1711 2C170000 		.4byte	0x172c
 7315 1715 24       		.uleb128 0x24
 7316 1716 01       		.uleb128 0x1
 7317 1717 50       		.byte	0x50
 7318 1718 02       		.uleb128 0x2
 7319 1719 76       		.byte	0x76
 7320 171a 00       		.sleb128 0
 7321 171b 24       		.uleb128 0x24
 7322 171c 01       		.uleb128 0x1
ARM GAS  C:\Users\VIDEOH~1\AppData\Local\Temp\ccM4oHTP.s 			page 154


 7323 171d 51       		.byte	0x51
 7324 171e 01       		.uleb128 0x1
 7325 171f 32       		.byte	0x32
 7326 1720 24       		.uleb128 0x24
 7327 1721 01       		.uleb128 0x1
 7328 1722 53       		.byte	0x53
 7329 1723 07       		.uleb128 0x7
 7330 1724 75       		.byte	0x75
 7331 1725 00       		.sleb128 0
 7332 1726 78       		.byte	0x78
 7333 1727 00       		.sleb128 0
 7334 1728 1C       		.byte	0x1c
 7335 1729 30       		.byte	0x30
 7336 172a 29       		.byte	0x29
 7337 172b 00       		.byte	0
 7338 172c 2B       		.uleb128 0x2b
 7339 172d CC000000 		.4byte	.LVL228
 7340 1731 D3240000 		.4byte	0x24d3
 7341 1735 2A       		.uleb128 0x2a
 7342 1736 EE000000 		.4byte	.LVL229
 7343 173a 7A240000 		.4byte	0x247a
 7344 173e 4F170000 		.4byte	0x174f
 7345 1742 24       		.uleb128 0x24
 7346 1743 01       		.uleb128 0x1
 7347 1744 50       		.byte	0x50
 7348 1745 02       		.uleb128 0x2
 7349 1746 76       		.byte	0x76
 7350 1747 00       		.sleb128 0
 7351 1748 24       		.uleb128 0x24
 7352 1749 01       		.uleb128 0x1
 7353 174a 53       		.byte	0x53
 7354 174b 02       		.uleb128 0x2
 7355 174c 09       		.byte	0x9
 7356 174d 94       		.byte	0x94
 7357 174e 00       		.byte	0
 7358 174f 23       		.uleb128 0x23
 7359 1750 0C010000 		.4byte	.LVL231
 7360 1754 7A240000 		.4byte	0x247a
 7361 1758 24       		.uleb128 0x24
 7362 1759 01       		.uleb128 0x1
 7363 175a 50       		.byte	0x50
 7364 175b 07       		.uleb128 0x7
 7365 175c 7A       		.byte	0x7a
 7366 175d 00       		.sleb128 0
 7367 175e 75       		.byte	0x75
 7368 175f 00       		.sleb128 0
 7369 1760 22       		.byte	0x22
 7370 1761 31       		.byte	0x31
 7371 1762 24       		.byte	0x24
 7372 1763 24       		.uleb128 0x24
 7373 1764 01       		.uleb128 0x1
 7374 1765 51       		.byte	0x51
 7375 1766 01       		.uleb128 0x1
 7376 1767 31       		.byte	0x31
 7377 1768 24       		.uleb128 0x24
 7378 1769 01       		.uleb128 0x1
 7379 176a 52       		.byte	0x52
ARM GAS  C:\Users\VIDEOH~1\AppData\Local\Temp\ccM4oHTP.s 			page 155


 7380 176b 09       		.uleb128 0x9
 7381 176c 75       		.byte	0x75
 7382 176d 00       		.sleb128 0
 7383 176e 7A       		.byte	0x7a
 7384 176f 00       		.sleb128 0
 7385 1770 22       		.byte	0x22
 7386 1771 23       		.byte	0x23
 7387 1772 01       		.uleb128 0x1
 7388 1773 31       		.byte	0x31
 7389 1774 24       		.byte	0x24
 7390 1775 24       		.uleb128 0x24
 7391 1776 01       		.uleb128 0x1
 7392 1777 53       		.byte	0x53
 7393 1778 02       		.uleb128 0x2
 7394 1779 09       		.byte	0x9
 7395 177a A0       		.byte	0xa0
 7396 177b 24       		.uleb128 0x24
 7397 177c 02       		.uleb128 0x2
 7398 177d 7D       		.byte	0x7d
 7399 177e 00       		.sleb128 0
 7400 177f 01       		.uleb128 0x1
 7401 1780 30       		.byte	0x30
 7402 1781 00       		.byte	0
 7403 1782 00       		.byte	0
 7404 1783 2A       		.uleb128 0x2a
 7405 1784 90000000 		.4byte	.LVL221
 7406 1788 15240000 		.4byte	0x2415
 7407 178c A2170000 		.4byte	0x17a2
 7408 1790 24       		.uleb128 0x24
 7409 1791 01       		.uleb128 0x1
 7410 1792 50       		.byte	0x50
 7411 1793 02       		.uleb128 0x2
 7412 1794 75       		.byte	0x75
 7413 1795 00       		.sleb128 0
 7414 1796 24       		.uleb128 0x24
 7415 1797 01       		.uleb128 0x1
 7416 1798 51       		.byte	0x51
 7417 1799 02       		.uleb128 0x2
 7418 179a 09       		.byte	0x9
 7419 179b 94       		.byte	0x94
 7420 179c 24       		.uleb128 0x24
 7421 179d 01       		.uleb128 0x1
 7422 179e 53       		.byte	0x53
 7423 179f 01       		.uleb128 0x1
 7424 17a0 30       		.byte	0x30
 7425 17a1 00       		.byte	0
 7426 17a2 2A       		.uleb128 0x2a
 7427 17a3 24010000 		.4byte	.LVL233
 7428 17a7 15240000 		.4byte	0x2415
 7429 17ab C9170000 		.4byte	0x17c9
 7430 17af 24       		.uleb128 0x24
 7431 17b0 01       		.uleb128 0x1
 7432 17b1 50       		.byte	0x50
 7433 17b2 01       		.uleb128 0x1
 7434 17b3 36       		.byte	0x36
 7435 17b4 24       		.uleb128 0x24
 7436 17b5 01       		.uleb128 0x1
ARM GAS  C:\Users\VIDEOH~1\AppData\Local\Temp\ccM4oHTP.s 			page 156


 7437 17b6 51       		.byte	0x51
 7438 17b7 02       		.uleb128 0x2
 7439 17b8 09       		.byte	0x9
 7440 17b9 94       		.byte	0x94
 7441 17ba 24       		.uleb128 0x24
 7442 17bb 01       		.uleb128 0x1
 7443 17bc 52       		.byte	0x52
 7444 17bd 05       		.uleb128 0x5
 7445 17be 03       		.byte	0x3
 7446 17bf 3C010000 		.4byte	.LC81
 7447 17c3 24       		.uleb128 0x24
 7448 17c4 01       		.uleb128 0x1
 7449 17c5 53       		.byte	0x53
 7450 17c6 01       		.uleb128 0x1
 7451 17c7 30       		.byte	0x30
 7452 17c8 00       		.byte	0
 7453 17c9 23       		.uleb128 0x23
 7454 17ca 32010000 		.4byte	.LVL234
 7455 17ce 15240000 		.4byte	0x2415
 7456 17d2 24       		.uleb128 0x24
 7457 17d3 01       		.uleb128 0x1
 7458 17d4 50       		.byte	0x50
 7459 17d5 01       		.uleb128 0x1
 7460 17d6 36       		.byte	0x36
 7461 17d7 24       		.uleb128 0x24
 7462 17d8 01       		.uleb128 0x1
 7463 17d9 51       		.byte	0x51
 7464 17da 02       		.uleb128 0x2
 7465 17db 09       		.byte	0x9
 7466 17dc 94       		.byte	0x94
 7467 17dd 24       		.uleb128 0x24
 7468 17de 01       		.uleb128 0x1
 7469 17df 52       		.byte	0x52
 7470 17e0 05       		.uleb128 0x5
 7471 17e1 03       		.byte	0x3
 7472 17e2 38000000 		.4byte	.LC14
 7473 17e6 24       		.uleb128 0x24
 7474 17e7 01       		.uleb128 0x1
 7475 17e8 53       		.byte	0x53
 7476 17e9 01       		.uleb128 0x1
 7477 17ea 30       		.byte	0x30
 7478 17eb 00       		.byte	0
 7479 17ec 00       		.byte	0
 7480 17ed 07       		.uleb128 0x7
 7481 17ee 04       		.byte	0x4
 7482 17ef F3170000 		.4byte	0x17f3
 7483 17f3 08       		.uleb128 0x8
 7484 17f4 28050000 		.4byte	0x528
 7485 17f8 07       		.uleb128 0x7
 7486 17f9 04       		.byte	0x4
 7487 17fa 1E050000 		.4byte	0x51e
 7488 17fe 1C       		.uleb128 0x1c
 7489 17ff 940A0000 		.4byte	.LASF127
 7490 1803 01       		.byte	0x1
 7491 1804 6002     		.2byte	0x260
 7492 1806 B2040000 		.4byte	0x4b2
 7493 180a 00000000 		.4byte	.LFB56
ARM GAS  C:\Users\VIDEOH~1\AppData\Local\Temp\ccM4oHTP.s 			page 157


 7494 180e 90000000 		.4byte	.LFE56-.LFB56
 7495 1812 01       		.uleb128 0x1
 7496 1813 9C       		.byte	0x9c
 7497 1814 A3180000 		.4byte	0x18a3
 7498 1818 1D       		.uleb128 0x1d
 7499 1819 61726700 		.ascii	"arg\000"
 7500 181d 01       		.byte	0x1
 7501 181e 6002     		.2byte	0x260
 7502 1820 23040000 		.4byte	0x423
 7503 1824 0D060000 		.4byte	.LLST43
 7504 1828 30       		.uleb128 0x30
 7505 1829 940A0000 		.4byte	.LASF127
 7506 182d 01       		.byte	0x1
 7507 182e 6102     		.2byte	0x261
 7508 1830 ED170000 		.4byte	0x17ed
 7509 1834 39060000 		.4byte	.LLST44
 7510 1838 30       		.uleb128 0x30
 7511 1839 DF070000 		.4byte	.LASF128
 7512 183d 01       		.byte	0x1
 7513 183e 6502     		.2byte	0x265
 7514 1840 73000000 		.4byte	0x73
 7515 1844 65060000 		.4byte	.LLST45
 7516 1848 32       		.uleb128 0x32
 7517 1849 6E020000 		.4byte	.LASF108
 7518 184d 01       		.byte	0x1
 7519 184e 6602     		.2byte	0x266
 7520 1850 18040000 		.4byte	0x418
 7521 1854 02       		.uleb128 0x2
 7522 1855 91       		.byte	0x91
 7523 1856 60       		.sleb128 -32
 7524 1857 35       		.uleb128 0x35
 7525 1858 00000000 		.4byte	.Ldebug_ranges0+0
 7526 185c 6F180000 		.4byte	0x186f
 7527 1860 22       		.uleb128 0x22
 7528 1861 6900     		.ascii	"i\000"
 7529 1863 01       		.byte	0x1
 7530 1864 7602     		.2byte	0x276
 7531 1866 73000000 		.4byte	0x73
 7532 186a A5060000 		.4byte	.LLST46
 7533 186e 00       		.byte	0
 7534 186f 2B       		.uleb128 0x2b
 7535 1870 0C000000 		.4byte	.LVL242
 7536 1874 0A240000 		.4byte	0x240a
 7537 1878 2A       		.uleb128 0x2a
 7538 1879 1E000000 		.4byte	.LVL244
 7539 187d EA150000 		.4byte	0x15ea
 7540 1881 92180000 		.4byte	0x1892
 7541 1885 24       		.uleb128 0x24
 7542 1886 01       		.uleb128 0x1
 7543 1887 50       		.byte	0x50
 7544 1888 02       		.uleb128 0x2
 7545 1889 76       		.byte	0x76
 7546 188a 00       		.sleb128 0
 7547 188b 24       		.uleb128 0x24
 7548 188c 01       		.uleb128 0x1
 7549 188d 51       		.byte	0x51
 7550 188e 02       		.uleb128 0x2
ARM GAS  C:\Users\VIDEOH~1\AppData\Local\Temp\ccM4oHTP.s 			page 158


 7551 188f 74       		.byte	0x74
 7552 1890 00       		.sleb128 0
 7553 1891 00       		.byte	0
 7554 1892 23       		.uleb128 0x23
 7555 1893 24000000 		.4byte	.LVL245
 7556 1897 12090000 		.4byte	0x912
 7557 189b 24       		.uleb128 0x24
 7558 189c 01       		.uleb128 0x1
 7559 189d 50       		.byte	0x50
 7560 189e 02       		.uleb128 0x2
 7561 189f 7D       		.byte	0x7d
 7562 18a0 00       		.sleb128 0
 7563 18a1 00       		.byte	0
 7564 18a2 00       		.byte	0
 7565 18a3 1C       		.uleb128 0x1c
 7566 18a4 DE0B0000 		.4byte	.LASF132
 7567 18a8 01       		.byte	0x1
 7568 18a9 9601     		.2byte	0x196
 7569 18ab B2040000 		.4byte	0x4b2
 7570 18af 00000000 		.4byte	.LFB49
 7571 18b3 78000000 		.4byte	.LFE49-.LFB49
 7572 18b7 01       		.uleb128 0x1
 7573 18b8 9C       		.byte	0x9c
 7574 18b9 4B190000 		.4byte	0x194b
 7575 18bd 1D       		.uleb128 0x1d
 7576 18be 61726700 		.ascii	"arg\000"
 7577 18c2 01       		.byte	0x1
 7578 18c3 9601     		.2byte	0x196
 7579 18c5 23040000 		.4byte	0x423
 7580 18c9 C3060000 		.4byte	.LLST47
 7581 18cd 30       		.uleb128 0x30
 7582 18ce 64080000 		.4byte	.LASF133
 7583 18d2 01       		.byte	0x1
 7584 18d3 9701     		.2byte	0x197
 7585 18d5 4B190000 		.4byte	0x194b
 7586 18d9 EF060000 		.4byte	.LLST48
 7587 18dd 32       		.uleb128 0x32
 7588 18de AE080000 		.4byte	.LASF134
 7589 18e2 01       		.byte	0x1
 7590 18e3 9901     		.2byte	0x199
 7591 18e5 B2040000 		.4byte	0x4b2
 7592 18e9 02       		.uleb128 0x2
 7593 18ea 91       		.byte	0x91
 7594 18eb 58       		.sleb128 -40
 7595 18ec 32       		.uleb128 0x32
 7596 18ed 020A0000 		.4byte	.LASF135
 7597 18f1 01       		.byte	0x1
 7598 18f2 9D01     		.2byte	0x19d
 7599 18f4 B2040000 		.4byte	0x4b2
 7600 18f8 02       		.uleb128 0x2
 7601 18f9 91       		.byte	0x91
 7602 18fa 4C       		.sleb128 -52
 7603 18fb 2A       		.uleb128 0x2a
 7604 18fc 14000000 		.4byte	.LVL261
 7605 1900 FE170000 		.4byte	0x17fe
 7606 1904 18190000 		.4byte	0x1918
 7607 1908 24       		.uleb128 0x24
ARM GAS  C:\Users\VIDEOH~1\AppData\Local\Temp\ccM4oHTP.s 			page 159


 7608 1909 01       		.uleb128 0x1
 7609 190a 50       		.byte	0x50
 7610 190b 02       		.uleb128 0x2
 7611 190c 91       		.byte	0x91
 7612 190d 58       		.sleb128 -40
 7613 190e 24       		.uleb128 0x24
 7614 190f 01       		.uleb128 0x1
 7615 1910 51       		.byte	0x51
 7616 1911 05       		.uleb128 0x5
 7617 1912 03       		.byte	0x3
 7618 1913 00000000 		.4byte	.LANCHOR2
 7619 1917 00       		.byte	0
 7620 1918 2A       		.uleb128 0x2a
 7621 1919 2E000000 		.4byte	.LVL262
 7622 191d FE170000 		.4byte	0x17fe
 7623 1921 35190000 		.4byte	0x1935
 7624 1925 24       		.uleb128 0x24
 7625 1926 01       		.uleb128 0x1
 7626 1927 50       		.byte	0x50
 7627 1928 02       		.uleb128 0x2
 7628 1929 91       		.byte	0x91
 7629 192a 4C       		.sleb128 -52
 7630 192b 24       		.uleb128 0x24
 7631 192c 01       		.uleb128 0x1
 7632 192d 51       		.byte	0x51
 7633 192e 05       		.uleb128 0x5
 7634 192f 03       		.byte	0x3
 7635 1930 54000000 		.4byte	.LANCHOR2+84
 7636 1934 00       		.byte	0
 7637 1935 23       		.uleb128 0x23
 7638 1936 5C000000 		.4byte	.LVL263
 7639 193a B1240000 		.4byte	0x24b1
 7640 193e 24       		.uleb128 0x24
 7641 193f 01       		.uleb128 0x1
 7642 1940 51       		.byte	0x51
 7643 1941 02       		.uleb128 0x2
 7644 1942 91       		.byte	0x91
 7645 1943 67       		.sleb128 -25
 7646 1944 24       		.uleb128 0x24
 7647 1945 01       		.uleb128 0x1
 7648 1946 52       		.byte	0x52
 7649 1947 01       		.uleb128 0x1
 7650 1948 31       		.byte	0x31
 7651 1949 00       		.byte	0
 7652 194a 00       		.byte	0
 7653 194b 07       		.uleb128 0x7
 7654 194c 04       		.byte	0x4
 7655 194d 51190000 		.4byte	0x1951
 7656 1951 08       		.uleb128 0x8
 7657 1952 27020000 		.4byte	0x227
 7658 1956 36       		.uleb128 0x36
 7659 1957 2B080000 		.4byte	.LASF136
 7660 195b 01       		.byte	0x1
 7661 195c 0802     		.2byte	0x208
 7662 195e B2040000 		.4byte	0x4b2
 7663 1962 00000000 		.4byte	.LFB54
 7664 1966 64010000 		.4byte	.LFE54-.LFB54
ARM GAS  C:\Users\VIDEOH~1\AppData\Local\Temp\ccM4oHTP.s 			page 160


 7665 196a 01       		.uleb128 0x1
 7666 196b 9C       		.byte	0x9c
 7667 196c 491B0000 		.4byte	0x1b49
 7668 1970 1D       		.uleb128 0x1d
 7669 1971 61726700 		.ascii	"arg\000"
 7670 1975 01       		.byte	0x1
 7671 1976 0802     		.2byte	0x208
 7672 1978 23040000 		.4byte	0x423
 7673 197c 1F070000 		.4byte	.LLST49
 7674 1980 32       		.uleb128 0x32
 7675 1981 6E020000 		.4byte	.LASF108
 7676 1985 01       		.byte	0x1
 7677 1986 0D02     		.2byte	0x20d
 7678 1988 18040000 		.4byte	0x418
 7679 198c 02       		.uleb128 0x2
 7680 198d 91       		.byte	0x91
 7681 198e 58       		.sleb128 -40
 7682 198f 22       		.uleb128 0x22
 7683 1990 6F6E00   		.ascii	"on\000"
 7684 1993 01       		.byte	0x1
 7685 1994 0E02     		.2byte	0x20e
 7686 1996 81000000 		.4byte	0x81
 7687 199a 40070000 		.4byte	.LLST50
 7688 199e 30       		.uleb128 0x30
 7689 199f A2040000 		.4byte	.LASF137
 7690 19a3 01       		.byte	0x1
 7691 19a4 0F02     		.2byte	0x20f
 7692 19a6 73000000 		.4byte	0x73
 7693 19aa 53070000 		.4byte	.LLST51
 7694 19ae 30       		.uleb128 0x30
 7695 19af 49010000 		.4byte	.LASF138
 7696 19b3 01       		.byte	0x1
 7697 19b4 1102     		.2byte	0x211
 7698 19b6 81000000 		.4byte	0x81
 7699 19ba 94070000 		.4byte	.LLST52
 7700 19be 31       		.uleb128 0x31
 7701 19bf 62756600 		.ascii	"buf\000"
 7702 19c3 01       		.byte	0x1
 7703 19c4 1202     		.2byte	0x212
 7704 19c6 EA000000 		.4byte	0xea
 7705 19ca 02       		.uleb128 0x2
 7706 19cb 91       		.byte	0x91
 7707 19cc 50       		.sleb128 -48
 7708 19cd 2B       		.uleb128 0x2b
 7709 19ce 0A000000 		.4byte	.LVL268
 7710 19d2 0A240000 		.4byte	0x240a
 7711 19d6 2A       		.uleb128 0x2a
 7712 19d7 1A000000 		.4byte	.LVL269
 7713 19db 7A240000 		.4byte	0x247a
 7714 19df 001A0000 		.4byte	0x1a00
 7715 19e3 24       		.uleb128 0x24
 7716 19e4 01       		.uleb128 0x1
 7717 19e5 50       		.byte	0x50
 7718 19e6 01       		.uleb128 0x1
 7719 19e7 30       		.byte	0x30
 7720 19e8 24       		.uleb128 0x24
 7721 19e9 01       		.uleb128 0x1
ARM GAS  C:\Users\VIDEOH~1\AppData\Local\Temp\ccM4oHTP.s 			page 161


 7722 19ea 51       		.byte	0x51
 7723 19eb 01       		.uleb128 0x1
 7724 19ec 32       		.byte	0x32
 7725 19ed 24       		.uleb128 0x24
 7726 19ee 01       		.uleb128 0x1
 7727 19ef 52       		.byte	0x52
 7728 19f0 01       		.uleb128 0x1
 7729 19f1 32       		.byte	0x32
 7730 19f2 24       		.uleb128 0x24
 7731 19f3 01       		.uleb128 0x1
 7732 19f4 53       		.byte	0x53
 7733 19f5 02       		.uleb128 0x2
 7734 19f6 09       		.byte	0x9
 7735 19f7 A0       		.byte	0xa0
 7736 19f8 24       		.uleb128 0x24
 7737 19f9 02       		.uleb128 0x2
 7738 19fa 7D       		.byte	0x7d
 7739 19fb 00       		.sleb128 0
 7740 19fc 02       		.uleb128 0x2
 7741 19fd 09       		.byte	0x9
 7742 19fe FF       		.byte	0xff
 7743 19ff 00       		.byte	0
 7744 1a00 2A       		.uleb128 0x2a
 7745 1a01 26000000 		.4byte	.LVL270
 7746 1a05 15240000 		.4byte	0x2415
 7747 1a09 261A0000 		.4byte	0x1a26
 7748 1a0d 24       		.uleb128 0x24
 7749 1a0e 01       		.uleb128 0x1
 7750 1a0f 50       		.byte	0x50
 7751 1a10 01       		.uleb128 0x1
 7752 1a11 30       		.byte	0x30
 7753 1a12 24       		.uleb128 0x24
 7754 1a13 01       		.uleb128 0x1
 7755 1a14 51       		.byte	0x51
 7756 1a15 01       		.uleb128 0x1
 7757 1a16 44       		.byte	0x44
 7758 1a17 24       		.uleb128 0x24
 7759 1a18 01       		.uleb128 0x1
 7760 1a19 52       		.byte	0x52
 7761 1a1a 05       		.uleb128 0x5
 7762 1a1b 03       		.byte	0x3
 7763 1a1c 40010000 		.4byte	.LC87
 7764 1a20 24       		.uleb128 0x24
 7765 1a21 01       		.uleb128 0x1
 7766 1a22 53       		.byte	0x53
 7767 1a23 01       		.uleb128 0x1
 7768 1a24 31       		.byte	0x31
 7769 1a25 00       		.byte	0
 7770 1a26 2B       		.uleb128 0x2b
 7771 1a27 3A000000 		.4byte	.LVL272
 7772 1a2b FF230000 		.4byte	0x23ff
 7773 1a2f 2A       		.uleb128 0x2a
 7774 1a30 58000000 		.4byte	.LVL277
 7775 1a34 15240000 		.4byte	0x2415
 7776 1a38 561A0000 		.4byte	0x1a56
 7777 1a3c 24       		.uleb128 0x24
 7778 1a3d 01       		.uleb128 0x1
ARM GAS  C:\Users\VIDEOH~1\AppData\Local\Temp\ccM4oHTP.s 			page 162


 7779 1a3e 50       		.byte	0x50
 7780 1a3f 01       		.uleb128 0x1
 7781 1a40 34       		.byte	0x34
 7782 1a41 24       		.uleb128 0x24
 7783 1a42 01       		.uleb128 0x1
 7784 1a43 51       		.byte	0x51
 7785 1a44 01       		.uleb128 0x1
 7786 1a45 4E       		.byte	0x4e
 7787 1a46 24       		.uleb128 0x24
 7788 1a47 01       		.uleb128 0x1
 7789 1a48 52       		.byte	0x52
 7790 1a49 05       		.uleb128 0x5
 7791 1a4a 03       		.byte	0x3
 7792 1a4b 4C010000 		.4byte	.LC90
 7793 1a4f 24       		.uleb128 0x24
 7794 1a50 01       		.uleb128 0x1
 7795 1a51 53       		.byte	0x53
 7796 1a52 02       		.uleb128 0x2
 7797 1a53 74       		.byte	0x74
 7798 1a54 00       		.sleb128 0
 7799 1a55 00       		.byte	0
 7800 1a56 2A       		.uleb128 0x2a
 7801 1a57 68000000 		.4byte	.LVL278
 7802 1a5b 15240000 		.4byte	0x2415
 7803 1a5f 801A0000 		.4byte	0x1a80
 7804 1a63 24       		.uleb128 0x24
 7805 1a64 01       		.uleb128 0x1
 7806 1a65 50       		.byte	0x50
 7807 1a66 01       		.uleb128 0x1
 7808 1a67 34       		.byte	0x34
 7809 1a68 24       		.uleb128 0x24
 7810 1a69 01       		.uleb128 0x1
 7811 1a6a 51       		.byte	0x51
 7812 1a6b 02       		.uleb128 0x2
 7813 1a6c 08       		.byte	0x8
 7814 1a6d 5A       		.byte	0x5a
 7815 1a6e 24       		.uleb128 0x24
 7816 1a6f 01       		.uleb128 0x1
 7817 1a70 52       		.byte	0x52
 7818 1a71 05       		.uleb128 0x5
 7819 1a72 03       		.byte	0x3
 7820 1a73 50010000 		.4byte	.LC92
 7821 1a77 24       		.uleb128 0x24
 7822 1a78 01       		.uleb128 0x1
 7823 1a79 53       		.byte	0x53
 7824 1a7a 04       		.uleb128 0x4
 7825 1a7b 74       		.byte	0x74
 7826 1a7c 00       		.sleb128 0
 7827 1a7d 30       		.byte	0x30
 7828 1a7e 29       		.byte	0x29
 7829 1a7f 00       		.byte	0
 7830 1a80 2A       		.uleb128 0x2a
 7831 1a81 72000000 		.4byte	.LVL279
 7832 1a85 AF060000 		.4byte	0x6af
 7833 1a89 A41A0000 		.4byte	0x1aa4
 7834 1a8d 24       		.uleb128 0x24
 7835 1a8e 01       		.uleb128 0x1
ARM GAS  C:\Users\VIDEOH~1\AppData\Local\Temp\ccM4oHTP.s 			page 163


 7836 1a8f 50       		.byte	0x50
 7837 1a90 03       		.uleb128 0x3
 7838 1a91 91       		.byte	0x91
 7839 1a92 4C       		.sleb128 -52
 7840 1a93 06       		.byte	0x6
 7841 1a94 24       		.uleb128 0x24
 7842 1a95 01       		.uleb128 0x1
 7843 1a96 51       		.byte	0x51
 7844 1a97 05       		.uleb128 0x5
 7845 1a98 03       		.byte	0x3
 7846 1a99 3C000000 		.4byte	.LC16
 7847 1a9d 24       		.uleb128 0x24
 7848 1a9e 01       		.uleb128 0x1
 7849 1a9f 52       		.byte	0x52
 7850 1aa0 02       		.uleb128 0x2
 7851 1aa1 91       		.byte	0x91
 7852 1aa2 50       		.sleb128 -48
 7853 1aa3 00       		.byte	0
 7854 1aa4 2A       		.uleb128 0x2a
 7855 1aa5 7E000000 		.4byte	.LVL280
 7856 1aa9 15240000 		.4byte	0x2415
 7857 1aad C81A0000 		.4byte	0x1ac8
 7858 1ab1 24       		.uleb128 0x24
 7859 1ab2 01       		.uleb128 0x1
 7860 1ab3 50       		.byte	0x50
 7861 1ab4 01       		.uleb128 0x1
 7862 1ab5 36       		.byte	0x36
 7863 1ab6 24       		.uleb128 0x24
 7864 1ab7 01       		.uleb128 0x1
 7865 1ab8 51       		.byte	0x51
 7866 1ab9 02       		.uleb128 0x2
 7867 1aba 08       		.byte	0x8
 7868 1abb 30       		.byte	0x30
 7869 1abc 24       		.uleb128 0x24
 7870 1abd 01       		.uleb128 0x1
 7871 1abe 52       		.byte	0x52
 7872 1abf 02       		.uleb128 0x2
 7873 1ac0 91       		.byte	0x91
 7874 1ac1 50       		.sleb128 -48
 7875 1ac2 24       		.uleb128 0x24
 7876 1ac3 01       		.uleb128 0x1
 7877 1ac4 53       		.byte	0x53
 7878 1ac5 01       		.uleb128 0x1
 7879 1ac6 30       		.byte	0x30
 7880 1ac7 00       		.byte	0
 7881 1ac8 2A       		.uleb128 0x2a
 7882 1ac9 86000000 		.4byte	.LVL281
 7883 1acd 12090000 		.4byte	0x912
 7884 1ad1 DC1A0000 		.4byte	0x1adc
 7885 1ad5 24       		.uleb128 0x24
 7886 1ad6 01       		.uleb128 0x1
 7887 1ad7 50       		.byte	0x50
 7888 1ad8 02       		.uleb128 0x2
 7889 1ad9 76       		.byte	0x76
 7890 1ada 00       		.sleb128 0
 7891 1adb 00       		.byte	0
 7892 1adc 2A       		.uleb128 0x2a
ARM GAS  C:\Users\VIDEOH~1\AppData\Local\Temp\ccM4oHTP.s 			page 164


 7893 1add DC000000 		.4byte	.LVL285
 7894 1ae1 AF060000 		.4byte	0x6af
 7895 1ae5 001B0000 		.4byte	0x1b00
 7896 1ae9 24       		.uleb128 0x24
 7897 1aea 01       		.uleb128 0x1
 7898 1aeb 50       		.byte	0x50
 7899 1aec 03       		.uleb128 0x3
 7900 1aed 91       		.byte	0x91
 7901 1aee 4C       		.sleb128 -52
 7902 1aef 06       		.byte	0x6
 7903 1af0 24       		.uleb128 0x24
 7904 1af1 01       		.uleb128 0x1
 7905 1af2 51       		.byte	0x51
 7906 1af3 05       		.uleb128 0x5
 7907 1af4 03       		.byte	0x3
 7908 1af5 3C000000 		.4byte	.LC16
 7909 1af9 24       		.uleb128 0x24
 7910 1afa 01       		.uleb128 0x1
 7911 1afb 52       		.byte	0x52
 7912 1afc 02       		.uleb128 0x2
 7913 1afd 74       		.byte	0x74
 7914 1afe 00       		.sleb128 0
 7915 1aff 00       		.byte	0
 7916 1b00 2A       		.uleb128 0x2a
 7917 1b01 E2000000 		.4byte	.LVL286
 7918 1b05 D3240000 		.4byte	0x24d3
 7919 1b09 141B0000 		.4byte	0x1b14
 7920 1b0d 24       		.uleb128 0x24
 7921 1b0e 01       		.uleb128 0x1
 7922 1b0f 50       		.byte	0x50
 7923 1b10 02       		.uleb128 0x2
 7924 1b11 74       		.byte	0x74
 7925 1b12 00       		.sleb128 0
 7926 1b13 00       		.byte	0
 7927 1b14 2A       		.uleb128 0x2a
 7928 1b15 F4000000 		.4byte	.LVL287
 7929 1b19 15240000 		.4byte	0x2415
 7930 1b1d 381B0000 		.4byte	0x1b38
 7931 1b21 24       		.uleb128 0x24
 7932 1b22 01       		.uleb128 0x1
 7933 1b23 50       		.byte	0x50
 7934 1b24 01       		.uleb128 0x1
 7935 1b25 36       		.byte	0x36
 7936 1b26 24       		.uleb128 0x24
 7937 1b27 01       		.uleb128 0x1
 7938 1b28 51       		.byte	0x51
 7939 1b29 02       		.uleb128 0x2
 7940 1b2a 08       		.byte	0x8
 7941 1b2b 30       		.byte	0x30
 7942 1b2c 24       		.uleb128 0x24
 7943 1b2d 01       		.uleb128 0x1
 7944 1b2e 52       		.byte	0x52
 7945 1b2f 02       		.uleb128 0x2
 7946 1b30 74       		.byte	0x74
 7947 1b31 00       		.sleb128 0
 7948 1b32 24       		.uleb128 0x24
 7949 1b33 01       		.uleb128 0x1
ARM GAS  C:\Users\VIDEOH~1\AppData\Local\Temp\ccM4oHTP.s 			page 165


 7950 1b34 53       		.byte	0x53
 7951 1b35 01       		.uleb128 0x1
 7952 1b36 31       		.byte	0x31
 7953 1b37 00       		.byte	0
 7954 1b38 23       		.uleb128 0x23
 7955 1b39 FC000000 		.4byte	.LVL288
 7956 1b3d 12090000 		.4byte	0x912
 7957 1b41 24       		.uleb128 0x24
 7958 1b42 01       		.uleb128 0x1
 7959 1b43 50       		.byte	0x50
 7960 1b44 02       		.uleb128 0x2
 7961 1b45 74       		.byte	0x74
 7962 1b46 00       		.sleb128 0
 7963 1b47 00       		.byte	0
 7964 1b48 00       		.byte	0
 7965 1b49 25       		.uleb128 0x25
 7966 1b4a C9040000 		.4byte	.LASF139
 7967 1b4e 01       		.byte	0x1
 7968 1b4f EF       		.byte	0xef
 7969 1b50 00000000 		.4byte	.LFB37
 7970 1b54 44000000 		.4byte	.LFE37-.LFB37
 7971 1b58 01       		.uleb128 0x1
 7972 1b59 9C       		.byte	0x9c
 7973 1b5a A81B0000 		.4byte	0x1ba8
 7974 1b5e 27       		.uleb128 0x27
 7975 1b5f B30B0000 		.4byte	.LASF140
 7976 1b63 01       		.byte	0x1
 7977 1b64 EF       		.byte	0xef
 7978 1b65 73000000 		.4byte	0x73
 7979 1b69 B3070000 		.4byte	.LLST53
 7980 1b6d 27       		.uleb128 0x27
 7981 1b6e 9F020000 		.4byte	.LASF80
 7982 1b72 01       		.byte	0x1
 7983 1b73 EF       		.byte	0xef
 7984 1b74 63030000 		.4byte	0x363
 7985 1b78 DF070000 		.4byte	.LLST54
 7986 1b7c 28       		.uleb128 0x28
 7987 1b7d 3C070000 		.4byte	.LASF141
 7988 1b81 01       		.byte	0x1
 7989 1b82 F1       		.byte	0xf1
 7990 1b83 73000000 		.4byte	0x73
 7991 1b87 00080000 		.4byte	.LLST55
 7992 1b8b 2B       		.uleb128 0x2b
 7993 1b8c 22000000 		.4byte	.LVL298
 7994 1b90 43240000 		.4byte	0x2443
 7995 1b94 23       		.uleb128 0x23
 7996 1b95 34000000 		.4byte	.LVL300
 7997 1b99 DE240000 		.4byte	0x24de
 7998 1b9d 24       		.uleb128 0x24
 7999 1b9e 01       		.uleb128 0x1
 8000 1b9f 50       		.byte	0x50
 8001 1ba0 05       		.uleb128 0x5
 8002 1ba1 03       		.byte	0x3
 8003 1ba2 54010000 		.4byte	.LC97
 8004 1ba6 00       		.byte	0
 8005 1ba7 00       		.byte	0
 8006 1ba8 1F       		.uleb128 0x1f
ARM GAS  C:\Users\VIDEOH~1\AppData\Local\Temp\ccM4oHTP.s 			page 166


 8007 1ba9 77050000 		.4byte	.LASF142
 8008 1bad 01       		.byte	0x1
 8009 1bae 6E01     		.2byte	0x16e
 8010 1bb0 00000000 		.4byte	.LFB48
 8011 1bb4 34010000 		.4byte	.LFE48-.LFB48
 8012 1bb8 01       		.uleb128 0x1
 8013 1bb9 9C       		.byte	0x9c
 8014 1bba 371E0000 		.4byte	0x1e37
 8015 1bbe 20       		.uleb128 0x20
 8016 1bbf 64080000 		.4byte	.LASF133
 8017 1bc3 01       		.byte	0x1
 8018 1bc4 6E01     		.2byte	0x16e
 8019 1bc6 4B190000 		.4byte	0x194b
 8020 1bca 13080000 		.4byte	.LLST56
 8021 1bce 20       		.uleb128 0x20
 8022 1bcf DF050000 		.4byte	.LASF143
 8023 1bd3 01       		.byte	0x1
 8024 1bd4 6E01     		.2byte	0x16e
 8025 1bd6 97000000 		.4byte	0x97
 8026 1bda 55080000 		.4byte	.LLST57
 8027 1bde 31       		.uleb128 0x31
 8028 1bdf 62756600 		.ascii	"buf\000"
 8029 1be3 01       		.byte	0x1
 8030 1be4 6F01     		.2byte	0x16f
 8031 1be6 EA000000 		.4byte	0xea
 8032 1bea 02       		.uleb128 0x2
 8033 1beb 91       		.byte	0x91
 8034 1bec 60       		.sleb128 -32
 8035 1bed 30       		.uleb128 0x30
 8036 1bee 020A0000 		.4byte	.LASF135
 8037 1bf2 01       		.byte	0x1
 8038 1bf3 7201     		.2byte	0x172
 8039 1bf5 371E0000 		.4byte	0x1e37
 8040 1bf9 8F080000 		.4byte	.LLST58
 8041 1bfd 30       		.uleb128 0x30
 8042 1bfe 31060000 		.4byte	.LASF144
 8043 1c02 01       		.byte	0x1
 8044 1c03 8001     		.2byte	0x180
 8045 1c05 97000000 		.4byte	0x97
 8046 1c09 DE080000 		.4byte	.LLST59
 8047 1c0d 21       		.uleb128 0x21
 8048 1c0e E0000000 		.4byte	.LBB8
 8049 1c12 3E000000 		.4byte	.LBE8-.LBB8
 8050 1c16 831C0000 		.4byte	0x1c83
 8051 1c1a 22       		.uleb128 0x22
 8052 1c1b 6900     		.ascii	"i\000"
 8053 1c1d 01       		.byte	0x1
 8054 1c1e 8D01     		.2byte	0x18d
 8055 1c20 73000000 		.4byte	0x73
 8056 1c24 F1080000 		.4byte	.LLST60
 8057 1c28 37       		.uleb128 0x37
 8058 1c29 F0000000 		.4byte	.LVL327
 8059 1c2d 381C0000 		.4byte	0x1c38
 8060 1c31 24       		.uleb128 0x24
 8061 1c32 01       		.uleb128 0x1
 8062 1c33 50       		.byte	0x50
 8063 1c34 02       		.uleb128 0x2
ARM GAS  C:\Users\VIDEOH~1\AppData\Local\Temp\ccM4oHTP.s 			page 167


 8064 1c35 91       		.byte	0x91
 8065 1c36 60       		.sleb128 -32
 8066 1c37 00       		.byte	0
 8067 1c38 2A       		.uleb128 0x2a
 8068 1c39 F6000000 		.4byte	.LVL328
 8069 1c3d D3240000 		.4byte	0x24d3
 8070 1c41 4C1C0000 		.4byte	0x1c4c
 8071 1c45 24       		.uleb128 0x24
 8072 1c46 01       		.uleb128 0x1
 8073 1c47 50       		.byte	0x50
 8074 1c48 02       		.uleb128 0x2
 8075 1c49 91       		.byte	0x91
 8076 1c4a 60       		.sleb128 -32
 8077 1c4b 00       		.byte	0
 8078 1c4c 2A       		.uleb128 0x2a
 8079 1c4d 08010000 		.4byte	.LVL329
 8080 1c51 DC230000 		.4byte	0x23dc
 8081 1c55 681C0000 		.4byte	0x1c68
 8082 1c59 24       		.uleb128 0x24
 8083 1c5a 01       		.uleb128 0x1
 8084 1c5b 51       		.byte	0x51
 8085 1c5c 05       		.uleb128 0x5
 8086 1c5d 03       		.byte	0x3
 8087 1c5e 38000000 		.4byte	.LC14
 8088 1c62 24       		.uleb128 0x24
 8089 1c63 01       		.uleb128 0x1
 8090 1c64 52       		.byte	0x52
 8091 1c65 01       		.uleb128 0x1
 8092 1c66 32       		.byte	0x32
 8093 1c67 00       		.byte	0
 8094 1c68 23       		.uleb128 0x23
 8095 1c69 18010000 		.4byte	.LVL330
 8096 1c6d 15240000 		.4byte	0x2415
 8097 1c71 24       		.uleb128 0x24
 8098 1c72 01       		.uleb128 0x1
 8099 1c73 50       		.byte	0x50
 8100 1c74 01       		.uleb128 0x1
 8101 1c75 36       		.byte	0x36
 8102 1c76 24       		.uleb128 0x24
 8103 1c77 01       		.uleb128 0x1
 8104 1c78 52       		.byte	0x52
 8105 1c79 02       		.uleb128 0x2
 8106 1c7a 91       		.byte	0x91
 8107 1c7b 60       		.sleb128 -32
 8108 1c7c 24       		.uleb128 0x24
 8109 1c7d 01       		.uleb128 0x1
 8110 1c7e 53       		.byte	0x53
 8111 1c7f 01       		.uleb128 0x1
 8112 1c80 30       		.byte	0x30
 8113 1c81 00       		.byte	0
 8114 1c82 00       		.byte	0
 8115 1c83 38       		.uleb128 0x38
 8116 1c84 22000000 		.4byte	.LVL305
 8117 1c88 0B       		.uleb128 0xb
 8118 1c89 74       		.byte	0x74
 8119 1c8a 00       		.sleb128 0
 8120 1c8b 33       		.byte	0x33
ARM GAS  C:\Users\VIDEOH~1\AppData\Local\Temp\ccM4oHTP.s 			page 168


 8121 1c8c 24       		.byte	0x24
 8122 1c8d 03       		.byte	0x3
 8123 1c8e F8000000 		.4byte	.LANCHOR3+120
 8124 1c92 22       		.byte	0x22
 8125 1c93 06       		.byte	0x6
 8126 1c94 9F1C0000 		.4byte	0x1c9f
 8127 1c98 24       		.uleb128 0x24
 8128 1c99 01       		.uleb128 0x1
 8129 1c9a 50       		.byte	0x50
 8130 1c9b 02       		.uleb128 0x2
 8131 1c9c 91       		.byte	0x91
 8132 1c9d 60       		.sleb128 -32
 8133 1c9e 00       		.byte	0
 8134 1c9f 2A       		.uleb128 0x2a
 8135 1ca0 28000000 		.4byte	.LVL306
 8136 1ca4 E5230000 		.4byte	0x23e5
 8137 1ca8 B31C0000 		.4byte	0x1cb3
 8138 1cac 24       		.uleb128 0x24
 8139 1cad 01       		.uleb128 0x1
 8140 1cae 50       		.byte	0x50
 8141 1caf 02       		.uleb128 0x2
 8142 1cb0 91       		.byte	0x91
 8143 1cb1 60       		.sleb128 -32
 8144 1cb2 00       		.byte	0
 8145 1cb3 2A       		.uleb128 0x2a
 8146 1cb4 36000000 		.4byte	.LVL307
 8147 1cb8 DC230000 		.4byte	0x23dc
 8148 1cbc CF1C0000 		.4byte	0x1ccf
 8149 1cc0 24       		.uleb128 0x24
 8150 1cc1 01       		.uleb128 0x1
 8151 1cc2 51       		.byte	0x51
 8152 1cc3 05       		.uleb128 0x5
 8153 1cc4 03       		.byte	0x3
 8154 1cc5 38000000 		.4byte	.LC14
 8155 1cc9 24       		.uleb128 0x24
 8156 1cca 01       		.uleb128 0x1
 8157 1ccb 52       		.byte	0x52
 8158 1ccc 01       		.uleb128 0x1
 8159 1ccd 32       		.byte	0x32
 8160 1cce 00       		.byte	0
 8161 1ccf 2A       		.uleb128 0x2a
 8162 1cd0 40000000 		.4byte	.LVL308
 8163 1cd4 E9240000 		.4byte	0x24e9
 8164 1cd8 ED1C0000 		.4byte	0x1ced
 8165 1cdc 24       		.uleb128 0x24
 8166 1cdd 01       		.uleb128 0x1
 8167 1cde 50       		.byte	0x50
 8168 1cdf 01       		.uleb128 0x1
 8169 1ce0 30       		.byte	0x30
 8170 1ce1 24       		.uleb128 0x24
 8171 1ce2 01       		.uleb128 0x1
 8172 1ce3 51       		.byte	0x51
 8173 1ce4 01       		.uleb128 0x1
 8174 1ce5 30       		.byte	0x30
 8175 1ce6 24       		.uleb128 0x24
 8176 1ce7 01       		.uleb128 0x1
 8177 1ce8 52       		.byte	0x52
ARM GAS  C:\Users\VIDEOH~1\AppData\Local\Temp\ccM4oHTP.s 			page 169


 8178 1ce9 02       		.uleb128 0x2
 8179 1cea 91       		.byte	0x91
 8180 1ceb 60       		.sleb128 -32
 8181 1cec 00       		.byte	0
 8182 1ced 2A       		.uleb128 0x2a
 8183 1cee 48000000 		.4byte	.LVL309
 8184 1cf2 F4240000 		.4byte	0x24f4
 8185 1cf6 071D0000 		.4byte	0x1d07
 8186 1cfa 24       		.uleb128 0x24
 8187 1cfb 01       		.uleb128 0x1
 8188 1cfc 50       		.byte	0x50
 8189 1cfd 02       		.uleb128 0x2
 8190 1cfe 91       		.byte	0x91
 8191 1cff 60       		.sleb128 -32
 8192 1d00 24       		.uleb128 0x24
 8193 1d01 01       		.uleb128 0x1
 8194 1d02 51       		.byte	0x51
 8195 1d03 02       		.uleb128 0x2
 8196 1d04 08       		.byte	0x8
 8197 1d05 2E       		.byte	0x2e
 8198 1d06 00       		.byte	0
 8199 1d07 2A       		.uleb128 0x2a
 8200 1d08 5A000000 		.4byte	.LVL310
 8201 1d0c 7A240000 		.4byte	0x247a
 8202 1d10 2C1D0000 		.4byte	0x1d2c
 8203 1d14 24       		.uleb128 0x24
 8204 1d15 01       		.uleb128 0x1
 8205 1d16 51       		.byte	0x51
 8206 1d17 02       		.uleb128 0x2
 8207 1d18 08       		.byte	0x8
 8208 1d19 6C       		.byte	0x6c
 8209 1d1a 24       		.uleb128 0x24
 8210 1d1b 01       		.uleb128 0x1
 8211 1d1c 52       		.byte	0x52
 8212 1d1d 01       		.uleb128 0x1
 8213 1d1e 34       		.byte	0x34
 8214 1d1f 24       		.uleb128 0x24
 8215 1d20 01       		.uleb128 0x1
 8216 1d21 53       		.byte	0x53
 8217 1d22 02       		.uleb128 0x2
 8218 1d23 08       		.byte	0x8
 8219 1d24 78       		.byte	0x78
 8220 1d25 24       		.uleb128 0x24
 8221 1d26 02       		.uleb128 0x2
 8222 1d27 7D       		.byte	0x7d
 8223 1d28 00       		.sleb128 0
 8224 1d29 01       		.uleb128 0x1
 8225 1d2a 30       		.byte	0x30
 8226 1d2b 00       		.byte	0
 8227 1d2c 2A       		.uleb128 0x2a
 8228 1d2d 6C000000 		.4byte	.LVL314
 8229 1d31 7A240000 		.4byte	0x247a
 8230 1d35 581D0000 		.4byte	0x1d58
 8231 1d39 24       		.uleb128 0x24
 8232 1d3a 01       		.uleb128 0x1
 8233 1d3b 50       		.byte	0x50
 8234 1d3c 02       		.uleb128 0x2
ARM GAS  C:\Users\VIDEOH~1\AppData\Local\Temp\ccM4oHTP.s 			page 170


 8235 1d3d 76       		.byte	0x76
 8236 1d3e 00       		.sleb128 0
 8237 1d3f 24       		.uleb128 0x24
 8238 1d40 01       		.uleb128 0x1
 8239 1d41 51       		.byte	0x51
 8240 1d42 02       		.uleb128 0x2
 8241 1d43 76       		.byte	0x76
 8242 1d44 00       		.sleb128 0
 8243 1d45 24       		.uleb128 0x24
 8244 1d46 01       		.uleb128 0x1
 8245 1d47 52       		.byte	0x52
 8246 1d48 01       		.uleb128 0x1
 8247 1d49 36       		.byte	0x36
 8248 1d4a 24       		.uleb128 0x24
 8249 1d4b 01       		.uleb128 0x1
 8250 1d4c 53       		.byte	0x53
 8251 1d4d 02       		.uleb128 0x2
 8252 1d4e 08       		.byte	0x8
 8253 1d4f 78       		.byte	0x78
 8254 1d50 24       		.uleb128 0x24
 8255 1d51 02       		.uleb128 0x2
 8256 1d52 7D       		.byte	0x7d
 8257 1d53 00       		.sleb128 0
 8258 1d54 02       		.uleb128 0x2
 8259 1d55 76       		.byte	0x76
 8260 1d56 00       		.sleb128 0
 8261 1d57 00       		.byte	0
 8262 1d58 2A       		.uleb128 0x2a
 8263 1d59 7A000000 		.4byte	.LVL315
 8264 1d5d 7A240000 		.4byte	0x247a
 8265 1d61 831D0000 		.4byte	0x1d83
 8266 1d65 24       		.uleb128 0x24
 8267 1d66 01       		.uleb128 0x1
 8268 1d67 50       		.byte	0x50
 8269 1d68 01       		.uleb128 0x1
 8270 1d69 34       		.byte	0x34
 8271 1d6a 24       		.uleb128 0x24
 8272 1d6b 01       		.uleb128 0x1
 8273 1d6c 51       		.byte	0x51
 8274 1d6d 02       		.uleb128 0x2
 8275 1d6e 08       		.byte	0x8
 8276 1d6f 78       		.byte	0x78
 8277 1d70 24       		.uleb128 0x24
 8278 1d71 01       		.uleb128 0x1
 8279 1d72 52       		.byte	0x52
 8280 1d73 01       		.uleb128 0x1
 8281 1d74 36       		.byte	0x36
 8282 1d75 24       		.uleb128 0x24
 8283 1d76 01       		.uleb128 0x1
 8284 1d77 53       		.byte	0x53
 8285 1d78 02       		.uleb128 0x2
 8286 1d79 09       		.byte	0x9
 8287 1d7a A0       		.byte	0xa0
 8288 1d7b 24       		.uleb128 0x24
 8289 1d7c 02       		.uleb128 0x2
 8290 1d7d 7D       		.byte	0x7d
 8291 1d7e 00       		.sleb128 0
ARM GAS  C:\Users\VIDEOH~1\AppData\Local\Temp\ccM4oHTP.s 			page 171


 8292 1d7f 02       		.uleb128 0x2
 8293 1d80 76       		.byte	0x76
 8294 1d81 00       		.sleb128 0
 8295 1d82 00       		.byte	0
 8296 1d83 2A       		.uleb128 0x2a
 8297 1d84 88000000 		.4byte	.LVL317
 8298 1d88 D3240000 		.4byte	0x24d3
 8299 1d8c 971D0000 		.4byte	0x1d97
 8300 1d90 24       		.uleb128 0x24
 8301 1d91 01       		.uleb128 0x1
 8302 1d92 50       		.byte	0x50
 8303 1d93 02       		.uleb128 0x2
 8304 1d94 76       		.byte	0x76
 8305 1d95 00       		.sleb128 0
 8306 1d96 00       		.byte	0
 8307 1d97 2A       		.uleb128 0x2a
 8308 1d98 A2000000 		.4byte	.LVL319
 8309 1d9c 15240000 		.4byte	0x2415
 8310 1da0 BB1D0000 		.4byte	0x1dbb
 8311 1da4 24       		.uleb128 0x24
 8312 1da5 01       		.uleb128 0x1
 8313 1da6 50       		.byte	0x50
 8314 1da7 01       		.uleb128 0x1
 8315 1da8 30       		.byte	0x30
 8316 1da9 24       		.uleb128 0x24
 8317 1daa 01       		.uleb128 0x1
 8318 1dab 51       		.byte	0x51
 8319 1dac 02       		.uleb128 0x2
 8320 1dad 77       		.byte	0x77
 8321 1dae 00       		.sleb128 0
 8322 1daf 24       		.uleb128 0x24
 8323 1db0 01       		.uleb128 0x1
 8324 1db1 52       		.byte	0x52
 8325 1db2 02       		.uleb128 0x2
 8326 1db3 76       		.byte	0x76
 8327 1db4 00       		.sleb128 0
 8328 1db5 24       		.uleb128 0x24
 8329 1db6 01       		.uleb128 0x1
 8330 1db7 53       		.byte	0x53
 8331 1db8 01       		.uleb128 0x1
 8332 1db9 31       		.byte	0x31
 8333 1dba 00       		.byte	0
 8334 1dbb 2A       		.uleb128 0x2a
 8335 1dbc B6000000 		.4byte	.LVL320
 8336 1dc0 7A240000 		.4byte	0x247a
 8337 1dc4 E51D0000 		.4byte	0x1de5
 8338 1dc8 24       		.uleb128 0x24
 8339 1dc9 01       		.uleb128 0x1
 8340 1dca 50       		.byte	0x50
 8341 1dcb 01       		.uleb128 0x1
 8342 1dcc 30       		.byte	0x30
 8343 1dcd 24       		.uleb128 0x24
 8344 1dce 01       		.uleb128 0x1
 8345 1dcf 51       		.byte	0x51
 8346 1dd0 02       		.uleb128 0x2
 8347 1dd1 08       		.byte	0x8
 8348 1dd2 7C       		.byte	0x7c
ARM GAS  C:\Users\VIDEOH~1\AppData\Local\Temp\ccM4oHTP.s 			page 172


 8349 1dd3 24       		.uleb128 0x24
 8350 1dd4 01       		.uleb128 0x1
 8351 1dd5 52       		.byte	0x52
 8352 1dd6 01       		.uleb128 0x1
 8353 1dd7 32       		.byte	0x32
 8354 1dd8 24       		.uleb128 0x24
 8355 1dd9 01       		.uleb128 0x1
 8356 1dda 53       		.byte	0x53
 8357 1ddb 02       		.uleb128 0x2
 8358 1ddc 77       		.byte	0x77
 8359 1ddd 00       		.sleb128 0
 8360 1dde 24       		.uleb128 0x24
 8361 1ddf 02       		.uleb128 0x2
 8362 1de0 7D       		.byte	0x7d
 8363 1de1 00       		.sleb128 0
 8364 1de2 01       		.uleb128 0x1
 8365 1de3 30       		.byte	0x30
 8366 1de4 00       		.byte	0
 8367 1de5 2B       		.uleb128 0x2b
 8368 1de6 BA000000 		.4byte	.LVL321
 8369 1dea C8240000 		.4byte	0x24c8
 8370 1dee 2A       		.uleb128 0x2a
 8371 1def CA000000 		.4byte	.LVL322
 8372 1df3 15240000 		.4byte	0x2415
 8373 1df7 101E0000 		.4byte	0x1e10
 8374 1dfb 24       		.uleb128 0x24
 8375 1dfc 01       		.uleb128 0x1
 8376 1dfd 51       		.byte	0x51
 8377 1dfe 02       		.uleb128 0x2
 8378 1dff 08       		.byte	0x8
 8379 1e00 7C       		.byte	0x7c
 8380 1e01 24       		.uleb128 0x24
 8381 1e02 01       		.uleb128 0x1
 8382 1e03 52       		.byte	0x52
 8383 1e04 05       		.uleb128 0x5
 8384 1e05 03       		.byte	0x3
 8385 1e06 50010000 		.4byte	.LC92
 8386 1e0a 24       		.uleb128 0x24
 8387 1e0b 01       		.uleb128 0x1
 8388 1e0c 53       		.byte	0x53
 8389 1e0d 01       		.uleb128 0x1
 8390 1e0e 31       		.byte	0x31
 8391 1e0f 00       		.byte	0
 8392 1e10 23       		.uleb128 0x23
 8393 1e11 DE000000 		.4byte	.LVL323
 8394 1e15 7A240000 		.4byte	0x247a
 8395 1e19 24       		.uleb128 0x24
 8396 1e1a 01       		.uleb128 0x1
 8397 1e1b 50       		.byte	0x50
 8398 1e1c 01       		.uleb128 0x1
 8399 1e1d 32       		.byte	0x32
 8400 1e1e 24       		.uleb128 0x24
 8401 1e1f 01       		.uleb128 0x1
 8402 1e20 51       		.byte	0x51
 8403 1e21 02       		.uleb128 0x2
 8404 1e22 08       		.byte	0x8
 8405 1e23 7C       		.byte	0x7c
ARM GAS  C:\Users\VIDEOH~1\AppData\Local\Temp\ccM4oHTP.s 			page 173


 8406 1e24 24       		.uleb128 0x24
 8407 1e25 01       		.uleb128 0x1
 8408 1e26 52       		.byte	0x52
 8409 1e27 01       		.uleb128 0x1
 8410 1e28 34       		.byte	0x34
 8411 1e29 24       		.uleb128 0x24
 8412 1e2a 01       		.uleb128 0x1
 8413 1e2b 53       		.byte	0x53
 8414 1e2c 02       		.uleb128 0x2
 8415 1e2d 09       		.byte	0x9
 8416 1e2e A0       		.byte	0xa0
 8417 1e2f 24       		.uleb128 0x24
 8418 1e30 02       		.uleb128 0x2
 8419 1e31 7D       		.byte	0x7d
 8420 1e32 00       		.sleb128 0
 8421 1e33 01       		.uleb128 0x1
 8422 1e34 30       		.byte	0x30
 8423 1e35 00       		.byte	0
 8424 1e36 00       		.byte	0
 8425 1e37 07       		.uleb128 0x7
 8426 1e38 04       		.byte	0x4
 8427 1e39 3D1E0000 		.4byte	0x1e3d
 8428 1e3d 08       		.uleb128 0x8
 8429 1e3e 5C040000 		.4byte	0x45c
 8430 1e42 1C       		.uleb128 0x1c
 8431 1e43 EE030000 		.4byte	.LASF145
 8432 1e47 01       		.byte	0x1
 8433 1e48 8802     		.2byte	0x288
 8434 1e4a B2040000 		.4byte	0x4b2
 8435 1e4e 00000000 		.4byte	.LFB57
 8436 1e52 AC000000 		.4byte	.LFE57-.LFB57
 8437 1e56 01       		.uleb128 0x1
 8438 1e57 9C       		.byte	0x9c
 8439 1e58 051F0000 		.4byte	0x1f05
 8440 1e5c 1D       		.uleb128 0x1d
 8441 1e5d 61726700 		.ascii	"arg\000"
 8442 1e61 01       		.byte	0x1
 8443 1e62 8802     		.2byte	0x288
 8444 1e64 23040000 		.4byte	0x423
 8445 1e68 1A090000 		.4byte	.LLST61
 8446 1e6c 32       		.uleb128 0x32
 8447 1e6d C2070000 		.4byte	.LASF146
 8448 1e71 01       		.byte	0x1
 8449 1e72 8902     		.2byte	0x289
 8450 1e74 63030000 		.4byte	0x363
 8451 1e78 05       		.uleb128 0x5
 8452 1e79 03       		.byte	0x3
 8453 1e7a 08000000 		.4byte	last_adjust_current_setpoint.7895
 8454 1e7e 32       		.uleb128 0x32
 8455 1e7f 6E020000 		.4byte	.LASF108
 8456 1e83 01       		.byte	0x1
 8457 1e84 8D02     		.2byte	0x28d
 8458 1e86 18040000 		.4byte	0x418
 8459 1e8a 02       		.uleb128 0x2
 8460 1e8b 91       		.byte	0x91
 8461 1e8c 60       		.sleb128 -32
 8462 1e8d 2B       		.uleb128 0x2b
ARM GAS  C:\Users\VIDEOH~1\AppData\Local\Temp\ccM4oHTP.s 			page 174


 8463 1e8e 0A000000 		.4byte	.LVL335
 8464 1e92 0A240000 		.4byte	0x240a
 8465 1e96 2A       		.uleb128 0x2a
 8466 1e97 10000000 		.4byte	.LVL336
 8467 1e9b 12090000 		.4byte	0x912
 8468 1e9f AA1E0000 		.4byte	0x1eaa
 8469 1ea3 24       		.uleb128 0x24
 8470 1ea4 01       		.uleb128 0x1
 8471 1ea5 50       		.byte	0x50
 8472 1ea6 02       		.uleb128 0x2
 8473 1ea7 7D       		.byte	0x7d
 8474 1ea8 00       		.sleb128 0
 8475 1ea9 00       		.byte	0
 8476 1eaa 2B       		.uleb128 0x2b
 8477 1eab 40000000 		.4byte	.LVL337
 8478 1eaf C8240000 		.4byte	0x24c8
 8479 1eb3 2A       		.uleb128 0x2a
 8480 1eb4 4A000000 		.4byte	.LVL338
 8481 1eb8 A6240000 		.4byte	0x24a6
 8482 1ebc C61E0000 		.4byte	0x1ec6
 8483 1ec0 24       		.uleb128 0x24
 8484 1ec1 01       		.uleb128 0x1
 8485 1ec2 50       		.byte	0x50
 8486 1ec3 01       		.uleb128 0x1
 8487 1ec4 32       		.byte	0x32
 8488 1ec5 00       		.byte	0
 8489 1ec6 2A       		.uleb128 0x2a
 8490 1ec7 52000000 		.4byte	.LVL339
 8491 1ecb A6240000 		.4byte	0x24a6
 8492 1ecf D91E0000 		.4byte	0x1ed9
 8493 1ed3 24       		.uleb128 0x24
 8494 1ed4 01       		.uleb128 0x1
 8495 1ed5 50       		.byte	0x50
 8496 1ed6 01       		.uleb128 0x1
 8497 1ed7 30       		.byte	0x30
 8498 1ed8 00       		.byte	0
 8499 1ed9 2B       		.uleb128 0x2b
 8500 1eda 58000000 		.4byte	.LVL340
 8501 1ede 2B240000 		.4byte	0x242b
 8502 1ee2 2B       		.uleb128 0x2b
 8503 1ee3 64000000 		.4byte	.LVL341
 8504 1ee7 491B0000 		.4byte	0x1b49
 8505 1eeb 2B       		.uleb128 0x2b
 8506 1eec 7C000000 		.4byte	.LVL342
 8507 1ef0 2B240000 		.4byte	0x242b
 8508 1ef4 23       		.uleb128 0x23
 8509 1ef5 94000000 		.4byte	.LVL343
 8510 1ef9 A81B0000 		.4byte	0x1ba8
 8511 1efd 24       		.uleb128 0x24
 8512 1efe 01       		.uleb128 0x1
 8513 1eff 50       		.byte	0x50
 8514 1f00 02       		.uleb128 0x2
 8515 1f01 74       		.byte	0x74
 8516 1f02 08       		.sleb128 8
 8517 1f03 00       		.byte	0
 8518 1f04 00       		.byte	0
 8519 1f05 39       		.uleb128 0x39
ARM GAS  C:\Users\VIDEOH~1\AppData\Local\Temp\ccM4oHTP.s 			page 175


 8520 1f06 E00C0000 		.4byte	.LASF147
 8521 1f0a 01       		.byte	0x1
 8522 1f0b A9       		.byte	0xa9
 8523 1f0c 00000000 		.4byte	.LFB34
 8524 1f10 B4000000 		.4byte	.LFE34-.LFB34
 8525 1f14 01       		.uleb128 0x1
 8526 1f15 9C       		.byte	0x9c
 8527 1f16 A61F0000 		.4byte	0x1fa6
 8528 1f1a 2D       		.uleb128 0x2d
 8529 1f1b 6E020000 		.4byte	.LASF108
 8530 1f1f 01       		.byte	0x1
 8531 1f20 AA       		.byte	0xaa
 8532 1f21 18040000 		.4byte	0x418
 8533 1f25 05       		.uleb128 0x5
 8534 1f26 03       		.byte	0x3
 8535 1f27 08000000 		.4byte	event.7710
 8536 1f2b 2D       		.uleb128 0x2d
 8537 1f2c 45090000 		.4byte	.LASF148
 8538 1f30 01       		.byte	0x1
 8539 1f31 AB       		.byte	0xab
 8540 1f32 AF000000 		.4byte	0xaf
 8541 1f36 05       		.uleb128 0x5
 8542 1f37 03       		.byte	0x3
 8543 1f38 04000000 		.4byte	last_levels.7711
 8544 1f3c 2D       		.uleb128 0x2d
 8545 1f3d 84020000 		.4byte	.LASF149
 8546 1f41 01       		.byte	0x1
 8547 1f42 AC       		.byte	0xac
 8548 1f43 AF000000 		.4byte	0xaf
 8549 1f47 05       		.uleb128 0x5
 8550 1f48 03       		.byte	0x3
 8551 1f49 0C000000 		.4byte	count.7712
 8552 1f4d 2D       		.uleb128 0x2d
 8553 1f4e 1D0A0000 		.4byte	.LASF150
 8554 1f52 01       		.byte	0x1
 8555 1f53 AD       		.byte	0xad
 8556 1f54 63030000 		.4byte	0x363
 8557 1f58 05       		.uleb128 0x5
 8558 1f59 03       		.byte	0x3
 8559 1f5a 10000000 		.4byte	before.7713
 8560 1f5e 28       		.uleb128 0x28
 8561 1f5f 6B050000 		.4byte	.LASF151
 8562 1f63 01       		.byte	0x1
 8563 1f64 AF       		.byte	0xaf
 8564 1f65 73000000 		.4byte	0x73
 8565 1f69 3B090000 		.4byte	.LLST62
 8566 1f6d 2B       		.uleb128 0x2b
 8567 1f6e 06000000 		.4byte	.LVL345
 8568 1f72 FF240000 		.4byte	0x24ff
 8569 1f76 2B       		.uleb128 0x2b
 8570 1f77 0C000000 		.4byte	.LVL347
 8571 1f7b 0A250000 		.4byte	0x250a
 8572 1f7f 2B       		.uleb128 0x2b
 8573 1f80 60000000 		.4byte	.LVL349
 8574 1f84 15250000 		.4byte	0x2515
 8575 1f88 23       		.uleb128 0x23
 8576 1f89 92000000 		.4byte	.LVL350
ARM GAS  C:\Users\VIDEOH~1\AppData\Local\Temp\ccM4oHTP.s 			page 176


 8577 1f8d 21250000 		.4byte	0x2521
 8578 1f91 24       		.uleb128 0x24
 8579 1f92 01       		.uleb128 0x1
 8580 1f93 51       		.byte	0x51
 8581 1f94 05       		.uleb128 0x5
 8582 1f95 03       		.byte	0x3
 8583 1f96 08000000 		.4byte	.LANCHOR0+8
 8584 1f9a 24       		.uleb128 0x24
 8585 1f9b 01       		.uleb128 0x1
 8586 1f9c 52       		.byte	0x52
 8587 1f9d 01       		.uleb128 0x1
 8588 1f9e 30       		.byte	0x30
 8589 1f9f 24       		.uleb128 0x24
 8590 1fa0 01       		.uleb128 0x1
 8591 1fa1 53       		.byte	0x53
 8592 1fa2 01       		.uleb128 0x1
 8593 1fa3 30       		.byte	0x30
 8594 1fa4 00       		.byte	0
 8595 1fa5 00       		.byte	0
 8596 1fa6 29       		.uleb128 0x29
 8597 1fa7 4D060000 		.4byte	.LASF152
 8598 1fab 01       		.byte	0x1
 8599 1fac 4101     		.2byte	0x141
 8600 1fae 00000000 		.4byte	.LFB41
 8601 1fb2 18000000 		.4byte	.LFE41-.LFB41
 8602 1fb6 01       		.uleb128 0x1
 8603 1fb7 9C       		.byte	0x9c
 8604 1fb8 EF1F0000 		.4byte	0x1fef
 8605 1fbc 1D       		.uleb128 0x1d
 8606 1fbd 62756600 		.ascii	"buf\000"
 8607 1fc1 01       		.byte	0x1
 8608 1fc2 4101     		.2byte	0x141
 8609 1fc4 D9000000 		.4byte	0xd9
 8610 1fc8 59090000 		.4byte	.LLST63
 8611 1fcc 2B       		.uleb128 0x2b
 8612 1fcd 08000000 		.4byte	.LVL352
 8613 1fd1 2D250000 		.4byte	0x252d
 8614 1fd5 23       		.uleb128 0x23
 8615 1fd6 10000000 		.4byte	.LVL353
 8616 1fda AF060000 		.4byte	0x6af
 8617 1fde 24       		.uleb128 0x24
 8618 1fdf 01       		.uleb128 0x1
 8619 1fe0 51       		.byte	0x51
 8620 1fe1 05       		.uleb128 0x5
 8621 1fe2 03       		.byte	0x3
 8622 1fe3 D8000000 		.4byte	.LC49
 8623 1fe7 24       		.uleb128 0x24
 8624 1fe8 01       		.uleb128 0x1
 8625 1fe9 52       		.byte	0x52
 8626 1fea 02       		.uleb128 0x2
 8627 1feb 74       		.byte	0x74
 8628 1fec 00       		.sleb128 0
 8629 1fed 00       		.byte	0
 8630 1fee 00       		.byte	0
 8631 1fef 29       		.uleb128 0x29
 8632 1ff0 AB0C0000 		.4byte	.LASF153
 8633 1ff4 01       		.byte	0x1
ARM GAS  C:\Users\VIDEOH~1\AppData\Local\Temp\ccM4oHTP.s 			page 177


 8634 1ff5 4501     		.2byte	0x145
 8635 1ff7 00000000 		.4byte	.LFB42
 8636 1ffb 18000000 		.4byte	.LFE42-.LFB42
 8637 1fff 01       		.uleb128 0x1
 8638 2000 9C       		.byte	0x9c
 8639 2001 38200000 		.4byte	0x2038
 8640 2005 1D       		.uleb128 0x1d
 8641 2006 62756600 		.ascii	"buf\000"
 8642 200a 01       		.byte	0x1
 8643 200b 4501     		.2byte	0x145
 8644 200d D9000000 		.4byte	0xd9
 8645 2011 85090000 		.4byte	.LLST64
 8646 2015 2B       		.uleb128 0x2b
 8647 2016 08000000 		.4byte	.LVL356
 8648 201a 38250000 		.4byte	0x2538
 8649 201e 23       		.uleb128 0x23
 8650 201f 10000000 		.4byte	.LVL357
 8651 2023 AF060000 		.4byte	0x6af
 8652 2027 24       		.uleb128 0x24
 8653 2028 01       		.uleb128 0x1
 8654 2029 51       		.byte	0x51
 8655 202a 05       		.uleb128 0x5
 8656 202b 03       		.byte	0x3
 8657 202c D8000000 		.4byte	.LC49
 8658 2030 24       		.uleb128 0x24
 8659 2031 01       		.uleb128 0x1
 8660 2032 52       		.byte	0x52
 8661 2033 02       		.uleb128 0x2
 8662 2034 74       		.byte	0x74
 8663 2035 00       		.sleb128 0
 8664 2036 00       		.byte	0
 8665 2037 00       		.byte	0
 8666 2038 33       		.uleb128 0x33
 8667 2039 A2080000 		.4byte	.LASF154
 8668 203d 01       		.byte	0x1
 8669 203e 4D01     		.2byte	0x14d
 8670 2040 00000000 		.4byte	.LFB44
 8671 2044 30000000 		.4byte	.LFE44-.LFB44
 8672 2048 01       		.uleb128 0x1
 8673 2049 9C       		.byte	0x9c
 8674 204a 9A200000 		.4byte	0x209a
 8675 204e 1D       		.uleb128 0x1d
 8676 204f 62756600 		.ascii	"buf\000"
 8677 2053 01       		.byte	0x1
 8678 2054 4D01     		.2byte	0x14d
 8679 2056 D9000000 		.4byte	0xd9
 8680 205a B1090000 		.4byte	.LLST65
 8681 205e 30       		.uleb128 0x30
 8682 205f 920B0000 		.4byte	.LASF155
 8683 2063 01       		.byte	0x1
 8684 2064 4E01     		.2byte	0x14e
 8685 2066 73000000 		.4byte	0x73
 8686 206a DD090000 		.4byte	.LLST66
 8687 206e 2B       		.uleb128 0x2b
 8688 206f 08000000 		.4byte	.LVL360
 8689 2073 38250000 		.4byte	0x2538
 8690 2077 2B       		.uleb128 0x2b
ARM GAS  C:\Users\VIDEOH~1\AppData\Local\Temp\ccM4oHTP.s 			page 178


 8691 2078 16000000 		.4byte	.LVL362
 8692 207c FF230000 		.4byte	0x23ff
 8693 2080 23       		.uleb128 0x23
 8694 2081 28000000 		.4byte	.LVL365
 8695 2085 AF060000 		.4byte	0x6af
 8696 2089 24       		.uleb128 0x24
 8697 208a 01       		.uleb128 0x1
 8698 208b 51       		.byte	0x51
 8699 208c 05       		.uleb128 0x5
 8700 208d 03       		.byte	0x3
 8701 208e 60010000 		.4byte	.LC115
 8702 2092 24       		.uleb128 0x24
 8703 2093 01       		.uleb128 0x1
 8704 2094 52       		.byte	0x52
 8705 2095 02       		.uleb128 0x2
 8706 2096 74       		.byte	0x74
 8707 2097 00       		.sleb128 0
 8708 2098 00       		.byte	0
 8709 2099 00       		.byte	0
 8710 209a 33       		.uleb128 0x33
 8711 209b A6090000 		.4byte	.LASF156
 8712 209f 01       		.byte	0x1
 8713 20a0 5201     		.2byte	0x152
 8714 20a2 00000000 		.4byte	.LFB45
 8715 20a6 48000000 		.4byte	.LFE45-.LFB45
 8716 20aa 01       		.uleb128 0x1
 8717 20ab 9C       		.byte	0x9c
 8718 20ac 1E210000 		.4byte	0x211e
 8719 20b0 1D       		.uleb128 0x1d
 8720 20b1 62756600 		.ascii	"buf\000"
 8721 20b5 01       		.byte	0x1
 8722 20b6 5201     		.2byte	0x152
 8723 20b8 D9000000 		.4byte	0xd9
 8724 20bc F0090000 		.4byte	.LLST67
 8725 20c0 30       		.uleb128 0x30
 8726 20c1 F80B0000 		.4byte	.LASF118
 8727 20c5 01       		.byte	0x1
 8728 20c6 5301     		.2byte	0x153
 8729 20c8 73000000 		.4byte	0x73
 8730 20cc 1C0A0000 		.4byte	.LLST68
 8731 20d0 2B       		.uleb128 0x2b
 8732 20d1 08000000 		.4byte	.LVL368
 8733 20d5 38250000 		.4byte	0x2538
 8734 20d9 2B       		.uleb128 0x2b
 8735 20da 10000000 		.4byte	.LVL370
 8736 20de FF230000 		.4byte	0x23ff
 8737 20e2 2A       		.uleb128 0x2a
 8738 20e3 2E000000 		.4byte	.LVL373
 8739 20e7 AF060000 		.4byte	0x6af
 8740 20eb FF200000 		.4byte	0x20ff
 8741 20ef 24       		.uleb128 0x24
 8742 20f0 01       		.uleb128 0x1
 8743 20f1 51       		.byte	0x51
 8744 20f2 05       		.uleb128 0x5
 8745 20f3 03       		.byte	0x3
 8746 20f4 64010000 		.4byte	.LC117
 8747 20f8 24       		.uleb128 0x24
ARM GAS  C:\Users\VIDEOH~1\AppData\Local\Temp\ccM4oHTP.s 			page 179


 8748 20f9 01       		.uleb128 0x1
 8749 20fa 52       		.byte	0x52
 8750 20fb 02       		.uleb128 0x2
 8751 20fc 75       		.byte	0x75
 8752 20fd 00       		.sleb128 0
 8753 20fe 00       		.byte	0
 8754 20ff 23       		.uleb128 0x23
 8755 2100 3A000000 		.4byte	.LVL376
 8756 2104 DC230000 		.4byte	0x23dc
 8757 2108 24       		.uleb128 0x24
 8758 2109 01       		.uleb128 0x1
 8759 210a 50       		.byte	0x50
 8760 210b 02       		.uleb128 0x2
 8761 210c 75       		.byte	0x75
 8762 210d 00       		.sleb128 0
 8763 210e 24       		.uleb128 0x24
 8764 210f 01       		.uleb128 0x1
 8765 2110 51       		.byte	0x51
 8766 2111 05       		.uleb128 0x5
 8767 2112 03       		.byte	0x3
 8768 2113 68010000 		.4byte	.LC119
 8769 2117 24       		.uleb128 0x24
 8770 2118 01       		.uleb128 0x1
 8771 2119 52       		.byte	0x52
 8772 211a 01       		.uleb128 0x1
 8773 211b 36       		.byte	0x36
 8774 211c 00       		.byte	0
 8775 211d 00       		.byte	0
 8776 211e 29       		.uleb128 0x29
 8777 211f C5050000 		.4byte	.LASF157
 8778 2123 01       		.byte	0x1
 8779 2124 5B01     		.2byte	0x15b
 8780 2126 00000000 		.4byte	.LFB46
 8781 212a 18000000 		.4byte	.LFE46-.LFB46
 8782 212e 01       		.uleb128 0x1
 8783 212f 9C       		.byte	0x9c
 8784 2130 67210000 		.4byte	0x2167
 8785 2134 1D       		.uleb128 0x1d
 8786 2135 62756600 		.ascii	"buf\000"
 8787 2139 01       		.byte	0x1
 8788 213a 5B01     		.2byte	0x15b
 8789 213c D9000000 		.4byte	0xd9
 8790 2140 500A0000 		.4byte	.LLST69
 8791 2144 2B       		.uleb128 0x2b
 8792 2145 08000000 		.4byte	.LVL380
 8793 2149 43250000 		.4byte	0x2543
 8794 214d 23       		.uleb128 0x23
 8795 214e 10000000 		.4byte	.LVL381
 8796 2152 AF060000 		.4byte	0x6af
 8797 2156 24       		.uleb128 0x24
 8798 2157 01       		.uleb128 0x1
 8799 2158 51       		.byte	0x51
 8800 2159 05       		.uleb128 0x5
 8801 215a 03       		.byte	0x3
 8802 215b 70010000 		.4byte	.LC121
 8803 215f 24       		.uleb128 0x24
 8804 2160 01       		.uleb128 0x1
ARM GAS  C:\Users\VIDEOH~1\AppData\Local\Temp\ccM4oHTP.s 			page 180


 8805 2161 52       		.byte	0x52
 8806 2162 02       		.uleb128 0x2
 8807 2163 74       		.byte	0x74
 8808 2164 00       		.sleb128 0
 8809 2165 00       		.byte	0
 8810 2166 00       		.byte	0
 8811 2167 29       		.uleb128 0x29
 8812 2168 150C0000 		.4byte	.LASF158
 8813 216c 01       		.byte	0x1
 8814 216d 5F01     		.2byte	0x15f
 8815 216f 00000000 		.4byte	.LFB47
 8816 2173 18000000 		.4byte	.LFE47-.LFB47
 8817 2177 01       		.uleb128 0x1
 8818 2178 9C       		.byte	0x9c
 8819 2179 B0210000 		.4byte	0x21b0
 8820 217d 1D       		.uleb128 0x1d
 8821 217e 62756600 		.ascii	"buf\000"
 8822 2182 01       		.byte	0x1
 8823 2183 5F01     		.2byte	0x15f
 8824 2185 D9000000 		.4byte	0xd9
 8825 2189 7C0A0000 		.4byte	.LLST70
 8826 218d 2B       		.uleb128 0x2b
 8827 218e 08000000 		.4byte	.LVL384
 8828 2192 4E250000 		.4byte	0x254e
 8829 2196 23       		.uleb128 0x23
 8830 2197 10000000 		.4byte	.LVL385
 8831 219b AF060000 		.4byte	0x6af
 8832 219f 24       		.uleb128 0x24
 8833 21a0 01       		.uleb128 0x1
 8834 21a1 51       		.byte	0x51
 8835 21a2 05       		.uleb128 0x5
 8836 21a3 03       		.byte	0x3
 8837 21a4 74010000 		.4byte	.LC123
 8838 21a8 24       		.uleb128 0x24
 8839 21a9 01       		.uleb128 0x1
 8840 21aa 52       		.byte	0x52
 8841 21ab 02       		.uleb128 0x2
 8842 21ac 74       		.byte	0x74
 8843 21ad 00       		.sleb128 0
 8844 21ae 00       		.byte	0
 8845 21af 00       		.byte	0
 8846 21b0 39       		.uleb128 0x39
 8847 21b1 1C060000 		.4byte	.LASF159
 8848 21b5 01       		.byte	0x1
 8849 21b6 8D       		.byte	0x8d
 8850 21b7 00000000 		.4byte	.LFB33
 8851 21bb 5C000000 		.4byte	.LFE33-.LFB33
 8852 21bf 01       		.uleb128 0x1
 8853 21c0 9C       		.byte	0x9c
 8854 21c1 23220000 		.4byte	0x2223
 8855 21c5 2D       		.uleb128 0x2d
 8856 21c6 6E020000 		.4byte	.LASF108
 8857 21ca 01       		.byte	0x1
 8858 21cb 8F       		.byte	0x8f
 8859 21cc 18040000 		.4byte	0x418
 8860 21d0 05       		.uleb128 0x5
 8861 21d1 03       		.byte	0x3
ARM GAS  C:\Users\VIDEOH~1\AppData\Local\Temp\ccM4oHTP.s 			page 181


 8862 21d2 18000000 		.4byte	event.7703
 8863 21d6 2D       		.uleb128 0x2d
 8864 21d7 1D0A0000 		.4byte	.LASF150
 8865 21db 01       		.byte	0x1
 8866 21dc 90       		.byte	0x90
 8867 21dd 63030000 		.4byte	0x363
 8868 21e1 05       		.uleb128 0x5
 8869 21e2 03       		.byte	0x3
 8870 21e3 14000000 		.4byte	before.7704
 8871 21e7 28       		.uleb128 0x28
 8872 21e8 99060000 		.4byte	.LASF160
 8873 21ec 01       		.byte	0x1
 8874 21ed 92       		.byte	0x92
 8875 21ee 73000000 		.4byte	0x73
 8876 21f2 A80A0000 		.4byte	.LLST71
 8877 21f6 2B       		.uleb128 0x2b
 8878 21f7 06000000 		.4byte	.LVL387
 8879 21fb 59250000 		.4byte	0x2559
 8880 21ff 2B       		.uleb128 0x2b
 8881 2200 1C000000 		.4byte	.LVL389
 8882 2204 15250000 		.4byte	0x2515
 8883 2208 23       		.uleb128 0x23
 8884 2209 46000000 		.4byte	.LVL390
 8885 220d 21250000 		.4byte	0x2521
 8886 2211 24       		.uleb128 0x24
 8887 2212 01       		.uleb128 0x1
 8888 2213 51       		.byte	0x51
 8889 2214 02       		.uleb128 0x2
 8890 2215 76       		.byte	0x76
 8891 2216 18       		.sleb128 24
 8892 2217 24       		.uleb128 0x24
 8893 2218 01       		.uleb128 0x1
 8894 2219 52       		.byte	0x52
 8895 221a 01       		.uleb128 0x1
 8896 221b 30       		.byte	0x30
 8897 221c 24       		.uleb128 0x24
 8898 221d 01       		.uleb128 0x1
 8899 221e 53       		.byte	0x53
 8900 221f 01       		.uleb128 0x1
 8901 2220 30       		.byte	0x30
 8902 2221 00       		.byte	0
 8903 2222 00       		.byte	0
 8904 2223 3A       		.uleb128 0x3a
 8905 2224 56090000 		.4byte	.LASF218
 8906 2228 01       		.byte	0x1
 8907 2229 5B03     		.2byte	0x35b
 8908 222b 00000000 		.4byte	.LFB66
 8909 222f 6C000000 		.4byte	.LFE66-.LFB66
 8910 2233 01       		.uleb128 0x1
 8911 2234 9C       		.byte	0x9c
 8912 2235 CC220000 		.4byte	0x22cc
 8913 2239 20       		.uleb128 0x20
 8914 223a 57010000 		.4byte	.LASF161
 8915 223e 01       		.byte	0x1
 8916 223f 5B03     		.2byte	0x35b
 8917 2241 D7000000 		.4byte	0xd7
 8918 2245 C60A0000 		.4byte	.LLST72
ARM GAS  C:\Users\VIDEOH~1\AppData\Local\Temp\ccM4oHTP.s 			page 182


 8919 2249 32       		.uleb128 0x32
 8920 224a D30B0000 		.4byte	.LASF162
 8921 224e 01       		.byte	0x1
 8922 224f 6003     		.2byte	0x360
 8923 2251 B2040000 		.4byte	0x4b2
 8924 2255 02       		.uleb128 0x2
 8925 2256 91       		.byte	0x91
 8926 2257 64       		.sleb128 -28
 8927 2258 32       		.uleb128 0x32
 8928 2259 4A0B0000 		.4byte	.LASF163
 8929 225d 01       		.byte	0x1
 8930 225e 6103     		.2byte	0x361
 8931 2260 B2040000 		.4byte	0x4b2
 8932 2264 02       		.uleb128 0x2
 8933 2265 91       		.byte	0x91
 8934 2266 58       		.sleb128 -40
 8935 2267 21       		.uleb128 0x21
 8936 2268 2C000000 		.4byte	.LBB9
 8937 226c 32000000 		.4byte	.LBE9-.LBB9
 8938 2270 9B220000 		.4byte	0x229b
 8939 2274 32       		.uleb128 0x32
 8940 2275 AF010000 		.4byte	.LASF89
 8941 2279 01       		.byte	0x1
 8942 227a 6403     		.2byte	0x364
 8943 227c B2040000 		.4byte	0x4b2
 8944 2280 02       		.uleb128 0x2
 8945 2281 91       		.byte	0x91
 8946 2282 4C       		.sleb128 -52
 8947 2283 3B       		.uleb128 0x3b
 8948 2284 34000000 		.4byte	.LVL396
 8949 2288 03       		.uleb128 0x3
 8950 2289 91       		.byte	0x91
 8951 228a 58       		.sleb128 -40
 8952 228b 06       		.byte	0x6
 8953 228c 24       		.uleb128 0x24
 8954 228d 01       		.uleb128 0x1
 8955 228e 50       		.byte	0x50
 8956 228f 02       		.uleb128 0x2
 8957 2290 91       		.byte	0x91
 8958 2291 4C       		.sleb128 -52
 8959 2292 24       		.uleb128 0x24
 8960 2293 01       		.uleb128 0x1
 8961 2294 51       		.byte	0x51
 8962 2295 03       		.uleb128 0x3
 8963 2296 91       		.byte	0x91
 8964 2297 5C       		.sleb128 -36
 8965 2298 06       		.byte	0x6
 8966 2299 00       		.byte	0
 8967 229a 00       		.byte	0
 8968 229b 2A       		.uleb128 0x2a
 8969 229c 0E000000 		.4byte	.LVL394
 8970 22a0 64250000 		.4byte	0x2564
 8971 22a4 B8220000 		.4byte	0x22b8
 8972 22a8 24       		.uleb128 0x24
 8973 22a9 01       		.uleb128 0x1
 8974 22aa 50       		.byte	0x50
 8975 22ab 01       		.uleb128 0x1
ARM GAS  C:\Users\VIDEOH~1\AppData\Local\Temp\ccM4oHTP.s 			page 183


 8976 22ac 32       		.byte	0x32
 8977 22ad 24       		.uleb128 0x24
 8978 22ae 01       		.uleb128 0x1
 8979 22af 51       		.byte	0x51
 8980 22b0 01       		.uleb128 0x1
 8981 22b1 40       		.byte	0x40
 8982 22b2 24       		.uleb128 0x24
 8983 22b3 01       		.uleb128 0x1
 8984 22b4 52       		.byte	0x52
 8985 22b5 01       		.uleb128 0x1
 8986 22b6 30       		.byte	0x30
 8987 22b7 00       		.byte	0
 8988 22b8 23       		.uleb128 0x23
 8989 22b9 18000000 		.4byte	.LVL395
 8990 22bd 70250000 		.4byte	0x2570
 8991 22c1 24       		.uleb128 0x24
 8992 22c2 01       		.uleb128 0x1
 8993 22c3 50       		.byte	0x50
 8994 22c4 05       		.uleb128 0x5
 8995 22c5 03       		.byte	0x3
 8996 22c6 00000000 		.4byte	quadrature_event_isr
 8997 22ca 00       		.byte	0
 8998 22cb 00       		.byte	0
 8999 22cc 3C       		.uleb128 0x3c
 9000 22cd 240A0000 		.4byte	.LASF164
 9001 22d1 0A       		.byte	0xa
 9002 22d2 82       		.byte	0x82
 9003 22d3 6C010000 		.4byte	0x16c
 9004 22d7 3C       		.uleb128 0x3c
 9005 22d8 4A0B0000 		.4byte	.LASF163
 9006 22dc 06       		.byte	0x6
 9007 22dd 44       		.byte	0x44
 9008 22de A5010000 		.4byte	0x1a5
 9009 22e2 3C       		.uleb128 0x3c
 9010 22e3 0A050000 		.4byte	.LASF165
 9011 22e7 06       		.byte	0x6
 9012 22e8 74       		.byte	0x74
 9013 22e9 ED220000 		.4byte	0x22ed
 9014 22ed 07       		.uleb128 0x7
 9015 22ee 04       		.byte	0x4
 9016 22ef F3220000 		.4byte	0x22f3
 9017 22f3 08       		.uleb128 0x8
 9018 22f4 39030000 		.4byte	0x339
 9019 22f8 3C       		.uleb128 0x3c
 9020 22f9 4F000000 		.4byte	.LASF166
 9021 22fd 06       		.byte	0x6
 9022 22fe 75       		.byte	0x75
 9023 22ff F3220000 		.4byte	0x22f3
 9024 2303 3D       		.uleb128 0x3d
 9025 2304 500B0000 		.4byte	.LASF167
 9026 2308 01       		.byte	0x1
 9027 2309 18       		.byte	0x18
 9028 230a 6E030000 		.4byte	0x36e
 9029 230e 05       		.uleb128 0x5
 9030 230f 03       		.byte	0x3
 9031 2310 00000000 		.4byte	ui_queue
 9032 2314 3D       		.uleb128 0x3d
ARM GAS  C:\Users\VIDEOH~1\AppData\Local\Temp\ccM4oHTP.s 			page 184


 9033 2315 2B070000 		.4byte	.LASF168
 9034 2319 01       		.byte	0x1
 9035 231a 54       		.byte	0x54
 9036 231b F3170000 		.4byte	0x17f3
 9037 231f 05       		.uleb128 0x5
 9038 2320 03       		.byte	0x3
 9039 2321 00000000 		.4byte	set_readout_menu
 9040 2325 3D       		.uleb128 0x3d
 9041 2326 CE030000 		.4byte	.LASF169
 9042 232a 01       		.byte	0x1
 9043 232b 64       		.byte	0x64
 9044 232c F3170000 		.4byte	0x17f3
 9045 2330 05       		.uleb128 0x5
 9046 2331 03       		.byte	0x3
 9047 2332 00000000 		.4byte	choose_readout_menu
 9048 2336 3D       		.uleb128 0x3d
 9049 2337 260C0000 		.4byte	.LASF170
 9050 233b 01       		.byte	0x1
 9051 233c 6F       		.byte	0x6f
 9052 233d F3170000 		.4byte	0x17f3
 9053 2341 05       		.uleb128 0x5
 9054 2342 03       		.byte	0x3
 9055 2343 00000000 		.4byte	tools_menu
 9056 2347 3D       		.uleb128 0x3d
 9057 2348 990A0000 		.4byte	.LASF171
 9058 234c 01       		.byte	0x1
 9059 234d 79       		.byte	0x79
 9060 234e F3170000 		.4byte	0x17f3
 9061 2352 05       		.uleb128 0x5
 9062 2353 03       		.byte	0x3
 9063 2354 00000000 		.4byte	main_menu
 9064 2358 3D       		.uleb128 0x3d
 9065 2359 1B090000 		.4byte	.LASF172
 9066 235d 01       		.byte	0x1
 9067 235e 8B       		.byte	0x8b
 9068 235f 69230000 		.4byte	0x2369
 9069 2363 05       		.uleb128 0x5
 9070 2364 03       		.byte	0x3
 9071 2365 00000000 		.4byte	long_button_press_tick_count
 9072 2369 3E       		.uleb128 0x3e
 9073 236a 63030000 		.4byte	0x363
 9074 236e 09       		.uleb128 0x9
 9075 236f AD040000 		.4byte	0x4ad
 9076 2373 7E230000 		.4byte	0x237e
 9077 2377 0A       		.uleb128 0xa
 9078 2378 D0000000 		.4byte	0xd0
 9079 237c 03       		.byte	0x3
 9080 237d 00       		.byte	0
 9081 237e 3D       		.uleb128 0x3d
 9082 237f 3E080000 		.4byte	.LASF173
 9083 2383 01       		.byte	0x1
 9084 2384 A7       		.byte	0xa7
 9085 2385 8F230000 		.4byte	0x238f
 9086 2389 05       		.uleb128 0x5
 9087 238a 03       		.byte	0x3
 9088 238b 00000000 		.4byte	quadrature_states
 9089 238f 08       		.uleb128 0x8
ARM GAS  C:\Users\VIDEOH~1\AppData\Local\Temp\ccM4oHTP.s 			page 185


 9090 2390 6E230000 		.4byte	0x236e
 9091 2394 09       		.uleb128 0x9
 9092 2395 3D1E0000 		.4byte	0x1e3d
 9093 2399 A4230000 		.4byte	0x23a4
 9094 239d 0A       		.uleb128 0xa
 9095 239e D0000000 		.4byte	0xd0
 9096 23a2 07       		.byte	0x7
 9097 23a3 00       		.byte	0
 9098 23a4 3F       		.uleb128 0x3f
 9099 23a5 9D070000 		.4byte	.LASF174
 9100 23a9 01       		.byte	0x1
 9101 23aa 6301     		.2byte	0x163
 9102 23ac B6230000 		.4byte	0x23b6
 9103 23b0 05       		.uleb128 0x5
 9104 23b1 03       		.byte	0x3
 9105 23b2 00000000 		.4byte	readout_functions
 9106 23b6 08       		.uleb128 0x8
 9107 23b7 94230000 		.4byte	0x2394
 9108 23bb 40       		.uleb128 0x40
 9109 23bc 00000000 		.4byte	.LASF175
 9110 23c0 00000000 		.4byte	.LASF175
 9111 23c4 0B       		.byte	0xb
 9112 23c5 D9       		.byte	0xd9
 9113 23c6 40       		.uleb128 0x40
 9114 23c7 DF060000 		.4byte	.LASF176
 9115 23cb DF060000 		.4byte	.LASF176
 9116 23cf 0C       		.byte	0xc
 9117 23d0 77       		.byte	0x77
 9118 23d1 40       		.uleb128 0x40
 9119 23d2 0E080000 		.4byte	.LASF177
 9120 23d6 0E080000 		.4byte	.LASF177
 9121 23da 0D       		.byte	0xd
 9122 23db E7       		.byte	0xe7
 9123 23dc 41       		.uleb128 0x41
 9124 23dd CC0B0000 		.4byte	.LASF219
 9125 23e1 CC0B0000 		.4byte	.LASF219
 9126 23e5 42       		.uleb128 0x42
 9127 23e6 60000000 		.4byte	.LASF198
 9128 23ea F1090000 		.4byte	.LASF220
 9129 23ee 19       		.byte	0x19
 9130 23ef 00       		.byte	0
 9131 23f0 60000000 		.4byte	.LASF198
 9132 23f4 40       		.uleb128 0x40
 9133 23f5 61020000 		.4byte	.LASF178
 9134 23f9 61020000 		.4byte	.LASF178
 9135 23fd 0E       		.byte	0xe
 9136 23fe 1A       		.byte	0x1a
 9137 23ff 40       		.uleb128 0x40
 9138 2400 E2030000 		.4byte	.LASF179
 9139 2404 E2030000 		.4byte	.LASF179
 9140 2408 06       		.byte	0x6
 9141 2409 7C       		.byte	0x7c
 9142 240a 40       		.uleb128 0x40
 9143 240b 750A0000 		.4byte	.LASF180
 9144 240f 750A0000 		.4byte	.LASF180
 9145 2413 0F       		.byte	0xf
 9146 2414 14       		.byte	0x14
ARM GAS  C:\Users\VIDEOH~1\AppData\Local\Temp\ccM4oHTP.s 			page 186


 9147 2415 40       		.uleb128 0x40
 9148 2416 2B030000 		.4byte	.LASF181
 9149 241a 2B030000 		.4byte	.LASF181
 9150 241e 0F       		.byte	0xf
 9151 241f 12       		.byte	0x12
 9152 2420 40       		.uleb128 0x40
 9153 2421 B7040000 		.4byte	.LASF182
 9154 2425 B7040000 		.4byte	.LASF182
 9155 2429 10       		.byte	0x10
 9156 242a 59       		.byte	0x59
 9157 242b 43       		.uleb128 0x43
 9158 242c 3B060000 		.4byte	.LASF183
 9159 2430 3B060000 		.4byte	.LASF183
 9160 2434 11       		.byte	0x11
 9161 2435 0804     		.2byte	0x408
 9162 2437 43       		.uleb128 0x43
 9163 2438 8A020000 		.4byte	.LASF184
 9164 243c 8A020000 		.4byte	.LASF184
 9165 2440 08       		.byte	0x8
 9166 2441 8D03     		.2byte	0x38d
 9167 2443 40       		.uleb128 0x40
 9168 2444 9F0C0000 		.4byte	.LASF185
 9169 2448 9F0C0000 		.4byte	.LASF185
 9170 244c 06       		.byte	0x6
 9171 244d 77       		.byte	0x77
 9172 244e 40       		.uleb128 0x40
 9173 244f 67000000 		.4byte	.LASF186
 9174 2453 67000000 		.4byte	.LASF186
 9175 2457 12       		.byte	0x12
 9176 2458 54       		.byte	0x54
 9177 2459 40       		.uleb128 0x40
 9178 245a BF0C0000 		.4byte	.LASF187
 9179 245e BF0C0000 		.4byte	.LASF187
 9180 2462 13       		.byte	0x13
 9181 2463 54       		.byte	0x54
 9182 2464 40       		.uleb128 0x40
 9183 2465 73070000 		.4byte	.LASF188
 9184 2469 73070000 		.4byte	.LASF188
 9185 246d 14       		.byte	0x14
 9186 246e 07       		.byte	0x7
 9187 246f 40       		.uleb128 0x40
 9188 2470 74020000 		.4byte	.LASF189
 9189 2474 74020000 		.4byte	.LASF189
 9190 2478 06       		.byte	0x6
 9191 2479 7B       		.byte	0x7b
 9192 247a 40       		.uleb128 0x40
 9193 247b DB010000 		.4byte	.LASF190
 9194 247f DB010000 		.4byte	.LASF190
 9195 2483 0F       		.byte	0xf
 9196 2484 15       		.byte	0x15
 9197 2485 40       		.uleb128 0x40
 9198 2486 69030000 		.4byte	.LASF191
 9199 248a 69030000 		.4byte	.LASF191
 9200 248e 06       		.byte	0x6
 9201 248f 79       		.byte	0x79
 9202 2490 40       		.uleb128 0x40
 9203 2491 EE040000 		.4byte	.LASF192
ARM GAS  C:\Users\VIDEOH~1\AppData\Local\Temp\ccM4oHTP.s 			page 187


 9204 2495 EE040000 		.4byte	.LASF192
 9205 2499 14       		.byte	0x14
 9206 249a 0A       		.byte	0xa
 9207 249b 40       		.uleb128 0x40
 9208 249c 980B0000 		.4byte	.LASF193
 9209 24a0 980B0000 		.4byte	.LASF193
 9210 24a4 14       		.byte	0x14
 9211 24a5 0B       		.byte	0xb
 9212 24a6 40       		.uleb128 0x40
 9213 24a7 1B070000 		.4byte	.LASF194
 9214 24ab 1B070000 		.4byte	.LASF194
 9215 24af 06       		.byte	0x6
 9216 24b0 8C       		.byte	0x8c
 9217 24b1 43       		.uleb128 0x43
 9218 24b2 3C030000 		.4byte	.LASF195
 9219 24b6 3C030000 		.4byte	.LASF195
 9220 24ba 05       		.byte	0x5
 9221 24bb 6C01     		.2byte	0x16c
 9222 24bd 40       		.uleb128 0x40
 9223 24be C8080000 		.4byte	.LASF196
 9224 24c2 C8080000 		.4byte	.LASF196
 9225 24c6 0F       		.byte	0xf
 9226 24c7 11       		.byte	0x11
 9227 24c8 40       		.uleb128 0x40
 9228 24c9 1D010000 		.4byte	.LASF197
 9229 24cd 1D010000 		.4byte	.LASF197
 9230 24d1 06       		.byte	0x6
 9231 24d2 8D       		.byte	0x8d
 9232 24d3 40       		.uleb128 0x40
 9233 24d4 60000000 		.4byte	.LASF198
 9234 24d8 60000000 		.4byte	.LASF198
 9235 24dc 0E       		.byte	0xe
 9236 24dd 21       		.byte	0x21
 9237 24de 40       		.uleb128 0x40
 9238 24df 2A040000 		.4byte	.LASF199
 9239 24e3 2A040000 		.4byte	.LASF199
 9240 24e7 15       		.byte	0x15
 9241 24e8 16       		.byte	0x16
 9242 24e9 40       		.uleb128 0x40
 9243 24ea 2D010000 		.4byte	.LASF200
 9244 24ee 2D010000 		.4byte	.LASF200
 9245 24f2 0F       		.byte	0xf
 9246 24f3 13       		.byte	0x13
 9247 24f4 40       		.uleb128 0x40
 9248 24f5 7C080000 		.4byte	.LASF201
 9249 24f9 7C080000 		.4byte	.LASF201
 9250 24fd 0E       		.byte	0xe
 9251 24fe 1B       		.byte	0x1b
 9252 24ff 40       		.uleb128 0x40
 9253 2500 48070000 		.4byte	.LASF202
 9254 2504 48070000 		.4byte	.LASF202
 9255 2508 16       		.byte	0x16
 9256 2509 32       		.byte	0x32
 9257 250a 40       		.uleb128 0x40
 9258 250b C1010000 		.4byte	.LASF203
 9259 250f C1010000 		.4byte	.LASF203
 9260 2513 16       		.byte	0x16
ARM GAS  C:\Users\VIDEOH~1\AppData\Local\Temp\ccM4oHTP.s 			page 188


 9261 2514 39       		.byte	0x39
 9262 2515 43       		.uleb128 0x43
 9263 2516 F2020000 		.4byte	.LASF204
 9264 251a F2020000 		.4byte	.LASF204
 9265 251e 11       		.byte	0x11
 9266 251f 1804     		.2byte	0x418
 9267 2521 43       		.uleb128 0x43
 9268 2522 60040000 		.4byte	.LASF205
 9269 2526 60040000 		.4byte	.LASF205
 9270 252a 08       		.byte	0x8
 9271 252b 3705     		.2byte	0x537
 9272 252d 40       		.uleb128 0x40
 9273 252e 16080000 		.4byte	.LASF206
 9274 2532 16080000 		.4byte	.LASF206
 9275 2536 06       		.byte	0x6
 9276 2537 78       		.byte	0x78
 9277 2538 40       		.uleb128 0x40
 9278 2539 18040000 		.4byte	.LASF207
 9279 253d 18040000 		.4byte	.LASF207
 9280 2541 06       		.byte	0x6
 9281 2542 7A       		.byte	0x7a
 9282 2543 40       		.uleb128 0x40
 9283 2544 98050000 		.4byte	.LASF208
 9284 2548 98050000 		.4byte	.LASF208
 9285 254c 06       		.byte	0x6
 9286 254d 7E       		.byte	0x7e
 9287 254e 40       		.uleb128 0x40
 9288 254f 6B090000 		.4byte	.LASF209
 9289 2553 6B090000 		.4byte	.LASF209
 9290 2557 06       		.byte	0x6
 9291 2558 7F       		.byte	0x7f
 9292 2559 40       		.uleb128 0x40
 9293 255a 79000000 		.4byte	.LASF210
 9294 255e 79000000 		.4byte	.LASF210
 9295 2562 17       		.byte	0x17
 9296 2563 32       		.byte	0x32
 9297 2564 43       		.uleb128 0x43
 9298 2565 FE050000 		.4byte	.LASF211
 9299 2569 FE050000 		.4byte	.LASF211
 9300 256d 08       		.byte	0x8
 9301 256e 0006     		.2byte	0x600
 9302 2570 40       		.uleb128 0x40
 9303 2571 790C0000 		.4byte	.LASF212
 9304 2575 790C0000 		.4byte	.LASF212
 9305 2579 18       		.byte	0x18
 9306 257a 18       		.byte	0x18
 9307 257b 00       		.byte	0
 9308              		.section	.debug_abbrev,"",%progbits
 9309              	.Ldebug_abbrev0:
 9310 0000 01       		.uleb128 0x1
 9311 0001 11       		.uleb128 0x11
 9312 0002 01       		.byte	0x1
 9313 0003 25       		.uleb128 0x25
 9314 0004 0E       		.uleb128 0xe
 9315 0005 13       		.uleb128 0x13
 9316 0006 0B       		.uleb128 0xb
 9317 0007 03       		.uleb128 0x3
ARM GAS  C:\Users\VIDEOH~1\AppData\Local\Temp\ccM4oHTP.s 			page 189


 9318 0008 0E       		.uleb128 0xe
 9319 0009 1B       		.uleb128 0x1b
 9320 000a 0E       		.uleb128 0xe
 9321 000b 55       		.uleb128 0x55
 9322 000c 17       		.uleb128 0x17
 9323 000d 11       		.uleb128 0x11
 9324 000e 01       		.uleb128 0x1
 9325 000f 10       		.uleb128 0x10
 9326 0010 17       		.uleb128 0x17
 9327 0011 00       		.byte	0
 9328 0012 00       		.byte	0
 9329 0013 02       		.uleb128 0x2
 9330 0014 24       		.uleb128 0x24
 9331 0015 00       		.byte	0
 9332 0016 0B       		.uleb128 0xb
 9333 0017 0B       		.uleb128 0xb
 9334 0018 3E       		.uleb128 0x3e
 9335 0019 0B       		.uleb128 0xb
 9336 001a 03       		.uleb128 0x3
 9337 001b 0E       		.uleb128 0xe
 9338 001c 00       		.byte	0
 9339 001d 00       		.byte	0
 9340 001e 03       		.uleb128 0x3
 9341 001f 16       		.uleb128 0x16
 9342 0020 00       		.byte	0
 9343 0021 03       		.uleb128 0x3
 9344 0022 0E       		.uleb128 0xe
 9345 0023 3A       		.uleb128 0x3a
 9346 0024 0B       		.uleb128 0xb
 9347 0025 3B       		.uleb128 0x3b
 9348 0026 0B       		.uleb128 0xb
 9349 0027 49       		.uleb128 0x49
 9350 0028 13       		.uleb128 0x13
 9351 0029 00       		.byte	0
 9352 002a 00       		.byte	0
 9353 002b 04       		.uleb128 0x4
 9354 002c 24       		.uleb128 0x24
 9355 002d 00       		.byte	0
 9356 002e 0B       		.uleb128 0xb
 9357 002f 0B       		.uleb128 0xb
 9358 0030 3E       		.uleb128 0x3e
 9359 0031 0B       		.uleb128 0xb
 9360 0032 03       		.uleb128 0x3
 9361 0033 08       		.uleb128 0x8
 9362 0034 00       		.byte	0
 9363 0035 00       		.byte	0
 9364 0036 05       		.uleb128 0x5
 9365 0037 16       		.uleb128 0x16
 9366 0038 00       		.byte	0
 9367 0039 03       		.uleb128 0x3
 9368 003a 0E       		.uleb128 0xe
 9369 003b 3A       		.uleb128 0x3a
 9370 003c 0B       		.uleb128 0xb
 9371 003d 3B       		.uleb128 0x3b
 9372 003e 05       		.uleb128 0x5
 9373 003f 49       		.uleb128 0x49
 9374 0040 13       		.uleb128 0x13
ARM GAS  C:\Users\VIDEOH~1\AppData\Local\Temp\ccM4oHTP.s 			page 190


 9375 0041 00       		.byte	0
 9376 0042 00       		.byte	0
 9377 0043 06       		.uleb128 0x6
 9378 0044 0F       		.uleb128 0xf
 9379 0045 00       		.byte	0
 9380 0046 0B       		.uleb128 0xb
 9381 0047 0B       		.uleb128 0xb
 9382 0048 00       		.byte	0
 9383 0049 00       		.byte	0
 9384 004a 07       		.uleb128 0x7
 9385 004b 0F       		.uleb128 0xf
 9386 004c 00       		.byte	0
 9387 004d 0B       		.uleb128 0xb
 9388 004e 0B       		.uleb128 0xb
 9389 004f 49       		.uleb128 0x49
 9390 0050 13       		.uleb128 0x13
 9391 0051 00       		.byte	0
 9392 0052 00       		.byte	0
 9393 0053 08       		.uleb128 0x8
 9394 0054 26       		.uleb128 0x26
 9395 0055 00       		.byte	0
 9396 0056 49       		.uleb128 0x49
 9397 0057 13       		.uleb128 0x13
 9398 0058 00       		.byte	0
 9399 0059 00       		.byte	0
 9400 005a 09       		.uleb128 0x9
 9401 005b 01       		.uleb128 0x1
 9402 005c 01       		.byte	0x1
 9403 005d 49       		.uleb128 0x49
 9404 005e 13       		.uleb128 0x13
 9405 005f 01       		.uleb128 0x1
 9406 0060 13       		.uleb128 0x13
 9407 0061 00       		.byte	0
 9408 0062 00       		.byte	0
 9409 0063 0A       		.uleb128 0xa
 9410 0064 21       		.uleb128 0x21
 9411 0065 00       		.byte	0
 9412 0066 49       		.uleb128 0x49
 9413 0067 13       		.uleb128 0x13
 9414 0068 2F       		.uleb128 0x2f
 9415 0069 0B       		.uleb128 0xb
 9416 006a 00       		.byte	0
 9417 006b 00       		.byte	0
 9418 006c 0B       		.uleb128 0xb
 9419 006d 13       		.uleb128 0x13
 9420 006e 01       		.byte	0x1
 9421 006f 0B       		.uleb128 0xb
 9422 0070 0B       		.uleb128 0xb
 9423 0071 3A       		.uleb128 0x3a
 9424 0072 0B       		.uleb128 0xb
 9425 0073 3B       		.uleb128 0x3b
 9426 0074 05       		.uleb128 0x5
 9427 0075 01       		.uleb128 0x1
 9428 0076 13       		.uleb128 0x13
 9429 0077 00       		.byte	0
 9430 0078 00       		.byte	0
 9431 0079 0C       		.uleb128 0xc
ARM GAS  C:\Users\VIDEOH~1\AppData\Local\Temp\ccM4oHTP.s 			page 191


 9432 007a 0D       		.uleb128 0xd
 9433 007b 00       		.byte	0
 9434 007c 03       		.uleb128 0x3
 9435 007d 0E       		.uleb128 0xe
 9436 007e 3A       		.uleb128 0x3a
 9437 007f 0B       		.uleb128 0xb
 9438 0080 3B       		.uleb128 0x3b
 9439 0081 05       		.uleb128 0x5
 9440 0082 49       		.uleb128 0x49
 9441 0083 13       		.uleb128 0x13
 9442 0084 38       		.uleb128 0x38
 9443 0085 0B       		.uleb128 0xb
 9444 0086 00       		.byte	0
 9445 0087 00       		.byte	0
 9446 0088 0D       		.uleb128 0xd
 9447 0089 13       		.uleb128 0x13
 9448 008a 01       		.byte	0x1
 9449 008b 0B       		.uleb128 0xb
 9450 008c 0B       		.uleb128 0xb
 9451 008d 3A       		.uleb128 0x3a
 9452 008e 0B       		.uleb128 0xb
 9453 008f 3B       		.uleb128 0x3b
 9454 0090 0B       		.uleb128 0xb
 9455 0091 01       		.uleb128 0x1
 9456 0092 13       		.uleb128 0x13
 9457 0093 00       		.byte	0
 9458 0094 00       		.byte	0
 9459 0095 0E       		.uleb128 0xe
 9460 0096 0D       		.uleb128 0xd
 9461 0097 00       		.byte	0
 9462 0098 03       		.uleb128 0x3
 9463 0099 0E       		.uleb128 0xe
 9464 009a 3A       		.uleb128 0x3a
 9465 009b 0B       		.uleb128 0xb
 9466 009c 3B       		.uleb128 0x3b
 9467 009d 0B       		.uleb128 0xb
 9468 009e 49       		.uleb128 0x49
 9469 009f 13       		.uleb128 0x13
 9470 00a0 38       		.uleb128 0x38
 9471 00a1 0B       		.uleb128 0xb
 9472 00a2 00       		.byte	0
 9473 00a3 00       		.byte	0
 9474 00a4 0F       		.uleb128 0xf
 9475 00a5 04       		.uleb128 0x4
 9476 00a6 01       		.byte	0x1
 9477 00a7 0B       		.uleb128 0xb
 9478 00a8 0B       		.uleb128 0xb
 9479 00a9 49       		.uleb128 0x49
 9480 00aa 13       		.uleb128 0x13
 9481 00ab 3A       		.uleb128 0x3a
 9482 00ac 0B       		.uleb128 0xb
 9483 00ad 3B       		.uleb128 0x3b
 9484 00ae 0B       		.uleb128 0xb
 9485 00af 01       		.uleb128 0x1
 9486 00b0 13       		.uleb128 0x13
 9487 00b1 00       		.byte	0
 9488 00b2 00       		.byte	0
ARM GAS  C:\Users\VIDEOH~1\AppData\Local\Temp\ccM4oHTP.s 			page 192


 9489 00b3 10       		.uleb128 0x10
 9490 00b4 28       		.uleb128 0x28
 9491 00b5 00       		.byte	0
 9492 00b6 03       		.uleb128 0x3
 9493 00b7 0E       		.uleb128 0xe
 9494 00b8 1C       		.uleb128 0x1c
 9495 00b9 0B       		.uleb128 0xb
 9496 00ba 00       		.byte	0
 9497 00bb 00       		.byte	0
 9498 00bc 11       		.uleb128 0x11
 9499 00bd 0D       		.uleb128 0xd
 9500 00be 00       		.byte	0
 9501 00bf 03       		.uleb128 0x3
 9502 00c0 08       		.uleb128 0x8
 9503 00c1 3A       		.uleb128 0x3a
 9504 00c2 0B       		.uleb128 0xb
 9505 00c3 3B       		.uleb128 0x3b
 9506 00c4 0B       		.uleb128 0xb
 9507 00c5 49       		.uleb128 0x49
 9508 00c6 13       		.uleb128 0x13
 9509 00c7 38       		.uleb128 0x38
 9510 00c8 0B       		.uleb128 0xb
 9511 00c9 00       		.byte	0
 9512 00ca 00       		.byte	0
 9513 00cb 12       		.uleb128 0x12
 9514 00cc 17       		.uleb128 0x17
 9515 00cd 01       		.byte	0x1
 9516 00ce 0B       		.uleb128 0xb
 9517 00cf 0B       		.uleb128 0xb
 9518 00d0 3A       		.uleb128 0x3a
 9519 00d1 0B       		.uleb128 0xb
 9520 00d2 3B       		.uleb128 0x3b
 9521 00d3 0B       		.uleb128 0xb
 9522 00d4 01       		.uleb128 0x1
 9523 00d5 13       		.uleb128 0x13
 9524 00d6 00       		.byte	0
 9525 00d7 00       		.byte	0
 9526 00d8 13       		.uleb128 0x13
 9527 00d9 0D       		.uleb128 0xd
 9528 00da 00       		.byte	0
 9529 00db 03       		.uleb128 0x3
 9530 00dc 0E       		.uleb128 0xe
 9531 00dd 3A       		.uleb128 0x3a
 9532 00de 0B       		.uleb128 0xb
 9533 00df 3B       		.uleb128 0x3b
 9534 00e0 0B       		.uleb128 0xb
 9535 00e1 49       		.uleb128 0x49
 9536 00e2 13       		.uleb128 0x13
 9537 00e3 00       		.byte	0
 9538 00e4 00       		.byte	0
 9539 00e5 14       		.uleb128 0x14
 9540 00e6 26       		.uleb128 0x26
 9541 00e7 00       		.byte	0
 9542 00e8 00       		.byte	0
 9543 00e9 00       		.byte	0
 9544 00ea 15       		.uleb128 0x15
 9545 00eb 15       		.uleb128 0x15
ARM GAS  C:\Users\VIDEOH~1\AppData\Local\Temp\ccM4oHTP.s 			page 193


 9546 00ec 01       		.byte	0x1
 9547 00ed 27       		.uleb128 0x27
 9548 00ee 19       		.uleb128 0x19
 9549 00ef 01       		.uleb128 0x1
 9550 00f0 13       		.uleb128 0x13
 9551 00f1 00       		.byte	0
 9552 00f2 00       		.byte	0
 9553 00f3 16       		.uleb128 0x16
 9554 00f4 05       		.uleb128 0x5
 9555 00f5 00       		.byte	0
 9556 00f6 49       		.uleb128 0x49
 9557 00f7 13       		.uleb128 0x13
 9558 00f8 00       		.byte	0
 9559 00f9 00       		.byte	0
 9560 00fa 17       		.uleb128 0x17
 9561 00fb 13       		.uleb128 0x13
 9562 00fc 01       		.byte	0x1
 9563 00fd 03       		.uleb128 0x3
 9564 00fe 0E       		.uleb128 0xe
 9565 00ff 0B       		.uleb128 0xb
 9566 0100 0B       		.uleb128 0xb
 9567 0101 3A       		.uleb128 0x3a
 9568 0102 0B       		.uleb128 0xb
 9569 0103 3B       		.uleb128 0x3b
 9570 0104 0B       		.uleb128 0xb
 9571 0105 01       		.uleb128 0x1
 9572 0106 13       		.uleb128 0x13
 9573 0107 00       		.byte	0
 9574 0108 00       		.byte	0
 9575 0109 18       		.uleb128 0x18
 9576 010a 15       		.uleb128 0x15
 9577 010b 01       		.byte	0x1
 9578 010c 27       		.uleb128 0x27
 9579 010d 19       		.uleb128 0x19
 9580 010e 49       		.uleb128 0x49
 9581 010f 13       		.uleb128 0x13
 9582 0110 01       		.uleb128 0x1
 9583 0111 13       		.uleb128 0x13
 9584 0112 00       		.byte	0
 9585 0113 00       		.byte	0
 9586 0114 19       		.uleb128 0x19
 9587 0115 21       		.uleb128 0x21
 9588 0116 00       		.byte	0
 9589 0117 49       		.uleb128 0x49
 9590 0118 13       		.uleb128 0x13
 9591 0119 00       		.byte	0
 9592 011a 00       		.byte	0
 9593 011b 1A       		.uleb128 0x1a
 9594 011c 15       		.uleb128 0x15
 9595 011d 01       		.byte	0x1
 9596 011e 01       		.uleb128 0x1
 9597 011f 13       		.uleb128 0x13
 9598 0120 00       		.byte	0
 9599 0121 00       		.byte	0
 9600 0122 1B       		.uleb128 0x1b
 9601 0123 18       		.uleb128 0x18
 9602 0124 00       		.byte	0
ARM GAS  C:\Users\VIDEOH~1\AppData\Local\Temp\ccM4oHTP.s 			page 194


 9603 0125 00       		.byte	0
 9604 0126 00       		.byte	0
 9605 0127 1C       		.uleb128 0x1c
 9606 0128 2E       		.uleb128 0x2e
 9607 0129 01       		.byte	0x1
 9608 012a 03       		.uleb128 0x3
 9609 012b 0E       		.uleb128 0xe
 9610 012c 3A       		.uleb128 0x3a
 9611 012d 0B       		.uleb128 0xb
 9612 012e 3B       		.uleb128 0x3b
 9613 012f 05       		.uleb128 0x5
 9614 0130 27       		.uleb128 0x27
 9615 0131 19       		.uleb128 0x19
 9616 0132 49       		.uleb128 0x49
 9617 0133 13       		.uleb128 0x13
 9618 0134 11       		.uleb128 0x11
 9619 0135 01       		.uleb128 0x1
 9620 0136 12       		.uleb128 0x12
 9621 0137 06       		.uleb128 0x6
 9622 0138 40       		.uleb128 0x40
 9623 0139 18       		.uleb128 0x18
 9624 013a 9742     		.uleb128 0x2117
 9625 013c 19       		.uleb128 0x19
 9626 013d 01       		.uleb128 0x1
 9627 013e 13       		.uleb128 0x13
 9628 013f 00       		.byte	0
 9629 0140 00       		.byte	0
 9630 0141 1D       		.uleb128 0x1d
 9631 0142 05       		.uleb128 0x5
 9632 0143 00       		.byte	0
 9633 0144 03       		.uleb128 0x3
 9634 0145 08       		.uleb128 0x8
 9635 0146 3A       		.uleb128 0x3a
 9636 0147 0B       		.uleb128 0xb
 9637 0148 3B       		.uleb128 0x3b
 9638 0149 05       		.uleb128 0x5
 9639 014a 49       		.uleb128 0x49
 9640 014b 13       		.uleb128 0x13
 9641 014c 02       		.uleb128 0x2
 9642 014d 17       		.uleb128 0x17
 9643 014e 00       		.byte	0
 9644 014f 00       		.byte	0
 9645 0150 1E       		.uleb128 0x1e
 9646 0151 898201   		.uleb128 0x4109
 9647 0154 00       		.byte	0
 9648 0155 11       		.uleb128 0x11
 9649 0156 01       		.uleb128 0x1
 9650 0157 9342     		.uleb128 0x2113
 9651 0159 18       		.uleb128 0x18
 9652 015a 00       		.byte	0
 9653 015b 00       		.byte	0
 9654 015c 1F       		.uleb128 0x1f
 9655 015d 2E       		.uleb128 0x2e
 9656 015e 01       		.byte	0x1
 9657 015f 03       		.uleb128 0x3
 9658 0160 0E       		.uleb128 0xe
 9659 0161 3A       		.uleb128 0x3a
ARM GAS  C:\Users\VIDEOH~1\AppData\Local\Temp\ccM4oHTP.s 			page 195


 9660 0162 0B       		.uleb128 0xb
 9661 0163 3B       		.uleb128 0x3b
 9662 0164 05       		.uleb128 0x5
 9663 0165 27       		.uleb128 0x27
 9664 0166 19       		.uleb128 0x19
 9665 0167 11       		.uleb128 0x11
 9666 0168 01       		.uleb128 0x1
 9667 0169 12       		.uleb128 0x12
 9668 016a 06       		.uleb128 0x6
 9669 016b 40       		.uleb128 0x40
 9670 016c 18       		.uleb128 0x18
 9671 016d 9742     		.uleb128 0x2117
 9672 016f 19       		.uleb128 0x19
 9673 0170 01       		.uleb128 0x1
 9674 0171 13       		.uleb128 0x13
 9675 0172 00       		.byte	0
 9676 0173 00       		.byte	0
 9677 0174 20       		.uleb128 0x20
 9678 0175 05       		.uleb128 0x5
 9679 0176 00       		.byte	0
 9680 0177 03       		.uleb128 0x3
 9681 0178 0E       		.uleb128 0xe
 9682 0179 3A       		.uleb128 0x3a
 9683 017a 0B       		.uleb128 0xb
 9684 017b 3B       		.uleb128 0x3b
 9685 017c 05       		.uleb128 0x5
 9686 017d 49       		.uleb128 0x49
 9687 017e 13       		.uleb128 0x13
 9688 017f 02       		.uleb128 0x2
 9689 0180 17       		.uleb128 0x17
 9690 0181 00       		.byte	0
 9691 0182 00       		.byte	0
 9692 0183 21       		.uleb128 0x21
 9693 0184 0B       		.uleb128 0xb
 9694 0185 01       		.byte	0x1
 9695 0186 11       		.uleb128 0x11
 9696 0187 01       		.uleb128 0x1
 9697 0188 12       		.uleb128 0x12
 9698 0189 06       		.uleb128 0x6
 9699 018a 01       		.uleb128 0x1
 9700 018b 13       		.uleb128 0x13
 9701 018c 00       		.byte	0
 9702 018d 00       		.byte	0
 9703 018e 22       		.uleb128 0x22
 9704 018f 34       		.uleb128 0x34
 9705 0190 00       		.byte	0
 9706 0191 03       		.uleb128 0x3
 9707 0192 08       		.uleb128 0x8
 9708 0193 3A       		.uleb128 0x3a
 9709 0194 0B       		.uleb128 0xb
 9710 0195 3B       		.uleb128 0x3b
 9711 0196 05       		.uleb128 0x5
 9712 0197 49       		.uleb128 0x49
 9713 0198 13       		.uleb128 0x13
 9714 0199 02       		.uleb128 0x2
 9715 019a 17       		.uleb128 0x17
 9716 019b 00       		.byte	0
ARM GAS  C:\Users\VIDEOH~1\AppData\Local\Temp\ccM4oHTP.s 			page 196


 9717 019c 00       		.byte	0
 9718 019d 23       		.uleb128 0x23
 9719 019e 898201   		.uleb128 0x4109
 9720 01a1 01       		.byte	0x1
 9721 01a2 11       		.uleb128 0x11
 9722 01a3 01       		.uleb128 0x1
 9723 01a4 31       		.uleb128 0x31
 9724 01a5 13       		.uleb128 0x13
 9725 01a6 00       		.byte	0
 9726 01a7 00       		.byte	0
 9727 01a8 24       		.uleb128 0x24
 9728 01a9 8A8201   		.uleb128 0x410a
 9729 01ac 00       		.byte	0
 9730 01ad 02       		.uleb128 0x2
 9731 01ae 18       		.uleb128 0x18
 9732 01af 9142     		.uleb128 0x2111
 9733 01b1 18       		.uleb128 0x18
 9734 01b2 00       		.byte	0
 9735 01b3 00       		.byte	0
 9736 01b4 25       		.uleb128 0x25
 9737 01b5 2E       		.uleb128 0x2e
 9738 01b6 01       		.byte	0x1
 9739 01b7 03       		.uleb128 0x3
 9740 01b8 0E       		.uleb128 0xe
 9741 01b9 3A       		.uleb128 0x3a
 9742 01ba 0B       		.uleb128 0xb
 9743 01bb 3B       		.uleb128 0x3b
 9744 01bc 0B       		.uleb128 0xb
 9745 01bd 27       		.uleb128 0x27
 9746 01be 19       		.uleb128 0x19
 9747 01bf 11       		.uleb128 0x11
 9748 01c0 01       		.uleb128 0x1
 9749 01c1 12       		.uleb128 0x12
 9750 01c2 06       		.uleb128 0x6
 9751 01c3 40       		.uleb128 0x40
 9752 01c4 18       		.uleb128 0x18
 9753 01c5 9642     		.uleb128 0x2116
 9754 01c7 19       		.uleb128 0x19
 9755 01c8 01       		.uleb128 0x1
 9756 01c9 13       		.uleb128 0x13
 9757 01ca 00       		.byte	0
 9758 01cb 00       		.byte	0
 9759 01cc 26       		.uleb128 0x26
 9760 01cd 05       		.uleb128 0x5
 9761 01ce 00       		.byte	0
 9762 01cf 03       		.uleb128 0x3
 9763 01d0 08       		.uleb128 0x8
 9764 01d1 3A       		.uleb128 0x3a
 9765 01d2 0B       		.uleb128 0xb
 9766 01d3 3B       		.uleb128 0x3b
 9767 01d4 0B       		.uleb128 0xb
 9768 01d5 49       		.uleb128 0x49
 9769 01d6 13       		.uleb128 0x13
 9770 01d7 02       		.uleb128 0x2
 9771 01d8 17       		.uleb128 0x17
 9772 01d9 00       		.byte	0
 9773 01da 00       		.byte	0
ARM GAS  C:\Users\VIDEOH~1\AppData\Local\Temp\ccM4oHTP.s 			page 197


 9774 01db 27       		.uleb128 0x27
 9775 01dc 05       		.uleb128 0x5
 9776 01dd 00       		.byte	0
 9777 01de 03       		.uleb128 0x3
 9778 01df 0E       		.uleb128 0xe
 9779 01e0 3A       		.uleb128 0x3a
 9780 01e1 0B       		.uleb128 0xb
 9781 01e2 3B       		.uleb128 0x3b
 9782 01e3 0B       		.uleb128 0xb
 9783 01e4 49       		.uleb128 0x49
 9784 01e5 13       		.uleb128 0x13
 9785 01e6 02       		.uleb128 0x2
 9786 01e7 17       		.uleb128 0x17
 9787 01e8 00       		.byte	0
 9788 01e9 00       		.byte	0
 9789 01ea 28       		.uleb128 0x28
 9790 01eb 34       		.uleb128 0x34
 9791 01ec 00       		.byte	0
 9792 01ed 03       		.uleb128 0x3
 9793 01ee 0E       		.uleb128 0xe
 9794 01ef 3A       		.uleb128 0x3a
 9795 01f0 0B       		.uleb128 0xb
 9796 01f1 3B       		.uleb128 0x3b
 9797 01f2 0B       		.uleb128 0xb
 9798 01f3 49       		.uleb128 0x49
 9799 01f4 13       		.uleb128 0x13
 9800 01f5 02       		.uleb128 0x2
 9801 01f6 17       		.uleb128 0x17
 9802 01f7 00       		.byte	0
 9803 01f8 00       		.byte	0
 9804 01f9 29       		.uleb128 0x29
 9805 01fa 2E       		.uleb128 0x2e
 9806 01fb 01       		.byte	0x1
 9807 01fc 3F       		.uleb128 0x3f
 9808 01fd 19       		.uleb128 0x19
 9809 01fe 03       		.uleb128 0x3
 9810 01ff 0E       		.uleb128 0xe
 9811 0200 3A       		.uleb128 0x3a
 9812 0201 0B       		.uleb128 0xb
 9813 0202 3B       		.uleb128 0x3b
 9814 0203 05       		.uleb128 0x5
 9815 0204 27       		.uleb128 0x27
 9816 0205 19       		.uleb128 0x19
 9817 0206 11       		.uleb128 0x11
 9818 0207 01       		.uleb128 0x1
 9819 0208 12       		.uleb128 0x12
 9820 0209 06       		.uleb128 0x6
 9821 020a 40       		.uleb128 0x40
 9822 020b 18       		.uleb128 0x18
 9823 020c 9742     		.uleb128 0x2117
 9824 020e 19       		.uleb128 0x19
 9825 020f 01       		.uleb128 0x1
 9826 0210 13       		.uleb128 0x13
 9827 0211 00       		.byte	0
 9828 0212 00       		.byte	0
 9829 0213 2A       		.uleb128 0x2a
 9830 0214 898201   		.uleb128 0x4109
ARM GAS  C:\Users\VIDEOH~1\AppData\Local\Temp\ccM4oHTP.s 			page 198


 9831 0217 01       		.byte	0x1
 9832 0218 11       		.uleb128 0x11
 9833 0219 01       		.uleb128 0x1
 9834 021a 31       		.uleb128 0x31
 9835 021b 13       		.uleb128 0x13
 9836 021c 01       		.uleb128 0x1
 9837 021d 13       		.uleb128 0x13
 9838 021e 00       		.byte	0
 9839 021f 00       		.byte	0
 9840 0220 2B       		.uleb128 0x2b
 9841 0221 898201   		.uleb128 0x4109
 9842 0224 00       		.byte	0
 9843 0225 11       		.uleb128 0x11
 9844 0226 01       		.uleb128 0x1
 9845 0227 31       		.uleb128 0x31
 9846 0228 13       		.uleb128 0x13
 9847 0229 00       		.byte	0
 9848 022a 00       		.byte	0
 9849 022b 2C       		.uleb128 0x2c
 9850 022c 2E       		.uleb128 0x2e
 9851 022d 01       		.byte	0x1
 9852 022e 03       		.uleb128 0x3
 9853 022f 0E       		.uleb128 0xe
 9854 0230 3A       		.uleb128 0x3a
 9855 0231 0B       		.uleb128 0xb
 9856 0232 3B       		.uleb128 0x3b
 9857 0233 0B       		.uleb128 0xb
 9858 0234 27       		.uleb128 0x27
 9859 0235 19       		.uleb128 0x19
 9860 0236 11       		.uleb128 0x11
 9861 0237 01       		.uleb128 0x1
 9862 0238 12       		.uleb128 0x12
 9863 0239 06       		.uleb128 0x6
 9864 023a 40       		.uleb128 0x40
 9865 023b 18       		.uleb128 0x18
 9866 023c 9742     		.uleb128 0x2117
 9867 023e 19       		.uleb128 0x19
 9868 023f 01       		.uleb128 0x1
 9869 0240 13       		.uleb128 0x13
 9870 0241 00       		.byte	0
 9871 0242 00       		.byte	0
 9872 0243 2D       		.uleb128 0x2d
 9873 0244 34       		.uleb128 0x34
 9874 0245 00       		.byte	0
 9875 0246 03       		.uleb128 0x3
 9876 0247 0E       		.uleb128 0xe
 9877 0248 3A       		.uleb128 0x3a
 9878 0249 0B       		.uleb128 0xb
 9879 024a 3B       		.uleb128 0x3b
 9880 024b 0B       		.uleb128 0xb
 9881 024c 49       		.uleb128 0x49
 9882 024d 13       		.uleb128 0x13
 9883 024e 02       		.uleb128 0x2
 9884 024f 18       		.uleb128 0x18
 9885 0250 00       		.byte	0
 9886 0251 00       		.byte	0
 9887 0252 2E       		.uleb128 0x2e
ARM GAS  C:\Users\VIDEOH~1\AppData\Local\Temp\ccM4oHTP.s 			page 199


 9888 0253 34       		.uleb128 0x34
 9889 0254 00       		.byte	0
 9890 0255 03       		.uleb128 0x3
 9891 0256 08       		.uleb128 0x8
 9892 0257 3A       		.uleb128 0x3a
 9893 0258 0B       		.uleb128 0xb
 9894 0259 3B       		.uleb128 0x3b
 9895 025a 0B       		.uleb128 0xb
 9896 025b 49       		.uleb128 0x49
 9897 025c 13       		.uleb128 0x13
 9898 025d 02       		.uleb128 0x2
 9899 025e 17       		.uleb128 0x17
 9900 025f 00       		.byte	0
 9901 0260 00       		.byte	0
 9902 0261 2F       		.uleb128 0x2f
 9903 0262 2E       		.uleb128 0x2e
 9904 0263 01       		.byte	0x1
 9905 0264 03       		.uleb128 0x3
 9906 0265 0E       		.uleb128 0xe
 9907 0266 3A       		.uleb128 0x3a
 9908 0267 0B       		.uleb128 0xb
 9909 0268 3B       		.uleb128 0x3b
 9910 0269 05       		.uleb128 0x5
 9911 026a 11       		.uleb128 0x11
 9912 026b 01       		.uleb128 0x1
 9913 026c 12       		.uleb128 0x12
 9914 026d 06       		.uleb128 0x6
 9915 026e 40       		.uleb128 0x40
 9916 026f 18       		.uleb128 0x18
 9917 0270 9642     		.uleb128 0x2116
 9918 0272 19       		.uleb128 0x19
 9919 0273 01       		.uleb128 0x1
 9920 0274 13       		.uleb128 0x13
 9921 0275 00       		.byte	0
 9922 0276 00       		.byte	0
 9923 0277 30       		.uleb128 0x30
 9924 0278 34       		.uleb128 0x34
 9925 0279 00       		.byte	0
 9926 027a 03       		.uleb128 0x3
 9927 027b 0E       		.uleb128 0xe
 9928 027c 3A       		.uleb128 0x3a
 9929 027d 0B       		.uleb128 0xb
 9930 027e 3B       		.uleb128 0x3b
 9931 027f 05       		.uleb128 0x5
 9932 0280 49       		.uleb128 0x49
 9933 0281 13       		.uleb128 0x13
 9934 0282 02       		.uleb128 0x2
 9935 0283 17       		.uleb128 0x17
 9936 0284 00       		.byte	0
 9937 0285 00       		.byte	0
 9938 0286 31       		.uleb128 0x31
 9939 0287 34       		.uleb128 0x34
 9940 0288 00       		.byte	0
 9941 0289 03       		.uleb128 0x3
 9942 028a 08       		.uleb128 0x8
 9943 028b 3A       		.uleb128 0x3a
 9944 028c 0B       		.uleb128 0xb
ARM GAS  C:\Users\VIDEOH~1\AppData\Local\Temp\ccM4oHTP.s 			page 200


 9945 028d 3B       		.uleb128 0x3b
 9946 028e 05       		.uleb128 0x5
 9947 028f 49       		.uleb128 0x49
 9948 0290 13       		.uleb128 0x13
 9949 0291 02       		.uleb128 0x2
 9950 0292 18       		.uleb128 0x18
 9951 0293 00       		.byte	0
 9952 0294 00       		.byte	0
 9953 0295 32       		.uleb128 0x32
 9954 0296 34       		.uleb128 0x34
 9955 0297 00       		.byte	0
 9956 0298 03       		.uleb128 0x3
 9957 0299 0E       		.uleb128 0xe
 9958 029a 3A       		.uleb128 0x3a
 9959 029b 0B       		.uleb128 0xb
 9960 029c 3B       		.uleb128 0x3b
 9961 029d 05       		.uleb128 0x5
 9962 029e 49       		.uleb128 0x49
 9963 029f 13       		.uleb128 0x13
 9964 02a0 02       		.uleb128 0x2
 9965 02a1 18       		.uleb128 0x18
 9966 02a2 00       		.byte	0
 9967 02a3 00       		.byte	0
 9968 02a4 33       		.uleb128 0x33
 9969 02a5 2E       		.uleb128 0x2e
 9970 02a6 01       		.byte	0x1
 9971 02a7 3F       		.uleb128 0x3f
 9972 02a8 19       		.uleb128 0x19
 9973 02a9 03       		.uleb128 0x3
 9974 02aa 0E       		.uleb128 0xe
 9975 02ab 3A       		.uleb128 0x3a
 9976 02ac 0B       		.uleb128 0xb
 9977 02ad 3B       		.uleb128 0x3b
 9978 02ae 05       		.uleb128 0x5
 9979 02af 27       		.uleb128 0x27
 9980 02b0 19       		.uleb128 0x19
 9981 02b1 11       		.uleb128 0x11
 9982 02b2 01       		.uleb128 0x1
 9983 02b3 12       		.uleb128 0x12
 9984 02b4 06       		.uleb128 0x6
 9985 02b5 40       		.uleb128 0x40
 9986 02b6 18       		.uleb128 0x18
 9987 02b7 9642     		.uleb128 0x2116
 9988 02b9 19       		.uleb128 0x19
 9989 02ba 01       		.uleb128 0x1
 9990 02bb 13       		.uleb128 0x13
 9991 02bc 00       		.byte	0
 9992 02bd 00       		.byte	0
 9993 02be 34       		.uleb128 0x34
 9994 02bf 2E       		.uleb128 0x2e
 9995 02c0 01       		.byte	0x1
 9996 02c1 03       		.uleb128 0x3
 9997 02c2 0E       		.uleb128 0xe
 9998 02c3 3A       		.uleb128 0x3a
 9999 02c4 0B       		.uleb128 0xb
 10000 02c5 3B       		.uleb128 0x3b
 10001 02c6 05       		.uleb128 0x5
ARM GAS  C:\Users\VIDEOH~1\AppData\Local\Temp\ccM4oHTP.s 			page 201


 10002 02c7 27       		.uleb128 0x27
 10003 02c8 19       		.uleb128 0x19
 10004 02c9 11       		.uleb128 0x11
 10005 02ca 01       		.uleb128 0x1
 10006 02cb 12       		.uleb128 0x12
 10007 02cc 06       		.uleb128 0x6
 10008 02cd 40       		.uleb128 0x40
 10009 02ce 18       		.uleb128 0x18
 10010 02cf 9642     		.uleb128 0x2116
 10011 02d1 19       		.uleb128 0x19
 10012 02d2 01       		.uleb128 0x1
 10013 02d3 13       		.uleb128 0x13
 10014 02d4 00       		.byte	0
 10015 02d5 00       		.byte	0
 10016 02d6 35       		.uleb128 0x35
 10017 02d7 0B       		.uleb128 0xb
 10018 02d8 01       		.byte	0x1
 10019 02d9 55       		.uleb128 0x55
 10020 02da 17       		.uleb128 0x17
 10021 02db 01       		.uleb128 0x1
 10022 02dc 13       		.uleb128 0x13
 10023 02dd 00       		.byte	0
 10024 02de 00       		.byte	0
 10025 02df 36       		.uleb128 0x36
 10026 02e0 2E       		.uleb128 0x2e
 10027 02e1 01       		.byte	0x1
 10028 02e2 03       		.uleb128 0x3
 10029 02e3 0E       		.uleb128 0xe
 10030 02e4 3A       		.uleb128 0x3a
 10031 02e5 0B       		.uleb128 0xb
 10032 02e6 3B       		.uleb128 0x3b
 10033 02e7 05       		.uleb128 0x5
 10034 02e8 27       		.uleb128 0x27
 10035 02e9 19       		.uleb128 0x19
 10036 02ea 49       		.uleb128 0x49
 10037 02eb 13       		.uleb128 0x13
 10038 02ec 11       		.uleb128 0x11
 10039 02ed 01       		.uleb128 0x1
 10040 02ee 12       		.uleb128 0x12
 10041 02ef 06       		.uleb128 0x6
 10042 02f0 40       		.uleb128 0x40
 10043 02f1 18       		.uleb128 0x18
 10044 02f2 9642     		.uleb128 0x2116
 10045 02f4 19       		.uleb128 0x19
 10046 02f5 01       		.uleb128 0x1
 10047 02f6 13       		.uleb128 0x13
 10048 02f7 00       		.byte	0
 10049 02f8 00       		.byte	0
 10050 02f9 37       		.uleb128 0x37
 10051 02fa 898201   		.uleb128 0x4109
 10052 02fd 01       		.byte	0x1
 10053 02fe 11       		.uleb128 0x11
 10054 02ff 01       		.uleb128 0x1
 10055 0300 01       		.uleb128 0x1
 10056 0301 13       		.uleb128 0x13
 10057 0302 00       		.byte	0
 10058 0303 00       		.byte	0
ARM GAS  C:\Users\VIDEOH~1\AppData\Local\Temp\ccM4oHTP.s 			page 202


 10059 0304 38       		.uleb128 0x38
 10060 0305 898201   		.uleb128 0x4109
 10061 0308 01       		.byte	0x1
 10062 0309 11       		.uleb128 0x11
 10063 030a 01       		.uleb128 0x1
 10064 030b 9342     		.uleb128 0x2113
 10065 030d 18       		.uleb128 0x18
 10066 030e 01       		.uleb128 0x1
 10067 030f 13       		.uleb128 0x13
 10068 0310 00       		.byte	0
 10069 0311 00       		.byte	0
 10070 0312 39       		.uleb128 0x39
 10071 0313 2E       		.uleb128 0x2e
 10072 0314 01       		.byte	0x1
 10073 0315 3F       		.uleb128 0x3f
 10074 0316 19       		.uleb128 0x19
 10075 0317 03       		.uleb128 0x3
 10076 0318 0E       		.uleb128 0xe
 10077 0319 3A       		.uleb128 0x3a
 10078 031a 0B       		.uleb128 0xb
 10079 031b 3B       		.uleb128 0x3b
 10080 031c 0B       		.uleb128 0xb
 10081 031d 27       		.uleb128 0x27
 10082 031e 19       		.uleb128 0x19
 10083 031f 11       		.uleb128 0x11
 10084 0320 01       		.uleb128 0x1
 10085 0321 12       		.uleb128 0x12
 10086 0322 06       		.uleb128 0x6
 10087 0323 40       		.uleb128 0x40
 10088 0324 18       		.uleb128 0x18
 10089 0325 9742     		.uleb128 0x2117
 10090 0327 19       		.uleb128 0x19
 10091 0328 01       		.uleb128 0x1
 10092 0329 13       		.uleb128 0x13
 10093 032a 00       		.byte	0
 10094 032b 00       		.byte	0
 10095 032c 3A       		.uleb128 0x3a
 10096 032d 2E       		.uleb128 0x2e
 10097 032e 01       		.byte	0x1
 10098 032f 3F       		.uleb128 0x3f
 10099 0330 19       		.uleb128 0x19
 10100 0331 03       		.uleb128 0x3
 10101 0332 0E       		.uleb128 0xe
 10102 0333 3A       		.uleb128 0x3a
 10103 0334 0B       		.uleb128 0xb
 10104 0335 3B       		.uleb128 0x3b
 10105 0336 05       		.uleb128 0x5
 10106 0337 27       		.uleb128 0x27
 10107 0338 19       		.uleb128 0x19
 10108 0339 8701     		.uleb128 0x87
 10109 033b 19       		.uleb128 0x19
 10110 033c 11       		.uleb128 0x11
 10111 033d 01       		.uleb128 0x1
 10112 033e 12       		.uleb128 0x12
 10113 033f 06       		.uleb128 0x6
 10114 0340 40       		.uleb128 0x40
 10115 0341 18       		.uleb128 0x18
ARM GAS  C:\Users\VIDEOH~1\AppData\Local\Temp\ccM4oHTP.s 			page 203


 10116 0342 9742     		.uleb128 0x2117
 10117 0344 19       		.uleb128 0x19
 10118 0345 01       		.uleb128 0x1
 10119 0346 13       		.uleb128 0x13
 10120 0347 00       		.byte	0
 10121 0348 00       		.byte	0
 10122 0349 3B       		.uleb128 0x3b
 10123 034a 898201   		.uleb128 0x4109
 10124 034d 01       		.byte	0x1
 10125 034e 11       		.uleb128 0x11
 10126 034f 01       		.uleb128 0x1
 10127 0350 9342     		.uleb128 0x2113
 10128 0352 18       		.uleb128 0x18
 10129 0353 00       		.byte	0
 10130 0354 00       		.byte	0
 10131 0355 3C       		.uleb128 0x3c
 10132 0356 34       		.uleb128 0x34
 10133 0357 00       		.byte	0
 10134 0358 03       		.uleb128 0x3
 10135 0359 0E       		.uleb128 0xe
 10136 035a 3A       		.uleb128 0x3a
 10137 035b 0B       		.uleb128 0xb
 10138 035c 3B       		.uleb128 0x3b
 10139 035d 0B       		.uleb128 0xb
 10140 035e 49       		.uleb128 0x49
 10141 035f 13       		.uleb128 0x13
 10142 0360 3F       		.uleb128 0x3f
 10143 0361 19       		.uleb128 0x19
 10144 0362 3C       		.uleb128 0x3c
 10145 0363 19       		.uleb128 0x19
 10146 0364 00       		.byte	0
 10147 0365 00       		.byte	0
 10148 0366 3D       		.uleb128 0x3d
 10149 0367 34       		.uleb128 0x34
 10150 0368 00       		.byte	0
 10151 0369 03       		.uleb128 0x3
 10152 036a 0E       		.uleb128 0xe
 10153 036b 3A       		.uleb128 0x3a
 10154 036c 0B       		.uleb128 0xb
 10155 036d 3B       		.uleb128 0x3b
 10156 036e 0B       		.uleb128 0xb
 10157 036f 49       		.uleb128 0x49
 10158 0370 13       		.uleb128 0x13
 10159 0371 3F       		.uleb128 0x3f
 10160 0372 19       		.uleb128 0x19
 10161 0373 02       		.uleb128 0x2
 10162 0374 18       		.uleb128 0x18
 10163 0375 00       		.byte	0
 10164 0376 00       		.byte	0
 10165 0377 3E       		.uleb128 0x3e
 10166 0378 35       		.uleb128 0x35
 10167 0379 00       		.byte	0
 10168 037a 49       		.uleb128 0x49
 10169 037b 13       		.uleb128 0x13
 10170 037c 00       		.byte	0
 10171 037d 00       		.byte	0
 10172 037e 3F       		.uleb128 0x3f
ARM GAS  C:\Users\VIDEOH~1\AppData\Local\Temp\ccM4oHTP.s 			page 204


 10173 037f 34       		.uleb128 0x34
 10174 0380 00       		.byte	0
 10175 0381 03       		.uleb128 0x3
 10176 0382 0E       		.uleb128 0xe
 10177 0383 3A       		.uleb128 0x3a
 10178 0384 0B       		.uleb128 0xb
 10179 0385 3B       		.uleb128 0x3b
 10180 0386 05       		.uleb128 0x5
 10181 0387 49       		.uleb128 0x49
 10182 0388 13       		.uleb128 0x13
 10183 0389 3F       		.uleb128 0x3f
 10184 038a 19       		.uleb128 0x19
 10185 038b 02       		.uleb128 0x2
 10186 038c 18       		.uleb128 0x18
 10187 038d 00       		.byte	0
 10188 038e 00       		.byte	0
 10189 038f 40       		.uleb128 0x40
 10190 0390 2E       		.uleb128 0x2e
 10191 0391 00       		.byte	0
 10192 0392 3F       		.uleb128 0x3f
 10193 0393 19       		.uleb128 0x19
 10194 0394 3C       		.uleb128 0x3c
 10195 0395 19       		.uleb128 0x19
 10196 0396 6E       		.uleb128 0x6e
 10197 0397 0E       		.uleb128 0xe
 10198 0398 03       		.uleb128 0x3
 10199 0399 0E       		.uleb128 0xe
 10200 039a 3A       		.uleb128 0x3a
 10201 039b 0B       		.uleb128 0xb
 10202 039c 3B       		.uleb128 0x3b
 10203 039d 0B       		.uleb128 0xb
 10204 039e 00       		.byte	0
 10205 039f 00       		.byte	0
 10206 03a0 41       		.uleb128 0x41
 10207 03a1 2E       		.uleb128 0x2e
 10208 03a2 00       		.byte	0
 10209 03a3 3F       		.uleb128 0x3f
 10210 03a4 19       		.uleb128 0x19
 10211 03a5 3C       		.uleb128 0x3c
 10212 03a6 19       		.uleb128 0x19
 10213 03a7 6E       		.uleb128 0x6e
 10214 03a8 0E       		.uleb128 0xe
 10215 03a9 03       		.uleb128 0x3
 10216 03aa 0E       		.uleb128 0xe
 10217 03ab 00       		.byte	0
 10218 03ac 00       		.byte	0
 10219 03ad 42       		.uleb128 0x42
 10220 03ae 2E       		.uleb128 0x2e
 10221 03af 00       		.byte	0
 10222 03b0 3F       		.uleb128 0x3f
 10223 03b1 19       		.uleb128 0x19
 10224 03b2 3C       		.uleb128 0x3c
 10225 03b3 19       		.uleb128 0x19
 10226 03b4 6E       		.uleb128 0x6e
 10227 03b5 0E       		.uleb128 0xe
 10228 03b6 03       		.uleb128 0x3
 10229 03b7 0E       		.uleb128 0xe
ARM GAS  C:\Users\VIDEOH~1\AppData\Local\Temp\ccM4oHTP.s 			page 205


 10230 03b8 3A       		.uleb128 0x3a
 10231 03b9 0B       		.uleb128 0xb
 10232 03ba 3B       		.uleb128 0x3b
 10233 03bb 0B       		.uleb128 0xb
 10234 03bc 6E       		.uleb128 0x6e
 10235 03bd 0E       		.uleb128 0xe
 10236 03be 00       		.byte	0
 10237 03bf 00       		.byte	0
 10238 03c0 43       		.uleb128 0x43
 10239 03c1 2E       		.uleb128 0x2e
 10240 03c2 00       		.byte	0
 10241 03c3 3F       		.uleb128 0x3f
 10242 03c4 19       		.uleb128 0x19
 10243 03c5 3C       		.uleb128 0x3c
 10244 03c6 19       		.uleb128 0x19
 10245 03c7 6E       		.uleb128 0x6e
 10246 03c8 0E       		.uleb128 0xe
 10247 03c9 03       		.uleb128 0x3
 10248 03ca 0E       		.uleb128 0xe
 10249 03cb 3A       		.uleb128 0x3a
 10250 03cc 0B       		.uleb128 0xb
 10251 03cd 3B       		.uleb128 0x3b
 10252 03ce 05       		.uleb128 0x5
 10253 03cf 00       		.byte	0
 10254 03d0 00       		.byte	0
 10255 03d1 00       		.byte	0
 10256              		.section	.debug_loc,"",%progbits
 10257              	.Ldebug_loc0:
 10258              	.LLST0:
 10259 0000 00000000 		.4byte	.LVL0
 10260 0004 05000000 		.4byte	.LVL1-1
 10261 0008 0100     		.2byte	0x1
 10262 000a 51       		.byte	0x51
 10263 000b 05000000 		.4byte	.LVL1-1
 10264 000f 12000000 		.4byte	.LFE52
 10265 0013 0400     		.2byte	0x4
 10266 0015 F3       		.byte	0xf3
 10267 0016 01       		.uleb128 0x1
 10268 0017 51       		.byte	0x51
 10269 0018 9F       		.byte	0x9f
 10270 0019 00000000 		.4byte	0
 10271 001d 00000000 		.4byte	0
 10272              	.LLST1:
 10273 0021 00000000 		.4byte	.LVL3
 10274 0025 06000000 		.4byte	.LVL4
 10275 0029 0100     		.2byte	0x1
 10276 002b 50       		.byte	0x50
 10277 002c 06000000 		.4byte	.LVL4
 10278 0030 20000000 		.4byte	.LFE50
 10279 0034 0400     		.2byte	0x4
 10280 0036 F3       		.byte	0xf3
 10281 0037 01       		.uleb128 0x1
 10282 0038 50       		.byte	0x50
 10283 0039 9F       		.byte	0x9f
 10284 003a 00000000 		.4byte	0
 10285 003e 00000000 		.4byte	0
 10286              	.LLST2:
ARM GAS  C:\Users\VIDEOH~1\AppData\Local\Temp\ccM4oHTP.s 			page 206


 10287 0042 0A000000 		.4byte	.LVL5
 10288 0046 0E000000 		.4byte	.LVL6
 10289 004a 0200     		.2byte	0x2
 10290 004c 30       		.byte	0x30
 10291 004d 9F       		.byte	0x9f
 10292 004e 0E000000 		.4byte	.LVL6
 10293 0052 18000000 		.4byte	.LVL8
 10294 0056 0100     		.2byte	0x1
 10295 0058 54       		.byte	0x54
 10296 0059 1A000000 		.4byte	.LVL9
 10297 005d 1E000000 		.4byte	.LVL10
 10298 0061 0100     		.2byte	0x1
 10299 0063 54       		.byte	0x54
 10300 0064 00000000 		.4byte	0
 10301 0068 00000000 		.4byte	0
 10302              	.LLST3:
 10303 006c 00000000 		.4byte	.LVL11
 10304 0070 10000000 		.4byte	.LVL12
 10305 0074 0100     		.2byte	0x1
 10306 0076 50       		.byte	0x50
 10307 0077 10000000 		.4byte	.LVL12
 10308 007b 1C000000 		.4byte	.LVL15
 10309 007f 0100     		.2byte	0x1
 10310 0081 54       		.byte	0x54
 10311 0082 1C000000 		.4byte	.LVL15
 10312 0086 20000000 		.4byte	.LVL16
 10313 008a 0100     		.2byte	0x1
 10314 008c 50       		.byte	0x50
 10315 008d 20000000 		.4byte	.LVL16
 10316 0091 40000000 		.4byte	.LVL26
 10317 0095 0100     		.2byte	0x1
 10318 0097 56       		.byte	0x56
 10319 0098 00000000 		.4byte	0
 10320 009c 00000000 		.4byte	0
 10321              	.LLST4:
 10322 00a0 00000000 		.4byte	.LVL11
 10323 00a4 12000000 		.4byte	.LVL13
 10324 00a8 0100     		.2byte	0x1
 10325 00aa 51       		.byte	0x51
 10326 00ab 12000000 		.4byte	.LVL13
 10327 00af 40000000 		.4byte	.LVL27
 10328 00b3 0100     		.2byte	0x1
 10329 00b5 57       		.byte	0x57
 10330 00b6 40000000 		.4byte	.LVL27
 10331 00ba 4C000000 		.4byte	.LFE36
 10332 00be 0400     		.2byte	0x4
 10333 00c0 F3       		.byte	0xf3
 10334 00c1 01       		.uleb128 0x1
 10335 00c2 51       		.byte	0x51
 10336 00c3 9F       		.byte	0x9f
 10337 00c4 00000000 		.4byte	0
 10338 00c8 00000000 		.4byte	0
 10339              	.LLST5:
 10340 00cc 00000000 		.4byte	.LVL11
 10341 00d0 19000000 		.4byte	.LVL14-1
 10342 00d4 0100     		.2byte	0x1
 10343 00d6 52       		.byte	0x52
ARM GAS  C:\Users\VIDEOH~1\AppData\Local\Temp\ccM4oHTP.s 			page 207


 10344 00d7 19000000 		.4byte	.LVL14-1
 10345 00db 40000000 		.4byte	.LVL25
 10346 00df 0100     		.2byte	0x1
 10347 00e1 55       		.byte	0x55
 10348 00e2 40000000 		.4byte	.LVL25
 10349 00e6 4C000000 		.4byte	.LFE36
 10350 00ea 0400     		.2byte	0x4
 10351 00ec F3       		.byte	0xf3
 10352 00ed 01       		.uleb128 0x1
 10353 00ee 52       		.byte	0x52
 10354 00ef 9F       		.byte	0x9f
 10355 00f0 00000000 		.4byte	0
 10356 00f4 00000000 		.4byte	0
 10357              	.LLST6:
 10358 00f8 26000000 		.4byte	.LVL18
 10359 00fc 2C000000 		.4byte	.LVL19
 10360 0100 0100     		.2byte	0x1
 10361 0102 50       		.byte	0x50
 10362 0103 2C000000 		.4byte	.LVL19
 10363 0107 40000000 		.4byte	.LVL24
 10364 010b 0100     		.2byte	0x1
 10365 010d 54       		.byte	0x54
 10366 010e 00000000 		.4byte	0
 10367 0112 00000000 		.4byte	0
 10368              	.LLST7:
 10369 0116 32000000 		.4byte	.LVL21
 10370 011a 38000000 		.4byte	.LVL22
 10371 011e 0100     		.2byte	0x1
 10372 0120 51       		.byte	0x51
 10373 0121 38000000 		.4byte	.LVL22
 10374 0125 3D000000 		.4byte	.LVL23-1
 10375 0129 0100     		.2byte	0x1
 10376 012b 53       		.byte	0x53
 10377 012c 00000000 		.4byte	0
 10378 0130 00000000 		.4byte	0
 10379              	.LLST8:
 10380 0134 00000000 		.4byte	.LVL28
 10381 0138 09000000 		.4byte	.LVL29-1
 10382 013c 0100     		.2byte	0x1
 10383 013e 50       		.byte	0x50
 10384 013f 09000000 		.4byte	.LVL29-1
 10385 0143 10000000 		.4byte	.LFE40
 10386 0147 0400     		.2byte	0x4
 10387 0149 F3       		.byte	0xf3
 10388 014a 01       		.uleb128 0x1
 10389 014b 50       		.byte	0x50
 10390 014c 9F       		.byte	0x9f
 10391 014d 00000000 		.4byte	0
 10392 0151 00000000 		.4byte	0
 10393              	.LLST9:
 10394 0155 00000000 		.4byte	.LVL30
 10395 0159 14000000 		.4byte	.LVL31
 10396 015d 0100     		.2byte	0x1
 10397 015f 50       		.byte	0x50
 10398 0160 14000000 		.4byte	.LVL31
 10399 0164 20000000 		.4byte	.LVL33
 10400 0168 0100     		.2byte	0x1
ARM GAS  C:\Users\VIDEOH~1\AppData\Local\Temp\ccM4oHTP.s 			page 208


 10401 016a 54       		.byte	0x54
 10402 016b 20000000 		.4byte	.LVL33
 10403 016f 22000000 		.4byte	.LVL34
 10404 0173 0100     		.2byte	0x1
 10405 0175 50       		.byte	0x50
 10406 0176 22000000 		.4byte	.LVL34
 10407 017a B2000000 		.4byte	.LVL54
 10408 017e 0100     		.2byte	0x1
 10409 0180 54       		.byte	0x54
 10410 0181 00000000 		.4byte	0
 10411 0185 00000000 		.4byte	0
 10412              	.LLST10:
 10413 0189 00000000 		.4byte	.LVL30
 10414 018d 14000000 		.4byte	.LVL31
 10415 0191 0100     		.2byte	0x1
 10416 0193 51       		.byte	0x51
 10417 0194 14000000 		.4byte	.LVL31
 10418 0198 CC000000 		.4byte	.LFE35
 10419 019c 0200     		.2byte	0x2
 10420 019e 91       		.byte	0x91
 10421 019f 64       		.sleb128 -28
 10422 01a0 00000000 		.4byte	0
 10423 01a4 00000000 		.4byte	0
 10424              	.LLST11:
 10425 01a8 00000000 		.4byte	.LVL30
 10426 01ac 14000000 		.4byte	.LVL31
 10427 01b0 0100     		.2byte	0x1
 10428 01b2 52       		.byte	0x52
 10429 01b3 14000000 		.4byte	.LVL31
 10430 01b7 B2000000 		.4byte	.LVL56
 10431 01bb 0100     		.2byte	0x1
 10432 01bd 56       		.byte	0x56
 10433 01be B2000000 		.4byte	.LVL56
 10434 01c2 CC000000 		.4byte	.LFE35
 10435 01c6 0400     		.2byte	0x4
 10436 01c8 F3       		.byte	0xf3
 10437 01c9 01       		.uleb128 0x1
 10438 01ca 52       		.byte	0x52
 10439 01cb 9F       		.byte	0x9f
 10440 01cc 00000000 		.4byte	0
 10441 01d0 00000000 		.4byte	0
 10442              	.LLST12:
 10443 01d4 14000000 		.4byte	.LVL31
 10444 01d8 B2000000 		.4byte	.LVL55
 10445 01dc 0100     		.2byte	0x1
 10446 01de 55       		.byte	0x55
 10447 01df 00000000 		.4byte	0
 10448 01e3 00000000 		.4byte	0
 10449              	.LLST13:
 10450 01e7 34000000 		.4byte	.LVL36
 10451 01eb 3A000000 		.4byte	.LVL37
 10452 01ef 0100     		.2byte	0x1
 10453 01f1 50       		.byte	0x50
 10454 01f2 3A000000 		.4byte	.LVL37
 10455 01f6 B2000000 		.4byte	.LVL57
 10456 01fa 0100     		.2byte	0x1
 10457 01fc 57       		.byte	0x57
ARM GAS  C:\Users\VIDEOH~1\AppData\Local\Temp\ccM4oHTP.s 			page 209


 10458 01fd 00000000 		.4byte	0
 10459 0201 00000000 		.4byte	0
 10460              	.LLST14:
 10461 0205 40000000 		.4byte	.LVL39
 10462 0209 49000000 		.4byte	.LVL40-1
 10463 020d 0100     		.2byte	0x1
 10464 020f 50       		.byte	0x50
 10465 0210 58000000 		.4byte	.LVL42
 10466 0214 61000000 		.4byte	.LVL43-1
 10467 0218 0100     		.2byte	0x1
 10468 021a 50       		.byte	0x50
 10469 021b 70000000 		.4byte	.LVL45
 10470 021f 76000000 		.4byte	.LVL46
 10471 0223 0100     		.2byte	0x1
 10472 0225 50       		.byte	0x50
 10473 0226 00000000 		.4byte	0
 10474 022a 00000000 		.4byte	0
 10475              	.LLST15:
 10476 022e 00000000 		.4byte	.LVL58
 10477 0232 07000000 		.4byte	.LVL59-1
 10478 0236 0100     		.2byte	0x1
 10479 0238 50       		.byte	0x50
 10480 0239 07000000 		.4byte	.LVL59-1
 10481 023d 10000000 		.4byte	.LVL61
 10482 0241 0100     		.2byte	0x1
 10483 0243 54       		.byte	0x54
 10484 0244 10000000 		.4byte	.LVL61
 10485 0248 18000000 		.4byte	.LFE43
 10486 024c 0400     		.2byte	0x4
 10487 024e F3       		.byte	0xf3
 10488 024f 01       		.uleb128 0x1
 10489 0250 50       		.byte	0x50
 10490 0251 9F       		.byte	0x9f
 10491 0252 00000000 		.4byte	0
 10492 0256 00000000 		.4byte	0
 10493              	.LLST16:
 10494 025a 00000000 		.4byte	.LVL62
 10495 025e 07000000 		.4byte	.LVL63-1
 10496 0262 0100     		.2byte	0x1
 10497 0264 51       		.byte	0x51
 10498 0265 07000000 		.4byte	.LVL63-1
 10499 0269 48000000 		.4byte	.LFE65
 10500 026d 0400     		.2byte	0x4
 10501 026f F3       		.byte	0xf3
 10502 0270 01       		.uleb128 0x1
 10503 0271 51       		.byte	0x51
 10504 0272 9F       		.byte	0x9f
 10505 0273 00000000 		.4byte	0
 10506 0277 00000000 		.4byte	0
 10507              	.LLST17:
 10508 027b 00000000 		.4byte	.LVL69
 10509 027f 09000000 		.4byte	.LVL70-1
 10510 0283 0100     		.2byte	0x1
 10511 0285 50       		.byte	0x50
 10512 0286 09000000 		.4byte	.LVL70-1
 10513 028a 90000000 		.4byte	.LVL78
 10514 028e 0100     		.2byte	0x1
ARM GAS  C:\Users\VIDEOH~1\AppData\Local\Temp\ccM4oHTP.s 			page 210


 10515 0290 55       		.byte	0x55
 10516 0291 90000000 		.4byte	.LVL78
 10517 0295 A0000000 		.4byte	.LFE38
 10518 0299 0400     		.2byte	0x4
 10519 029b F3       		.byte	0xf3
 10520 029c 01       		.uleb128 0x1
 10521 029d 50       		.byte	0x50
 10522 029e 9F       		.byte	0x9f
 10523 029f 00000000 		.4byte	0
 10524 02a3 00000000 		.4byte	0
 10525              	.LLST18:
 10526 02a7 0C000000 		.4byte	.LVL71
 10527 02ab 40000000 		.4byte	.LVL72
 10528 02af 0100     		.2byte	0x1
 10529 02b1 50       		.byte	0x50
 10530 02b2 40000000 		.4byte	.LVL72
 10531 02b6 90000000 		.4byte	.LVL77
 10532 02ba 0100     		.2byte	0x1
 10533 02bc 54       		.byte	0x54
 10534 02bd 00000000 		.4byte	0
 10535 02c1 00000000 		.4byte	0
 10536              	.LLST19:
 10537 02c5 36000000 		.4byte	.LVL85
 10538 02c9 98000000 		.4byte	.LVL96
 10539 02cd 0100     		.2byte	0x1
 10540 02cf 54       		.byte	0x54
 10541 02d0 00000000 		.4byte	0
 10542 02d4 00000000 		.4byte	0
 10543              	.LLST20:
 10544 02d8 58000000 		.4byte	.LVL90
 10545 02dc 98000000 		.4byte	.LVL97
 10546 02e0 0100     		.2byte	0x1
 10547 02e2 55       		.byte	0x55
 10548 02e3 00000000 		.4byte	0
 10549 02e7 00000000 		.4byte	0
 10550              	.LLST21:
 10551 02eb 66000000 		.4byte	.LVL92
 10552 02ef 6D000000 		.4byte	.LVL93-1
 10553 02f3 0100     		.2byte	0x1
 10554 02f5 50       		.byte	0x50
 10555 02f6 00000000 		.4byte	0
 10556 02fa 00000000 		.4byte	0
 10557              	.LLST22:
 10558 02fe 00000000 		.4byte	.LVL98
 10559 0302 0E000000 		.4byte	.LVL99
 10560 0306 0100     		.2byte	0x1
 10561 0308 50       		.byte	0x50
 10562 0309 0E000000 		.4byte	.LVL99
 10563 030d 5A000000 		.4byte	.LVL106
 10564 0311 0100     		.2byte	0x1
 10565 0313 54       		.byte	0x54
 10566 0314 5A000000 		.4byte	.LVL106
 10567 0318 68000000 		.4byte	.LFE58
 10568 031c 0400     		.2byte	0x4
 10569 031e F3       		.byte	0xf3
 10570 031f 01       		.uleb128 0x1
 10571 0320 50       		.byte	0x50
ARM GAS  C:\Users\VIDEOH~1\AppData\Local\Temp\ccM4oHTP.s 			page 211


 10572 0321 9F       		.byte	0x9f
 10573 0322 00000000 		.4byte	0
 10574 0326 00000000 		.4byte	0
 10575              	.LLST23:
 10576 032a 00000000 		.4byte	.LVL107
 10577 032e 0E000000 		.4byte	.LVL108
 10578 0332 0100     		.2byte	0x1
 10579 0334 50       		.byte	0x50
 10580 0335 0E000000 		.4byte	.LVL108
 10581 0339 8A000000 		.4byte	.LVL119
 10582 033d 0100     		.2byte	0x1
 10583 033f 55       		.byte	0x55
 10584 0340 8A000000 		.4byte	.LVL119
 10585 0344 9C000000 		.4byte	.LFE59
 10586 0348 0400     		.2byte	0x4
 10587 034a F3       		.byte	0xf3
 10588 034b 01       		.uleb128 0x1
 10589 034c 50       		.byte	0x50
 10590 034d 9F       		.byte	0x9f
 10591 034e 00000000 		.4byte	0
 10592 0352 00000000 		.4byte	0
 10593              	.LLST24:
 10594 0356 40000000 		.4byte	.LVL114
 10595 035a 47000000 		.4byte	.LVL115-1
 10596 035e 0100     		.2byte	0x1
 10597 0360 50       		.byte	0x50
 10598 0361 00000000 		.4byte	0
 10599 0365 00000000 		.4byte	0
 10600              	.LLST25:
 10601 0369 00000000 		.4byte	.LVL120
 10602 036d 08000000 		.4byte	.LVL121
 10603 0371 0100     		.2byte	0x1
 10604 0373 50       		.byte	0x50
 10605 0374 08000000 		.4byte	.LVL121
 10606 0378 24000000 		.4byte	.LFE62
 10607 037c 0400     		.2byte	0x4
 10608 037e F3       		.byte	0xf3
 10609 037f 01       		.uleb128 0x1
 10610 0380 50       		.byte	0x50
 10611 0381 9F       		.byte	0x9f
 10612 0382 00000000 		.4byte	0
 10613 0386 00000000 		.4byte	0
 10614              	.LLST26:
 10615 038a 00000000 		.4byte	.LVL120
 10616 038e 0B000000 		.4byte	.LVL122-1
 10617 0392 0100     		.2byte	0x1
 10618 0394 51       		.byte	0x51
 10619 0395 0B000000 		.4byte	.LVL122-1
 10620 0399 24000000 		.4byte	.LFE62
 10621 039d 0400     		.2byte	0x4
 10622 039f F3       		.byte	0xf3
 10623 03a0 01       		.uleb128 0x1
 10624 03a1 51       		.byte	0x51
 10625 03a2 9F       		.byte	0x9f
 10626 03a3 00000000 		.4byte	0
 10627 03a7 00000000 		.4byte	0
 10628              	.LLST27:
ARM GAS  C:\Users\VIDEOH~1\AppData\Local\Temp\ccM4oHTP.s 			page 212


 10629 03ab 00000000 		.4byte	.LVL124
 10630 03af 0E000000 		.4byte	.LVL125
 10631 03b3 0100     		.2byte	0x1
 10632 03b5 50       		.byte	0x50
 10633 03b6 0E000000 		.4byte	.LVL125
 10634 03ba B2000000 		.4byte	.LVL139
 10635 03be 0100     		.2byte	0x1
 10636 03c0 55       		.byte	0x55
 10637 03c1 B2000000 		.4byte	.LVL139
 10638 03c5 CC000000 		.4byte	.LFE60
 10639 03c9 0400     		.2byte	0x4
 10640 03cb F3       		.byte	0xf3
 10641 03cc 01       		.uleb128 0x1
 10642 03cd 50       		.byte	0x50
 10643 03ce 9F       		.byte	0x9f
 10644 03cf 00000000 		.4byte	0
 10645 03d3 00000000 		.4byte	0
 10646              	.LLST28:
 10647 03d7 64000000 		.4byte	.LVL134
 10648 03db 6B000000 		.4byte	.LVL135-1
 10649 03df 0100     		.2byte	0x1
 10650 03e1 50       		.byte	0x50
 10651 03e2 00000000 		.4byte	0
 10652 03e6 00000000 		.4byte	0
 10653              	.LLST29:
 10654 03ea 00000000 		.4byte	.LVL140
 10655 03ee 0E000000 		.4byte	.LVL141
 10656 03f2 0100     		.2byte	0x1
 10657 03f4 50       		.byte	0x50
 10658 03f5 0E000000 		.4byte	.LVL141
 10659 03f9 CE000000 		.4byte	.LVL159
 10660 03fd 0100     		.2byte	0x1
 10661 03ff 55       		.byte	0x55
 10662 0400 CE000000 		.4byte	.LVL159
 10663 0404 E8000000 		.4byte	.LFE61
 10664 0408 0400     		.2byte	0x4
 10665 040a F3       		.byte	0xf3
 10666 040b 01       		.uleb128 0x1
 10667 040c 50       		.byte	0x50
 10668 040d 9F       		.byte	0x9f
 10669 040e 00000000 		.4byte	0
 10670 0412 00000000 		.4byte	0
 10671              	.LLST30:
 10672 0416 64000000 		.4byte	.LVL150
 10673 041a 78000000 		.4byte	.LVL153
 10674 041e 0100     		.2byte	0x1
 10675 0420 54       		.byte	0x54
 10676 0421 00000000 		.4byte	0
 10677 0425 00000000 		.4byte	0
 10678              	.LLST31:
 10679 0429 70000000 		.4byte	.LVL152
 10680 042d 87000000 		.4byte	.LVL155-1
 10681 0431 0100     		.2byte	0x1
 10682 0433 50       		.byte	0x50
 10683 0434 00000000 		.4byte	0
 10684 0438 00000000 		.4byte	0
 10685              	.LLST32:
ARM GAS  C:\Users\VIDEOH~1\AppData\Local\Temp\ccM4oHTP.s 			page 213


 10686 043c 00000000 		.4byte	.LVL160
 10687 0440 12000000 		.4byte	.LVL161
 10688 0444 0100     		.2byte	0x1
 10689 0446 50       		.byte	0x50
 10690 0447 12000000 		.4byte	.LVL161
 10691 044b 66000000 		.4byte	.LVL169
 10692 044f 0100     		.2byte	0x1
 10693 0451 54       		.byte	0x54
 10694 0452 66000000 		.4byte	.LVL169
 10695 0456 74000000 		.4byte	.LFE63
 10696 045a 0400     		.2byte	0x4
 10697 045c F3       		.byte	0xf3
 10698 045d 01       		.uleb128 0x1
 10699 045e 50       		.byte	0x50
 10700 045f 9F       		.byte	0x9f
 10701 0460 00000000 		.4byte	0
 10702 0464 00000000 		.4byte	0
 10703              	.LLST33:
 10704 0468 00000000 		.4byte	.LVL170
 10705 046c 0B000000 		.4byte	.LVL172-1
 10706 0470 0100     		.2byte	0x1
 10707 0472 51       		.byte	0x51
 10708 0473 0B000000 		.4byte	.LVL172-1
 10709 0477 88000000 		.4byte	.LFE64
 10710 047b 0400     		.2byte	0x4
 10711 047d F3       		.byte	0xf3
 10712 047e 01       		.uleb128 0x1
 10713 047f 51       		.byte	0x51
 10714 0480 9F       		.byte	0x9f
 10715 0481 00000000 		.4byte	0
 10716 0485 00000000 		.4byte	0
 10717              	.LLST34:
 10718 0489 00000000 		.4byte	.LVL184
 10719 048d 09000000 		.4byte	.LVL185-1
 10720 0491 0100     		.2byte	0x1
 10721 0493 51       		.byte	0x51
 10722 0494 09000000 		.4byte	.LVL185-1
 10723 0498 0C010000 		.4byte	.LFE53
 10724 049c 0400     		.2byte	0x4
 10725 049e F3       		.byte	0xf3
 10726 049f 01       		.uleb128 0x1
 10727 04a0 51       		.byte	0x51
 10728 04a1 9F       		.byte	0x9f
 10729 04a2 00000000 		.4byte	0
 10730 04a6 00000000 		.4byte	0
 10731              	.LLST35:
 10732 04aa 00000000 		.4byte	.LVL197
 10733 04ae 12000000 		.4byte	.LVL198
 10734 04b2 0100     		.2byte	0x1
 10735 04b4 51       		.byte	0x51
 10736 04b5 12000000 		.4byte	.LVL198
 10737 04b9 90000000 		.4byte	.LVL209
 10738 04bd 0100     		.2byte	0x1
 10739 04bf 55       		.byte	0x55
 10740 04c0 90000000 		.4byte	.LVL209
 10741 04c4 A0000000 		.4byte	.LFE55
 10742 04c8 0400     		.2byte	0x4
ARM GAS  C:\Users\VIDEOH~1\AppData\Local\Temp\ccM4oHTP.s 			page 214


 10743 04ca F3       		.byte	0xf3
 10744 04cb 01       		.uleb128 0x1
 10745 04cc 51       		.byte	0x51
 10746 04cd 9F       		.byte	0x9f
 10747 04ce 00000000 		.4byte	0
 10748 04d2 00000000 		.4byte	0
 10749              	.LLST36:
 10750 04d6 00000000 		.4byte	.LVL210
 10751 04da 12000000 		.4byte	.LVL212
 10752 04de 0100     		.2byte	0x1
 10753 04e0 50       		.byte	0x50
 10754 04e1 12000000 		.4byte	.LVL212
 10755 04e5 A0000000 		.4byte	.LVL224
 10756 04e9 0100     		.2byte	0x1
 10757 04eb 57       		.byte	0x57
 10758 04ec A0000000 		.4byte	.LVL224
 10759 04f0 4C010000 		.4byte	.LFE39
 10760 04f4 0400     		.2byte	0x4
 10761 04f6 F3       		.byte	0xf3
 10762 04f7 01       		.uleb128 0x1
 10763 04f8 50       		.byte	0x50
 10764 04f9 9F       		.byte	0x9f
 10765 04fa 00000000 		.4byte	0
 10766 04fe 00000000 		.4byte	0
 10767              	.LLST37:
 10768 0502 00000000 		.4byte	.LVL210
 10769 0506 19000000 		.4byte	.LVL213-1
 10770 050a 0100     		.2byte	0x1
 10771 050c 51       		.byte	0x51
 10772 050d 19000000 		.4byte	.LVL213-1
 10773 0511 66000000 		.4byte	.LVL218
 10774 0515 0100     		.2byte	0x1
 10775 0517 54       		.byte	0x54
 10776 0518 66000000 		.4byte	.LVL218
 10777 051c 6E000000 		.4byte	.LVL219
 10778 0520 0100     		.2byte	0x1
 10779 0522 51       		.byte	0x51
 10780 0523 6E000000 		.4byte	.LVL219
 10781 0527 9C000000 		.4byte	.LVL223
 10782 052b 0100     		.2byte	0x1
 10783 052d 54       		.byte	0x54
 10784 052e 9C000000 		.4byte	.LVL223
 10785 0532 A2000000 		.4byte	.LVL225
 10786 0536 0400     		.2byte	0x4
 10787 0538 F3       		.byte	0xf3
 10788 0539 01       		.uleb128 0x1
 10789 053a 51       		.byte	0x51
 10790 053b 9F       		.byte	0x9f
 10791 053c A2000000 		.4byte	.LVL225
 10792 0540 A6000000 		.4byte	.LVL226
 10793 0544 0100     		.2byte	0x1
 10794 0546 51       		.byte	0x51
 10795 0547 A6000000 		.4byte	.LVL226
 10796 054b 34010000 		.4byte	.LVL237
 10797 054f 0100     		.2byte	0x1
 10798 0551 58       		.byte	0x58
 10799 0552 00000000 		.4byte	0
ARM GAS  C:\Users\VIDEOH~1\AppData\Local\Temp\ccM4oHTP.s 			page 215


 10800 0556 00000000 		.4byte	0
 10801              	.LLST38:
 10802 055a 10000000 		.4byte	.LVL211
 10803 055e 5C000000 		.4byte	.LVL217
 10804 0562 0200     		.2byte	0x2
 10805 0564 30       		.byte	0x30
 10806 0565 9F       		.byte	0x9f
 10807 0566 5C000000 		.4byte	.LVL217
 10808 056a 66000000 		.4byte	.LVL218
 10809 056e 0200     		.2byte	0x2
 10810 0570 31       		.byte	0x31
 10811 0571 9F       		.byte	0x9f
 10812 0572 66000000 		.4byte	.LVL218
 10813 0576 6E000000 		.4byte	.LVL219
 10814 057a 0200     		.2byte	0x2
 10815 057c 30       		.byte	0x30
 10816 057d 9F       		.byte	0x9f
 10817 057e 6E000000 		.4byte	.LVL219
 10818 0582 34010000 		.4byte	.LVL239
 10819 0586 0100     		.2byte	0x1
 10820 0588 5A       		.byte	0x5a
 10821 0589 00000000 		.4byte	0
 10822 058d 00000000 		.4byte	0
 10823              	.LLST39:
 10824 0591 10000000 		.4byte	.LVL211
 10825 0595 5C000000 		.4byte	.LVL217
 10826 0599 0200     		.2byte	0x2
 10827 059b 34       		.byte	0x34
 10828 059c 9F       		.byte	0x9f
 10829 059d 5C000000 		.4byte	.LVL217
 10830 05a1 66000000 		.4byte	.LVL218
 10831 05a5 0200     		.2byte	0x2
 10832 05a7 33       		.byte	0x33
 10833 05a8 9F       		.byte	0x9f
 10834 05a9 66000000 		.4byte	.LVL218
 10835 05ad 6E000000 		.4byte	.LVL219
 10836 05b1 0200     		.2byte	0x2
 10837 05b3 34       		.byte	0x34
 10838 05b4 9F       		.byte	0x9f
 10839 05b5 6E000000 		.4byte	.LVL219
 10840 05b9 34010000 		.4byte	.LVL238
 10841 05bd 0100     		.2byte	0x1
 10842 05bf 59       		.byte	0x59
 10843 05c0 00000000 		.4byte	0
 10844 05c4 00000000 		.4byte	0
 10845              	.LLST40:
 10846 05c8 A2000000 		.4byte	.LVL225
 10847 05cc 34010000 		.4byte	.LVL236
 10848 05d0 0100     		.2byte	0x1
 10849 05d2 57       		.byte	0x57
 10850 05d3 00000000 		.4byte	0
 10851 05d7 00000000 		.4byte	0
 10852              	.LLST41:
 10853 05db 26000000 		.4byte	.LVL214
 10854 05df 66000000 		.4byte	.LVL218
 10855 05e3 0100     		.2byte	0x1
 10856 05e5 55       		.byte	0x55
ARM GAS  C:\Users\VIDEOH~1\AppData\Local\Temp\ccM4oHTP.s 			page 216


 10857 05e6 00000000 		.4byte	0
 10858 05ea 00000000 		.4byte	0
 10859              	.LLST42:
 10860 05ee A2000000 		.4byte	.LVL225
 10861 05f2 A6000000 		.4byte	.LVL226
 10862 05f6 0200     		.2byte	0x2
 10863 05f8 30       		.byte	0x30
 10864 05f9 9F       		.byte	0x9f
 10865 05fa A6000000 		.4byte	.LVL226
 10866 05fe 34010000 		.4byte	.LVL235
 10867 0602 0100     		.2byte	0x1
 10868 0604 55       		.byte	0x55
 10869 0605 00000000 		.4byte	0
 10870 0609 00000000 		.4byte	0
 10871              	.LLST43:
 10872 060d 00000000 		.4byte	.LVL240
 10873 0611 0B000000 		.4byte	.LVL242-1
 10874 0615 0100     		.2byte	0x1
 10875 0617 51       		.byte	0x51
 10876 0618 0B000000 		.4byte	.LVL242-1
 10877 061c 88000000 		.4byte	.LVL256
 10878 0620 0100     		.2byte	0x1
 10879 0622 56       		.byte	0x56
 10880 0623 88000000 		.4byte	.LVL256
 10881 0627 90000000 		.4byte	.LFE56
 10882 062b 0400     		.2byte	0x4
 10883 062d F3       		.byte	0xf3
 10884 062e 01       		.uleb128 0x1
 10885 062f 51       		.byte	0x51
 10886 0630 9F       		.byte	0x9f
 10887 0631 00000000 		.4byte	0
 10888 0635 00000000 		.4byte	0
 10889              	.LLST44:
 10890 0639 08000000 		.4byte	.LVL241
 10891 063d 0B000000 		.4byte	.LVL242-1
 10892 0641 0100     		.2byte	0x1
 10893 0643 51       		.byte	0x51
 10894 0644 0B000000 		.4byte	.LVL242-1
 10895 0648 88000000 		.4byte	.LVL256
 10896 064c 0100     		.2byte	0x1
 10897 064e 56       		.byte	0x56
 10898 064f 88000000 		.4byte	.LVL256
 10899 0653 90000000 		.4byte	.LFE56
 10900 0657 0400     		.2byte	0x4
 10901 0659 F3       		.byte	0xf3
 10902 065a 01       		.uleb128 0x1
 10903 065b 51       		.byte	0x51
 10904 065c 9F       		.byte	0x9f
 10905 065d 00000000 		.4byte	0
 10906 0661 00000000 		.4byte	0
 10907              	.LLST45:
 10908 0665 0C000000 		.4byte	.LVL242
 10909 0669 16000000 		.4byte	.LVL243
 10910 066d 0200     		.2byte	0x2
 10911 066f 30       		.byte	0x30
 10912 0670 9F       		.byte	0x9f
 10913 0671 16000000 		.4byte	.LVL243
ARM GAS  C:\Users\VIDEOH~1\AppData\Local\Temp\ccM4oHTP.s 			page 217


 10914 0675 3C000000 		.4byte	.LVL246
 10915 0679 0100     		.2byte	0x1
 10916 067b 54       		.byte	0x54
 10917 067c 40000000 		.4byte	.LVL247
 10918 0680 4C000000 		.4byte	.LVL248
 10919 0684 0100     		.2byte	0x1
 10920 0686 54       		.byte	0x54
 10921 0687 4C000000 		.4byte	.LVL248
 10922 068b 52000000 		.4byte	.LVL250
 10923 068f 0100     		.2byte	0x1
 10924 0691 51       		.byte	0x51
 10925 0692 52000000 		.4byte	.LVL250
 10926 0696 7A000000 		.4byte	.LVL254
 10927 069a 0100     		.2byte	0x1
 10928 069c 54       		.byte	0x54
 10929 069d 00000000 		.4byte	0
 10930 06a1 00000000 		.4byte	0
 10931              	.LLST46:
 10932 06a5 40000000 		.4byte	.LVL247
 10933 06a9 52000000 		.4byte	.LVL250
 10934 06ad 0100     		.2byte	0x1
 10935 06af 52       		.byte	0x52
 10936 06b0 54000000 		.4byte	.LVL251
 10937 06b4 5A000000 		.4byte	.LVL252
 10938 06b8 0100     		.2byte	0x1
 10939 06ba 52       		.byte	0x52
 10940 06bb 00000000 		.4byte	0
 10941 06bf 00000000 		.4byte	0
 10942              	.LLST47:
 10943 06c3 00000000 		.4byte	.LVL257
 10944 06c7 0E000000 		.4byte	.LVL259
 10945 06cb 0100     		.2byte	0x1
 10946 06cd 51       		.byte	0x51
 10947 06ce 0E000000 		.4byte	.LVL259
 10948 06d2 68000000 		.4byte	.LVL266
 10949 06d6 0100     		.2byte	0x1
 10950 06d8 57       		.byte	0x57
 10951 06d9 68000000 		.4byte	.LVL266
 10952 06dd 78000000 		.4byte	.LFE49
 10953 06e1 0400     		.2byte	0x4
 10954 06e3 F3       		.byte	0xf3
 10955 06e4 01       		.uleb128 0x1
 10956 06e5 51       		.byte	0x51
 10957 06e6 9F       		.byte	0x9f
 10958 06e7 00000000 		.4byte	0
 10959 06eb 00000000 		.4byte	0
 10960              	.LLST48:
 10961 06ef 0C000000 		.4byte	.LVL258
 10962 06f3 0E000000 		.4byte	.LVL259
 10963 06f7 0A00     		.2byte	0xa
 10964 06f9 71       		.byte	0x71
 10965 06fa 00       		.sleb128 0
 10966 06fb 33       		.byte	0x33
 10967 06fc 1E       		.byte	0x1e
 10968 06fd 76       		.byte	0x76
 10969 06fe 00       		.sleb128 0
 10970 06ff 22       		.byte	0x22
ARM GAS  C:\Users\VIDEOH~1\AppData\Local\Temp\ccM4oHTP.s 			page 218


 10971 0700 23       		.byte	0x23
 10972 0701 08       		.uleb128 0x8
 10973 0702 9F       		.byte	0x9f
 10974 0703 0E000000 		.4byte	.LVL259
 10975 0707 68000000 		.4byte	.LVL265
 10976 070b 0A00     		.2byte	0xa
 10977 070d 77       		.byte	0x77
 10978 070e 00       		.sleb128 0
 10979 070f 33       		.byte	0x33
 10980 0710 1E       		.byte	0x1e
 10981 0711 76       		.byte	0x76
 10982 0712 00       		.sleb128 0
 10983 0713 22       		.byte	0x22
 10984 0714 23       		.byte	0x23
 10985 0715 08       		.uleb128 0x8
 10986 0716 9F       		.byte	0x9f
 10987 0717 00000000 		.4byte	0
 10988 071b 00000000 		.4byte	0
 10989              	.LLST49:
 10990 071f 00000000 		.4byte	.LVL267
 10991 0723 09000000 		.4byte	.LVL268-1
 10992 0727 0100     		.2byte	0x1
 10993 0729 51       		.byte	0x51
 10994 072a 09000000 		.4byte	.LVL268-1
 10995 072e 64010000 		.4byte	.LFE54
 10996 0732 0400     		.2byte	0x4
 10997 0734 F3       		.byte	0xf3
 10998 0735 01       		.uleb128 0x1
 10999 0736 51       		.byte	0x51
 11000 0737 9F       		.byte	0x9f
 11001 0738 00000000 		.4byte	0
 11002 073c 00000000 		.4byte	0
 11003              	.LLST50:
 11004 0740 32000000 		.4byte	.LVL271
 11005 0744 D0000000 		.4byte	.LVL284
 11006 0748 0100     		.2byte	0x1
 11007 074a 54       		.byte	0x54
 11008 074b 00000000 		.4byte	0
 11009 074f 00000000 		.4byte	0
 11010              	.LLST51:
 11011 0753 3C000000 		.4byte	.LVL273
 11012 0757 48000000 		.4byte	.LVL275
 11013 075b 0100     		.2byte	0x1
 11014 075d 55       		.byte	0x55
 11015 075e 48000000 		.4byte	.LVL275
 11016 0762 4C000000 		.4byte	.LVL276
 11017 0766 0100     		.2byte	0x1
 11018 0768 53       		.byte	0x53
 11019 0769 4C000000 		.4byte	.LVL276
 11020 076d 1C010000 		.4byte	.LVL289
 11021 0771 0200     		.2byte	0x2
 11022 0773 91       		.byte	0x91
 11023 0774 4C       		.sleb128 -52
 11024 0775 1C010000 		.4byte	.LVL289
 11025 0779 1E010000 		.4byte	.LVL290
 11026 077d 0100     		.2byte	0x1
 11027 077f 53       		.byte	0x53
ARM GAS  C:\Users\VIDEOH~1\AppData\Local\Temp\ccM4oHTP.s 			page 219


 11028 0780 1E010000 		.4byte	.LVL290
 11029 0784 64010000 		.4byte	.LFE54
 11030 0788 0200     		.2byte	0x2
 11031 078a 91       		.byte	0x91
 11032 078b 4C       		.sleb128 -52
 11033 078c 00000000 		.4byte	0
 11034 0790 00000000 		.4byte	0
 11035              	.LLST52:
 11036 0794 48000000 		.4byte	.LVL275
 11037 0798 4C000000 		.4byte	.LVL276
 11038 079c 0200     		.2byte	0x2
 11039 079e 30       		.byte	0x30
 11040 079f 9F       		.byte	0x9f
 11041 07a0 4C000000 		.4byte	.LVL276
 11042 07a4 44010000 		.4byte	.LVL291
 11043 07a8 0100     		.2byte	0x1
 11044 07aa 55       		.byte	0x55
 11045 07ab 00000000 		.4byte	0
 11046 07af 00000000 		.4byte	0
 11047              	.LLST53:
 11048 07b3 00000000 		.4byte	.LVL293
 11049 07b7 06000000 		.4byte	.LVL294
 11050 07bb 0100     		.2byte	0x1
 11051 07bd 50       		.byte	0x50
 11052 07be 06000000 		.4byte	.LVL294
 11053 07c2 34000000 		.4byte	.LVL301
 11054 07c6 0100     		.2byte	0x1
 11055 07c8 54       		.byte	0x54
 11056 07c9 34000000 		.4byte	.LVL301
 11057 07cd 44000000 		.4byte	.LFE37
 11058 07d1 0400     		.2byte	0x4
 11059 07d3 F3       		.byte	0xf3
 11060 07d4 01       		.uleb128 0x1
 11061 07d5 50       		.byte	0x50
 11062 07d6 9F       		.byte	0x9f
 11063 07d7 00000000 		.4byte	0
 11064 07db 00000000 		.4byte	0
 11065              	.LLST54:
 11066 07df 00000000 		.4byte	.LVL293
 11067 07e3 09000000 		.4byte	.LVL295-1
 11068 07e7 0100     		.2byte	0x1
 11069 07e9 51       		.byte	0x51
 11070 07ea 09000000 		.4byte	.LVL295-1
 11071 07ee 44000000 		.4byte	.LFE37
 11072 07f2 0400     		.2byte	0x4
 11073 07f4 F3       		.byte	0xf3
 11074 07f5 01       		.uleb128 0x1
 11075 07f6 51       		.byte	0x51
 11076 07f7 9F       		.byte	0x9f
 11077 07f8 00000000 		.4byte	0
 11078 07fc 00000000 		.4byte	0
 11079              	.LLST55:
 11080 0800 0A000000 		.4byte	.LVL295
 11081 0804 14000000 		.4byte	.LVL297
 11082 0808 0100     		.2byte	0x1
 11083 080a 50       		.byte	0x50
 11084 080b 00000000 		.4byte	0
ARM GAS  C:\Users\VIDEOH~1\AppData\Local\Temp\ccM4oHTP.s 			page 220


 11085 080f 00000000 		.4byte	0
 11086              	.LLST56:
 11087 0813 00000000 		.4byte	.LVL302
 11088 0817 20000000 		.4byte	.LVL304
 11089 081b 0100     		.2byte	0x1
 11090 081d 50       		.byte	0x50
 11091 081e 20000000 		.4byte	.LVL304
 11092 0822 5C000000 		.4byte	.LVL311
 11093 0826 0100     		.2byte	0x1
 11094 0828 55       		.byte	0x55
 11095 0829 5C000000 		.4byte	.LVL311
 11096 082d 68000000 		.4byte	.LVL313
 11097 0831 0100     		.2byte	0x1
 11098 0833 50       		.byte	0x50
 11099 0834 68000000 		.4byte	.LVL313
 11100 0838 20010000 		.4byte	.LVL332
 11101 083c 0100     		.2byte	0x1
 11102 083e 55       		.byte	0x55
 11103 083f 20010000 		.4byte	.LVL332
 11104 0843 34010000 		.4byte	.LFE48
 11105 0847 0400     		.2byte	0x4
 11106 0849 F3       		.byte	0xf3
 11107 084a 01       		.uleb128 0x1
 11108 084b 50       		.byte	0x50
 11109 084c 9F       		.byte	0x9f
 11110 084d 00000000 		.4byte	0
 11111 0851 00000000 		.4byte	0
 11112              	.LLST57:
 11113 0855 00000000 		.4byte	.LVL302
 11114 0859 21000000 		.4byte	.LVL305-1
 11115 085d 0100     		.2byte	0x1
 11116 085f 51       		.byte	0x51
 11117 0860 21000000 		.4byte	.LVL305-1
 11118 0864 5C000000 		.4byte	.LVL311
 11119 0868 0400     		.2byte	0x4
 11120 086a F3       		.byte	0xf3
 11121 086b 01       		.uleb128 0x1
 11122 086c 51       		.byte	0x51
 11123 086d 9F       		.byte	0x9f
 11124 086e 5C000000 		.4byte	.LVL311
 11125 0872 66000000 		.4byte	.LVL312
 11126 0876 0100     		.2byte	0x1
 11127 0878 51       		.byte	0x51
 11128 0879 66000000 		.4byte	.LVL312
 11129 087d 34010000 		.4byte	.LFE48
 11130 0881 0400     		.2byte	0x4
 11131 0883 F3       		.byte	0xf3
 11132 0884 01       		.uleb128 0x1
 11133 0885 51       		.byte	0x51
 11134 0886 9F       		.byte	0x9f
 11135 0887 00000000 		.4byte	0
 11136 088b 00000000 		.4byte	0
 11137              	.LLST58:
 11138 088f 10000000 		.4byte	.LVL303
 11139 0893 7C000000 		.4byte	.LVL316
 11140 0897 0B00     		.2byte	0xb
 11141 0899 74       		.byte	0x74
ARM GAS  C:\Users\VIDEOH~1\AppData\Local\Temp\ccM4oHTP.s 			page 221


 11142 089a 00       		.sleb128 0
 11143 089b 33       		.byte	0x33
 11144 089c 24       		.byte	0x24
 11145 089d 03       		.byte	0x3
 11146 089e 00000000 		.4byte	readout_functions
 11147 08a2 22       		.byte	0x22
 11148 08a3 9F       		.byte	0x9f
 11149 08a4 E4000000 		.4byte	.LVL325
 11150 08a8 E6000000 		.4byte	.LVL326
 11151 08ac 0B00     		.2byte	0xb
 11152 08ae 73       		.byte	0x73
 11153 08af 00       		.sleb128 0
 11154 08b0 33       		.byte	0x33
 11155 08b1 24       		.byte	0x24
 11156 08b2 03       		.byte	0x3
 11157 08b3 00000000 		.4byte	readout_functions
 11158 08b7 22       		.byte	0x22
 11159 08b8 9F       		.byte	0x9f
 11160 08b9 E6000000 		.4byte	.LVL326
 11161 08bd EF000000 		.4byte	.LVL327-1
 11162 08c1 1300     		.2byte	0x13
 11163 08c3 75       		.byte	0x75
 11164 08c4 00       		.sleb128 0
 11165 08c5 74       		.byte	0x74
 11166 08c6 00       		.sleb128 0
 11167 08c7 22       		.byte	0x22
 11168 08c8 94       		.byte	0x94
 11169 08c9 01       		.byte	0x1
 11170 08ca 08       		.byte	0x8
 11171 08cb FF       		.byte	0xff
 11172 08cc 1A       		.byte	0x1a
 11173 08cd 33       		.byte	0x33
 11174 08ce 24       		.byte	0x24
 11175 08cf 03       		.byte	0x3
 11176 08d0 00000000 		.4byte	readout_functions
 11177 08d4 22       		.byte	0x22
 11178 08d5 9F       		.byte	0x9f
 11179 08d6 00000000 		.4byte	0
 11180 08da 00000000 		.4byte	0
 11181              	.LLST59:
 11182 08de 8E000000 		.4byte	.LVL318
 11183 08e2 E0000000 		.4byte	.LVL324
 11184 08e6 0100     		.2byte	0x1
 11185 08e8 54       		.byte	0x54
 11186 08e9 00000000 		.4byte	0
 11187 08ed 00000000 		.4byte	0
 11188              	.LLST60:
 11189 08f1 E0000000 		.4byte	.LVL324
 11190 08f5 18010000 		.4byte	.LVL330
 11191 08f9 0100     		.2byte	0x1
 11192 08fb 56       		.byte	0x56
 11193 08fc 18010000 		.4byte	.LVL330
 11194 0900 1A010000 		.4byte	.LVL331
 11195 0904 0100     		.2byte	0x1
 11196 0906 54       		.byte	0x54
 11197 0907 1A010000 		.4byte	.LVL331
 11198 090b 20010000 		.4byte	.LVL333
ARM GAS  C:\Users\VIDEOH~1\AppData\Local\Temp\ccM4oHTP.s 			page 222


 11199 090f 0100     		.2byte	0x1
 11200 0911 56       		.byte	0x56
 11201 0912 00000000 		.4byte	0
 11202 0916 00000000 		.4byte	0
 11203              	.LLST61:
 11204 091a 00000000 		.4byte	.LVL334
 11205 091e 09000000 		.4byte	.LVL335-1
 11206 0922 0100     		.2byte	0x1
 11207 0924 51       		.byte	0x51
 11208 0925 09000000 		.4byte	.LVL335-1
 11209 0929 AC000000 		.4byte	.LFE57
 11210 092d 0400     		.2byte	0x4
 11211 092f F3       		.byte	0xf3
 11212 0930 01       		.uleb128 0x1
 11213 0931 51       		.byte	0x51
 11214 0932 9F       		.byte	0x9f
 11215 0933 00000000 		.4byte	0
 11216 0937 00000000 		.4byte	0
 11217              	.LLST62:
 11218 093b 08000000 		.4byte	.LVL346
 11219 093f 0B000000 		.4byte	.LVL347-1
 11220 0943 0100     		.2byte	0x1
 11221 0945 50       		.byte	0x50
 11222 0946 0B000000 		.4byte	.LVL347-1
 11223 094a 56000000 		.4byte	.LVL348
 11224 094e 0100     		.2byte	0x1
 11225 0950 54       		.byte	0x54
 11226 0951 00000000 		.4byte	0
 11227 0955 00000000 		.4byte	0
 11228              	.LLST63:
 11229 0959 00000000 		.4byte	.LVL351
 11230 095d 07000000 		.4byte	.LVL352-1
 11231 0961 0100     		.2byte	0x1
 11232 0963 50       		.byte	0x50
 11233 0964 07000000 		.4byte	.LVL352-1
 11234 0968 10000000 		.4byte	.LVL354
 11235 096c 0100     		.2byte	0x1
 11236 096e 54       		.byte	0x54
 11237 096f 10000000 		.4byte	.LVL354
 11238 0973 18000000 		.4byte	.LFE41
 11239 0977 0400     		.2byte	0x4
 11240 0979 F3       		.byte	0xf3
 11241 097a 01       		.uleb128 0x1
 11242 097b 50       		.byte	0x50
 11243 097c 9F       		.byte	0x9f
 11244 097d 00000000 		.4byte	0
 11245 0981 00000000 		.4byte	0
 11246              	.LLST64:
 11247 0985 00000000 		.4byte	.LVL355
 11248 0989 07000000 		.4byte	.LVL356-1
 11249 098d 0100     		.2byte	0x1
 11250 098f 50       		.byte	0x50
 11251 0990 07000000 		.4byte	.LVL356-1
 11252 0994 10000000 		.4byte	.LVL358
 11253 0998 0100     		.2byte	0x1
 11254 099a 54       		.byte	0x54
 11255 099b 10000000 		.4byte	.LVL358
ARM GAS  C:\Users\VIDEOH~1\AppData\Local\Temp\ccM4oHTP.s 			page 223


 11256 099f 18000000 		.4byte	.LFE42
 11257 09a3 0400     		.2byte	0x4
 11258 09a5 F3       		.byte	0xf3
 11259 09a6 01       		.uleb128 0x1
 11260 09a7 50       		.byte	0x50
 11261 09a8 9F       		.byte	0x9f
 11262 09a9 00000000 		.4byte	0
 11263 09ad 00000000 		.4byte	0
 11264              	.LLST65:
 11265 09b1 00000000 		.4byte	.LVL359
 11266 09b5 07000000 		.4byte	.LVL360-1
 11267 09b9 0100     		.2byte	0x1
 11268 09bb 50       		.byte	0x50
 11269 09bc 07000000 		.4byte	.LVL360-1
 11270 09c0 28000000 		.4byte	.LVL366
 11271 09c4 0100     		.2byte	0x1
 11272 09c6 54       		.byte	0x54
 11273 09c7 28000000 		.4byte	.LVL366
 11274 09cb 30000000 		.4byte	.LFE44
 11275 09cf 0400     		.2byte	0x4
 11276 09d1 F3       		.byte	0xf3
 11277 09d2 01       		.uleb128 0x1
 11278 09d3 50       		.byte	0x50
 11279 09d4 9F       		.byte	0x9f
 11280 09d5 00000000 		.4byte	0
 11281 09d9 00000000 		.4byte	0
 11282              	.LLST66:
 11283 09dd 20000000 		.4byte	.LVL364
 11284 09e1 27000000 		.4byte	.LVL365-1
 11285 09e5 0100     		.2byte	0x1
 11286 09e7 50       		.byte	0x50
 11287 09e8 00000000 		.4byte	0
 11288 09ec 00000000 		.4byte	0
 11289              	.LLST67:
 11290 09f0 00000000 		.4byte	.LVL367
 11291 09f4 07000000 		.4byte	.LVL368-1
 11292 09f8 0100     		.2byte	0x1
 11293 09fa 50       		.byte	0x50
 11294 09fb 07000000 		.4byte	.LVL368-1
 11295 09ff 3A000000 		.4byte	.LVL378
 11296 0a03 0100     		.2byte	0x1
 11297 0a05 55       		.byte	0x55
 11298 0a06 3A000000 		.4byte	.LVL378
 11299 0a0a 48000000 		.4byte	.LFE45
 11300 0a0e 0400     		.2byte	0x4
 11301 0a10 F3       		.byte	0xf3
 11302 0a11 01       		.uleb128 0x1
 11303 0a12 50       		.byte	0x50
 11304 0a13 9F       		.byte	0x9f
 11305 0a14 00000000 		.4byte	0
 11306 0a18 00000000 		.4byte	0
 11307              	.LLST68:
 11308 0a1c 0A000000 		.4byte	.LVL369
 11309 0a20 0F000000 		.4byte	.LVL370-1
 11310 0a24 0100     		.2byte	0x1
 11311 0a26 50       		.byte	0x50
 11312 0a27 0F000000 		.4byte	.LVL370-1
ARM GAS  C:\Users\VIDEOH~1\AppData\Local\Temp\ccM4oHTP.s 			page 224


 11313 0a2b 30000000 		.4byte	.LVL374
 11314 0a2f 0100     		.2byte	0x1
 11315 0a31 54       		.byte	0x54
 11316 0a32 30000000 		.4byte	.LVL374
 11317 0a36 36000000 		.4byte	.LVL375
 11318 0a3a 0100     		.2byte	0x1
 11319 0a3c 50       		.byte	0x50
 11320 0a3d 36000000 		.4byte	.LVL375
 11321 0a41 3A000000 		.4byte	.LVL377
 11322 0a45 0100     		.2byte	0x1
 11323 0a47 54       		.byte	0x54
 11324 0a48 00000000 		.4byte	0
 11325 0a4c 00000000 		.4byte	0
 11326              	.LLST69:
 11327 0a50 00000000 		.4byte	.LVL379
 11328 0a54 07000000 		.4byte	.LVL380-1
 11329 0a58 0100     		.2byte	0x1
 11330 0a5a 50       		.byte	0x50
 11331 0a5b 07000000 		.4byte	.LVL380-1
 11332 0a5f 10000000 		.4byte	.LVL382
 11333 0a63 0100     		.2byte	0x1
 11334 0a65 54       		.byte	0x54
 11335 0a66 10000000 		.4byte	.LVL382
 11336 0a6a 18000000 		.4byte	.LFE46
 11337 0a6e 0400     		.2byte	0x4
 11338 0a70 F3       		.byte	0xf3
 11339 0a71 01       		.uleb128 0x1
 11340 0a72 50       		.byte	0x50
 11341 0a73 9F       		.byte	0x9f
 11342 0a74 00000000 		.4byte	0
 11343 0a78 00000000 		.4byte	0
 11344              	.LLST70:
 11345 0a7c 00000000 		.4byte	.LVL383
 11346 0a80 07000000 		.4byte	.LVL384-1
 11347 0a84 0100     		.2byte	0x1
 11348 0a86 50       		.byte	0x50
 11349 0a87 07000000 		.4byte	.LVL384-1
 11350 0a8b 10000000 		.4byte	.LVL386
 11351 0a8f 0100     		.2byte	0x1
 11352 0a91 54       		.byte	0x54
 11353 0a92 10000000 		.4byte	.LVL386
 11354 0a96 18000000 		.4byte	.LFE47
 11355 0a9a 0400     		.2byte	0x4
 11356 0a9c F3       		.byte	0xf3
 11357 0a9d 01       		.uleb128 0x1
 11358 0a9e 50       		.byte	0x50
 11359 0a9f 9F       		.byte	0x9f
 11360 0aa0 00000000 		.4byte	0
 11361 0aa4 00000000 		.4byte	0
 11362              	.LLST71:
 11363 0aa8 08000000 		.4byte	.LVL388
 11364 0aac 1B000000 		.4byte	.LVL389-1
 11365 0ab0 0100     		.2byte	0x1
 11366 0ab2 50       		.byte	0x50
 11367 0ab3 1B000000 		.4byte	.LVL389-1
 11368 0ab7 4E000000 		.4byte	.LVL391
 11369 0abb 0100     		.2byte	0x1
ARM GAS  C:\Users\VIDEOH~1\AppData\Local\Temp\ccM4oHTP.s 			page 225


 11370 0abd 55       		.byte	0x55
 11371 0abe 00000000 		.4byte	0
 11372 0ac2 00000000 		.4byte	0
 11373              	.LLST72:
 11374 0ac6 00000000 		.4byte	.LVL392
 11375 0aca 0A000000 		.4byte	.LVL393
 11376 0ace 0100     		.2byte	0x1
 11377 0ad0 50       		.byte	0x50
 11378 0ad1 0A000000 		.4byte	.LVL393
 11379 0ad5 6C000000 		.4byte	.LFE66
 11380 0ad9 0400     		.2byte	0x4
 11381 0adb F3       		.byte	0xf3
 11382 0adc 01       		.uleb128 0x1
 11383 0add 50       		.byte	0x50
 11384 0ade 9F       		.byte	0x9f
 11385 0adf 00000000 		.4byte	0
 11386 0ae3 00000000 		.4byte	0
 11387              		.section	.debug_aranges,"",%progbits
 11388 0000 24010000 		.4byte	0x124
 11389 0004 0200     		.2byte	0x2
 11390 0006 00000000 		.4byte	.Ldebug_info0
 11391 000a 04       		.byte	0x4
 11392 000b 00       		.byte	0
 11393 000c 0000     		.2byte	0
 11394 000e 0000     		.2byte	0
 11395 0010 00000000 		.4byte	.LFB52
 11396 0014 12000000 		.4byte	.LFE52-.LFB52
 11397 0018 00000000 		.4byte	.LFB50
 11398 001c 20000000 		.4byte	.LFE50-.LFB50
 11399 0020 00000000 		.4byte	.LFB36
 11400 0024 4C000000 		.4byte	.LFE36-.LFB36
 11401 0028 00000000 		.4byte	.LFB40
 11402 002c 10000000 		.4byte	.LFE40-.LFB40
 11403 0030 00000000 		.4byte	.LFB35
 11404 0034 CC000000 		.4byte	.LFE35-.LFB35
 11405 0038 00000000 		.4byte	.LFB43
 11406 003c 18000000 		.4byte	.LFE43-.LFB43
 11407 0040 00000000 		.4byte	.LFB65
 11408 0044 48000000 		.4byte	.LFE65-.LFB65
 11409 0048 00000000 		.4byte	.LFB38
 11410 004c A0000000 		.4byte	.LFE38-.LFB38
 11411 0050 00000000 		.4byte	.LFB51
 11412 0054 B4000000 		.4byte	.LFE51-.LFB51
 11413 0058 00000000 		.4byte	.LFB58
 11414 005c 68000000 		.4byte	.LFE58-.LFB58
 11415 0060 00000000 		.4byte	.LFB59
 11416 0064 9C000000 		.4byte	.LFE59-.LFB59
 11417 0068 00000000 		.4byte	.LFB62
 11418 006c 24000000 		.4byte	.LFE62-.LFB62
 11419 0070 00000000 		.4byte	.LFB60
 11420 0074 CC000000 		.4byte	.LFE60-.LFB60
 11421 0078 00000000 		.4byte	.LFB61
 11422 007c E8000000 		.4byte	.LFE61-.LFB61
 11423 0080 00000000 		.4byte	.LFB63
 11424 0084 74000000 		.4byte	.LFE63-.LFB63
 11425 0088 00000000 		.4byte	.LFB64
 11426 008c 88000000 		.4byte	.LFE64-.LFB64
ARM GAS  C:\Users\VIDEOH~1\AppData\Local\Temp\ccM4oHTP.s 			page 226


 11427 0090 00000000 		.4byte	.LFB53
 11428 0094 0C010000 		.4byte	.LFE53-.LFB53
 11429 0098 00000000 		.4byte	.LFB55
 11430 009c A0000000 		.4byte	.LFE55-.LFB55
 11431 00a0 00000000 		.4byte	.LFB39
 11432 00a4 4C010000 		.4byte	.LFE39-.LFB39
 11433 00a8 00000000 		.4byte	.LFB56
 11434 00ac 90000000 		.4byte	.LFE56-.LFB56
 11435 00b0 00000000 		.4byte	.LFB49
 11436 00b4 78000000 		.4byte	.LFE49-.LFB49
 11437 00b8 00000000 		.4byte	.LFB54
 11438 00bc 64010000 		.4byte	.LFE54-.LFB54
 11439 00c0 00000000 		.4byte	.LFB37
 11440 00c4 44000000 		.4byte	.LFE37-.LFB37
 11441 00c8 00000000 		.4byte	.LFB48
 11442 00cc 34010000 		.4byte	.LFE48-.LFB48
 11443 00d0 00000000 		.4byte	.LFB57
 11444 00d4 AC000000 		.4byte	.LFE57-.LFB57
 11445 00d8 00000000 		.4byte	.LFB34
 11446 00dc B4000000 		.4byte	.LFE34-.LFB34
 11447 00e0 00000000 		.4byte	.LFB41
 11448 00e4 18000000 		.4byte	.LFE41-.LFB41
 11449 00e8 00000000 		.4byte	.LFB42
 11450 00ec 18000000 		.4byte	.LFE42-.LFB42
 11451 00f0 00000000 		.4byte	.LFB44
 11452 00f4 30000000 		.4byte	.LFE44-.LFB44
 11453 00f8 00000000 		.4byte	.LFB45
 11454 00fc 48000000 		.4byte	.LFE45-.LFB45
 11455 0100 00000000 		.4byte	.LFB46
 11456 0104 18000000 		.4byte	.LFE46-.LFB46
 11457 0108 00000000 		.4byte	.LFB47
 11458 010c 18000000 		.4byte	.LFE47-.LFB47
 11459 0110 00000000 		.4byte	.LFB33
 11460 0114 5C000000 		.4byte	.LFE33-.LFB33
 11461 0118 00000000 		.4byte	.LFB66
 11462 011c 6C000000 		.4byte	.LFE66-.LFB66
 11463 0120 00000000 		.4byte	0
 11464 0124 00000000 		.4byte	0
 11465              		.section	.debug_ranges,"",%progbits
 11466              	.Ldebug_ranges0:
 11467 0000 40000000 		.4byte	.LBB6
 11468 0004 52000000 		.4byte	.LBE6
 11469 0008 54000000 		.4byte	.LBB7
 11470 000c 5A000000 		.4byte	.LBE7
 11471 0010 00000000 		.4byte	0
 11472 0014 00000000 		.4byte	0
 11473 0018 00000000 		.4byte	.LFB52
 11474 001c 12000000 		.4byte	.LFE52
 11475 0020 00000000 		.4byte	.LFB50
 11476 0024 20000000 		.4byte	.LFE50
 11477 0028 00000000 		.4byte	.LFB36
 11478 002c 4C000000 		.4byte	.LFE36
 11479 0030 00000000 		.4byte	.LFB40
 11480 0034 10000000 		.4byte	.LFE40
 11481 0038 00000000 		.4byte	.LFB35
 11482 003c CC000000 		.4byte	.LFE35
 11483 0040 00000000 		.4byte	.LFB43
ARM GAS  C:\Users\VIDEOH~1\AppData\Local\Temp\ccM4oHTP.s 			page 227


 11484 0044 18000000 		.4byte	.LFE43
 11485 0048 00000000 		.4byte	.LFB65
 11486 004c 48000000 		.4byte	.LFE65
 11487 0050 00000000 		.4byte	.LFB38
 11488 0054 A0000000 		.4byte	.LFE38
 11489 0058 00000000 		.4byte	.LFB51
 11490 005c B4000000 		.4byte	.LFE51
 11491 0060 00000000 		.4byte	.LFB58
 11492 0064 68000000 		.4byte	.LFE58
 11493 0068 00000000 		.4byte	.LFB59
 11494 006c 9C000000 		.4byte	.LFE59
 11495 0070 00000000 		.4byte	.LFB62
 11496 0074 24000000 		.4byte	.LFE62
 11497 0078 00000000 		.4byte	.LFB60
 11498 007c CC000000 		.4byte	.LFE60
 11499 0080 00000000 		.4byte	.LFB61
 11500 0084 E8000000 		.4byte	.LFE61
 11501 0088 00000000 		.4byte	.LFB63
 11502 008c 74000000 		.4byte	.LFE63
 11503 0090 00000000 		.4byte	.LFB64
 11504 0094 88000000 		.4byte	.LFE64
 11505 0098 00000000 		.4byte	.LFB53
 11506 009c 0C010000 		.4byte	.LFE53
 11507 00a0 00000000 		.4byte	.LFB55
 11508 00a4 A0000000 		.4byte	.LFE55
 11509 00a8 00000000 		.4byte	.LFB39
 11510 00ac 4C010000 		.4byte	.LFE39
 11511 00b0 00000000 		.4byte	.LFB56
 11512 00b4 90000000 		.4byte	.LFE56
 11513 00b8 00000000 		.4byte	.LFB49
 11514 00bc 78000000 		.4byte	.LFE49
 11515 00c0 00000000 		.4byte	.LFB54
 11516 00c4 64010000 		.4byte	.LFE54
 11517 00c8 00000000 		.4byte	.LFB37
 11518 00cc 44000000 		.4byte	.LFE37
 11519 00d0 00000000 		.4byte	.LFB48
 11520 00d4 34010000 		.4byte	.LFE48
 11521 00d8 00000000 		.4byte	.LFB57
 11522 00dc AC000000 		.4byte	.LFE57
 11523 00e0 00000000 		.4byte	.LFB34
 11524 00e4 B4000000 		.4byte	.LFE34
 11525 00e8 00000000 		.4byte	.LFB41
 11526 00ec 18000000 		.4byte	.LFE41
 11527 00f0 00000000 		.4byte	.LFB42
 11528 00f4 18000000 		.4byte	.LFE42
 11529 00f8 00000000 		.4byte	.LFB44
 11530 00fc 30000000 		.4byte	.LFE44
 11531 0100 00000000 		.4byte	.LFB45
 11532 0104 48000000 		.4byte	.LFE45
 11533 0108 00000000 		.4byte	.LFB46
 11534 010c 18000000 		.4byte	.LFE46
 11535 0110 00000000 		.4byte	.LFB47
 11536 0114 18000000 		.4byte	.LFE47
 11537 0118 00000000 		.4byte	.LFB33
 11538 011c 5C000000 		.4byte	.LFE33
 11539 0120 00000000 		.4byte	.LFB66
 11540 0124 6C000000 		.4byte	.LFE66
ARM GAS  C:\Users\VIDEOH~1\AppData\Local\Temp\ccM4oHTP.s 			page 228


 11541 0128 00000000 		.4byte	0
 11542 012c 00000000 		.4byte	0
 11543              		.section	.debug_line,"",%progbits
 11544              	.Ldebug_line0:
 11545 0000 5C070000 		.section	.debug_str,"MS",%progbits,1
 11545      0200D602 
 11545      00000201 
 11545      FB0E0D00 
 11545      01010101 
 11546              	.LASF175:
 11547 0000 43794465 		.ascii	"CyDelay\000"
 11547      6C617900 
 11548              	.LASF70:
 11549 0008 55495F45 		.ascii	"UI_EVENT_UPDOWN\000"
 11549      56454E54 
 11549      5F555044 
 11549      4F574E00 
 11550              	.LASF54:
 11551 0018 6164635F 		.ascii	"adc_voltage_gain\000"
 11551      766F6C74 
 11551      6167655F 
 11551      6761696E 
 11551      00
 11552              	.LASF101:
 11553 0029 666F726D 		.ascii	"format_number\000"
 11553      61745F6E 
 11553      756D6265 
 11553      7200
 11554              	.LASF28:
 11555 0037 63795F73 		.ascii	"cy_stc_eeprom_context_t\000"
 11555      74635F65 
 11555      6570726F 
 11555      6D5F636F 
 11555      6E746578 
 11556              	.LASF166:
 11557 004f 64656661 		.ascii	"default_settings\000"
 11557      756C745F 
 11557      73657474 
 11557      696E6773 
 11557      00
 11558              	.LASF198:
 11559 0060 7374726C 		.ascii	"strlen\000"
 11559      656E00
 11560              	.LASF186:
 11561 0067 49444143 		.ascii	"IDAC_Low_SetValue\000"
 11561      5F4C6F77 
 11561      5F536574 
 11561      56616C75 
 11561      6500
 11562              	.LASF210:
 11563 0079 51756164 		.ascii	"QuadButton_Read\000"
 11563      42757474 
 11563      6F6E5F52 
 11563      65616400 
 11564              	.LASF68:
 11565 0089 55495F45 		.ascii	"UI_EVENT_BUTTONPRESS\000"
 11565      56454E54 
ARM GAS  C:\Users\VIDEOH~1\AppData\Local\Temp\ccM4oHTP.s 			page 229


 11565      5F425554 
 11565      544F4E50 
 11565      52455353 
 11566              	.LASF76:
 11567 009e 4C494D49 		.ascii	"LIMIT_TYPE_UNDERVOLT\000"
 11567      545F5459 
 11567      50455F55 
 11567      4E444552 
 11567      564F4C54 
 11568              	.LASF57:
 11569 00b3 73657474 		.ascii	"settings_version\000"
 11569      696E6773 
 11569      5F766572 
 11569      73696F6E 
 11569      00
 11570              	.LASF79:
 11571 00c4 696E745F 		.ascii	"int_arg\000"
 11571      61726700 
 11572              	.LASF215:
 11573 00cc 443A5C31 		.ascii	"D:\\1_work\\my_project\\ReloadPro\\psoc42boot\\Relo"
 11573      5F776F72 
 11573      6B5C6D79 
 11573      5F70726F 
 11573      6A656374 
 11574 00fa 61642050 		.ascii	"ad Pro.cydsn\000"
 11574      726F2E63 
 11574      7964736E 
 11574      00
 11575              	.LASF93:
 11576 0107 6D656E75 		.ascii	"menudata\000"
 11576      64617461 
 11576      00
 11577              	.LASF10:
 11578 0110 756E7369 		.ascii	"unsigned int\000"
 11578      676E6564 
 11578      20696E74 
 11578      00
 11579              	.LASF197:
 11580 011d 6765745F 		.ascii	"get_output_mode\000"
 11580      6F757470 
 11580      75745F6D 
 11580      6F646500 
 11581              	.LASF200:
 11582 012d 44697370 		.ascii	"Display_DrawBigNumbers\000"
 11582      6C61795F 
 11582      44726177 
 11582      4269674E 
 11582      756D6265 
 11583              	.LASF81:
 11584 0144 7768656E 		.ascii	"when\000"
 11584      00
 11585              	.LASF138:
 11586 0149 73746167 		.ascii	"stage\000"
 11586      6500
 11587              	.LASF116:
 11588 014f 766F6C74 		.ascii	"voltage\000"
 11588      61676500 
ARM GAS  C:\Users\VIDEOH~1\AppData\Local\Temp\ccM4oHTP.s 			page 230


 11589              	.LASF161:
 11590 0157 70765061 		.ascii	"pvParameters\000"
 11590      72616D65 
 11590      74657273 
 11590      00
 11591              	.LASF75:
 11592 0164 4C494D49 		.ascii	"LIMIT_TYPE_OVERTEMP\000"
 11592      545F5459 
 11592      50455F4F 
 11592      56455254 
 11592      454D5000 
 11593              	.LASF65:
 11594 0178 706F7274 		.ascii	"portTickType\000"
 11594      5469636B 
 11594      54797065 
 11594      00
 11595              	.LASF121:
 11596 0185 75695F63 		.ascii	"ui_calibrate_dacs\000"
 11596      616C6962 
 11596      72617465 
 11596      5F646163 
 11596      7300
 11597              	.LASF83:
 11598 0197 66756E63 		.ascii	"func\000"
 11598      00
 11599              	.LASF46:
 11600 019c 64697370 		.ascii	"display_settings_t\000"
 11600      6C61795F 
 11600      73657474 
 11600      696E6773 
 11600      5F7400
 11601              	.LASF89:
 11602 01af 6E65775F 		.ascii	"new_state\000"
 11602      73746174 
 11602      6500
 11603              	.LASF131:
 11604 01b9 70616464 		.ascii	"padding\000"
 11604      696E6700 
 11605              	.LASF203:
 11606 01c1 51756164 		.ascii	"Quadrature_ClearInterrupt\000"
 11606      72617475 
 11606      72655F43 
 11606      6C656172 
 11606      496E7465 
 11607              	.LASF190:
 11608 01db 44697370 		.ascii	"Display_Clear\000"
 11608      6C61795F 
 11608      436C6561 
 11608      7200
 11609              	.LASF85:
 11610 01e9 72656164 		.ascii	"readout_function_impl\000"
 11610      6F75745F 
 11610      66756E63 
 11610      74696F6E 
 11610      5F696D70 
 11611              	.LASF100:
 11612 01ff 72656D61 		.ascii	"remainder\000"
ARM GAS  C:\Users\VIDEOH~1\AppData\Local\Temp\ccM4oHTP.s 			page 231


 11612      696E6465 
 11612      7200
 11613              	.LASF69:
 11614 0209 55495F45 		.ascii	"UI_EVENT_LONG_BUTTONPRESS\000"
 11614      56454E54 
 11614      5F4C4F4E 
 11614      475F4255 
 11614      54544F4E 
 11615              	.LASF42:
 11616 0223 72656164 		.ascii	"readouts\000"
 11616      6F757473 
 11616      00
 11617              	.LASF91:
 11618 022c 7469746C 		.ascii	"title\000"
 11618      6500
 11619              	.LASF125:
 11620 0232 6F766572 		.ascii	"overlimit\000"
 11620      6C696D69 
 11620      7400
 11621              	.LASF12:
 11622 023c 75696E74 		.ascii	"uint32_t\000"
 11622      33325F74 
 11622      00
 11623              	.LASF21:
 11624 0245 6E756D62 		.ascii	"numberOfRows\000"
 11624      65724F66 
 11624      526F7773 
 11624      00
 11625              	.LASF63:
 11626 0252 4F555450 		.ascii	"OUTPUT_MODE_ON\000"
 11626      55545F4D 
 11626      4F44455F 
 11626      4F4E00
 11627              	.LASF178:
 11628 0261 73747263 		.ascii	"strcat\000"
 11628      617400
 11629              	.LASF16:
 11630 0268 666C6F61 		.ascii	"float\000"
 11630      7400
 11631              	.LASF108:
 11632 026e 6576656E 		.ascii	"event\000"
 11632      7400
 11633              	.LASF189:
 11634 0274 6765745F 		.ascii	"get_raw_voltage\000"
 11634      7261775F 
 11634      766F6C74 
 11634      61676500 
 11635              	.LASF149:
 11636 0284 636F756E 		.ascii	"count\000"
 11636      7400
 11637              	.LASF184:
 11638 028a 78517565 		.ascii	"xQueueGenericReceive\000"
 11638      75654765 
 11638      6E657269 
 11638      63526563 
 11638      65697665 
 11639              	.LASF80:
ARM GAS  C:\Users\VIDEOH~1\AppData\Local\Temp\ccM4oHTP.s 			page 232


 11640 029f 64757261 		.ascii	"duration\000"
 11640      74696F6E 
 11640      00
 11641              	.LASF23:
 11642 02a8 65657072 		.ascii	"eepromSize\000"
 11642      6F6D5369 
 11642      7A6500
 11643              	.LASF72:
 11644 02b3 55495F45 		.ascii	"UI_EVENT_LIMIT\000"
 11644      56454E54 
 11644      5F4C494D 
 11644      495400
 11645              	.LASF36:
 11646 02c2 52454144 		.ascii	"READOUT_VOLTAGE\000"
 11646      4F55545F 
 11646      564F4C54 
 11646      41474500 
 11647              	.LASF82:
 11648 02d2 75695F65 		.ascii	"ui_event\000"
 11648      76656E74 
 11648      00
 11649              	.LASF9:
 11650 02db 6C6F6E67 		.ascii	"long long unsigned int\000"
 11650      206C6F6E 
 11650      6720756E 
 11650      7369676E 
 11650      65642069 
 11651              	.LASF204:
 11652 02f2 78546173 		.ascii	"xTaskGetTickCountFromISR\000"
 11652      6B476574 
 11652      5469636B 
 11652      436F756E 
 11652      7446726F 
 11653              	.LASF120:
 11654 030b 75695F63 		.ascii	"ui_calibrate_voltage_correction\000"
 11654      616C6962 
 11654      72617465 
 11654      5F766F6C 
 11654      74616765 
 11655              	.LASF181:
 11656 032b 44697370 		.ascii	"Display_DrawText\000"
 11656      6C61795F 
 11656      44726177 
 11656      54657874 
 11656      00
 11657              	.LASF195:
 11658 033c 43795F45 		.ascii	"Cy_Em_EEPROM_Write\000"
 11658      6D5F4545 
 11658      50524F4D 
 11658      5F577269 
 11658      746500
 11659              	.LASF129:
 11660 034f 73746172 		.ascii	"start_row\000"
 11660      745F726F 
 11660      7700
 11661              	.LASF112:
 11662 0359 66756C6C 		.ascii	"fullLoadVoltage\000"
ARM GAS  C:\Users\VIDEOH~1\AppData\Local\Temp\ccM4oHTP.s 			page 233


 11662      4C6F6164 
 11662      566F6C74 
 11662      61676500 
 11663              	.LASF191:
 11664 0369 6765745F 		.ascii	"get_raw_current_usage\000"
 11664      7261775F 
 11664      63757272 
 11664      656E745F 
 11664      75736167 
 11665              	.LASF87:
 11666 037f 73746174 		.ascii	"state_func\000"
 11666      655F6675 
 11666      6E6300
 11667              	.LASF55:
 11668 038a 766F6C74 		.ascii	"voltage_correction_ratio\000"
 11668      6167655F 
 11668      636F7272 
 11668      65637469 
 11668      6F6E5F72 
 11669              	.LASF88:
 11670 03a3 63617074 		.ascii	"caption\000"
 11670      696F6E00 
 11671              	.LASF113:
 11672 03ab 75695F63 		.ascii	"ui_calibrate_offsets\000"
 11672      616C6962 
 11672      72617465 
 11672      5F6F6666 
 11672      73657473 
 11673              	.LASF26:
 11674 03c0 626C6F63 		.ascii	"blockingWrite\000"
 11674      6B696E67 
 11674      57726974 
 11674      6500
 11675              	.LASF169:
 11676 03ce 63686F6F 		.ascii	"choose_readout_menu\000"
 11676      73655F72 
 11676      6561646F 
 11676      75745F6D 
 11676      656E7500 
 11677              	.LASF179:
 11678 03e2 6765745F 		.ascii	"get_voltage\000"
 11678      766F6C74 
 11678      61676500 
 11679              	.LASF145:
 11680 03ee 63635F6C 		.ascii	"cc_load\000"
 11680      6F616400 
 11681              	.LASF124:
 11682 03f6 636F6E74 		.ascii	"contrast\000"
 11682      72617374 
 11682      00
 11683              	.LASF107:
 11684 03ff 6E657874 		.ascii	"next_event\000"
 11684      5F657665 
 11684      6E7400
 11685              	.LASF48:
 11686 040a 6461635F 		.ascii	"dac_high_gain\000"
 11686      68696768 
ARM GAS  C:\Users\VIDEOH~1\AppData\Local\Temp\ccM4oHTP.s 			page 234


 11686      5F676169 
 11686      6E00
 11687              	.LASF207:
 11688 0418 6765745F 		.ascii	"get_current_usage\000"
 11688      63757272 
 11688      656E745F 
 11688      75736167 
 11688      6500
 11689              	.LASF199:
 11690 042a 75617274 		.ascii	"uart_printf\000"
 11690      5F707269 
 11690      6E746600 
 11691              	.LASF56:
 11692 0436 63616C69 		.ascii	"calibration_settings_t\000"
 11692      62726174 
 11692      696F6E5F 
 11692      73657474 
 11692      696E6773 
 11693              	.LASF27:
 11694 044d 75736572 		.ascii	"userFlashStartAddr\000"
 11694      466C6173 
 11694      68537461 
 11694      72744164 
 11694      647200
 11695              	.LASF205:
 11696 0460 78517565 		.ascii	"xQueueGenericSendFromISR\000"
 11696      75654765 
 11696      6E657269 
 11696      6353656E 
 11696      6446726F 
 11697              	.LASF40:
 11698 0479 52454144 		.ascii	"READOUT_TOTAL_POWER\000"
 11698      4F55545F 
 11698      544F5441 
 11698      4C5F504F 
 11698      57455200 
 11699              	.LASF97:
 11700 048d 666F726D 		.ascii	"format_number_simple\000"
 11700      61745F6E 
 11700      756D6265 
 11700      725F7369 
 11700      6D706C65 
 11701              	.LASF137:
 11702 04a2 766C696D 		.ascii	"vlim\000"
 11702      00
 11703              	.LASF111:
 11704 04a7 68616C66 		.ascii	"halfLoadVoltage\000"
 11704      4C6F6164 
 11704      566F6C74 
 11704      61676500 
 11705              	.LASF182:
 11706 04b7 426F6F74 		.ascii	"Bootloadable_Load\000"
 11706      6C6F6164 
 11706      61626C65 
 11706      5F4C6F61 
 11706      6400
 11707              	.LASF139:
ARM GAS  C:\Users\VIDEOH~1\AppData\Local\Temp\ccM4oHTP.s 			page 235


 11708 04c9 61646A75 		.ascii	"adjust_current_setpoint\000"
 11708      73745F63 
 11708      75727265 
 11708      6E745F73 
 11708      6574706F 
 11709              	.LASF33:
 11710 04e1 52454144 		.ascii	"READOUT_NONE\000"
 11710      4F55545F 
 11710      4E4F4E45 
 11710      00
 11711              	.LASF192:
 11712 04ee 63616C69 		.ascii	"calibrate_opamp_offset_trim\000"
 11712      62726174 
 11712      655F6F70 
 11712      616D705F 
 11712      6F666673 
 11713              	.LASF165:
 11714 050a 73657474 		.ascii	"settings\000"
 11714      696E6773 
 11714      00
 11715              	.LASF29:
 11716 0513 63757272 		.ascii	"current_setpoint\000"
 11716      656E745F 
 11716      73657470 
 11716      6F696E74 
 11716      00
 11717              	.LASF103:
 11718 0524 7072696E 		.ascii	"print_nothing\000"
 11718      745F6E6F 
 11718      7468696E 
 11718      6700
 11719              	.LASF34:
 11720 0532 52454144 		.ascii	"READOUT_CURRENT_SETPOINT\000"
 11720      4F55545F 
 11720      43555252 
 11720      454E545F 
 11720      53455450 
 11721              	.LASF18:
 11722 054b 63686172 		.ascii	"char\000"
 11722      00
 11723              	.LASF32:
 11724 0550 73746174 		.ascii	"state_t\000"
 11724      655F7400 
 11725              	.LASF53:
 11726 0558 6164635F 		.ascii	"adc_voltage_offset\000"
 11726      766F6C74 
 11726      6167655F 
 11726      6F666673 
 11726      657400
 11727              	.LASF151:
 11728 056b 6C657665 		.ascii	"levels\000"
 11728      6C7300
 11729              	.LASF15:
 11730 0572 696E7438 		.ascii	"int8\000"
 11730      00
 11731              	.LASF142:
 11732 0577 64726177 		.ascii	"draw_status\000"
ARM GAS  C:\Users\VIDEOH~1\AppData\Local\Temp\ccM4oHTP.s 			page 236


 11732      5F737461 
 11732      74757300 
 11733              	.LASF60:
 11734 0583 63616C69 		.ascii	"calibration_settings\000"
 11734      62726174 
 11734      696F6E5F 
 11734      73657474 
 11734      696E6773 
 11735              	.LASF208:
 11736 0598 6765745F 		.ascii	"get_microamp_hours\000"
 11736      6D696372 
 11736      6F616D70 
 11736      5F686F75 
 11736      727300
 11737              	.LASF216:
 11738 05ab 73746174 		.ascii	"state_func_t\000"
 11738      655F6675 
 11738      6E635F74 
 11738      00
 11739              	.LASF11:
 11740 05b8 75696E74 		.ascii	"uint8_t\000"
 11740      385F7400 
 11741              	.LASF78:
 11742 05c0 74797065 		.ascii	"type\000"
 11742      00
 11743              	.LASF157:
 11744 05c5 7072696E 		.ascii	"print_amp_hours\000"
 11744      745F616D 
 11744      705F686F 
 11744      75727300 
 11745              	.LASF126:
 11746 05d5 64726177 		.ascii	"draw_menu\000"
 11746      5F6D656E 
 11746      7500
 11747              	.LASF143:
 11748 05df 666F7263 		.ascii	"force_current_setpoint_readout\000"
 11748      655F6375 
 11748      7272656E 
 11748      745F7365 
 11748      74706F69 
 11749              	.LASF211:
 11750 05fe 78517565 		.ascii	"xQueueGenericCreate\000"
 11750      75654765 
 11750      6E657269 
 11750      63437265 
 11750      61746500 
 11751              	.LASF20:
 11752 0612 776C456E 		.ascii	"wlEndAddr\000"
 11752      64416464 
 11752      7200
 11753              	.LASF159:
 11754 061c 76417070 		.ascii	"vApplicationTickHook\000"
 11754      6C696361 
 11754      74696F6E 
 11754      5469636B 
 11754      486F6F6B 
 11755              	.LASF144:
ARM GAS  C:\Users\VIDEOH~1\AppData\Local\Temp\ccM4oHTP.s 			page 237


 11756 0631 6C616265 		.ascii	"labelsize\000"
 11756      6C73697A 
 11756      6500
 11757              	.LASF183:
 11758 063b 78546173 		.ascii	"xTaskGetTickCount\000"
 11758      6B476574 
 11758      5469636B 
 11758      436F756E 
 11758      7400
 11759              	.LASF152:
 11760 064d 7072696E 		.ascii	"print_setpoint\000"
 11760      745F7365 
 11760      74706F69 
 11760      6E7400
 11761              	.LASF8:
 11762 065c 6C6F6E67 		.ascii	"long long int\000"
 11762      206C6F6E 
 11762      6720696E 
 11762      7400
 11763              	.LASF67:
 11764 066a 55495F45 		.ascii	"UI_EVENT_NONE\000"
 11764      56454E54 
 11764      5F4E4F4E 
 11764      4500
 11765              	.LASF117:
 11766 0678 75695F63 		.ascii	"ui_calibration_progress\000"
 11766      616C6962 
 11766      72617469 
 11766      6F6E5F70 
 11766      726F6772 
 11767              	.LASF90:
 11768 0690 6D656E75 		.ascii	"menuitem\000"
 11768      6974656D 
 11768      00
 11769              	.LASF160:
 11770 0699 62757474 		.ascii	"button_now\000"
 11770      6F6E5F6E 
 11770      6F7700
 11771              	.LASF35:
 11772 06a4 52454144 		.ascii	"READOUT_CURRENT_USAGE\000"
 11772      4F55545F 
 11772      43555252 
 11772      454E545F 
 11772      55534147 
 11773              	.LASF30:
 11774 06ba 6C6F7765 		.ascii	"lower_voltage_limit\000"
 11774      725F766F 
 11774      6C746167 
 11774      655F6C69 
 11774      6D697400 
 11775              	.LASF52:
 11776 06ce 6164635F 		.ascii	"adc_current_gain\000"
 11776      63757272 
 11776      656E745F 
 11776      6761696E 
 11776      00
 11777              	.LASF176:
ARM GAS  C:\Users\VIDEOH~1\AppData\Local\Temp\ccM4oHTP.s 			page 238


 11778 06df 43795379 		.ascii	"CySysWdtResetCounters\000"
 11778      73576474 
 11778      52657365 
 11778      74436F75 
 11778      6E746572 
 11779              	.LASF44:
 11780 06f5 6E616D65 		.ascii	"named\000"
 11780      6400
 11781              	.LASF31:
 11782 06fb 63616C69 		.ascii	"calibrating\000"
 11782      62726174 
 11782      696E6700 
 11783              	.LASF217:
 11784 0707 6D656173 		.ascii	"measure_Battery_ISR\000"
 11784      7572655F 
 11784      42617474 
 11784      6572795F 
 11784      49535200 
 11785              	.LASF194:
 11786 071b 7365745F 		.ascii	"set_output_mode\000"
 11786      6F757470 
 11786      75745F6D 
 11786      6F646500 
 11787              	.LASF168:
 11788 072b 7365745F 		.ascii	"set_readout_menu\000"
 11788      72656164 
 11788      6F75745F 
 11788      6D656E75 
 11788      00
 11789              	.LASF141:
 11790 073c 73746570 		.ascii	"step\000"
 11790      00
 11791              	.LASF14:
 11792 0741 75696E74 		.ascii	"uint32\000"
 11792      333200
 11793              	.LASF202:
 11794 0748 51756164 		.ascii	"Quadrature_Read\000"
 11794      72617475 
 11794      72655F52 
 11794      65616400 
 11795              	.LASF77:
 11796 0758 6C696D69 		.ascii	"limit_type\000"
 11796      745F7479 
 11796      706500
 11797              	.LASF95:
 11798 0763 7365636F 		.ascii	"seconds\000"
 11798      6E647300 
 11799              	.LASF106:
 11800 076b 75706772 		.ascii	"upgrade\000"
 11800      61646500 
 11801              	.LASF188:
 11802 0773 63616C69 		.ascii	"calibrate_offsets\000"
 11802      62726174 
 11802      655F6F66 
 11802      66736574 
 11802      7300
 11803              	.LASF99:
ARM GAS  C:\Users\VIDEOH~1\AppData\Local\Temp\ccM4oHTP.s 			page 239


 11804 0785 77686F6C 		.ascii	"whole\000"
 11804      6500
 11805              	.LASF130:
 11806 078b 68656967 		.ascii	"height\000"
 11806      687400
 11807              	.LASF49:
 11808 0792 6461635F 		.ascii	"dac_offset\000"
 11808      6F666673 
 11808      657400
 11809              	.LASF174:
 11810 079d 72656164 		.ascii	"readout_functions\000"
 11810      6F75745F 
 11810      66756E63 
 11810      74696F6E 
 11810      7300
 11811              	.LASF51:
 11812 07af 6164635F 		.ascii	"adc_current_offset\000"
 11812      63757272 
 11812      656E745F 
 11812      6F666673 
 11812      657400
 11813              	.LASF146:
 11814 07c2 6C617374 		.ascii	"last_adjust_current_setpoint\000"
 11814      5F61646A 
 11814      7573745F 
 11814      63757272 
 11814      656E745F 
 11815              	.LASF128:
 11816 07df 73656C65 		.ascii	"selected\000"
 11816      63746564 
 11816      00
 11817              	.LASF92:
 11818 07e8 6974656D 		.ascii	"items\000"
 11818      7300
 11819              	.LASF39:
 11820 07ee 52454144 		.ascii	"READOUT_TOTAL_CURRENT\000"
 11820      4F55545F 
 11820      544F5441 
 11820      4C5F4355 
 11820      5252454E 
 11821              	.LASF109:
 11822 0804 6C617374 		.ascii	"last_tick\000"
 11822      5F746963 
 11822      6B00
 11823              	.LASF177:
 11824 080e 73707269 		.ascii	"sprintf\000"
 11824      6E746600 
 11825              	.LASF206:
 11826 0816 6765745F 		.ascii	"get_current_setpoint\000"
 11826      63757272 
 11826      656E745F 
 11826      73657470 
 11826      6F696E74 
 11827              	.LASF136:
 11828 082b 75695F73 		.ascii	"ui_set_min_voltage\000"
 11828      65745F6D 
 11828      696E5F76 
ARM GAS  C:\Users\VIDEOH~1\AppData\Local\Temp\ccM4oHTP.s 			page 240


 11828      6F6C7461 
 11828      676500
 11829              	.LASF173:
 11830 083e 71756164 		.ascii	"quadrature_states\000"
 11830      72617475 
 11830      72655F73 
 11830      74617465 
 11830      7300
 11831              	.LASF47:
 11832 0850 6461635F 		.ascii	"dac_low_gain\000"
 11832      6C6F775F 
 11832      6761696E 
 11832      00
 11833              	.LASF98:
 11834 085d 73756666 		.ascii	"suffix\000"
 11834      697800
 11835              	.LASF133:
 11836 0864 636F6E66 		.ascii	"config\000"
 11836      696700
 11837              	.LASF43:
 11838 086b 64697370 		.ascii	"display_config_t\000"
 11838      6C61795F 
 11838      636F6E66 
 11838      69675F74 
 11838      00
 11839              	.LASF201:
 11840 087c 73747263 		.ascii	"strchr\000"
 11840      687200
 11841              	.LASF119:
 11842 0883 75695F63 		.ascii	"ui_calibrate_current\000"
 11842      616C6962 
 11842      72617465 
 11842      5F637572 
 11842      72656E74 
 11843              	.LASF2:
 11844 0898 73686F72 		.ascii	"short int\000"
 11844      7420696E 
 11844      7400
 11845              	.LASF154:
 11846 08a2 7072696E 		.ascii	"print_power\000"
 11846      745F706F 
 11846      77657200 
 11847              	.LASF134:
 11848 08ae 64697370 		.ascii	"display\000"
 11848      6C617900 
 11849              	.LASF4:
 11850 08b6 6C6F6E67 		.ascii	"long int\000"
 11850      20696E74 
 11850      00
 11851              	.LASF45:
 11852 08bf 6E756D62 		.ascii	"numbered\000"
 11852      65726564 
 11852      00
 11853              	.LASF196:
 11854 08c8 44697370 		.ascii	"Display_SetContrast\000"
 11854      6C61795F 
 11854      53657443 
ARM GAS  C:\Users\VIDEOH~1\AppData\Local\Temp\ccM4oHTP.s 			page 241


 11854      6F6E7472 
 11854      61737400 
 11855              	.LASF41:
 11856 08dc 72656164 		.ascii	"readout_function\000"
 11856      6F75745F 
 11856      66756E63 
 11856      74696F6E 
 11856      00
 11857              	.LASF94:
 11858 08ed 766F6964 		.ascii	"void_func\000"
 11858      5F66756E 
 11858      6300
 11859              	.LASF105:
 11860 08f7 63616C6C 		.ascii	"call_void_func\000"
 11860      5F766F69 
 11860      645F6675 
 11860      6E6300
 11861              	.LASF115:
 11862 0906 75695F63 		.ascii	"ui_calibrate_voltage\000"
 11862      616C6962 
 11862      72617465 
 11862      5F766F6C 
 11862      74616765 
 11863              	.LASF172:
 11864 091b 6C6F6E67 		.ascii	"long_button_press_tick_count\000"
 11864      5F627574 
 11864      746F6E5F 
 11864      70726573 
 11864      735F7469 
 11865              	.LASF114:
 11866 0938 6E65775F 		.ascii	"new_settings\000"
 11866      73657474 
 11866      696E6773 
 11866      00
 11867              	.LASF148:
 11868 0945 6C617374 		.ascii	"last_levels\000"
 11868      5F6C6576 
 11868      656C7300 
 11869              	.LASF214:
 11870 0951 75692E63 		.ascii	"ui.c\000"
 11870      00
 11871              	.LASF218:
 11872 0956 76546173 		.ascii	"vTaskUI\000"
 11872      6B554900 
 11873              	.LASF123:
 11874 095e 7365745F 		.ascii	"set_contrast\000"
 11874      636F6E74 
 11874      72617374 
 11874      00
 11875              	.LASF209:
 11876 096b 6765745F 		.ascii	"get_microwatt_hours\000"
 11876      6D696372 
 11876      6F776174 
 11876      745F686F 
 11876      75727300 
 11877              	.LASF5:
 11878 097f 5F5F7569 		.ascii	"__uint8_t\000"
ARM GAS  C:\Users\VIDEOH~1\AppData\Local\Temp\ccM4oHTP.s 			page 242


 11878      6E74385F 
 11878      7400
 11879              	.LASF62:
 11880 0989 4F555450 		.ascii	"OUTPUT_MODE_OFF\000"
 11880      55545F4D 
 11880      4F44455F 
 11880      4F464600 
 11881              	.LASF58:
 11882 0999 6C63645F 		.ascii	"lcd_contrast\000"
 11882      636F6E74 
 11882      72617374 
 11882      00
 11883              	.LASF156:
 11884 09a6 7072696E 		.ascii	"print_resistance\000"
 11884      745F7265 
 11884      73697374 
 11884      616E6365 
 11884      00
 11885              	.LASF19:
 11886 09b7 73697A65 		.ascii	"sizetype\000"
 11886      74797065 
 11886      00
 11887              	.LASF7:
 11888 09c0 6C6F6E67 		.ascii	"long unsigned int\000"
 11888      20756E73 
 11888      69676E65 
 11888      6420696E 
 11888      7400
 11889              	.LASF122:
 11890 09d2 75695F63 		.ascii	"ui_calibrate\000"
 11890      616C6962 
 11890      72617465 
 11890      00
 11891              	.LASF50:
 11892 09df 6F70616D 		.ascii	"opamp_offset_trim\000"
 11892      705F6F66 
 11892      66736574 
 11892      5F747269 
 11892      6D00
 11893              	.LASF220:
 11894 09f1 5F5F6275 		.ascii	"__builtin_strlen\000"
 11894      696C7469 
 11894      6E5F7374 
 11894      726C656E 
 11894      00
 11895              	.LASF135:
 11896 0a02 72656164 		.ascii	"readout\000"
 11896      6F757400 
 11897              	.LASF24:
 11898 0a0a 77656172 		.ascii	"wearLevelingFactor\000"
 11898      4C657665 
 11898      6C696E67 
 11898      46616374 
 11898      6F7200
 11899              	.LASF150:
 11900 0a1d 6265666F 		.ascii	"before\000"
 11900      726500
ARM GAS  C:\Users\VIDEOH~1\AppData\Local\Temp\ccM4oHTP.s 			page 243


 11901              	.LASF164:
 11902 0a24 45455052 		.ascii	"EEPROM_context\000"
 11902      4F4D5F63 
 11902      6F6E7465 
 11902      787400
 11903              	.LASF66:
 11904 0a33 78517565 		.ascii	"xQueueHandle\000"
 11904      75654861 
 11904      6E646C65 
 11904      00
 11905              	.LASF37:
 11906 0a40 52454144 		.ascii	"READOUT_POWER\000"
 11906      4F55545F 
 11906      504F5745 
 11906      5200
 11907              	.LASF1:
 11908 0a4e 756E7369 		.ascii	"unsigned char\000"
 11908      676E6564 
 11908      20636861 
 11908      7200
 11909              	.LASF86:
 11910 0a5c 69735F6D 		.ascii	"is_main_state\000"
 11910      61696E5F 
 11910      73746174 
 11910      6500
 11911              	.LASF6:
 11912 0a6a 5F5F7569 		.ascii	"__uint32_t\000"
 11912      6E743332 
 11912      5F7400
 11913              	.LASF180:
 11914 0a75 44697370 		.ascii	"Display_ClearAll\000"
 11914      6C61795F 
 11914      436C6561 
 11914      72416C6C 
 11914      00
 11915              	.LASF25:
 11916 0a86 72656475 		.ascii	"redundantCopy\000"
 11916      6E64616E 
 11916      74436F70 
 11916      7900
 11917              	.LASF127:
 11918 0a94 6D656E75 		.ascii	"menu\000"
 11918      00
 11919              	.LASF171:
 11920 0a99 6D61696E 		.ascii	"main_menu\000"
 11920      5F6D656E 
 11920      7500
 11921              	.LASF213:
 11922 0aa3 474E5520 		.ascii	"GNU C99 5.4.1 20160609 (release) [ARM/embedded-5-br"
 11922      43393920 
 11922      352E342E 
 11922      31203230 
 11922      31363036 
 11923 0ad6 616E6368 		.ascii	"anch revision 237715] -mcpu=cortex-m0 -mthumb -g -O"
 11923      20726576 
 11923      6973696F 
 11923      6E203233 
ARM GAS  C:\Users\VIDEOH~1\AppData\Local\Temp\ccM4oHTP.s 			page 244


 11923      37373135 
 11924 0b09 67202D73 		.ascii	"g -std=gnu99 -ffunction-sections -ffat-lto-objects\000"
 11924      74643D67 
 11924      6E753939 
 11924      202D6666 
 11924      756E6374 
 11925              	.LASF71:
 11926 0b3c 55495F45 		.ascii	"UI_EVENT_TICK\000"
 11926      56454E54 
 11926      5F544943 
 11926      4B00
 11927              	.LASF163:
 11928 0b4a 73746174 		.ascii	"state\000"
 11928      6500
 11929              	.LASF167:
 11930 0b50 75695F71 		.ascii	"ui_queue\000"
 11930      75657565 
 11930      00
 11931              	.LASF74:
 11932 0b59 75695F65 		.ascii	"ui_event_type\000"
 11932      76656E74 
 11932      5F747970 
 11932      6500
 11933              	.LASF84:
 11934 0b67 6C616265 		.ascii	"label\000"
 11934      6C00
 11935              	.LASF73:
 11936 0b6d 55495F45 		.ascii	"UI_EVENT_BOOTLOAD\000"
 11936      56454E54 
 11936      5F424F4F 
 11936      544C4F41 
 11936      4400
 11937              	.LASF38:
 11938 0b7f 52454144 		.ascii	"READOUT_RESISTANCE\000"
 11938      4F55545F 
 11938      52455349 
 11938      5354414E 
 11938      434500
 11939              	.LASF155:
 11940 0b92 706F7765 		.ascii	"power\000"
 11940      7200
 11941              	.LASF193:
 11942 0b98 63616C69 		.ascii	"calibrate_dacs\000"
 11942      62726174 
 11942      655F6461 
 11942      637300
 11943              	.LASF0:
 11944 0ba7 7369676E 		.ascii	"signed char\000"
 11944      65642063 
 11944      68617200 
 11945              	.LASF140:
 11946 0bb3 64656C74 		.ascii	"delta\000"
 11946      6100
 11947              	.LASF3:
 11948 0bb9 73686F72 		.ascii	"short unsigned int\000"
 11948      7420756E 
 11948      7369676E 
ARM GAS  C:\Users\VIDEOH~1\AppData\Local\Temp\ccM4oHTP.s 			page 245


 11948      65642069 
 11948      6E7400
 11949              	.LASF219:
 11950 0bcc 6D656D63 		.ascii	"memcpy\000"
 11950      707900
 11951              	.LASF162:
 11952 0bd3 6D61696E 		.ascii	"main_state\000"
 11952      5F737461 
 11952      746500
 11953              	.LASF132:
 11954 0bde 64697370 		.ascii	"display_config\000"
 11954      6C61795F 
 11954      636F6E66 
 11954      696700
 11955              	.LASF61:
 11956 0bed 73657474 		.ascii	"settings_t\000"
 11956      696E6773 
 11956      5F7400
 11957              	.LASF118:
 11958 0bf8 63757272 		.ascii	"current\000"
 11958      656E7400 
 11959              	.LASF64:
 11960 0c00 4F555450 		.ascii	"OUTPUT_MODE_FEEDBACK\000"
 11960      55545F4D 
 11960      4F44455F 
 11960      46454544 
 11960      4241434B 
 11961              	.LASF158:
 11962 0c15 7072696E 		.ascii	"print_watt_hours\000"
 11962      745F7761 
 11962      74745F68 
 11962      6F757273 
 11962      00
 11963              	.LASF170:
 11964 0c26 746F6F6C 		.ascii	"tools_menu\000"
 11964      735F6D65 
 11964      6E7500
 11965              	.LASF13:
 11966 0c31 75696E74 		.ascii	"uint8\000"
 11966      3800
 11967              	.LASF17:
 11968 0c37 646F7562 		.ascii	"double\000"
 11968      6C6500
 11969              	.LASF22:
 11970 0c3e 6C617374 		.ascii	"lastWrRowAddr\000"
 11970      5772526F 
 11970      77416464 
 11970      7200
 11971              	.LASF59:
 11972 0c4c 64697370 		.ascii	"display_settings\000"
 11972      6C61795F 
 11972      73657474 
 11972      696E6773 
 11972      00
 11973              	.LASF102:
 11974 0c5d 6D61676E 		.ascii	"magnitude\000"
 11974      69747564 
ARM GAS  C:\Users\VIDEOH~1\AppData\Local\Temp\ccM4oHTP.s 			page 246


 11974      6500
 11975              	.LASF96:
 11976 0c67 64656C61 		.ascii	"delayWithWatchDog\000"
 11976      79576974 
 11976      68576174 
 11976      6368446F 
 11976      6700
 11977              	.LASF212:
 11978 0c79 51756164 		.ascii	"QuadratureISR_StartEx\000"
 11978      72617475 
 11978      72654953 
 11978      525F5374 
 11978      61727445 
 11979              	.LASF110:
 11980 0c8f 6C6F6E67 		.ascii	"long_press_sent\000"
 11980      5F707265 
 11980      73735F73 
 11980      656E7400 
 11981              	.LASF185:
 11982 0c9f 7365745F 		.ascii	"set_current\000"
 11982      63757272 
 11982      656E7400 
 11983              	.LASF153:
 11984 0cab 7072696E 		.ascii	"print_current_usage\000"
 11984      745F6375 
 11984      7272656E 
 11984      745F7573 
 11984      61676500 
 11985              	.LASF187:
 11986 0cbf 49444143 		.ascii	"IDAC_High_SetValue\000"
 11986      5F486967 
 11986      685F5365 
 11986      7456616C 
 11986      756500
 11987              	.LASF104:
 11988 0cd2 7072696E 		.ascii	"print_voltage\000"
 11988      745F766F 
 11988      6C746167 
 11988      6500
 11989              	.LASF147:
 11990 0ce0 71756164 		.ascii	"quadrature_event_isr\000"
 11990      72617475 
 11990      72655F65 
 11990      76656E74 
 11990      5F697372 
 11991              		.ident	"GCC: (GNU Tools for ARM Embedded Processors) 5.4.1 20160609 (release) [ARM/embedded-5-bran
