ARM GAS  C:\Users\VIDEOH~1\AppData\Local\Temp\cczfLGDl.s 			page 1


   1              		.syntax unified
   2              		.cpu cortex-m0
   3              		.fpu softvfp
   4              		.eabi_attribute 20, 1
   5              		.eabi_attribute 21, 1
   6              		.eabi_attribute 23, 3
   7              		.eabi_attribute 24, 1
   8              		.eabi_attribute 25, 1
   9              		.eabi_attribute 26, 1
  10              		.eabi_attribute 30, 1
  11              		.eabi_attribute 34, 0
  12              		.eabi_attribute 18, 4
  13              		.thumb
  14              		.syntax unified
  15              		.file	"utils.c"
  16              		.text
  17              	.Ltext0:
  18              		.cfi_sections	.debug_frame
  19              		.global	__aeabi_idiv
  20              		.global	__aeabi_idivmod
  21              		.section	.text.set_current,"ax",%progbits
  22              		.align	2
  23              		.global	set_current
  24              		.code	16
  25              		.thumb_func
  26              		.type	set_current, %function
  27              	set_current:
  28              	.LFB34:
  29              		.file 1 "utils.c"
   1:utils.c       **** /* ========================================
   2:utils.c       ****  *
   3:utils.c       ****  * Copyright YOUR COMPANY, THE YEAR
   4:utils.c       ****  * All Rights Reserved
   5:utils.c       ****  * UNPUBLISHED, LICENSED SOFTWARE.
   6:utils.c       ****  *
   7:utils.c       ****  * CONFIDENTIAL AND PROPRIETARY INFORMATION
   8:utils.c       ****  * WHICH IS THE PROPERTY OF your company.
   9:utils.c       ****  *
  10:utils.c       ****  * ========================================
  11:utils.c       **** */
  12:utils.c       **** 
  13:utils.c       **** #include <FreeRTOS.h>
  14:utils.c       **** #include <stdio.h>
  15:utils.c       **** #include "config.h"
  16:utils.c       **** 
  17:utils.c       **** 
  18:utils.c       **** void setup() {
  19:utils.c       **** 	state.current_setpoint = -1;
  20:utils.c       ****     state.lower_voltage_limit = -1;
  21:utils.c       **** 
  22:utils.c       **** 	set_current(0);
  23:utils.c       **** 	
  24:utils.c       **** 	CY_SET_REG32(Opamp_cy_psoc4_abuf__OA_OFFSET_TRIM, settings->calibration_settings.opamp_offset_trim
  25:utils.c       **** }
  26:utils.c       **** 
  27:utils.c       **** void set_current(int setpoint) {
  30              		.loc 1 27 0
ARM GAS  C:\Users\VIDEOH~1\AppData\Local\Temp\cczfLGDl.s 			page 2


  31              		.cfi_startproc
  32              		@ args = 0, pretend = 0, frame = 0
  33              		@ frame_needed = 0, uses_anonymous_args = 0
  34              	.LVL0:
  35 0000 70B5     		push	{r4, r5, r6, lr}
  36              		.cfi_def_cfa_offset 16
  37              		.cfi_offset 4, -16
  38              		.cfi_offset 5, -12
  39              		.cfi_offset 6, -8
  40              		.cfi_offset 14, -4
  28:utils.c       **** 	if(setpoint < 0)
  41              		.loc 1 28 0
  42 0002 0028     		cmp	r0, #0
  43 0004 00DA     		bge	.L2
  29:utils.c       **** 		setpoint = 0;
  44              		.loc 1 29 0
  45 0006 0020     		movs	r0, #0
  46              	.LVL1:
  47              	.L2:
  30:utils.c       ****     if (setpoint > CURRENT_MAX)
  48              		.loc 1 30 0
  49 0008 114B     		ldr	r3, .L8
  50 000a 9842     		cmp	r0, r3
  51 000c 00DD     		ble	.L3
  31:utils.c       ****         setpoint = CURRENT_MAX;
  52              		.loc 1 31 0
  53 000e 1800     		movs	r0, r3
  54              	.LVL2:
  55              	.L3:
  32:utils.c       **** 	state.current_setpoint = setpoint;
  56              		.loc 1 32 0
  57 0010 104B     		ldr	r3, .L8+4
  58 0012 1860     		str	r0, [r3]
  33:utils.c       **** 
  34:utils.c       ****     setpoint -= settings->calibration_settings.dac_offset;
  59              		.loc 1 34 0
  60 0014 104B     		ldr	r3, .L8+8
  61 0016 1B68     		ldr	r3, [r3]
  62 0018 5C69     		ldr	r4, [r3, #20]
  63 001a 041B     		subs	r4, r0, r4
  64              	.LVL3:
  35:utils.c       ****     setpoint -= get_dac_offset_correction();
  65              		.loc 1 35 0
  66 001c FFF7FEFF 		bl	get_dac_offset_correction
  67              	.LVL4:
  68 0020 241A     		subs	r4, r4, r0
  69              	.LVL5:
  36:utils.c       ****     if(setpoint < 0)
  70              		.loc 1 36 0
  71 0022 00D5     		bpl	.L4
  37:utils.c       ****         setpoint = 0;
  72              		.loc 1 37 0
  73 0024 0024     		movs	r4, #0
  74              	.LVL6:
  75              	.L4:
  38:utils.c       **** 
  39:utils.c       ****     IDAC_High_SetValue(setpoint / settings->calibration_settings.dac_high_gain);
ARM GAS  C:\Users\VIDEOH~1\AppData\Local\Temp\cczfLGDl.s 			page 3


  76              		.loc 1 39 0
  77 0026 0C4D     		ldr	r5, .L8+8
  78 0028 2B68     		ldr	r3, [r5]
  79 002a 1969     		ldr	r1, [r3, #16]
  80 002c 2000     		movs	r0, r4
  81 002e FFF7FEFF 		bl	__aeabi_idiv
  82              	.LVL7:
  83 0032 FFF7FEFF 		bl	IDAC_High_SetValue
  84              	.LVL8:
  40:utils.c       **** 	IDAC_Low_SetValue((setpoint % settings->calibration_settings.dac_high_gain) / settings->calibratio
  85              		.loc 1 40 0
  86 0036 2D68     		ldr	r5, [r5]
  87 0038 2969     		ldr	r1, [r5, #16]
  88 003a 2000     		movs	r0, r4
  89 003c FFF7FEFF 		bl	__aeabi_idivmod
  90              	.LVL9:
  91 0040 0800     		movs	r0, r1
  92 0042 E968     		ldr	r1, [r5, #12]
  93 0044 FFF7FEFF 		bl	__aeabi_idiv
  94              	.LVL10:
  95 0048 FFF7FEFF 		bl	IDAC_Low_SetValue
  96              	.LVL11:
  41:utils.c       **** }
  97              		.loc 1 41 0
  98              		@ sp needed
  99              	.LVL12:
 100 004c 70BD     		pop	{r4, r5, r6, pc}
 101              	.L9:
 102 004e C046     		.align	2
 103              	.L8:
 104 0050 808D5B00 		.word	6000000
 105 0054 00000000 		.word	state
 106 0058 00000000 		.word	settings
 107              		.cfi_endproc
 108              	.LFE34:
 109              		.size	set_current, .-set_current
 110              		.section	.text.setup,"ax",%progbits
 111              		.align	2
 112              		.global	setup
 113              		.code	16
 114              		.thumb_func
 115              		.type	setup, %function
 116              	setup:
 117              	.LFB33:
  18:utils.c       **** 	state.current_setpoint = -1;
 118              		.loc 1 18 0
 119              		.cfi_startproc
 120              		@ args = 0, pretend = 0, frame = 0
 121              		@ frame_needed = 0, uses_anonymous_args = 0
 122 0000 10B5     		push	{r4, lr}
 123              		.cfi_def_cfa_offset 8
 124              		.cfi_offset 4, -8
 125              		.cfi_offset 14, -4
  19:utils.c       ****     state.lower_voltage_limit = -1;
 126              		.loc 1 19 0
 127 0002 074B     		ldr	r3, .L11
 128 0004 0122     		movs	r2, #1
ARM GAS  C:\Users\VIDEOH~1\AppData\Local\Temp\cczfLGDl.s 			page 4


 129 0006 5242     		rsbs	r2, r2, #0
 130 0008 1A60     		str	r2, [r3]
  20:utils.c       **** 
 131              		.loc 1 20 0
 132 000a 5A60     		str	r2, [r3, #4]
  22:utils.c       **** 	
 133              		.loc 1 22 0
 134 000c 0020     		movs	r0, #0
 135 000e FFF7FEFF 		bl	set_current
 136              	.LVL13:
  24:utils.c       **** }
 137              		.loc 1 24 0
 138 0012 044B     		ldr	r3, .L11+4
 139 0014 1B68     		ldr	r3, [r3]
 140 0016 9A69     		ldr	r2, [r3, #24]
 141 0018 034B     		ldr	r3, .L11+8
 142 001a 1A60     		str	r2, [r3]
  25:utils.c       **** 
 143              		.loc 1 25 0
 144              		@ sp needed
 145 001c 10BD     		pop	{r4, pc}
 146              	.L12:
 147 001e C046     		.align	2
 148              	.L11:
 149 0020 00000000 		.word	state
 150 0024 00000000 		.word	settings
 151 0028 000F1040 		.word	1074794240
 152              		.cfi_endproc
 153              	.LFE33:
 154              		.size	setup, .-setup
 155              		.section	.text.get_current_setpoint,"ax",%progbits
 156              		.align	2
 157              		.global	get_current_setpoint
 158              		.code	16
 159              		.thumb_func
 160              		.type	get_current_setpoint, %function
 161              	get_current_setpoint:
 162              	.LFB35:
  42:utils.c       **** 
  43:utils.c       **** int get_current_setpoint() {
 163              		.loc 1 43 0
 164              		.cfi_startproc
 165              		@ args = 0, pretend = 0, frame = 0
 166              		@ frame_needed = 0, uses_anonymous_args = 0
 167              		@ link register save eliminated.
  44:utils.c       **** 	return state.current_setpoint;
 168              		.loc 1 44 0
 169 0000 014B     		ldr	r3, .L14
 170 0002 1868     		ldr	r0, [r3]
  45:utils.c       **** }
 171              		.loc 1 45 0
 172              		@ sp needed
 173 0004 7047     		bx	lr
 174              	.L15:
 175 0006 C046     		.align	2
 176              	.L14:
 177 0008 00000000 		.word	state
ARM GAS  C:\Users\VIDEOH~1\AppData\Local\Temp\cczfLGDl.s 			page 5


 178              		.cfi_endproc
 179              	.LFE35:
 180              		.size	get_current_setpoint, .-get_current_setpoint
 181              		.section	.text.get_major_version,"ax",%progbits
 182              		.align	2
 183              		.global	get_major_version
 184              		.code	16
 185              		.thumb_func
 186              		.type	get_major_version, %function
 187              	get_major_version:
 188              	.LFB36:
  46:utils.c       **** 
  47:utils.c       **** #define Bootloader_MD_SIZEOF (64u)
  48:utils.c       **** #define APP_VER_OFFSET (CYDEV_FLASH_SIZE - Bootloader_MD_SIZEOF + Bootloadable_META_APP_VER_OFFSET)
  49:utils.c       **** 
  50:utils.c       **** uint8 get_major_version() {
 189              		.loc 1 50 0
 190              		.cfi_startproc
 191              		@ args = 0, pretend = 0, frame = 0
 192              		@ frame_needed = 0, uses_anonymous_args = 0
 193              		@ link register save eliminated.
  51:utils.c       ****    return Bootloadable_GET_CODE_DATA(APP_VER_OFFSET + 1);
 194              		.loc 1 51 0
 195 0000 014B     		ldr	r3, .L17
 196 0002 1878     		ldrb	r0, [r3]
  52:utils.c       **** }
 197              		.loc 1 52 0
 198              		@ sp needed
 199 0004 7047     		bx	lr
 200              	.L18:
 201 0006 C046     		.align	2
 202              	.L17:
 203 0008 D77F0000 		.word	32727
 204              		.cfi_endproc
 205              	.LFE36:
 206              		.size	get_major_version, .-get_major_version
 207              		.section	.text.get_minor_version,"ax",%progbits
 208              		.align	2
 209              		.global	get_minor_version
 210              		.code	16
 211              		.thumb_func
 212              		.type	get_minor_version, %function
 213              	get_minor_version:
 214              	.LFB37:
  53:utils.c       **** 
  54:utils.c       **** uint8 get_minor_version() {
 215              		.loc 1 54 0
 216              		.cfi_startproc
 217              		@ args = 0, pretend = 0, frame = 0
 218              		@ frame_needed = 0, uses_anonymous_args = 0
 219              		@ link register save eliminated.
  55:utils.c       ****    return Bootloadable_GET_CODE_DATA(APP_VER_OFFSET);
 220              		.loc 1 55 0
 221 0000 014B     		ldr	r3, .L20
 222 0002 1878     		ldrb	r0, [r3]
  56:utils.c       **** }
 223              		.loc 1 56 0
ARM GAS  C:\Users\VIDEOH~1\AppData\Local\Temp\cczfLGDl.s 			page 6


 224              		@ sp needed
 225 0004 7047     		bx	lr
 226              	.L21:
 227 0006 C046     		.align	2
 228              	.L20:
 229 0008 D67F0000 		.word	32726
 230              		.cfi_endproc
 231              	.LFE37:
 232              		.size	get_minor_version, .-get_minor_version
 233              		.section	.text.set_output_mode,"ax",%progbits
 234              		.align	2
 235              		.global	set_output_mode
 236              		.code	16
 237              		.thumb_func
 238              		.type	set_output_mode, %function
 239              	set_output_mode:
 240              	.LFB38:
  57:utils.c       **** 
  58:utils.c       **** static output_mode current_output_mode = OUTPUT_MODE_FEEDBACK;
  59:utils.c       **** 
  60:utils.c       **** void set_output_mode(output_mode mode) {
 241              		.loc 1 60 0
 242              		.cfi_startproc
 243              		@ args = 0, pretend = 0, frame = 0
 244              		@ frame_needed = 0, uses_anonymous_args = 0
 245              	.LVL14:
 246 0000 10B5     		push	{r4, lr}
 247              		.cfi_def_cfa_offset 8
 248              		.cfi_offset 4, -8
 249              		.cfi_offset 14, -4
  61:utils.c       **** 	current_output_mode = mode;
 250              		.loc 1 61 0
 251 0002 104B     		ldr	r3, .L27
 252 0004 1870     		strb	r0, [r3]
  62:utils.c       **** 	switch(mode) {
 253              		.loc 1 62 0
 254 0006 0128     		cmp	r0, #1
 255 0008 0DD0     		beq	.L24
 256 000a 0028     		cmp	r0, #0
 257 000c 02D0     		beq	.L25
 258 000e 0228     		cmp	r0, #2
 259 0010 12D0     		beq	.L26
 260 0012 16E0     		b	.L22
 261              	.L25:
  63:utils.c       **** 	case OUTPUT_MODE_OFF:
  64:utils.c       ****         // Pull the gate low
  65:utils.c       **** 		Opamp_Stop();
 262              		.loc 1 65 0
 263 0014 FFF7FEFF 		bl	Opamp_Stop
 264              	.LVL15:
  66:utils.c       **** 		Opamp_Out_Write(0);
 265              		.loc 1 66 0
 266 0018 0020     		movs	r0, #0
 267 001a FFF7FEFF 		bl	Opamp_Out_Write
 268              	.LVL16:
  67:utils.c       **** 		Opamp_Out_SetDriveMode(Opamp_Out_DM_STRONG);
 269              		.loc 1 67 0
ARM GAS  C:\Users\VIDEOH~1\AppData\Local\Temp\cczfLGDl.s 			page 7


 270 001e 0620     		movs	r0, #6
 271 0020 FFF7FEFF 		bl	Opamp_Out_SetDriveMode
 272              	.LVL17:
  68:utils.c       **** 		break;
 273              		.loc 1 68 0
 274 0024 0DE0     		b	.L22
 275              	.LVL18:
 276              	.L24:
  69:utils.c       **** 	case OUTPUT_MODE_ON:
  70:utils.c       **** 		// Stop the opamp and set the gate high
  71:utils.c       **** 		Opamp_Stop();
 277              		.loc 1 71 0
 278 0026 FFF7FEFF 		bl	Opamp_Stop
 279              	.LVL19:
  72:utils.c       **** 		Opamp_Out_Write(1);
 280              		.loc 1 72 0
 281 002a 0120     		movs	r0, #1
 282 002c FFF7FEFF 		bl	Opamp_Out_Write
 283              	.LVL20:
  73:utils.c       **** 		Opamp_Out_SetDriveMode(Opamp_Out_DM_STRONG);
 284              		.loc 1 73 0
 285 0030 0620     		movs	r0, #6
 286 0032 FFF7FEFF 		bl	Opamp_Out_SetDriveMode
 287              	.LVL21:
  74:utils.c       **** 		break;
 288              		.loc 1 74 0
 289 0036 04E0     		b	.L22
 290              	.LVL22:
 291              	.L26:
  75:utils.c       **** 	case OUTPUT_MODE_FEEDBACK:
  76:utils.c       **** 		// Start the opamp and set the pin to hi-z
  77:utils.c       **** 		Opamp_Out_SetDriveMode(Opamp_Out_DM_ALG_HIZ);
 292              		.loc 1 77 0
 293 0038 0020     		movs	r0, #0
 294              	.LVL23:
 295 003a FFF7FEFF 		bl	Opamp_Out_SetDriveMode
 296              	.LVL24:
  78:utils.c       **** 		Opamp_Start();
 297              		.loc 1 78 0
 298 003e FFF7FEFF 		bl	Opamp_Start
 299              	.LVL25:
 300              	.L22:
  79:utils.c       **** 		break;
  80:utils.c       **** 	}
  81:utils.c       **** }
 301              		.loc 1 81 0
 302              		@ sp needed
 303 0042 10BD     		pop	{r4, pc}
 304              	.L28:
 305              		.align	2
 306              	.L27:
 307 0044 00000000 		.word	.LANCHOR0
 308              		.cfi_endproc
 309              	.LFE38:
 310              		.size	set_output_mode, .-set_output_mode
 311              		.section	.text.get_output_mode,"ax",%progbits
 312              		.align	2
ARM GAS  C:\Users\VIDEOH~1\AppData\Local\Temp\cczfLGDl.s 			page 8


 313              		.global	get_output_mode
 314              		.code	16
 315              		.thumb_func
 316              		.type	get_output_mode, %function
 317              	get_output_mode:
 318              	.LFB39:
  82:utils.c       **** 
  83:utils.c       **** output_mode get_output_mode() {
 319              		.loc 1 83 0
 320              		.cfi_startproc
 321              		@ args = 0, pretend = 0, frame = 0
 322              		@ frame_needed = 0, uses_anonymous_args = 0
 323              		@ link register save eliminated.
  84:utils.c       **** 	return current_output_mode;
 324              		.loc 1 84 0
 325 0000 014B     		ldr	r3, .L30
 326 0002 1878     		ldrb	r0, [r3]
  85:utils.c       **** }
 327              		.loc 1 85 0
 328              		@ sp needed
 329 0004 7047     		bx	lr
 330              	.L31:
 331 0006 C046     		.align	2
 332              	.L30:
 333 0008 00000000 		.word	.LANCHOR0
 334              		.cfi_endproc
 335              	.LFE39:
 336              		.size	get_output_mode, .-get_output_mode
 337              		.data
 338              		.set	.LANCHOR0,. + 0
 339              		.type	current_output_mode, %object
 340              		.size	current_output_mode, 1
 341              	current_output_mode:
 342 0000 02       		.byte	2
 343              		.text
 344              	.Letext0:
 345              		.file 2 "c:\\program files (x86)\\cypress\\psoc creator\\4.2\\psoc creator\\import\\gnu\\arm\\5.4.
 346              		.file 3 "c:\\program files (x86)\\cypress\\psoc creator\\4.2\\psoc creator\\import\\gnu\\arm\\5.4.
 347              		.file 4 "Generated_Source\\PSoC4/cytypes.h"
 348              		.file 5 "config.h"
 349              		.file 6 "Generated_Source\\PSoC4/IDAC_High.h"
 350              		.file 7 "Generated_Source\\PSoC4/IDAC_Low.h"
 351              		.file 8 "Generated_Source\\PSoC4/Opamp.h"
 352              		.file 9 "Generated_Source\\PSoC4/Opamp_Out.h"