ARM GAS  C:\Users\VIDEOH~1\AppData\Local\Temp\ccZFo3gc.s 			page 1


   1              		.syntax unified
   2              		.cpu cortex-m0
   3              		.fpu softvfp
   4              		.eabi_attribute 20, 1
   5              		.eabi_attribute 21, 1
   6              		.eabi_attribute 23, 3
   7              		.eabi_attribute 24, 1
   8              		.eabi_attribute 25, 1
   9              		.eabi_attribute 26, 1
  10              		.eabi_attribute 30, 4
  11              		.eabi_attribute 34, 0
  12              		.eabi_attribute 18, 4
  13              		.thumb
  14              		.syntax unified
  15              		.file	"ADC.c"
  16              		.text
  17              	.Ltext0:
  18              		.cfi_sections	.debug_frame
  19              		.section	.text.ADC_Init,"ax",%progbits
  20              		.align	1
  21              		.global	ADC_Init
  22              		.code	16
  23              		.thumb_func
  24              		.type	ADC_Init, %function
  25              	ADC_Init:
  26              	.LFB1:
  27              		.file 1 "Generated_Source\\PSoC4\\ADC.c"
   1:Generated_Source\PSoC4/ADC.c **** /*******************************************************************************
   2:Generated_Source\PSoC4/ADC.c **** * File Name: ADC.c
   3:Generated_Source\PSoC4/ADC.c **** * Version 2.50
   4:Generated_Source\PSoC4/ADC.c **** *
   5:Generated_Source\PSoC4/ADC.c **** * Description:
   6:Generated_Source\PSoC4/ADC.c **** *  This file provides the source code to the API for the Sequencing Successive
   7:Generated_Source\PSoC4/ADC.c **** *  Approximation ADC Component Component.
   8:Generated_Source\PSoC4/ADC.c **** *
   9:Generated_Source\PSoC4/ADC.c **** * Note:
  10:Generated_Source\PSoC4/ADC.c **** *
  11:Generated_Source\PSoC4/ADC.c **** ********************************************************************************
  12:Generated_Source\PSoC4/ADC.c **** * Copyright 2008-2017, Cypress Semiconductor Corporation.  All rights reserved.
  13:Generated_Source\PSoC4/ADC.c **** * You may use this file only in accordance with the license, terms, conditions,
  14:Generated_Source\PSoC4/ADC.c **** * disclaimers, and limitations in the end user license agreement accompanying
  15:Generated_Source\PSoC4/ADC.c **** * the software package with which this file was provided.
  16:Generated_Source\PSoC4/ADC.c **** *******************************************************************************/
  17:Generated_Source\PSoC4/ADC.c **** 
  18:Generated_Source\PSoC4/ADC.c **** #include "ADC.h"
  19:Generated_Source\PSoC4/ADC.c **** 
  20:Generated_Source\PSoC4/ADC.c **** 
  21:Generated_Source\PSoC4/ADC.c **** /***************************************
  22:Generated_Source\PSoC4/ADC.c **** * Global data allocation
  23:Generated_Source\PSoC4/ADC.c **** ***************************************/
  24:Generated_Source\PSoC4/ADC.c **** uint8 ADC_initVar = 0u;
  25:Generated_Source\PSoC4/ADC.c **** volatile int16 ADC_offset[ADC_TOTAL_CHANNELS_NUM];
  26:Generated_Source\PSoC4/ADC.c **** volatile int32 ADC_countsPer10Volt[ADC_TOTAL_CHANNELS_NUM];   /* Gain compensation */
  27:Generated_Source\PSoC4/ADC.c **** 
  28:Generated_Source\PSoC4/ADC.c **** 
  29:Generated_Source\PSoC4/ADC.c **** /***************************************
  30:Generated_Source\PSoC4/ADC.c **** * Local data allocation
ARM GAS  C:\Users\VIDEOH~1\AppData\Local\Temp\ccZFo3gc.s 			page 2


  31:Generated_Source\PSoC4/ADC.c **** ***************************************/
  32:Generated_Source\PSoC4/ADC.c **** /* Channels configuration generated by customiser */
  33:Generated_Source\PSoC4/ADC.c **** static const uint32 CYCODE ADC_channelsConfig[] = { 0x00001400u, 0x00001400u, 0x00000200u, 0x000002
  34:Generated_Source\PSoC4/ADC.c **** 
  35:Generated_Source\PSoC4/ADC.c **** 
  36:Generated_Source\PSoC4/ADC.c **** /*******************************************************************************
  37:Generated_Source\PSoC4/ADC.c **** * Function Name: ADC_Start
  38:Generated_Source\PSoC4/ADC.c **** ********************************************************************************
  39:Generated_Source\PSoC4/ADC.c **** *
  40:Generated_Source\PSoC4/ADC.c **** * Summary:
  41:Generated_Source\PSoC4/ADC.c **** *  Performs all required initialization for this component
  42:Generated_Source\PSoC4/ADC.c **** *  and enables the power. The power will be set to the appropriate
  43:Generated_Source\PSoC4/ADC.c **** *  power based on the clock frequency.
  44:Generated_Source\PSoC4/ADC.c **** *
  45:Generated_Source\PSoC4/ADC.c **** * Parameters:
  46:Generated_Source\PSoC4/ADC.c **** *  None.
  47:Generated_Source\PSoC4/ADC.c **** *
  48:Generated_Source\PSoC4/ADC.c **** * Return:
  49:Generated_Source\PSoC4/ADC.c **** *  None.
  50:Generated_Source\PSoC4/ADC.c **** *
  51:Generated_Source\PSoC4/ADC.c **** * Global variables:
  52:Generated_Source\PSoC4/ADC.c **** *  The ADC_initVar variable is used to indicate when/if initial
  53:Generated_Source\PSoC4/ADC.c **** *  configuration of this component has happened. The variable is initialized to
  54:Generated_Source\PSoC4/ADC.c **** *  zero and set to 1 the first time ADC_Start() is called. This allows for
  55:Generated_Source\PSoC4/ADC.c **** *  component Re-Start without re-initialization in all subsequent calls to the
  56:Generated_Source\PSoC4/ADC.c **** *  ADC_Start() routine.
  57:Generated_Source\PSoC4/ADC.c **** *  If re-initialization of the component is required the variable should be set
  58:Generated_Source\PSoC4/ADC.c **** *  to zero before call of ADC_Start() routine, or the user may call
  59:Generated_Source\PSoC4/ADC.c **** *  ADC_Init() and ADC_Enable() as done in the
  60:Generated_Source\PSoC4/ADC.c **** *  ADC_Start() routine.
  61:Generated_Source\PSoC4/ADC.c **** *
  62:Generated_Source\PSoC4/ADC.c **** *******************************************************************************/
  63:Generated_Source\PSoC4/ADC.c **** void ADC_Start(void)
  64:Generated_Source\PSoC4/ADC.c **** {
  65:Generated_Source\PSoC4/ADC.c ****     /* If not Initialized then initialize all required hardware and software */
  66:Generated_Source\PSoC4/ADC.c ****     if(ADC_initVar == 0u)
  67:Generated_Source\PSoC4/ADC.c ****     {
  68:Generated_Source\PSoC4/ADC.c ****         ADC_Init();
  69:Generated_Source\PSoC4/ADC.c ****         ADC_initVar = 1u;
  70:Generated_Source\PSoC4/ADC.c ****     }
  71:Generated_Source\PSoC4/ADC.c ****     ADC_Enable();
  72:Generated_Source\PSoC4/ADC.c **** }
  73:Generated_Source\PSoC4/ADC.c **** 
  74:Generated_Source\PSoC4/ADC.c **** 
  75:Generated_Source\PSoC4/ADC.c **** /*******************************************************************************
  76:Generated_Source\PSoC4/ADC.c **** * Function Name: ADC_Init
  77:Generated_Source\PSoC4/ADC.c **** ********************************************************************************
  78:Generated_Source\PSoC4/ADC.c **** *
  79:Generated_Source\PSoC4/ADC.c **** * Summary:
  80:Generated_Source\PSoC4/ADC.c **** *  Initialize component's parameters to the parameters set by user in the
  81:Generated_Source\PSoC4/ADC.c **** *  customizer of the component placed onto schematic. Usually called in
  82:Generated_Source\PSoC4/ADC.c **** *  ADC_Start().
  83:Generated_Source\PSoC4/ADC.c **** *
  84:Generated_Source\PSoC4/ADC.c **** * Parameters:
  85:Generated_Source\PSoC4/ADC.c **** *  None.
  86:Generated_Source\PSoC4/ADC.c **** *
  87:Generated_Source\PSoC4/ADC.c **** * Return:
ARM GAS  C:\Users\VIDEOH~1\AppData\Local\Temp\ccZFo3gc.s 			page 3


  88:Generated_Source\PSoC4/ADC.c **** *  None.
  89:Generated_Source\PSoC4/ADC.c **** *
  90:Generated_Source\PSoC4/ADC.c **** * Global variables:
  91:Generated_Source\PSoC4/ADC.c **** *  The ADC_offset variable is initialized.
  92:Generated_Source\PSoC4/ADC.c **** *
  93:Generated_Source\PSoC4/ADC.c **** *******************************************************************************/
  94:Generated_Source\PSoC4/ADC.c **** void ADC_Init(void)
  95:Generated_Source\PSoC4/ADC.c **** {
  28              		.loc 1 95 0
  29              		.cfi_startproc
  30              		@ args = 0, pretend = 0, frame = 8
  31              		@ frame_needed = 0, uses_anonymous_args = 0
  32 0000 F7B5     		push	{r0, r1, r2, r4, r5, r6, r7, lr}
  33              		.cfi_def_cfa_offset 32
  34              		.cfi_offset 0, -32
  35              		.cfi_offset 1, -28
  36              		.cfi_offset 2, -24
  37              		.cfi_offset 4, -20
  38              		.cfi_offset 5, -16
  39              		.cfi_offset 6, -12
  40              		.cfi_offset 7, -8
  41              		.cfi_offset 14, -4
  96:Generated_Source\PSoC4/ADC.c ****     uint32 chNum;
  97:Generated_Source\PSoC4/ADC.c ****     uint32 tmpRegVal;
  98:Generated_Source\PSoC4/ADC.c ****     int32 counts;
  99:Generated_Source\PSoC4/ADC.c **** 
 100:Generated_Source\PSoC4/ADC.c ****     #if(ADC_TOTAL_CHANNELS_NUM > 1u)
 101:Generated_Source\PSoC4/ADC.c ****         static const uint8 CYCODE ADC_InputsPlacement[] =
 102:Generated_Source\PSoC4/ADC.c ****         {
 103:Generated_Source\PSoC4/ADC.c ****             (uint8)(ADC_cy_psoc4_sarmux_8__CH_0_PORT << 4u) |
 104:Generated_Source\PSoC4/ADC.c ****             (uint8)ADC_cy_psoc4_sarmux_8__CH_0_PIN
 105:Generated_Source\PSoC4/ADC.c ****             ,(uint8)(ADC_cy_psoc4_sarmux_8__CH_1_PORT << 4u) |
 106:Generated_Source\PSoC4/ADC.c ****              (uint8)ADC_cy_psoc4_sarmux_8__CH_1_PIN
 107:Generated_Source\PSoC4/ADC.c ****             #if(ADC_TOTAL_CHANNELS_NUM > 2u)
 108:Generated_Source\PSoC4/ADC.c ****                 ,(uint8)(ADC_cy_psoc4_sarmux_8__CH_2_PORT << 4u) |
 109:Generated_Source\PSoC4/ADC.c ****                  (uint8)ADC_cy_psoc4_sarmux_8__CH_2_PIN
 110:Generated_Source\PSoC4/ADC.c ****             #endif /* End ADC_TOTAL_CHANNELS_NUM > 2u */
 111:Generated_Source\PSoC4/ADC.c ****             #if(ADC_TOTAL_CHANNELS_NUM > 3u)
 112:Generated_Source\PSoC4/ADC.c ****                 ,(uint8)(ADC_cy_psoc4_sarmux_8__CH_3_PORT << 4u) |
 113:Generated_Source\PSoC4/ADC.c ****                  (uint8)ADC_cy_psoc4_sarmux_8__CH_3_PIN
 114:Generated_Source\PSoC4/ADC.c ****             #endif /* End ADC_TOTAL_CHANNELS_NUM > 3u */
 115:Generated_Source\PSoC4/ADC.c ****             #if(ADC_TOTAL_CHANNELS_NUM > 4u)
 116:Generated_Source\PSoC4/ADC.c ****                 ,(uint8)(ADC_cy_psoc4_sarmux_8__CH_4_PORT << 4u) |
 117:Generated_Source\PSoC4/ADC.c ****                  (uint8)ADC_cy_psoc4_sarmux_8__CH_4_PIN
 118:Generated_Source\PSoC4/ADC.c ****             #endif /* End ADC_TOTAL_CHANNELS_NUM > 4u */
 119:Generated_Source\PSoC4/ADC.c ****             #if(ADC_TOTAL_CHANNELS_NUM > 5u)
 120:Generated_Source\PSoC4/ADC.c ****                 ,(uint8)(ADC_cy_psoc4_sarmux_8__CH_5_PORT << 4u) |
 121:Generated_Source\PSoC4/ADC.c ****                  (uint8)ADC_cy_psoc4_sarmux_8__CH_5_PIN
 122:Generated_Source\PSoC4/ADC.c ****             #endif /* End ADC_TOTAL_CHANNELS_NUM > 5u */
 123:Generated_Source\PSoC4/ADC.c ****             #if(ADC_TOTAL_CHANNELS_NUM > 6u)
 124:Generated_Source\PSoC4/ADC.c ****                 ,(uint8)(ADC_cy_psoc4_sarmux_8__CH_6_PORT << 4u) |
 125:Generated_Source\PSoC4/ADC.c ****                  (uint8)ADC_cy_psoc4_sarmux_8__CH_6_PIN
 126:Generated_Source\PSoC4/ADC.c ****             #endif /* End ADC_TOTAL_CHANNELS_NUM > 6u */
 127:Generated_Source\PSoC4/ADC.c ****             #if(ADC_TOTAL_CHANNELS_NUM > 7u)
 128:Generated_Source\PSoC4/ADC.c ****                 ,(uint8)(ADC_cy_psoc4_sarmux_8__CH_7_PORT << 4u) |
 129:Generated_Source\PSoC4/ADC.c ****                  (uint8)ADC_cy_psoc4_sarmux_8__CH_7_PIN
 130:Generated_Source\PSoC4/ADC.c ****             #endif /* End ADC_TOTAL_CHANNELS_NUM > 7u */
ARM GAS  C:\Users\VIDEOH~1\AppData\Local\Temp\ccZFo3gc.s 			page 4


 131:Generated_Source\PSoC4/ADC.c ****             #if(ADC_TOTAL_CHANNELS_NUM > 8u)
 132:Generated_Source\PSoC4/ADC.c ****                 ,(uint8)(ADC_cy_psoc4_sarmux_8__CH_8_PORT << 4u) |
 133:Generated_Source\PSoC4/ADC.c ****                  (uint8)ADC_cy_psoc4_sarmux_8__CH_8_PIN
 134:Generated_Source\PSoC4/ADC.c ****             #endif /* End ADC_TOTAL_CHANNELS_NUM > 8u */
 135:Generated_Source\PSoC4/ADC.c ****             #if(ADC_TOTAL_CHANNELS_NUM > 9u)
 136:Generated_Source\PSoC4/ADC.c ****                 ,(uint8)(ADC_cy_psoc4_sarmux_8__CH_9_PORT << 4u) |
 137:Generated_Source\PSoC4/ADC.c ****                  (uint8)ADC_cy_psoc4_sarmux_8__CH_9_PIN
 138:Generated_Source\PSoC4/ADC.c ****             #endif /* End ADC_TOTAL_CHANNELS_NUM > 9u */
 139:Generated_Source\PSoC4/ADC.c ****             #if(ADC_TOTAL_CHANNELS_NUM > 10u)
 140:Generated_Source\PSoC4/ADC.c ****                 ,(uint8)(ADC_cy_psoc4_sarmux_8__CH_10_PORT << 4u) |
 141:Generated_Source\PSoC4/ADC.c ****                  (uint8)ADC_cy_psoc4_sarmux_8__CH_10_PIN
 142:Generated_Source\PSoC4/ADC.c ****             #endif /* End ADC_TOTAL_CHANNELS_NUM > 10u */
 143:Generated_Source\PSoC4/ADC.c ****             #if(ADC_TOTAL_CHANNELS_NUM > 11u)
 144:Generated_Source\PSoC4/ADC.c ****                 ,(uint8)(ADC_cy_psoc4_sarmux_8__CH_11_PORT << 4u) |
 145:Generated_Source\PSoC4/ADC.c ****                  (uint8)ADC_cy_psoc4_sarmux_8__CH_11_PIN
 146:Generated_Source\PSoC4/ADC.c ****             #endif /* End ADC_TOTAL_CHANNELS_NUM > 11u */
 147:Generated_Source\PSoC4/ADC.c ****             #if(ADC_TOTAL_CHANNELS_NUM > 12u)
 148:Generated_Source\PSoC4/ADC.c ****                 ,(uint8)(ADC_cy_psoc4_sarmux_8__CH_12_PORT << 4u) |
 149:Generated_Source\PSoC4/ADC.c ****                  (uint8)ADC_cy_psoc4_sarmux_8__CH_12_PIN
 150:Generated_Source\PSoC4/ADC.c ****             #endif /* End ADC_TOTAL_CHANNELS_NUM > 12u */
 151:Generated_Source\PSoC4/ADC.c ****             #if(ADC_TOTAL_CHANNELS_NUM > 13u)
 152:Generated_Source\PSoC4/ADC.c ****                 ,(uint8)(ADC_cy_psoc4_sarmux_8__CH_13_PORT << 4u) |
 153:Generated_Source\PSoC4/ADC.c ****                  (uint8)ADC_cy_psoc4_sarmux_8__CH_13_PIN
 154:Generated_Source\PSoC4/ADC.c ****             #endif /* End ADC_TOTAL_CHANNELS_NUM > 13u */
 155:Generated_Source\PSoC4/ADC.c ****             #if(ADC_TOTAL_CHANNELS_NUM > 14u)
 156:Generated_Source\PSoC4/ADC.c ****                 ,(uint8)(ADC_cy_psoc4_sarmux_8__CH_14_PORT << 4u) |
 157:Generated_Source\PSoC4/ADC.c ****                  (uint8)ADC_cy_psoc4_sarmux_8__CH_14_PIN
 158:Generated_Source\PSoC4/ADC.c ****             #endif /* End ADC_TOTAL_CHANNELS_NUM > 14u */
 159:Generated_Source\PSoC4/ADC.c ****             #if(ADC_TOTAL_CHANNELS_NUM > 15u)
 160:Generated_Source\PSoC4/ADC.c ****                 ,(uint8)(ADC_cy_psoc4_sarmux_8__CH_15_PORT << 4u) |
 161:Generated_Source\PSoC4/ADC.c ****                  (uint8)ADC_cy_psoc4_sarmux_8__CH_15_PIN
 162:Generated_Source\PSoC4/ADC.c ****             #endif /* End ADC_TOTAL_CHANNELS_NUM > 15u */
 163:Generated_Source\PSoC4/ADC.c ****             #if(ADC_TOTAL_CHANNELS_NUM > 16u)
 164:Generated_Source\PSoC4/ADC.c ****                 ,(uint8)(ADC_cy_psoc4_sarmux_8__CH_16_PORT << 4u) |
 165:Generated_Source\PSoC4/ADC.c ****                  (uint8)ADC_cy_psoc4_sarmux_8__CH_16_PIN
 166:Generated_Source\PSoC4/ADC.c ****             #endif /* End ADC_TOTAL_CHANNELS_NUM > 16u */
 167:Generated_Source\PSoC4/ADC.c ****         };
 168:Generated_Source\PSoC4/ADC.c ****     #endif /* End ADC_TOTAL_CHANNELS_NUM > 1u */
 169:Generated_Source\PSoC4/ADC.c **** 
 170:Generated_Source\PSoC4/ADC.c ****     #if(ADC_IRQ_REMOVE == 0u)
 171:Generated_Source\PSoC4/ADC.c ****         /* Start and set interrupt vector */
 172:Generated_Source\PSoC4/ADC.c ****         CyIntSetPriority(ADC_INTC_NUMBER, ADC_INTC_PRIOR_NUMBER);
  42              		.loc 1 172 0
  43 0002 0321     		movs	r1, #3
  44 0004 0E20     		movs	r0, #14
  45 0006 FFF7FEFF 		bl	CyIntSetPriority
  46              	.LVL0:
 173:Generated_Source\PSoC4/ADC.c ****         (void)CyIntSetVector(ADC_INTC_NUMBER, &ADC_ISR);
  47              		.loc 1 173 0
  48 000a 3C49     		ldr	r1, .L20
  49 000c 0E20     		movs	r0, #14
  50 000e FFF7FEFF 		bl	CyIntSetVector
  51              	.LVL1:
 174:Generated_Source\PSoC4/ADC.c ****     #endif   /* End ADC_IRQ_REMOVE */
 175:Generated_Source\PSoC4/ADC.c **** 
 176:Generated_Source\PSoC4/ADC.c ****     /* Init SAR and MUX registers */
 177:Generated_Source\PSoC4/ADC.c ****     ADC_SAR_CHAN_EN_REG = ADC_DEFAULT_EN_CHANNELS;
ARM GAS  C:\Users\VIDEOH~1\AppData\Local\Temp\ccZFo3gc.s 			page 5


  52              		.loc 1 177 0
  53 0012 1322     		movs	r2, #19
  54 0014 3A4B     		ldr	r3, .L20+4
  55 0016 1A60     		str	r2, [r3]
 178:Generated_Source\PSoC4/ADC.c ****     ADC_SAR_CTRL_REG |= ADC_DEFAULT_CTRL_REG_CFG | 
 179:Generated_Source\PSoC4/ADC.c ****         /* Enable the SAR internal pump when global pump is enabled */
 180:Generated_Source\PSoC4/ADC.c ****         (((ADC_PUMP_CTRL_REG & ADC_PUMP_CTRL_ENABLED) != 0u) ? 
  56              		.loc 1 180 0
  57 0018 3A4B     		ldr	r3, .L20+8
  58 001a 1B68     		ldr	r3, [r3]
 178:Generated_Source\PSoC4/ADC.c ****     ADC_SAR_CTRL_REG |= ADC_DEFAULT_CTRL_REG_CFG | 
  59              		.loc 1 178 0
  60 001c 002B     		cmp	r3, #0
  61 001e 01DB     		blt	.L9
  62 0020 3949     		ldr	r1, .L20+12
  63 0022 00E0     		b	.L2
  64              	.L9:
  65 0024 3949     		ldr	r1, .L20+16
  66              	.L2:
 178:Generated_Source\PSoC4/ADC.c ****     ADC_SAR_CTRL_REG |= ADC_DEFAULT_CTRL_REG_CFG | 
  67              		.loc 1 178 0 is_stmt 0 discriminator 4
  68 0026 3A4A     		ldr	r2, .L20+20
 181:Generated_Source\PSoC4/ADC.c ****         ADC_BOOSTPUMP_EN : 0u);
 182:Generated_Source\PSoC4/ADC.c ****     ADC_SAR_SAMPLE_CTRL_REG = ADC_DEFAULT_SAMPLE_CTRL_REG_CFG;
 183:Generated_Source\PSoC4/ADC.c ****     ADC_SAR_RANGE_THRES_REG = ADC_DEFAULT_RANGE_THRES_REG_CFG;
 184:Generated_Source\PSoC4/ADC.c ****     ADC_SAR_RANGE_COND_REG  = ADC_COMPARE_MODE;
 185:Generated_Source\PSoC4/ADC.c ****     ADC_SAR_SAMPLE_TIME01_REG = ADC_DEFAULT_SAMPLE_TIME01_REG_CFG;
 186:Generated_Source\PSoC4/ADC.c ****     ADC_SAR_SAMPLE_TIME23_REG = ADC_DEFAULT_SAMPLE_TIME23_REG_CFG;
 187:Generated_Source\PSoC4/ADC.c ****     
 188:Generated_Source\PSoC4/ADC.c ****     /* Connect Vm to VSSA when even one channel is single-ended or multiple channels configured */
 189:Generated_Source\PSoC4/ADC.c ****     #if(ADC_DEFAULT_MUX_SWITCH0 != 0u)
 190:Generated_Source\PSoC4/ADC.c ****         ADC_MUX_SWITCH0_REG |= ADC_DEFAULT_MUX_SWITCH0;
 191:Generated_Source\PSoC4/ADC.c ****         /* Set MUX_HW_CTRL_VSSA in MUX_SWITCH_HW_CTRL when multiple channels enabled */
 192:Generated_Source\PSoC4/ADC.c ****         #if(ADC_TOTAL_CHANNELS_NUM > 1u)
 193:Generated_Source\PSoC4/ADC.c ****             ADC_MUX_SWITCH_HW_CTRL_REG |= ADC_DEFAULT_MUX_SWITCH0;
 194:Generated_Source\PSoC4/ADC.c ****         #endif /* ADC_TOTAL_CHANNELS_NUM > 1u */
 195:Generated_Source\PSoC4/ADC.c ****     #endif /*ADC_CHANNELS_MODE !=0 */
 196:Generated_Source\PSoC4/ADC.c **** 
 197:Generated_Source\PSoC4/ADC.c ****     ADC_SAR_SATURATE_INTR_MASK_REG = 0u;
 198:Generated_Source\PSoC4/ADC.c ****     ADC_SAR_RANGE_INTR_MASK_REG = 0u;
 199:Generated_Source\PSoC4/ADC.c ****     ADC_SAR_INTR_MASK_REG = ADC_SAR_INTR_MASK;
 200:Generated_Source\PSoC4/ADC.c **** 
 201:Generated_Source\PSoC4/ADC.c ****     #if(ADC_CY_SAR_IP_VER == ADC_CY_SAR_IP_VER0)
 202:Generated_Source\PSoC4/ADC.c ****         ADC_ANA_TRIM_REG = ADC_TRIM_COEF;
  69              		.loc 1 202 0 is_stmt 1 discriminator 4
  70 0028 0225     		movs	r5, #2
 178:Generated_Source\PSoC4/ADC.c ****     ADC_SAR_CTRL_REG |= ADC_DEFAULT_CTRL_REG_CFG | 
  71              		.loc 1 178 0 discriminator 4
  72 002a 1368     		ldr	r3, [r2]
 197:Generated_Source\PSoC4/ADC.c ****     ADC_SAR_RANGE_INTR_MASK_REG = 0u;
  73              		.loc 1 197 0 discriminator 4
  74 002c 3948     		ldr	r0, .L20+24
 178:Generated_Source\PSoC4/ADC.c ****     ADC_SAR_CTRL_REG |= ADC_DEFAULT_CTRL_REG_CFG | 
  75              		.loc 1 178 0 discriminator 4
  76 002e 0B43     		orrs	r3, r1
  77 0030 1360     		str	r3, [r2]
 182:Generated_Source\PSoC4/ADC.c ****     ADC_SAR_RANGE_THRES_REG = ADC_DEFAULT_RANGE_THRES_REG_CFG;
ARM GAS  C:\Users\VIDEOH~1\AppData\Local\Temp\ccZFo3gc.s 			page 6


  78              		.loc 1 182 0 discriminator 4
  79 0032 394A     		ldr	r2, .L20+28
  80 0034 394B     		ldr	r3, .L20+32
 190:Generated_Source\PSoC4/ADC.c ****         /* Set MUX_HW_CTRL_VSSA in MUX_SWITCH_HW_CTRL when multiple channels enabled */
  81              		.loc 1 190 0 discriminator 4
  82 0036 8021     		movs	r1, #128
 182:Generated_Source\PSoC4/ADC.c ****     ADC_SAR_RANGE_THRES_REG = ADC_DEFAULT_RANGE_THRES_REG_CFG;
  83              		.loc 1 182 0 discriminator 4
  84 0038 1A60     		str	r2, [r3]
 183:Generated_Source\PSoC4/ADC.c ****     ADC_SAR_RANGE_COND_REG  = ADC_COMPARE_MODE;
  85              		.loc 1 183 0 discriminator 4
  86 003a A022     		movs	r2, #160
  87 003c 384B     		ldr	r3, .L20+36
  88 003e 1203     		lsls	r2, r2, #12
  89 0040 1A60     		str	r2, [r3]
 184:Generated_Source\PSoC4/ADC.c ****     ADC_SAR_SAMPLE_TIME01_REG = ADC_DEFAULT_SAMPLE_TIME01_REG_CFG;
  90              		.loc 1 184 0 discriminator 4
  91 0042 8022     		movs	r2, #128
  92 0044 374B     		ldr	r3, .L20+40
  93 0046 1206     		lsls	r2, r2, #24
  94 0048 1A60     		str	r2, [r3]
 185:Generated_Source\PSoC4/ADC.c ****     ADC_SAR_SAMPLE_TIME23_REG = ADC_DEFAULT_SAMPLE_TIME23_REG_CFG;
  95              		.loc 1 185 0 discriminator 4
  96 004a 374A     		ldr	r2, .L20+44
  97 004c 374B     		ldr	r3, .L20+48
 190:Generated_Source\PSoC4/ADC.c ****         /* Set MUX_HW_CTRL_VSSA in MUX_SWITCH_HW_CTRL when multiple channels enabled */
  98              		.loc 1 190 0 discriminator 4
  99 004e 4902     		lsls	r1, r1, #9
 185:Generated_Source\PSoC4/ADC.c ****     ADC_SAR_SAMPLE_TIME23_REG = ADC_DEFAULT_SAMPLE_TIME23_REG_CFG;
 100              		.loc 1 185 0 discriminator 4
 101 0050 1A60     		str	r2, [r3]
 186:Generated_Source\PSoC4/ADC.c ****     
 102              		.loc 1 186 0 discriminator 4
 103 0052 374A     		ldr	r2, .L20+52
 104 0054 374B     		ldr	r3, .L20+56
 198:Generated_Source\PSoC4/ADC.c ****     ADC_SAR_INTR_MASK_REG = ADC_SAR_INTR_MASK;
 105              		.loc 1 198 0 discriminator 4
 106 0056 384C     		ldr	r4, .L20+60
 186:Generated_Source\PSoC4/ADC.c ****     
 107              		.loc 1 186 0 discriminator 4
 108 0058 1A60     		str	r2, [r3]
 190:Generated_Source\PSoC4/ADC.c ****         /* Set MUX_HW_CTRL_VSSA in MUX_SWITCH_HW_CTRL when multiple channels enabled */
 109              		.loc 1 190 0 discriminator 4
 110 005a 384B     		ldr	r3, .L20+64
 203:Generated_Source\PSoC4/ADC.c ****     #endif /* (ADC_CY_SAR_IP_VER == ADC_CY_SAR_IP_VER0) */
 204:Generated_Source\PSoC4/ADC.c **** 
 205:Generated_Source\PSoC4/ADC.c ****     /* Read and modify default configuration based on characterization */
 206:Generated_Source\PSoC4/ADC.c ****     tmpRegVal = ADC_SAR_DFT_CTRL_REG;
 111              		.loc 1 206 0 discriminator 4
 112 005c 384E     		ldr	r6, .L20+68
 190:Generated_Source\PSoC4/ADC.c ****         /* Set MUX_HW_CTRL_VSSA in MUX_SWITCH_HW_CTRL when multiple channels enabled */
 113              		.loc 1 190 0 discriminator 4
 114 005e 1A68     		ldr	r2, [r3]
 115 0060 0A43     		orrs	r2, r1
 116 0062 1A60     		str	r2, [r3]
 193:Generated_Source\PSoC4/ADC.c ****         #endif /* ADC_TOTAL_CHANNELS_NUM > 1u */
 117              		.loc 1 193 0 discriminator 4
ARM GAS  C:\Users\VIDEOH~1\AppData\Local\Temp\ccZFo3gc.s 			page 7


 118 0064 374A     		ldr	r2, .L20+72
 119 0066 1368     		ldr	r3, [r2]
 120 0068 0B43     		orrs	r3, r1
 121 006a 1360     		str	r3, [r2]
 197:Generated_Source\PSoC4/ADC.c ****     ADC_SAR_RANGE_INTR_MASK_REG = 0u;
 122              		.loc 1 197 0 discriminator 4
 123 006c 0023     		movs	r3, #0
 199:Generated_Source\PSoC4/ADC.c **** 
 124              		.loc 1 199 0 discriminator 4
 125 006e 0122     		movs	r2, #1
 126 0070 3549     		ldr	r1, .L20+76
 197:Generated_Source\PSoC4/ADC.c ****     ADC_SAR_RANGE_INTR_MASK_REG = 0u;
 127              		.loc 1 197 0 discriminator 4
 128 0072 0360     		str	r3, [r0]
 198:Generated_Source\PSoC4/ADC.c ****     ADC_SAR_INTR_MASK_REG = ADC_SAR_INTR_MASK;
 129              		.loc 1 198 0 discriminator 4
 130 0074 2360     		str	r3, [r4]
 199:Generated_Source\PSoC4/ADC.c **** 
 131              		.loc 1 199 0 discriminator 4
 132 0076 0A60     		str	r2, [r1]
 202:Generated_Source\PSoC4/ADC.c ****     #endif /* (ADC_CY_SAR_IP_VER == ADC_CY_SAR_IP_VER0) */
 133              		.loc 1 202 0 discriminator 4
 134 0078 3449     		ldr	r1, .L20+80
 135 007a 0D60     		str	r5, [r1]
 136              		.loc 1 206 0 discriminator 4
 137 007c 3768     		ldr	r7, [r6]
 138              	.LVL2:
 207:Generated_Source\PSoC4/ADC.c ****     tmpRegVal &= (uint32)~ADC_DCEN;
 139              		.loc 1 207 0 discriminator 4
 140 007e 3449     		ldr	r1, .L20+84
 141 0080 3940     		ands	r1, r7
 142              	.LVL3:
 208:Generated_Source\PSoC4/ADC.c ****     
 209:Generated_Source\PSoC4/ADC.c ****     #if(ADC_CY_SAR_IP_VER == ADC_CY_SAR_IP_VER0)
 210:Generated_Source\PSoC4/ADC.c ****         #if(ADC_NOMINAL_CLOCK_FREQ > (ADC_MAX_FREQUENCY / 2))
 211:Generated_Source\PSoC4/ADC.c ****             tmpRegVal |= ADC_SEL_CSEL_DFT_CHAR;
 212:Generated_Source\PSoC4/ADC.c ****         #else  /* clock speed < 9 Mhz */
 213:Generated_Source\PSoC4/ADC.c ****             tmpRegVal |= ADC_DLY_INC;
 143              		.loc 1 213 0 discriminator 4
 144 0082 1143     		orrs	r1, r2
 145              	.LVL4:
 214:Generated_Source\PSoC4/ADC.c ****         #endif /* clock speed > 9 Mhz */
 215:Generated_Source\PSoC4/ADC.c ****     #else
 216:Generated_Source\PSoC4/ADC.c ****         #if ((ADC_DEFAULT_VREF_SEL == ADC__INTERNAL1024) || \
 217:Generated_Source\PSoC4/ADC.c ****              (ADC_DEFAULT_VREF_SEL == ADC__INTERNALVREF))
 218:Generated_Source\PSoC4/ADC.c ****             tmpRegVal |= ADC_DLY_INC;
 219:Generated_Source\PSoC4/ADC.c ****         #else
 220:Generated_Source\PSoC4/ADC.c ****             tmpRegVal |= ADC_DCEN;
 221:Generated_Source\PSoC4/ADC.c ****             tmpRegVal &= (uint32)~ADC_DLY_INC;
 222:Generated_Source\PSoC4/ADC.c ****         #endif /* ((ADC_DEFAULT_VREF_SEL == ADC__INTERNAL1024) || \
 223:Generated_Source\PSoC4/ADC.c ****                    (ADC_DEFAULT_VREF_SEL == ADC__INTERNALVREF)) */
 224:Generated_Source\PSoC4/ADC.c ****     #endif /* (ADC_CY_SAR_IP_VER == ADC_CY_SAR_IP_VER0) */
 225:Generated_Source\PSoC4/ADC.c ****     
 226:Generated_Source\PSoC4/ADC.c ****     ADC_SAR_DFT_CTRL_REG = tmpRegVal;
 146              		.loc 1 226 0 discriminator 4
 147 0084 3160     		str	r1, [r6]
 148              	.LVL5:
ARM GAS  C:\Users\VIDEOH~1\AppData\Local\Temp\ccZFo3gc.s 			page 8


 149 0086 0090     		str	r0, [sp]
 227:Generated_Source\PSoC4/ADC.c **** 
 228:Generated_Source\PSoC4/ADC.c ****     #if(ADC_MAX_RESOLUTION != ADC_RESOLUTION_12)
 229:Generated_Source\PSoC4/ADC.c ****         ADC_WOUNDING_REG = ADC_ALT_WOUNDING;
 230:Generated_Source\PSoC4/ADC.c ****     #endif /* ADC_MAX_RESOLUTION != ADC_RESOLUTION_12 */
 231:Generated_Source\PSoC4/ADC.c **** 
 232:Generated_Source\PSoC4/ADC.c ****     for(chNum = 0u; chNum < ADC_TOTAL_CHANNELS_NUM; chNum++)
 233:Generated_Source\PSoC4/ADC.c ****     {
 234:Generated_Source\PSoC4/ADC.c ****         tmpRegVal = (ADC_channelsConfig[chNum] & ADC_CHANNEL_CONFIG_MASK);
 235:Generated_Source\PSoC4/ADC.c ****         #if(ADC_TOTAL_CHANNELS_NUM > 1u)
 236:Generated_Source\PSoC4/ADC.c ****             tmpRegVal |= ADC_InputsPlacement[chNum];
 237:Generated_Source\PSoC4/ADC.c ****         #endif /* End ADC_TOTAL_CHANNELS_NUM > 1u */
 238:Generated_Source\PSoC4/ADC.c ****         
 239:Generated_Source\PSoC4/ADC.c ****         
 240:Generated_Source\PSoC4/ADC.c ****         /* When the part is limited to 10-bit then the SUB_RESOLUTION bit
 241:Generated_Source\PSoC4/ADC.c ****         *  will be ignored and the RESOLUTION bit selects between 10-bit
 242:Generated_Source\PSoC4/ADC.c ****         *  (0) and 8-bit (1) resolution.
 243:Generated_Source\PSoC4/ADC.c ****         */
 244:Generated_Source\PSoC4/ADC.c ****         #if((ADC_MAX_RESOLUTION != ADC_RESOLUTION_12) && \
 245:Generated_Source\PSoC4/ADC.c ****             (ADC_ALT_WOUNDING == ADC_WOUNDING_10BIT))
 246:Generated_Source\PSoC4/ADC.c ****             tmpRegVal &= (uint32)(~ADC_ALT_RESOLUTION_ON);
 247:Generated_Source\PSoC4/ADC.c ****         #endif /* ADC_MAX_RESOLUTION != ADC_RESOLUTION_12 */
 248:Generated_Source\PSoC4/ADC.c **** 
 249:Generated_Source\PSoC4/ADC.c ****         #if(ADC_INJ_CHANNEL_ENABLED)
 250:Generated_Source\PSoC4/ADC.c ****         if(chNum < ADC_SEQUENCED_CHANNELS_NUM)
 251:Generated_Source\PSoC4/ADC.c ****         #endif /* ADC_INJ_CHANNEL_ENABLED */
 252:Generated_Source\PSoC4/ADC.c ****         {
 253:Generated_Source\PSoC4/ADC.c ****             CY_SET_REG32((reg32 *)(ADC_SAR_CHAN_CONFIG_IND + (uint32)(chNum << 2)), tmpRegVal);
 254:Generated_Source\PSoC4/ADC.c **** 
 255:Generated_Source\PSoC4/ADC.c ****             if((ADC_channelsConfig[chNum] & ADC_IS_SATURATE_EN_MASK) != 0u)
 256:Generated_Source\PSoC4/ADC.c ****             {
 257:Generated_Source\PSoC4/ADC.c ****                 ADC_SAR_SATURATE_INTR_MASK_REG |= (uint16)((uint16)1 << chNum);
 258:Generated_Source\PSoC4/ADC.c ****             }
 259:Generated_Source\PSoC4/ADC.c **** 
 260:Generated_Source\PSoC4/ADC.c ****             if((ADC_channelsConfig[chNum] & ADC_IS_RANGE_CTRL_EN_MASK) != 0u)
 150              		.loc 1 260 0 discriminator 4
 151 0088 0195     		str	r5, [sp, #4]
 152              	.LVL6:
 153              	.L8:
 234:Generated_Source\PSoC4/ADC.c ****         #if(ADC_TOTAL_CHANNELS_NUM > 1u)
 154              		.loc 1 234 0
 155 008a DC26     		movs	r6, #220
 156 008c 314D     		ldr	r5, .L20+88
 157 008e 9900     		lsls	r1, r3, #2
 158 0090 4F59     		ldr	r7, [r1, r5]
 159 0092 B601     		lsls	r6, r6, #6
 160 0094 3740     		ands	r7, r6
 161              	.LVL7:
 236:Generated_Source\PSoC4/ADC.c ****         #endif /* End ADC_TOTAL_CHANNELS_NUM > 1u */
 162              		.loc 1 236 0
 163 0096 2E00     		movs	r6, r5
 164 0098 1436     		adds	r6, r6, #20
 165 009a 9E5D     		ldrb	r6, [r3, r6]
 166 009c 3E43     		orrs	r6, r7
 167              	.LVL8:
 253:Generated_Source\PSoC4/ADC.c **** 
 168              		.loc 1 253 0
ARM GAS  C:\Users\VIDEOH~1\AppData\Local\Temp\ccZFo3gc.s 			page 9


 169 009e 2E4F     		ldr	r7, .L20+92
 170 00a0 CF19     		adds	r7, r1, r7
 171 00a2 3E60     		str	r6, [r7]
 255:Generated_Source\PSoC4/ADC.c ****             {
 172              		.loc 1 255 0
 173 00a4 4E59     		ldr	r6, [r1, r5]
 174              	.LVL9:
 175 00a6 1642     		tst	r6, r2
 176 00a8 05D0     		beq	.L3
 257:Generated_Source\PSoC4/ADC.c ****             }
 177              		.loc 1 257 0
 178 00aa 1700     		movs	r7, r2
 179              	.LVL10:
 180 00ac 9F40     		lsls	r7, r7, r3
 181 00ae 0098     		ldr	r0, [sp]
 182 00b0 0668     		ldr	r6, [r0]
 183 00b2 3E43     		orrs	r6, r7
 184 00b4 0660     		str	r6, [r0]
 185              	.LVL11:
 186              	.L3:
 187              		.loc 1 260 0
 188 00b6 6E58     		ldr	r6, [r5, r1]
 189 00b8 019F     		ldr	r7, [sp, #4]
 190 00ba 3E42     		tst	r6, r7
 191 00bc 04D0     		beq	.L4
 261:Generated_Source\PSoC4/ADC.c ****             {
 262:Generated_Source\PSoC4/ADC.c ****                 ADC_SAR_RANGE_INTR_MASK_REG |= (uint16)((uint16)1 << chNum);
 192              		.loc 1 262 0
 193 00be 1700     		movs	r7, r2
 194 00c0 9F40     		lsls	r7, r7, r3
 195 00c2 2668     		ldr	r6, [r4]
 196 00c4 3E43     		orrs	r6, r7
 197 00c6 2660     		str	r6, [r4]
 198              	.L4:
 263:Generated_Source\PSoC4/ADC.c ****             }
 264:Generated_Source\PSoC4/ADC.c ****         }
 265:Generated_Source\PSoC4/ADC.c ****         #if(ADC_INJ_CHANNEL_ENABLED)
 266:Generated_Source\PSoC4/ADC.c ****             else
 267:Generated_Source\PSoC4/ADC.c ****             {
 268:Generated_Source\PSoC4/ADC.c ****                 CY_SET_REG32(ADC_SAR_INJ_CHAN_CONFIG_PTR, tmpRegVal | ADC_INJ_TAILGATING);
 269:Generated_Source\PSoC4/ADC.c **** 
 270:Generated_Source\PSoC4/ADC.c ****                 if((ADC_channelsConfig[chNum] & ADC_IS_SATURATE_EN_MASK) != 0u)
 271:Generated_Source\PSoC4/ADC.c ****                 {
 272:Generated_Source\PSoC4/ADC.c ****                     ADC_SAR_INTR_MASK_REG |= ADC_INJ_SATURATE_MASK;
 273:Generated_Source\PSoC4/ADC.c ****                 }
 274:Generated_Source\PSoC4/ADC.c **** 
 275:Generated_Source\PSoC4/ADC.c ****                 if((ADC_channelsConfig[chNum] & ADC_IS_RANGE_CTRL_EN_MASK) != 0u)
 276:Generated_Source\PSoC4/ADC.c ****                 {
 277:Generated_Source\PSoC4/ADC.c ****                     ADC_SAR_INTR_MASK_REG |= ADC_INJ_RANGE_MASK;
 278:Generated_Source\PSoC4/ADC.c ****                 }
 279:Generated_Source\PSoC4/ADC.c ****             }
 280:Generated_Source\PSoC4/ADC.c ****         #endif /* ADC_INJ_CHANNEL_ENABLED */
 281:Generated_Source\PSoC4/ADC.c **** 
 282:Generated_Source\PSoC4/ADC.c ****         if((ADC_channelsConfig[chNum] & ADC_ALT_RESOLUTION_ON) != 0u)
 199              		.loc 1 282 0
 200 00c8 6F58     		ldr	r7, [r5, r1]
 201 00ca 8020     		movs	r0, #128
ARM GAS  C:\Users\VIDEOH~1\AppData\Local\Temp\ccZFo3gc.s 			page 10


 202 00cc 8025     		movs	r5, #128
 203              	.LVL12:
 204 00ce 8000     		lsls	r0, r0, #2
 205 00d0 6D00     		lsls	r5, r5, #1
 283:Generated_Source\PSoC4/ADC.c ****         {
 284:Generated_Source\PSoC4/ADC.c ****                counts = (int32)ADC_DEFAULT_MAX_WRK_ALT;
 206              		.loc 1 284 0
 207 00d2 2E00     		movs	r6, r5
 282:Generated_Source\PSoC4/ADC.c ****         {
 208              		.loc 1 282 0
 209 00d4 0742     		tst	r7, r0
 210 00d6 01D1     		bne	.L5
 285:Generated_Source\PSoC4/ADC.c ****         }
 286:Generated_Source\PSoC4/ADC.c ****         else
 287:Generated_Source\PSoC4/ADC.c ****         {
 288:Generated_Source\PSoC4/ADC.c ****                counts = (int32)ADC_SAR_WRK_MAX_12BIT;
 211              		.loc 1 288 0
 212 00d8 8026     		movs	r6, #128
 213 00da 7601     		lsls	r6, r6, #5
 214              	.L5:
 215              	.LVL13:
 289:Generated_Source\PSoC4/ADC.c ****         }
 290:Generated_Source\PSoC4/ADC.c **** 
 291:Generated_Source\PSoC4/ADC.c ****         if((ADC_channelsConfig[chNum] & ADC_DIFFERENTIAL_EN) == 0u)
 216              		.loc 1 291 0
 217 00dc 3D40     		ands	r5, r7
 218 00de 1F48     		ldr	r0, .L20+96
 219 00e0 5F00     		lsls	r7, r3, #1
 220 00e2 002D     		cmp	r5, #0
 221 00e4 00D0     		beq	.L18
 292:Generated_Source\PSoC4/ADC.c ****         {
 293:Generated_Source\PSoC4/ADC.c ****             #if((ADC_DEFAULT_SE_RESULT_FORMAT_SEL == ADC__FSIGNED) && \
 294:Generated_Source\PSoC4/ADC.c ****                 (ADC_DEFAULT_NEG_INPUT_SEL == ADC__VREF))
 295:Generated_Source\PSoC4/ADC.c ****                 /* Set offset to the minus half scale to convert results to unsigned format */
 296:Generated_Source\PSoC4/ADC.c ****                 ADC_offset[chNum] = (int16)(counts / -2);
 297:Generated_Source\PSoC4/ADC.c ****             #else
 298:Generated_Source\PSoC4/ADC.c ****                 ADC_offset[chNum] = 0;
 299:Generated_Source\PSoC4/ADC.c ****             #endif /* end DEFAULT_SE_RESULT_FORMAT_SEL == ADC__FSIGNED */
 300:Generated_Source\PSoC4/ADC.c ****         }
 301:Generated_Source\PSoC4/ADC.c ****         else    /* Differential channel */
 302:Generated_Source\PSoC4/ADC.c ****         {
 303:Generated_Source\PSoC4/ADC.c ****             #if(ADC_DEFAULT_DIFF_RESULT_FORMAT_SEL == ADC__FUNSIGNED)
 304:Generated_Source\PSoC4/ADC.c ****                 /* Set offset to the half scale to convert results to signed format */
 305:Generated_Source\PSoC4/ADC.c ****                 ADC_offset[chNum] = (int16)(counts / 2);
 306:Generated_Source\PSoC4/ADC.c ****             #else
 307:Generated_Source\PSoC4/ADC.c ****                 ADC_offset[chNum] = 0;
 222              		.loc 1 307 0
 223 00e6 0025     		movs	r5, #0
 224              	.L18:
 225 00e8 C553     		strh	r5, [r0, r7]
 308:Generated_Source\PSoC4/ADC.c ****             #endif /* end ADC_DEFAULT_DIFF_RESULT_FORMAT_SEL == ADC__FUNSIGNED */
 309:Generated_Source\PSoC4/ADC.c ****         }
 310:Generated_Source\PSoC4/ADC.c ****         /* Calculate gain in counts per 10 volts with rounding */
 311:Generated_Source\PSoC4/ADC.c ****         ADC_countsPer10Volt[chNum] = (int16)(((counts * ADC_10MV_COUNTS) +
 312:Generated_Source\PSoC4/ADC.c ****                             ADC_DEFAULT_VREF_MV_VALUE) / (ADC_DEFAULT_VREF_MV_VALUE * 2));
 226              		.loc 1 312 0
 227 00ea 1D4D     		ldr	r5, .L20+100
ARM GAS  C:\Users\VIDEOH~1\AppData\Local\Temp\ccZFo3gc.s 			page 11


 232:Generated_Source\PSoC4/ADC.c ****     {
 228              		.loc 1 232 0
 229 00ec 0133     		adds	r3, r3, #1
 230              	.LVL14:
 231              		.loc 1 312 0
 232 00ee 6E43     		muls	r6, r5
 233              	.LVL15:
 311:Generated_Source\PSoC4/ADC.c ****                             ADC_DEFAULT_VREF_MV_VALUE) / (ADC_DEFAULT_VREF_MV_VALUE * 2));
 234              		.loc 1 311 0
 235 00f0 1C4D     		ldr	r5, .L20+104
 236              		.loc 1 312 0
 237 00f2 F612     		asrs	r6, r6, #11
 311:Generated_Source\PSoC4/ADC.c ****                             ADC_DEFAULT_VREF_MV_VALUE) / (ADC_DEFAULT_VREF_MV_VALUE * 2));
 238              		.loc 1 311 0
 239 00f4 6E50     		str	r6, [r5, r1]
 232:Generated_Source\PSoC4/ADC.c ****     {
 240              		.loc 1 232 0
 241 00f6 052B     		cmp	r3, #5
 242 00f8 C7D1     		bne	.L8
 313:Generated_Source\PSoC4/ADC.c ****     }
 314:Generated_Source\PSoC4/ADC.c **** }
 243              		.loc 1 314 0
 244              		@ sp needed
 245 00fa F7BD     		pop	{r0, r1, r2, r4, r5, r6, r7, pc}
 246              	.L21:
 247              		.align	2
 248              	.L20:
 249 00fc 00000000 		.word	ADC_ISR
 250 0100 20001A40 		.word	1075445792
 251 0104 80031A40 		.word	1075446656
 252 0108 C0200013 		.word	318775488
 253 010c C0201013 		.word	319824064
 254 0110 00001A40 		.word	1075445760
 255 0114 28021A40 		.word	1075446312
 256 0118 7C000080 		.word	-2147483524
 257 011c 04001A40 		.word	1075445764
 258 0120 18001A40 		.word	1075445784
 259 0124 1C001A40 		.word	1075445788
 260 0128 04000800 		.word	524292
 261 012c 10001A40 		.word	1075445776
 262 0130 04000400 		.word	262148
 263 0134 14001A40 		.word	1075445780
 264 0138 38021A40 		.word	1075446328
 265 013c 00031A40 		.word	1075446528
 266 0140 30001A40 		.word	1075445808
 267 0144 40031A40 		.word	1075446592
 268 0148 18021A40 		.word	1075446296
 269 014c 000F1A40 		.word	1075449600
 270 0150 FFFFFFDF 		.word	-536870913
 271 0154 00000000 		.word	.LANCHOR0
 272 0158 80001A40 		.word	1075445888
 273 015c 00000000 		.word	ADC_offset
 274 0160 10270000 		.word	10000
 275 0164 00000000 		.word	ADC_countsPer10Volt
 276              		.cfi_endproc
 277              	.LFE1:
 278              		.size	ADC_Init, .-ADC_Init
ARM GAS  C:\Users\VIDEOH~1\AppData\Local\Temp\ccZFo3gc.s 			page 12


 279              		.section	.text.ADC_Enable,"ax",%progbits
 280              		.align	1
 281              		.global	ADC_Enable
 282              		.code	16
 283              		.thumb_func
 284              		.type	ADC_Enable, %function
 285              	ADC_Enable:
 286              	.LFB2:
 315:Generated_Source\PSoC4/ADC.c **** 
 316:Generated_Source\PSoC4/ADC.c **** /*******************************************************************************
 317:Generated_Source\PSoC4/ADC.c **** * Function Name: ADC_SAR_1_Enable
 318:Generated_Source\PSoC4/ADC.c **** ********************************************************************************
 319:Generated_Source\PSoC4/ADC.c **** *
 320:Generated_Source\PSoC4/ADC.c **** * Summary:
 321:Generated_Source\PSoC4/ADC.c **** *  Enables the clock and analog power for SAR ADC.
 322:Generated_Source\PSoC4/ADC.c **** *
 323:Generated_Source\PSoC4/ADC.c **** * Parameters:
 324:Generated_Source\PSoC4/ADC.c **** *  None.
 325:Generated_Source\PSoC4/ADC.c **** *
 326:Generated_Source\PSoC4/ADC.c **** * Return:
 327:Generated_Source\PSoC4/ADC.c **** *  None.
 328:Generated_Source\PSoC4/ADC.c **** *
 329:Generated_Source\PSoC4/ADC.c **** *******************************************************************************/
 330:Generated_Source\PSoC4/ADC.c **** void ADC_Enable(void)
 331:Generated_Source\PSoC4/ADC.c **** {
 287              		.loc 1 331 0
 288              		.cfi_startproc
 289              		@ args = 0, pretend = 0, frame = 0
 290              		@ frame_needed = 0, uses_anonymous_args = 0
 332:Generated_Source\PSoC4/ADC.c ****     if (0u == (ADC_SAR_CTRL_REG & ADC_ENABLE))
 291              		.loc 1 332 0
 292 0000 064B     		ldr	r3, .L24
 331:Generated_Source\PSoC4/ADC.c ****     if (0u == (ADC_SAR_CTRL_REG & ADC_ENABLE))
 293              		.loc 1 331 0
 294 0002 10B5     		push	{r4, lr}
 295              		.cfi_def_cfa_offset 8
 296              		.cfi_offset 4, -8
 297              		.cfi_offset 14, -4
 298              		.loc 1 332 0
 299 0004 1A68     		ldr	r2, [r3]
 300 0006 002A     		cmp	r2, #0
 301 0008 07DB     		blt	.L22
 302              	.LBB4:
 303              	.LBB5:
 333:Generated_Source\PSoC4/ADC.c ****     {
 334:Generated_Source\PSoC4/ADC.c ****         #if(ADC_CY_SAR_IP_VER != ADC_CY_SAR_IP_VER0)
 335:Generated_Source\PSoC4/ADC.c **** 
 336:Generated_Source\PSoC4/ADC.c ****             while (0u != (ADC_SAR_STATUS_REG & ADC_STATUS_BUSY))
 337:Generated_Source\PSoC4/ADC.c ****             {
 338:Generated_Source\PSoC4/ADC.c ****                 /* wait for SAR to go idle to avoid deadlock */
 339:Generated_Source\PSoC4/ADC.c ****             }
 340:Generated_Source\PSoC4/ADC.c ****         #endif /* (ADC_CY_SAR_IP_VER != ADC_CY_SAR_IP_VER0) */
 341:Generated_Source\PSoC4/ADC.c ****         
 342:Generated_Source\PSoC4/ADC.c ****         ADC_SAR_CTRL_REG |= ADC_ENABLE;
 304              		.loc 1 342 0
 305 000a 8021     		movs	r1, #128
 306 000c 1A68     		ldr	r2, [r3]
ARM GAS  C:\Users\VIDEOH~1\AppData\Local\Temp\ccZFo3gc.s 			page 13


 307 000e 0906     		lsls	r1, r1, #24
 308 0010 0A43     		orrs	r2, r1
 309 0012 1A60     		str	r2, [r3]
 343:Generated_Source\PSoC4/ADC.c ****         
 344:Generated_Source\PSoC4/ADC.c ****         /* The block is ready to use 10 us after the enable signal is set high. */
 345:Generated_Source\PSoC4/ADC.c ****         CyDelayUs(ADC_10US_DELAY);         
 310              		.loc 1 345 0
 311 0014 0A20     		movs	r0, #10
 312 0016 FFF7FEFF 		bl	CyDelayUs
 313              	.LVL16:
 314              	.L22:
 315              	.LBE5:
 316              	.LBE4:
 346:Generated_Source\PSoC4/ADC.c ****     }
 347:Generated_Source\PSoC4/ADC.c **** }
 317              		.loc 1 347 0
 318              		@ sp needed
 319 001a 10BD     		pop	{r4, pc}
 320              	.L25:
 321              		.align	2
 322              	.L24:
 323 001c 00001A40 		.word	1075445760
 324              		.cfi_endproc
 325              	.LFE2:
 326              		.size	ADC_Enable, .-ADC_Enable
 327              		.section	.text.ADC_Start,"ax",%progbits
 328              		.align	1
 329              		.global	ADC_Start
 330              		.code	16
 331              		.thumb_func
 332              		.type	ADC_Start, %function
 333              	ADC_Start:
 334              	.LFB0:
  64:Generated_Source\PSoC4/ADC.c ****     /* If not Initialized then initialize all required hardware and software */
 335              		.loc 1 64 0
 336              		.cfi_startproc
 337              		@ args = 0, pretend = 0, frame = 0
 338              		@ frame_needed = 0, uses_anonymous_args = 0
 339 0000 10B5     		push	{r4, lr}
 340              		.cfi_def_cfa_offset 8
 341              		.cfi_offset 4, -8
 342              		.cfi_offset 14, -4
  66:Generated_Source\PSoC4/ADC.c ****     {
 343              		.loc 1 66 0
 344 0002 054C     		ldr	r4, .L28
 345 0004 2378     		ldrb	r3, [r4]
 346 0006 002B     		cmp	r3, #0
 347 0008 03D1     		bne	.L27
  68:Generated_Source\PSoC4/ADC.c ****         ADC_initVar = 1u;
 348              		.loc 1 68 0
 349 000a FFF7FEFF 		bl	ADC_Init
 350              	.LVL17:
  69:Generated_Source\PSoC4/ADC.c ****     }
 351              		.loc 1 69 0
 352 000e 0123     		movs	r3, #1
 353 0010 2370     		strb	r3, [r4]
 354              	.L27:
ARM GAS  C:\Users\VIDEOH~1\AppData\Local\Temp\ccZFo3gc.s 			page 14


  71:Generated_Source\PSoC4/ADC.c **** }
 355              		.loc 1 71 0
 356 0012 FFF7FEFF 		bl	ADC_Enable
 357              	.LVL18:
  72:Generated_Source\PSoC4/ADC.c **** 
 358              		.loc 1 72 0
 359              		@ sp needed
 360 0016 10BD     		pop	{r4, pc}
 361              	.L29:
 362              		.align	2
 363              	.L28:
 364 0018 00000000 		.word	.LANCHOR1
 365              		.cfi_endproc
 366              	.LFE0:
 367              		.size	ADC_Start, .-ADC_Start
 368              		.section	.text.ADC_Stop,"ax",%progbits
 369              		.align	1
 370              		.global	ADC_Stop
 371              		.code	16
 372              		.thumb_func
 373              		.type	ADC_Stop, %function
 374              	ADC_Stop:
 375              	.LFB3:
 348:Generated_Source\PSoC4/ADC.c **** 
 349:Generated_Source\PSoC4/ADC.c **** 
 350:Generated_Source\PSoC4/ADC.c **** /*******************************************************************************
 351:Generated_Source\PSoC4/ADC.c **** * Function Name: ADC_Stop
 352:Generated_Source\PSoC4/ADC.c **** ********************************************************************************
 353:Generated_Source\PSoC4/ADC.c **** *
 354:Generated_Source\PSoC4/ADC.c **** * Summary:
 355:Generated_Source\PSoC4/ADC.c **** *  This function stops ADC conversions and puts the ADC into its lowest power
 356:Generated_Source\PSoC4/ADC.c **** *  mode.
 357:Generated_Source\PSoC4/ADC.c **** *
 358:Generated_Source\PSoC4/ADC.c **** * Parameters:
 359:Generated_Source\PSoC4/ADC.c **** *  None.
 360:Generated_Source\PSoC4/ADC.c **** *
 361:Generated_Source\PSoC4/ADC.c **** * Return:
 362:Generated_Source\PSoC4/ADC.c **** *  None.
 363:Generated_Source\PSoC4/ADC.c **** *
 364:Generated_Source\PSoC4/ADC.c **** *******************************************************************************/
 365:Generated_Source\PSoC4/ADC.c **** void ADC_Stop(void)
 366:Generated_Source\PSoC4/ADC.c **** {
 376              		.loc 1 366 0
 377              		.cfi_startproc
 378              		@ args = 0, pretend = 0, frame = 0
 379              		@ frame_needed = 0, uses_anonymous_args = 0
 380              		@ link register save eliminated.
 367:Generated_Source\PSoC4/ADC.c ****     ADC_SAR_CTRL_REG &= (uint32)~ADC_ENABLE;
 381              		.loc 1 367 0
 382 0000 024A     		ldr	r2, .L31
 368:Generated_Source\PSoC4/ADC.c **** }
 383              		.loc 1 368 0
 384              		@ sp needed
 367:Generated_Source\PSoC4/ADC.c ****     ADC_SAR_CTRL_REG &= (uint32)~ADC_ENABLE;
 385              		.loc 1 367 0
 386 0002 1368     		ldr	r3, [r2]
 387 0004 5B00     		lsls	r3, r3, #1
ARM GAS  C:\Users\VIDEOH~1\AppData\Local\Temp\ccZFo3gc.s 			page 15


 388 0006 5B08     		lsrs	r3, r3, #1
 389 0008 1360     		str	r3, [r2]
 390              		.loc 1 368 0
 391 000a 7047     		bx	lr
 392              	.L32:
 393              		.align	2
 394              	.L31:
 395 000c 00001A40 		.word	1075445760
 396              		.cfi_endproc
 397              	.LFE3:
 398              		.size	ADC_Stop, .-ADC_Stop
 399              		.section	.text.ADC_StartConvert,"ax",%progbits
 400              		.align	1
 401              		.global	ADC_StartConvert
 402              		.code	16
 403              		.thumb_func
 404              		.type	ADC_StartConvert, %function
 405              	ADC_StartConvert:
 406              	.LFB4:
 369:Generated_Source\PSoC4/ADC.c **** 
 370:Generated_Source\PSoC4/ADC.c **** 
 371:Generated_Source\PSoC4/ADC.c **** /*******************************************************************************
 372:Generated_Source\PSoC4/ADC.c **** * Function Name: ADC_StartConvert
 373:Generated_Source\PSoC4/ADC.c **** ********************************************************************************
 374:Generated_Source\PSoC4/ADC.c **** *
 375:Generated_Source\PSoC4/ADC.c **** * Summary:
 376:Generated_Source\PSoC4/ADC.c **** *  Description:
 377:Generated_Source\PSoC4/ADC.c **** *  For free running mode, this API starts the conversion process and it
 378:Generated_Source\PSoC4/ADC.c **** *  runs continuously.
 379:Generated_Source\PSoC4/ADC.c **** *
 380:Generated_Source\PSoC4/ADC.c **** *  In a triggered mode, this routine triggers every conversion by
 381:Generated_Source\PSoC4/ADC.c **** *  writing into the FW_TRIGGER bit in SAR_START_CTRL reg. In triggered mode,
 382:Generated_Source\PSoC4/ADC.c **** *  every conversion has to start by this API.
 383:Generated_Source\PSoC4/ADC.c **** *
 384:Generated_Source\PSoC4/ADC.c **** * Parameters:
 385:Generated_Source\PSoC4/ADC.c **** *  None.
 386:Generated_Source\PSoC4/ADC.c **** *
 387:Generated_Source\PSoC4/ADC.c **** * Return:
 388:Generated_Source\PSoC4/ADC.c **** *  None.
 389:Generated_Source\PSoC4/ADC.c **** *
 390:Generated_Source\PSoC4/ADC.c **** *******************************************************************************/
 391:Generated_Source\PSoC4/ADC.c **** void ADC_StartConvert(void)
 392:Generated_Source\PSoC4/ADC.c **** {
 407              		.loc 1 392 0
 408              		.cfi_startproc
 409              		@ args = 0, pretend = 0, frame = 0
 410              		@ frame_needed = 0, uses_anonymous_args = 0
 411              		@ link register save eliminated.
 393:Generated_Source\PSoC4/ADC.c ****     #if(ADC_DEFAULT_SAMPLE_MODE_SEL == ADC__FREERUNNING)
 394:Generated_Source\PSoC4/ADC.c ****         ADC_SAR_SAMPLE_CTRL_REG |= ADC_CONTINUOUS_EN;
 412              		.loc 1 394 0
 413 0000 8021     		movs	r1, #128
 414 0002 034A     		ldr	r2, .L34
 415 0004 4902     		lsls	r1, r1, #9
 416 0006 1368     		ldr	r3, [r2]
 395:Generated_Source\PSoC4/ADC.c ****     #else /* Firmware trigger */
 396:Generated_Source\PSoC4/ADC.c ****         ADC_SAR_START_CTRL_REG = ADC_FW_TRIGGER;
ARM GAS  C:\Users\VIDEOH~1\AppData\Local\Temp\ccZFo3gc.s 			page 16


 397:Generated_Source\PSoC4/ADC.c ****     #endif /* End ADC_DEFAULT_SAMPLE_MODE == ADC__FREERUNNING */
 398:Generated_Source\PSoC4/ADC.c **** 
 399:Generated_Source\PSoC4/ADC.c **** }
 417              		.loc 1 399 0
 418              		@ sp needed
 394:Generated_Source\PSoC4/ADC.c ****     #else /* Firmware trigger */
 419              		.loc 1 394 0
 420 0008 0B43     		orrs	r3, r1
 421 000a 1360     		str	r3, [r2]
 422              		.loc 1 399 0
 423 000c 7047     		bx	lr
 424              	.L35:
 425 000e C046     		.align	2
 426              	.L34:
 427 0010 04001A40 		.word	1075445764
 428              		.cfi_endproc
 429              	.LFE4:
 430              		.size	ADC_StartConvert, .-ADC_StartConvert
 431              		.section	.text.ADC_StopConvert,"ax",%progbits
 432              		.align	1
 433              		.global	ADC_StopConvert
 434              		.code	16
 435              		.thumb_func
 436              		.type	ADC_StopConvert, %function
 437              	ADC_StopConvert:
 438              	.LFB5:
 400:Generated_Source\PSoC4/ADC.c **** 
 401:Generated_Source\PSoC4/ADC.c **** 
 402:Generated_Source\PSoC4/ADC.c **** /*******************************************************************************
 403:Generated_Source\PSoC4/ADC.c **** * Function Name: ADC_StopConvert
 404:Generated_Source\PSoC4/ADC.c **** ********************************************************************************
 405:Generated_Source\PSoC4/ADC.c **** *
 406:Generated_Source\PSoC4/ADC.c **** * Summary:
 407:Generated_Source\PSoC4/ADC.c **** *  Forces the ADC to stop all conversions.
 408:Generated_Source\PSoC4/ADC.c **** *
 409:Generated_Source\PSoC4/ADC.c **** * Parameters:
 410:Generated_Source\PSoC4/ADC.c **** *  None.
 411:Generated_Source\PSoC4/ADC.c **** *
 412:Generated_Source\PSoC4/ADC.c **** * Return:
 413:Generated_Source\PSoC4/ADC.c **** *  None.
 414:Generated_Source\PSoC4/ADC.c **** *
 415:Generated_Source\PSoC4/ADC.c **** *******************************************************************************/
 416:Generated_Source\PSoC4/ADC.c **** void ADC_StopConvert(void)
 417:Generated_Source\PSoC4/ADC.c **** {
 439              		.loc 1 417 0
 440              		.cfi_startproc
 441              		@ args = 0, pretend = 0, frame = 0
 442              		@ frame_needed = 0, uses_anonymous_args = 0
 443              		@ link register save eliminated.
 418:Generated_Source\PSoC4/ADC.c ****     #if(ADC_DEFAULT_SAMPLE_MODE_SEL == ADC__FREERUNNING)
 419:Generated_Source\PSoC4/ADC.c ****         ADC_SAR_SAMPLE_CTRL_REG &= (uint32)(~ADC_CONTINUOUS_EN);
 444              		.loc 1 419 0
 445 0000 024A     		ldr	r2, .L37
 446 0002 034B     		ldr	r3, .L37+4
 447 0004 1168     		ldr	r1, [r2]
 420:Generated_Source\PSoC4/ADC.c ****     #endif /* ADC_DEFAULT_SAMPLE_MODE == ADC__FREERUNNING */
 421:Generated_Source\PSoC4/ADC.c **** }
ARM GAS  C:\Users\VIDEOH~1\AppData\Local\Temp\ccZFo3gc.s 			page 17


 448              		.loc 1 421 0
 449              		@ sp needed
 419:Generated_Source\PSoC4/ADC.c ****     #endif /* ADC_DEFAULT_SAMPLE_MODE == ADC__FREERUNNING */
 450              		.loc 1 419 0
 451 0006 0B40     		ands	r3, r1
 452 0008 1360     		str	r3, [r2]
 453              		.loc 1 421 0
 454 000a 7047     		bx	lr
 455              	.L38:
 456              		.align	2
 457              	.L37:
 458 000c 04001A40 		.word	1075445764
 459 0010 FFFFFEFF 		.word	-65537
 460              		.cfi_endproc
 461              	.LFE5:
 462              		.size	ADC_StopConvert, .-ADC_StopConvert
 463              		.section	.text.ADC_IsEndConversion,"ax",%progbits
 464              		.align	1
 465              		.global	ADC_IsEndConversion
 466              		.code	16
 467              		.thumb_func
 468              		.type	ADC_IsEndConversion, %function
 469              	ADC_IsEndConversion:
 470              	.LFB6:
 422:Generated_Source\PSoC4/ADC.c **** 
 423:Generated_Source\PSoC4/ADC.c **** 
 424:Generated_Source\PSoC4/ADC.c **** /*******************************************************************************
 425:Generated_Source\PSoC4/ADC.c **** * Function Name: ADC_IsEndConversion
 426:Generated_Source\PSoC4/ADC.c **** ********************************************************************************
 427:Generated_Source\PSoC4/ADC.c **** *
 428:Generated_Source\PSoC4/ADC.c **** * Summary:
 429:Generated_Source\PSoC4/ADC.c **** *  Description: Checks for ADC end of conversion for the case one
 430:Generated_Source\PSoC4/ADC.c **** *  channel and end of scan for the case of multiple channels. It acts
 431:Generated_Source\PSoC4/ADC.c **** *  as a software version of the EOC. This function provides the
 432:Generated_Source\PSoC4/ADC.c **** *  programmer with two options. In one mode this function
 433:Generated_Source\PSoC4/ADC.c **** *  immediately returns with the conversion status. In the other mode,
 434:Generated_Source\PSoC4/ADC.c **** *  the function does not return (blocking) until the conversion has
 435:Generated_Source\PSoC4/ADC.c **** *  completed.
 436:Generated_Source\PSoC4/ADC.c **** *
 437:Generated_Source\PSoC4/ADC.c **** * Parameters:
 438:Generated_Source\PSoC4/ADC.c **** *  ADC_RETURN_STATUS        -> Immediately returns conversion result status
 439:Generated_Source\PSoC4/ADC.c **** *  ADC_WAIT_FOR_RESULT      -> Does not return until ADC complete
 440:Generated_Source\PSoC4/ADC.c **** *  ADC_RETURN_STATUS_INJ    -> Immediately returns conversion result status
 441:Generated_Source\PSoC4/ADC.c **** *                              for injection channel
 442:Generated_Source\PSoC4/ADC.c **** *  ADC_WAIT_FOR_RESULT_INJ  -> Does not return until ADC completes injection
 443:Generated_Source\PSoC4/ADC.c **** *                              channel conversion
 444:Generated_Source\PSoC4/ADC.c **** *
 445:Generated_Source\PSoC4/ADC.c **** * Return:
 446:Generated_Source\PSoC4/ADC.c **** *  If a non-zero value is returned, the last conversion or scan has completed.
 447:Generated_Source\PSoC4/ADC.c **** *  If the returned value is zero, the ADC is still in the process of a scan.
 448:Generated_Source\PSoC4/ADC.c **** *
 449:Generated_Source\PSoC4/ADC.c **** *******************************************************************************/
 450:Generated_Source\PSoC4/ADC.c **** uint32 ADC_IsEndConversion(uint32 retMode)
 451:Generated_Source\PSoC4/ADC.c **** {
 471              		.loc 1 451 0
 472              		.cfi_startproc
 473              		@ args = 0, pretend = 0, frame = 0
ARM GAS  C:\Users\VIDEOH~1\AppData\Local\Temp\ccZFo3gc.s 			page 18


 474              		@ frame_needed = 0, uses_anonymous_args = 0
 475              	.LVL19:
 476 0000 10B5     		push	{r4, lr}
 477              		.cfi_def_cfa_offset 8
 478              		.cfi_offset 4, -8
 479              		.cfi_offset 14, -4
 452:Generated_Source\PSoC4/ADC.c ****     uint32 status = 0u;
 480              		.loc 1 452 0
 481 0002 0023     		movs	r3, #0
 453:Generated_Source\PSoC4/ADC.c **** 
 454:Generated_Source\PSoC4/ADC.c ****     if((retMode & (ADC_RETURN_STATUS | ADC_WAIT_FOR_RESULT)) != 0u)
 482              		.loc 1 454 0
 483 0004 8207     		lsls	r2, r0, #30
 484 0006 0DD0     		beq	.L44
 455:Generated_Source\PSoC4/ADC.c ****     {
 456:Generated_Source\PSoC4/ADC.c ****         do
 457:Generated_Source\PSoC4/ADC.c ****         {
 458:Generated_Source\PSoC4/ADC.c ****             status = ADC_SAR_INTR_REG & ADC_EOS_MASK;
 485              		.loc 1 458 0 discriminator 2
 486 0008 0124     		movs	r4, #1
 459:Generated_Source\PSoC4/ADC.c ****         }while((status == 0u) && ((retMode & ADC_WAIT_FOR_RESULT) != 0u));
 487              		.loc 1 459 0 discriminator 2
 488 000a 0233     		adds	r3, r3, #2
 458:Generated_Source\PSoC4/ADC.c ****         }while((status == 0u) && ((retMode & ADC_WAIT_FOR_RESULT) != 0u));
 489              		.loc 1 458 0 discriminator 2
 490 000c 0649     		ldr	r1, .L48
 491              		.loc 1 459 0 discriminator 2
 492 000e 1840     		ands	r0, r3
 493              	.LVL20:
 494              	.L45:
 458:Generated_Source\PSoC4/ADC.c ****         }while((status == 0u) && ((retMode & ADC_WAIT_FOR_RESULT) != 0u));
 495              		.loc 1 458 0 discriminator 2
 496 0010 0B68     		ldr	r3, [r1]
 497 0012 0122     		movs	r2, #1
 498 0014 2340     		ands	r3, r4
 499              	.LVL21:
 500              		.loc 1 459 0 discriminator 2
 501 0016 02D1     		bne	.L41
 502              		.loc 1 459 0 is_stmt 0 discriminator 1
 503 0018 0028     		cmp	r0, #0
 504 001a F9D1     		bne	.L45
 505 001c 02E0     		b	.L44
 506              	.L41:
 460:Generated_Source\PSoC4/ADC.c **** 
 461:Generated_Source\PSoC4/ADC.c ****         if(status != 0u)
 462:Generated_Source\PSoC4/ADC.c ****         {
 463:Generated_Source\PSoC4/ADC.c ****             /* Clear EOS bit */
 464:Generated_Source\PSoC4/ADC.c ****             ADC_SAR_INTR_REG = ADC_EOS_MASK;
 507              		.loc 1 464 0 is_stmt 1
 508 001e 024B     		ldr	r3, .L48
 509              	.LVL22:
 510 0020 1A60     		str	r2, [r3]
 511 0022 1300     		movs	r3, r2
 512              	.LVL23:
 513              	.L44:
 465:Generated_Source\PSoC4/ADC.c ****         }
 466:Generated_Source\PSoC4/ADC.c ****     }
ARM GAS  C:\Users\VIDEOH~1\AppData\Local\Temp\ccZFo3gc.s 			page 19


 467:Generated_Source\PSoC4/ADC.c **** 
 468:Generated_Source\PSoC4/ADC.c ****     #if(ADC_INJ_CHANNEL_ENABLED)
 469:Generated_Source\PSoC4/ADC.c ****         if((retMode & (ADC_RETURN_STATUS_INJ | ADC_WAIT_FOR_RESULT_INJ)) != 0u)
 470:Generated_Source\PSoC4/ADC.c ****         {
 471:Generated_Source\PSoC4/ADC.c ****             do
 472:Generated_Source\PSoC4/ADC.c ****             {
 473:Generated_Source\PSoC4/ADC.c ****                 status |= ADC_SAR_INTR_REG & ADC_INJ_EOC_MASK;
 474:Generated_Source\PSoC4/ADC.c ****             }while(((status & ADC_INJ_EOC_MASK) == 0u) &&
 475:Generated_Source\PSoC4/ADC.c ****                    ((retMode & ADC_WAIT_FOR_RESULT_INJ) != 0u));
 476:Generated_Source\PSoC4/ADC.c **** 
 477:Generated_Source\PSoC4/ADC.c ****             if((status & ADC_INJ_EOC_MASK) != 0u)
 478:Generated_Source\PSoC4/ADC.c ****             {
 479:Generated_Source\PSoC4/ADC.c ****                 /* Clear Injection EOS bit */
 480:Generated_Source\PSoC4/ADC.c ****                 ADC_SAR_INTR_REG = ADC_INJ_EOC_MASK;
 481:Generated_Source\PSoC4/ADC.c ****             }
 482:Generated_Source\PSoC4/ADC.c ****         }
 483:Generated_Source\PSoC4/ADC.c ****     #endif /* ADC_INJ_CHANNEL_ENABLED */
 484:Generated_Source\PSoC4/ADC.c **** 
 485:Generated_Source\PSoC4/ADC.c ****     return (status);
 486:Generated_Source\PSoC4/ADC.c **** }
 514              		.loc 1 486 0
 515 0024 1800     		movs	r0, r3
 516              		@ sp needed
 517 0026 10BD     		pop	{r4, pc}
 518              	.L49:
 519              		.align	2
 520              	.L48:
 521 0028 10021A40 		.word	1075446288
 522              		.cfi_endproc
 523              	.LFE6:
 524              		.size	ADC_IsEndConversion, .-ADC_IsEndConversion
 525              		.section	.text.ADC_GetResult16,"ax",%progbits
 526              		.align	1
 527              		.global	ADC_GetResult16
 528              		.code	16
 529              		.thumb_func
 530              		.type	ADC_GetResult16, %function
 531              	ADC_GetResult16:
 532              	.LFB7:
 487:Generated_Source\PSoC4/ADC.c **** 
 488:Generated_Source\PSoC4/ADC.c **** 
 489:Generated_Source\PSoC4/ADC.c **** /*******************************************************************************
 490:Generated_Source\PSoC4/ADC.c **** * Function Name: ADC_GetResult16
 491:Generated_Source\PSoC4/ADC.c **** ********************************************************************************
 492:Generated_Source\PSoC4/ADC.c **** *
 493:Generated_Source\PSoC4/ADC.c **** * Summary:
 494:Generated_Source\PSoC4/ADC.c **** *  Gets the data available in the SAR DATA register.
 495:Generated_Source\PSoC4/ADC.c **** *
 496:Generated_Source\PSoC4/ADC.c **** * Parameters:
 497:Generated_Source\PSoC4/ADC.c **** *  chan: The ADC channel in which to return the result. The first channel
 498:Generated_Source\PSoC4/ADC.c **** *  is 0 and the injection channel if enabled is the number of valid channels.
 499:Generated_Source\PSoC4/ADC.c **** *
 500:Generated_Source\PSoC4/ADC.c **** * Return:
 501:Generated_Source\PSoC4/ADC.c **** *  Returns converted data as a signed 16-bit integer
 502:Generated_Source\PSoC4/ADC.c **** *
 503:Generated_Source\PSoC4/ADC.c **** *******************************************************************************/
 504:Generated_Source\PSoC4/ADC.c **** int16 ADC_GetResult16(uint32 chan)
ARM GAS  C:\Users\VIDEOH~1\AppData\Local\Temp\ccZFo3gc.s 			page 20


 505:Generated_Source\PSoC4/ADC.c **** {
 533              		.loc 1 505 0
 534              		.cfi_startproc
 535              		@ args = 0, pretend = 0, frame = 0
 536              		@ frame_needed = 0, uses_anonymous_args = 0
 537              		@ link register save eliminated.
 538              	.LVL24:
 506:Generated_Source\PSoC4/ADC.c ****     uint32 result;
 507:Generated_Source\PSoC4/ADC.c **** 
 508:Generated_Source\PSoC4/ADC.c ****     /* Halt CPU in debug mode if channel is out of valid range */
 509:Generated_Source\PSoC4/ADC.c ****     CYASSERT(chan < ADC_TOTAL_CHANNELS_NUM);
 510:Generated_Source\PSoC4/ADC.c **** 
 511:Generated_Source\PSoC4/ADC.c ****     if(chan < ADC_SEQUENCED_CHANNELS_NUM)
 512:Generated_Source\PSoC4/ADC.c ****     {
 513:Generated_Source\PSoC4/ADC.c ****         result = CY_GET_REG32((reg32 *)(ADC_SAR_CHAN_RESULT_IND + (uint32)(chan << 2u))) &
 514:Generated_Source\PSoC4/ADC.c ****                 ADC_RESULT_MASK;
 515:Generated_Source\PSoC4/ADC.c ****     }
 516:Generated_Source\PSoC4/ADC.c ****     else
 517:Generated_Source\PSoC4/ADC.c ****     {
 518:Generated_Source\PSoC4/ADC.c ****         #if(ADC_INJ_CHANNEL_ENABLED)
 519:Generated_Source\PSoC4/ADC.c ****             result = ADC_SAR_INJ_RESULT_REG & ADC_RESULT_MASK;
 520:Generated_Source\PSoC4/ADC.c ****         #else
 521:Generated_Source\PSoC4/ADC.c ****             result = 0u;
 539              		.loc 1 521 0
 540 0000 0023     		movs	r3, #0
 511:Generated_Source\PSoC4/ADC.c ****     {
 541              		.loc 1 511 0
 542 0002 0428     		cmp	r0, #4
 543 0004 04D8     		bhi	.L51
 513:Generated_Source\PSoC4/ADC.c ****                 ADC_RESULT_MASK;
 544              		.loc 1 513 0
 545 0006 034B     		ldr	r3, .L53
 546 0008 8000     		lsls	r0, r0, #2
 547              	.LVL25:
 548 000a C018     		adds	r0, r0, r3
 549 000c 0368     		ldr	r3, [r0]
 550 000e 9BB2     		uxth	r3, r3
 551              	.LVL26:
 552              	.L51:
 522:Generated_Source\PSoC4/ADC.c ****         #endif /* ADC_INJ_CHANNEL_ENABLED */
 523:Generated_Source\PSoC4/ADC.c ****     }
 524:Generated_Source\PSoC4/ADC.c **** 
 525:Generated_Source\PSoC4/ADC.c ****     return ( (int16)result );
 553              		.loc 1 525 0
 554 0010 18B2     		sxth	r0, r3
 526:Generated_Source\PSoC4/ADC.c **** }
 555              		.loc 1 526 0
 556              		@ sp needed
 557 0012 7047     		bx	lr
 558              	.L54:
 559              		.align	2
 560              	.L53:
 561 0014 80011A40 		.word	1075446144
 562              		.cfi_endproc
 563              	.LFE7:
 564              		.size	ADC_GetResult16, .-ADC_GetResult16
 565              		.section	.text.ADC_SetChanMask,"ax",%progbits
ARM GAS  C:\Users\VIDEOH~1\AppData\Local\Temp\ccZFo3gc.s 			page 21


 566              		.align	1
 567              		.global	ADC_SetChanMask
 568              		.code	16
 569              		.thumb_func
 570              		.type	ADC_SetChanMask, %function
 571              	ADC_SetChanMask:
 572              	.LFB8:
 527:Generated_Source\PSoC4/ADC.c **** 
 528:Generated_Source\PSoC4/ADC.c **** 
 529:Generated_Source\PSoC4/ADC.c **** /*******************************************************************************
 530:Generated_Source\PSoC4/ADC.c **** * Function Name: ADC_SetChanMask
 531:Generated_Source\PSoC4/ADC.c **** ********************************************************************************
 532:Generated_Source\PSoC4/ADC.c **** *
 533:Generated_Source\PSoC4/ADC.c **** * Summary:
 534:Generated_Source\PSoC4/ADC.c **** *  Sets the channel enable mask.
 535:Generated_Source\PSoC4/ADC.c **** *
 536:Generated_Source\PSoC4/ADC.c **** * Parameters:
 537:Generated_Source\PSoC4/ADC.c **** *  mask: Sets which channels that will be
 538:Generated_Source\PSoC4/ADC.c **** *  scanned. Setting bits for channels that do not exist will have no
 539:Generated_Source\PSoC4/ADC.c **** *  effect. For example, if only 6 channels were enabled, setting a
 540:Generated_Source\PSoC4/ADC.c **** *  mask of 0x0103 would only enable the last two channels (0 and 1).
 541:Generated_Source\PSoC4/ADC.c **** *  This API will not enable the injection channel.
 542:Generated_Source\PSoC4/ADC.c **** *  Examples: If the component is setup to sequence through 8
 543:Generated_Source\PSoC4/ADC.c **** *  channels, a mask of 0x000F would enable channels 0, 1, 2, and 3.
 544:Generated_Source\PSoC4/ADC.c **** *
 545:Generated_Source\PSoC4/ADC.c **** * Return:
 546:Generated_Source\PSoC4/ADC.c **** *  None.
 547:Generated_Source\PSoC4/ADC.c **** *
 548:Generated_Source\PSoC4/ADC.c **** *******************************************************************************/
 549:Generated_Source\PSoC4/ADC.c **** void ADC_SetChanMask(uint32 mask)
 550:Generated_Source\PSoC4/ADC.c **** {
 573              		.loc 1 550 0
 574              		.cfi_startproc
 575              		@ args = 0, pretend = 0, frame = 0
 576              		@ frame_needed = 0, uses_anonymous_args = 0
 577              		@ link register save eliminated.
 578              	.LVL27:
 551:Generated_Source\PSoC4/ADC.c ****     ADC_SAR_CHAN_EN_REG = mask & ADC_MAX_CHANNELS_EN_MASK;
 579              		.loc 1 551 0
 580 0000 1F23     		movs	r3, #31
 581 0002 1840     		ands	r0, r3
 582              	.LVL28:
 583 0004 014B     		ldr	r3, .L56
 552:Generated_Source\PSoC4/ADC.c **** }
 584              		.loc 1 552 0
 585              		@ sp needed
 551:Generated_Source\PSoC4/ADC.c ****     ADC_SAR_CHAN_EN_REG = mask & ADC_MAX_CHANNELS_EN_MASK;
 586              		.loc 1 551 0
 587 0006 1860     		str	r0, [r3]
 588              		.loc 1 552 0
 589 0008 7047     		bx	lr
 590              	.L57:
 591 000a C046     		.align	2
 592              	.L56:
 593 000c 20001A40 		.word	1075445792
 594              		.cfi_endproc
 595              	.LFE8:
ARM GAS  C:\Users\VIDEOH~1\AppData\Local\Temp\ccZFo3gc.s 			page 22


 596              		.size	ADC_SetChanMask, .-ADC_SetChanMask
 597              		.section	.text.ADC_SetLowLimit,"ax",%progbits
 598              		.align	1
 599              		.global	ADC_SetLowLimit
 600              		.code	16
 601              		.thumb_func
 602              		.type	ADC_SetLowLimit, %function
 603              	ADC_SetLowLimit:
 604              	.LFB9:
 553:Generated_Source\PSoC4/ADC.c **** 
 554:Generated_Source\PSoC4/ADC.c **** #if(ADC_INJ_CHANNEL_ENABLED)
 555:Generated_Source\PSoC4/ADC.c **** 
 556:Generated_Source\PSoC4/ADC.c **** 
 557:Generated_Source\PSoC4/ADC.c ****     /*******************************************************************************
 558:Generated_Source\PSoC4/ADC.c ****     * Function Name: ADC_EnableInjection
 559:Generated_Source\PSoC4/ADC.c ****     ********************************************************************************
 560:Generated_Source\PSoC4/ADC.c ****     *
 561:Generated_Source\PSoC4/ADC.c ****     * Summary:
 562:Generated_Source\PSoC4/ADC.c ****     *  Enables the injection channel for the next scan only.
 563:Generated_Source\PSoC4/ADC.c ****     *
 564:Generated_Source\PSoC4/ADC.c ****     * Parameters:
 565:Generated_Source\PSoC4/ADC.c ****     *  None.
 566:Generated_Source\PSoC4/ADC.c ****     *
 567:Generated_Source\PSoC4/ADC.c ****     * Return:
 568:Generated_Source\PSoC4/ADC.c ****     *  None.
 569:Generated_Source\PSoC4/ADC.c ****     *
 570:Generated_Source\PSoC4/ADC.c ****     *******************************************************************************/
 571:Generated_Source\PSoC4/ADC.c ****     void ADC_EnableInjection(void)
 572:Generated_Source\PSoC4/ADC.c ****     {
 573:Generated_Source\PSoC4/ADC.c ****         ADC_SAR_INJ_CHAN_CONFIG_REG |= ADC_INJ_CHAN_EN;
 574:Generated_Source\PSoC4/ADC.c ****     }
 575:Generated_Source\PSoC4/ADC.c **** 
 576:Generated_Source\PSoC4/ADC.c **** #endif /* ADC_INJ_CHANNEL_ENABLED */
 577:Generated_Source\PSoC4/ADC.c **** 
 578:Generated_Source\PSoC4/ADC.c **** 
 579:Generated_Source\PSoC4/ADC.c **** /*******************************************************************************
 580:Generated_Source\PSoC4/ADC.c **** * Function Name: ADC_SetLowLimit
 581:Generated_Source\PSoC4/ADC.c **** ********************************************************************************
 582:Generated_Source\PSoC4/ADC.c **** *
 583:Generated_Source\PSoC4/ADC.c **** * Summary:
 584:Generated_Source\PSoC4/ADC.c **** *  Sets the low limit parameter for a limit condition.
 585:Generated_Source\PSoC4/ADC.c **** *
 586:Generated_Source\PSoC4/ADC.c **** * Parameters:
 587:Generated_Source\PSoC4/ADC.c **** *  lowLimit: The low limit for a limit condition.
 588:Generated_Source\PSoC4/ADC.c **** *
 589:Generated_Source\PSoC4/ADC.c **** * Return:
 590:Generated_Source\PSoC4/ADC.c **** *  None.
 591:Generated_Source\PSoC4/ADC.c **** *
 592:Generated_Source\PSoC4/ADC.c **** *******************************************************************************/
 593:Generated_Source\PSoC4/ADC.c **** void ADC_SetLowLimit(uint32 lowLimit)
 594:Generated_Source\PSoC4/ADC.c **** {
 605              		.loc 1 594 0
 606              		.cfi_startproc
 607              		@ args = 0, pretend = 0, frame = 0
 608              		@ frame_needed = 0, uses_anonymous_args = 0
 609              		@ link register save eliminated.
 610              	.LVL29:
ARM GAS  C:\Users\VIDEOH~1\AppData\Local\Temp\ccZFo3gc.s 			page 23


 595:Generated_Source\PSoC4/ADC.c ****     ADC_SAR_RANGE_THRES_REG &= (uint32)(~ADC_RANGE_LOW_MASK);
 611              		.loc 1 595 0
 612 0000 044A     		ldr	r2, .L59
 596:Generated_Source\PSoC4/ADC.c ****     ADC_SAR_RANGE_THRES_REG |= lowLimit & ADC_RANGE_LOW_MASK;
 613              		.loc 1 596 0
 614 0002 80B2     		uxth	r0, r0
 615              	.LVL30:
 595:Generated_Source\PSoC4/ADC.c ****     ADC_SAR_RANGE_THRES_REG &= (uint32)(~ADC_RANGE_LOW_MASK);
 616              		.loc 1 595 0
 617 0004 1368     		ldr	r3, [r2]
 597:Generated_Source\PSoC4/ADC.c **** }
 618              		.loc 1 597 0
 619              		@ sp needed
 595:Generated_Source\PSoC4/ADC.c ****     ADC_SAR_RANGE_THRES_REG &= (uint32)(~ADC_RANGE_LOW_MASK);
 620              		.loc 1 595 0
 621 0006 1B0C     		lsrs	r3, r3, #16
 622 0008 1B04     		lsls	r3, r3, #16
 623 000a 1360     		str	r3, [r2]
 596:Generated_Source\PSoC4/ADC.c ****     ADC_SAR_RANGE_THRES_REG |= lowLimit & ADC_RANGE_LOW_MASK;
 624              		.loc 1 596 0
 625 000c 1368     		ldr	r3, [r2]
 626 000e 1843     		orrs	r0, r3
 627 0010 1060     		str	r0, [r2]
 628              		.loc 1 597 0
 629 0012 7047     		bx	lr
 630              	.L60:
 631              		.align	2
 632              	.L59:
 633 0014 18001A40 		.word	1075445784
 634              		.cfi_endproc
 635              	.LFE9:
 636              		.size	ADC_SetLowLimit, .-ADC_SetLowLimit
 637              		.section	.text.ADC_SetHighLimit,"ax",%progbits
 638              		.align	1
 639              		.global	ADC_SetHighLimit
 640              		.code	16
 641              		.thumb_func
 642              		.type	ADC_SetHighLimit, %function
 643              	ADC_SetHighLimit:
 644              	.LFB10:
 598:Generated_Source\PSoC4/ADC.c **** 
 599:Generated_Source\PSoC4/ADC.c **** 
 600:Generated_Source\PSoC4/ADC.c **** /*******************************************************************************
 601:Generated_Source\PSoC4/ADC.c **** * Function Name: ADC_SetHighLimit
 602:Generated_Source\PSoC4/ADC.c **** ********************************************************************************
 603:Generated_Source\PSoC4/ADC.c **** *
 604:Generated_Source\PSoC4/ADC.c **** * Summary:
 605:Generated_Source\PSoC4/ADC.c **** *  Sets the low limit parameter for a limit condition.
 606:Generated_Source\PSoC4/ADC.c **** *
 607:Generated_Source\PSoC4/ADC.c **** * Parameters:
 608:Generated_Source\PSoC4/ADC.c **** *  highLimit: The high limit for a limit condition.
 609:Generated_Source\PSoC4/ADC.c **** *
 610:Generated_Source\PSoC4/ADC.c **** * Return:
 611:Generated_Source\PSoC4/ADC.c **** *  None.
 612:Generated_Source\PSoC4/ADC.c **** *
 613:Generated_Source\PSoC4/ADC.c **** *******************************************************************************/
 614:Generated_Source\PSoC4/ADC.c **** void ADC_SetHighLimit(uint32 highLimit)
ARM GAS  C:\Users\VIDEOH~1\AppData\Local\Temp\ccZFo3gc.s 			page 24


 615:Generated_Source\PSoC4/ADC.c **** {
 645              		.loc 1 615 0
 646              		.cfi_startproc
 647              		@ args = 0, pretend = 0, frame = 0
 648              		@ frame_needed = 0, uses_anonymous_args = 0
 649              		@ link register save eliminated.
 650              	.LVL31:
 616:Generated_Source\PSoC4/ADC.c ****     ADC_SAR_RANGE_THRES_REG &= (uint32)(~ADC_RANGE_HIGH_MASK);
 651              		.loc 1 616 0
 652 0000 044B     		ldr	r3, .L62
 617:Generated_Source\PSoC4/ADC.c ****     ADC_SAR_RANGE_THRES_REG |= (uint32)(highLimit << ADC_RANGE_HIGH_OFFSET);
 653              		.loc 1 617 0
 654 0002 0004     		lsls	r0, r0, #16
 655              	.LVL32:
 616:Generated_Source\PSoC4/ADC.c ****     ADC_SAR_RANGE_THRES_REG &= (uint32)(~ADC_RANGE_HIGH_MASK);
 656              		.loc 1 616 0
 657 0004 1A68     		ldr	r2, [r3]
 618:Generated_Source\PSoC4/ADC.c **** }
 658              		.loc 1 618 0
 659              		@ sp needed
 616:Generated_Source\PSoC4/ADC.c ****     ADC_SAR_RANGE_THRES_REG &= (uint32)(~ADC_RANGE_HIGH_MASK);
 660              		.loc 1 616 0
 661 0006 92B2     		uxth	r2, r2
 662 0008 1A60     		str	r2, [r3]
 617:Generated_Source\PSoC4/ADC.c ****     ADC_SAR_RANGE_THRES_REG |= (uint32)(highLimit << ADC_RANGE_HIGH_OFFSET);
 663              		.loc 1 617 0
 664 000a 1A68     		ldr	r2, [r3]
 665 000c 1043     		orrs	r0, r2
 666 000e 1860     		str	r0, [r3]
 667              		.loc 1 618 0
 668 0010 7047     		bx	lr
 669              	.L63:
 670 0012 C046     		.align	2
 671              	.L62:
 672 0014 18001A40 		.word	1075445784
 673              		.cfi_endproc
 674              	.LFE10:
 675              		.size	ADC_SetHighLimit, .-ADC_SetHighLimit
 676              		.section	.text.ADC_SetLimitMask,"ax",%progbits
 677              		.align	1
 678              		.global	ADC_SetLimitMask
 679              		.code	16
 680              		.thumb_func
 681              		.type	ADC_SetLimitMask, %function
 682              	ADC_SetLimitMask:
 683              	.LFB11:
 619:Generated_Source\PSoC4/ADC.c **** 
 620:Generated_Source\PSoC4/ADC.c **** 
 621:Generated_Source\PSoC4/ADC.c **** /*******************************************************************************
 622:Generated_Source\PSoC4/ADC.c **** * Function Name: ADC_SetLimitMask
 623:Generated_Source\PSoC4/ADC.c **** ********************************************************************************
 624:Generated_Source\PSoC4/ADC.c **** *
 625:Generated_Source\PSoC4/ADC.c **** * Summary:
 626:Generated_Source\PSoC4/ADC.c **** *  Sets the channel limit condition mask.
 627:Generated_Source\PSoC4/ADC.c **** *
 628:Generated_Source\PSoC4/ADC.c **** * Parameters:
 629:Generated_Source\PSoC4/ADC.c **** *  mask: Sets which channels that may cause a
ARM GAS  C:\Users\VIDEOH~1\AppData\Local\Temp\ccZFo3gc.s 			page 25


 630:Generated_Source\PSoC4/ADC.c **** *  limit condition interrupt. Setting bits for channels that do not exist
 631:Generated_Source\PSoC4/ADC.c **** *  will have no effect. For example, if only 6 channels were enabled,
 632:Generated_Source\PSoC4/ADC.c **** *  setting a mask of 0x0103 would only enable the last two channels (0 and 1).
 633:Generated_Source\PSoC4/ADC.c **** *
 634:Generated_Source\PSoC4/ADC.c **** * Return:
 635:Generated_Source\PSoC4/ADC.c **** *  None.
 636:Generated_Source\PSoC4/ADC.c **** *
 637:Generated_Source\PSoC4/ADC.c **** *******************************************************************************/
 638:Generated_Source\PSoC4/ADC.c **** void ADC_SetLimitMask(uint32 mask)
 639:Generated_Source\PSoC4/ADC.c **** {
 684              		.loc 1 639 0
 685              		.cfi_startproc
 686              		@ args = 0, pretend = 0, frame = 0
 687              		@ frame_needed = 0, uses_anonymous_args = 0
 688              		@ link register save eliminated.
 689              	.LVL33:
 640:Generated_Source\PSoC4/ADC.c ****     ADC_SAR_RANGE_INTR_MASK_REG = mask & ADC_MAX_CHANNELS_EN_MASK;
 690              		.loc 1 640 0
 691 0000 1F23     		movs	r3, #31
 692 0002 1840     		ands	r0, r3
 693              	.LVL34:
 694 0004 014B     		ldr	r3, .L65
 641:Generated_Source\PSoC4/ADC.c **** }
 695              		.loc 1 641 0
 696              		@ sp needed
 640:Generated_Source\PSoC4/ADC.c ****     ADC_SAR_RANGE_INTR_MASK_REG = mask & ADC_MAX_CHANNELS_EN_MASK;
 697              		.loc 1 640 0
 698 0006 1860     		str	r0, [r3]
 699              		.loc 1 641 0
 700 0008 7047     		bx	lr
 701              	.L66:
 702 000a C046     		.align	2
 703              	.L65:
 704 000c 38021A40 		.word	1075446328
 705              		.cfi_endproc
 706              	.LFE11:
 707              		.size	ADC_SetLimitMask, .-ADC_SetLimitMask
 708              		.section	.text.ADC_SetSatMask,"ax",%progbits
 709              		.align	1
 710              		.global	ADC_SetSatMask
 711              		.code	16
 712              		.thumb_func
 713              		.type	ADC_SetSatMask, %function
 714              	ADC_SetSatMask:
 715              	.LFB12:
 642:Generated_Source\PSoC4/ADC.c **** 
 643:Generated_Source\PSoC4/ADC.c **** 
 644:Generated_Source\PSoC4/ADC.c **** /*******************************************************************************
 645:Generated_Source\PSoC4/ADC.c **** * Function Name: ADC_SetSatMask
 646:Generated_Source\PSoC4/ADC.c **** ********************************************************************************
 647:Generated_Source\PSoC4/ADC.c **** *
 648:Generated_Source\PSoC4/ADC.c **** * Summary:
 649:Generated_Source\PSoC4/ADC.c **** *  Sets the channel saturation event mask.
 650:Generated_Source\PSoC4/ADC.c **** *
 651:Generated_Source\PSoC4/ADC.c **** * Parameters:
 652:Generated_Source\PSoC4/ADC.c **** *  mask: Sets which channels that may cause a
 653:Generated_Source\PSoC4/ADC.c **** *  saturation event interrupt. Setting bits for channels that do not exist
ARM GAS  C:\Users\VIDEOH~1\AppData\Local\Temp\ccZFo3gc.s 			page 26


 654:Generated_Source\PSoC4/ADC.c **** *  will have no effect. For example, if only 8 channels were enabled,
 655:Generated_Source\PSoC4/ADC.c **** *  setting a mask of 0x01C0 would only enable two channels (6 and 7).
 656:Generated_Source\PSoC4/ADC.c **** *
 657:Generated_Source\PSoC4/ADC.c **** * Return:
 658:Generated_Source\PSoC4/ADC.c **** *  None.
 659:Generated_Source\PSoC4/ADC.c **** *
 660:Generated_Source\PSoC4/ADC.c **** *******************************************************************************/
 661:Generated_Source\PSoC4/ADC.c **** void ADC_SetSatMask(uint32 mask)
 662:Generated_Source\PSoC4/ADC.c **** {
 716              		.loc 1 662 0
 717              		.cfi_startproc
 718              		@ args = 0, pretend = 0, frame = 0
 719              		@ frame_needed = 0, uses_anonymous_args = 0
 720              		@ link register save eliminated.
 721              	.LVL35:
 663:Generated_Source\PSoC4/ADC.c ****     ADC_SAR_SATURATE_INTR_MASK_REG = mask & ADC_MAX_CHANNELS_EN_MASK;
 722              		.loc 1 663 0
 723 0000 1F23     		movs	r3, #31
 724 0002 1840     		ands	r0, r3
 725              	.LVL36:
 726 0004 014B     		ldr	r3, .L68
 664:Generated_Source\PSoC4/ADC.c **** }
 727              		.loc 1 664 0
 728              		@ sp needed
 663:Generated_Source\PSoC4/ADC.c ****     ADC_SAR_SATURATE_INTR_MASK_REG = mask & ADC_MAX_CHANNELS_EN_MASK;
 729              		.loc 1 663 0
 730 0006 1860     		str	r0, [r3]
 731              		.loc 1 664 0
 732 0008 7047     		bx	lr
 733              	.L69:
 734 000a C046     		.align	2
 735              	.L68:
 736 000c 28021A40 		.word	1075446312
 737              		.cfi_endproc
 738              	.LFE12:
 739              		.size	ADC_SetSatMask, .-ADC_SetSatMask
 740              		.section	.text.ADC_SetOffset,"ax",%progbits
 741              		.align	1
 742              		.global	ADC_SetOffset
 743              		.code	16
 744              		.thumb_func
 745              		.type	ADC_SetOffset, %function
 746              	ADC_SetOffset:
 747              	.LFB13:
 665:Generated_Source\PSoC4/ADC.c **** 
 666:Generated_Source\PSoC4/ADC.c **** 
 667:Generated_Source\PSoC4/ADC.c **** /*******************************************************************************
 668:Generated_Source\PSoC4/ADC.c **** * Function Name: ADC_SetOffset
 669:Generated_Source\PSoC4/ADC.c **** ********************************************************************************
 670:Generated_Source\PSoC4/ADC.c **** *
 671:Generated_Source\PSoC4/ADC.c **** * Summary:
 672:Generated_Source\PSoC4/ADC.c **** *   Description: Sets the ADC offset which is used by the functions
 673:Generated_Source\PSoC4/ADC.c **** *   ADC_CountsTo_uVolts, ADC_CountsTo_mVolts and ADC_CountsTo_Volts
 674:Generated_Source\PSoC4/ADC.c **** *   to substract the offset from the given reading
 675:Generated_Source\PSoC4/ADC.c **** *   before calculating the voltage conversion.
 676:Generated_Source\PSoC4/ADC.c **** *
 677:Generated_Source\PSoC4/ADC.c **** * Parameters:
ARM GAS  C:\Users\VIDEOH~1\AppData\Local\Temp\ccZFo3gc.s 			page 27


 678:Generated_Source\PSoC4/ADC.c **** *  chan: ADC channel number.
 679:Generated_Source\PSoC4/ADC.c **** *  offset: This value is a measured value when the
 680:Generated_Source\PSoC4/ADC.c **** *          inputs are shorted or connected to the same input voltage.
 681:Generated_Source\PSoC4/ADC.c **** *
 682:Generated_Source\PSoC4/ADC.c **** * Return:
 683:Generated_Source\PSoC4/ADC.c **** *  None.
 684:Generated_Source\PSoC4/ADC.c **** *
 685:Generated_Source\PSoC4/ADC.c **** * Global variables:
 686:Generated_Source\PSoC4/ADC.c **** *  ADC_Offset:  Modified to set the user provided offset.
 687:Generated_Source\PSoC4/ADC.c **** *
 688:Generated_Source\PSoC4/ADC.c **** *******************************************************************************/
 689:Generated_Source\PSoC4/ADC.c **** void ADC_SetOffset(uint32 chan, int16 offset)
 690:Generated_Source\PSoC4/ADC.c **** {
 748              		.loc 1 690 0
 749              		.cfi_startproc
 750              		@ args = 0, pretend = 0, frame = 0
 751              		@ frame_needed = 0, uses_anonymous_args = 0
 752              		@ link register save eliminated.
 753              	.LVL37:
 691:Generated_Source\PSoC4/ADC.c ****     /* Halt CPU in debug mode if channel is out of valid range */
 692:Generated_Source\PSoC4/ADC.c ****     CYASSERT(chan < ADC_TOTAL_CHANNELS_NUM);
 693:Generated_Source\PSoC4/ADC.c **** 
 694:Generated_Source\PSoC4/ADC.c ****     ADC_offset[chan] = offset;
 754              		.loc 1 694 0
 755 0000 014B     		ldr	r3, .L71
 756 0002 4000     		lsls	r0, r0, #1
 757              	.LVL38:
 758 0004 C152     		strh	r1, [r0, r3]
 695:Generated_Source\PSoC4/ADC.c **** }
 759              		.loc 1 695 0
 760              		@ sp needed
 761 0006 7047     		bx	lr
 762              	.L72:
 763              		.align	2
 764              	.L71:
 765 0008 00000000 		.word	ADC_offset
 766              		.cfi_endproc
 767              	.LFE13:
 768              		.size	ADC_SetOffset, .-ADC_SetOffset
 769              		.section	.text.ADC_SetGain,"ax",%progbits
 770              		.align	1
 771              		.global	ADC_SetGain
 772              		.code	16
 773              		.thumb_func
 774              		.type	ADC_SetGain, %function
 775              	ADC_SetGain:
 776              	.LFB14:
 696:Generated_Source\PSoC4/ADC.c **** 
 697:Generated_Source\PSoC4/ADC.c **** 
 698:Generated_Source\PSoC4/ADC.c **** /*******************************************************************************
 699:Generated_Source\PSoC4/ADC.c **** * Function Name: ADC_SetGain
 700:Generated_Source\PSoC4/ADC.c **** ********************************************************************************
 701:Generated_Source\PSoC4/ADC.c **** *
 702:Generated_Source\PSoC4/ADC.c **** * Summary:
 703:Generated_Source\PSoC4/ADC.c **** *  Description: Sets the ADC gain in counts per 10 volt for the voltage
 704:Generated_Source\PSoC4/ADC.c **** *  conversion functions below. This value is set by default by the
 705:Generated_Source\PSoC4/ADC.c **** *  reference and input range settings. It should only be used to further
ARM GAS  C:\Users\VIDEOH~1\AppData\Local\Temp\ccZFo3gc.s 			page 28


 706:Generated_Source\PSoC4/ADC.c **** *  calibrate the ADC with a known input or if an external reference is
 707:Generated_Source\PSoC4/ADC.c **** *  used. Affects the ADC_CountsTo_uVolts, ADC_CountsTo_mVolts
 708:Generated_Source\PSoC4/ADC.c **** *  and ADC_CountsTo_Volts functions by supplying the correct
 709:Generated_Source\PSoC4/ADC.c **** *  conversion between ADC counts and voltage.
 710:Generated_Source\PSoC4/ADC.c **** *
 711:Generated_Source\PSoC4/ADC.c **** * Parameters:
 712:Generated_Source\PSoC4/ADC.c **** *  chan: ADC channel number.
 713:Generated_Source\PSoC4/ADC.c **** *  adcGain: ADC gain in counts per 10 volts.
 714:Generated_Source\PSoC4/ADC.c **** *
 715:Generated_Source\PSoC4/ADC.c **** * Return:
 716:Generated_Source\PSoC4/ADC.c **** *  None.
 717:Generated_Source\PSoC4/ADC.c **** *
 718:Generated_Source\PSoC4/ADC.c **** * Global variables:
 719:Generated_Source\PSoC4/ADC.c **** *  ADC_CountsPer10Volt:  modified to set the ADC gain in counts
 720:Generated_Source\PSoC4/ADC.c **** *   per 10 volt.
 721:Generated_Source\PSoC4/ADC.c **** *
 722:Generated_Source\PSoC4/ADC.c **** *******************************************************************************/
 723:Generated_Source\PSoC4/ADC.c **** void ADC_SetGain(uint32 chan, int32 adcGain)
 724:Generated_Source\PSoC4/ADC.c **** {
 777              		.loc 1 724 0
 778              		.cfi_startproc
 779              		@ args = 0, pretend = 0, frame = 0
 780              		@ frame_needed = 0, uses_anonymous_args = 0
 781              		@ link register save eliminated.
 782              	.LVL39:
 725:Generated_Source\PSoC4/ADC.c ****     /* Halt CPU in debug mode if channel is out of valid range */
 726:Generated_Source\PSoC4/ADC.c ****     CYASSERT(chan < ADC_TOTAL_CHANNELS_NUM);
 727:Generated_Source\PSoC4/ADC.c **** 
 728:Generated_Source\PSoC4/ADC.c ****     ADC_countsPer10Volt[chan] = adcGain;
 783              		.loc 1 728 0
 784 0000 014B     		ldr	r3, .L74
 785 0002 8000     		lsls	r0, r0, #2
 786              	.LVL40:
 787 0004 C150     		str	r1, [r0, r3]
 729:Generated_Source\PSoC4/ADC.c **** }
 788              		.loc 1 729 0
 789              		@ sp needed
 790 0006 7047     		bx	lr
 791              	.L75:
 792              		.align	2
 793              	.L74:
 794 0008 00000000 		.word	ADC_countsPer10Volt
 795              		.cfi_endproc
 796              	.LFE14:
 797              		.size	ADC_SetGain, .-ADC_SetGain
 798              		.global	__aeabi_idiv
 799              		.section	.text.ADC_CountsTo_mVolts,"ax",%progbits
 800              		.align	1
 801              		.global	ADC_CountsTo_mVolts
 802              		.code	16
 803              		.thumb_func
 804              		.type	ADC_CountsTo_mVolts, %function
 805              	ADC_CountsTo_mVolts:
 806              	.LFB15:
 730:Generated_Source\PSoC4/ADC.c **** 
 731:Generated_Source\PSoC4/ADC.c **** 
 732:Generated_Source\PSoC4/ADC.c **** #if(ADC_DEFAULT_JUSTIFICATION_SEL == ADC__RIGHT)
ARM GAS  C:\Users\VIDEOH~1\AppData\Local\Temp\ccZFo3gc.s 			page 29


 733:Generated_Source\PSoC4/ADC.c **** 
 734:Generated_Source\PSoC4/ADC.c **** 
 735:Generated_Source\PSoC4/ADC.c ****     /*******************************************************************************
 736:Generated_Source\PSoC4/ADC.c ****     * Function Name: ADC_CountsTo_mVolts
 737:Generated_Source\PSoC4/ADC.c ****     ********************************************************************************
 738:Generated_Source\PSoC4/ADC.c ****     *
 739:Generated_Source\PSoC4/ADC.c ****     * Summary:
 740:Generated_Source\PSoC4/ADC.c ****     *  This function converts ADC counts to mVolts
 741:Generated_Source\PSoC4/ADC.c ****     *  This function is not available when left data format justification selected.
 742:Generated_Source\PSoC4/ADC.c ****     *
 743:Generated_Source\PSoC4/ADC.c ****     * Parameters:
 744:Generated_Source\PSoC4/ADC.c ****     *  chan: The ADC channel number.
 745:Generated_Source\PSoC4/ADC.c ****     *  adcCounts: Result from the ADC conversion
 746:Generated_Source\PSoC4/ADC.c ****     *
 747:Generated_Source\PSoC4/ADC.c ****     * Return:
 748:Generated_Source\PSoC4/ADC.c ****     *  Results in mVolts
 749:Generated_Source\PSoC4/ADC.c ****     *
 750:Generated_Source\PSoC4/ADC.c ****     * Global variables:
 751:Generated_Source\PSoC4/ADC.c ****     *  ADC_countsPer10Volt:  used to convert ADC counts to mVolts.
 752:Generated_Source\PSoC4/ADC.c ****     *  ADC_Offset:  Used as the offset while converting ADC counts
 753:Generated_Source\PSoC4/ADC.c ****     *   to mVolts.
 754:Generated_Source\PSoC4/ADC.c ****     *
 755:Generated_Source\PSoC4/ADC.c ****     *******************************************************************************/
 756:Generated_Source\PSoC4/ADC.c ****     int16 ADC_CountsTo_mVolts(uint32 chan, int16 adcCounts)
 757:Generated_Source\PSoC4/ADC.c ****     {
 807              		.loc 1 757 0
 808              		.cfi_startproc
 809              		@ args = 0, pretend = 0, frame = 0
 810              		@ frame_needed = 0, uses_anonymous_args = 0
 811              	.LVL41:
 758:Generated_Source\PSoC4/ADC.c ****         int16 mVolts;
 759:Generated_Source\PSoC4/ADC.c **** 
 760:Generated_Source\PSoC4/ADC.c ****         /* Halt CPU in debug mode if channel is out of valid range */
 761:Generated_Source\PSoC4/ADC.c ****         CYASSERT(chan < ADC_TOTAL_CHANNELS_NUM);
 762:Generated_Source\PSoC4/ADC.c **** 
 763:Generated_Source\PSoC4/ADC.c ****         /* Divide the adcCount when accumulate averaging mode selected */
 764:Generated_Source\PSoC4/ADC.c ****         #if(ADC_DEFAULT_AVG_MODE == ADC__ACCUMULATE)
 765:Generated_Source\PSoC4/ADC.c ****             if((ADC_channelsConfig[chan] & ADC_AVERAGING_EN) != 0u)
 812              		.loc 1 765 0
 813 0000 104B     		ldr	r3, .L83
 757:Generated_Source\PSoC4/ADC.c ****         int16 mVolts;
 814              		.loc 1 757 0
 815 0002 70B5     		push	{r4, r5, r6, lr}
 816              		.cfi_def_cfa_offset 16
 817              		.cfi_offset 4, -16
 818              		.cfi_offset 5, -12
 819              		.cfi_offset 6, -8
 820              		.cfi_offset 14, -4
 821              		.loc 1 765 0
 822 0004 8400     		lsls	r4, r0, #2
 823 0006 E358     		ldr	r3, [r4, r3]
 824 0008 5B05     		lsls	r3, r3, #21
 825 000a 04D5     		bpl	.L77
 766:Generated_Source\PSoC4/ADC.c ****             {
 767:Generated_Source\PSoC4/ADC.c ****                 adcCounts /= ADC_DEFAULT_AVG_SAMPLES_DIV;
 826              		.loc 1 767 0
 827 000c 0F23     		movs	r3, #15
ARM GAS  C:\Users\VIDEOH~1\AppData\Local\Temp\ccZFo3gc.s 			page 30


 828 000e CA17     		asrs	r2, r1, #31
 829 0010 1340     		ands	r3, r2
 830 0012 5918     		adds	r1, r3, r1
 831              	.LVL42:
 832 0014 0911     		asrs	r1, r1, #4
 833              	.LVL43:
 834              	.L77:
 768:Generated_Source\PSoC4/ADC.c ****             }
 769:Generated_Source\PSoC4/ADC.c ****         #endif /* ADC_DEFAULT_AVG_MODE == ADC__ACCUMULATE */
 770:Generated_Source\PSoC4/ADC.c **** 
 771:Generated_Source\PSoC4/ADC.c ****         /* Subtract ADC offset */
 772:Generated_Source\PSoC4/ADC.c ****         adcCounts -= ADC_offset[chan];
 835              		.loc 1 772 0
 836 0016 0C4B     		ldr	r3, .L83+4
 837 0018 4000     		lsls	r0, r0, #1
 838              	.LVL44:
 839 001a C35A     		ldrh	r3, [r0, r3]
 840 001c 0B4D     		ldr	r5, .L83+8
 841 001e C91A     		subs	r1, r1, r3
 842              	.LVL45:
 773:Generated_Source\PSoC4/ADC.c **** 
 774:Generated_Source\PSoC4/ADC.c ****         mVolts = (int16)((((int32)adcCounts * ADC_10MV_COUNTS) + ( (adcCounts > 0) ?
 775:Generated_Source\PSoC4/ADC.c ****                  (ADC_countsPer10Volt[chan] / 2) : (-(ADC_countsPer10Volt[chan] / 2)) ))
 843              		.loc 1 775 0
 844 0020 2B59     		ldr	r3, [r5, r4]
 774:Generated_Source\PSoC4/ADC.c ****                  (ADC_countsPer10Volt[chan] / 2) : (-(ADC_countsPer10Volt[chan] / 2)) ))
 845              		.loc 1 774 0
 846 0022 0B4A     		ldr	r2, .L83+12
 847              		.loc 1 775 0
 848 0024 D80F     		lsrs	r0, r3, #31
 772:Generated_Source\PSoC4/ADC.c **** 
 849              		.loc 1 772 0
 850 0026 09B2     		sxth	r1, r1
 851              	.LVL46:
 852              		.loc 1 775 0
 853 0028 C318     		adds	r3, r0, r3
 774:Generated_Source\PSoC4/ADC.c ****                  (ADC_countsPer10Volt[chan] / 2) : (-(ADC_countsPer10Volt[chan] / 2)) ))
 854              		.loc 1 774 0
 855 002a 4A43     		muls	r2, r1
 856              		.loc 1 775 0
 857 002c 5810     		asrs	r0, r3, #1
 858 002e 0029     		cmp	r1, #0
 859 0030 01DC     		bgt	.L79
 860              		.loc 1 775 0 is_stmt 0 discriminator 2
 861 0032 5B10     		asrs	r3, r3, #1
 862 0034 5842     		rsbs	r0, r3, #0
 863              	.L79:
 776:Generated_Source\PSoC4/ADC.c ****                  / ADC_countsPer10Volt[chan]);
 864              		.loc 1 776 0 is_stmt 1
 865 0036 2959     		ldr	r1, [r5, r4]
 866              	.LVL47:
 777:Generated_Source\PSoC4/ADC.c **** 
 778:Generated_Source\PSoC4/ADC.c ****         return( mVolts );
 867              		.loc 1 778 0
 868 0038 8018     		adds	r0, r0, r2
 869              	.LVL48:
 870 003a FFF7FEFF 		bl	__aeabi_idiv
ARM GAS  C:\Users\VIDEOH~1\AppData\Local\Temp\ccZFo3gc.s 			page 31


 871              	.LVL49:
 779:Generated_Source\PSoC4/ADC.c ****     }
 872              		.loc 1 779 0
 873              		@ sp needed
 778:Generated_Source\PSoC4/ADC.c ****     }
 874              		.loc 1 778 0
 875 003e 00B2     		sxth	r0, r0
 876              		.loc 1 779 0
 877 0040 70BD     		pop	{r4, r5, r6, pc}
 878              	.L84:
 879 0042 C046     		.align	2
 880              	.L83:
 881 0044 00000000 		.word	.LANCHOR0
 882 0048 00000000 		.word	ADC_offset
 883 004c 00000000 		.word	ADC_countsPer10Volt
 884 0050 10270000 		.word	10000
 885              		.cfi_endproc
 886              	.LFE15:
 887              		.size	ADC_CountsTo_mVolts, .-ADC_CountsTo_mVolts
 888              		.global	__aeabi_lmul
 889              		.global	__aeabi_ldivmod
 890              		.section	.text.ADC_CountsTo_uVolts,"ax",%progbits
 891              		.align	1
 892              		.global	ADC_CountsTo_uVolts
 893              		.code	16
 894              		.thumb_func
 895              		.type	ADC_CountsTo_uVolts, %function
 896              	ADC_CountsTo_uVolts:
 897              	.LFB16:
 780:Generated_Source\PSoC4/ADC.c **** 
 781:Generated_Source\PSoC4/ADC.c **** 
 782:Generated_Source\PSoC4/ADC.c ****     /*******************************************************************************
 783:Generated_Source\PSoC4/ADC.c ****     * Function Name: ADC_CountsTo_uVolts
 784:Generated_Source\PSoC4/ADC.c ****     ********************************************************************************
 785:Generated_Source\PSoC4/ADC.c ****     *
 786:Generated_Source\PSoC4/ADC.c ****     * Summary:
 787:Generated_Source\PSoC4/ADC.c ****     *  This function converts ADC counts to micro Volts
 788:Generated_Source\PSoC4/ADC.c ****     *  This function is not available when left data format justification selected.
 789:Generated_Source\PSoC4/ADC.c ****     *
 790:Generated_Source\PSoC4/ADC.c ****     * Parameters:
 791:Generated_Source\PSoC4/ADC.c ****     *  chan: The ADC channel number.
 792:Generated_Source\PSoC4/ADC.c ****     *  adcCounts: Result from the ADC conversion
 793:Generated_Source\PSoC4/ADC.c ****     *
 794:Generated_Source\PSoC4/ADC.c ****     * Return:
 795:Generated_Source\PSoC4/ADC.c ****     *  Results in uVolts
 796:Generated_Source\PSoC4/ADC.c ****     *
 797:Generated_Source\PSoC4/ADC.c ****     * Global variables:
 798:Generated_Source\PSoC4/ADC.c ****     *  ADC_countsPer10Volt:  used to convert ADC counts to uVolts.
 799:Generated_Source\PSoC4/ADC.c ****     *  ADC_Offset:  Used as the offset while converting ADC counts
 800:Generated_Source\PSoC4/ADC.c ****     *   to mVolts.
 801:Generated_Source\PSoC4/ADC.c ****     *
 802:Generated_Source\PSoC4/ADC.c ****     * Theory:
 803:Generated_Source\PSoC4/ADC.c ****     *  Care must be taken to not exceed the maximum value for a 31 bit signed
 804:Generated_Source\PSoC4/ADC.c ****     *  number in the conversion to uVolts and at the same time not loose
 805:Generated_Source\PSoC4/ADC.c ****     *  resolution.
 806:Generated_Source\PSoC4/ADC.c ****     *  To convert adcCounts to microVolts it is required to be multiplied
 807:Generated_Source\PSoC4/ADC.c ****     *  on 10 million and later divide on gain in counts per 10V.
ARM GAS  C:\Users\VIDEOH~1\AppData\Local\Temp\ccZFo3gc.s 			page 32


 808:Generated_Source\PSoC4/ADC.c ****     *
 809:Generated_Source\PSoC4/ADC.c ****     *******************************************************************************/
 810:Generated_Source\PSoC4/ADC.c ****     int32 ADC_CountsTo_uVolts(uint32 chan, int16 adcCounts)
 811:Generated_Source\PSoC4/ADC.c ****     {
 898              		.loc 1 811 0
 899              		.cfi_startproc
 900              		@ args = 0, pretend = 0, frame = 0
 901              		@ frame_needed = 0, uses_anonymous_args = 0
 902              	.LVL50:
 812:Generated_Source\PSoC4/ADC.c ****         int64 uVolts;
 813:Generated_Source\PSoC4/ADC.c **** 
 814:Generated_Source\PSoC4/ADC.c ****         /* Halt CPU in debug mode if channel is out of valid range */
 815:Generated_Source\PSoC4/ADC.c ****         CYASSERT(chan < ADC_TOTAL_CHANNELS_NUM);
 816:Generated_Source\PSoC4/ADC.c **** 
 817:Generated_Source\PSoC4/ADC.c ****         /* Divide the adcCount when accumulate averaging mode selected */
 818:Generated_Source\PSoC4/ADC.c ****         #if(ADC_DEFAULT_AVG_MODE == ADC__ACCUMULATE)
 819:Generated_Source\PSoC4/ADC.c ****             if((ADC_channelsConfig[chan] & ADC_AVERAGING_EN) != 0u)
 903              		.loc 1 819 0
 904 0000 0D4B     		ldr	r3, .L90
 905 0002 8200     		lsls	r2, r0, #2
 906 0004 D358     		ldr	r3, [r2, r3]
 811:Generated_Source\PSoC4/ADC.c ****         int64 uVolts;
 907              		.loc 1 811 0
 908 0006 10B5     		push	{r4, lr}
 909              		.cfi_def_cfa_offset 8
 910              		.cfi_offset 4, -8
 911              		.cfi_offset 14, -4
 912              		.loc 1 819 0
 913 0008 5B05     		lsls	r3, r3, #21
 914 000a 04D5     		bpl	.L86
 820:Generated_Source\PSoC4/ADC.c ****             {
 821:Generated_Source\PSoC4/ADC.c ****                 adcCounts /= ADC_DEFAULT_AVG_SAMPLES_DIV;
 915              		.loc 1 821 0
 916 000c 0F23     		movs	r3, #15
 917 000e CC17     		asrs	r4, r1, #31
 918 0010 2340     		ands	r3, r4
 919 0012 5918     		adds	r1, r3, r1
 920              	.LVL51:
 921 0014 0911     		asrs	r1, r1, #4
 922              	.LVL52:
 923              	.L86:
 822:Generated_Source\PSoC4/ADC.c ****             }
 823:Generated_Source\PSoC4/ADC.c ****         #endif /* ADC_DEFAULT_AVG_MODE == ADC__ACCUMULATE */
 824:Generated_Source\PSoC4/ADC.c **** 
 825:Generated_Source\PSoC4/ADC.c ****         /* Subtract ADC offset */
 826:Generated_Source\PSoC4/ADC.c ****         adcCounts -= ADC_offset[chan];
 924              		.loc 1 826 0
 925 0016 094B     		ldr	r3, .L90+4
 926 0018 4000     		lsls	r0, r0, #1
 927              	.LVL53:
 928 001a C05A     		ldrh	r0, [r0, r3]
 827:Generated_Source\PSoC4/ADC.c **** 
 828:Generated_Source\PSoC4/ADC.c ****         uVolts = ((int64)adcCounts * ADC_10UV_COUNTS) / ADC_countsPer10Volt[chan];
 929              		.loc 1 828 0
 930 001c 084B     		ldr	r3, .L90+8
 826:Generated_Source\PSoC4/ADC.c **** 
 931              		.loc 1 826 0
ARM GAS  C:\Users\VIDEOH~1\AppData\Local\Temp\ccZFo3gc.s 			page 33


 932 001e 091A     		subs	r1, r1, r0
 933              	.LVL54:
 934              		.loc 1 828 0
 935 0020 9C58     		ldr	r4, [r3, r2]
 936              	.LVL55:
 829:Generated_Source\PSoC4/ADC.c **** 
 830:Generated_Source\PSoC4/ADC.c ****         return( (int32)uVolts );
 937              		.loc 1 830 0
 938 0022 08B2     		sxth	r0, r1
 939 0024 074A     		ldr	r2, .L90+12
 940 0026 0023     		movs	r3, #0
 941 0028 C117     		asrs	r1, r0, #31
 942              	.LVL56:
 943 002a FFF7FEFF 		bl	__aeabi_lmul
 944              	.LVL57:
 945 002e E317     		asrs	r3, r4, #31
 946 0030 2200     		movs	r2, r4
 947 0032 FFF7FEFF 		bl	__aeabi_ldivmod
 948              	.LVL58:
 831:Generated_Source\PSoC4/ADC.c ****     }
 949              		.loc 1 831 0
 950              		@ sp needed
 951 0036 10BD     		pop	{r4, pc}
 952              	.L91:
 953              		.align	2
 954              	.L90:
 955 0038 00000000 		.word	.LANCHOR0
 956 003c 00000000 		.word	ADC_offset
 957 0040 00000000 		.word	ADC_countsPer10Volt
 958 0044 80969800 		.word	10000000
 959              		.cfi_endproc
 960              	.LFE16:
 961              		.size	ADC_CountsTo_uVolts, .-ADC_CountsTo_uVolts
 962              		.global	__aeabi_i2f
 963              		.global	__aeabi_fmul
 964              		.global	__aeabi_fdiv
 965              		.section	.text.ADC_CountsTo_Volts,"ax",%progbits
 966              		.align	1
 967              		.global	ADC_CountsTo_Volts
 968              		.code	16
 969              		.thumb_func
 970              		.type	ADC_CountsTo_Volts, %function
 971              	ADC_CountsTo_Volts:
 972              	.LFB17:
 832:Generated_Source\PSoC4/ADC.c **** 
 833:Generated_Source\PSoC4/ADC.c **** 
 834:Generated_Source\PSoC4/ADC.c ****     /*******************************************************************************
 835:Generated_Source\PSoC4/ADC.c ****     * Function Name: ADC_CountsTo_Volts
 836:Generated_Source\PSoC4/ADC.c ****     ********************************************************************************
 837:Generated_Source\PSoC4/ADC.c ****     *
 838:Generated_Source\PSoC4/ADC.c ****     * Summary:
 839:Generated_Source\PSoC4/ADC.c ****     *  Converts the ADC output to Volts as a floating point number.
 840:Generated_Source\PSoC4/ADC.c ****     *  This function is not available when left data format justification selected.
 841:Generated_Source\PSoC4/ADC.c ****     *
 842:Generated_Source\PSoC4/ADC.c ****     * Parameters:
 843:Generated_Source\PSoC4/ADC.c ****     *  chan: The ADC channel number.
 844:Generated_Source\PSoC4/ADC.c ****     *  Result from the ADC conversion
ARM GAS  C:\Users\VIDEOH~1\AppData\Local\Temp\ccZFo3gc.s 			page 34


 845:Generated_Source\PSoC4/ADC.c ****     *
 846:Generated_Source\PSoC4/ADC.c ****     * Return:
 847:Generated_Source\PSoC4/ADC.c ****     *  Results in Volts
 848:Generated_Source\PSoC4/ADC.c ****     *
 849:Generated_Source\PSoC4/ADC.c ****     * Global variables:
 850:Generated_Source\PSoC4/ADC.c ****     *  ADC_countsPer10Volt:  used to convert ADC counts to Volts.
 851:Generated_Source\PSoC4/ADC.c ****     *  ADC_Offset:  Used as the offset while converting ADC counts
 852:Generated_Source\PSoC4/ADC.c ****     *   to mVolts.
 853:Generated_Source\PSoC4/ADC.c ****     *
 854:Generated_Source\PSoC4/ADC.c ****     *******************************************************************************/
 855:Generated_Source\PSoC4/ADC.c ****     float32 ADC_CountsTo_Volts(uint32 chan, int16 adcCounts)
 856:Generated_Source\PSoC4/ADC.c ****     {
 973              		.loc 1 856 0
 974              		.cfi_startproc
 975              		@ args = 0, pretend = 0, frame = 0
 976              		@ frame_needed = 0, uses_anonymous_args = 0
 977              	.LVL59:
 857:Generated_Source\PSoC4/ADC.c ****         float32 volts;
 858:Generated_Source\PSoC4/ADC.c **** 
 859:Generated_Source\PSoC4/ADC.c ****         /* Halt CPU in debug mode if channel is out of valid range */
 860:Generated_Source\PSoC4/ADC.c ****         CYASSERT(chan < ADC_TOTAL_CHANNELS_NUM);
 861:Generated_Source\PSoC4/ADC.c **** 
 862:Generated_Source\PSoC4/ADC.c ****         /* Divide the adcCount when accumulate averaging mode selected */
 863:Generated_Source\PSoC4/ADC.c ****         #if(ADC_DEFAULT_AVG_MODE == ADC__ACCUMULATE)
 864:Generated_Source\PSoC4/ADC.c ****             if((ADC_channelsConfig[chan] & ADC_AVERAGING_EN) != 0u)
 978              		.loc 1 864 0
 979 0000 0F4B     		ldr	r3, .L97
 980 0002 8200     		lsls	r2, r0, #2
 981 0004 D358     		ldr	r3, [r2, r3]
 856:Generated_Source\PSoC4/ADC.c ****         float32 volts;
 982              		.loc 1 856 0
 983 0006 70B5     		push	{r4, r5, r6, lr}
 984              		.cfi_def_cfa_offset 16
 985              		.cfi_offset 4, -16
 986              		.cfi_offset 5, -12
 987              		.cfi_offset 6, -8
 988              		.cfi_offset 14, -4
 989              		.loc 1 864 0
 990 0008 5B05     		lsls	r3, r3, #21
 991 000a 04D5     		bpl	.L93
 865:Generated_Source\PSoC4/ADC.c ****             {
 866:Generated_Source\PSoC4/ADC.c ****                 adcCounts /= ADC_DEFAULT_AVG_SAMPLES_DIV;
 992              		.loc 1 866 0
 993 000c 0F23     		movs	r3, #15
 994 000e CC17     		asrs	r4, r1, #31
 995 0010 2340     		ands	r3, r4
 996 0012 5918     		adds	r1, r3, r1
 997              	.LVL60:
 998 0014 0911     		asrs	r1, r1, #4
 999              	.LVL61:
 1000              	.L93:
 867:Generated_Source\PSoC4/ADC.c ****             }
 868:Generated_Source\PSoC4/ADC.c ****         #endif /* ADC_DEFAULT_AVG_MODE == ADC__ACCUMULATE */
 869:Generated_Source\PSoC4/ADC.c **** 
 870:Generated_Source\PSoC4/ADC.c ****         /* Subtract ADC offset */
 871:Generated_Source\PSoC4/ADC.c ****         adcCounts -= ADC_offset[chan];
 1001              		.loc 1 871 0
ARM GAS  C:\Users\VIDEOH~1\AppData\Local\Temp\ccZFo3gc.s 			page 35


 1002 0016 0B4B     		ldr	r3, .L97+4
 1003 0018 4000     		lsls	r0, r0, #1
 1004              	.LVL62:
 1005 001a C05A     		ldrh	r0, [r0, r3]
 872:Generated_Source\PSoC4/ADC.c **** 
 873:Generated_Source\PSoC4/ADC.c ****         volts = ((float32)adcCounts * ADC_10V_COUNTS) / (float32)ADC_countsPer10Volt[chan];
 1006              		.loc 1 873 0
 1007 001c 0A4B     		ldr	r3, .L97+8
 871:Generated_Source\PSoC4/ADC.c **** 
 1008              		.loc 1 871 0
 1009 001e 091A     		subs	r1, r1, r0
 1010              	.LVL63:
 874:Generated_Source\PSoC4/ADC.c **** 
 875:Generated_Source\PSoC4/ADC.c ****         return( volts );
 1011              		.loc 1 875 0
 1012 0020 08B2     		sxth	r0, r1
 873:Generated_Source\PSoC4/ADC.c **** 
 1013              		.loc 1 873 0
 1014 0022 9D58     		ldr	r5, [r3, r2]
 1015              	.LVL64:
 1016              		.loc 1 875 0
 1017 0024 FFF7FEFF 		bl	__aeabi_i2f
 1018              	.LVL65:
 1019 0028 0849     		ldr	r1, .L97+12
 1020 002a FFF7FEFF 		bl	__aeabi_fmul
 1021              	.LVL66:
 1022 002e 041C     		adds	r4, r0, #0
 1023 0030 2800     		movs	r0, r5
 1024 0032 FFF7FEFF 		bl	__aeabi_i2f
 1025              	.LVL67:
 1026 0036 011C     		adds	r1, r0, #0
 1027 0038 201C     		adds	r0, r4, #0
 1028 003a FFF7FEFF 		bl	__aeabi_fdiv
 1029              	.LVL68:
 876:Generated_Source\PSoC4/ADC.c ****     }
 1030              		.loc 1 876 0
 1031              		@ sp needed
 1032 003e 70BD     		pop	{r4, r5, r6, pc}
 1033              	.L98:
 1034              		.align	2
 1035              	.L97:
 1036 0040 00000000 		.word	.LANCHOR0
 1037 0044 00000000 		.word	ADC_offset
 1038 0048 00000000 		.word	ADC_countsPer10Volt
 1039 004c 00002041 		.word	1092616192
 1040              		.cfi_endproc
 1041              	.LFE17:
 1042              		.size	ADC_CountsTo_Volts, .-ADC_CountsTo_Volts
 1043              		.comm	ADC_countsPer10Volt,20,4
 1044              		.comm	ADC_offset,10,2
 1045              		.global	ADC_initVar
 1046              		.section	.rodata
 1047              		.align	2
 1048              		.set	.LANCHOR0,. + 0
 1049              		.type	ADC_channelsConfig, %object
 1050              		.size	ADC_channelsConfig, 20
 1051              	ADC_channelsConfig:
ARM GAS  C:\Users\VIDEOH~1\AppData\Local\Temp\ccZFo3gc.s 			page 36


 1052 0000 00140000 		.word	5120
 1053 0004 00140000 		.word	5120
 1054 0008 00020000 		.word	512
 1055 000c 00020000 		.word	512
 1056 0010 00140000 		.word	5120
 1057              		.type	ADC_InputsPlacement.4870, %object
 1058              		.size	ADC_InputsPlacement.4870, 5
 1059              	ADC_InputsPlacement.4870:
 1060 0014 04       		.byte	4
 1061 0015 03       		.byte	3
 1062 0016 12       		.byte	18
 1063 0017 02       		.byte	2
 1064 0018 01       		.byte	1
 1065              		.bss
 1066              		.set	.LANCHOR1,. + 0
 1067              		.type	ADC_initVar, %object
 1068              		.size	ADC_initVar, 1
 1069              	ADC_initVar:
 1070 0000 00       		.space	1
 1071              		.text
 1072              	.Letext0:
 1073              		.file 2 "Generated_Source\\PSoC4\\cytypes.h"
 1074              		.file 3 "Generated_Source\\PSoC4\\CyLib.h"