ARM GAS  C:\Users\VIDEOH~1\AppData\Local\Temp\ccYkFm2l.s 			page 1


   1              		.syntax unified
   2              		.cpu cortex-m0
   3              		.fpu softvfp
   4              		.eabi_attribute 20, 1
   5              		.eabi_attribute 21, 1
   6              		.eabi_attribute 23, 3
   7              		.eabi_attribute 24, 1
   8              		.eabi_attribute 25, 1
   9              		.eabi_attribute 26, 1
  10              		.eabi_attribute 30, 4
  11              		.eabi_attribute 34, 0
  12              		.eabi_attribute 18, 4
  13              		.thumb
  14              		.syntax unified
  15              		.file	"ADC_PM.c"
  16              		.text
  17              	.Ltext0:
  18              		.cfi_sections	.debug_frame
  19              		.section	.text.ADC_SaveConfig,"ax",%progbits
  20              		.align	1
  21              		.global	ADC_SaveConfig
  22              		.code	16
  23              		.thumb_func
  24              		.type	ADC_SaveConfig, %function
  25              	ADC_SaveConfig:
  26              	.LFB5:
  27              		.cfi_startproc
  28              		@ args = 0, pretend = 0, frame = 0
  29              		@ frame_needed = 0, uses_anonymous_args = 0
  30              		@ link register save eliminated.
  31              		@ sp needed
  32 0000 7047     		bx	lr
  33              		.cfi_endproc
  34              	.LFE5:
  35              		.size	ADC_SaveConfig, .-ADC_SaveConfig
  36              		.section	.text.ADC_RestoreConfig,"ax",%progbits
  37              		.align	1
  38              		.global	ADC_RestoreConfig
  39              		.code	16
  40              		.thumb_func
  41              		.type	ADC_RestoreConfig, %function
  42              	ADC_RestoreConfig:
  43              	.LFB1:
  44              		.file 1 "Generated_Source\\PSoC4\\ADC_PM.c"
   1:Generated_Source\PSoC4/ADC_PM.c **** /*******************************************************************************
   2:Generated_Source\PSoC4/ADC_PM.c **** * File Name: ADC_PM.c
   3:Generated_Source\PSoC4/ADC_PM.c **** * Version 2.50
   4:Generated_Source\PSoC4/ADC_PM.c **** *
   5:Generated_Source\PSoC4/ADC_PM.c **** * Description:
   6:Generated_Source\PSoC4/ADC_PM.c **** *  This file provides Sleep/WakeUp APIs functionality.
   7:Generated_Source\PSoC4/ADC_PM.c **** *
   8:Generated_Source\PSoC4/ADC_PM.c **** * Note:
   9:Generated_Source\PSoC4/ADC_PM.c **** *
  10:Generated_Source\PSoC4/ADC_PM.c **** ********************************************************************************
  11:Generated_Source\PSoC4/ADC_PM.c **** * Copyright 2008-2017, Cypress Semiconductor Corporation.  All rights reserved.
  12:Generated_Source\PSoC4/ADC_PM.c **** * You may use this file only in accordance with the license, terms, conditions,
  13:Generated_Source\PSoC4/ADC_PM.c **** * disclaimers, and limitations in the end user license agreement accompanying
ARM GAS  C:\Users\VIDEOH~1\AppData\Local\Temp\ccYkFm2l.s 			page 2


  14:Generated_Source\PSoC4/ADC_PM.c **** * the software package with which this file was provided.
  15:Generated_Source\PSoC4/ADC_PM.c **** *******************************************************************************/
  16:Generated_Source\PSoC4/ADC_PM.c **** 
  17:Generated_Source\PSoC4/ADC_PM.c **** #include "ADC.h"
  18:Generated_Source\PSoC4/ADC_PM.c **** 
  19:Generated_Source\PSoC4/ADC_PM.c **** 
  20:Generated_Source\PSoC4/ADC_PM.c **** /***************************************
  21:Generated_Source\PSoC4/ADC_PM.c **** * Local data allocation
  22:Generated_Source\PSoC4/ADC_PM.c **** ***************************************/
  23:Generated_Source\PSoC4/ADC_PM.c **** 
  24:Generated_Source\PSoC4/ADC_PM.c **** static ADC_BACKUP_STRUCT  ADC_backup =
  25:Generated_Source\PSoC4/ADC_PM.c **** {
  26:Generated_Source\PSoC4/ADC_PM.c ****     ADC_DISABLED,
  27:Generated_Source\PSoC4/ADC_PM.c ****     0u    
  28:Generated_Source\PSoC4/ADC_PM.c **** };
  29:Generated_Source\PSoC4/ADC_PM.c **** 
  30:Generated_Source\PSoC4/ADC_PM.c **** 
  31:Generated_Source\PSoC4/ADC_PM.c **** /*******************************************************************************
  32:Generated_Source\PSoC4/ADC_PM.c **** * Function Name: ADC_SaveConfig
  33:Generated_Source\PSoC4/ADC_PM.c **** ********************************************************************************
  34:Generated_Source\PSoC4/ADC_PM.c **** *
  35:Generated_Source\PSoC4/ADC_PM.c **** * Summary:
  36:Generated_Source\PSoC4/ADC_PM.c **** *  Saves the current user configuration.
  37:Generated_Source\PSoC4/ADC_PM.c **** *
  38:Generated_Source\PSoC4/ADC_PM.c **** * Parameters:
  39:Generated_Source\PSoC4/ADC_PM.c **** *  None.
  40:Generated_Source\PSoC4/ADC_PM.c **** *
  41:Generated_Source\PSoC4/ADC_PM.c **** * Return:
  42:Generated_Source\PSoC4/ADC_PM.c **** *  None.
  43:Generated_Source\PSoC4/ADC_PM.c **** *
  44:Generated_Source\PSoC4/ADC_PM.c **** *******************************************************************************/
  45:Generated_Source\PSoC4/ADC_PM.c **** void ADC_SaveConfig(void)
  46:Generated_Source\PSoC4/ADC_PM.c **** {
  47:Generated_Source\PSoC4/ADC_PM.c ****     /* All configuration registers are marked as [reset_all_retention] */
  48:Generated_Source\PSoC4/ADC_PM.c **** }
  49:Generated_Source\PSoC4/ADC_PM.c **** 
  50:Generated_Source\PSoC4/ADC_PM.c **** 
  51:Generated_Source\PSoC4/ADC_PM.c **** /*******************************************************************************
  52:Generated_Source\PSoC4/ADC_PM.c **** * Function Name: ADC_RestoreConfig
  53:Generated_Source\PSoC4/ADC_PM.c **** ********************************************************************************
  54:Generated_Source\PSoC4/ADC_PM.c **** *
  55:Generated_Source\PSoC4/ADC_PM.c **** * Summary:
  56:Generated_Source\PSoC4/ADC_PM.c **** *  Restores the current user configuration.
  57:Generated_Source\PSoC4/ADC_PM.c **** *
  58:Generated_Source\PSoC4/ADC_PM.c **** * Parameters:
  59:Generated_Source\PSoC4/ADC_PM.c **** *  None.
  60:Generated_Source\PSoC4/ADC_PM.c **** *
  61:Generated_Source\PSoC4/ADC_PM.c **** * Return:
  62:Generated_Source\PSoC4/ADC_PM.c **** *  None.
  63:Generated_Source\PSoC4/ADC_PM.c **** *
  64:Generated_Source\PSoC4/ADC_PM.c **** *******************************************************************************/
  65:Generated_Source\PSoC4/ADC_PM.c **** void ADC_RestoreConfig(void)
  66:Generated_Source\PSoC4/ADC_PM.c **** {
  45              		.loc 1 66 0
  46              		.cfi_startproc
  47              		@ args = 0, pretend = 0, frame = 0
  48              		@ frame_needed = 0, uses_anonymous_args = 0
ARM GAS  C:\Users\VIDEOH~1\AppData\Local\Temp\ccYkFm2l.s 			page 3


  49              		@ link register save eliminated.
  67:Generated_Source\PSoC4/ADC_PM.c ****     /* All configuration registers are marked as [reset_all_retention] */
  68:Generated_Source\PSoC4/ADC_PM.c **** }
  50              		.loc 1 68 0
  51              		@ sp needed
  52 0000 7047     		bx	lr
  53              		.cfi_endproc
  54              	.LFE1:
  55              		.size	ADC_RestoreConfig, .-ADC_RestoreConfig
  56              		.section	.text.ADC_Sleep,"ax",%progbits
  57              		.align	1
  58              		.global	ADC_Sleep
  59              		.code	16
  60              		.thumb_func
  61              		.type	ADC_Sleep, %function
  62              	ADC_Sleep:
  63              	.LFB2:
  69:Generated_Source\PSoC4/ADC_PM.c **** 
  70:Generated_Source\PSoC4/ADC_PM.c **** 
  71:Generated_Source\PSoC4/ADC_PM.c **** /*******************************************************************************
  72:Generated_Source\PSoC4/ADC_PM.c **** * Function Name: ADC_Sleep
  73:Generated_Source\PSoC4/ADC_PM.c **** ********************************************************************************
  74:Generated_Source\PSoC4/ADC_PM.c **** *
  75:Generated_Source\PSoC4/ADC_PM.c **** * Summary:
  76:Generated_Source\PSoC4/ADC_PM.c **** *  Stops the ADC operation and saves the configuration registers and component
  77:Generated_Source\PSoC4/ADC_PM.c **** *  enable state. Should be called just prior to entering sleep.
  78:Generated_Source\PSoC4/ADC_PM.c **** *
  79:Generated_Source\PSoC4/ADC_PM.c **** * Parameters:
  80:Generated_Source\PSoC4/ADC_PM.c **** *  None.
  81:Generated_Source\PSoC4/ADC_PM.c **** *
  82:Generated_Source\PSoC4/ADC_PM.c **** * Return:
  83:Generated_Source\PSoC4/ADC_PM.c **** *  None.
  84:Generated_Source\PSoC4/ADC_PM.c **** *
  85:Generated_Source\PSoC4/ADC_PM.c **** * Global Variables:
  86:Generated_Source\PSoC4/ADC_PM.c **** *  ADC_backup - modified.
  87:Generated_Source\PSoC4/ADC_PM.c **** *
  88:Generated_Source\PSoC4/ADC_PM.c **** *******************************************************************************/
  89:Generated_Source\PSoC4/ADC_PM.c **** void ADC_Sleep(void)
  90:Generated_Source\PSoC4/ADC_PM.c **** {
  64              		.loc 1 90 0
  65              		.cfi_startproc
  66              		@ args = 0, pretend = 0, frame = 0
  67              		@ frame_needed = 0, uses_anonymous_args = 0
  91:Generated_Source\PSoC4/ADC_PM.c ****     /* During deepsleep/ hibernate mode keep SARMUX active, i.e. do not open
  92:Generated_Source\PSoC4/ADC_PM.c ****     *   all switches (disconnect), to be used for ADFT
  93:Generated_Source\PSoC4/ADC_PM.c ****     */
  94:Generated_Source\PSoC4/ADC_PM.c ****     ADC_backup.dftRegVal = ADC_SAR_DFT_CTRL_REG & (uint32)~ADC_ADFT_OVERRIDE;
  95:Generated_Source\PSoC4/ADC_PM.c ****     ADC_SAR_DFT_CTRL_REG |= ADC_ADFT_OVERRIDE;
  68              		.loc 1 95 0
  69 0000 8020     		movs	r0, #128
  94:Generated_Source\PSoC4/ADC_PM.c ****     ADC_SAR_DFT_CTRL_REG |= ADC_ADFT_OVERRIDE;
  70              		.loc 1 94 0
  71 0002 164A     		ldr	r2, .L13
  72 0004 1649     		ldr	r1, .L13+4
  73 0006 1368     		ldr	r3, [r2]
  90:Generated_Source\PSoC4/ADC_PM.c ****     /* During deepsleep/ hibernate mode keep SARMUX active, i.e. do not open
  74              		.loc 1 90 0
ARM GAS  C:\Users\VIDEOH~1\AppData\Local\Temp\ccYkFm2l.s 			page 4


  75 0008 70B5     		push	{r4, r5, r6, lr}
  76              		.cfi_def_cfa_offset 16
  77              		.cfi_offset 4, -16
  78              		.cfi_offset 5, -12
  79              		.cfi_offset 6, -8
  80              		.cfi_offset 14, -4
  94:Generated_Source\PSoC4/ADC_PM.c ****     ADC_SAR_DFT_CTRL_REG |= ADC_ADFT_OVERRIDE;
  81              		.loc 1 94 0
  82 000a 5B00     		lsls	r3, r3, #1
  83 000c 5B08     		lsrs	r3, r3, #1
  84 000e 4B60     		str	r3, [r1, #4]
  85              		.loc 1 95 0
  86 0010 1368     		ldr	r3, [r2]
  87 0012 0006     		lsls	r0, r0, #24
  88 0014 0343     		orrs	r3, r0
  89 0016 1360     		str	r3, [r2]
  96:Generated_Source\PSoC4/ADC_PM.c ****     if((ADC_SAR_CTRL_REG  & ADC_ENABLE) != 0u)
  90              		.loc 1 96 0
  91 0018 124B     		ldr	r3, .L13+8
  92 001a 0C00     		movs	r4, r1
  93 001c 1A68     		ldr	r2, [r3]
  94 001e 1D00     		movs	r5, r3
  95 0020 002A     		cmp	r2, #0
  96 0022 18DA     		bge	.L4
  97:Generated_Source\PSoC4/ADC_PM.c ****     {
  98:Generated_Source\PSoC4/ADC_PM.c ****         if((ADC_SAR_SAMPLE_CTRL_REG & ADC_CONTINUOUS_EN) != 0u)
  97              		.loc 1 98 0
  98 0024 104B     		ldr	r3, .L13+12
  99 0026 1B68     		ldr	r3, [r3]
 100 0028 DB03     		lsls	r3, r3, #15
 101 002a 01D5     		bpl	.L5
  99:Generated_Source\PSoC4/ADC_PM.c ****         {
 100:Generated_Source\PSoC4/ADC_PM.c ****             ADC_backup.enableState = ADC_ENABLED | ADC_STARTED;
 102              		.loc 1 100 0
 103 002c 0323     		movs	r3, #3
 104 002e 00E0     		b	.L11
 105              	.L5:
 101:Generated_Source\PSoC4/ADC_PM.c ****         }
 102:Generated_Source\PSoC4/ADC_PM.c ****         else
 103:Generated_Source\PSoC4/ADC_PM.c ****         {
 104:Generated_Source\PSoC4/ADC_PM.c ****             ADC_backup.enableState = ADC_ENABLED;
 106              		.loc 1 104 0
 107 0030 0123     		movs	r3, #1
 108              	.L11:
 109 0032 2370     		strb	r3, [r4]
 105:Generated_Source\PSoC4/ADC_PM.c ****         }
 106:Generated_Source\PSoC4/ADC_PM.c ****         ADC_StopConvert();
 110              		.loc 1 106 0
 111 0034 FFF7FEFF 		bl	ADC_StopConvert
 112              	.LVL0:
 107:Generated_Source\PSoC4/ADC_PM.c ****         ADC_Stop();
 113              		.loc 1 107 0
 114 0038 FFF7FEFF 		bl	ADC_Stop
 115              	.LVL1:
 108:Generated_Source\PSoC4/ADC_PM.c ****         
 109:Generated_Source\PSoC4/ADC_PM.c ****         /* Disable the SAR internal pump before entering the chip low power mode */
 110:Generated_Source\PSoC4/ADC_PM.c ****         if((ADC_SAR_CTRL_REG & ADC_BOOSTPUMP_EN) != 0u)
ARM GAS  C:\Users\VIDEOH~1\AppData\Local\Temp\ccYkFm2l.s 			page 5


 116              		.loc 1 110 0
 117 003c 2B68     		ldr	r3, [r5]
 118 003e 094A     		ldr	r2, .L13+8
 119 0040 DB02     		lsls	r3, r3, #11
 120 0042 0AD5     		bpl	.L3
 111:Generated_Source\PSoC4/ADC_PM.c ****         {
 112:Generated_Source\PSoC4/ADC_PM.c ****             ADC_SAR_CTRL_REG &= (uint32)~ADC_BOOSTPUMP_EN;
 121              		.loc 1 112 0
 122 0044 1168     		ldr	r1, [r2]
 123 0046 094B     		ldr	r3, .L13+16
 124 0048 0B40     		ands	r3, r1
 125 004a 1360     		str	r3, [r2]
 113:Generated_Source\PSoC4/ADC_PM.c ****             ADC_backup.enableState |= ADC_BOOSTPUMP_ENABLED;
 126              		.loc 1 113 0
 127 004c 0422     		movs	r2, #4
 128 004e 2378     		ldrb	r3, [r4]
 129 0050 1343     		orrs	r3, r2
 130 0052 2370     		strb	r3, [r4]
 131 0054 01E0     		b	.L3
 132              	.L4:
 114:Generated_Source\PSoC4/ADC_PM.c ****         }
 115:Generated_Source\PSoC4/ADC_PM.c ****     }
 116:Generated_Source\PSoC4/ADC_PM.c ****     else
 117:Generated_Source\PSoC4/ADC_PM.c ****     {
 118:Generated_Source\PSoC4/ADC_PM.c ****         ADC_backup.enableState = ADC_DISABLED;
 133              		.loc 1 118 0
 134 0056 0023     		movs	r3, #0
 135 0058 0B70     		strb	r3, [r1]
 136              	.L3:
 119:Generated_Source\PSoC4/ADC_PM.c ****     }
 120:Generated_Source\PSoC4/ADC_PM.c **** }
 137              		.loc 1 120 0
 138              		@ sp needed
 139 005a 70BD     		pop	{r4, r5, r6, pc}
 140              	.L14:
 141              		.align	2
 142              	.L13:
 143 005c 30001A40 		.word	1075445808
 144 0060 00000000 		.word	.LANCHOR0
 145 0064 00001A40 		.word	1075445760
 146 0068 04001A40 		.word	1075445764
 147 006c FFFFEFFF 		.word	-1048577
 148              		.cfi_endproc
 149              	.LFE2:
 150              		.size	ADC_Sleep, .-ADC_Sleep
 151              		.section	.text.ADC_Wakeup,"ax",%progbits
 152              		.align	1
 153              		.global	ADC_Wakeup
 154              		.code	16
 155              		.thumb_func
 156              		.type	ADC_Wakeup, %function
 157              	ADC_Wakeup:
 158              	.LFB3:
 121:Generated_Source\PSoC4/ADC_PM.c **** 
 122:Generated_Source\PSoC4/ADC_PM.c **** 
 123:Generated_Source\PSoC4/ADC_PM.c **** /*******************************************************************************
 124:Generated_Source\PSoC4/ADC_PM.c **** * Function Name: ADC_Wakeup
ARM GAS  C:\Users\VIDEOH~1\AppData\Local\Temp\ccYkFm2l.s 			page 6


 125:Generated_Source\PSoC4/ADC_PM.c **** ********************************************************************************
 126:Generated_Source\PSoC4/ADC_PM.c **** *
 127:Generated_Source\PSoC4/ADC_PM.c **** * Summary:
 128:Generated_Source\PSoC4/ADC_PM.c **** *  Restores the component enable state and configuration registers.
 129:Generated_Source\PSoC4/ADC_PM.c **** *  This should be called just after awaking from sleep mode.
 130:Generated_Source\PSoC4/ADC_PM.c **** *
 131:Generated_Source\PSoC4/ADC_PM.c **** * Parameters:
 132:Generated_Source\PSoC4/ADC_PM.c **** *  None.
 133:Generated_Source\PSoC4/ADC_PM.c **** *
 134:Generated_Source\PSoC4/ADC_PM.c **** * Return:
 135:Generated_Source\PSoC4/ADC_PM.c **** *  None.
 136:Generated_Source\PSoC4/ADC_PM.c **** *
 137:Generated_Source\PSoC4/ADC_PM.c **** * Global Variables:
 138:Generated_Source\PSoC4/ADC_PM.c **** *  ADC_backup - used.
 139:Generated_Source\PSoC4/ADC_PM.c **** *
 140:Generated_Source\PSoC4/ADC_PM.c **** *******************************************************************************/
 141:Generated_Source\PSoC4/ADC_PM.c **** void ADC_Wakeup(void)
 142:Generated_Source\PSoC4/ADC_PM.c **** {
 159              		.loc 1 142 0
 160              		.cfi_startproc
 161              		@ args = 0, pretend = 0, frame = 0
 162              		@ frame_needed = 0, uses_anonymous_args = 0
 163 0000 10B5     		push	{r4, lr}
 164              		.cfi_def_cfa_offset 8
 165              		.cfi_offset 4, -8
 166              		.cfi_offset 14, -4
 143:Generated_Source\PSoC4/ADC_PM.c ****     ADC_SAR_DFT_CTRL_REG = ADC_backup.dftRegVal;
 167              		.loc 1 143 0
 168 0002 0C4B     		ldr	r3, .L26
 169 0004 0C4A     		ldr	r2, .L26+4
 170 0006 5968     		ldr	r1, [r3, #4]
 171 0008 1C00     		movs	r4, r3
 172 000a 1160     		str	r1, [r2]
 144:Generated_Source\PSoC4/ADC_PM.c ****     if(ADC_backup.enableState != ADC_DISABLED)
 173              		.loc 1 144 0
 174 000c 1A78     		ldrb	r2, [r3]
 175 000e 002A     		cmp	r2, #0
 176 0010 0ED0     		beq	.L15
 145:Generated_Source\PSoC4/ADC_PM.c ****     {
 146:Generated_Source\PSoC4/ADC_PM.c ****         /* Enable the SAR internal pump  */
 147:Generated_Source\PSoC4/ADC_PM.c ****         if((ADC_backup.enableState & ADC_BOOSTPUMP_ENABLED) != 0u)
 177              		.loc 1 147 0
 178 0012 5307     		lsls	r3, r2, #29
 179 0014 05D5     		bpl	.L18
 148:Generated_Source\PSoC4/ADC_PM.c ****         {
 149:Generated_Source\PSoC4/ADC_PM.c ****             ADC_SAR_CTRL_REG |= ADC_BOOSTPUMP_EN;
 180              		.loc 1 149 0
 181 0016 8021     		movs	r1, #128
 182 0018 084A     		ldr	r2, .L26+8
 183 001a 4903     		lsls	r1, r1, #13
 184 001c 1368     		ldr	r3, [r2]
 185 001e 0B43     		orrs	r3, r1
 186 0020 1360     		str	r3, [r2]
 187              	.L18:
 150:Generated_Source\PSoC4/ADC_PM.c ****         }
 151:Generated_Source\PSoC4/ADC_PM.c ****         ADC_Enable();
 188              		.loc 1 151 0
ARM GAS  C:\Users\VIDEOH~1\AppData\Local\Temp\ccYkFm2l.s 			page 7


 189 0022 FFF7FEFF 		bl	ADC_Enable
 190              	.LVL2:
 152:Generated_Source\PSoC4/ADC_PM.c ****         if((ADC_backup.enableState & ADC_STARTED) != 0u)
 191              		.loc 1 152 0
 192 0026 2378     		ldrb	r3, [r4]
 193 0028 9B07     		lsls	r3, r3, #30
 194 002a 01D5     		bpl	.L15
 153:Generated_Source\PSoC4/ADC_PM.c ****         {
 154:Generated_Source\PSoC4/ADC_PM.c ****             ADC_StartConvert();
 195              		.loc 1 154 0
 196 002c FFF7FEFF 		bl	ADC_StartConvert
 197              	.LVL3:
 198              	.L15:
 155:Generated_Source\PSoC4/ADC_PM.c ****         }
 156:Generated_Source\PSoC4/ADC_PM.c ****     }
 157:Generated_Source\PSoC4/ADC_PM.c **** }
 199              		.loc 1 157 0
 200              		@ sp needed
 201 0030 10BD     		pop	{r4, pc}
 202              	.L27:
 203 0032 C046     		.align	2
 204              	.L26:
 205 0034 00000000 		.word	.LANCHOR0
 206 0038 30001A40 		.word	1075445808
 207 003c 00001A40 		.word	1075445760
 208              		.cfi_endproc
 209              	.LFE3:
 210              		.size	ADC_Wakeup, .-ADC_Wakeup
 211              		.bss
 212              		.align	2
 213              		.set	.LANCHOR0,. + 0
 214              		.type	ADC_backup, %object
 215              		.size	ADC_backup, 8
 216              	ADC_backup:
 217 0000 00000000 		.space	8
 217      00000000 
 218              		.text
 219              	.Letext0:
 220              		.file 2 "Generated_Source\\PSoC4\\cytypes.h"
 221              		.file 3 "Generated_Source\\PSoC4\\ADC.h"