ARM GAS  C:\Users\VIDEOH~1\AppData\Local\Temp\ccViypgx.s 			page 1


   1              		.syntax unified
   2              		.cpu cortex-m0
   3              		.fpu softvfp
   4              		.eabi_attribute 20, 1
   5              		.eabi_attribute 21, 1
   6              		.eabi_attribute 23, 3
   7              		.eabi_attribute 24, 1
   8              		.eabi_attribute 25, 1
   9              		.eabi_attribute 26, 1
  10              		.eabi_attribute 30, 4
  11              		.eabi_attribute 34, 0
  12              		.eabi_attribute 18, 4
  13              		.thumb
  14              		.syntax unified
  15              		.file	"adctask.c"
  16              		.text
  17              	.Ltext0:
  18              		.cfi_sections	.debug_frame
  19              		.section	.text.start_adc,"ax",%progbits
  20              		.align	1
  21              		.global	start_adc
  22              		.code	16
  23              		.thumb_func
  24              		.type	start_adc, %function
  25              	start_adc:
  26              	.LFB33:
  27              		.file 1 "adctask.c"
   1:adctask.c     **** /* ========================================
   2:adctask.c     ****  *
   3:adctask.c     ****  * Copyright YOUR COMPANY, THE YEAR
   4:adctask.c     ****  * All Rights Reserved
   5:adctask.c     ****  * UNPUBLISHED, LICENSED SOFTWARE.
   6:adctask.c     ****  *
   7:adctask.c     ****  * CONFIDENTIAL AND PROPRIETARY INFORMATION
   8:adctask.c     ****  * WHICH IS THE PROPERTY OF your company.
   9:adctask.c     ****  *
  10:adctask.c     ****  * ========================================
  11:adctask.c     **** */
  12:adctask.c     **** #include "project.h"
  13:adctask.c     **** #include <FreeRTOS.h>
  14:adctask.c     **** #include <task.h>
  15:adctask.c     **** #include <stdlib.h>
  16:adctask.c     **** #include "tasks.h"
  17:adctask.c     **** #include "config.h"
  18:adctask.c     **** 
  19:adctask.c     **** static int total_voltage = 0;
  20:adctask.c     **** static int total_current = 0;
  21:adctask.c     **** static int total_microwatt_hours = 0;
  22:adctask.c     **** static int remainder_microwatt_ticks = 0;
  23:adctask.c     **** static int total_microamp_hours = 0;
  24:adctask.c     **** static int remainder_microamp_ticks = 0;
  25:adctask.c     **** static int dac_offset_correction = 0;
  26:adctask.c     **** static portTickType last_update = 0;
  27:adctask.c     **** static uint8 conversion_counter = 0;
  28:adctask.c     **** static unsigned int termistor_adc;
  29:adctask.c     **** static int cooler_state=0;
  30:adctask.c     **** 
ARM GAS  C:\Users\VIDEOH~1\AppData\Local\Temp\ccViypgx.s 			page 2


  31:adctask.c     **** uint8 adc_mix_ratio = ADC_MIX_RATIO;
  32:adctask.c     **** 
  33:adctask.c     **** #define TICK_RATE_HR (3600 * configTICK_RATE_HZ);
  34:adctask.c     **** 
  35:adctask.c     **** 
  36:adctask.c     **** CY_ISR(ADC_ISR_func) {
  37:adctask.c     **** 	uint32 isr_flags = ADC_SAR_INTR_MASKED_REG;
  38:adctask.c     **** 	if(isr_flags & ADC_EOS_MASK) {
  39:adctask.c     ****         if(conversion_counter < 100) {
  40:adctask.c     ****             // Regular ADC
  41:adctask.c     ****     		// Update IIR values for current and voltage
  42:adctask.c     ****     		total_current = total_current - (total_current >> adc_mix_ratio) + ADC_GetResult16(ADC_CHAN_C
  43:adctask.c     ****     		total_voltage = total_voltage - (total_voltage >> adc_mix_ratio) + ADC_GetResult16(ADC_CHAN_V
  44:adctask.c     ****     		termistor_adc=ADC_GetResult16(ADC_CHAN_TEMP)>> adc_mix_ratio;
  45:adctask.c     ****             if(cooler_state)
  46:adctask.c     ****             {
  47:adctask.c     ****                 if(termistor_adc<=settings.cooler_off_adc_data)
  48:adctask.c     ****                 {
  49:adctask.c     ****                     cooler_state=0;
  50:adctask.c     ****                     cooler_Write(0);
  51:adctask.c     ****                 }
  52:adctask.c     ****             }
  53:adctask.c     ****             else
  54:adctask.c     ****             {
  55:adctask.c     ****                 if(termistor_adc>=settings.cooler_on_adc_data)
  56:adctask.c     ****                 {
  57:adctask.c     ****                     cooler_state=1;
  58:adctask.c     ****                     cooler_Write(1);
  59:adctask.c     ****                 }
  60:adctask.c     ****             }
  61:adctask.c     **** #ifdef DAC_EC_FEEDBACK
  62:adctask.c     ****             if(!state.calibrating) {
  63:adctask.c     ****                 int error = get_current_usage() - get_current_setpoint();
  64:adctask.c     ****                 dac_offset_correction += error >> DAC_EC_MIX_RATIO;
  65:adctask.c     ****                 if(dac_offset_correction > MAX_DAC_EC) {
  66:adctask.c     ****                     dac_offset_correction = MAX_DAC_EC;
  67:adctask.c     ****                 } else if(dac_offset_correction < -MAX_DAC_EC) {
  68:adctask.c     ****                     dac_offset_correction = -MAX_DAC_EC;
  69:adctask.c     ****                 }
  70:adctask.c     ****                 set_current(state.current_setpoint);
  71:adctask.c     ****             }
  72:adctask.c     **** #endif
  73:adctask.c     ****       
  74:adctask.c     ****             // Update running totals of microamp-ticks and microwatt-ticks
  75:adctask.c     ****     		portTickType now = xTaskGetTickCount();
  76:adctask.c     ****             if(now > last_update) {
  77:adctask.c     ****         		int current = get_current_usage();
  78:adctask.c     ****                 int voltage = get_voltage();
  79:adctask.c     **** 
  80:adctask.c     ****         		remainder_microamp_ticks += current * (now - last_update);
  81:adctask.c     ****         		total_microamp_hours += remainder_microamp_ticks / TICK_RATE_HR;
  82:adctask.c     ****         		remainder_microamp_ticks %= TICK_RATE_HR;
  83:adctask.c     ****         		
  84:adctask.c     ****         		remainder_microwatt_ticks += (current / 1000) * (voltage / 1000) * (now - last_update);
  85:adctask.c     ****         		total_microwatt_hours += remainder_microwatt_ticks / TICK_RATE_HR;
  86:adctask.c     ****         		remainder_microwatt_ticks %= TICK_RATE_HR;
  87:adctask.c     **** 
ARM GAS  C:\Users\VIDEOH~1\AppData\Local\Temp\ccViypgx.s 			page 3


  88:adctask.c     ****                 last_update = now;
  89:adctask.c     ****             }
  90:adctask.c     **** 
  91:adctask.c     ****             if(conversion_counter == 99) {
  92:adctask.c     ****                 // Switch to measuring FET current draw for overtemp; skip next conversion as inacc
  93:adctask.c     ****                 ADC_SetChanMask((1 << ADC_CHAN_OPAMP_OUT) | (1 << ADC_CHAN_FET_IN));
  94:adctask.c     ****                 ADC_SAR_CTRL_REG = (ADC_SAR_CTRL_REG & ~ADC_VREF_INTERNAL1024BYPASSED) | ADC_VREF_V
  95:adctask.c     ****             }
  96:adctask.c     ****         } else if(conversion_counter == 101) {
  97:adctask.c     ****             if(get_output_mode() == OUTPUT_MODE_FEEDBACK) {
  98:adctask.c     ****                 // Undervolt detection.
  99:adctask.c     ****                 if(state.lower_voltage_limit != -1 && get_current_setpoint() > 0 && get_voltage() <
 100:adctask.c     **** #ifndef DISABLE_PROTECT                
 101:adctask.c     ****                     set_output_mode(OUTPUT_MODE_OFF);
 102:adctask.c     ****                     set_current(0);
 103:adctask.c     ****                     xQueueSendToBackFromISR(ui_queue, &((ui_event){
 104:adctask.c     ****                         .type=UI_EVENT_LIMIT,
 105:adctask.c     ****                         .int_arg=LIMIT_TYPE_UNDERVOLT,
 106:adctask.c     ****                         .when=xTaskGetTickCountFromISR()
 107:adctask.c     ****                     }), NULL);
 108:adctask.c     ****                     xQueueOverwriteFromISR(comms_queue, &((comms_event){
 109:adctask.c     ****                         .type=COMMS_EVENT_UNDERVOLT,
 110:adctask.c     ****                     }), NULL);
 111:adctask.c     **** #endif
 112:adctask.c     ****                 } else {
 113:adctask.c     ****                     // Overtemp detection.
 114:adctask.c     ****                     int16 opamp_out = ADC_GetResult16(ADC_CHAN_OPAMP_OUT);
 115:adctask.c     ****                     int16 fet_in = ADC_GetResult16(ADC_CHAN_FET_IN);
 116:adctask.c     **** #ifndef DISABLE_PROTECT                
 117:adctask.c     ****                     if(abs(opamp_out - fet_in) > 4) {
 118:adctask.c     ****                         set_output_mode(OUTPUT_MODE_OFF);
 119:adctask.c     ****                         set_current(0);
 120:adctask.c     **** 
 121:adctask.c     ****                         xQueueSendToBackFromISR(ui_queue, &((ui_event){
 122:adctask.c     ****                             .type=UI_EVENT_LIMIT,
 123:adctask.c     ****                             .int_arg=LIMIT_TYPE_OVERTEMP,
 124:adctask.c     ****                             .when=xTaskGetTickCountFromISR()
 125:adctask.c     ****                         }), NULL);
 126:adctask.c     ****                         xQueueOverwriteFromISR(comms_queue, &((comms_event){
 127:adctask.c     ****                             .type=COMMS_EVENT_OVERTEMP,
 128:adctask.c     ****                         }), NULL);
 129:adctask.c     ****                     }
 130:adctask.c     **** #endif    
 131:adctask.c     ****                 }
 132:adctask.c     ****             }
 133:adctask.c     ****             ADC_SetChanMask((1 << ADC_CHAN_CURRENT_SENSE) | (1 << ADC_CHAN_VOLTAGE_SENSE) | (1 << A
 134:adctask.c     ****             ADC_SAR_CTRL_REG = (ADC_SAR_CTRL_REG & ~ADC_VREF_VDDA) | ADC_VREF_INTERNAL1024BYPASSED;
 135:adctask.c     ****         } else if(conversion_counter == 102) {
 136:adctask.c     ****             // Switch back to regular measurement; discard reading as inaccurate
 137:adctask.c     ****             conversion_counter = 0;
 138:adctask.c     ****         }
 139:adctask.c     ****         conversion_counter++;
 140:adctask.c     **** 	}
 141:adctask.c     **** 	ADC_SAR_INTR_REG = isr_flags;
 142:adctask.c     **** }
 143:adctask.c     **** 
 144:adctask.c     **** void start_adc() {
ARM GAS  C:\Users\VIDEOH~1\AppData\Local\Temp\ccViypgx.s 			page 4


  28              		.loc 1 144 0
  29              		.cfi_startproc
  30              		@ args = 0, pretend = 0, frame = 0
  31              		@ frame_needed = 0, uses_anonymous_args = 0
  32 0000 10B5     		push	{r4, lr}
  33              		.cfi_def_cfa_offset 8
  34              		.cfi_offset 4, -8
  35              		.cfi_offset 14, -4
 145:adctask.c     **** 	ADC_Start();
  36              		.loc 1 145 0
  37 0002 FFF7FEFF 		bl	ADC_Start
  38              	.LVL0:
 146:adctask.c     **** 	//ADC_SAR_INTR_MASK_REG = ADC_EOS_MASK;
 147:adctask.c     **** 	ADC_IRQ_StartEx(ADC_ISR_func);
  39              		.loc 1 147 0
  40 0006 0348     		ldr	r0, .L2
  41 0008 FFF7FEFF 		bl	ADC_IRQ_StartEx
  42              	.LVL1:
 148:adctask.c     **** 	ADC_StartConvert();
 149:adctask.c     **** }
  43              		.loc 1 149 0
  44              		@ sp needed
 148:adctask.c     **** 	ADC_StartConvert();
  45              		.loc 1 148 0
  46 000c FFF7FEFF 		bl	ADC_StartConvert
  47              	.LVL2:
  48              		.loc 1 149 0
  49 0010 10BD     		pop	{r4, pc}
  50              	.L3:
  51 0012 C046     		.align	2
  52              	.L2:
  53 0014 00000000 		.word	ADC_ISR_func
  54              		.cfi_endproc
  55              	.LFE33:
  56              		.size	start_adc, .-start_adc
  57              		.section	.text.get_raw_current_usage,"ax",%progbits
  58              		.align	1
  59              		.global	get_raw_current_usage
  60              		.code	16
  61              		.thumb_func
  62              		.type	get_raw_current_usage, %function
  63              	get_raw_current_usage:
  64              	.LFB34:
 150:adctask.c     **** 
 151:adctask.c     **** int16 get_raw_current_usage() {
  65              		.loc 1 151 0
  66              		.cfi_startproc
  67              		@ args = 0, pretend = 0, frame = 0
  68              		@ frame_needed = 0, uses_anonymous_args = 0
  69              		@ link register save eliminated.
 152:adctask.c     **** 	return total_current >> adc_mix_ratio;
  70              		.loc 1 152 0
  71 0000 034B     		ldr	r3, .L5
  72 0002 044A     		ldr	r2, .L5+4
  73 0004 1B78     		ldrb	r3, [r3]
  74 0006 1068     		ldr	r0, [r2]
 153:adctask.c     **** }
ARM GAS  C:\Users\VIDEOH~1\AppData\Local\Temp\ccViypgx.s 			page 5


  75              		.loc 1 153 0
  76              		@ sp needed
 152:adctask.c     **** 	return total_current >> adc_mix_ratio;
  77              		.loc 1 152 0
  78 0008 1841     		asrs	r0, r0, r3
  79 000a 00B2     		sxth	r0, r0
  80              		.loc 1 153 0
  81 000c 7047     		bx	lr
  82              	.L6:
  83 000e C046     		.align	2
  84              	.L5:
  85 0010 00000000 		.word	.LANCHOR1
  86 0014 00000000 		.word	.LANCHOR0
  87              		.cfi_endproc
  88              	.LFE34:
  89              		.size	get_raw_current_usage, .-get_raw_current_usage
  90              		.section	.text.get_current_usage,"ax",%progbits
  91              		.align	1
  92              		.global	get_current_usage
  93              		.code	16
  94              		.thumb_func
  95              		.type	get_current_usage, %function
  96              	get_current_usage:
  97              	.LFB35:
 154:adctask.c     **** 
 155:adctask.c     **** int get_current_usage() {
  98              		.loc 1 155 0
  99              		.cfi_startproc
 100              		@ args = 0, pretend = 0, frame = 0
 101              		@ frame_needed = 0, uses_anonymous_args = 0
 102              		@ link register save eliminated.
 103              	.LVL3:
 156:adctask.c     **** 	int ret = ((total_current >> adc_mix_ratio) - settings.calibration_settings.adc_current_offset) * 
 157:adctask.c     **** 	return (ret < 0)?0:ret;
 104              		.loc 1 157 0
 105 0000 064A     		ldr	r2, .L9
 156:adctask.c     **** 	int ret = ((total_current >> adc_mix_ratio) - settings.calibration_settings.adc_current_offset) * 
 106              		.loc 1 156 0
 107 0002 074B     		ldr	r3, .L9+4
 108              		.loc 1 157 0
 109 0004 1068     		ldr	r0, [r2]
 110 0006 1B78     		ldrb	r3, [r3]
 158:adctask.c     **** }
 111              		.loc 1 158 0
 112              		@ sp needed
 157:adctask.c     **** }
 113              		.loc 1 157 0
 114 0008 1841     		asrs	r0, r0, r3
 156:adctask.c     **** 	int ret = ((total_current >> adc_mix_ratio) - settings.calibration_settings.adc_current_offset) * 
 115              		.loc 1 156 0
 116 000a 064B     		ldr	r3, .L9+8
 157:adctask.c     **** }
 117              		.loc 1 157 0
 118 000c 5A6A     		ldr	r2, [r3, #36]
 119 000e 9B6A     		ldr	r3, [r3, #40]
 120 0010 801A     		subs	r0, r0, r2
 121 0012 5843     		muls	r0, r3
ARM GAS  C:\Users\VIDEOH~1\AppData\Local\Temp\ccViypgx.s 			page 6


 122 0014 C343     		mvns	r3, r0
 123 0016 DB17     		asrs	r3, r3, #31
 124 0018 1840     		ands	r0, r3
 125              		.loc 1 158 0
 126 001a 7047     		bx	lr
 127              	.L10:
 128              		.align	2
 129              	.L9:
 130 001c 00000000 		.word	.LANCHOR0
 131 0020 00000000 		.word	.LANCHOR1
 132 0024 00000000 		.word	settings
 133              		.cfi_endproc
 134              	.LFE35:
 135              		.size	get_current_usage, .-get_current_usage
 136              		.section	.text.get_raw_voltage,"ax",%progbits
 137              		.align	1
 138              		.global	get_raw_voltage
 139              		.code	16
 140              		.thumb_func
 141              		.type	get_raw_voltage, %function
 142              	get_raw_voltage:
 143              	.LFB36:
 159:adctask.c     **** 
 160:adctask.c     **** int16 get_raw_voltage() {
 144              		.loc 1 160 0
 145              		.cfi_startproc
 146              		@ args = 0, pretend = 0, frame = 0
 147              		@ frame_needed = 0, uses_anonymous_args = 0
 148              		@ link register save eliminated.
 161:adctask.c     **** 	return total_voltage >> adc_mix_ratio;
 149              		.loc 1 161 0
 150 0000 034B     		ldr	r3, .L12
 151 0002 044A     		ldr	r2, .L12+4
 152 0004 1B78     		ldrb	r3, [r3]
 153 0006 5068     		ldr	r0, [r2, #4]
 162:adctask.c     **** }
 154              		.loc 1 162 0
 155              		@ sp needed
 161:adctask.c     **** 	return total_voltage >> adc_mix_ratio;
 156              		.loc 1 161 0
 157 0008 1841     		asrs	r0, r0, r3
 158 000a 00B2     		sxth	r0, r0
 159              		.loc 1 162 0
 160 000c 7047     		bx	lr
 161              	.L13:
 162 000e C046     		.align	2
 163              	.L12:
 164 0010 00000000 		.word	.LANCHOR1
 165 0014 00000000 		.word	.LANCHOR0
 166              		.cfi_endproc
 167              	.LFE36:
 168              		.size	get_raw_voltage, .-get_raw_voltage
 169              		.section	.text.get_voltage,"ax",%progbits
 170              		.align	1
 171              		.global	get_voltage
 172              		.code	16
 173              		.thumb_func
ARM GAS  C:\Users\VIDEOH~1\AppData\Local\Temp\ccViypgx.s 			page 7


 174              		.type	get_voltage, %function
 175              	get_voltage:
 176              	.LFB37:
 163:adctask.c     **** 
 164:adctask.c     **** int get_voltage() {
 177              		.loc 1 164 0
 178              		.cfi_startproc
 179              		@ args = 0, pretend = 0, frame = 0
 180              		@ frame_needed = 0, uses_anonymous_args = 0
 181 0000 70B5     		push	{r4, r5, r6, lr}
 182              		.cfi_def_cfa_offset 16
 183              		.cfi_offset 4, -16
 184              		.cfi_offset 5, -12
 185              		.cfi_offset 6, -8
 186              		.cfi_offset 14, -4
 165:adctask.c     **** 	int ret = ((total_voltage >> adc_mix_ratio) - settings.calibration_settings.adc_voltage_offset) * 
 187              		.loc 1 165 0
 188 0002 0C4A     		ldr	r2, .L16
 189 0004 0C4B     		ldr	r3, .L16+4
 190 0006 5068     		ldr	r0, [r2, #4]
 191 0008 1B78     		ldrb	r3, [r3]
 192 000a 0C4D     		ldr	r5, .L16+8
 193 000c 1841     		asrs	r0, r0, r3
 194 000e EB6A     		ldr	r3, [r5, #44]
 195 0010 2C6B     		ldr	r4, [r5, #48]
 196 0012 C01A     		subs	r0, r0, r3
 197 0014 4443     		muls	r4, r0
 198              	.LVL4:
 166:adctask.c     ****     ret += (get_current_usage() / 1024) * settings.calibration_settings.voltage_correction_ratio;
 199              		.loc 1 166 0
 200 0016 FFF7FEFF 		bl	get_current_usage
 201              	.LVL5:
 167:adctask.c     **** 	return (ret < 0)?0:ret;
 202              		.loc 1 167 0
 203 001a C317     		asrs	r3, r0, #31
 204 001c 9B05     		lsls	r3, r3, #22
 205 001e 9B0D     		lsrs	r3, r3, #22
 206 0020 1818     		adds	r0, r3, r0
 207              	.LVL6:
 208 0022 6B6B     		ldr	r3, [r5, #52]
 209 0024 8012     		asrs	r0, r0, #10
 210 0026 5843     		muls	r0, r3
 211 0028 0019     		adds	r0, r0, r4
 212 002a C343     		mvns	r3, r0
 213 002c DB17     		asrs	r3, r3, #31
 214 002e 1840     		ands	r0, r3
 168:adctask.c     **** }
 215              		.loc 1 168 0
 216              		@ sp needed
 217 0030 70BD     		pop	{r4, r5, r6, pc}
 218              	.L17:
 219 0032 C046     		.align	2
 220              	.L16:
 221 0034 00000000 		.word	.LANCHOR0
 222 0038 00000000 		.word	.LANCHOR1
 223 003c 00000000 		.word	settings
 224              		.cfi_endproc
ARM GAS  C:\Users\VIDEOH~1\AppData\Local\Temp\ccViypgx.s 			page 8


 225              	.LFE37:
 226              		.size	get_voltage, .-get_voltage
 227              		.global	__aeabi_uidiv
 228              		.global	__aeabi_uidivmod
 229              		.global	__aeabi_idiv
 230              		.section	.text.ADC_ISR_func,"ax",%progbits
 231              		.align	1
 232              		.global	ADC_ISR_func
 233              		.code	16
 234              		.thumb_func
 235              		.type	ADC_ISR_func, %function
 236              	ADC_ISR_func:
 237              	.LFB32:
  36:adctask.c     **** 	uint32 isr_flags = ADC_SAR_INTR_MASKED_REG;
 238              		.loc 1 36 0
 239              		.cfi_startproc
 240              		@ args = 0, pretend = 0, frame = 56
 241              		@ frame_needed = 0, uses_anonymous_args = 0
 242 0000 F0B5     		push	{r4, r5, r6, r7, lr}
 243              		.cfi_def_cfa_offset 20
 244              		.cfi_offset 4, -20
 245              		.cfi_offset 5, -16
 246              		.cfi_offset 6, -12
 247              		.cfi_offset 7, -8
 248              		.cfi_offset 14, -4
  38:adctask.c     ****         if(conversion_counter < 100) {
 249              		.loc 1 38 0
 250 0002 0126     		movs	r6, #1
  37:adctask.c     **** 	if(isr_flags & ADC_EOS_MASK) {
 251              		.loc 1 37 0
 252 0004 8B4B     		ldr	r3, .L46
  36:adctask.c     **** 	uint32 isr_flags = ADC_SAR_INTR_MASKED_REG;
 253              		.loc 1 36 0
 254 0006 8FB0     		sub	sp, sp, #60
 255              		.cfi_def_cfa_offset 80
  37:adctask.c     **** 	if(isr_flags & ADC_EOS_MASK) {
 256              		.loc 1 37 0
 257 0008 1B68     		ldr	r3, [r3]
 258 000a 0193     		str	r3, [sp, #4]
 259              	.LVL7:
  38:adctask.c     ****         if(conversion_counter < 100) {
 260              		.loc 1 38 0
 261 000c 3342     		tst	r3, r6
 262 000e 00D1     		bne	.LCB182
 263 0010 0AE1     		b	.L19	@long jump
 264              	.LCB182:
  39:adctask.c     ****             // Regular ADC
 265              		.loc 1 39 0
 266 0012 894B     		ldr	r3, .L46+4
 267              	.LVL8:
 268 0014 1A7A     		ldrb	r2, [r3, #8]
 269 0016 1C00     		movs	r4, r3
 270 0018 632A     		cmp	r2, #99
 271 001a 00D9     		bls	.LCB188
 272 001c 8CE0     		b	.L20	@long jump
 273              	.LCB188:
 274              	.LBB2:
ARM GAS  C:\Users\VIDEOH~1\AppData\Local\Temp\ccViypgx.s 			page 9


  42:adctask.c     ****     		total_voltage = total_voltage - (total_voltage >> adc_mix_ratio) + ADC_GetResult16(ADC_CHAN_V
 275              		.loc 1 42 0
 276 001e 1B68     		ldr	r3, [r3]
 277 0020 864F     		ldr	r7, .L46+8
 278 0022 1D00     		movs	r5, r3
 279 0024 3A78     		ldrb	r2, [r7]
 280 0026 0020     		movs	r0, #0
 281 0028 1541     		asrs	r5, r5, r2
 282 002a 5D1B     		subs	r5, r3, r5
 283 002c FFF7FEFF 		bl	ADC_GetResult16
 284              	.LVL9:
  43:adctask.c     ****     		termistor_adc=ADC_GetResult16(ADC_CHAN_TEMP)>> adc_mix_ratio;
 285              		.loc 1 43 0
 286 0030 6368     		ldr	r3, [r4, #4]
  42:adctask.c     ****     		total_voltage = total_voltage - (total_voltage >> adc_mix_ratio) + ADC_GetResult16(ADC_CHAN_V
 287              		.loc 1 42 0
 288 0032 4519     		adds	r5, r0, r5
 289 0034 2560     		str	r5, [r4]
  43:adctask.c     ****     		termistor_adc=ADC_GetResult16(ADC_CHAN_TEMP)>> adc_mix_ratio;
 290              		.loc 1 43 0
 291 0036 1D00     		movs	r5, r3
 292 0038 3A78     		ldrb	r2, [r7]
 293 003a 3000     		movs	r0, r6
 294 003c 1541     		asrs	r5, r5, r2
 295 003e 5D1B     		subs	r5, r3, r5
 296 0040 FFF7FEFF 		bl	ADC_GetResult16
 297              	.LVL10:
 298 0044 4519     		adds	r5, r0, r5
  44:adctask.c     ****             if(cooler_state)
 299              		.loc 1 44 0
 300 0046 0420     		movs	r0, #4
  43:adctask.c     ****     		termistor_adc=ADC_GetResult16(ADC_CHAN_TEMP)>> adc_mix_ratio;
 301              		.loc 1 43 0
 302 0048 6560     		str	r5, [r4, #4]
  44:adctask.c     ****             if(cooler_state)
 303              		.loc 1 44 0
 304 004a FFF7FEFF 		bl	ADC_GetResult16
 305              	.LVL11:
 306 004e 3B78     		ldrb	r3, [r7]
  45:adctask.c     ****             {
 307              		.loc 1 45 0
 308 0050 2269     		ldr	r2, [r4, #16]
  44:adctask.c     ****             if(cooler_state)
 309              		.loc 1 44 0
 310 0052 1841     		asrs	r0, r0, r3
 311 0054 7A4B     		ldr	r3, .L46+12
 312 0056 E060     		str	r0, [r4, #12]
  45:adctask.c     ****             {
 313              		.loc 1 45 0
 314 0058 002A     		cmp	r2, #0
 315 005a 05D0     		beq	.L21
  47:adctask.c     ****                 {
 316              		.loc 1 47 0
 317 005c 9B89     		ldrh	r3, [r3, #12]
 318 005e 9842     		cmp	r0, r3
 319 0060 09D8     		bhi	.L22
  49:adctask.c     ****                     cooler_Write(0);
ARM GAS  C:\Users\VIDEOH~1\AppData\Local\Temp\ccViypgx.s 			page 10


 320              		.loc 1 49 0
 321 0062 0020     		movs	r0, #0
 322 0064 2061     		str	r0, [r4, #16]
 323 0066 04E0     		b	.L42
 324              	.L21:
  55:adctask.c     ****                 {
 325              		.loc 1 55 0
 326 0068 5B89     		ldrh	r3, [r3, #10]
 327 006a 9842     		cmp	r0, r3
 328 006c 03D3     		bcc	.L22
  58:adctask.c     ****                 }
 329              		.loc 1 58 0
 330 006e 3000     		movs	r0, r6
  57:adctask.c     ****                     cooler_Write(1);
 331              		.loc 1 57 0
 332 0070 2661     		str	r6, [r4, #16]
 333              	.L42:
  58:adctask.c     ****                 }
 334              		.loc 1 58 0
 335 0072 FFF7FEFF 		bl	cooler_Write
 336              	.LVL12:
 337              	.L22:
  62:adctask.c     ****                 int error = get_current_usage() - get_current_setpoint();
 338              		.loc 1 62 0
 339 0076 734D     		ldr	r5, .L46+16
 340 0078 2B7A     		ldrb	r3, [r5, #8]
 341 007a 002B     		cmp	r3, #0
 342 007c 14D1     		bne	.L23
 343              	.LBB3:
  63:adctask.c     ****                 dac_offset_correction += error >> DAC_EC_MIX_RATIO;
 344              		.loc 1 63 0
 345 007e FFF7FEFF 		bl	get_current_usage
 346              	.LVL13:
 347 0082 0600     		movs	r6, r0
 348 0084 FFF7FEFF 		bl	get_current_setpoint
 349              	.LVL14:
  64:adctask.c     ****                 if(dac_offset_correction > MAX_DAC_EC) {
 350              		.loc 1 64 0
 351 0088 6369     		ldr	r3, [r4, #20]
 352 008a 301A     		subs	r0, r6, r0
 353              	.LVL15:
 354 008c 8010     		asrs	r0, r0, #2
 355              	.LVL16:
 356 008e C018     		adds	r0, r0, r3
  65:adctask.c     ****                     dac_offset_correction = MAX_DAC_EC;
 357              		.loc 1 65 0
 358 0090 6D4B     		ldr	r3, .L46+20
 359 0092 9842     		cmp	r0, r3
 360 0094 04DC     		bgt	.L26
  67:adctask.c     ****                     dac_offset_correction = -MAX_DAC_EC;
 361              		.loc 1 67 0
 362 0096 6D4B     		ldr	r3, .L46+24
 363 0098 9842     		cmp	r0, r3
 364 009a 01DB     		blt	.L26
  64:adctask.c     ****                 if(dac_offset_correction > MAX_DAC_EC) {
 365              		.loc 1 64 0
 366 009c 6061     		str	r0, [r4, #20]
ARM GAS  C:\Users\VIDEOH~1\AppData\Local\Temp\ccViypgx.s 			page 11


 367 009e 00E0     		b	.L25
 368              	.L26:
  68:adctask.c     ****                 }
 369              		.loc 1 68 0
 370 00a0 6361     		str	r3, [r4, #20]
 371              	.L25:
  70:adctask.c     ****             }
 372              		.loc 1 70 0
 373 00a2 2868     		ldr	r0, [r5]
 374 00a4 FFF7FEFF 		bl	set_current
 375              	.LVL17:
 376              	.L23:
 377              	.LBE3:
  75:adctask.c     ****             if(now > last_update) {
 378              		.loc 1 75 0
 379 00a8 FFF7FEFF 		bl	xTaskGetTickCount
 380              	.LVL18:
  76:adctask.c     ****         		int current = get_current_usage();
 381              		.loc 1 76 0
 382 00ac A569     		ldr	r5, [r4, #24]
  75:adctask.c     ****             if(now > last_update) {
 383              		.loc 1 75 0
 384 00ae 0600     		movs	r6, r0
 385              	.LVL19:
  76:adctask.c     ****         		int current = get_current_usage();
 386              		.loc 1 76 0
 387 00b0 A842     		cmp	r0, r5
 388 00b2 34D9     		bls	.L27
 389              	.LBB4:
  77:adctask.c     ****                 int voltage = get_voltage();
 390              		.loc 1 77 0
 391 00b4 FFF7FEFF 		bl	get_current_usage
 392              	.LVL20:
 393 00b8 0700     		movs	r7, r0
 394              	.LVL21:
  78:adctask.c     **** 
 395              		.loc 1 78 0
 396 00ba FFF7FEFF 		bl	get_voltage
 397              	.LVL22:
  80:adctask.c     ****         		total_microamp_hours += remainder_microamp_ticks / TICK_RATE_HR;
 398              		.loc 1 80 0
 399 00be 731B     		subs	r3, r6, r5
 400 00c0 1D00     		movs	r5, r3
 401 00c2 7D43     		muls	r5, r7
 402 00c4 0293     		str	r3, [sp, #8]
 403 00c6 E369     		ldr	r3, [r4, #28]
  78:adctask.c     **** 
 404              		.loc 1 78 0
 405 00c8 0390     		str	r0, [sp, #12]
 406              	.LVL23:
  80:adctask.c     ****         		total_microamp_hours += remainder_microamp_ticks / TICK_RATE_HR;
 407              		.loc 1 80 0
 408 00ca ED18     		adds	r5, r5, r3
  81:adctask.c     ****         		remainder_microamp_ticks %= TICK_RATE_HR;
 409              		.loc 1 81 0
 410 00cc 6049     		ldr	r1, .L46+28
 411 00ce 2800     		movs	r0, r5
ARM GAS  C:\Users\VIDEOH~1\AppData\Local\Temp\ccViypgx.s 			page 12


 412              	.LVL24:
 413 00d0 FFF7FEFF 		bl	__aeabi_uidiv
 414              	.LVL25:
 415 00d4 236A     		ldr	r3, [r4, #32]
  82:adctask.c     ****         		
 416              		.loc 1 82 0
 417 00d6 5E49     		ldr	r1, .L46+28
  81:adctask.c     ****         		remainder_microamp_ticks %= TICK_RATE_HR;
 418              		.loc 1 81 0
 419 00d8 C018     		adds	r0, r0, r3
 420 00da 2062     		str	r0, [r4, #32]
  82:adctask.c     ****         		
 421              		.loc 1 82 0
 422 00dc 2800     		movs	r0, r5
 423 00de FFF7FEFF 		bl	__aeabi_uidivmod
 424              	.LVL26:
 425 00e2 E161     		str	r1, [r4, #28]
  84:adctask.c     ****         		total_microwatt_hours += remainder_microwatt_ticks / TICK_RATE_HR;
 426              		.loc 1 84 0
 427 00e4 FA21     		movs	r1, #250
 428 00e6 3800     		movs	r0, r7
 429 00e8 8900     		lsls	r1, r1, #2
 430 00ea FFF7FEFF 		bl	__aeabi_idiv
 431              	.LVL27:
 432 00ee FA21     		movs	r1, #250
 433 00f0 0500     		movs	r5, r0
 434 00f2 8900     		lsls	r1, r1, #2
 435 00f4 0398     		ldr	r0, [sp, #12]
 436 00f6 FFF7FEFF 		bl	__aeabi_idiv
 437              	.LVL28:
 438 00fa 4543     		muls	r5, r0
 439 00fc 029B     		ldr	r3, [sp, #8]
  85:adctask.c     ****         		remainder_microwatt_ticks %= TICK_RATE_HR;
 440              		.loc 1 85 0
 441 00fe 5449     		ldr	r1, .L46+28
  84:adctask.c     ****         		total_microwatt_hours += remainder_microwatt_ticks / TICK_RATE_HR;
 442              		.loc 1 84 0
 443 0100 5D43     		muls	r5, r3
 444 0102 636A     		ldr	r3, [r4, #36]
 445 0104 ED18     		adds	r5, r5, r3
  85:adctask.c     ****         		remainder_microwatt_ticks %= TICK_RATE_HR;
 446              		.loc 1 85 0
 447 0106 2800     		movs	r0, r5
 448 0108 FFF7FEFF 		bl	__aeabi_uidiv
 449              	.LVL29:
 450 010c A36A     		ldr	r3, [r4, #40]
  86:adctask.c     **** 
 451              		.loc 1 86 0
 452 010e 5049     		ldr	r1, .L46+28
  85:adctask.c     ****         		remainder_microwatt_ticks %= TICK_RATE_HR;
 453              		.loc 1 85 0
 454 0110 C018     		adds	r0, r0, r3
 455 0112 A062     		str	r0, [r4, #40]
  86:adctask.c     **** 
 456              		.loc 1 86 0
 457 0114 2800     		movs	r0, r5
 458 0116 FFF7FEFF 		bl	__aeabi_uidivmod
ARM GAS  C:\Users\VIDEOH~1\AppData\Local\Temp\ccViypgx.s 			page 13


 459              	.LVL30:
  88:adctask.c     ****             }
 460              		.loc 1 88 0
 461 011a A661     		str	r6, [r4, #24]
  86:adctask.c     **** 
 462              		.loc 1 86 0
 463 011c 6162     		str	r1, [r4, #36]
 464              	.LVL31:
 465              	.L27:
 466              	.LBE4:
  91:adctask.c     ****                 // Switch to measuring FET current draw for overtemp; skip next conversion as inacc
 467              		.loc 1 91 0
 468 011e 464B     		ldr	r3, .L46+4
 469 0120 1B7A     		ldrb	r3, [r3, #8]
 470 0122 632B     		cmp	r3, #99
 471 0124 7CD1     		bne	.L29
  93:adctask.c     ****                 ADC_SAR_CTRL_REG = (ADC_SAR_CTRL_REG & ~ADC_VREF_INTERNAL1024BYPASSED) | ADC_VREF_V
 472              		.loc 1 93 0
 473 0126 0C20     		movs	r0, #12
 474 0128 FFF7FEFF 		bl	ADC_SetChanMask
 475              	.LVL32:
  94:adctask.c     ****             }
 476              		.loc 1 94 0
 477 012c F021     		movs	r1, #240
 478 012e 494A     		ldr	r2, .L46+32
 479 0130 1368     		ldr	r3, [r2]
 480 0132 8B43     		bics	r3, r1
 481 0134 8039     		subs	r1, r1, #128
 482 0136 6CE0     		b	.L44
 483              	.LVL33:
 484              	.L20:
 485              	.LBE2:
  96:adctask.c     ****             if(get_output_mode() == OUTPUT_MODE_FEEDBACK) {
 486              		.loc 1 96 0
 487 0138 652A     		cmp	r2, #101
 488 013a 6DD1     		bne	.L30
  97:adctask.c     ****                 // Undervolt detection.
 489              		.loc 1 97 0
 490 013c FFF7FEFF 		bl	get_output_mode
 491              	.LVL34:
 492 0140 0500     		movs	r5, r0
 493 0142 0228     		cmp	r0, #2
 494 0144 5DD1     		bne	.L32
  99:adctask.c     **** #ifndef DISABLE_PROTECT                
 495              		.loc 1 99 0
 496 0146 3F4C     		ldr	r4, .L46+16
 497 0148 6368     		ldr	r3, [r4, #4]
 498 014a 0133     		adds	r3, r3, #1
 499 014c 2BD0     		beq	.L33
  99:adctask.c     **** #ifndef DISABLE_PROTECT                
 500              		.loc 1 99 0 is_stmt 0 discriminator 1
 501 014e FFF7FEFF 		bl	get_current_setpoint
 502              	.LVL35:
 503 0152 0028     		cmp	r0, #0
 504 0154 27DD     		ble	.L33
  99:adctask.c     **** #ifndef DISABLE_PROTECT                
 505              		.loc 1 99 0 discriminator 2
ARM GAS  C:\Users\VIDEOH~1\AppData\Local\Temp\ccViypgx.s 			page 14


 506 0156 FFF7FEFF 		bl	get_voltage
 507              	.LVL36:
 508 015a 6368     		ldr	r3, [r4, #4]
 509 015c 9842     		cmp	r0, r3
 510 015e 22DA     		bge	.L33
 101:adctask.c     ****                     set_current(0);
 511              		.loc 1 101 0 is_stmt 1
 512 0160 0020     		movs	r0, #0
 513 0162 FFF7FEFF 		bl	set_output_mode
 514              	.LVL37:
 102:adctask.c     ****                     xQueueSendToBackFromISR(ui_queue, &((ui_event){
 515              		.loc 1 102 0
 516 0166 0020     		movs	r0, #0
 517 0168 FFF7FEFF 		bl	set_current
 518              	.LVL38:
 103:adctask.c     ****                         .type=UI_EVENT_LIMIT,
 519              		.loc 1 103 0
 520 016c 06AC     		add	r4, sp, #24
 521 016e 3A4B     		ldr	r3, .L46+36
 522 0170 1022     		movs	r2, #16
 523 0172 0021     		movs	r1, #0
 524 0174 2000     		movs	r0, r4
 525 0176 1F68     		ldr	r7, [r3]
 526 0178 FFF7FEFF 		bl	memset
 527              	.LVL39:
 528 017c 0523     		movs	r3, #5
 529 017e 6660     		str	r6, [r4, #4]
 530 0180 2370     		strb	r3, [r4]
 531 0182 FFF7FEFF 		bl	xTaskGetTickCountFromISR
 532              	.LVL40:
 533 0186 0023     		movs	r3, #0
 534 0188 E060     		str	r0, [r4, #12]
 535 018a 1A00     		movs	r2, r3
 536 018c 2100     		movs	r1, r4
 537 018e 3800     		movs	r0, r7
 538 0190 FFF7FEFF 		bl	xQueueGenericSendFromISR
 539              	.LVL41:
 108:adctask.c     ****                         .type=COMMS_EVENT_UNDERVOLT,
 540              		.loc 1 108 0
 541 0194 314B     		ldr	r3, .L46+40
 542 0196 04AA     		add	r2, sp, #16
 543 0198 1868     		ldr	r0, [r3]
 544 019a 0323     		movs	r3, #3
 545 019c 04A9     		add	r1, sp, #16
 546 019e 1370     		strb	r3, [r2]
 547 01a0 2B00     		movs	r3, r5
 548 01a2 0022     		movs	r2, #0
 549 01a4 2BE0     		b	.L43
 550              	.L33:
 551              	.LBB5:
 114:adctask.c     ****                     int16 fet_in = ADC_GetResult16(ADC_CHAN_FET_IN);
 552              		.loc 1 114 0
 553 01a6 0220     		movs	r0, #2
 554 01a8 FFF7FEFF 		bl	ADC_GetResult16
 555              	.LVL42:
 556 01ac 0400     		movs	r4, r0
 557              	.LVL43:
ARM GAS  C:\Users\VIDEOH~1\AppData\Local\Temp\ccViypgx.s 			page 15


 115:adctask.c     **** #ifndef DISABLE_PROTECT                
 558              		.loc 1 115 0
 559 01ae 0320     		movs	r0, #3
 560 01b0 FFF7FEFF 		bl	ADC_GetResult16
 561              	.LVL44:
 117:adctask.c     ****                         set_output_mode(OUTPUT_MODE_OFF);
 562              		.loc 1 117 0
 563 01b4 241A     		subs	r4, r4, r0
 564              	.LVL45:
 565 01b6 E317     		asrs	r3, r4, #31
 566 01b8 E418     		adds	r4, r4, r3
 567 01ba 5C40     		eors	r4, r3
 568 01bc 042C     		cmp	r4, #4
 569 01be 20DD     		ble	.L32
 118:adctask.c     ****                         set_current(0);
 570              		.loc 1 118 0
 571 01c0 0020     		movs	r0, #0
 572              	.LVL46:
 573 01c2 FFF7FEFF 		bl	set_output_mode
 574              	.LVL47:
 119:adctask.c     **** 
 575              		.loc 1 119 0
 576 01c6 0020     		movs	r0, #0
 577 01c8 FFF7FEFF 		bl	set_current
 578              	.LVL48:
 121:adctask.c     ****                             .type=UI_EVENT_LIMIT,
 579              		.loc 1 121 0
 580 01cc 0AAC     		add	r4, sp, #40
 581 01ce 224B     		ldr	r3, .L46+36
 582 01d0 1022     		movs	r2, #16
 583 01d2 0021     		movs	r1, #0
 584 01d4 2000     		movs	r0, r4
 585 01d6 1D68     		ldr	r5, [r3]
 586 01d8 FFF7FEFF 		bl	memset
 587              	.LVL49:
 588 01dc 0523     		movs	r3, #5
 589 01de 2370     		strb	r3, [r4]
 590 01e0 FFF7FEFF 		bl	xTaskGetTickCountFromISR
 591              	.LVL50:
 592 01e4 0023     		movs	r3, #0
 593 01e6 E060     		str	r0, [r4, #12]
 594 01e8 1A00     		movs	r2, r3
 595 01ea 2100     		movs	r1, r4
 596 01ec 2800     		movs	r0, r5
 597 01ee FFF7FEFF 		bl	xQueueGenericSendFromISR
 598              	.LVL51:
 126:adctask.c     ****                             .type=COMMS_EVENT_OVERTEMP,
 599              		.loc 1 126 0
 600 01f2 1A4B     		ldr	r3, .L46+40
 601 01f4 0022     		movs	r2, #0
 602 01f6 1868     		ldr	r0, [r3]
 603 01f8 0223     		movs	r3, #2
 604 01fa 05A9     		add	r1, sp, #20
 605 01fc 0B70     		strb	r3, [r1]
 606              	.L43:
 607 01fe FFF7FEFF 		bl	xQueueGenericSendFromISR
 608              	.LVL52:
ARM GAS  C:\Users\VIDEOH~1\AppData\Local\Temp\ccViypgx.s 			page 16


 609              	.L32:
 610              	.LBE5:
 133:adctask.c     ****             ADC_SAR_CTRL_REG = (ADC_SAR_CTRL_REG & ~ADC_VREF_VDDA) | ADC_VREF_INTERNAL1024BYPASSED;
 611              		.loc 1 133 0
 612 0202 1320     		movs	r0, #19
 613 0204 FFF7FEFF 		bl	ADC_SetChanMask
 614              	.LVL53:
 134:adctask.c     ****         } else if(conversion_counter == 102) {
 615              		.loc 1 134 0
 616 0208 F021     		movs	r1, #240
 617 020a 124A     		ldr	r2, .L46+32
 618 020c 1368     		ldr	r3, [r2]
 619 020e 8B43     		bics	r3, r1
 620 0210 3039     		subs	r1, r1, #48
 621              	.L44:
 622 0212 0B43     		orrs	r3, r1
 623 0214 1360     		str	r3, [r2]
 624 0216 03E0     		b	.L29
 625              	.L30:
 135:adctask.c     ****             // Switch back to regular measurement; discard reading as inaccurate
 626              		.loc 1 135 0
 627 0218 662A     		cmp	r2, #102
 628 021a 01D1     		bne	.L29
 137:adctask.c     ****         }
 629              		.loc 1 137 0
 630 021c 0022     		movs	r2, #0
 631 021e 1A72     		strb	r2, [r3, #8]
 632              	.L29:
 139:adctask.c     **** 	}
 633              		.loc 1 139 0
 634 0220 054A     		ldr	r2, .L46+4
 635 0222 137A     		ldrb	r3, [r2, #8]
 636 0224 0133     		adds	r3, r3, #1
 637 0226 1372     		strb	r3, [r2, #8]
 638              	.L19:
 141:adctask.c     **** }
 639              		.loc 1 141 0
 640 0228 0D4B     		ldr	r3, .L46+44
 641 022a 019A     		ldr	r2, [sp, #4]
 642 022c 1A60     		str	r2, [r3]
 142:adctask.c     **** 
 643              		.loc 1 142 0
 644 022e 0FB0     		add	sp, sp, #60
 645              		@ sp needed
 646 0230 F0BD     		pop	{r4, r5, r6, r7, pc}
 647              	.L47:
 648 0232 C046     		.align	2
 649              	.L46:
 650 0234 1C021A40 		.word	1075446300
 651 0238 00000000 		.word	.LANCHOR0
 652 023c 00000000 		.word	.LANCHOR1
 653 0240 00000000 		.word	settings
 654 0244 00000000 		.word	state
 655 0248 A0860100 		.word	100000
 656 024c 6079FEFF 		.word	-100000
 657 0250 407E0500 		.word	360000
 658 0254 00001A40 		.word	1075445760
ARM GAS  C:\Users\VIDEOH~1\AppData\Local\Temp\ccViypgx.s 			page 17


 659 0258 00000000 		.word	ui_queue
 660 025c 00000000 		.word	comms_queue
 661 0260 10021A40 		.word	1075446288
 662              		.cfi_endproc
 663              	.LFE32:
 664              		.size	ADC_ISR_func, .-ADC_ISR_func
 665              		.section	.text.get_microamp_hours,"ax",%progbits
 666              		.align	1
 667              		.global	get_microamp_hours
 668              		.code	16
 669              		.thumb_func
 670              		.type	get_microamp_hours, %function
 671              	get_microamp_hours:
 672              	.LFB38:
 169:adctask.c     **** 
 170:adctask.c     **** int get_microamp_hours() {
 673              		.loc 1 170 0
 674              		.cfi_startproc
 675              		@ args = 0, pretend = 0, frame = 0
 676              		@ frame_needed = 0, uses_anonymous_args = 0
 677              		@ link register save eliminated.
 171:adctask.c     **** 	return total_microamp_hours;
 678              		.loc 1 171 0
 679 0000 014B     		ldr	r3, .L49
 172:adctask.c     **** }
 680              		.loc 1 172 0
 681              		@ sp needed
 171:adctask.c     **** 	return total_microamp_hours;
 682              		.loc 1 171 0
 683 0002 186A     		ldr	r0, [r3, #32]
 684              		.loc 1 172 0
 685 0004 7047     		bx	lr
 686              	.L50:
 687 0006 C046     		.align	2
 688              	.L49:
 689 0008 00000000 		.word	.LANCHOR0
 690              		.cfi_endproc
 691              	.LFE38:
 692              		.size	get_microamp_hours, .-get_microamp_hours
 693              		.section	.text.get_microwatt_hours,"ax",%progbits
 694              		.align	1
 695              		.global	get_microwatt_hours
 696              		.code	16
 697              		.thumb_func
 698              		.type	get_microwatt_hours, %function
 699              	get_microwatt_hours:
 700              	.LFB39:
 173:adctask.c     **** 
 174:adctask.c     **** int get_microwatt_hours() {
 701              		.loc 1 174 0
 702              		.cfi_startproc
 703              		@ args = 0, pretend = 0, frame = 0
 704              		@ frame_needed = 0, uses_anonymous_args = 0
 705              		@ link register save eliminated.
 175:adctask.c     **** 	return total_microwatt_hours;
 706              		.loc 1 175 0
 707 0000 014B     		ldr	r3, .L52
ARM GAS  C:\Users\VIDEOH~1\AppData\Local\Temp\ccViypgx.s 			page 18


 176:adctask.c     **** }
 708              		.loc 1 176 0
 709              		@ sp needed
 175:adctask.c     **** 	return total_microwatt_hours;
 710              		.loc 1 175 0
 711 0002 986A     		ldr	r0, [r3, #40]
 712              		.loc 1 176 0
 713 0004 7047     		bx	lr
 714              	.L53:
 715 0006 C046     		.align	2
 716              	.L52:
 717 0008 00000000 		.word	.LANCHOR0
 718              		.cfi_endproc
 719              	.LFE39:
 720              		.size	get_microwatt_hours, .-get_microwatt_hours
 721              		.section	.text.get_dac_offset_correction,"ax",%progbits
 722              		.align	1
 723              		.global	get_dac_offset_correction
 724              		.code	16
 725              		.thumb_func
 726              		.type	get_dac_offset_correction, %function
 727              	get_dac_offset_correction:
 728              	.LFB40:
 177:adctask.c     **** 
 178:adctask.c     **** int get_dac_offset_correction() {
 729              		.loc 1 178 0
 730              		.cfi_startproc
 731              		@ args = 0, pretend = 0, frame = 0
 732              		@ frame_needed = 0, uses_anonymous_args = 0
 733              		@ link register save eliminated.
 179:adctask.c     ****     return dac_offset_correction;
 734              		.loc 1 179 0
 735 0000 014B     		ldr	r3, .L55
 180:adctask.c     **** }
 736              		.loc 1 180 0
 737              		@ sp needed
 179:adctask.c     ****     return dac_offset_correction;
 738              		.loc 1 179 0
 739 0002 5869     		ldr	r0, [r3, #20]
 740              		.loc 1 180 0
 741 0004 7047     		bx	lr
 742              	.L56:
 743 0006 C046     		.align	2
 744              	.L55:
 745 0008 00000000 		.word	.LANCHOR0
 746              		.cfi_endproc
 747              	.LFE40:
 748              		.size	get_dac_offset_correction, .-get_dac_offset_correction
 749              		.section	.text.reset_running_totals,"ax",%progbits
 750              		.align	1
 751              		.global	reset_running_totals
 752              		.code	16
 753              		.thumb_func
 754              		.type	reset_running_totals, %function
 755              	reset_running_totals:
 756              	.LFB41:
 181:adctask.c     **** 
ARM GAS  C:\Users\VIDEOH~1\AppData\Local\Temp\ccViypgx.s 			page 19


 182:adctask.c     **** void reset_running_totals() {
 757              		.loc 1 182 0
 758              		.cfi_startproc
 759              		@ args = 0, pretend = 0, frame = 0
 760              		@ frame_needed = 0, uses_anonymous_args = 0
 761              		@ link register save eliminated.
 183:adctask.c     **** 	total_microamp_hours = 0;
 762              		.loc 1 183 0
 763 0000 0022     		movs	r2, #0
 764 0002 024B     		ldr	r3, .L58
 184:adctask.c     **** 	total_microwatt_hours = 0;
 185:adctask.c     **** }
 765              		.loc 1 185 0
 766              		@ sp needed
 183:adctask.c     **** 	total_microamp_hours = 0;
 767              		.loc 1 183 0
 768 0004 1A62     		str	r2, [r3, #32]
 184:adctask.c     **** 	total_microwatt_hours = 0;
 769              		.loc 1 184 0
 770 0006 9A62     		str	r2, [r3, #40]
 771              		.loc 1 185 0
 772 0008 7047     		bx	lr
 773              	.L59:
 774 000a C046     		.align	2
 775              	.L58:
 776 000c 00000000 		.word	.LANCHOR0
 777              		.cfi_endproc
 778              	.LFE41:
 779              		.size	reset_running_totals, .-reset_running_totals
 780              		.section	.text.get_termistor,"ax",%progbits
 781              		.align	1
 782              		.global	get_termistor
 783              		.code	16
 784              		.thumb_func
 785              		.type	get_termistor, %function
 786              	get_termistor:
 787              	.LFB42:
 186:adctask.c     **** uint16 get_termistor() {
 788              		.loc 1 186 0
 789              		.cfi_startproc
 790              		@ args = 0, pretend = 0, frame = 0
 791              		@ frame_needed = 0, uses_anonymous_args = 0
 792              		@ link register save eliminated.
 187:adctask.c     **** 	return termistor_adc;
 793              		.loc 1 187 0
 794 0000 014B     		ldr	r3, .L61
 188:adctask.c     **** }
 795              		.loc 1 188 0
 796              		@ sp needed
 187:adctask.c     **** 	return termistor_adc;
 797              		.loc 1 187 0
 798 0002 D868     		ldr	r0, [r3, #12]
 799 0004 80B2     		uxth	r0, r0
 800              		.loc 1 188 0
 801 0006 7047     		bx	lr
 802              	.L62:
 803              		.align	2
ARM GAS  C:\Users\VIDEOH~1\AppData\Local\Temp\ccViypgx.s 			page 20


 804              	.L61:
 805 0008 00000000 		.word	.LANCHOR0
 806              		.cfi_endproc
 807              	.LFE42:
 808              		.size	get_termistor, .-get_termistor
 809              		.section	.text.get_cooler_state,"ax",%progbits
 810              		.align	1
 811              		.global	get_cooler_state
 812              		.code	16
 813              		.thumb_func
 814              		.type	get_cooler_state, %function
 815              	get_cooler_state:
 816              	.LFB43:
 189:adctask.c     **** int get_cooler_state() {
 817              		.loc 1 189 0
 818              		.cfi_startproc
 819              		@ args = 0, pretend = 0, frame = 0
 820              		@ frame_needed = 0, uses_anonymous_args = 0
 821              		@ link register save eliminated.
 190:adctask.c     **** 	return cooler_state;
 822              		.loc 1 190 0
 823 0000 014B     		ldr	r3, .L64
 191:adctask.c     **** }
 824              		.loc 1 191 0
 825              		@ sp needed
 190:adctask.c     **** 	return cooler_state;
 826              		.loc 1 190 0
 827 0002 1869     		ldr	r0, [r3, #16]
 828              		.loc 1 191 0
 829 0004 7047     		bx	lr
 830              	.L65:
 831 0006 C046     		.align	2
 832              	.L64:
 833 0008 00000000 		.word	.LANCHOR0
 834              		.cfi_endproc
 835              	.LFE43:
 836              		.size	get_cooler_state, .-get_cooler_state
 837              		.global	adc_mix_ratio
 838              		.data
 839              		.set	.LANCHOR1,. + 0
 840              		.type	adc_mix_ratio, %object
 841              		.size	adc_mix_ratio, 1
 842              	adc_mix_ratio:
 843 0000 04       		.byte	4
 844              		.bss
 845              		.align	2
 846              		.set	.LANCHOR0,. + 0
 847              		.type	total_current, %object
 848              		.size	total_current, 4
 849              	total_current:
 850 0000 00000000 		.space	4
 851              		.type	total_voltage, %object
 852              		.size	total_voltage, 4
 853              	total_voltage:
 854 0004 00000000 		.space	4
 855              		.type	conversion_counter, %object
 856              		.size	conversion_counter, 1
ARM GAS  C:\Users\VIDEOH~1\AppData\Local\Temp\ccViypgx.s 			page 21


 857              	conversion_counter:
 858 0008 00       		.space	1
 859 0009 000000   		.space	3
 860              		.type	termistor_adc, %object
 861              		.size	termistor_adc, 4
 862              	termistor_adc:
 863 000c 00000000 		.space	4
 864              		.type	cooler_state, %object
 865              		.size	cooler_state, 4
 866              	cooler_state:
 867 0010 00000000 		.space	4
 868              		.type	dac_offset_correction, %object
 869              		.size	dac_offset_correction, 4
 870              	dac_offset_correction:
 871 0014 00000000 		.space	4
 872              		.type	last_update, %object
 873              		.size	last_update, 4
 874              	last_update:
 875 0018 00000000 		.space	4
 876              		.type	remainder_microamp_ticks, %object
 877              		.size	remainder_microamp_ticks, 4
 878              	remainder_microamp_ticks:
 879 001c 00000000 		.space	4
 880              		.type	total_microamp_hours, %object
 881              		.size	total_microamp_hours, 4
 882              	total_microamp_hours:
 883 0020 00000000 		.space	4
 884              		.type	remainder_microwatt_ticks, %object
 885              		.size	remainder_microwatt_ticks, 4
 886              	remainder_microwatt_ticks:
 887 0024 00000000 		.space	4
 888              		.type	total_microwatt_hours, %object
 889              		.size	total_microwatt_hours, 4
 890              	total_microwatt_hours:
 891 0028 00000000 		.space	4
 892              		.text
 893              	.Letext0:
 894              		.file 2 "c:\\program files (x86)\\cypress\\psoc creator\\4.2\\psoc creator\\import\\gnu\\arm\\5.4.
 895              		.file 3 "c:\\program files (x86)\\cypress\\psoc creator\\4.2\\psoc creator\\import\\gnu\\arm\\5.4.
 896              		.file 4 "Generated_Source\\PSoC4/cytypes.h"
 897              		.file 5 ".\\freertos\\include/portmacro.h"
 898              		.file 6 ".\\freertos\\include/queue.h"
 899              		.file 7 "tasks.h"
 900              		.file 8 "config.h"
 901              		.file 9 "Generated_Source\\PSoC4/ADC.h"
 902              		.file 10 "Generated_Source\\PSoC4/ADC_IRQ.h"
 903              		.file 11 "Generated_Source\\PSoC4/cooler.h"
 904              		.file 12 ".\\freertos\\include/task.h"