ARM GAS  C:\Users\VIDEOH~1\AppData\Local\Temp\ccYiwsiB.s 			page 1


   1              		.syntax unified
   2              		.cpu cortex-m0
   3              		.fpu softvfp
   4              		.eabi_attribute 20, 1
   5              		.eabi_attribute 21, 1
   6              		.eabi_attribute 23, 3
   7              		.eabi_attribute 24, 1
   8              		.eabi_attribute 25, 1
   9              		.eabi_attribute 26, 1
  10              		.eabi_attribute 30, 4
  11              		.eabi_attribute 34, 0
  12              		.eabi_attribute 18, 4
  13              		.thumb
  14              		.syntax unified
  15              		.file	"cyfitter_cfg.c"
  16              		.text
  17              	.Ltext0:
  18              		.cfi_sections	.debug_frame
  19              		.section	.text.SetAnalogRoutingPumps,"ax",%progbits
  20              		.align	1
  21              		.global	SetAnalogRoutingPumps
  22              		.code	16
  23              		.thumb_func
  24              		.type	SetAnalogRoutingPumps, %function
  25              	SetAnalogRoutingPumps:
  26              	.LFB6:
  27              		.file 1 "Generated_Source\\PSoC4\\cyfitter_cfg.c"
   1:Generated_Source\PSoC4/cyfitter_cfg.c **** 
   2:Generated_Source\PSoC4/cyfitter_cfg.c **** /*******************************************************************************
   3:Generated_Source\PSoC4/cyfitter_cfg.c **** * File Name: cyfitter_cfg.c
   4:Generated_Source\PSoC4/cyfitter_cfg.c **** * 
   5:Generated_Source\PSoC4/cyfitter_cfg.c **** * PSoC Creator  4.2
   6:Generated_Source\PSoC4/cyfitter_cfg.c **** *
   7:Generated_Source\PSoC4/cyfitter_cfg.c **** * Description:
   8:Generated_Source\PSoC4/cyfitter_cfg.c **** * This file contains device initialization code.
   9:Generated_Source\PSoC4/cyfitter_cfg.c **** * Except for the user defined sections in CyClockStartupError(), this file should not be modified.
  10:Generated_Source\PSoC4/cyfitter_cfg.c **** * This file is automatically generated by PSoC Creator.
  11:Generated_Source\PSoC4/cyfitter_cfg.c **** *
  12:Generated_Source\PSoC4/cyfitter_cfg.c **** ********************************************************************************
  13:Generated_Source\PSoC4/cyfitter_cfg.c **** * Copyright (c) 2007-2018 Cypress Semiconductor.  All rights reserved.
  14:Generated_Source\PSoC4/cyfitter_cfg.c **** * You may use this file only in accordance with the license, terms, conditions, 
  15:Generated_Source\PSoC4/cyfitter_cfg.c **** * disclaimers, and limitations in the end user license agreement accompanying 
  16:Generated_Source\PSoC4/cyfitter_cfg.c **** * the software package with which this file was provided.
  17:Generated_Source\PSoC4/cyfitter_cfg.c **** ********************************************************************************/
  18:Generated_Source\PSoC4/cyfitter_cfg.c **** 
  19:Generated_Source\PSoC4/cyfitter_cfg.c **** #include <string.h>
  20:Generated_Source\PSoC4/cyfitter_cfg.c **** #include "cytypes.h"
  21:Generated_Source\PSoC4/cyfitter_cfg.c **** #include "cydevice_trm.h"
  22:Generated_Source\PSoC4/cyfitter_cfg.c **** #include "cyfitter.h"
  23:Generated_Source\PSoC4/cyfitter_cfg.c **** #include "CyLib.h"
  24:Generated_Source\PSoC4/cyfitter_cfg.c **** #include "cyfitter_cfg.h"
  25:Generated_Source\PSoC4/cyfitter_cfg.c **** 
  26:Generated_Source\PSoC4/cyfitter_cfg.c **** 
  27:Generated_Source\PSoC4/cyfitter_cfg.c **** #if defined(__GNUC__) || defined(__ARMCC_VERSION)
  28:Generated_Source\PSoC4/cyfitter_cfg.c ****     #define CYPACKED 
  29:Generated_Source\PSoC4/cyfitter_cfg.c ****     #define CYPACKED_ATTR __attribute__ ((packed))
  30:Generated_Source\PSoC4/cyfitter_cfg.c ****     #define CYALIGNED __attribute__ ((aligned))
ARM GAS  C:\Users\VIDEOH~1\AppData\Local\Temp\ccYiwsiB.s 			page 2


  31:Generated_Source\PSoC4/cyfitter_cfg.c ****     #define CY_CFG_UNUSED __attribute__ ((unused))
  32:Generated_Source\PSoC4/cyfitter_cfg.c ****     #ifndef CY_CFG_SECTION
  33:Generated_Source\PSoC4/cyfitter_cfg.c ****         #define CY_CFG_SECTION __attribute__ ((section(".psocinit")))
  34:Generated_Source\PSoC4/cyfitter_cfg.c ****     #endif
  35:Generated_Source\PSoC4/cyfitter_cfg.c ****     
  36:Generated_Source\PSoC4/cyfitter_cfg.c ****     #if defined(__ARMCC_VERSION)
  37:Generated_Source\PSoC4/cyfitter_cfg.c ****         #define CY_CFG_MEMORY_BARRIER() __memory_changed()
  38:Generated_Source\PSoC4/cyfitter_cfg.c ****     #else
  39:Generated_Source\PSoC4/cyfitter_cfg.c ****         #define CY_CFG_MEMORY_BARRIER() __sync_synchronize()
  40:Generated_Source\PSoC4/cyfitter_cfg.c ****     #endif
  41:Generated_Source\PSoC4/cyfitter_cfg.c ****     
  42:Generated_Source\PSoC4/cyfitter_cfg.c **** #elif defined(__ICCARM__)
  43:Generated_Source\PSoC4/cyfitter_cfg.c ****     #include <intrinsics.h>
  44:Generated_Source\PSoC4/cyfitter_cfg.c **** 
  45:Generated_Source\PSoC4/cyfitter_cfg.c ****     #define CYPACKED __packed
  46:Generated_Source\PSoC4/cyfitter_cfg.c ****     #define CYPACKED_ATTR 
  47:Generated_Source\PSoC4/cyfitter_cfg.c ****     #define CYALIGNED _Pragma("data_alignment=4")
  48:Generated_Source\PSoC4/cyfitter_cfg.c ****     #define CY_CFG_UNUSED _Pragma("diag_suppress=Pe177")
  49:Generated_Source\PSoC4/cyfitter_cfg.c ****     #define CY_CFG_SECTION _Pragma("location=\".psocinit\"")
  50:Generated_Source\PSoC4/cyfitter_cfg.c ****     
  51:Generated_Source\PSoC4/cyfitter_cfg.c ****     #define CY_CFG_MEMORY_BARRIER() __DMB()
  52:Generated_Source\PSoC4/cyfitter_cfg.c ****     
  53:Generated_Source\PSoC4/cyfitter_cfg.c **** #else
  54:Generated_Source\PSoC4/cyfitter_cfg.c ****     #error Unsupported toolchain
  55:Generated_Source\PSoC4/cyfitter_cfg.c **** #endif
  56:Generated_Source\PSoC4/cyfitter_cfg.c **** 
  57:Generated_Source\PSoC4/cyfitter_cfg.c **** #ifndef CYCODE
  58:Generated_Source\PSoC4/cyfitter_cfg.c ****     #define CYCODE
  59:Generated_Source\PSoC4/cyfitter_cfg.c **** #endif
  60:Generated_Source\PSoC4/cyfitter_cfg.c **** #ifndef CYDATA
  61:Generated_Source\PSoC4/cyfitter_cfg.c ****     #define CYDATA
  62:Generated_Source\PSoC4/cyfitter_cfg.c **** #endif
  63:Generated_Source\PSoC4/cyfitter_cfg.c **** #ifndef CYFAR
  64:Generated_Source\PSoC4/cyfitter_cfg.c ****     #define CYFAR
  65:Generated_Source\PSoC4/cyfitter_cfg.c **** #endif
  66:Generated_Source\PSoC4/cyfitter_cfg.c **** #ifndef CYXDATA
  67:Generated_Source\PSoC4/cyfitter_cfg.c ****     #define CYXDATA
  68:Generated_Source\PSoC4/cyfitter_cfg.c **** #endif
  69:Generated_Source\PSoC4/cyfitter_cfg.c **** 
  70:Generated_Source\PSoC4/cyfitter_cfg.c **** 
  71:Generated_Source\PSoC4/cyfitter_cfg.c **** CY_CFG_UNUSED
  72:Generated_Source\PSoC4/cyfitter_cfg.c **** static void CYMEMZERO(void *s, size_t n);
  73:Generated_Source\PSoC4/cyfitter_cfg.c **** CY_CFG_UNUSED
  74:Generated_Source\PSoC4/cyfitter_cfg.c **** static void CYMEMZERO(void *s, size_t n)
  75:Generated_Source\PSoC4/cyfitter_cfg.c **** {
  76:Generated_Source\PSoC4/cyfitter_cfg.c **** 	(void)memset(s, 0, n);
  77:Generated_Source\PSoC4/cyfitter_cfg.c **** }
  78:Generated_Source\PSoC4/cyfitter_cfg.c **** CY_CFG_UNUSED
  79:Generated_Source\PSoC4/cyfitter_cfg.c **** static void CYCONFIGCPY(void *dest, const void *src, size_t n);
  80:Generated_Source\PSoC4/cyfitter_cfg.c **** CY_CFG_UNUSED
  81:Generated_Source\PSoC4/cyfitter_cfg.c **** static void CYCONFIGCPY(void *dest, const void *src, size_t n)
  82:Generated_Source\PSoC4/cyfitter_cfg.c **** {
  83:Generated_Source\PSoC4/cyfitter_cfg.c **** 	(void)memcpy(dest, src, n);
  84:Generated_Source\PSoC4/cyfitter_cfg.c **** }
  85:Generated_Source\PSoC4/cyfitter_cfg.c **** CY_CFG_UNUSED
  86:Generated_Source\PSoC4/cyfitter_cfg.c **** static void CYCONFIGCPYCODE(void *dest, const void *src, size_t n);
  87:Generated_Source\PSoC4/cyfitter_cfg.c **** CY_CFG_UNUSED
ARM GAS  C:\Users\VIDEOH~1\AppData\Local\Temp\ccYiwsiB.s 			page 3


  88:Generated_Source\PSoC4/cyfitter_cfg.c **** static void CYCONFIGCPYCODE(void *dest, const void *src, size_t n)
  89:Generated_Source\PSoC4/cyfitter_cfg.c **** {
  90:Generated_Source\PSoC4/cyfitter_cfg.c **** 	(void)memcpy(dest, src, n);
  91:Generated_Source\PSoC4/cyfitter_cfg.c **** }
  92:Generated_Source\PSoC4/cyfitter_cfg.c **** 
  93:Generated_Source\PSoC4/cyfitter_cfg.c **** 
  94:Generated_Source\PSoC4/cyfitter_cfg.c **** 
  95:Generated_Source\PSoC4/cyfitter_cfg.c **** 
  96:Generated_Source\PSoC4/cyfitter_cfg.c **** /* Clock startup error codes                                                   */
  97:Generated_Source\PSoC4/cyfitter_cfg.c **** #define CYCLOCKSTART_NO_ERROR    0u
  98:Generated_Source\PSoC4/cyfitter_cfg.c **** #define CYCLOCKSTART_XTAL_ERROR  1u
  99:Generated_Source\PSoC4/cyfitter_cfg.c **** #define CYCLOCKSTART_32KHZ_ERROR 2u
 100:Generated_Source\PSoC4/cyfitter_cfg.c **** #define CYCLOCKSTART_PLL_ERROR   3u
 101:Generated_Source\PSoC4/cyfitter_cfg.c **** #define CYCLOCKSTART_FLL_ERROR   4u
 102:Generated_Source\PSoC4/cyfitter_cfg.c **** #define CYCLOCKSTART_WCO_ERROR   5u
 103:Generated_Source\PSoC4/cyfitter_cfg.c **** 
 104:Generated_Source\PSoC4/cyfitter_cfg.c **** 
 105:Generated_Source\PSoC4/cyfitter_cfg.c **** #ifdef CY_NEED_CYCLOCKSTARTUPERROR
 106:Generated_Source\PSoC4/cyfitter_cfg.c **** /*******************************************************************************
 107:Generated_Source\PSoC4/cyfitter_cfg.c **** * Function Name: CyClockStartupError
 108:Generated_Source\PSoC4/cyfitter_cfg.c **** ********************************************************************************
 109:Generated_Source\PSoC4/cyfitter_cfg.c **** * Summary:
 110:Generated_Source\PSoC4/cyfitter_cfg.c **** *  If an error is encountered during clock configuration (crystal startup error,
 111:Generated_Source\PSoC4/cyfitter_cfg.c **** *  PLL lock error, etc.), the system will end up here.  Unless reimplemented by
 112:Generated_Source\PSoC4/cyfitter_cfg.c **** *  the customer, this function will stop in an infinite loop.
 113:Generated_Source\PSoC4/cyfitter_cfg.c **** *
 114:Generated_Source\PSoC4/cyfitter_cfg.c **** * Parameters:
 115:Generated_Source\PSoC4/cyfitter_cfg.c **** *   void
 116:Generated_Source\PSoC4/cyfitter_cfg.c **** *
 117:Generated_Source\PSoC4/cyfitter_cfg.c **** * Return:
 118:Generated_Source\PSoC4/cyfitter_cfg.c **** *   void
 119:Generated_Source\PSoC4/cyfitter_cfg.c **** *
 120:Generated_Source\PSoC4/cyfitter_cfg.c **** *******************************************************************************/
 121:Generated_Source\PSoC4/cyfitter_cfg.c **** CY_CFG_UNUSED
 122:Generated_Source\PSoC4/cyfitter_cfg.c **** static void CyClockStartupError(uint8 errorCode);
 123:Generated_Source\PSoC4/cyfitter_cfg.c **** CY_CFG_UNUSED
 124:Generated_Source\PSoC4/cyfitter_cfg.c **** static void CyClockStartupError(uint8 errorCode)
 125:Generated_Source\PSoC4/cyfitter_cfg.c **** {
 126:Generated_Source\PSoC4/cyfitter_cfg.c ****     /* To remove the compiler warning if errorCode not used.                */
 127:Generated_Source\PSoC4/cyfitter_cfg.c ****     errorCode = errorCode;
 128:Generated_Source\PSoC4/cyfitter_cfg.c **** 
 129:Generated_Source\PSoC4/cyfitter_cfg.c ****     /* If we have a clock startup error (bad MHz crystal, PLL lock, etc.),  */
 130:Generated_Source\PSoC4/cyfitter_cfg.c ****     /* we will end up here to allow the customer to implement something to  */
 131:Generated_Source\PSoC4/cyfitter_cfg.c ****     /* deal with the clock condition.                                       */
 132:Generated_Source\PSoC4/cyfitter_cfg.c **** 
 133:Generated_Source\PSoC4/cyfitter_cfg.c **** #ifdef CY_CFG_CLOCK_STARTUP_ERROR_CALLBACK
 134:Generated_Source\PSoC4/cyfitter_cfg.c ****     CY_CFG_Clock_Startup_ErrorCallback();
 135:Generated_Source\PSoC4/cyfitter_cfg.c **** #else
 136:Generated_Source\PSoC4/cyfitter_cfg.c ****     /*  If not using CY_CFG_CLOCK_STARTUP_ERROR_CALLBACK, place your clock startup code here. */
 137:Generated_Source\PSoC4/cyfitter_cfg.c ****     /* `#START CyClockStartupError` */
 138:Generated_Source\PSoC4/cyfitter_cfg.c **** 
 139:Generated_Source\PSoC4/cyfitter_cfg.c **** 
 140:Generated_Source\PSoC4/cyfitter_cfg.c **** 
 141:Generated_Source\PSoC4/cyfitter_cfg.c ****     /* `#END` */
 142:Generated_Source\PSoC4/cyfitter_cfg.c **** 
 143:Generated_Source\PSoC4/cyfitter_cfg.c ****     while(1) {}
 144:Generated_Source\PSoC4/cyfitter_cfg.c **** #endif /* CY_CFG_CLOCK_STARTUP_ERROR_CALLBACK */
ARM GAS  C:\Users\VIDEOH~1\AppData\Local\Temp\ccYiwsiB.s 			page 4


 145:Generated_Source\PSoC4/cyfitter_cfg.c **** }
 146:Generated_Source\PSoC4/cyfitter_cfg.c **** #endif
 147:Generated_Source\PSoC4/cyfitter_cfg.c **** 
 148:Generated_Source\PSoC4/cyfitter_cfg.c **** #define CY_CFG_BASE_ADDR_COUNT 7u
 149:Generated_Source\PSoC4/cyfitter_cfg.c **** CYPACKED typedef struct
 150:Generated_Source\PSoC4/cyfitter_cfg.c **** {
 151:Generated_Source\PSoC4/cyfitter_cfg.c **** 	uint8 offset;
 152:Generated_Source\PSoC4/cyfitter_cfg.c **** 	uint8 value;
 153:Generated_Source\PSoC4/cyfitter_cfg.c **** } CYPACKED_ATTR cy_cfg_addrvalue_t;
 154:Generated_Source\PSoC4/cyfitter_cfg.c **** 
 155:Generated_Source\PSoC4/cyfitter_cfg.c **** 
 156:Generated_Source\PSoC4/cyfitter_cfg.c **** 
 157:Generated_Source\PSoC4/cyfitter_cfg.c **** /*******************************************************************************
 158:Generated_Source\PSoC4/cyfitter_cfg.c **** * Function Name: cfg_write_bytes32
 159:Generated_Source\PSoC4/cyfitter_cfg.c **** ********************************************************************************
 160:Generated_Source\PSoC4/cyfitter_cfg.c **** * Summary:
 161:Generated_Source\PSoC4/cyfitter_cfg.c **** *  This function is used for setting up the chip configuration areas that
 162:Generated_Source\PSoC4/cyfitter_cfg.c **** *  contain relatively sparse data.
 163:Generated_Source\PSoC4/cyfitter_cfg.c **** *
 164:Generated_Source\PSoC4/cyfitter_cfg.c **** * Parameters:
 165:Generated_Source\PSoC4/cyfitter_cfg.c **** *   void
 166:Generated_Source\PSoC4/cyfitter_cfg.c **** *
 167:Generated_Source\PSoC4/cyfitter_cfg.c **** * Return:
 168:Generated_Source\PSoC4/cyfitter_cfg.c **** *   void
 169:Generated_Source\PSoC4/cyfitter_cfg.c **** *
 170:Generated_Source\PSoC4/cyfitter_cfg.c **** *******************************************************************************/
 171:Generated_Source\PSoC4/cyfitter_cfg.c **** static void cfg_write_bytes32(const uint32 addr_table[], const cy_cfg_addrvalue_t data_table[]);
 172:Generated_Source\PSoC4/cyfitter_cfg.c **** static void cfg_write_bytes32(const uint32 addr_table[], const cy_cfg_addrvalue_t data_table[])
 173:Generated_Source\PSoC4/cyfitter_cfg.c **** {
 174:Generated_Source\PSoC4/cyfitter_cfg.c **** 	/* For 32-bit little-endian architectures */
 175:Generated_Source\PSoC4/cyfitter_cfg.c **** 	uint32 i, j = 0u;
 176:Generated_Source\PSoC4/cyfitter_cfg.c **** 	for (i = 0u; i < CY_CFG_BASE_ADDR_COUNT; i++)
 177:Generated_Source\PSoC4/cyfitter_cfg.c **** 	{
 178:Generated_Source\PSoC4/cyfitter_cfg.c **** 		uint32 baseAddr = addr_table[i];
 179:Generated_Source\PSoC4/cyfitter_cfg.c **** 		uint8 count = (uint8)baseAddr;
 180:Generated_Source\PSoC4/cyfitter_cfg.c **** 		baseAddr &= 0xFFFFFF00u;
 181:Generated_Source\PSoC4/cyfitter_cfg.c **** 		while (count != 0u)
 182:Generated_Source\PSoC4/cyfitter_cfg.c **** 		{
 183:Generated_Source\PSoC4/cyfitter_cfg.c **** 			CY_SET_REG8((void *)(baseAddr + data_table[j].offset), data_table[j].value);
 184:Generated_Source\PSoC4/cyfitter_cfg.c **** 			j++;
 185:Generated_Source\PSoC4/cyfitter_cfg.c **** 			count--;
 186:Generated_Source\PSoC4/cyfitter_cfg.c **** 		}
 187:Generated_Source\PSoC4/cyfitter_cfg.c **** 	}
 188:Generated_Source\PSoC4/cyfitter_cfg.c **** }
 189:Generated_Source\PSoC4/cyfitter_cfg.c **** 
 190:Generated_Source\PSoC4/cyfitter_cfg.c **** 
 191:Generated_Source\PSoC4/cyfitter_cfg.c **** /*******************************************************************************
 192:Generated_Source\PSoC4/cyfitter_cfg.c **** * Function Name: ClockSetup
 193:Generated_Source\PSoC4/cyfitter_cfg.c **** ********************************************************************************
 194:Generated_Source\PSoC4/cyfitter_cfg.c **** *
 195:Generated_Source\PSoC4/cyfitter_cfg.c **** * Summary:
 196:Generated_Source\PSoC4/cyfitter_cfg.c **** *   Performs the initialization of all of the clocks in the device based on the
 197:Generated_Source\PSoC4/cyfitter_cfg.c **** *   settings in the Clock tab of the DWR.  This includes enabling the requested
 198:Generated_Source\PSoC4/cyfitter_cfg.c **** *   clocks and setting the necessary dividers to produce the desired frequency. 
 199:Generated_Source\PSoC4/cyfitter_cfg.c **** *
 200:Generated_Source\PSoC4/cyfitter_cfg.c **** * Parameters:
 201:Generated_Source\PSoC4/cyfitter_cfg.c **** *   void
ARM GAS  C:\Users\VIDEOH~1\AppData\Local\Temp\ccYiwsiB.s 			page 5


 202:Generated_Source\PSoC4/cyfitter_cfg.c **** *
 203:Generated_Source\PSoC4/cyfitter_cfg.c **** * Return:
 204:Generated_Source\PSoC4/cyfitter_cfg.c **** *   void
 205:Generated_Source\PSoC4/cyfitter_cfg.c **** *
 206:Generated_Source\PSoC4/cyfitter_cfg.c **** *******************************************************************************/
 207:Generated_Source\PSoC4/cyfitter_cfg.c **** static void ClockSetup(void);
 208:Generated_Source\PSoC4/cyfitter_cfg.c **** CY_CFG_SECTION
 209:Generated_Source\PSoC4/cyfitter_cfg.c **** static void ClockSetup(void)
 210:Generated_Source\PSoC4/cyfitter_cfg.c **** {
 211:Generated_Source\PSoC4/cyfitter_cfg.c **** 	/* Enable HALF_EN before trimming for the flash accelerator. */
 212:Generated_Source\PSoC4/cyfitter_cfg.c **** 	CY_SET_REG32((void CYXDATA *)(CYREG_CLK_SELECT), (CY_GET_REG32((void *)CYREG_CLK_SELECT) | 0x00040
 213:Generated_Source\PSoC4/cyfitter_cfg.c **** 
 214:Generated_Source\PSoC4/cyfitter_cfg.c **** 	/* Setup and trim IMO based on desired frequency. */
 215:Generated_Source\PSoC4/cyfitter_cfg.c **** 	CySysClkWriteImoFreq(24u);
 216:Generated_Source\PSoC4/cyfitter_cfg.c **** 
 217:Generated_Source\PSoC4/cyfitter_cfg.c **** 	/* Disable HALF_EN since it is not required at this IMO frequency. */
 218:Generated_Source\PSoC4/cyfitter_cfg.c **** 	CY_SET_REG32((void CYXDATA *)(CYREG_CLK_SELECT), (CY_GET_REG32((void *)CYREG_CLK_SELECT) & 0xFFFBF
 219:Generated_Source\PSoC4/cyfitter_cfg.c **** 	/* CYDEV_CLK_ILO_CONFIG Starting address: CYDEV_CLK_ILO_CONFIG */
 220:Generated_Source\PSoC4/cyfitter_cfg.c **** 	CY_SET_REG32((void *)(CYREG_CLK_ILO_CONFIG), 0x80000006u);
 221:Generated_Source\PSoC4/cyfitter_cfg.c **** 
 222:Generated_Source\PSoC4/cyfitter_cfg.c **** 
 223:Generated_Source\PSoC4/cyfitter_cfg.c **** 	/* CYDEV_CLK_SELECT00 Starting address: CYDEV_CLK_SELECT00 */
 224:Generated_Source\PSoC4/cyfitter_cfg.c **** 	CY_SET_REG32((void *)(CYREG_CLK_SELECT02), 0x00000013u);
 225:Generated_Source\PSoC4/cyfitter_cfg.c **** 	CY_SET_REG32((void *)(CYREG_CLK_SELECT03), 0x00000010u);
 226:Generated_Source\PSoC4/cyfitter_cfg.c **** 	CY_SET_REG32((void *)(CYREG_CLK_SELECT07), 0x00000020u);
 227:Generated_Source\PSoC4/cyfitter_cfg.c **** 	CY_SET_REG32((void *)(CYREG_CLK_SELECT12), 0x00000030u);
 228:Generated_Source\PSoC4/cyfitter_cfg.c **** 
 229:Generated_Source\PSoC4/cyfitter_cfg.c **** 	/* CYDEV_CLK_IMO_CONFIG Starting address: CYDEV_CLK_IMO_CONFIG */
 230:Generated_Source\PSoC4/cyfitter_cfg.c **** 	CY_SET_REG32((void *)(CYREG_CLK_IMO_CONFIG), 0x82000000u);
 231:Generated_Source\PSoC4/cyfitter_cfg.c **** 
 232:Generated_Source\PSoC4/cyfitter_cfg.c **** 	/* CYDEV_CLK_SELECT Starting address: CYDEV_CLK_SELECT */
 233:Generated_Source\PSoC4/cyfitter_cfg.c **** 	CY_SET_REG32((void *)(CYREG_CLK_SELECT), 0x00000000u);
 234:Generated_Source\PSoC4/cyfitter_cfg.c **** 
 235:Generated_Source\PSoC4/cyfitter_cfg.c **** 	/* CYDEV_CLK_DIVIDER_A00 Starting address: CYDEV_CLK_DIVIDER_A00 */
 236:Generated_Source\PSoC4/cyfitter_cfg.c **** 	CY_SET_REG32((void *)(CYREG_CLK_DIVIDER_A00), 0x80000002u);
 237:Generated_Source\PSoC4/cyfitter_cfg.c **** 
 238:Generated_Source\PSoC4/cyfitter_cfg.c **** 	/* CYDEV_CLK_DIVIDER_B00 Starting address: CYDEV_CLK_DIVIDER_B00 */
 239:Generated_Source\PSoC4/cyfitter_cfg.c **** 	CY_SET_REG32((void *)(CYREG_CLK_DIVIDER_B00), 0x8000000Du);
 240:Generated_Source\PSoC4/cyfitter_cfg.c **** 
 241:Generated_Source\PSoC4/cyfitter_cfg.c **** 	/* CYDEV_CLK_DIVIDER_C00 Starting address: CYDEV_CLK_DIVIDER_C00 */
 242:Generated_Source\PSoC4/cyfitter_cfg.c **** 	CY_SET_REG32((void *)(CYREG_CLK_DIVIDER_C00), 0x8000176Fu);
 243:Generated_Source\PSoC4/cyfitter_cfg.c **** 
 244:Generated_Source\PSoC4/cyfitter_cfg.c **** 	/* CYDEV_CLK_DIVIDER_FRAC_A00 Starting address: CYDEV_CLK_DIVIDER_FRAC_A00 */
 245:Generated_Source\PSoC4/cyfitter_cfg.c **** 	CY_SET_REG32((void *)(CYREG_CLK_DIVIDER_FRAC_A00), 0x800C0010u);
 246:Generated_Source\PSoC4/cyfitter_cfg.c **** 
 247:Generated_Source\PSoC4/cyfitter_cfg.c **** 	CY_SET_REG32((void *)(CYREG_WDT_CONFIG), 0x00000000u);
 248:Generated_Source\PSoC4/cyfitter_cfg.c **** }
 249:Generated_Source\PSoC4/cyfitter_cfg.c **** 
 250:Generated_Source\PSoC4/cyfitter_cfg.c **** 
 251:Generated_Source\PSoC4/cyfitter_cfg.c **** /* Analog API Functions */
 252:Generated_Source\PSoC4/cyfitter_cfg.c **** 
 253:Generated_Source\PSoC4/cyfitter_cfg.c **** 
 254:Generated_Source\PSoC4/cyfitter_cfg.c **** /*******************************************************************************
 255:Generated_Source\PSoC4/cyfitter_cfg.c **** * Function Name: AnalogSetDefault
 256:Generated_Source\PSoC4/cyfitter_cfg.c **** ********************************************************************************
 257:Generated_Source\PSoC4/cyfitter_cfg.c **** *
 258:Generated_Source\PSoC4/cyfitter_cfg.c **** * Summary:
ARM GAS  C:\Users\VIDEOH~1\AppData\Local\Temp\ccYiwsiB.s 			page 6


 259:Generated_Source\PSoC4/cyfitter_cfg.c **** *  Sets up the analog portions of the chip to default values based on chip
 260:Generated_Source\PSoC4/cyfitter_cfg.c **** *  configuration options from the project.
 261:Generated_Source\PSoC4/cyfitter_cfg.c **** *
 262:Generated_Source\PSoC4/cyfitter_cfg.c **** * Parameters:
 263:Generated_Source\PSoC4/cyfitter_cfg.c **** *  void
 264:Generated_Source\PSoC4/cyfitter_cfg.c **** *
 265:Generated_Source\PSoC4/cyfitter_cfg.c **** * Return:
 266:Generated_Source\PSoC4/cyfitter_cfg.c **** *  void
 267:Generated_Source\PSoC4/cyfitter_cfg.c **** *
 268:Generated_Source\PSoC4/cyfitter_cfg.c **** *******************************************************************************/
 269:Generated_Source\PSoC4/cyfitter_cfg.c **** static void AnalogSetDefault(void);
 270:Generated_Source\PSoC4/cyfitter_cfg.c **** static void AnalogSetDefault(void)
 271:Generated_Source\PSoC4/cyfitter_cfg.c **** {
 272:Generated_Source\PSoC4/cyfitter_cfg.c **** 	CY_SET_XTND_REG32((void CYFAR *)CYREG_CTBM_OA0_SW, 0x00240104u);
 273:Generated_Source\PSoC4/cyfitter_cfg.c **** 	CY_SET_XTND_REG32((void CYFAR *)CYREG_CTBM_OA1_SW, 0x00204002u);
 274:Generated_Source\PSoC4/cyfitter_cfg.c **** 	CY_SET_XTND_REG32((void CYFAR *)CYREG_CTBM_CTB_SW_HW_CTRL, 0x00000004u);
 275:Generated_Source\PSoC4/cyfitter_cfg.c **** 	CY_SET_XTND_REG32((void CYFAR *)CYREG_SAR_MUX_SWITCH0, 0x0040001Eu);
 276:Generated_Source\PSoC4/cyfitter_cfg.c **** 	CY_SET_XTND_REG32((void CYFAR *)CYREG_SAR_MUX_SWITCH_HW_CTRL, 0x0040001Eu);
 277:Generated_Source\PSoC4/cyfitter_cfg.c **** 	/* Variable VDDA is selected; no pumps are enabled by default */
 278:Generated_Source\PSoC4/cyfitter_cfg.c **** }
 279:Generated_Source\PSoC4/cyfitter_cfg.c **** 
 280:Generated_Source\PSoC4/cyfitter_cfg.c **** 
 281:Generated_Source\PSoC4/cyfitter_cfg.c **** /*******************************************************************************
 282:Generated_Source\PSoC4/cyfitter_cfg.c **** * Function Name: SetAnalogRoutingPumps
 283:Generated_Source\PSoC4/cyfitter_cfg.c **** ********************************************************************************
 284:Generated_Source\PSoC4/cyfitter_cfg.c **** *
 285:Generated_Source\PSoC4/cyfitter_cfg.c **** * Summary:
 286:Generated_Source\PSoC4/cyfitter_cfg.c **** * Enables or disables the analog pumps feeding analog routing switches.
 287:Generated_Source\PSoC4/cyfitter_cfg.c **** * Intended to be called at startup, based on the Vdda system configuration;
 288:Generated_Source\PSoC4/cyfitter_cfg.c **** * may be called during operation when the user informs us that the Vdda voltage crossed the pump th
 289:Generated_Source\PSoC4/cyfitter_cfg.c **** *
 290:Generated_Source\PSoC4/cyfitter_cfg.c **** * Parameters:
 291:Generated_Source\PSoC4/cyfitter_cfg.c **** *  enabled - 1 to enable the pumps, 0 to disable the pumps
 292:Generated_Source\PSoC4/cyfitter_cfg.c **** *
 293:Generated_Source\PSoC4/cyfitter_cfg.c **** * Return:
 294:Generated_Source\PSoC4/cyfitter_cfg.c **** *  void
 295:Generated_Source\PSoC4/cyfitter_cfg.c **** *
 296:Generated_Source\PSoC4/cyfitter_cfg.c **** *******************************************************************************/
 297:Generated_Source\PSoC4/cyfitter_cfg.c **** void SetAnalogRoutingPumps(uint8 enabled)
 298:Generated_Source\PSoC4/cyfitter_cfg.c **** {
  28              		.loc 1 298 0
  29              		.cfi_startproc
  30              		@ args = 0, pretend = 0, frame = 0
  31              		@ frame_needed = 0, uses_anonymous_args = 0
  32              		@ link register save eliminated.
  33              	.LVL0:
 299:Generated_Source\PSoC4/cyfitter_cfg.c **** 	uint32 regValue = CY_GET_XTND_REG32((void *)(CYREG_SAR_PUMP_CTRL));
  34              		.loc 1 299 0
  35 0000 054A     		ldr	r2, .L5
  36 0002 1368     		ldr	r3, [r2]
  37              	.LVL1:
 300:Generated_Source\PSoC4/cyfitter_cfg.c **** 	if (enabled != 0u)
  38              		.loc 1 300 0
  39 0004 0028     		cmp	r0, #0
  40 0006 03D0     		beq	.L2
 301:Generated_Source\PSoC4/cyfitter_cfg.c **** 	{
 302:Generated_Source\PSoC4/cyfitter_cfg.c **** 		regValue |= 0x80000000u;
ARM GAS  C:\Users\VIDEOH~1\AppData\Local\Temp\ccYiwsiB.s 			page 7


  41              		.loc 1 302 0
  42 0008 8021     		movs	r1, #128
  43 000a 0906     		lsls	r1, r1, #24
  44 000c 0B43     		orrs	r3, r1
  45              	.LVL2:
  46 000e 01E0     		b	.L3
  47              	.L2:
 303:Generated_Source\PSoC4/cyfitter_cfg.c **** 	}
 304:Generated_Source\PSoC4/cyfitter_cfg.c **** 	else
 305:Generated_Source\PSoC4/cyfitter_cfg.c **** 	{
 306:Generated_Source\PSoC4/cyfitter_cfg.c **** 		regValue &= ~0x80000000u;
  48              		.loc 1 306 0
  49 0010 5B00     		lsls	r3, r3, #1
  50              	.LVL3:
  51 0012 5B08     		lsrs	r3, r3, #1
  52              	.LVL4:
  53              	.L3:
 307:Generated_Source\PSoC4/cyfitter_cfg.c **** 	}
 308:Generated_Source\PSoC4/cyfitter_cfg.c **** 	CY_SET_XTND_REG32((void *)(CYREG_SAR_PUMP_CTRL), regValue);
  54              		.loc 1 308 0
  55 0014 1360     		str	r3, [r2]
 309:Generated_Source\PSoC4/cyfitter_cfg.c **** }
  56              		.loc 1 309 0
  57              		@ sp needed
  58 0016 7047     		bx	lr
  59              	.L6:
  60              		.align	2
  61              	.L5:
  62 0018 80031A40 		.word	1075446656
  63              		.cfi_endproc
  64              	.LFE6:
  65              		.size	SetAnalogRoutingPumps, .-SetAnalogRoutingPumps
  66              		.section	.psocinit,"ax",%progbits
  67              		.align	1
  68              		.global	cyfitter_cfg
  69              		.code	16
  70              		.thumb_func
  71              		.type	cyfitter_cfg, %function
  72              	cyfitter_cfg:
  73              	.LFB7:
 310:Generated_Source\PSoC4/cyfitter_cfg.c **** 
 311:Generated_Source\PSoC4/cyfitter_cfg.c **** 
 312:Generated_Source\PSoC4/cyfitter_cfg.c **** 
 313:Generated_Source\PSoC4/cyfitter_cfg.c **** 
 314:Generated_Source\PSoC4/cyfitter_cfg.c **** /*******************************************************************************
 315:Generated_Source\PSoC4/cyfitter_cfg.c **** * Function Name: cyfitter_cfg
 316:Generated_Source\PSoC4/cyfitter_cfg.c **** ********************************************************************************
 317:Generated_Source\PSoC4/cyfitter_cfg.c **** * Summary:
 318:Generated_Source\PSoC4/cyfitter_cfg.c **** *  This function is called by the start-up code for the selected device. It
 319:Generated_Source\PSoC4/cyfitter_cfg.c **** *  performs all of the necessary device configuration based on the design
 320:Generated_Source\PSoC4/cyfitter_cfg.c **** *  settings.  This includes settings from the Design Wide Resources (DWR) such
 321:Generated_Source\PSoC4/cyfitter_cfg.c **** *  as Clocks and Pins as well as any component configuration that is necessary.
 322:Generated_Source\PSoC4/cyfitter_cfg.c **** *
 323:Generated_Source\PSoC4/cyfitter_cfg.c **** * Parameters:
 324:Generated_Source\PSoC4/cyfitter_cfg.c **** *   void
 325:Generated_Source\PSoC4/cyfitter_cfg.c **** *
 326:Generated_Source\PSoC4/cyfitter_cfg.c **** * Return:
ARM GAS  C:\Users\VIDEOH~1\AppData\Local\Temp\ccYiwsiB.s 			page 8


 327:Generated_Source\PSoC4/cyfitter_cfg.c **** *   void
 328:Generated_Source\PSoC4/cyfitter_cfg.c **** *
 329:Generated_Source\PSoC4/cyfitter_cfg.c **** *******************************************************************************/
 330:Generated_Source\PSoC4/cyfitter_cfg.c **** CY_CFG_SECTION
 331:Generated_Source\PSoC4/cyfitter_cfg.c **** void cyfitter_cfg(void)
 332:Generated_Source\PSoC4/cyfitter_cfg.c **** {
  74              		.loc 1 332 0
  75              		.cfi_startproc
  76              		@ args = 0, pretend = 0, frame = 8
  77              		@ frame_needed = 0, uses_anonymous_args = 0
  78 0000 F7B5     		push	{r0, r1, r2, r4, r5, r6, r7, lr}
  79              		.cfi_def_cfa_offset 32
  80              		.cfi_offset 0, -32
  81              		.cfi_offset 1, -28
  82              		.cfi_offset 2, -24
  83              		.cfi_offset 4, -20
  84              		.cfi_offset 5, -16
  85              		.cfi_offset 6, -12
  86              		.cfi_offset 7, -8
  87              		.cfi_offset 14, -4
 333:Generated_Source\PSoC4/cyfitter_cfg.c **** 	/* Disable interrupts by default. Let user enable if/when they want. */
 334:Generated_Source\PSoC4/cyfitter_cfg.c **** 	CyGlobalIntDisable;
  88              		.loc 1 334 0
  89              		.syntax divided
  90              	@ 334 "Generated_Source\PSoC4\cyfitter_cfg.c" 1
  91 0002 72B6     		CPSID   i
  92              	@ 0 "" 2
  93              	.LVL5:
  94              		.thumb
  95              		.syntax unified
  96              	.LBB14:
  97              	.LBB15:
  98              	.LBB16:
  99              	.LBB17:
  76:Generated_Source\PSoC4/cyfitter_cfg.c **** }
 100              		.loc 1 76 0
 101 0004 8022     		movs	r2, #128
 102 0006 0021     		movs	r1, #0
 103 0008 D200     		lsls	r2, r2, #3
 104 000a 5948     		ldr	r0, .L13
 105 000c FFF7FEFF 		bl	memset
 106              	.LVL6:
 107 0010 8022     		movs	r2, #128
 108 0012 0021     		movs	r1, #0
 109 0014 D200     		lsls	r2, r2, #3
 110 0016 5748     		ldr	r0, .L13+4
 111 0018 FFF7FEFF 		bl	memset
 112              	.LVL7:
 113 001c 0022     		movs	r2, #0
 114              	.LBE17:
 115              	.LBE16:
 116              	.LBE15:
 117              	.LBB20:
 118              	.LBB21:
 119              	.LBB22:
 180:Generated_Source\PSoC4/cyfitter_cfg.c **** 		while (count != 0u)
 120              		.loc 1 180 0
ARM GAS  C:\Users\VIDEOH~1\AppData\Local\Temp\ccYiwsiB.s 			page 9


 121 001e FF25     		movs	r5, #255
 122              	.LBE22:
 123              	.LBE21:
 124              	.LBE20:
 125              	.LBB25:
 126              	.LBB19:
 127              	.LBB18:
  76:Generated_Source\PSoC4/cyfitter_cfg.c **** }
 128              		.loc 1 76 0
 129 0020 1100     		movs	r1, r2
 130 0022 554E     		ldr	r6, .L13+8
 131 0024 1C36     		adds	r6, r6, #28
 132              	.LVL8:
 133              	.L10:
 134              	.LBE18:
 135              	.LBE19:
 136              	.LBE25:
 137              	.LBB26:
 138              	.LBB24:
 139              	.LBB23:
 178:Generated_Source\PSoC4/cyfitter_cfg.c **** 		uint8 count = (uint8)baseAddr;
 140              		.loc 1 178 0
 141 0026 544B     		ldr	r3, .L13+8
 142 0028 D058     		ldr	r0, [r2, r3]
 143              	.LVL9:
 144 002a 4B00     		lsls	r3, r1, #1
 180:Generated_Source\PSoC4/cyfitter_cfg.c **** 		while (count != 0u)
 145              		.loc 1 180 0
 146 002c 0700     		movs	r7, r0
 147 002e 2840     		ands	r0, r5
 148              	.LVL10:
 149 0030 0918     		adds	r1, r1, r0
 150              	.LVL11:
 151 0032 4800     		lsls	r0, r1, #1
 152 0034 0130     		adds	r0, r0, #1
 153 0036 0133     		adds	r3, r3, #1
 154 0038 3018     		adds	r0, r6, r0
 155 003a AF43     		bics	r7, r5
 156              	.LVL12:
 157 003c F318     		adds	r3, r6, r3
 158 003e 0190     		str	r0, [sp, #4]
 159              	.LVL13:
 160              	.L8:
 181:Generated_Source\PSoC4/cyfitter_cfg.c **** 		{
 161              		.loc 1 181 0
 162 0040 0198     		ldr	r0, [sp, #4]
 163 0042 8342     		cmp	r3, r0
 164 0044 07D0     		beq	.L12
 183:Generated_Source\PSoC4/cyfitter_cfg.c **** 			j++;
 165              		.loc 1 183 0
 166 0046 581E     		subs	r0, r3, #1
 167 0048 0078     		ldrb	r0, [r0]
 168 004a C019     		adds	r0, r0, r7
 169 004c 0400     		movs	r4, r0
 170 004e 1878     		ldrb	r0, [r3]
 171 0050 0233     		adds	r3, r3, #2
 172 0052 2070     		strb	r0, [r4]
ARM GAS  C:\Users\VIDEOH~1\AppData\Local\Temp\ccYiwsiB.s 			page 10


 173 0054 F4E7     		b	.L8
 174              	.L12:
 175              	.LVL14:
 176 0056 0432     		adds	r2, r2, #4
 177              	.LBE23:
 176:Generated_Source\PSoC4/cyfitter_cfg.c **** 	{
 178              		.loc 1 176 0
 179 0058 1C2A     		cmp	r2, #28
 180 005a E4D1     		bne	.L10
 181              	.LVL15:
 182              	.LBE24:
 183              	.LBE26:
 335:Generated_Source\PSoC4/cyfitter_cfg.c **** 
 336:Generated_Source\PSoC4/cyfitter_cfg.c **** 	{
 337:Generated_Source\PSoC4/cyfitter_cfg.c **** 		static const uint32 CYCODE cy_cfg_addr_table[] = {
 338:Generated_Source\PSoC4/cyfitter_cfg.c **** 			0x400F303Bu, /* Base address: 0x400F3000 Count: 59 */
 339:Generated_Source\PSoC4/cyfitter_cfg.c **** 			0x400F311Eu, /* Base address: 0x400F3100 Count: 30 */
 340:Generated_Source\PSoC4/cyfitter_cfg.c **** 			0x400F3304u, /* Base address: 0x400F3300 Count: 4 */
 341:Generated_Source\PSoC4/cyfitter_cfg.c **** 			0x400F4003u, /* Base address: 0x400F4000 Count: 3 */
 342:Generated_Source\PSoC4/cyfitter_cfg.c **** 			0x400F4203u, /* Base address: 0x400F4200 Count: 3 */
 343:Generated_Source\PSoC4/cyfitter_cfg.c **** 			0x400F4305u, /* Base address: 0x400F4300 Count: 5 */
 344:Generated_Source\PSoC4/cyfitter_cfg.c **** 			0x400F6002u, /* Base address: 0x400F6000 Count: 2 */
 345:Generated_Source\PSoC4/cyfitter_cfg.c **** 		};
 346:Generated_Source\PSoC4/cyfitter_cfg.c **** 
 347:Generated_Source\PSoC4/cyfitter_cfg.c **** 		static const cy_cfg_addrvalue_t CYCODE cy_cfg_data_table[] = {
 348:Generated_Source\PSoC4/cyfitter_cfg.c **** 			{0x81u, 0x22u},
 349:Generated_Source\PSoC4/cyfitter_cfg.c **** 			{0x83u, 0xD9u},
 350:Generated_Source\PSoC4/cyfitter_cfg.c **** 			{0x85u, 0x8Du},
 351:Generated_Source\PSoC4/cyfitter_cfg.c **** 			{0x86u, 0x2Du},
 352:Generated_Source\PSoC4/cyfitter_cfg.c **** 			{0x87u, 0x40u},
 353:Generated_Source\PSoC4/cyfitter_cfg.c **** 			{0x88u, 0x01u},
 354:Generated_Source\PSoC4/cyfitter_cfg.c **** 			{0x8Au, 0x02u},
 355:Generated_Source\PSoC4/cyfitter_cfg.c **** 			{0x8Bu, 0x1Cu},
 356:Generated_Source\PSoC4/cyfitter_cfg.c **** 			{0x8Cu, 0x20u},
 357:Generated_Source\PSoC4/cyfitter_cfg.c **** 			{0x8Eu, 0x4Du},
 358:Generated_Source\PSoC4/cyfitter_cfg.c **** 			{0x94u, 0x04u},
 359:Generated_Source\PSoC4/cyfitter_cfg.c **** 			{0x95u, 0xDFu},
 360:Generated_Source\PSoC4/cyfitter_cfg.c **** 			{0x96u, 0x19u},
 361:Generated_Source\PSoC4/cyfitter_cfg.c **** 			{0x97u, 0x20u},
 362:Generated_Source\PSoC4/cyfitter_cfg.c **** 			{0x98u, 0x7Fu},
 363:Generated_Source\PSoC4/cyfitter_cfg.c **** 			{0x99u, 0x01u},
 364:Generated_Source\PSoC4/cyfitter_cfg.c **** 			{0x9Bu, 0x96u},
 365:Generated_Source\PSoC4/cyfitter_cfg.c **** 			{0x9Du, 0x04u},
 366:Generated_Source\PSoC4/cyfitter_cfg.c **** 			{0x9Fu, 0x98u},
 367:Generated_Source\PSoC4/cyfitter_cfg.c **** 			{0xA0u, 0x05u},
 368:Generated_Source\PSoC4/cyfitter_cfg.c **** 			{0xA2u, 0x28u},
 369:Generated_Source\PSoC4/cyfitter_cfg.c **** 			{0xA6u, 0x29u},
 370:Generated_Source\PSoC4/cyfitter_cfg.c **** 			{0xA8u, 0x2Du},
 371:Generated_Source\PSoC4/cyfitter_cfg.c **** 			{0xA9u, 0x80u},
 372:Generated_Source\PSoC4/cyfitter_cfg.c **** 			{0xAAu, 0x02u},
 373:Generated_Source\PSoC4/cyfitter_cfg.c **** 			{0xABu, 0x18u},
 374:Generated_Source\PSoC4/cyfitter_cfg.c **** 			{0xACu, 0x50u},
 375:Generated_Source\PSoC4/cyfitter_cfg.c **** 			{0xADu, 0x94u},
 376:Generated_Source\PSoC4/cyfitter_cfg.c **** 			{0xAEu, 0x27u},
 377:Generated_Source\PSoC4/cyfitter_cfg.c **** 			{0xAFu, 0x09u},
 378:Generated_Source\PSoC4/cyfitter_cfg.c **** 			{0xB1u, 0xA1u},
 379:Generated_Source\PSoC4/cyfitter_cfg.c **** 			{0xB2u, 0x1Cu},
ARM GAS  C:\Users\VIDEOH~1\AppData\Local\Temp\ccYiwsiB.s 			page 11


 380:Generated_Source\PSoC4/cyfitter_cfg.c **** 			{0xB3u, 0x0Fu},
 381:Generated_Source\PSoC4/cyfitter_cfg.c **** 			{0xB4u, 0x03u},
 382:Generated_Source\PSoC4/cyfitter_cfg.c **** 			{0xB5u, 0x70u},
 383:Generated_Source\PSoC4/cyfitter_cfg.c **** 			{0xB6u, 0x68u},
 384:Generated_Source\PSoC4/cyfitter_cfg.c **** 			{0xB8u, 0x02u},
 385:Generated_Source\PSoC4/cyfitter_cfg.c **** 			{0xB9u, 0x20u},
 386:Generated_Source\PSoC4/cyfitter_cfg.c **** 			{0xBAu, 0xA8u},
 387:Generated_Source\PSoC4/cyfitter_cfg.c **** 			{0xBBu, 0x08u},
 388:Generated_Source\PSoC4/cyfitter_cfg.c **** 			{0xBEu, 0x01u},
 389:Generated_Source\PSoC4/cyfitter_cfg.c **** 			{0xC0u, 0x13u},
 390:Generated_Source\PSoC4/cyfitter_cfg.c **** 			{0xC6u, 0x40u},
 391:Generated_Source\PSoC4/cyfitter_cfg.c **** 			{0xC7u, 0x02u},
 392:Generated_Source\PSoC4/cyfitter_cfg.c **** 			{0xC8u, 0x18u},
 393:Generated_Source\PSoC4/cyfitter_cfg.c **** 			{0xC9u, 0xFFu},
 394:Generated_Source\PSoC4/cyfitter_cfg.c **** 			{0xCAu, 0xFFu},
 395:Generated_Source\PSoC4/cyfitter_cfg.c **** 			{0xCBu, 0xFFu},
 396:Generated_Source\PSoC4/cyfitter_cfg.c **** 			{0xCDu, 0x10u},
 397:Generated_Source\PSoC4/cyfitter_cfg.c **** 			{0xD8u, 0x04u},
 398:Generated_Source\PSoC4/cyfitter_cfg.c **** 			{0xD9u, 0x04u},
 399:Generated_Source\PSoC4/cyfitter_cfg.c **** 			{0xDAu, 0x04u},
 400:Generated_Source\PSoC4/cyfitter_cfg.c **** 			{0xDBu, 0x04u},
 401:Generated_Source\PSoC4/cyfitter_cfg.c **** 			{0xDFu, 0x01u},
 402:Generated_Source\PSoC4/cyfitter_cfg.c **** 			{0xE0u, 0x80u},
 403:Generated_Source\PSoC4/cyfitter_cfg.c **** 			{0xE2u, 0x40u},
 404:Generated_Source\PSoC4/cyfitter_cfg.c **** 			{0xE3u, 0x40u},
 405:Generated_Source\PSoC4/cyfitter_cfg.c **** 			{0xE6u, 0x10u},
 406:Generated_Source\PSoC4/cyfitter_cfg.c **** 			{0xE7u, 0x84u},
 407:Generated_Source\PSoC4/cyfitter_cfg.c **** 			{0x05u, 0x50u},
 408:Generated_Source\PSoC4/cyfitter_cfg.c **** 			{0x07u, 0x20u},
 409:Generated_Source\PSoC4/cyfitter_cfg.c **** 			{0x0Du, 0x20u},
 410:Generated_Source\PSoC4/cyfitter_cfg.c **** 			{0x0Eu, 0x20u},
 411:Generated_Source\PSoC4/cyfitter_cfg.c **** 			{0x16u, 0xA8u},
 412:Generated_Source\PSoC4/cyfitter_cfg.c **** 			{0x17u, 0x82u},
 413:Generated_Source\PSoC4/cyfitter_cfg.c **** 			{0x1Du, 0x52u},
 414:Generated_Source\PSoC4/cyfitter_cfg.c **** 			{0x1Eu, 0x20u},
 415:Generated_Source\PSoC4/cyfitter_cfg.c **** 			{0x1Fu, 0x08u},
 416:Generated_Source\PSoC4/cyfitter_cfg.c **** 			{0x25u, 0x21u},
 417:Generated_Source\PSoC4/cyfitter_cfg.c **** 			{0x27u, 0xA8u},
 418:Generated_Source\PSoC4/cyfitter_cfg.c **** 			{0x2Eu, 0x80u},
 419:Generated_Source\PSoC4/cyfitter_cfg.c **** 			{0x2Fu, 0x08u},
 420:Generated_Source\PSoC4/cyfitter_cfg.c **** 			{0x35u, 0x40u},
 421:Generated_Source\PSoC4/cyfitter_cfg.c **** 			{0x37u, 0x28u},
 422:Generated_Source\PSoC4/cyfitter_cfg.c **** 			{0x3Du, 0x02u},
 423:Generated_Source\PSoC4/cyfitter_cfg.c **** 			{0x3Eu, 0x28u},
 424:Generated_Source\PSoC4/cyfitter_cfg.c **** 			{0x47u, 0x88u},
 425:Generated_Source\PSoC4/cyfitter_cfg.c **** 			{0x56u, 0x28u},
 426:Generated_Source\PSoC4/cyfitter_cfg.c **** 			{0x5Cu, 0x40u},
 427:Generated_Source\PSoC4/cyfitter_cfg.c **** 			{0x8Fu, 0x02u},
 428:Generated_Source\PSoC4/cyfitter_cfg.c **** 			{0xC0u, 0xE0u},
 429:Generated_Source\PSoC4/cyfitter_cfg.c **** 			{0xC2u, 0x60u},
 430:Generated_Source\PSoC4/cyfitter_cfg.c **** 			{0xC4u, 0xF0u},
 431:Generated_Source\PSoC4/cyfitter_cfg.c **** 			{0xCAu, 0x30u},
 432:Generated_Source\PSoC4/cyfitter_cfg.c **** 			{0xCCu, 0x70u},
 433:Generated_Source\PSoC4/cyfitter_cfg.c **** 			{0xCEu, 0xE0u},
 434:Generated_Source\PSoC4/cyfitter_cfg.c **** 			{0xD0u, 0x50u},
 435:Generated_Source\PSoC4/cyfitter_cfg.c **** 			{0xD6u, 0x10u},
 436:Generated_Source\PSoC4/cyfitter_cfg.c **** 			{0xE0u, 0x10u},
ARM GAS  C:\Users\VIDEOH~1\AppData\Local\Temp\ccYiwsiB.s 			page 12


 437:Generated_Source\PSoC4/cyfitter_cfg.c **** 			{0xA9u, 0x02u},
 438:Generated_Source\PSoC4/cyfitter_cfg.c **** 			{0xB4u, 0x40u},
 439:Generated_Source\PSoC4/cyfitter_cfg.c **** 			{0xB5u, 0x10u},
 440:Generated_Source\PSoC4/cyfitter_cfg.c **** 			{0xE8u, 0x01u},
 441:Generated_Source\PSoC4/cyfitter_cfg.c **** 			{0x03u, 0x08u},
 442:Generated_Source\PSoC4/cyfitter_cfg.c **** 			{0x8Fu, 0x08u},
 443:Generated_Source\PSoC4/cyfitter_cfg.c **** 			{0xC0u, 0x40u},
 444:Generated_Source\PSoC4/cyfitter_cfg.c **** 			{0x74u, 0x20u},
 445:Generated_Source\PSoC4/cyfitter_cfg.c **** 			{0x7Au, 0x02u},
 446:Generated_Source\PSoC4/cyfitter_cfg.c **** 			{0xDCu, 0x03u},
 447:Generated_Source\PSoC4/cyfitter_cfg.c **** 			{0x52u, 0x02u},
 448:Generated_Source\PSoC4/cyfitter_cfg.c **** 			{0xA2u, 0x02u},
 449:Generated_Source\PSoC4/cyfitter_cfg.c **** 			{0xA8u, 0x20u},
 450:Generated_Source\PSoC4/cyfitter_cfg.c **** 			{0xAAu, 0x02u},
 451:Generated_Source\PSoC4/cyfitter_cfg.c **** 			{0xD4u, 0x01u},
 452:Generated_Source\PSoC4/cyfitter_cfg.c **** 			{0x01u, 0x01u},
 453:Generated_Source\PSoC4/cyfitter_cfg.c **** 			{0x10u, 0x01u},
 454:Generated_Source\PSoC4/cyfitter_cfg.c **** 		};
 455:Generated_Source\PSoC4/cyfitter_cfg.c **** 
 456:Generated_Source\PSoC4/cyfitter_cfg.c **** 
 457:Generated_Source\PSoC4/cyfitter_cfg.c **** 
 458:Generated_Source\PSoC4/cyfitter_cfg.c **** 		CYPACKED typedef struct {
 459:Generated_Source\PSoC4/cyfitter_cfg.c **** 			void CYFAR *address;
 460:Generated_Source\PSoC4/cyfitter_cfg.c **** 			uint16 size;
 461:Generated_Source\PSoC4/cyfitter_cfg.c **** 		} CYPACKED_ATTR cfg_memset_t;
 462:Generated_Source\PSoC4/cyfitter_cfg.c **** 
 463:Generated_Source\PSoC4/cyfitter_cfg.c **** 		static const cfg_memset_t CYCODE cfg_memset_list[] = {
 464:Generated_Source\PSoC4/cyfitter_cfg.c **** 			/* address, size */
 465:Generated_Source\PSoC4/cyfitter_cfg.c **** 			{(void CYFAR *)(CYDEV_UDB_P0_U0_BASE), 1024u},
 466:Generated_Source\PSoC4/cyfitter_cfg.c **** 			{(void CYFAR *)(CYDEV_UDB_DSI0_BASE), 1024u},
 467:Generated_Source\PSoC4/cyfitter_cfg.c **** 		};
 468:Generated_Source\PSoC4/cyfitter_cfg.c **** 
 469:Generated_Source\PSoC4/cyfitter_cfg.c **** 		uint8 CYDATA i;
 470:Generated_Source\PSoC4/cyfitter_cfg.c **** 
 471:Generated_Source\PSoC4/cyfitter_cfg.c **** 		/* Zero out critical memory blocks before beginning configuration */
 472:Generated_Source\PSoC4/cyfitter_cfg.c **** 		for (i = 0u; i < (sizeof(cfg_memset_list)/sizeof(cfg_memset_list[0])); i++)
 473:Generated_Source\PSoC4/cyfitter_cfg.c **** 		{
 474:Generated_Source\PSoC4/cyfitter_cfg.c **** 			const cfg_memset_t CYCODE * CYDATA ms = &cfg_memset_list[i];
 475:Generated_Source\PSoC4/cyfitter_cfg.c **** 			CYMEMZERO(ms->address, (size_t)(uint32)(ms->size));
 476:Generated_Source\PSoC4/cyfitter_cfg.c **** 		}
 477:Generated_Source\PSoC4/cyfitter_cfg.c **** 
 478:Generated_Source\PSoC4/cyfitter_cfg.c **** 		cfg_write_bytes32(cy_cfg_addr_table, cy_cfg_data_table);
 479:Generated_Source\PSoC4/cyfitter_cfg.c **** 
 480:Generated_Source\PSoC4/cyfitter_cfg.c **** 		/* HSIOM Starting address: CYDEV_HSIOM_BASE */
 481:Generated_Source\PSoC4/cyfitter_cfg.c **** 		CY_SET_REG32((void *)(CYDEV_HSIOM_BASE), 0x00EE0000u);
 184              		.loc 1 481 0
 185 005c EE22     		movs	r2, #238
 186 005e 474B     		ldr	r3, .L13+12
 187 0060 1204     		lsls	r2, r2, #16
 188 0062 1A60     		str	r2, [r3]
 482:Generated_Source\PSoC4/cyfitter_cfg.c **** 		CY_SET_REG32((void *)(CYREG_HSIOM_PORT_SEL3), 0x0000EE76u);
 189              		.loc 1 482 0
 190 0064 464A     		ldr	r2, .L13+16
 191 0066 474B     		ldr	r3, .L13+20
 483:Generated_Source\PSoC4/cyfitter_cfg.c **** 		CY_SET_REG32((void *)(CYREG_HSIOM_PORT_SEL4), 0x00000099u);
 484:Generated_Source\PSoC4/cyfitter_cfg.c **** 
 485:Generated_Source\PSoC4/cyfitter_cfg.c **** 		/* UDB_PA_0 Starting address: CYDEV_UDB_PA0_BASE */
ARM GAS  C:\Users\VIDEOH~1\AppData\Local\Temp\ccYiwsiB.s 			page 13


 486:Generated_Source\PSoC4/cyfitter_cfg.c **** 		CY_SET_REG32((void *)(CYDEV_UDB_PA0_BASE), 0x00990000u);
 487:Generated_Source\PSoC4/cyfitter_cfg.c **** 
 488:Generated_Source\PSoC4/cyfitter_cfg.c **** 		/* UDB_PA_1 Starting address: CYDEV_UDB_PA1_BASE */
 489:Generated_Source\PSoC4/cyfitter_cfg.c **** 		CY_SET_REG32((void *)(CYDEV_UDB_PA1_BASE), 0x00990000u);
 490:Generated_Source\PSoC4/cyfitter_cfg.c **** 
 491:Generated_Source\PSoC4/cyfitter_cfg.c **** 		/* UDB_PA_2 Starting address: CYDEV_UDB_PA2_BASE */
 492:Generated_Source\PSoC4/cyfitter_cfg.c **** 		CY_SET_REG32((void *)(CYDEV_UDB_PA2_BASE), 0x00990000u);
 493:Generated_Source\PSoC4/cyfitter_cfg.c **** 
 494:Generated_Source\PSoC4/cyfitter_cfg.c **** 		/* UDB_PA_3 Starting address: CYDEV_UDB_PA3_BASE */
 495:Generated_Source\PSoC4/cyfitter_cfg.c **** 		CY_SET_REG32((void *)(CYDEV_UDB_PA3_BASE), 0x00990000u);
 496:Generated_Source\PSoC4/cyfitter_cfg.c **** 		CY_SET_REG32((void *)(CYREG_UDB_PA3_CFG8), 0x000A0000u);
 497:Generated_Source\PSoC4/cyfitter_cfg.c **** 
 498:Generated_Source\PSoC4/cyfitter_cfg.c **** 		/* Enable UDB array and digital routing */
 499:Generated_Source\PSoC4/cyfitter_cfg.c **** 		CY_SET_XTND_REG8((void *)CYREG_UDB_UDBIF_WAIT_CFG, (uint8)((CY_GET_XTND_REG8((void *)CYREG_UDB_UD
 192              		.loc 1 499 0
 193 0068 3C21     		movs	r1, #60
 482:Generated_Source\PSoC4/cyfitter_cfg.c **** 		CY_SET_REG32((void *)(CYREG_HSIOM_PORT_SEL3), 0x0000EE76u);
 194              		.loc 1 482 0
 195 006a 1A60     		str	r2, [r3]
 483:Generated_Source\PSoC4/cyfitter_cfg.c **** 		CY_SET_REG32((void *)(CYREG_HSIOM_PORT_SEL4), 0x00000099u);
 196              		.loc 1 483 0
 197 006c 9922     		movs	r2, #153
 198 006e 464B     		ldr	r3, .L13+24
 199              	.LBE14:
 200              	.LBB27:
 201              	.LBB28:
 212:Generated_Source\PSoC4/cyfitter_cfg.c **** 
 202              		.loc 1 212 0
 203 0070 464C     		ldr	r4, .L13+28
 204              	.LBE28:
 205              	.LBE27:
 206              	.LBB31:
 483:Generated_Source\PSoC4/cyfitter_cfg.c **** 		CY_SET_REG32((void *)(CYREG_HSIOM_PORT_SEL4), 0x00000099u);
 207              		.loc 1 483 0
 208 0072 1A60     		str	r2, [r3]
 486:Generated_Source\PSoC4/cyfitter_cfg.c **** 
 209              		.loc 1 486 0
 210 0074 9923     		movs	r3, #153
 211 0076 464A     		ldr	r2, .L13+32
 212 0078 1B04     		lsls	r3, r3, #16
 213 007a 1360     		str	r3, [r2]
 489:Generated_Source\PSoC4/cyfitter_cfg.c **** 
 214              		.loc 1 489 0
 215 007c 454A     		ldr	r2, .L13+36
 216              	.LBE31:
 217              	.LBB32:
 218              	.LBB29:
 215:Generated_Source\PSoC4/cyfitter_cfg.c **** 
 219              		.loc 1 215 0
 220 007e 1820     		movs	r0, #24
 221              	.LBE29:
 222              	.LBE32:
 223              	.LBB33:
 489:Generated_Source\PSoC4/cyfitter_cfg.c **** 
 224              		.loc 1 489 0
 225 0080 1360     		str	r3, [r2]
 492:Generated_Source\PSoC4/cyfitter_cfg.c **** 
ARM GAS  C:\Users\VIDEOH~1\AppData\Local\Temp\ccYiwsiB.s 			page 14


 226              		.loc 1 492 0
 227 0082 454A     		ldr	r2, .L13+40
 228              	.LBE33:
 500:Generated_Source\PSoC4/cyfitter_cfg.c **** 		CY_SET_XTND_REG8((void *)CYREG_UDB_UDBIF_BANK_CTL, (uint8)(CY_GET_XTND_REG8((void *)CYREG_UDB_UDB
 501:Generated_Source\PSoC4/cyfitter_cfg.c **** 	}
 502:Generated_Source\PSoC4/cyfitter_cfg.c **** 
 503:Generated_Source\PSoC4/cyfitter_cfg.c **** 	/* Perform second pass device configuration. These items must be configured in specific order afte
 504:Generated_Source\PSoC4/cyfitter_cfg.c **** 	/* IOPINS0_0 Starting address: CYDEV_PRT0_BASE */
 505:Generated_Source\PSoC4/cyfitter_cfg.c **** 	CY_SET_REG32((void *)(CYDEV_PRT0_BASE), 0x00000033u);
 506:Generated_Source\PSoC4/cyfitter_cfg.c **** 	CY_SET_REG32((void *)(CYREG_PRT0_PC), 0x00D24052u);
 507:Generated_Source\PSoC4/cyfitter_cfg.c **** 	CY_SET_REG32((void *)(CYREG_PRT0_INTCFG), 0x0000000Fu);
 508:Generated_Source\PSoC4/cyfitter_cfg.c **** 
 509:Generated_Source\PSoC4/cyfitter_cfg.c **** 	/* IOPINS0_1 Starting address: CYDEV_PRT1_BASE */
 510:Generated_Source\PSoC4/cyfitter_cfg.c **** 	CY_SET_REG32((void *)(CYDEV_PRT1_BASE), 0x0000002Bu);
 511:Generated_Source\PSoC4/cyfitter_cfg.c **** 	CY_SET_REG32((void *)(CYREG_PRT1_PC2), 0x000000AFu);
 512:Generated_Source\PSoC4/cyfitter_cfg.c **** 
 513:Generated_Source\PSoC4/cyfitter_cfg.c **** 	/* IOPINS0_2 Starting address: CYDEV_PRT2_BASE */
 514:Generated_Source\PSoC4/cyfitter_cfg.c **** 	CY_SET_REG32((void *)(CYDEV_PRT2_BASE), 0x0000001Eu);
 515:Generated_Source\PSoC4/cyfitter_cfg.c **** 	CY_SET_REG32((void *)(CYREG_PRT2_PC2), 0x0000001Eu);
 516:Generated_Source\PSoC4/cyfitter_cfg.c **** 
 517:Generated_Source\PSoC4/cyfitter_cfg.c **** 	/* IOPINS0_3 Starting address: CYDEV_PRT3_BASE */
 518:Generated_Source\PSoC4/cyfitter_cfg.c **** 	CY_SET_REG32((void *)(CYDEV_PRT3_BASE), 0x00000003u);
 519:Generated_Source\PSoC4/cyfitter_cfg.c **** 	CY_SET_REG32((void *)(CYREG_PRT3_PC), 0x00000D80u);
 520:Generated_Source\PSoC4/cyfitter_cfg.c **** 	CY_SET_REG32((void *)(CYREG_PRT3_PC2), 0x00000003u);
 521:Generated_Source\PSoC4/cyfitter_cfg.c **** 
 522:Generated_Source\PSoC4/cyfitter_cfg.c **** 	/* IOPINS0_4 Starting address: CYDEV_PRT4_BASE */
 523:Generated_Source\PSoC4/cyfitter_cfg.c **** 	CY_SET_REG32((void *)(CYDEV_PRT4_BASE), 0x0000000Au);
 524:Generated_Source\PSoC4/cyfitter_cfg.c **** 	CY_SET_REG32((void *)(CYREG_PRT4_PC), 0x000005B1u);
 525:Generated_Source\PSoC4/cyfitter_cfg.c **** 	CY_SET_REG32((void *)(CYREG_PRT4_PC2), 0x00000002u);
 526:Generated_Source\PSoC4/cyfitter_cfg.c **** 
 527:Generated_Source\PSoC4/cyfitter_cfg.c **** 
 528:Generated_Source\PSoC4/cyfitter_cfg.c **** 	/* Setup clocks based on selections from Clock DWR */
 529:Generated_Source\PSoC4/cyfitter_cfg.c **** 	ClockSetup();
 530:Generated_Source\PSoC4/cyfitter_cfg.c **** 
 531:Generated_Source\PSoC4/cyfitter_cfg.c **** 	/* Perform basic analog initialization to defaults */
 532:Generated_Source\PSoC4/cyfitter_cfg.c **** 	AnalogSetDefault();
 533:Generated_Source\PSoC4/cyfitter_cfg.c **** 
 534:Generated_Source\PSoC4/cyfitter_cfg.c **** }
 229              		.loc 1 534 0
 230              		@ sp needed
 231              	.LBB34:
 492:Generated_Source\PSoC4/cyfitter_cfg.c **** 
 232              		.loc 1 492 0
 233 0084 1360     		str	r3, [r2]
 495:Generated_Source\PSoC4/cyfitter_cfg.c **** 		CY_SET_REG32((void *)(CYREG_UDB_PA3_CFG8), 0x000A0000u);
 234              		.loc 1 495 0
 235 0086 454A     		ldr	r2, .L13+44
 236 0088 1360     		str	r3, [r2]
 496:Generated_Source\PSoC4/cyfitter_cfg.c **** 
 237              		.loc 1 496 0
 238 008a A022     		movs	r2, #160
 239 008c 444B     		ldr	r3, .L13+48
 240 008e 1203     		lsls	r2, r2, #12
 241 0090 1A60     		str	r2, [r3]
 499:Generated_Source\PSoC4/cyfitter_cfg.c **** 		CY_SET_XTND_REG8((void *)CYREG_UDB_UDBIF_BANK_CTL, (uint8)(CY_GET_XTND_REG8((void *)CYREG_UDB_UDB
 242              		.loc 1 499 0
 243 0092 444A     		ldr	r2, .L13+52
ARM GAS  C:\Users\VIDEOH~1\AppData\Local\Temp\ccYiwsiB.s 			page 15


 244 0094 1378     		ldrb	r3, [r2]
 245 0096 8B43     		bics	r3, r1
 246 0098 2839     		subs	r1, r1, #40
 247 009a 0B43     		orrs	r3, r1
 248 009c 1370     		strb	r3, [r2]
 500:Generated_Source\PSoC4/cyfitter_cfg.c **** 	}
 249              		.loc 1 500 0
 250 009e 424A     		ldr	r2, .L13+56
 251 00a0 0231     		adds	r1, r1, #2
 252 00a2 1378     		ldrb	r3, [r2]
 253 00a4 0B43     		orrs	r3, r1
 254 00a6 1370     		strb	r3, [r2]
 255              	.LBE34:
 505:Generated_Source\PSoC4/cyfitter_cfg.c **** 	CY_SET_REG32((void *)(CYREG_PRT0_PC), 0x00D24052u);
 256              		.loc 1 505 0
 257 00a8 3322     		movs	r2, #51
 258 00aa 404B     		ldr	r3, .L13+60
 519:Generated_Source\PSoC4/cyfitter_cfg.c **** 	CY_SET_REG32((void *)(CYREG_PRT3_PC2), 0x00000003u);
 259              		.loc 1 519 0
 260 00ac D821     		movs	r1, #216
 505:Generated_Source\PSoC4/cyfitter_cfg.c **** 	CY_SET_REG32((void *)(CYREG_PRT0_PC), 0x00D24052u);
 261              		.loc 1 505 0
 262 00ae 1A60     		str	r2, [r3]
 506:Generated_Source\PSoC4/cyfitter_cfg.c **** 	CY_SET_REG32((void *)(CYREG_PRT0_INTCFG), 0x0000000Fu);
 263              		.loc 1 506 0
 264 00b0 3F4A     		ldr	r2, .L13+64
 265 00b2 404B     		ldr	r3, .L13+68
 519:Generated_Source\PSoC4/cyfitter_cfg.c **** 	CY_SET_REG32((void *)(CYREG_PRT3_PC2), 0x00000003u);
 266              		.loc 1 519 0
 267 00b4 0901     		lsls	r1, r1, #4
 506:Generated_Source\PSoC4/cyfitter_cfg.c **** 	CY_SET_REG32((void *)(CYREG_PRT0_INTCFG), 0x0000000Fu);
 268              		.loc 1 506 0
 269 00b6 1A60     		str	r2, [r3]
 507:Generated_Source\PSoC4/cyfitter_cfg.c **** 
 270              		.loc 1 507 0
 271 00b8 0F22     		movs	r2, #15
 272 00ba 3F4B     		ldr	r3, .L13+72
 273 00bc 1A60     		str	r2, [r3]
 510:Generated_Source\PSoC4/cyfitter_cfg.c **** 	CY_SET_REG32((void *)(CYREG_PRT1_PC2), 0x000000AFu);
 274              		.loc 1 510 0
 275 00be 3F4B     		ldr	r3, .L13+76
 276 00c0 1C32     		adds	r2, r2, #28
 277 00c2 1A60     		str	r2, [r3]
 511:Generated_Source\PSoC4/cyfitter_cfg.c **** 
 278              		.loc 1 511 0
 279 00c4 3E4B     		ldr	r3, .L13+80
 280 00c6 8432     		adds	r2, r2, #132
 281 00c8 1A60     		str	r2, [r3]
 514:Generated_Source\PSoC4/cyfitter_cfg.c **** 	CY_SET_REG32((void *)(CYREG_PRT2_PC2), 0x0000001Eu);
 282              		.loc 1 514 0
 283 00ca 1E23     		movs	r3, #30
 284 00cc 3D4A     		ldr	r2, .L13+84
 285 00ce 1360     		str	r3, [r2]
 515:Generated_Source\PSoC4/cyfitter_cfg.c **** 
 286              		.loc 1 515 0
 287 00d0 3D4A     		ldr	r2, .L13+88
 288 00d2 1360     		str	r3, [r2]
ARM GAS  C:\Users\VIDEOH~1\AppData\Local\Temp\ccYiwsiB.s 			page 16


 518:Generated_Source\PSoC4/cyfitter_cfg.c **** 	CY_SET_REG32((void *)(CYREG_PRT3_PC), 0x00000D80u);
 289              		.loc 1 518 0
 290 00d4 3D4A     		ldr	r2, .L13+92
 291 00d6 1B3B     		subs	r3, r3, #27
 292 00d8 1360     		str	r3, [r2]
 519:Generated_Source\PSoC4/cyfitter_cfg.c **** 	CY_SET_REG32((void *)(CYREG_PRT3_PC2), 0x00000003u);
 293              		.loc 1 519 0
 294 00da 3D4A     		ldr	r2, .L13+96
 295 00dc 1160     		str	r1, [r2]
 520:Generated_Source\PSoC4/cyfitter_cfg.c **** 
 296              		.loc 1 520 0
 297 00de 3D4A     		ldr	r2, .L13+100
 298 00e0 1360     		str	r3, [r2]
 523:Generated_Source\PSoC4/cyfitter_cfg.c **** 	CY_SET_REG32((void *)(CYREG_PRT4_PC), 0x000005B1u);
 299              		.loc 1 523 0
 300 00e2 0A22     		movs	r2, #10
 301 00e4 3C4B     		ldr	r3, .L13+104
 302 00e6 1A60     		str	r2, [r3]
 524:Generated_Source\PSoC4/cyfitter_cfg.c **** 	CY_SET_REG32((void *)(CYREG_PRT4_PC2), 0x00000002u);
 303              		.loc 1 524 0
 304 00e8 3C4A     		ldr	r2, .L13+108
 305 00ea 3D4B     		ldr	r3, .L13+112
 306 00ec 1A60     		str	r2, [r3]
 525:Generated_Source\PSoC4/cyfitter_cfg.c **** 
 307              		.loc 1 525 0
 308 00ee 0222     		movs	r2, #2
 309 00f0 3C4B     		ldr	r3, .L13+116
 310 00f2 1A60     		str	r2, [r3]
 311              	.LBB35:
 312              	.LBB30:
 212:Generated_Source\PSoC4/cyfitter_cfg.c **** 
 313              		.loc 1 212 0
 314 00f4 8022     		movs	r2, #128
 315 00f6 2368     		ldr	r3, [r4]
 316 00f8 D202     		lsls	r2, r2, #11
 317 00fa 1343     		orrs	r3, r2
 318 00fc 2360     		str	r3, [r4]
 215:Generated_Source\PSoC4/cyfitter_cfg.c **** 
 319              		.loc 1 215 0
 320 00fe FFF7FEFF 		bl	CySysClkWriteImoFreq
 321              	.LVL16:
 218:Generated_Source\PSoC4/cyfitter_cfg.c **** 	/* CYDEV_CLK_ILO_CONFIG Starting address: CYDEV_CLK_ILO_CONFIG */
 322              		.loc 1 218 0
 323 0102 2268     		ldr	r2, [r4]
 324 0104 384B     		ldr	r3, .L13+120
 236:Generated_Source\PSoC4/cyfitter_cfg.c **** 
 325              		.loc 1 236 0
 326 0106 3949     		ldr	r1, .L13+124
 218:Generated_Source\PSoC4/cyfitter_cfg.c **** 	/* CYDEV_CLK_ILO_CONFIG Starting address: CYDEV_CLK_ILO_CONFIG */
 327              		.loc 1 218 0
 328 0108 1340     		ands	r3, r2
 329 010a 2360     		str	r3, [r4]
 220:Generated_Source\PSoC4/cyfitter_cfg.c **** 
 330              		.loc 1 220 0
 331 010c 384A     		ldr	r2, .L13+128
 332 010e 394B     		ldr	r3, .L13+132
 333 0110 1A60     		str	r2, [r3]
ARM GAS  C:\Users\VIDEOH~1\AppData\Local\Temp\ccYiwsiB.s 			page 17


 224:Generated_Source\PSoC4/cyfitter_cfg.c **** 	CY_SET_REG32((void *)(CYREG_CLK_SELECT03), 0x00000010u);
 334              		.loc 1 224 0
 335 0112 1322     		movs	r2, #19
 336 0114 384B     		ldr	r3, .L13+136
 337 0116 1A60     		str	r2, [r3]
 225:Generated_Source\PSoC4/cyfitter_cfg.c **** 	CY_SET_REG32((void *)(CYREG_CLK_SELECT07), 0x00000020u);
 338              		.loc 1 225 0
 339 0118 384B     		ldr	r3, .L13+140
 340 011a 033A     		subs	r2, r2, #3
 341 011c 1A60     		str	r2, [r3]
 226:Generated_Source\PSoC4/cyfitter_cfg.c **** 	CY_SET_REG32((void *)(CYREG_CLK_SELECT12), 0x00000030u);
 342              		.loc 1 226 0
 343 011e 384B     		ldr	r3, .L13+144
 344 0120 1032     		adds	r2, r2, #16
 345 0122 1A60     		str	r2, [r3]
 227:Generated_Source\PSoC4/cyfitter_cfg.c **** 
 346              		.loc 1 227 0
 347 0124 374B     		ldr	r3, .L13+148
 348 0126 1032     		adds	r2, r2, #16
 349 0128 1A60     		str	r2, [r3]
 230:Generated_Source\PSoC4/cyfitter_cfg.c **** 
 350              		.loc 1 230 0
 351 012a 8222     		movs	r2, #130
 352 012c 364B     		ldr	r3, .L13+152
 353 012e 1206     		lsls	r2, r2, #24
 354 0130 1A60     		str	r2, [r3]
 233:Generated_Source\PSoC4/cyfitter_cfg.c **** 
 355              		.loc 1 233 0
 356 0132 0023     		movs	r3, #0
 236:Generated_Source\PSoC4/cyfitter_cfg.c **** 
 357              		.loc 1 236 0
 358 0134 354A     		ldr	r2, .L13+156
 233:Generated_Source\PSoC4/cyfitter_cfg.c **** 
 359              		.loc 1 233 0
 360 0136 2360     		str	r3, [r4]
 236:Generated_Source\PSoC4/cyfitter_cfg.c **** 
 361              		.loc 1 236 0
 362 0138 1160     		str	r1, [r2]
 239:Generated_Source\PSoC4/cyfitter_cfg.c **** 
 363              		.loc 1 239 0
 364 013a 3549     		ldr	r1, .L13+160
 365 013c 354A     		ldr	r2, .L13+164
 366 013e 1160     		str	r1, [r2]
 242:Generated_Source\PSoC4/cyfitter_cfg.c **** 
 367              		.loc 1 242 0
 368 0140 3549     		ldr	r1, .L13+168
 369 0142 364A     		ldr	r2, .L13+172
 370 0144 1160     		str	r1, [r2]
 245:Generated_Source\PSoC4/cyfitter_cfg.c **** 
 371              		.loc 1 245 0
 372 0146 3649     		ldr	r1, .L13+176
 373 0148 364A     		ldr	r2, .L13+180
 374 014a 1160     		str	r1, [r2]
 247:Generated_Source\PSoC4/cyfitter_cfg.c **** }
 375              		.loc 1 247 0
 376 014c 364A     		ldr	r2, .L13+184
 377 014e 1360     		str	r3, [r2]
ARM GAS  C:\Users\VIDEOH~1\AppData\Local\Temp\ccYiwsiB.s 			page 18


 378              	.LBE30:
 379              	.LBE35:
 380              	.LBB36:
 381              	.LBB37:
 272:Generated_Source\PSoC4/cyfitter_cfg.c **** 	CY_SET_XTND_REG32((void CYFAR *)CYREG_CTBM_OA1_SW, 0x00204002u);
 382              		.loc 1 272 0
 383 0150 364A     		ldr	r2, .L13+188
 384 0152 374B     		ldr	r3, .L13+192
 385 0154 1A60     		str	r2, [r3]
 273:Generated_Source\PSoC4/cyfitter_cfg.c **** 	CY_SET_XTND_REG32((void CYFAR *)CYREG_CTBM_CTB_SW_HW_CTRL, 0x00000004u);
 386              		.loc 1 273 0
 387 0156 374A     		ldr	r2, .L13+196
 388 0158 374B     		ldr	r3, .L13+200
 389 015a 1A60     		str	r2, [r3]
 274:Generated_Source\PSoC4/cyfitter_cfg.c **** 	CY_SET_XTND_REG32((void CYFAR *)CYREG_SAR_MUX_SWITCH0, 0x0040001Eu);
 390              		.loc 1 274 0
 391 015c 0422     		movs	r2, #4
 392 015e 374B     		ldr	r3, .L13+204
 393 0160 1A60     		str	r2, [r3]
 275:Generated_Source\PSoC4/cyfitter_cfg.c **** 	CY_SET_XTND_REG32((void CYFAR *)CYREG_SAR_MUX_SWITCH_HW_CTRL, 0x0040001Eu);
 394              		.loc 1 275 0
 395 0162 374B     		ldr	r3, .L13+208
 396 0164 374A     		ldr	r2, .L13+212
 397 0166 1360     		str	r3, [r2]
 276:Generated_Source\PSoC4/cyfitter_cfg.c **** 	/* Variable VDDA is selected; no pumps are enabled by default */
 398              		.loc 1 276 0
 399 0168 374A     		ldr	r2, .L13+216
 400 016a 1360     		str	r3, [r2]
 401              	.LBE37:
 402              	.LBE36:
 403              		.loc 1 534 0
 404 016c F7BD     		pop	{r0, r1, r2, r4, r5, r6, r7, pc}
 405              	.L14:
 406 016e C046     		.align	2
 407              	.L13:
 408 0170 00300F40 		.word	1074737152
 409 0174 00400F40 		.word	1074741248
 410 0178 00000000 		.word	.LANCHOR0
 411 017c 00000140 		.word	1073807360
 412 0180 76EE0000 		.word	61046
 413 0184 0C000140 		.word	1073807372
 414 0188 10000140 		.word	1073807376
 415 018c 00010B40 		.word	1074462976
 416 0190 00500F40 		.word	1074745344
 417 0194 10500F40 		.word	1074745360
 418 0198 20500F40 		.word	1074745376
 419 019c 30500F40 		.word	1074745392
 420 01a0 38500F40 		.word	1074745400
 421 01a4 01700F40 		.word	1074753537
 422 01a8 00700F40 		.word	1074753536
 423 01ac 00000440 		.word	1074003968
 424 01b0 5240D200 		.word	13779026
 425 01b4 08000440 		.word	1074003976
 426 01b8 0C000440 		.word	1074003980
 427 01bc 00010440 		.word	1074004224
 428 01c0 18010440 		.word	1074004248
 429 01c4 00020440 		.word	1074004480
ARM GAS  C:\Users\VIDEOH~1\AppData\Local\Temp\ccYiwsiB.s 			page 19


 430 01c8 18020440 		.word	1074004504
 431 01cc 00030440 		.word	1074004736
 432 01d0 08030440 		.word	1074004744
 433 01d4 18030440 		.word	1074004760
 434 01d8 00040440 		.word	1074004992
 435 01dc B1050000 		.word	1457
 436 01e0 08040440 		.word	1074005000
 437 01e4 18040440 		.word	1074005016
 438 01e8 FFFFFBFF 		.word	-262145
 439 01ec 02000080 		.word	-2147483646
 440 01f0 06000080 		.word	-2147483642
 441 01f4 04010B40 		.word	1074462980
 442 01f8 08020240 		.word	1073873416
 443 01fc 0C020240 		.word	1073873420
 444 0200 1C020240 		.word	1073873436
 445 0204 30020240 		.word	1073873456
 446 0208 08010B40 		.word	1074462984
 447 020c 00000240 		.word	1073872896
 448 0210 0D000080 		.word	-2147483635
 449 0214 40000240 		.word	1073872960
 450 0218 6F170080 		.word	-2147477649
 451 021c 80000240 		.word	1073873024
 452 0220 10000C80 		.word	-2146697200
 453 0224 00010240 		.word	1073873152
 454 0228 0C020B40 		.word	1074463244
 455 022c 04012400 		.word	2359556
 456 0230 80001040 		.word	1074790528
 457 0234 02402000 		.word	2113538
 458 0238 88001040 		.word	1074790536
 459 023c C0001040 		.word	1074790592
 460 0240 1E004000 		.word	4194334
 461 0244 00031A40 		.word	1075446528
 462 0248 40031A40 		.word	1075446592
 463              		.cfi_endproc
 464              	.LFE7:
 465              		.size	cyfitter_cfg, .-cyfitter_cfg
 466              		.section	.rodata
 467              		.align	2
 468              		.set	.LANCHOR0,. + 0
 469              		.type	cy_cfg_addr_table.4866, %object
 470              		.size	cy_cfg_addr_table.4866, 28
 471              	cy_cfg_addr_table.4866:
 472 0000 3B300F40 		.word	1074737211
 473 0004 1E310F40 		.word	1074737438
 474 0008 04330F40 		.word	1074737924
 475 000c 03400F40 		.word	1074741251
 476 0010 03420F40 		.word	1074741763
 477 0014 05430F40 		.word	1074742021
 478 0018 02600F40 		.word	1074749442
 479              		.type	cy_cfg_data_table.4867, %object
 480              		.size	cy_cfg_data_table.4867, 212
 481              	cy_cfg_data_table.4867:
 482 001c 81       		.byte	-127
 483 001d 22       		.byte	34
 484 001e 83       		.byte	-125
 485 001f D9       		.byte	-39
 486 0020 85       		.byte	-123
ARM GAS  C:\Users\VIDEOH~1\AppData\Local\Temp\ccYiwsiB.s 			page 20


 487 0021 8D       		.byte	-115
 488 0022 86       		.byte	-122
 489 0023 2D       		.byte	45
 490 0024 87       		.byte	-121
 491 0025 40       		.byte	64
 492 0026 88       		.byte	-120
 493 0027 01       		.byte	1
 494 0028 8A       		.byte	-118
 495 0029 02       		.byte	2
 496 002a 8B       		.byte	-117
 497 002b 1C       		.byte	28
 498 002c 8C       		.byte	-116
 499 002d 20       		.byte	32
 500 002e 8E       		.byte	-114
 501 002f 4D       		.byte	77
 502 0030 94       		.byte	-108
 503 0031 04       		.byte	4
 504 0032 95       		.byte	-107
 505 0033 DF       		.byte	-33
 506 0034 96       		.byte	-106
 507 0035 19       		.byte	25
 508 0036 97       		.byte	-105
 509 0037 20       		.byte	32
 510 0038 98       		.byte	-104
 511 0039 7F       		.byte	127
 512 003a 99       		.byte	-103
 513 003b 01       		.byte	1
 514 003c 9B       		.byte	-101
 515 003d 96       		.byte	-106
 516 003e 9D       		.byte	-99
 517 003f 04       		.byte	4
 518 0040 9F       		.byte	-97
 519 0041 98       		.byte	-104
 520 0042 A0       		.byte	-96
 521 0043 05       		.byte	5
 522 0044 A2       		.byte	-94
 523 0045 28       		.byte	40
 524 0046 A6       		.byte	-90
 525 0047 29       		.byte	41
 526 0048 A8       		.byte	-88
 527 0049 2D       		.byte	45
 528 004a A9       		.byte	-87
 529 004b 80       		.byte	-128
 530 004c AA       		.byte	-86
 531 004d 02       		.byte	2
 532 004e AB       		.byte	-85
 533 004f 18       		.byte	24
 534 0050 AC       		.byte	-84
 535 0051 50       		.byte	80
 536 0052 AD       		.byte	-83
 537 0053 94       		.byte	-108
 538 0054 AE       		.byte	-82
 539 0055 27       		.byte	39
 540 0056 AF       		.byte	-81
 541 0057 09       		.byte	9
 542 0058 B1       		.byte	-79
 543 0059 A1       		.byte	-95
ARM GAS  C:\Users\VIDEOH~1\AppData\Local\Temp\ccYiwsiB.s 			page 21


 544 005a B2       		.byte	-78
 545 005b 1C       		.byte	28
 546 005c B3       		.byte	-77
 547 005d 0F       		.byte	15
 548 005e B4       		.byte	-76
 549 005f 03       		.byte	3
 550 0060 B5       		.byte	-75
 551 0061 70       		.byte	112
 552 0062 B6       		.byte	-74
 553 0063 68       		.byte	104
 554 0064 B8       		.byte	-72
 555 0065 02       		.byte	2
 556 0066 B9       		.byte	-71
 557 0067 20       		.byte	32
 558 0068 BA       		.byte	-70
 559 0069 A8       		.byte	-88
 560 006a BB       		.byte	-69
 561 006b 08       		.byte	8
 562 006c BE       		.byte	-66
 563 006d 01       		.byte	1
 564 006e C0       		.byte	-64
 565 006f 13       		.byte	19
 566 0070 C6       		.byte	-58
 567 0071 40       		.byte	64
 568 0072 C7       		.byte	-57
 569 0073 02       		.byte	2
 570 0074 C8       		.byte	-56
 571 0075 18       		.byte	24
 572 0076 C9       		.byte	-55
 573 0077 FF       		.byte	-1
 574 0078 CA       		.byte	-54
 575 0079 FF       		.byte	-1
 576 007a CB       		.byte	-53
 577 007b FF       		.byte	-1
 578 007c CD       		.byte	-51
 579 007d 10       		.byte	16
 580 007e D8       		.byte	-40
 581 007f 04       		.byte	4
 582 0080 D9       		.byte	-39
 583 0081 04       		.byte	4
 584 0082 DA       		.byte	-38
 585 0083 04       		.byte	4
 586 0084 DB       		.byte	-37
 587 0085 04       		.byte	4
 588 0086 DF       		.byte	-33
 589 0087 01       		.byte	1
 590 0088 E0       		.byte	-32
 591 0089 80       		.byte	-128
 592 008a E2       		.byte	-30
 593 008b 40       		.byte	64
 594 008c E3       		.byte	-29
 595 008d 40       		.byte	64
 596 008e E6       		.byte	-26
 597 008f 10       		.byte	16
 598 0090 E7       		.byte	-25
 599 0091 84       		.byte	-124
 600 0092 05       		.byte	5
ARM GAS  C:\Users\VIDEOH~1\AppData\Local\Temp\ccYiwsiB.s 			page 22


 601 0093 50       		.byte	80
 602 0094 07       		.byte	7
 603 0095 20       		.byte	32
 604 0096 0D       		.byte	13
 605 0097 20       		.byte	32
 606 0098 0E       		.byte	14
 607 0099 20       		.byte	32
 608 009a 16       		.byte	22
 609 009b A8       		.byte	-88
 610 009c 17       		.byte	23
 611 009d 82       		.byte	-126
 612 009e 1D       		.byte	29
 613 009f 52       		.byte	82
 614 00a0 1E       		.byte	30
 615 00a1 20       		.byte	32
 616 00a2 1F       		.byte	31
 617 00a3 08       		.byte	8
 618 00a4 25       		.byte	37
 619 00a5 21       		.byte	33
 620 00a6 27       		.byte	39
 621 00a7 A8       		.byte	-88
 622 00a8 2E       		.byte	46
 623 00a9 80       		.byte	-128
 624 00aa 2F       		.byte	47
 625 00ab 08       		.byte	8
 626 00ac 35       		.byte	53
 627 00ad 40       		.byte	64
 628 00ae 37       		.byte	55
 629 00af 28       		.byte	40
 630 00b0 3D       		.byte	61
 631 00b1 02       		.byte	2
 632 00b2 3E       		.byte	62
 633 00b3 28       		.byte	40
 634 00b4 47       		.byte	71
 635 00b5 88       		.byte	-120
 636 00b6 56       		.byte	86
 637 00b7 28       		.byte	40
 638 00b8 5C       		.byte	92
 639 00b9 40       		.byte	64
 640 00ba 8F       		.byte	-113
 641 00bb 02       		.byte	2
 642 00bc C0       		.byte	-64
 643 00bd E0       		.byte	-32
 644 00be C2       		.byte	-62
 645 00bf 60       		.byte	96
 646 00c0 C4       		.byte	-60
 647 00c1 F0       		.byte	-16
 648 00c2 CA       		.byte	-54
 649 00c3 30       		.byte	48
 650 00c4 CC       		.byte	-52
 651 00c5 70       		.byte	112
 652 00c6 CE       		.byte	-50
 653 00c7 E0       		.byte	-32
 654 00c8 D0       		.byte	-48
 655 00c9 50       		.byte	80
 656 00ca D6       		.byte	-42
 657 00cb 10       		.byte	16
ARM GAS  C:\Users\VIDEOH~1\AppData\Local\Temp\ccYiwsiB.s 			page 23


 658 00cc E0       		.byte	-32
 659 00cd 10       		.byte	16
 660 00ce A9       		.byte	-87
 661 00cf 02       		.byte	2
 662 00d0 B4       		.byte	-76
 663 00d1 40       		.byte	64
 664 00d2 B5       		.byte	-75
 665 00d3 10       		.byte	16
 666 00d4 E8       		.byte	-24
 667 00d5 01       		.byte	1
 668 00d6 03       		.byte	3
 669 00d7 08       		.byte	8
 670 00d8 8F       		.byte	-113
 671 00d9 08       		.byte	8
 672 00da C0       		.byte	-64
 673 00db 40       		.byte	64
 674 00dc 74       		.byte	116
 675 00dd 20       		.byte	32
 676 00de 7A       		.byte	122
 677 00df 02       		.byte	2
 678 00e0 DC       		.byte	-36
 679 00e1 03       		.byte	3
 680 00e2 52       		.byte	82
 681 00e3 02       		.byte	2
 682 00e4 A2       		.byte	-94
 683 00e5 02       		.byte	2
 684 00e6 A8       		.byte	-88
 685 00e7 20       		.byte	32
 686 00e8 AA       		.byte	-86
 687 00e9 02       		.byte	2
 688 00ea D4       		.byte	-44
 689 00eb 01       		.byte	1
 690 00ec 01       		.byte	1
 691 00ed 01       		.byte	1
 692 00ee 10       		.byte	16
 693 00ef 01       		.byte	1
 694              		.text
 695              	.Letext0:
 696              		.file 2 "c:\\program files (x86)\\cypress\\psoc creator\\4.2\\psoc creator\\import\\gnu\\arm\\5.4.
 697              		.file 3 "Generated_Source\\PSoC4\\cytypes.h"
 698              		.file 4 "Generated_Source\\PSoC4\\CyLib.h"