ARM GAS  C:\Users\VIDEOH~1\AppData\Local\Temp\ccFUQIqa.s 			page 1


   1              		.syntax unified
   2              		.cpu cortex-m0
   3              		.fpu softvfp
   4              		.eabi_attribute 20, 1
   5              		.eabi_attribute 21, 1
   6              		.eabi_attribute 23, 3
   7              		.eabi_attribute 24, 1
   8              		.eabi_attribute 25, 1
   9              		.eabi_attribute 26, 1
  10              		.eabi_attribute 30, 4
  11              		.eabi_attribute 34, 0
  12              		.eabi_attribute 18, 4
  13              		.thumb
  14              		.syntax unified
  15              		.file	"Display_I2C_PM.c"
  16              		.text
  17              	.Ltext0:
  18              		.cfi_sections	.debug_frame
  19              		.section	.text.Display_I2C_Sleep,"ax",%progbits
  20              		.align	1
  21              		.global	Display_I2C_Sleep
  22              		.code	16
  23              		.thumb_func
  24              		.type	Display_I2C_Sleep, %function
  25              	Display_I2C_Sleep:
  26              	.LFB0:
  27              		.file 1 "Generated_Source\\PSoC4\\Display_I2C_PM.c"
   1:Generated_Source\PSoC4/Display_I2C_PM.c **** /***************************************************************************//**
   2:Generated_Source\PSoC4/Display_I2C_PM.c **** * \file Display_I2C_PM.c
   3:Generated_Source\PSoC4/Display_I2C_PM.c **** * \version 4.0
   4:Generated_Source\PSoC4/Display_I2C_PM.c **** *
   5:Generated_Source\PSoC4/Display_I2C_PM.c **** * \brief
   6:Generated_Source\PSoC4/Display_I2C_PM.c **** *  This file provides the source code to the Power Management support for
   7:Generated_Source\PSoC4/Display_I2C_PM.c **** *  the SCB Component.
   8:Generated_Source\PSoC4/Display_I2C_PM.c **** *
   9:Generated_Source\PSoC4/Display_I2C_PM.c **** * Note:
  10:Generated_Source\PSoC4/Display_I2C_PM.c **** *
  11:Generated_Source\PSoC4/Display_I2C_PM.c **** ********************************************************************************
  12:Generated_Source\PSoC4/Display_I2C_PM.c **** * \copyright
  13:Generated_Source\PSoC4/Display_I2C_PM.c **** * Copyright 2013-2017, Cypress Semiconductor Corporation.  All rights reserved.
  14:Generated_Source\PSoC4/Display_I2C_PM.c **** * You may use this file only in accordance with the license, terms, conditions,
  15:Generated_Source\PSoC4/Display_I2C_PM.c **** * disclaimers, and limitations in the end user license agreement accompanying
  16:Generated_Source\PSoC4/Display_I2C_PM.c **** * the software package with which this file was provided.
  17:Generated_Source\PSoC4/Display_I2C_PM.c **** *******************************************************************************/
  18:Generated_Source\PSoC4/Display_I2C_PM.c **** 
  19:Generated_Source\PSoC4/Display_I2C_PM.c **** #include "Display_I2C.h"
  20:Generated_Source\PSoC4/Display_I2C_PM.c **** #include "Display_I2C_PVT.h"
  21:Generated_Source\PSoC4/Display_I2C_PM.c **** 
  22:Generated_Source\PSoC4/Display_I2C_PM.c **** #if(Display_I2C_SCB_MODE_I2C_INC)
  23:Generated_Source\PSoC4/Display_I2C_PM.c ****     #include "Display_I2C_I2C_PVT.h"
  24:Generated_Source\PSoC4/Display_I2C_PM.c **** #endif /* (Display_I2C_SCB_MODE_I2C_INC) */
  25:Generated_Source\PSoC4/Display_I2C_PM.c **** 
  26:Generated_Source\PSoC4/Display_I2C_PM.c **** #if(Display_I2C_SCB_MODE_EZI2C_INC)
  27:Generated_Source\PSoC4/Display_I2C_PM.c ****     #include "Display_I2C_EZI2C_PVT.h"
  28:Generated_Source\PSoC4/Display_I2C_PM.c **** #endif /* (Display_I2C_SCB_MODE_EZI2C_INC) */
  29:Generated_Source\PSoC4/Display_I2C_PM.c **** 
  30:Generated_Source\PSoC4/Display_I2C_PM.c **** #if(Display_I2C_SCB_MODE_SPI_INC || Display_I2C_SCB_MODE_UART_INC)
ARM GAS  C:\Users\VIDEOH~1\AppData\Local\Temp\ccFUQIqa.s 			page 2


  31:Generated_Source\PSoC4/Display_I2C_PM.c ****     #include "Display_I2C_SPI_UART_PVT.h"
  32:Generated_Source\PSoC4/Display_I2C_PM.c **** #endif /* (Display_I2C_SCB_MODE_SPI_INC || Display_I2C_SCB_MODE_UART_INC) */
  33:Generated_Source\PSoC4/Display_I2C_PM.c **** 
  34:Generated_Source\PSoC4/Display_I2C_PM.c **** 
  35:Generated_Source\PSoC4/Display_I2C_PM.c **** /***************************************
  36:Generated_Source\PSoC4/Display_I2C_PM.c **** *   Backup Structure declaration
  37:Generated_Source\PSoC4/Display_I2C_PM.c **** ***************************************/
  38:Generated_Source\PSoC4/Display_I2C_PM.c **** 
  39:Generated_Source\PSoC4/Display_I2C_PM.c **** #if(Display_I2C_SCB_MODE_UNCONFIG_CONST_CFG || \
  40:Generated_Source\PSoC4/Display_I2C_PM.c ****    (Display_I2C_SCB_MODE_I2C_CONST_CFG   && (!Display_I2C_I2C_WAKE_ENABLE_CONST))   || \
  41:Generated_Source\PSoC4/Display_I2C_PM.c ****    (Display_I2C_SCB_MODE_EZI2C_CONST_CFG && (!Display_I2C_EZI2C_WAKE_ENABLE_CONST)) || \
  42:Generated_Source\PSoC4/Display_I2C_PM.c ****    (Display_I2C_SCB_MODE_SPI_CONST_CFG   && (!Display_I2C_SPI_WAKE_ENABLE_CONST))   || \
  43:Generated_Source\PSoC4/Display_I2C_PM.c ****    (Display_I2C_SCB_MODE_UART_CONST_CFG  && (!Display_I2C_UART_WAKE_ENABLE_CONST)))
  44:Generated_Source\PSoC4/Display_I2C_PM.c **** 
  45:Generated_Source\PSoC4/Display_I2C_PM.c ****     Display_I2C_BACKUP_STRUCT Display_I2C_backup =
  46:Generated_Source\PSoC4/Display_I2C_PM.c ****     {
  47:Generated_Source\PSoC4/Display_I2C_PM.c ****         0u, /* enableState */
  48:Generated_Source\PSoC4/Display_I2C_PM.c ****     };
  49:Generated_Source\PSoC4/Display_I2C_PM.c **** #endif
  50:Generated_Source\PSoC4/Display_I2C_PM.c **** 
  51:Generated_Source\PSoC4/Display_I2C_PM.c **** 
  52:Generated_Source\PSoC4/Display_I2C_PM.c **** /*******************************************************************************
  53:Generated_Source\PSoC4/Display_I2C_PM.c **** * Function Name: Display_I2C_Sleep
  54:Generated_Source\PSoC4/Display_I2C_PM.c **** ****************************************************************************//**
  55:Generated_Source\PSoC4/Display_I2C_PM.c **** *
  56:Generated_Source\PSoC4/Display_I2C_PM.c **** *  Prepares the Display_I2C component to enter Deep Sleep.
  57:Generated_Source\PSoC4/Display_I2C_PM.c **** *  The “Enable wakeup from Deep Sleep Mode” selection has an influence on this 
  58:Generated_Source\PSoC4/Display_I2C_PM.c **** *  function implementation:
  59:Generated_Source\PSoC4/Display_I2C_PM.c **** *  - Checked: configures the component to be wakeup source from Deep Sleep.
  60:Generated_Source\PSoC4/Display_I2C_PM.c **** *  - Unchecked: stores the current component state (enabled or disabled) and 
  61:Generated_Source\PSoC4/Display_I2C_PM.c **** *    disables the component. See SCB_Stop() function for details about component 
  62:Generated_Source\PSoC4/Display_I2C_PM.c **** *    disabling.
  63:Generated_Source\PSoC4/Display_I2C_PM.c **** *
  64:Generated_Source\PSoC4/Display_I2C_PM.c **** *  Call the Display_I2C_Sleep() function before calling the 
  65:Generated_Source\PSoC4/Display_I2C_PM.c **** *  CyPmSysDeepSleep() function. 
  66:Generated_Source\PSoC4/Display_I2C_PM.c **** *  Refer to the PSoC Creator System Reference Guide for more information about 
  67:Generated_Source\PSoC4/Display_I2C_PM.c **** *  power management functions and Low power section of this document for the 
  68:Generated_Source\PSoC4/Display_I2C_PM.c **** *  selected mode.
  69:Generated_Source\PSoC4/Display_I2C_PM.c **** *
  70:Generated_Source\PSoC4/Display_I2C_PM.c **** *  This function should not be called before entering Sleep.
  71:Generated_Source\PSoC4/Display_I2C_PM.c **** *
  72:Generated_Source\PSoC4/Display_I2C_PM.c **** *******************************************************************************/
  73:Generated_Source\PSoC4/Display_I2C_PM.c **** void Display_I2C_Sleep(void)
  74:Generated_Source\PSoC4/Display_I2C_PM.c **** {
  28              		.loc 1 74 0
  29              		.cfi_startproc
  30              		@ args = 0, pretend = 0, frame = 0
  31              		@ frame_needed = 0, uses_anonymous_args = 0
  75:Generated_Source\PSoC4/Display_I2C_PM.c **** #if(Display_I2C_SCB_MODE_UNCONFIG_CONST_CFG)
  76:Generated_Source\PSoC4/Display_I2C_PM.c **** 
  77:Generated_Source\PSoC4/Display_I2C_PM.c ****     if(Display_I2C_SCB_WAKE_ENABLE_CHECK)
  78:Generated_Source\PSoC4/Display_I2C_PM.c ****     {
  79:Generated_Source\PSoC4/Display_I2C_PM.c ****         if(Display_I2C_SCB_MODE_I2C_RUNTM_CFG)
  80:Generated_Source\PSoC4/Display_I2C_PM.c ****         {
  81:Generated_Source\PSoC4/Display_I2C_PM.c ****             Display_I2C_I2CSaveConfig();
  82:Generated_Source\PSoC4/Display_I2C_PM.c ****         }
  83:Generated_Source\PSoC4/Display_I2C_PM.c ****         else if(Display_I2C_SCB_MODE_EZI2C_RUNTM_CFG)
ARM GAS  C:\Users\VIDEOH~1\AppData\Local\Temp\ccFUQIqa.s 			page 3


  84:Generated_Source\PSoC4/Display_I2C_PM.c ****         {
  85:Generated_Source\PSoC4/Display_I2C_PM.c ****             Display_I2C_EzI2CSaveConfig();
  86:Generated_Source\PSoC4/Display_I2C_PM.c ****         }
  87:Generated_Source\PSoC4/Display_I2C_PM.c ****     #if(!Display_I2C_CY_SCBIP_V1)
  88:Generated_Source\PSoC4/Display_I2C_PM.c ****         else if(Display_I2C_SCB_MODE_SPI_RUNTM_CFG)
  89:Generated_Source\PSoC4/Display_I2C_PM.c ****         {
  90:Generated_Source\PSoC4/Display_I2C_PM.c ****             Display_I2C_SpiSaveConfig();
  91:Generated_Source\PSoC4/Display_I2C_PM.c ****         }
  92:Generated_Source\PSoC4/Display_I2C_PM.c ****         else if(Display_I2C_SCB_MODE_UART_RUNTM_CFG)
  93:Generated_Source\PSoC4/Display_I2C_PM.c ****         {
  94:Generated_Source\PSoC4/Display_I2C_PM.c ****             Display_I2C_UartSaveConfig();
  95:Generated_Source\PSoC4/Display_I2C_PM.c ****         }
  96:Generated_Source\PSoC4/Display_I2C_PM.c ****     #endif /* (!Display_I2C_CY_SCBIP_V1) */
  97:Generated_Source\PSoC4/Display_I2C_PM.c ****         else
  98:Generated_Source\PSoC4/Display_I2C_PM.c ****         {
  99:Generated_Source\PSoC4/Display_I2C_PM.c ****             /* Unknown mode */
 100:Generated_Source\PSoC4/Display_I2C_PM.c ****         }
 101:Generated_Source\PSoC4/Display_I2C_PM.c ****     }
 102:Generated_Source\PSoC4/Display_I2C_PM.c ****     else
 103:Generated_Source\PSoC4/Display_I2C_PM.c ****     {
 104:Generated_Source\PSoC4/Display_I2C_PM.c ****         Display_I2C_backup.enableState = (uint8) Display_I2C_GET_CTRL_ENABLED;
 105:Generated_Source\PSoC4/Display_I2C_PM.c **** 
 106:Generated_Source\PSoC4/Display_I2C_PM.c ****         if(0u != Display_I2C_backup.enableState)
 107:Generated_Source\PSoC4/Display_I2C_PM.c ****         {
 108:Generated_Source\PSoC4/Display_I2C_PM.c ****             Display_I2C_Stop();
 109:Generated_Source\PSoC4/Display_I2C_PM.c ****         }
 110:Generated_Source\PSoC4/Display_I2C_PM.c ****     }
 111:Generated_Source\PSoC4/Display_I2C_PM.c **** 
 112:Generated_Source\PSoC4/Display_I2C_PM.c **** #else
 113:Generated_Source\PSoC4/Display_I2C_PM.c **** 
 114:Generated_Source\PSoC4/Display_I2C_PM.c ****     #if (Display_I2C_SCB_MODE_I2C_CONST_CFG && Display_I2C_I2C_WAKE_ENABLE_CONST)
 115:Generated_Source\PSoC4/Display_I2C_PM.c ****         Display_I2C_I2CSaveConfig();
 116:Generated_Source\PSoC4/Display_I2C_PM.c **** 
 117:Generated_Source\PSoC4/Display_I2C_PM.c ****     #elif (Display_I2C_SCB_MODE_EZI2C_CONST_CFG && Display_I2C_EZI2C_WAKE_ENABLE_CONST)
 118:Generated_Source\PSoC4/Display_I2C_PM.c ****         Display_I2C_EzI2CSaveConfig();
 119:Generated_Source\PSoC4/Display_I2C_PM.c **** 
 120:Generated_Source\PSoC4/Display_I2C_PM.c ****     #elif (Display_I2C_SCB_MODE_SPI_CONST_CFG && Display_I2C_SPI_WAKE_ENABLE_CONST)
 121:Generated_Source\PSoC4/Display_I2C_PM.c ****         Display_I2C_SpiSaveConfig();
 122:Generated_Source\PSoC4/Display_I2C_PM.c **** 
 123:Generated_Source\PSoC4/Display_I2C_PM.c ****     #elif (Display_I2C_SCB_MODE_UART_CONST_CFG && Display_I2C_UART_WAKE_ENABLE_CONST)
 124:Generated_Source\PSoC4/Display_I2C_PM.c ****         Display_I2C_UartSaveConfig();
 125:Generated_Source\PSoC4/Display_I2C_PM.c **** 
 126:Generated_Source\PSoC4/Display_I2C_PM.c ****     #else
 127:Generated_Source\PSoC4/Display_I2C_PM.c **** 
 128:Generated_Source\PSoC4/Display_I2C_PM.c ****         Display_I2C_backup.enableState = (uint8) Display_I2C_GET_CTRL_ENABLED;
  32              		.loc 1 128 0
  33 0000 054B     		ldr	r3, .L4
  34 0002 064A     		ldr	r2, .L4+4
  35 0004 1B68     		ldr	r3, [r3]
  74:Generated_Source\PSoC4/Display_I2C_PM.c **** #if(Display_I2C_SCB_MODE_UNCONFIG_CONST_CFG)
  36              		.loc 1 74 0
  37 0006 10B5     		push	{r4, lr}
  38              		.cfi_def_cfa_offset 8
  39              		.cfi_offset 4, -8
  40              		.cfi_offset 14, -4
  41              		.loc 1 128 0
  42 0008 D90F     		lsrs	r1, r3, #31
ARM GAS  C:\Users\VIDEOH~1\AppData\Local\Temp\ccFUQIqa.s 			page 4


  43 000a 1170     		strb	r1, [r2]
 129:Generated_Source\PSoC4/Display_I2C_PM.c **** 
 130:Generated_Source\PSoC4/Display_I2C_PM.c ****         if(0u != Display_I2C_backup.enableState)
  44              		.loc 1 130 0
  45 000c 002B     		cmp	r3, #0
  46 000e 01DA     		bge	.L1
 131:Generated_Source\PSoC4/Display_I2C_PM.c ****         {
 132:Generated_Source\PSoC4/Display_I2C_PM.c ****             Display_I2C_Stop();
  47              		.loc 1 132 0
  48 0010 FFF7FEFF 		bl	Display_I2C_Stop
  49              	.LVL0:
  50              	.L1:
 133:Generated_Source\PSoC4/Display_I2C_PM.c ****         }
 134:Generated_Source\PSoC4/Display_I2C_PM.c **** 
 135:Generated_Source\PSoC4/Display_I2C_PM.c ****     #endif /* defined (Display_I2C_SCB_MODE_I2C_CONST_CFG) && (Display_I2C_I2C_WAKE_ENABLE_CONST) *
 136:Generated_Source\PSoC4/Display_I2C_PM.c **** 
 137:Generated_Source\PSoC4/Display_I2C_PM.c **** #endif /* (Display_I2C_SCB_MODE_UNCONFIG_CONST_CFG) */
 138:Generated_Source\PSoC4/Display_I2C_PM.c **** }
  51              		.loc 1 138 0
  52              		@ sp needed
  53 0014 10BD     		pop	{r4, pc}
  54              	.L5:
  55 0016 C046     		.align	2
  56              	.L4:
  57 0018 00000740 		.word	1074200576
  58 001c 00000000 		.word	.LANCHOR0
  59              		.cfi_endproc
  60              	.LFE0:
  61              		.size	Display_I2C_Sleep, .-Display_I2C_Sleep
  62              		.section	.text.Display_I2C_Wakeup,"ax",%progbits
  63              		.align	1
  64              		.global	Display_I2C_Wakeup
  65              		.code	16
  66              		.thumb_func
  67              		.type	Display_I2C_Wakeup, %function
  68              	Display_I2C_Wakeup:
  69              	.LFB1:
 139:Generated_Source\PSoC4/Display_I2C_PM.c **** 
 140:Generated_Source\PSoC4/Display_I2C_PM.c **** 
 141:Generated_Source\PSoC4/Display_I2C_PM.c **** /*******************************************************************************
 142:Generated_Source\PSoC4/Display_I2C_PM.c **** * Function Name: Display_I2C_Wakeup
 143:Generated_Source\PSoC4/Display_I2C_PM.c **** ****************************************************************************//**
 144:Generated_Source\PSoC4/Display_I2C_PM.c **** *
 145:Generated_Source\PSoC4/Display_I2C_PM.c **** *  Prepares the Display_I2C component for Active mode operation after 
 146:Generated_Source\PSoC4/Display_I2C_PM.c **** *  Deep Sleep.
 147:Generated_Source\PSoC4/Display_I2C_PM.c **** *  The “Enable wakeup from Deep Sleep Mode” selection has influence on this 
 148:Generated_Source\PSoC4/Display_I2C_PM.c **** *  function implementation:
 149:Generated_Source\PSoC4/Display_I2C_PM.c **** *  - Checked: restores the component Active mode configuration.
 150:Generated_Source\PSoC4/Display_I2C_PM.c **** *  - Unchecked: enables the component if it was enabled before enter Deep Sleep.
 151:Generated_Source\PSoC4/Display_I2C_PM.c **** *
 152:Generated_Source\PSoC4/Display_I2C_PM.c **** *  This function should not be called after exiting Sleep.
 153:Generated_Source\PSoC4/Display_I2C_PM.c **** *
 154:Generated_Source\PSoC4/Display_I2C_PM.c **** *  \sideeffect
 155:Generated_Source\PSoC4/Display_I2C_PM.c **** *   Calling the Display_I2C_Wakeup() function without first calling the 
 156:Generated_Source\PSoC4/Display_I2C_PM.c **** *   Display_I2C_Sleep() function may produce unexpected behavior.
 157:Generated_Source\PSoC4/Display_I2C_PM.c **** *
 158:Generated_Source\PSoC4/Display_I2C_PM.c **** *******************************************************************************/
ARM GAS  C:\Users\VIDEOH~1\AppData\Local\Temp\ccFUQIqa.s 			page 5


 159:Generated_Source\PSoC4/Display_I2C_PM.c **** void Display_I2C_Wakeup(void)
 160:Generated_Source\PSoC4/Display_I2C_PM.c **** {
  70              		.loc 1 160 0
  71              		.cfi_startproc
  72              		@ args = 0, pretend = 0, frame = 0
  73              		@ frame_needed = 0, uses_anonymous_args = 0
  74 0000 10B5     		push	{r4, lr}
  75              		.cfi_def_cfa_offset 8
  76              		.cfi_offset 4, -8
  77              		.cfi_offset 14, -4
 161:Generated_Source\PSoC4/Display_I2C_PM.c **** #if(Display_I2C_SCB_MODE_UNCONFIG_CONST_CFG)
 162:Generated_Source\PSoC4/Display_I2C_PM.c **** 
 163:Generated_Source\PSoC4/Display_I2C_PM.c ****     if(Display_I2C_SCB_WAKE_ENABLE_CHECK)
 164:Generated_Source\PSoC4/Display_I2C_PM.c ****     {
 165:Generated_Source\PSoC4/Display_I2C_PM.c ****         if(Display_I2C_SCB_MODE_I2C_RUNTM_CFG)
 166:Generated_Source\PSoC4/Display_I2C_PM.c ****         {
 167:Generated_Source\PSoC4/Display_I2C_PM.c ****             Display_I2C_I2CRestoreConfig();
 168:Generated_Source\PSoC4/Display_I2C_PM.c ****         }
 169:Generated_Source\PSoC4/Display_I2C_PM.c ****         else if(Display_I2C_SCB_MODE_EZI2C_RUNTM_CFG)
 170:Generated_Source\PSoC4/Display_I2C_PM.c ****         {
 171:Generated_Source\PSoC4/Display_I2C_PM.c ****             Display_I2C_EzI2CRestoreConfig();
 172:Generated_Source\PSoC4/Display_I2C_PM.c ****         }
 173:Generated_Source\PSoC4/Display_I2C_PM.c ****     #if(!Display_I2C_CY_SCBIP_V1)
 174:Generated_Source\PSoC4/Display_I2C_PM.c ****         else if(Display_I2C_SCB_MODE_SPI_RUNTM_CFG)
 175:Generated_Source\PSoC4/Display_I2C_PM.c ****         {
 176:Generated_Source\PSoC4/Display_I2C_PM.c ****             Display_I2C_SpiRestoreConfig();
 177:Generated_Source\PSoC4/Display_I2C_PM.c ****         }
 178:Generated_Source\PSoC4/Display_I2C_PM.c ****         else if(Display_I2C_SCB_MODE_UART_RUNTM_CFG)
 179:Generated_Source\PSoC4/Display_I2C_PM.c ****         {
 180:Generated_Source\PSoC4/Display_I2C_PM.c ****             Display_I2C_UartRestoreConfig();
 181:Generated_Source\PSoC4/Display_I2C_PM.c ****         }
 182:Generated_Source\PSoC4/Display_I2C_PM.c ****     #endif /* (!Display_I2C_CY_SCBIP_V1) */
 183:Generated_Source\PSoC4/Display_I2C_PM.c ****         else
 184:Generated_Source\PSoC4/Display_I2C_PM.c ****         {
 185:Generated_Source\PSoC4/Display_I2C_PM.c ****             /* Unknown mode */
 186:Generated_Source\PSoC4/Display_I2C_PM.c ****         }
 187:Generated_Source\PSoC4/Display_I2C_PM.c ****     }
 188:Generated_Source\PSoC4/Display_I2C_PM.c ****     else
 189:Generated_Source\PSoC4/Display_I2C_PM.c ****     {
 190:Generated_Source\PSoC4/Display_I2C_PM.c ****         if(0u != Display_I2C_backup.enableState)
 191:Generated_Source\PSoC4/Display_I2C_PM.c ****         {
 192:Generated_Source\PSoC4/Display_I2C_PM.c ****             Display_I2C_Enable();
 193:Generated_Source\PSoC4/Display_I2C_PM.c ****         }
 194:Generated_Source\PSoC4/Display_I2C_PM.c ****     }
 195:Generated_Source\PSoC4/Display_I2C_PM.c **** 
 196:Generated_Source\PSoC4/Display_I2C_PM.c **** #else
 197:Generated_Source\PSoC4/Display_I2C_PM.c **** 
 198:Generated_Source\PSoC4/Display_I2C_PM.c ****     #if (Display_I2C_SCB_MODE_I2C_CONST_CFG  && Display_I2C_I2C_WAKE_ENABLE_CONST)
 199:Generated_Source\PSoC4/Display_I2C_PM.c ****         Display_I2C_I2CRestoreConfig();
 200:Generated_Source\PSoC4/Display_I2C_PM.c **** 
 201:Generated_Source\PSoC4/Display_I2C_PM.c ****     #elif (Display_I2C_SCB_MODE_EZI2C_CONST_CFG && Display_I2C_EZI2C_WAKE_ENABLE_CONST)
 202:Generated_Source\PSoC4/Display_I2C_PM.c ****         Display_I2C_EzI2CRestoreConfig();
 203:Generated_Source\PSoC4/Display_I2C_PM.c **** 
 204:Generated_Source\PSoC4/Display_I2C_PM.c ****     #elif (Display_I2C_SCB_MODE_SPI_CONST_CFG && Display_I2C_SPI_WAKE_ENABLE_CONST)
 205:Generated_Source\PSoC4/Display_I2C_PM.c ****         Display_I2C_SpiRestoreConfig();
 206:Generated_Source\PSoC4/Display_I2C_PM.c **** 
 207:Generated_Source\PSoC4/Display_I2C_PM.c ****     #elif (Display_I2C_SCB_MODE_UART_CONST_CFG && Display_I2C_UART_WAKE_ENABLE_CONST)
ARM GAS  C:\Users\VIDEOH~1\AppData\Local\Temp\ccFUQIqa.s 			page 6


 208:Generated_Source\PSoC4/Display_I2C_PM.c ****         Display_I2C_UartRestoreConfig();
 209:Generated_Source\PSoC4/Display_I2C_PM.c **** 
 210:Generated_Source\PSoC4/Display_I2C_PM.c ****     #else
 211:Generated_Source\PSoC4/Display_I2C_PM.c **** 
 212:Generated_Source\PSoC4/Display_I2C_PM.c ****         if(0u != Display_I2C_backup.enableState)
  78              		.loc 1 212 0
  79 0002 034B     		ldr	r3, .L11
  80 0004 1B78     		ldrb	r3, [r3]
  81 0006 002B     		cmp	r3, #0
  82 0008 01D0     		beq	.L6
 213:Generated_Source\PSoC4/Display_I2C_PM.c ****         {
 214:Generated_Source\PSoC4/Display_I2C_PM.c ****             Display_I2C_Enable();
  83              		.loc 1 214 0
  84 000a FFF7FEFF 		bl	Display_I2C_Enable
  85              	.LVL1:
  86              	.L6:
 215:Generated_Source\PSoC4/Display_I2C_PM.c ****         }
 216:Generated_Source\PSoC4/Display_I2C_PM.c **** 
 217:Generated_Source\PSoC4/Display_I2C_PM.c ****     #endif /* (Display_I2C_I2C_WAKE_ENABLE_CONST) */
 218:Generated_Source\PSoC4/Display_I2C_PM.c **** 
 219:Generated_Source\PSoC4/Display_I2C_PM.c **** #endif /* (Display_I2C_SCB_MODE_UNCONFIG_CONST_CFG) */
 220:Generated_Source\PSoC4/Display_I2C_PM.c **** }
  87              		.loc 1 220 0
  88              		@ sp needed
  89 000e 10BD     		pop	{r4, pc}
  90              	.L12:
  91              		.align	2
  92              	.L11:
  93 0010 00000000 		.word	.LANCHOR0
  94              		.cfi_endproc
  95              	.LFE1:
  96              		.size	Display_I2C_Wakeup, .-Display_I2C_Wakeup
  97              		.global	Display_I2C_backup
  98              		.bss
  99              		.set	.LANCHOR0,. + 0
 100              		.type	Display_I2C_backup, %object
 101              		.size	Display_I2C_backup, 1
 102              	Display_I2C_backup:
 103 0000 00       		.space	1
 104              		.text
 105              	.Letext0:
 106              		.file 2 "Generated_Source\\PSoC4/cytypes.h"
 107              		.file 3 "Generated_Source\\PSoC4\\Display_I2C.h"