ARM GAS  C:\Users\VIDEOH~1\AppData\Local\Temp\ccqaCiob.s 			page 1


   1              		.syntax unified
   2              		.cpu cortex-m0
   3              		.fpu softvfp
   4              		.eabi_attribute 20, 1
   5              		.eabi_attribute 21, 1
   6              		.eabi_attribute 23, 3
   7              		.eabi_attribute 24, 1
   8              		.eabi_attribute 25, 1
   9              		.eabi_attribute 26, 1
  10              		.eabi_attribute 30, 4
  11              		.eabi_attribute 34, 0
  12              		.eabi_attribute 18, 4
  13              		.thumb
  14              		.syntax unified
  15              		.file	"Display_SPI.c"
  16              		.text
  17              	.Ltext0:
  18              		.cfi_sections	.debug_frame
  19              		.section	.text.Display_SPI_Enable,"ax",%progbits
  20              		.align	1
  21              		.global	Display_SPI_Enable
  22              		.code	16
  23              		.thumb_func
  24              		.type	Display_SPI_Enable, %function
  25              	Display_SPI_Enable:
  26              	.LFB1:
  27              		.file 1 "Generated_Source\\PSoC4\\Display_SPI.c"
   1:Generated_Source\PSoC4/Display_SPI.c **** /*******************************************************************************
   2:Generated_Source\PSoC4/Display_SPI.c **** * File Name: Display_SPI.c
   3:Generated_Source\PSoC4/Display_SPI.c **** * Version 2.50
   4:Generated_Source\PSoC4/Display_SPI.c **** *
   5:Generated_Source\PSoC4/Display_SPI.c **** * Description:
   6:Generated_Source\PSoC4/Display_SPI.c **** *  This file provides all API functionality of the SPI Master component.
   7:Generated_Source\PSoC4/Display_SPI.c **** *
   8:Generated_Source\PSoC4/Display_SPI.c **** * Note:
   9:Generated_Source\PSoC4/Display_SPI.c **** *  None.
  10:Generated_Source\PSoC4/Display_SPI.c **** *
  11:Generated_Source\PSoC4/Display_SPI.c **** ********************************************************************************
  12:Generated_Source\PSoC4/Display_SPI.c **** * Copyright 2008-2015, Cypress Semiconductor Corporation.  All rights reserved.
  13:Generated_Source\PSoC4/Display_SPI.c **** * You may use this file only in accordance with the license, terms, conditions,
  14:Generated_Source\PSoC4/Display_SPI.c **** * disclaimers, and limitations in the end user license agreement accompanying
  15:Generated_Source\PSoC4/Display_SPI.c **** * the software package with which this file was provided.
  16:Generated_Source\PSoC4/Display_SPI.c **** *******************************************************************************/
  17:Generated_Source\PSoC4/Display_SPI.c **** 
  18:Generated_Source\PSoC4/Display_SPI.c **** #include "Display_SPI_PVT.h"
  19:Generated_Source\PSoC4/Display_SPI.c **** 
  20:Generated_Source\PSoC4/Display_SPI.c **** #if(Display_SPI_TX_SOFTWARE_BUF_ENABLED)
  21:Generated_Source\PSoC4/Display_SPI.c ****     volatile uint8 Display_SPI_txBuffer[Display_SPI_TX_BUFFER_SIZE];
  22:Generated_Source\PSoC4/Display_SPI.c ****     volatile uint8 Display_SPI_txBufferFull;
  23:Generated_Source\PSoC4/Display_SPI.c ****     volatile uint8 Display_SPI_txBufferRead;
  24:Generated_Source\PSoC4/Display_SPI.c ****     volatile uint8 Display_SPI_txBufferWrite;
  25:Generated_Source\PSoC4/Display_SPI.c **** #endif /* (Display_SPI_TX_SOFTWARE_BUF_ENABLED) */
  26:Generated_Source\PSoC4/Display_SPI.c **** 
  27:Generated_Source\PSoC4/Display_SPI.c **** #if(Display_SPI_RX_SOFTWARE_BUF_ENABLED)
  28:Generated_Source\PSoC4/Display_SPI.c ****     volatile uint8 Display_SPI_rxBuffer[Display_SPI_RX_BUFFER_SIZE];
  29:Generated_Source\PSoC4/Display_SPI.c ****     volatile uint8 Display_SPI_rxBufferFull;
  30:Generated_Source\PSoC4/Display_SPI.c ****     volatile uint8 Display_SPI_rxBufferRead;
ARM GAS  C:\Users\VIDEOH~1\AppData\Local\Temp\ccqaCiob.s 			page 2


  31:Generated_Source\PSoC4/Display_SPI.c ****     volatile uint8 Display_SPI_rxBufferWrite;
  32:Generated_Source\PSoC4/Display_SPI.c **** #endif /* (Display_SPI_RX_SOFTWARE_BUF_ENABLED) */
  33:Generated_Source\PSoC4/Display_SPI.c **** 
  34:Generated_Source\PSoC4/Display_SPI.c **** uint8 Display_SPI_initVar = 0u;
  35:Generated_Source\PSoC4/Display_SPI.c **** 
  36:Generated_Source\PSoC4/Display_SPI.c **** volatile uint8 Display_SPI_swStatusTx;
  37:Generated_Source\PSoC4/Display_SPI.c **** volatile uint8 Display_SPI_swStatusRx;
  38:Generated_Source\PSoC4/Display_SPI.c **** 
  39:Generated_Source\PSoC4/Display_SPI.c **** 
  40:Generated_Source\PSoC4/Display_SPI.c **** /*******************************************************************************
  41:Generated_Source\PSoC4/Display_SPI.c **** * Function Name: Display_SPI_Init
  42:Generated_Source\PSoC4/Display_SPI.c **** ********************************************************************************
  43:Generated_Source\PSoC4/Display_SPI.c **** *
  44:Generated_Source\PSoC4/Display_SPI.c **** * Summary:
  45:Generated_Source\PSoC4/Display_SPI.c **** *  Inits/Restores default SPIM configuration provided with customizer.
  46:Generated_Source\PSoC4/Display_SPI.c **** *
  47:Generated_Source\PSoC4/Display_SPI.c **** * Parameters:
  48:Generated_Source\PSoC4/Display_SPI.c **** *  None.
  49:Generated_Source\PSoC4/Display_SPI.c **** *
  50:Generated_Source\PSoC4/Display_SPI.c **** * Return:
  51:Generated_Source\PSoC4/Display_SPI.c **** *  None.
  52:Generated_Source\PSoC4/Display_SPI.c **** *
  53:Generated_Source\PSoC4/Display_SPI.c **** * Side Effects:
  54:Generated_Source\PSoC4/Display_SPI.c **** *  When this function is called it initializes all of the necessary parameters
  55:Generated_Source\PSoC4/Display_SPI.c **** *  for execution. i.e. setting the initial interrupt mask, configuring the
  56:Generated_Source\PSoC4/Display_SPI.c **** *  interrupt service routine, configuring the bit-counter parameters and
  57:Generated_Source\PSoC4/Display_SPI.c **** *  clearing the FIFO and Status Register.
  58:Generated_Source\PSoC4/Display_SPI.c **** *
  59:Generated_Source\PSoC4/Display_SPI.c **** * Reentrant:
  60:Generated_Source\PSoC4/Display_SPI.c **** *  No.
  61:Generated_Source\PSoC4/Display_SPI.c **** *
  62:Generated_Source\PSoC4/Display_SPI.c **** *******************************************************************************/
  63:Generated_Source\PSoC4/Display_SPI.c **** void Display_SPI_Init(void) 
  64:Generated_Source\PSoC4/Display_SPI.c **** {
  65:Generated_Source\PSoC4/Display_SPI.c ****     /* Initialize the Bit counter */
  66:Generated_Source\PSoC4/Display_SPI.c ****     Display_SPI_COUNTER_PERIOD_REG = Display_SPI_BITCTR_INIT;
  67:Generated_Source\PSoC4/Display_SPI.c **** 
  68:Generated_Source\PSoC4/Display_SPI.c ****     /* Init TX ISR  */
  69:Generated_Source\PSoC4/Display_SPI.c ****     #if(0u != Display_SPI_INTERNAL_TX_INT_ENABLED)
  70:Generated_Source\PSoC4/Display_SPI.c ****         CyIntDisable         (Display_SPI_TX_ISR_NUMBER);
  71:Generated_Source\PSoC4/Display_SPI.c ****         CyIntSetPriority     (Display_SPI_TX_ISR_NUMBER,  Display_SPI_TX_ISR_PRIORITY);
  72:Generated_Source\PSoC4/Display_SPI.c ****         (void) CyIntSetVector(Display_SPI_TX_ISR_NUMBER, &Display_SPI_TX_ISR);
  73:Generated_Source\PSoC4/Display_SPI.c ****     #endif /* (0u != Display_SPI_INTERNAL_TX_INT_ENABLED) */
  74:Generated_Source\PSoC4/Display_SPI.c **** 
  75:Generated_Source\PSoC4/Display_SPI.c ****     /* Init RX ISR  */
  76:Generated_Source\PSoC4/Display_SPI.c ****     #if(0u != Display_SPI_INTERNAL_RX_INT_ENABLED)
  77:Generated_Source\PSoC4/Display_SPI.c ****         CyIntDisable         (Display_SPI_RX_ISR_NUMBER);
  78:Generated_Source\PSoC4/Display_SPI.c ****         CyIntSetPriority     (Display_SPI_RX_ISR_NUMBER,  Display_SPI_RX_ISR_PRIORITY);
  79:Generated_Source\PSoC4/Display_SPI.c ****         (void) CyIntSetVector(Display_SPI_RX_ISR_NUMBER, &Display_SPI_RX_ISR);
  80:Generated_Source\PSoC4/Display_SPI.c ****     #endif /* (0u != Display_SPI_INTERNAL_RX_INT_ENABLED) */
  81:Generated_Source\PSoC4/Display_SPI.c **** 
  82:Generated_Source\PSoC4/Display_SPI.c ****     /* Clear any stray data from the RX and TX FIFO */
  83:Generated_Source\PSoC4/Display_SPI.c ****     Display_SPI_ClearFIFO();
  84:Generated_Source\PSoC4/Display_SPI.c **** 
  85:Generated_Source\PSoC4/Display_SPI.c ****     #if(Display_SPI_RX_SOFTWARE_BUF_ENABLED)
  86:Generated_Source\PSoC4/Display_SPI.c ****         Display_SPI_rxBufferFull  = 0u;
  87:Generated_Source\PSoC4/Display_SPI.c ****         Display_SPI_rxBufferRead  = 0u;
ARM GAS  C:\Users\VIDEOH~1\AppData\Local\Temp\ccqaCiob.s 			page 3


  88:Generated_Source\PSoC4/Display_SPI.c ****         Display_SPI_rxBufferWrite = 0u;
  89:Generated_Source\PSoC4/Display_SPI.c ****     #endif /* (Display_SPI_RX_SOFTWARE_BUF_ENABLED) */
  90:Generated_Source\PSoC4/Display_SPI.c **** 
  91:Generated_Source\PSoC4/Display_SPI.c ****     #if(Display_SPI_TX_SOFTWARE_BUF_ENABLED)
  92:Generated_Source\PSoC4/Display_SPI.c ****         Display_SPI_txBufferFull  = 0u;
  93:Generated_Source\PSoC4/Display_SPI.c ****         Display_SPI_txBufferRead  = 0u;
  94:Generated_Source\PSoC4/Display_SPI.c ****         Display_SPI_txBufferWrite = 0u;
  95:Generated_Source\PSoC4/Display_SPI.c ****     #endif /* (Display_SPI_TX_SOFTWARE_BUF_ENABLED) */
  96:Generated_Source\PSoC4/Display_SPI.c **** 
  97:Generated_Source\PSoC4/Display_SPI.c ****     (void) Display_SPI_ReadTxStatus(); /* Clear Tx status and swStatusTx */
  98:Generated_Source\PSoC4/Display_SPI.c ****     (void) Display_SPI_ReadRxStatus(); /* Clear Rx status and swStatusRx */
  99:Generated_Source\PSoC4/Display_SPI.c **** 
 100:Generated_Source\PSoC4/Display_SPI.c ****     /* Configure TX and RX interrupt mask */
 101:Generated_Source\PSoC4/Display_SPI.c ****     Display_SPI_TX_STATUS_MASK_REG = Display_SPI_TX_INIT_INTERRUPTS_MASK;
 102:Generated_Source\PSoC4/Display_SPI.c ****     Display_SPI_RX_STATUS_MASK_REG = Display_SPI_RX_INIT_INTERRUPTS_MASK;
 103:Generated_Source\PSoC4/Display_SPI.c **** }
 104:Generated_Source\PSoC4/Display_SPI.c **** 
 105:Generated_Source\PSoC4/Display_SPI.c **** 
 106:Generated_Source\PSoC4/Display_SPI.c **** /*******************************************************************************
 107:Generated_Source\PSoC4/Display_SPI.c **** * Function Name: Display_SPI_Enable
 108:Generated_Source\PSoC4/Display_SPI.c **** ********************************************************************************
 109:Generated_Source\PSoC4/Display_SPI.c **** *
 110:Generated_Source\PSoC4/Display_SPI.c **** * Summary:
 111:Generated_Source\PSoC4/Display_SPI.c **** *  Enable SPIM component.
 112:Generated_Source\PSoC4/Display_SPI.c **** *
 113:Generated_Source\PSoC4/Display_SPI.c **** * Parameters:
 114:Generated_Source\PSoC4/Display_SPI.c **** *  None.
 115:Generated_Source\PSoC4/Display_SPI.c **** *
 116:Generated_Source\PSoC4/Display_SPI.c **** * Return:
 117:Generated_Source\PSoC4/Display_SPI.c **** *  None.
 118:Generated_Source\PSoC4/Display_SPI.c **** *
 119:Generated_Source\PSoC4/Display_SPI.c **** *******************************************************************************/
 120:Generated_Source\PSoC4/Display_SPI.c **** void Display_SPI_Enable(void) 
 121:Generated_Source\PSoC4/Display_SPI.c **** {
  28              		.loc 1 121 0
  29              		.cfi_startproc
  30              		@ args = 0, pretend = 0, frame = 0
  31              		@ frame_needed = 0, uses_anonymous_args = 0
  32 0000 10B5     		push	{r4, lr}
  33              		.cfi_def_cfa_offset 8
  34              		.cfi_offset 4, -8
  35              		.cfi_offset 14, -4
 122:Generated_Source\PSoC4/Display_SPI.c ****     uint8 enableInterrupts;
 123:Generated_Source\PSoC4/Display_SPI.c **** 
 124:Generated_Source\PSoC4/Display_SPI.c ****     enableInterrupts = CyEnterCriticalSection();
  36              		.loc 1 124 0
  37 0002 FFF7FEFF 		bl	CyEnterCriticalSection
  38              	.LVL0:
 125:Generated_Source\PSoC4/Display_SPI.c ****     Display_SPI_COUNTER_CONTROL_REG |= Display_SPI_CNTR_ENABLE;
  39              		.loc 1 125 0
  40 0006 2021     		movs	r1, #32
  41 0008 074A     		ldr	r2, .L2
 126:Generated_Source\PSoC4/Display_SPI.c ****     Display_SPI_TX_STATUS_ACTL_REG  |= Display_SPI_INT_ENABLE;
 127:Generated_Source\PSoC4/Display_SPI.c ****     Display_SPI_RX_STATUS_ACTL_REG  |= Display_SPI_INT_ENABLE;
 128:Generated_Source\PSoC4/Display_SPI.c ****     CyExitCriticalSection(enableInterrupts);
 129:Generated_Source\PSoC4/Display_SPI.c **** 
 130:Generated_Source\PSoC4/Display_SPI.c ****     #if(0u != Display_SPI_INTERNAL_CLOCK)
ARM GAS  C:\Users\VIDEOH~1\AppData\Local\Temp\ccqaCiob.s 			page 4


 131:Generated_Source\PSoC4/Display_SPI.c ****         Display_SPI_IntClock_Enable();
 132:Generated_Source\PSoC4/Display_SPI.c ****     #endif /* (0u != Display_SPI_INTERNAL_CLOCK) */
 133:Generated_Source\PSoC4/Display_SPI.c **** 
 134:Generated_Source\PSoC4/Display_SPI.c ****     Display_SPI_EnableTxInt();
 135:Generated_Source\PSoC4/Display_SPI.c ****     Display_SPI_EnableRxInt();
 136:Generated_Source\PSoC4/Display_SPI.c **** }
  42              		.loc 1 136 0
  43              		@ sp needed
 125:Generated_Source\PSoC4/Display_SPI.c ****     Display_SPI_COUNTER_CONTROL_REG |= Display_SPI_CNTR_ENABLE;
  44              		.loc 1 125 0
  45 000a 1378     		ldrb	r3, [r2]
  46 000c 0B43     		orrs	r3, r1
  47 000e 1370     		strb	r3, [r2]
 126:Generated_Source\PSoC4/Display_SPI.c ****     Display_SPI_TX_STATUS_ACTL_REG  |= Display_SPI_INT_ENABLE;
  48              		.loc 1 126 0
  49 0010 064B     		ldr	r3, .L2+4
  50 0012 1039     		subs	r1, r1, #16
  51 0014 1A78     		ldrb	r2, [r3]
  52 0016 0A43     		orrs	r2, r1
  53 0018 1A70     		strb	r2, [r3]
 127:Generated_Source\PSoC4/Display_SPI.c ****     CyExitCriticalSection(enableInterrupts);
  54              		.loc 1 127 0
  55 001a 054A     		ldr	r2, .L2+8
  56 001c 1378     		ldrb	r3, [r2]
  57 001e 0B43     		orrs	r3, r1
  58 0020 1370     		strb	r3, [r2]
 128:Generated_Source\PSoC4/Display_SPI.c **** 
  59              		.loc 1 128 0
  60 0022 FFF7FEFF 		bl	CyExitCriticalSection
  61              	.LVL1:
  62              		.loc 1 136 0
  63 0026 10BD     		pop	{r4, pc}
  64              	.L3:
  65              		.align	2
  66              	.L2:
  67 0028 91000F40 		.word	1074725009
  68 002c 92000F40 		.word	1074725010
  69 0030 93000F40 		.word	1074725011
  70              		.cfi_endproc
  71              	.LFE1:
  72              		.size	Display_SPI_Enable, .-Display_SPI_Enable
  73              		.section	.text.Display_SPI_Stop,"ax",%progbits
  74              		.align	1
  75              		.global	Display_SPI_Stop
  76              		.code	16
  77              		.thumb_func
  78              		.type	Display_SPI_Stop, %function
  79              	Display_SPI_Stop:
  80              	.LFB3:
 137:Generated_Source\PSoC4/Display_SPI.c **** 
 138:Generated_Source\PSoC4/Display_SPI.c **** 
 139:Generated_Source\PSoC4/Display_SPI.c **** /*******************************************************************************
 140:Generated_Source\PSoC4/Display_SPI.c **** * Function Name: Display_SPI_Start
 141:Generated_Source\PSoC4/Display_SPI.c **** ********************************************************************************
 142:Generated_Source\PSoC4/Display_SPI.c **** *
 143:Generated_Source\PSoC4/Display_SPI.c **** * Summary:
 144:Generated_Source\PSoC4/Display_SPI.c **** *  Initialize and Enable the SPI Master component.
ARM GAS  C:\Users\VIDEOH~1\AppData\Local\Temp\ccqaCiob.s 			page 5


 145:Generated_Source\PSoC4/Display_SPI.c **** *
 146:Generated_Source\PSoC4/Display_SPI.c **** * Parameters:
 147:Generated_Source\PSoC4/Display_SPI.c **** *  None.
 148:Generated_Source\PSoC4/Display_SPI.c **** *
 149:Generated_Source\PSoC4/Display_SPI.c **** * Return:
 150:Generated_Source\PSoC4/Display_SPI.c **** *  None.
 151:Generated_Source\PSoC4/Display_SPI.c **** *
 152:Generated_Source\PSoC4/Display_SPI.c **** * Global variables:
 153:Generated_Source\PSoC4/Display_SPI.c **** *  Display_SPI_initVar - used to check initial configuration, modified on
 154:Generated_Source\PSoC4/Display_SPI.c **** *  first function call.
 155:Generated_Source\PSoC4/Display_SPI.c **** *
 156:Generated_Source\PSoC4/Display_SPI.c **** * Theory:
 157:Generated_Source\PSoC4/Display_SPI.c **** *  Enable the clock input to enable operation.
 158:Generated_Source\PSoC4/Display_SPI.c **** *
 159:Generated_Source\PSoC4/Display_SPI.c **** * Reentrant:
 160:Generated_Source\PSoC4/Display_SPI.c **** *  No.
 161:Generated_Source\PSoC4/Display_SPI.c **** *
 162:Generated_Source\PSoC4/Display_SPI.c **** *******************************************************************************/
 163:Generated_Source\PSoC4/Display_SPI.c **** void Display_SPI_Start(void) 
 164:Generated_Source\PSoC4/Display_SPI.c **** {
 165:Generated_Source\PSoC4/Display_SPI.c ****     if(0u == Display_SPI_initVar)
 166:Generated_Source\PSoC4/Display_SPI.c ****     {
 167:Generated_Source\PSoC4/Display_SPI.c ****         Display_SPI_Init();
 168:Generated_Source\PSoC4/Display_SPI.c ****         Display_SPI_initVar = 1u;
 169:Generated_Source\PSoC4/Display_SPI.c ****     }
 170:Generated_Source\PSoC4/Display_SPI.c **** 
 171:Generated_Source\PSoC4/Display_SPI.c ****     Display_SPI_Enable();
 172:Generated_Source\PSoC4/Display_SPI.c **** }
 173:Generated_Source\PSoC4/Display_SPI.c **** 
 174:Generated_Source\PSoC4/Display_SPI.c **** 
 175:Generated_Source\PSoC4/Display_SPI.c **** /*******************************************************************************
 176:Generated_Source\PSoC4/Display_SPI.c **** * Function Name: Display_SPI_Stop
 177:Generated_Source\PSoC4/Display_SPI.c **** ********************************************************************************
 178:Generated_Source\PSoC4/Display_SPI.c **** *
 179:Generated_Source\PSoC4/Display_SPI.c **** * Summary:
 180:Generated_Source\PSoC4/Display_SPI.c **** *  Disable the SPI Master component.
 181:Generated_Source\PSoC4/Display_SPI.c **** *
 182:Generated_Source\PSoC4/Display_SPI.c **** * Parameters:
 183:Generated_Source\PSoC4/Display_SPI.c **** *  None.
 184:Generated_Source\PSoC4/Display_SPI.c **** *
 185:Generated_Source\PSoC4/Display_SPI.c **** * Return:
 186:Generated_Source\PSoC4/Display_SPI.c **** *  None.
 187:Generated_Source\PSoC4/Display_SPI.c **** *
 188:Generated_Source\PSoC4/Display_SPI.c **** * Theory:
 189:Generated_Source\PSoC4/Display_SPI.c **** *  Disable the clock input to enable operation.
 190:Generated_Source\PSoC4/Display_SPI.c **** *
 191:Generated_Source\PSoC4/Display_SPI.c **** *******************************************************************************/
 192:Generated_Source\PSoC4/Display_SPI.c **** void Display_SPI_Stop(void) 
 193:Generated_Source\PSoC4/Display_SPI.c **** {
  81              		.loc 1 193 0
  82              		.cfi_startproc
  83              		@ args = 0, pretend = 0, frame = 0
  84              		@ frame_needed = 0, uses_anonymous_args = 0
  85 0000 10B5     		push	{r4, lr}
  86              		.cfi_def_cfa_offset 8
  87              		.cfi_offset 4, -8
  88              		.cfi_offset 14, -4
ARM GAS  C:\Users\VIDEOH~1\AppData\Local\Temp\ccqaCiob.s 			page 6


 194:Generated_Source\PSoC4/Display_SPI.c ****     uint8 enableInterrupts;
 195:Generated_Source\PSoC4/Display_SPI.c **** 
 196:Generated_Source\PSoC4/Display_SPI.c ****     enableInterrupts = CyEnterCriticalSection();
  89              		.loc 1 196 0
  90 0002 FFF7FEFF 		bl	CyEnterCriticalSection
  91              	.LVL2:
 197:Generated_Source\PSoC4/Display_SPI.c ****     Display_SPI_TX_STATUS_ACTL_REG &= ((uint8) ~Display_SPI_INT_ENABLE);
  92              		.loc 1 197 0
  93 0006 1021     		movs	r1, #16
  94 0008 054A     		ldr	r2, .L5
 198:Generated_Source\PSoC4/Display_SPI.c ****     Display_SPI_RX_STATUS_ACTL_REG &= ((uint8) ~Display_SPI_INT_ENABLE);
 199:Generated_Source\PSoC4/Display_SPI.c ****     CyExitCriticalSection(enableInterrupts);
 200:Generated_Source\PSoC4/Display_SPI.c **** 
 201:Generated_Source\PSoC4/Display_SPI.c ****     #if(0u != Display_SPI_INTERNAL_CLOCK)
 202:Generated_Source\PSoC4/Display_SPI.c ****         Display_SPI_IntClock_Disable();
 203:Generated_Source\PSoC4/Display_SPI.c ****     #endif /* (0u != Display_SPI_INTERNAL_CLOCK) */
 204:Generated_Source\PSoC4/Display_SPI.c **** 
 205:Generated_Source\PSoC4/Display_SPI.c ****     Display_SPI_DisableTxInt();
 206:Generated_Source\PSoC4/Display_SPI.c ****     Display_SPI_DisableRxInt();
 207:Generated_Source\PSoC4/Display_SPI.c **** }
  95              		.loc 1 207 0
  96              		@ sp needed
 197:Generated_Source\PSoC4/Display_SPI.c ****     Display_SPI_TX_STATUS_ACTL_REG &= ((uint8) ~Display_SPI_INT_ENABLE);
  97              		.loc 1 197 0
  98 000a 1378     		ldrb	r3, [r2]
  99 000c 8B43     		bics	r3, r1
 100 000e 1370     		strb	r3, [r2]
 198:Generated_Source\PSoC4/Display_SPI.c ****     Display_SPI_RX_STATUS_ACTL_REG &= ((uint8) ~Display_SPI_INT_ENABLE);
 101              		.loc 1 198 0
 102 0010 044A     		ldr	r2, .L5+4
 103 0012 1378     		ldrb	r3, [r2]
 104 0014 8B43     		bics	r3, r1
 105 0016 1370     		strb	r3, [r2]
 199:Generated_Source\PSoC4/Display_SPI.c **** 
 106              		.loc 1 199 0
 107 0018 FFF7FEFF 		bl	CyExitCriticalSection
 108              	.LVL3:
 109              		.loc 1 207 0
 110 001c 10BD     		pop	{r4, pc}
 111              	.L6:
 112 001e C046     		.align	2
 113              	.L5:
 114 0020 92000F40 		.word	1074725010
 115 0024 93000F40 		.word	1074725011
 116              		.cfi_endproc
 117              	.LFE3:
 118              		.size	Display_SPI_Stop, .-Display_SPI_Stop
 119              		.section	.text.Display_SPI_EnableTxInt,"ax",%progbits
 120              		.align	1
 121              		.global	Display_SPI_EnableTxInt
 122              		.code	16
 123              		.thumb_func
 124              		.type	Display_SPI_EnableTxInt, %function
 125              	Display_SPI_EnableTxInt:
 126              	.LFB33:
 127              		.cfi_startproc
 128              		@ args = 0, pretend = 0, frame = 0
ARM GAS  C:\Users\VIDEOH~1\AppData\Local\Temp\ccqaCiob.s 			page 7


 129              		@ frame_needed = 0, uses_anonymous_args = 0
 130              		@ link register save eliminated.
 131              		@ sp needed
 132 0000 7047     		bx	lr
 133              		.cfi_endproc
 134              	.LFE33:
 135              		.size	Display_SPI_EnableTxInt, .-Display_SPI_EnableTxInt
 136              		.section	.text.Display_SPI_EnableRxInt,"ax",%progbits
 137              		.align	1
 138              		.global	Display_SPI_EnableRxInt
 139              		.code	16
 140              		.thumb_func
 141              		.type	Display_SPI_EnableRxInt, %function
 142              	Display_SPI_EnableRxInt:
 143              	.LFB31:
 144              		.cfi_startproc
 145              		@ args = 0, pretend = 0, frame = 0
 146              		@ frame_needed = 0, uses_anonymous_args = 0
 147              		@ link register save eliminated.
 148              		@ sp needed
 149 0000 7047     		bx	lr
 150              		.cfi_endproc
 151              	.LFE31:
 152              		.size	Display_SPI_EnableRxInt, .-Display_SPI_EnableRxInt
 153              		.section	.text.Display_SPI_DisableTxInt,"ax",%progbits
 154              		.align	1
 155              		.global	Display_SPI_DisableTxInt
 156              		.code	16
 157              		.thumb_func
 158              		.type	Display_SPI_DisableTxInt, %function
 159              	Display_SPI_DisableTxInt:
 160              	.LFB29:
 161              		.cfi_startproc
 162              		@ args = 0, pretend = 0, frame = 0
 163              		@ frame_needed = 0, uses_anonymous_args = 0
 164              		@ link register save eliminated.
 165              		@ sp needed
 166 0000 7047     		bx	lr
 167              		.cfi_endproc
 168              	.LFE29:
 169              		.size	Display_SPI_DisableTxInt, .-Display_SPI_DisableTxInt
 170              		.section	.text.Display_SPI_DisableRxInt,"ax",%progbits
 171              		.align	1
 172              		.global	Display_SPI_DisableRxInt
 173              		.code	16
 174              		.thumb_func
 175              		.type	Display_SPI_DisableRxInt, %function
 176              	Display_SPI_DisableRxInt:
 177              	.LFB27:
 178              		.cfi_startproc
 179              		@ args = 0, pretend = 0, frame = 0
 180              		@ frame_needed = 0, uses_anonymous_args = 0
 181              		@ link register save eliminated.
 182              		@ sp needed
 183 0000 7047     		bx	lr
 184              		.cfi_endproc
 185              	.LFE27:
ARM GAS  C:\Users\VIDEOH~1\AppData\Local\Temp\ccqaCiob.s 			page 8


 186              		.size	Display_SPI_DisableRxInt, .-Display_SPI_DisableRxInt
 187              		.section	.text.Display_SPI_SetTxInterruptMode,"ax",%progbits
 188              		.align	1
 189              		.global	Display_SPI_SetTxInterruptMode
 190              		.code	16
 191              		.thumb_func
 192              		.type	Display_SPI_SetTxInterruptMode, %function
 193              	Display_SPI_SetTxInterruptMode:
 194              	.LFB8:
 208:Generated_Source\PSoC4/Display_SPI.c **** 
 209:Generated_Source\PSoC4/Display_SPI.c **** 
 210:Generated_Source\PSoC4/Display_SPI.c **** /*******************************************************************************
 211:Generated_Source\PSoC4/Display_SPI.c **** * Function Name: Display_SPI_EnableTxInt
 212:Generated_Source\PSoC4/Display_SPI.c **** ********************************************************************************
 213:Generated_Source\PSoC4/Display_SPI.c **** *
 214:Generated_Source\PSoC4/Display_SPI.c **** * Summary:
 215:Generated_Source\PSoC4/Display_SPI.c **** *  Enable internal Tx interrupt generation.
 216:Generated_Source\PSoC4/Display_SPI.c **** *
 217:Generated_Source\PSoC4/Display_SPI.c **** * Parameters:
 218:Generated_Source\PSoC4/Display_SPI.c **** *  None.
 219:Generated_Source\PSoC4/Display_SPI.c **** *
 220:Generated_Source\PSoC4/Display_SPI.c **** * Return:
 221:Generated_Source\PSoC4/Display_SPI.c **** *  None.
 222:Generated_Source\PSoC4/Display_SPI.c **** *
 223:Generated_Source\PSoC4/Display_SPI.c **** * Theory:
 224:Generated_Source\PSoC4/Display_SPI.c **** *  Enable the internal Tx interrupt output -or- the interrupt component itself.
 225:Generated_Source\PSoC4/Display_SPI.c **** *
 226:Generated_Source\PSoC4/Display_SPI.c **** *******************************************************************************/
 227:Generated_Source\PSoC4/Display_SPI.c **** void Display_SPI_EnableTxInt(void) 
 228:Generated_Source\PSoC4/Display_SPI.c **** {
 229:Generated_Source\PSoC4/Display_SPI.c ****     #if(0u != Display_SPI_INTERNAL_TX_INT_ENABLED)
 230:Generated_Source\PSoC4/Display_SPI.c ****         CyIntEnable(Display_SPI_TX_ISR_NUMBER);
 231:Generated_Source\PSoC4/Display_SPI.c ****     #endif /* (0u != Display_SPI_INTERNAL_TX_INT_ENABLED) */
 232:Generated_Source\PSoC4/Display_SPI.c **** }
 233:Generated_Source\PSoC4/Display_SPI.c **** 
 234:Generated_Source\PSoC4/Display_SPI.c **** 
 235:Generated_Source\PSoC4/Display_SPI.c **** /*******************************************************************************
 236:Generated_Source\PSoC4/Display_SPI.c **** * Function Name: Display_SPI_EnableRxInt
 237:Generated_Source\PSoC4/Display_SPI.c **** ********************************************************************************
 238:Generated_Source\PSoC4/Display_SPI.c **** *
 239:Generated_Source\PSoC4/Display_SPI.c **** * Summary:
 240:Generated_Source\PSoC4/Display_SPI.c **** *  Enable internal Rx interrupt generation.
 241:Generated_Source\PSoC4/Display_SPI.c **** *
 242:Generated_Source\PSoC4/Display_SPI.c **** * Parameters:
 243:Generated_Source\PSoC4/Display_SPI.c **** *  None.
 244:Generated_Source\PSoC4/Display_SPI.c **** *
 245:Generated_Source\PSoC4/Display_SPI.c **** * Return:
 246:Generated_Source\PSoC4/Display_SPI.c **** *  None.
 247:Generated_Source\PSoC4/Display_SPI.c **** *
 248:Generated_Source\PSoC4/Display_SPI.c **** * Theory:
 249:Generated_Source\PSoC4/Display_SPI.c **** *  Enable the internal Rx interrupt output -or- the interrupt component itself.
 250:Generated_Source\PSoC4/Display_SPI.c **** *
 251:Generated_Source\PSoC4/Display_SPI.c **** *******************************************************************************/
 252:Generated_Source\PSoC4/Display_SPI.c **** void Display_SPI_EnableRxInt(void) 
 253:Generated_Source\PSoC4/Display_SPI.c **** {
 254:Generated_Source\PSoC4/Display_SPI.c ****     #if(0u != Display_SPI_INTERNAL_RX_INT_ENABLED)
 255:Generated_Source\PSoC4/Display_SPI.c ****         CyIntEnable(Display_SPI_RX_ISR_NUMBER);
ARM GAS  C:\Users\VIDEOH~1\AppData\Local\Temp\ccqaCiob.s 			page 9


 256:Generated_Source\PSoC4/Display_SPI.c ****     #endif /* (0u != Display_SPI_INTERNAL_RX_INT_ENABLED) */
 257:Generated_Source\PSoC4/Display_SPI.c **** }
 258:Generated_Source\PSoC4/Display_SPI.c **** 
 259:Generated_Source\PSoC4/Display_SPI.c **** 
 260:Generated_Source\PSoC4/Display_SPI.c **** /*******************************************************************************
 261:Generated_Source\PSoC4/Display_SPI.c **** * Function Name: Display_SPI_DisableTxInt
 262:Generated_Source\PSoC4/Display_SPI.c **** ********************************************************************************
 263:Generated_Source\PSoC4/Display_SPI.c **** *
 264:Generated_Source\PSoC4/Display_SPI.c **** * Summary:
 265:Generated_Source\PSoC4/Display_SPI.c **** *  Disable internal Tx interrupt generation.
 266:Generated_Source\PSoC4/Display_SPI.c **** *
 267:Generated_Source\PSoC4/Display_SPI.c **** * Parameters:
 268:Generated_Source\PSoC4/Display_SPI.c **** *  None.
 269:Generated_Source\PSoC4/Display_SPI.c **** *
 270:Generated_Source\PSoC4/Display_SPI.c **** * Return:
 271:Generated_Source\PSoC4/Display_SPI.c **** *  None.
 272:Generated_Source\PSoC4/Display_SPI.c **** *
 273:Generated_Source\PSoC4/Display_SPI.c **** * Theory:
 274:Generated_Source\PSoC4/Display_SPI.c **** *  Disable the internal Tx interrupt output -or- the interrupt component itself.
 275:Generated_Source\PSoC4/Display_SPI.c **** *
 276:Generated_Source\PSoC4/Display_SPI.c **** *******************************************************************************/
 277:Generated_Source\PSoC4/Display_SPI.c **** void Display_SPI_DisableTxInt(void) 
 278:Generated_Source\PSoC4/Display_SPI.c **** {
 279:Generated_Source\PSoC4/Display_SPI.c ****     #if(0u != Display_SPI_INTERNAL_TX_INT_ENABLED)
 280:Generated_Source\PSoC4/Display_SPI.c ****         CyIntDisable(Display_SPI_TX_ISR_NUMBER);
 281:Generated_Source\PSoC4/Display_SPI.c ****     #endif /* (0u != Display_SPI_INTERNAL_TX_INT_ENABLED) */
 282:Generated_Source\PSoC4/Display_SPI.c **** }
 283:Generated_Source\PSoC4/Display_SPI.c **** 
 284:Generated_Source\PSoC4/Display_SPI.c **** 
 285:Generated_Source\PSoC4/Display_SPI.c **** /*******************************************************************************
 286:Generated_Source\PSoC4/Display_SPI.c **** * Function Name: Display_SPI_DisableRxInt
 287:Generated_Source\PSoC4/Display_SPI.c **** ********************************************************************************
 288:Generated_Source\PSoC4/Display_SPI.c **** *
 289:Generated_Source\PSoC4/Display_SPI.c **** * Summary:
 290:Generated_Source\PSoC4/Display_SPI.c **** *  Disable internal Rx interrupt generation.
 291:Generated_Source\PSoC4/Display_SPI.c **** *
 292:Generated_Source\PSoC4/Display_SPI.c **** * Parameters:
 293:Generated_Source\PSoC4/Display_SPI.c **** *  None.
 294:Generated_Source\PSoC4/Display_SPI.c **** *
 295:Generated_Source\PSoC4/Display_SPI.c **** * Return:
 296:Generated_Source\PSoC4/Display_SPI.c **** *  None.
 297:Generated_Source\PSoC4/Display_SPI.c **** *
 298:Generated_Source\PSoC4/Display_SPI.c **** * Theory:
 299:Generated_Source\PSoC4/Display_SPI.c **** *  Disable the internal Rx interrupt output -or- the interrupt component itself.
 300:Generated_Source\PSoC4/Display_SPI.c **** *
 301:Generated_Source\PSoC4/Display_SPI.c **** *******************************************************************************/
 302:Generated_Source\PSoC4/Display_SPI.c **** void Display_SPI_DisableRxInt(void) 
 303:Generated_Source\PSoC4/Display_SPI.c **** {
 304:Generated_Source\PSoC4/Display_SPI.c ****     #if(0u != Display_SPI_INTERNAL_RX_INT_ENABLED)
 305:Generated_Source\PSoC4/Display_SPI.c ****         CyIntDisable(Display_SPI_RX_ISR_NUMBER);
 306:Generated_Source\PSoC4/Display_SPI.c ****     #endif /* (0u != Display_SPI_INTERNAL_RX_INT_ENABLED) */
 307:Generated_Source\PSoC4/Display_SPI.c **** }
 308:Generated_Source\PSoC4/Display_SPI.c **** 
 309:Generated_Source\PSoC4/Display_SPI.c **** 
 310:Generated_Source\PSoC4/Display_SPI.c **** /*******************************************************************************
 311:Generated_Source\PSoC4/Display_SPI.c **** * Function Name: Display_SPI_SetTxInterruptMode
 312:Generated_Source\PSoC4/Display_SPI.c **** ********************************************************************************
ARM GAS  C:\Users\VIDEOH~1\AppData\Local\Temp\ccqaCiob.s 			page 10


 313:Generated_Source\PSoC4/Display_SPI.c **** *
 314:Generated_Source\PSoC4/Display_SPI.c **** * Summary:
 315:Generated_Source\PSoC4/Display_SPI.c **** *  Configure which status bits trigger an interrupt event.
 316:Generated_Source\PSoC4/Display_SPI.c **** *
 317:Generated_Source\PSoC4/Display_SPI.c **** * Parameters:
 318:Generated_Source\PSoC4/Display_SPI.c **** *  intSrc: An or'd combination of the desired status bit masks (defined in the
 319:Generated_Source\PSoC4/Display_SPI.c **** *  header file).
 320:Generated_Source\PSoC4/Display_SPI.c **** *
 321:Generated_Source\PSoC4/Display_SPI.c **** * Return:
 322:Generated_Source\PSoC4/Display_SPI.c **** *  None.
 323:Generated_Source\PSoC4/Display_SPI.c **** *
 324:Generated_Source\PSoC4/Display_SPI.c **** * Theory:
 325:Generated_Source\PSoC4/Display_SPI.c **** *  Enables the output of specific status bits to the interrupt controller.
 326:Generated_Source\PSoC4/Display_SPI.c **** *
 327:Generated_Source\PSoC4/Display_SPI.c **** *******************************************************************************/
 328:Generated_Source\PSoC4/Display_SPI.c **** void Display_SPI_SetTxInterruptMode(uint8 intSrc) 
 329:Generated_Source\PSoC4/Display_SPI.c **** {
 195              		.loc 1 329 0
 196              		.cfi_startproc
 197              		@ args = 0, pretend = 0, frame = 0
 198              		@ frame_needed = 0, uses_anonymous_args = 0
 199              		@ link register save eliminated.
 200              	.LVL4:
 330:Generated_Source\PSoC4/Display_SPI.c ****     Display_SPI_TX_STATUS_MASK_REG = intSrc;
 201              		.loc 1 330 0
 202 0000 014B     		ldr	r3, .L12
 331:Generated_Source\PSoC4/Display_SPI.c **** }
 203              		.loc 1 331 0
 204              		@ sp needed
 330:Generated_Source\PSoC4/Display_SPI.c ****     Display_SPI_TX_STATUS_MASK_REG = intSrc;
 205              		.loc 1 330 0
 206 0002 1870     		strb	r0, [r3]
 207              		.loc 1 331 0
 208 0004 7047     		bx	lr
 209              	.L13:
 210 0006 C046     		.align	2
 211              	.L12:
 212 0008 82000F40 		.word	1074724994
 213              		.cfi_endproc
 214              	.LFE8:
 215              		.size	Display_SPI_SetTxInterruptMode, .-Display_SPI_SetTxInterruptMode
 216              		.section	.text.Display_SPI_SetRxInterruptMode,"ax",%progbits
 217              		.align	1
 218              		.global	Display_SPI_SetRxInterruptMode
 219              		.code	16
 220              		.thumb_func
 221              		.type	Display_SPI_SetRxInterruptMode, %function
 222              	Display_SPI_SetRxInterruptMode:
 223              	.LFB9:
 332:Generated_Source\PSoC4/Display_SPI.c **** 
 333:Generated_Source\PSoC4/Display_SPI.c **** 
 334:Generated_Source\PSoC4/Display_SPI.c **** /*******************************************************************************
 335:Generated_Source\PSoC4/Display_SPI.c **** * Function Name: Display_SPI_SetRxInterruptMode
 336:Generated_Source\PSoC4/Display_SPI.c **** ********************************************************************************
 337:Generated_Source\PSoC4/Display_SPI.c **** *
 338:Generated_Source\PSoC4/Display_SPI.c **** * Summary:
 339:Generated_Source\PSoC4/Display_SPI.c **** *  Configure which status bits trigger an interrupt event.
ARM GAS  C:\Users\VIDEOH~1\AppData\Local\Temp\ccqaCiob.s 			page 11


 340:Generated_Source\PSoC4/Display_SPI.c **** *
 341:Generated_Source\PSoC4/Display_SPI.c **** * Parameters:
 342:Generated_Source\PSoC4/Display_SPI.c **** *  intSrc: An or'd combination of the desired status bit masks (defined in the
 343:Generated_Source\PSoC4/Display_SPI.c **** *  header file).
 344:Generated_Source\PSoC4/Display_SPI.c **** *
 345:Generated_Source\PSoC4/Display_SPI.c **** * Return:
 346:Generated_Source\PSoC4/Display_SPI.c **** *  None.
 347:Generated_Source\PSoC4/Display_SPI.c **** *
 348:Generated_Source\PSoC4/Display_SPI.c **** * Theory:
 349:Generated_Source\PSoC4/Display_SPI.c **** *  Enables the output of specific status bits to the interrupt controller.
 350:Generated_Source\PSoC4/Display_SPI.c **** *
 351:Generated_Source\PSoC4/Display_SPI.c **** *******************************************************************************/
 352:Generated_Source\PSoC4/Display_SPI.c **** void Display_SPI_SetRxInterruptMode(uint8 intSrc) 
 353:Generated_Source\PSoC4/Display_SPI.c **** {
 224              		.loc 1 353 0
 225              		.cfi_startproc
 226              		@ args = 0, pretend = 0, frame = 0
 227              		@ frame_needed = 0, uses_anonymous_args = 0
 228              		@ link register save eliminated.
 229              	.LVL5:
 354:Generated_Source\PSoC4/Display_SPI.c ****     Display_SPI_RX_STATUS_MASK_REG  = intSrc;
 230              		.loc 1 354 0
 231 0000 014B     		ldr	r3, .L15
 355:Generated_Source\PSoC4/Display_SPI.c **** }
 232              		.loc 1 355 0
 233              		@ sp needed
 354:Generated_Source\PSoC4/Display_SPI.c ****     Display_SPI_RX_STATUS_MASK_REG  = intSrc;
 234              		.loc 1 354 0
 235 0002 1870     		strb	r0, [r3]
 236              		.loc 1 355 0
 237 0004 7047     		bx	lr
 238              	.L16:
 239 0006 C046     		.align	2
 240              	.L15:
 241 0008 83000F40 		.word	1074724995
 242              		.cfi_endproc
 243              	.LFE9:
 244              		.size	Display_SPI_SetRxInterruptMode, .-Display_SPI_SetRxInterruptMode
 245              		.section	.text.Display_SPI_ReadTxStatus,"ax",%progbits
 246              		.align	1
 247              		.global	Display_SPI_ReadTxStatus
 248              		.code	16
 249              		.thumb_func
 250              		.type	Display_SPI_ReadTxStatus, %function
 251              	Display_SPI_ReadTxStatus:
 252              	.LFB10:
 356:Generated_Source\PSoC4/Display_SPI.c **** 
 357:Generated_Source\PSoC4/Display_SPI.c **** 
 358:Generated_Source\PSoC4/Display_SPI.c **** /*******************************************************************************
 359:Generated_Source\PSoC4/Display_SPI.c **** * Function Name: Display_SPI_ReadTxStatus
 360:Generated_Source\PSoC4/Display_SPI.c **** ********************************************************************************
 361:Generated_Source\PSoC4/Display_SPI.c **** *
 362:Generated_Source\PSoC4/Display_SPI.c **** * Summary:
 363:Generated_Source\PSoC4/Display_SPI.c **** *  Read the Tx status register for the component.
 364:Generated_Source\PSoC4/Display_SPI.c **** *
 365:Generated_Source\PSoC4/Display_SPI.c **** * Parameters:
 366:Generated_Source\PSoC4/Display_SPI.c **** *  None.
ARM GAS  C:\Users\VIDEOH~1\AppData\Local\Temp\ccqaCiob.s 			page 12


 367:Generated_Source\PSoC4/Display_SPI.c **** *
 368:Generated_Source\PSoC4/Display_SPI.c **** * Return:
 369:Generated_Source\PSoC4/Display_SPI.c **** *  Contents of the Tx status register.
 370:Generated_Source\PSoC4/Display_SPI.c **** *
 371:Generated_Source\PSoC4/Display_SPI.c **** * Global variables:
 372:Generated_Source\PSoC4/Display_SPI.c **** *  Display_SPI_swStatusTx - used to store in software status register,
 373:Generated_Source\PSoC4/Display_SPI.c **** *  modified every function call - resets to zero.
 374:Generated_Source\PSoC4/Display_SPI.c **** *
 375:Generated_Source\PSoC4/Display_SPI.c **** * Theory:
 376:Generated_Source\PSoC4/Display_SPI.c **** *  Allows the user and the API to read the Tx status register for error
 377:Generated_Source\PSoC4/Display_SPI.c **** *  detection and flow control.
 378:Generated_Source\PSoC4/Display_SPI.c **** *
 379:Generated_Source\PSoC4/Display_SPI.c **** * Side Effects:
 380:Generated_Source\PSoC4/Display_SPI.c **** *  Clear Tx status register of the component.
 381:Generated_Source\PSoC4/Display_SPI.c **** *
 382:Generated_Source\PSoC4/Display_SPI.c **** * Reentrant:
 383:Generated_Source\PSoC4/Display_SPI.c **** *  No.
 384:Generated_Source\PSoC4/Display_SPI.c **** *
 385:Generated_Source\PSoC4/Display_SPI.c **** *******************************************************************************/
 386:Generated_Source\PSoC4/Display_SPI.c **** uint8 Display_SPI_ReadTxStatus(void) 
 387:Generated_Source\PSoC4/Display_SPI.c **** {
 253              		.loc 1 387 0
 254              		.cfi_startproc
 255              		@ args = 0, pretend = 0, frame = 0
 256              		@ frame_needed = 0, uses_anonymous_args = 0
 257              		@ link register save eliminated.
 388:Generated_Source\PSoC4/Display_SPI.c ****     uint8 tmpStatus;
 389:Generated_Source\PSoC4/Display_SPI.c **** 
 390:Generated_Source\PSoC4/Display_SPI.c ****     #if(Display_SPI_TX_SOFTWARE_BUF_ENABLED)
 391:Generated_Source\PSoC4/Display_SPI.c ****         /* Disable TX interrupt to protect global veriables */
 392:Generated_Source\PSoC4/Display_SPI.c ****         Display_SPI_DisableTxInt();
 393:Generated_Source\PSoC4/Display_SPI.c **** 
 394:Generated_Source\PSoC4/Display_SPI.c ****         tmpStatus = Display_SPI_GET_STATUS_TX(Display_SPI_swStatusTx);
 395:Generated_Source\PSoC4/Display_SPI.c ****         Display_SPI_swStatusTx = 0u;
 396:Generated_Source\PSoC4/Display_SPI.c **** 
 397:Generated_Source\PSoC4/Display_SPI.c ****         Display_SPI_EnableTxInt();
 398:Generated_Source\PSoC4/Display_SPI.c **** 
 399:Generated_Source\PSoC4/Display_SPI.c ****     #else
 400:Generated_Source\PSoC4/Display_SPI.c **** 
 401:Generated_Source\PSoC4/Display_SPI.c ****         tmpStatus = Display_SPI_TX_STATUS_REG;
 258              		.loc 1 401 0
 259 0000 014B     		ldr	r3, .L18
 402:Generated_Source\PSoC4/Display_SPI.c **** 
 403:Generated_Source\PSoC4/Display_SPI.c ****     #endif /* (Display_SPI_TX_SOFTWARE_BUF_ENABLED) */
 404:Generated_Source\PSoC4/Display_SPI.c **** 
 405:Generated_Source\PSoC4/Display_SPI.c ****     return(tmpStatus);
 406:Generated_Source\PSoC4/Display_SPI.c **** }
 260              		.loc 1 406 0
 261              		@ sp needed
 401:Generated_Source\PSoC4/Display_SPI.c **** 
 262              		.loc 1 401 0
 263 0002 1878     		ldrb	r0, [r3]
 264 0004 C0B2     		uxtb	r0, r0
 265              	.LVL6:
 266              		.loc 1 406 0
 267 0006 7047     		bx	lr
 268              	.L19:
ARM GAS  C:\Users\VIDEOH~1\AppData\Local\Temp\ccqaCiob.s 			page 13


 269              		.align	2
 270              	.L18:
 271 0008 62000F40 		.word	1074724962
 272              		.cfi_endproc
 273              	.LFE10:
 274              		.size	Display_SPI_ReadTxStatus, .-Display_SPI_ReadTxStatus
 275              		.section	.text.Display_SPI_ReadRxStatus,"ax",%progbits
 276              		.align	1
 277              		.global	Display_SPI_ReadRxStatus
 278              		.code	16
 279              		.thumb_func
 280              		.type	Display_SPI_ReadRxStatus, %function
 281              	Display_SPI_ReadRxStatus:
 282              	.LFB11:
 407:Generated_Source\PSoC4/Display_SPI.c **** 
 408:Generated_Source\PSoC4/Display_SPI.c **** 
 409:Generated_Source\PSoC4/Display_SPI.c **** /*******************************************************************************
 410:Generated_Source\PSoC4/Display_SPI.c **** * Function Name: Display_SPI_ReadRxStatus
 411:Generated_Source\PSoC4/Display_SPI.c **** ********************************************************************************
 412:Generated_Source\PSoC4/Display_SPI.c **** *
 413:Generated_Source\PSoC4/Display_SPI.c **** * Summary:
 414:Generated_Source\PSoC4/Display_SPI.c **** *  Read the Rx status register for the component.
 415:Generated_Source\PSoC4/Display_SPI.c **** *
 416:Generated_Source\PSoC4/Display_SPI.c **** * Parameters:
 417:Generated_Source\PSoC4/Display_SPI.c **** *  None.
 418:Generated_Source\PSoC4/Display_SPI.c **** *
 419:Generated_Source\PSoC4/Display_SPI.c **** * Return:
 420:Generated_Source\PSoC4/Display_SPI.c **** *  Contents of the Rx status register.
 421:Generated_Source\PSoC4/Display_SPI.c **** *
 422:Generated_Source\PSoC4/Display_SPI.c **** * Global variables:
 423:Generated_Source\PSoC4/Display_SPI.c **** *  Display_SPI_swStatusRx - used to store in software Rx status register,
 424:Generated_Source\PSoC4/Display_SPI.c **** *  modified every function call - resets to zero.
 425:Generated_Source\PSoC4/Display_SPI.c **** *
 426:Generated_Source\PSoC4/Display_SPI.c **** * Theory:
 427:Generated_Source\PSoC4/Display_SPI.c **** *  Allows the user and the API to read the Rx status register for error
 428:Generated_Source\PSoC4/Display_SPI.c **** *  detection and flow control.
 429:Generated_Source\PSoC4/Display_SPI.c **** *
 430:Generated_Source\PSoC4/Display_SPI.c **** * Side Effects:
 431:Generated_Source\PSoC4/Display_SPI.c **** *  Clear Rx status register of the component.
 432:Generated_Source\PSoC4/Display_SPI.c **** *
 433:Generated_Source\PSoC4/Display_SPI.c **** * Reentrant:
 434:Generated_Source\PSoC4/Display_SPI.c **** *  No.
 435:Generated_Source\PSoC4/Display_SPI.c **** *
 436:Generated_Source\PSoC4/Display_SPI.c **** *******************************************************************************/
 437:Generated_Source\PSoC4/Display_SPI.c **** uint8 Display_SPI_ReadRxStatus(void) 
 438:Generated_Source\PSoC4/Display_SPI.c **** {
 283              		.loc 1 438 0
 284              		.cfi_startproc
 285              		@ args = 0, pretend = 0, frame = 0
 286              		@ frame_needed = 0, uses_anonymous_args = 0
 287              		@ link register save eliminated.
 439:Generated_Source\PSoC4/Display_SPI.c ****     uint8 tmpStatus;
 440:Generated_Source\PSoC4/Display_SPI.c **** 
 441:Generated_Source\PSoC4/Display_SPI.c ****     #if(Display_SPI_RX_SOFTWARE_BUF_ENABLED)
 442:Generated_Source\PSoC4/Display_SPI.c ****         /* Disable RX interrupt to protect global veriables */
 443:Generated_Source\PSoC4/Display_SPI.c ****         Display_SPI_DisableRxInt();
 444:Generated_Source\PSoC4/Display_SPI.c **** 
ARM GAS  C:\Users\VIDEOH~1\AppData\Local\Temp\ccqaCiob.s 			page 14


 445:Generated_Source\PSoC4/Display_SPI.c ****         tmpStatus = Display_SPI_GET_STATUS_RX(Display_SPI_swStatusRx);
 446:Generated_Source\PSoC4/Display_SPI.c ****         Display_SPI_swStatusRx = 0u;
 447:Generated_Source\PSoC4/Display_SPI.c **** 
 448:Generated_Source\PSoC4/Display_SPI.c ****         Display_SPI_EnableRxInt();
 449:Generated_Source\PSoC4/Display_SPI.c **** 
 450:Generated_Source\PSoC4/Display_SPI.c ****     #else
 451:Generated_Source\PSoC4/Display_SPI.c **** 
 452:Generated_Source\PSoC4/Display_SPI.c ****         tmpStatus = Display_SPI_RX_STATUS_REG;
 288              		.loc 1 452 0
 289 0000 014B     		ldr	r3, .L21
 453:Generated_Source\PSoC4/Display_SPI.c **** 
 454:Generated_Source\PSoC4/Display_SPI.c ****     #endif /* (Display_SPI_RX_SOFTWARE_BUF_ENABLED) */
 455:Generated_Source\PSoC4/Display_SPI.c **** 
 456:Generated_Source\PSoC4/Display_SPI.c ****     return(tmpStatus);
 457:Generated_Source\PSoC4/Display_SPI.c **** }
 290              		.loc 1 457 0
 291              		@ sp needed
 452:Generated_Source\PSoC4/Display_SPI.c **** 
 292              		.loc 1 452 0
 293 0002 1878     		ldrb	r0, [r3]
 294 0004 C0B2     		uxtb	r0, r0
 295              	.LVL7:
 296              		.loc 1 457 0
 297 0006 7047     		bx	lr
 298              	.L22:
 299              		.align	2
 300              	.L21:
 301 0008 63000F40 		.word	1074724963
 302              		.cfi_endproc
 303              	.LFE11:
 304              		.size	Display_SPI_ReadRxStatus, .-Display_SPI_ReadRxStatus
 305              		.section	.text.Display_SPI_WriteTxData,"ax",%progbits
 306              		.align	1
 307              		.global	Display_SPI_WriteTxData
 308              		.code	16
 309              		.thumb_func
 310              		.type	Display_SPI_WriteTxData, %function
 311              	Display_SPI_WriteTxData:
 312              	.LFB12:
 458:Generated_Source\PSoC4/Display_SPI.c **** 
 459:Generated_Source\PSoC4/Display_SPI.c **** 
 460:Generated_Source\PSoC4/Display_SPI.c **** /*******************************************************************************
 461:Generated_Source\PSoC4/Display_SPI.c **** * Function Name: Display_SPI_WriteTxData
 462:Generated_Source\PSoC4/Display_SPI.c **** ********************************************************************************
 463:Generated_Source\PSoC4/Display_SPI.c **** *
 464:Generated_Source\PSoC4/Display_SPI.c **** * Summary:
 465:Generated_Source\PSoC4/Display_SPI.c **** *  Write a byte of data to be sent across the SPI.
 466:Generated_Source\PSoC4/Display_SPI.c **** *
 467:Generated_Source\PSoC4/Display_SPI.c **** * Parameters:
 468:Generated_Source\PSoC4/Display_SPI.c **** *  txDataByte: The data value to send across the SPI.
 469:Generated_Source\PSoC4/Display_SPI.c **** *
 470:Generated_Source\PSoC4/Display_SPI.c **** * Return:
 471:Generated_Source\PSoC4/Display_SPI.c **** *  None.
 472:Generated_Source\PSoC4/Display_SPI.c **** *
 473:Generated_Source\PSoC4/Display_SPI.c **** * Global variables:
 474:Generated_Source\PSoC4/Display_SPI.c **** *  Display_SPI_txBufferWrite - used for the account of the bytes which
 475:Generated_Source\PSoC4/Display_SPI.c **** *  have been written down in the TX software buffer, modified every function
ARM GAS  C:\Users\VIDEOH~1\AppData\Local\Temp\ccqaCiob.s 			page 15


 476:Generated_Source\PSoC4/Display_SPI.c **** *  call if TX Software Buffer is used.
 477:Generated_Source\PSoC4/Display_SPI.c **** *  Display_SPI_txBufferRead - used for the account of the bytes which
 478:Generated_Source\PSoC4/Display_SPI.c **** *  have been read from the TX software buffer.
 479:Generated_Source\PSoC4/Display_SPI.c **** *  Display_SPI_txBuffer[Display_SPI_TX_BUFFER_SIZE] - used to store
 480:Generated_Source\PSoC4/Display_SPI.c **** *  data to sending, modified every function call if TX Software Buffer is used.
 481:Generated_Source\PSoC4/Display_SPI.c **** *
 482:Generated_Source\PSoC4/Display_SPI.c **** * Theory:
 483:Generated_Source\PSoC4/Display_SPI.c **** *  Allows the user to transmit any byte of data in a single transfer.
 484:Generated_Source\PSoC4/Display_SPI.c **** *
 485:Generated_Source\PSoC4/Display_SPI.c **** * Side Effects:
 486:Generated_Source\PSoC4/Display_SPI.c **** *  If this function is called again before the previous byte is finished then
 487:Generated_Source\PSoC4/Display_SPI.c **** *  the next byte will be appended to the transfer with no time between
 488:Generated_Source\PSoC4/Display_SPI.c **** *  the byte transfers. Clear Tx status register of the component.
 489:Generated_Source\PSoC4/Display_SPI.c **** *
 490:Generated_Source\PSoC4/Display_SPI.c **** * Reentrant:
 491:Generated_Source\PSoC4/Display_SPI.c **** *  No.
 492:Generated_Source\PSoC4/Display_SPI.c **** *
 493:Generated_Source\PSoC4/Display_SPI.c **** *******************************************************************************/
 494:Generated_Source\PSoC4/Display_SPI.c **** void Display_SPI_WriteTxData(uint8 txData) 
 495:Generated_Source\PSoC4/Display_SPI.c **** {
 313              		.loc 1 495 0
 314              		.cfi_startproc
 315              		@ args = 0, pretend = 0, frame = 0
 316              		@ frame_needed = 0, uses_anonymous_args = 0
 317              		@ link register save eliminated.
 318              	.LVL8:
 496:Generated_Source\PSoC4/Display_SPI.c ****     #if(Display_SPI_TX_SOFTWARE_BUF_ENABLED)
 497:Generated_Source\PSoC4/Display_SPI.c **** 
 498:Generated_Source\PSoC4/Display_SPI.c ****         uint8 tempStatus;
 499:Generated_Source\PSoC4/Display_SPI.c ****         uint8 tmpTxBufferRead;
 500:Generated_Source\PSoC4/Display_SPI.c **** 
 501:Generated_Source\PSoC4/Display_SPI.c ****         /* Block if TX buffer is FULL: don't overwrite */
 502:Generated_Source\PSoC4/Display_SPI.c ****         do
 503:Generated_Source\PSoC4/Display_SPI.c ****         {
 504:Generated_Source\PSoC4/Display_SPI.c ****             tmpTxBufferRead = Display_SPI_txBufferRead;
 505:Generated_Source\PSoC4/Display_SPI.c ****             if(0u == tmpTxBufferRead)
 506:Generated_Source\PSoC4/Display_SPI.c ****             {
 507:Generated_Source\PSoC4/Display_SPI.c ****                 tmpTxBufferRead = (Display_SPI_TX_BUFFER_SIZE - 1u);
 508:Generated_Source\PSoC4/Display_SPI.c ****             }
 509:Generated_Source\PSoC4/Display_SPI.c ****             else
 510:Generated_Source\PSoC4/Display_SPI.c ****             {
 511:Generated_Source\PSoC4/Display_SPI.c ****                 tmpTxBufferRead--;
 512:Generated_Source\PSoC4/Display_SPI.c ****             }
 513:Generated_Source\PSoC4/Display_SPI.c **** 
 514:Generated_Source\PSoC4/Display_SPI.c ****         }while(tmpTxBufferRead == Display_SPI_txBufferWrite);
 515:Generated_Source\PSoC4/Display_SPI.c **** 
 516:Generated_Source\PSoC4/Display_SPI.c ****         /* Disable TX interrupt to protect global veriables */
 517:Generated_Source\PSoC4/Display_SPI.c ****         Display_SPI_DisableTxInt();
 518:Generated_Source\PSoC4/Display_SPI.c **** 
 519:Generated_Source\PSoC4/Display_SPI.c ****         tempStatus = Display_SPI_GET_STATUS_TX(Display_SPI_swStatusTx);
 520:Generated_Source\PSoC4/Display_SPI.c ****         Display_SPI_swStatusTx = tempStatus;
 521:Generated_Source\PSoC4/Display_SPI.c **** 
 522:Generated_Source\PSoC4/Display_SPI.c **** 
 523:Generated_Source\PSoC4/Display_SPI.c ****         if((Display_SPI_txBufferRead == Display_SPI_txBufferWrite) &&
 524:Generated_Source\PSoC4/Display_SPI.c ****            (0u != (Display_SPI_swStatusTx & Display_SPI_STS_TX_FIFO_NOT_FULL)))
 525:Generated_Source\PSoC4/Display_SPI.c ****         {
 526:Generated_Source\PSoC4/Display_SPI.c ****             /* Put data element into the TX FIFO */
ARM GAS  C:\Users\VIDEOH~1\AppData\Local\Temp\ccqaCiob.s 			page 16


 527:Generated_Source\PSoC4/Display_SPI.c ****             CY_SET_REG8(Display_SPI_TXDATA_PTR, txData);
 528:Generated_Source\PSoC4/Display_SPI.c ****         }
 529:Generated_Source\PSoC4/Display_SPI.c ****         else
 530:Generated_Source\PSoC4/Display_SPI.c ****         {
 531:Generated_Source\PSoC4/Display_SPI.c ****             /* Add to the TX software buffer */
 532:Generated_Source\PSoC4/Display_SPI.c ****             Display_SPI_txBufferWrite++;
 533:Generated_Source\PSoC4/Display_SPI.c ****             if(Display_SPI_txBufferWrite >= Display_SPI_TX_BUFFER_SIZE)
 534:Generated_Source\PSoC4/Display_SPI.c ****             {
 535:Generated_Source\PSoC4/Display_SPI.c ****                 Display_SPI_txBufferWrite = 0u;
 536:Generated_Source\PSoC4/Display_SPI.c ****             }
 537:Generated_Source\PSoC4/Display_SPI.c **** 
 538:Generated_Source\PSoC4/Display_SPI.c ****             if(Display_SPI_txBufferWrite == Display_SPI_txBufferRead)
 539:Generated_Source\PSoC4/Display_SPI.c ****             {
 540:Generated_Source\PSoC4/Display_SPI.c ****                 Display_SPI_txBufferRead++;
 541:Generated_Source\PSoC4/Display_SPI.c ****                 if(Display_SPI_txBufferRead >= Display_SPI_TX_BUFFER_SIZE)
 542:Generated_Source\PSoC4/Display_SPI.c ****                 {
 543:Generated_Source\PSoC4/Display_SPI.c ****                     Display_SPI_txBufferRead = 0u;
 544:Generated_Source\PSoC4/Display_SPI.c ****                 }
 545:Generated_Source\PSoC4/Display_SPI.c ****                 Display_SPI_txBufferFull = 1u;
 546:Generated_Source\PSoC4/Display_SPI.c ****             }
 547:Generated_Source\PSoC4/Display_SPI.c **** 
 548:Generated_Source\PSoC4/Display_SPI.c ****             Display_SPI_txBuffer[Display_SPI_txBufferWrite] = txData;
 549:Generated_Source\PSoC4/Display_SPI.c **** 
 550:Generated_Source\PSoC4/Display_SPI.c ****             Display_SPI_TX_STATUS_MASK_REG |= Display_SPI_STS_TX_FIFO_NOT_FULL;
 551:Generated_Source\PSoC4/Display_SPI.c ****         }
 552:Generated_Source\PSoC4/Display_SPI.c **** 
 553:Generated_Source\PSoC4/Display_SPI.c ****         Display_SPI_EnableTxInt();
 554:Generated_Source\PSoC4/Display_SPI.c **** 
 555:Generated_Source\PSoC4/Display_SPI.c ****     #else
 556:Generated_Source\PSoC4/Display_SPI.c ****         /* Wait until TX FIFO has a place */
 557:Generated_Source\PSoC4/Display_SPI.c ****         while(0u == (Display_SPI_TX_STATUS_REG & Display_SPI_STS_TX_FIFO_NOT_FULL))
 319              		.loc 1 557 0
 320 0000 0423     		movs	r3, #4
 321 0002 0349     		ldr	r1, .L28
 322              	.L24:
 323              		.loc 1 557 0 is_stmt 0 discriminator 1
 324 0004 0A78     		ldrb	r2, [r1]
 325 0006 1A42     		tst	r2, r3
 326 0008 FCD0     		beq	.L24
 558:Generated_Source\PSoC4/Display_SPI.c ****         {
 559:Generated_Source\PSoC4/Display_SPI.c ****         }
 560:Generated_Source\PSoC4/Display_SPI.c **** 
 561:Generated_Source\PSoC4/Display_SPI.c ****         /* Put data element into the TX FIFO */
 562:Generated_Source\PSoC4/Display_SPI.c ****         CY_SET_REG8(Display_SPI_TXDATA_PTR, txData);
 327              		.loc 1 562 0 is_stmt 1
 328 000a 024B     		ldr	r3, .L28+4
 563:Generated_Source\PSoC4/Display_SPI.c **** 
 564:Generated_Source\PSoC4/Display_SPI.c ****     #endif /* (Display_SPI_TX_SOFTWARE_BUF_ENABLED) */
 565:Generated_Source\PSoC4/Display_SPI.c **** }
 329              		.loc 1 565 0
 330              		@ sp needed
 562:Generated_Source\PSoC4/Display_SPI.c **** 
 331              		.loc 1 562 0
 332 000c 1870     		strb	r0, [r3]
 333              		.loc 1 565 0
 334 000e 7047     		bx	lr
 335              	.L29:
ARM GAS  C:\Users\VIDEOH~1\AppData\Local\Temp\ccqaCiob.s 			page 17


 336              		.align	2
 337              	.L28:
 338 0010 62000F40 		.word	1074724962
 339 0014 41000F40 		.word	1074724929
 340              		.cfi_endproc
 341              	.LFE12:
 342              		.size	Display_SPI_WriteTxData, .-Display_SPI_WriteTxData
 343              		.section	.text.Display_SPI_ReadRxData,"ax",%progbits
 344              		.align	1
 345              		.global	Display_SPI_ReadRxData
 346              		.code	16
 347              		.thumb_func
 348              		.type	Display_SPI_ReadRxData, %function
 349              	Display_SPI_ReadRxData:
 350              	.LFB13:
 566:Generated_Source\PSoC4/Display_SPI.c **** 
 567:Generated_Source\PSoC4/Display_SPI.c **** 
 568:Generated_Source\PSoC4/Display_SPI.c **** /*******************************************************************************
 569:Generated_Source\PSoC4/Display_SPI.c **** * Function Name: Display_SPI_ReadRxData
 570:Generated_Source\PSoC4/Display_SPI.c **** ********************************************************************************
 571:Generated_Source\PSoC4/Display_SPI.c **** *
 572:Generated_Source\PSoC4/Display_SPI.c **** * Summary:
 573:Generated_Source\PSoC4/Display_SPI.c **** *  Read the next byte of data received across the SPI.
 574:Generated_Source\PSoC4/Display_SPI.c **** *
 575:Generated_Source\PSoC4/Display_SPI.c **** * Parameters:
 576:Generated_Source\PSoC4/Display_SPI.c **** *  None.
 577:Generated_Source\PSoC4/Display_SPI.c **** *
 578:Generated_Source\PSoC4/Display_SPI.c **** * Return:
 579:Generated_Source\PSoC4/Display_SPI.c **** *  The next byte of data read from the FIFO.
 580:Generated_Source\PSoC4/Display_SPI.c **** *
 581:Generated_Source\PSoC4/Display_SPI.c **** * Global variables:
 582:Generated_Source\PSoC4/Display_SPI.c **** *  Display_SPI_rxBufferWrite - used for the account of the bytes which
 583:Generated_Source\PSoC4/Display_SPI.c **** *  have been written down in the RX software buffer.
 584:Generated_Source\PSoC4/Display_SPI.c **** *  Display_SPI_rxBufferRead - used for the account of the bytes which
 585:Generated_Source\PSoC4/Display_SPI.c **** *  have been read from the RX software buffer, modified every function
 586:Generated_Source\PSoC4/Display_SPI.c **** *  call if RX Software Buffer is used.
 587:Generated_Source\PSoC4/Display_SPI.c **** *  Display_SPI_rxBuffer[Display_SPI_RX_BUFFER_SIZE] - used to store
 588:Generated_Source\PSoC4/Display_SPI.c **** *  received data.
 589:Generated_Source\PSoC4/Display_SPI.c **** *
 590:Generated_Source\PSoC4/Display_SPI.c **** * Theory:
 591:Generated_Source\PSoC4/Display_SPI.c **** *  Allows the user to read a byte of data received.
 592:Generated_Source\PSoC4/Display_SPI.c **** *
 593:Generated_Source\PSoC4/Display_SPI.c **** * Side Effects:
 594:Generated_Source\PSoC4/Display_SPI.c **** *  Will return invalid data if the FIFO is empty. The user should Call
 595:Generated_Source\PSoC4/Display_SPI.c **** *  GetRxBufferSize() and if it returns a non-zero value then it is safe to call
 596:Generated_Source\PSoC4/Display_SPI.c **** *  ReadByte() function.
 597:Generated_Source\PSoC4/Display_SPI.c **** *
 598:Generated_Source\PSoC4/Display_SPI.c **** * Reentrant:
 599:Generated_Source\PSoC4/Display_SPI.c **** *  No.
 600:Generated_Source\PSoC4/Display_SPI.c **** *
 601:Generated_Source\PSoC4/Display_SPI.c **** *******************************************************************************/
 602:Generated_Source\PSoC4/Display_SPI.c **** uint8 Display_SPI_ReadRxData(void) 
 603:Generated_Source\PSoC4/Display_SPI.c **** {
 351              		.loc 1 603 0
 352              		.cfi_startproc
 353              		@ args = 0, pretend = 0, frame = 0
 354              		@ frame_needed = 0, uses_anonymous_args = 0
ARM GAS  C:\Users\VIDEOH~1\AppData\Local\Temp\ccqaCiob.s 			page 18


 355              		@ link register save eliminated.
 604:Generated_Source\PSoC4/Display_SPI.c ****     uint8 rxData;
 605:Generated_Source\PSoC4/Display_SPI.c **** 
 606:Generated_Source\PSoC4/Display_SPI.c ****     #if(Display_SPI_RX_SOFTWARE_BUF_ENABLED)
 607:Generated_Source\PSoC4/Display_SPI.c **** 
 608:Generated_Source\PSoC4/Display_SPI.c ****         /* Disable RX interrupt to protect global veriables */
 609:Generated_Source\PSoC4/Display_SPI.c ****         Display_SPI_DisableRxInt();
 610:Generated_Source\PSoC4/Display_SPI.c **** 
 611:Generated_Source\PSoC4/Display_SPI.c ****         if(Display_SPI_rxBufferRead != Display_SPI_rxBufferWrite)
 612:Generated_Source\PSoC4/Display_SPI.c ****         {
 613:Generated_Source\PSoC4/Display_SPI.c ****             if(0u == Display_SPI_rxBufferFull)
 614:Generated_Source\PSoC4/Display_SPI.c ****             {
 615:Generated_Source\PSoC4/Display_SPI.c ****                 Display_SPI_rxBufferRead++;
 616:Generated_Source\PSoC4/Display_SPI.c ****                 if(Display_SPI_rxBufferRead >= Display_SPI_RX_BUFFER_SIZE)
 617:Generated_Source\PSoC4/Display_SPI.c ****                 {
 618:Generated_Source\PSoC4/Display_SPI.c ****                     Display_SPI_rxBufferRead = 0u;
 619:Generated_Source\PSoC4/Display_SPI.c ****                 }
 620:Generated_Source\PSoC4/Display_SPI.c ****             }
 621:Generated_Source\PSoC4/Display_SPI.c ****             else
 622:Generated_Source\PSoC4/Display_SPI.c ****             {
 623:Generated_Source\PSoC4/Display_SPI.c ****                 Display_SPI_rxBufferFull = 0u;
 624:Generated_Source\PSoC4/Display_SPI.c ****             }
 625:Generated_Source\PSoC4/Display_SPI.c ****         }
 626:Generated_Source\PSoC4/Display_SPI.c **** 
 627:Generated_Source\PSoC4/Display_SPI.c ****         rxData = Display_SPI_rxBuffer[Display_SPI_rxBufferRead];
 628:Generated_Source\PSoC4/Display_SPI.c **** 
 629:Generated_Source\PSoC4/Display_SPI.c ****         Display_SPI_EnableRxInt();
 630:Generated_Source\PSoC4/Display_SPI.c **** 
 631:Generated_Source\PSoC4/Display_SPI.c ****     #else
 632:Generated_Source\PSoC4/Display_SPI.c **** 
 633:Generated_Source\PSoC4/Display_SPI.c ****         rxData = CY_GET_REG8(Display_SPI_RXDATA_PTR);
 356              		.loc 1 633 0
 357 0000 014B     		ldr	r3, .L31
 634:Generated_Source\PSoC4/Display_SPI.c **** 
 635:Generated_Source\PSoC4/Display_SPI.c ****     #endif /* (Display_SPI_RX_SOFTWARE_BUF_ENABLED) */
 636:Generated_Source\PSoC4/Display_SPI.c **** 
 637:Generated_Source\PSoC4/Display_SPI.c ****     return(rxData);
 638:Generated_Source\PSoC4/Display_SPI.c **** }
 358              		.loc 1 638 0
 359              		@ sp needed
 633:Generated_Source\PSoC4/Display_SPI.c **** 
 360              		.loc 1 633 0
 361 0002 1878     		ldrb	r0, [r3]
 362 0004 C0B2     		uxtb	r0, r0
 363              	.LVL9:
 364              		.loc 1 638 0
 365 0006 7047     		bx	lr
 366              	.L32:
 367              		.align	2
 368              	.L31:
 369 0008 51000F40 		.word	1074724945
 370              		.cfi_endproc
 371              	.LFE13:
 372              		.size	Display_SPI_ReadRxData, .-Display_SPI_ReadRxData
 373              		.section	.text.Display_SPI_GetRxBufferSize,"ax",%progbits
 374              		.align	1
 375              		.global	Display_SPI_GetRxBufferSize
ARM GAS  C:\Users\VIDEOH~1\AppData\Local\Temp\ccqaCiob.s 			page 19


 376              		.code	16
 377              		.thumb_func
 378              		.type	Display_SPI_GetRxBufferSize, %function
 379              	Display_SPI_GetRxBufferSize:
 380              	.LFB14:
 639:Generated_Source\PSoC4/Display_SPI.c **** 
 640:Generated_Source\PSoC4/Display_SPI.c **** 
 641:Generated_Source\PSoC4/Display_SPI.c **** /*******************************************************************************
 642:Generated_Source\PSoC4/Display_SPI.c **** * Function Name: Display_SPI_GetRxBufferSize
 643:Generated_Source\PSoC4/Display_SPI.c **** ********************************************************************************
 644:Generated_Source\PSoC4/Display_SPI.c **** *
 645:Generated_Source\PSoC4/Display_SPI.c **** * Summary:
 646:Generated_Source\PSoC4/Display_SPI.c **** *  Returns the number of bytes/words of data currently held in the RX buffer.
 647:Generated_Source\PSoC4/Display_SPI.c **** *  If RX Software Buffer not used then function return 0 if FIFO empty or 1 if
 648:Generated_Source\PSoC4/Display_SPI.c **** *  FIFO not empty. In another case function return size of RX Software Buffer.
 649:Generated_Source\PSoC4/Display_SPI.c **** *
 650:Generated_Source\PSoC4/Display_SPI.c **** * Parameters:
 651:Generated_Source\PSoC4/Display_SPI.c **** *  None.
 652:Generated_Source\PSoC4/Display_SPI.c **** *
 653:Generated_Source\PSoC4/Display_SPI.c **** * Return:
 654:Generated_Source\PSoC4/Display_SPI.c **** *  Integer count of the number of bytes/words in the RX buffer.
 655:Generated_Source\PSoC4/Display_SPI.c **** *
 656:Generated_Source\PSoC4/Display_SPI.c **** * Global variables:
 657:Generated_Source\PSoC4/Display_SPI.c **** *  Display_SPI_rxBufferWrite - used for the account of the bytes which
 658:Generated_Source\PSoC4/Display_SPI.c **** *  have been written down in the RX software buffer.
 659:Generated_Source\PSoC4/Display_SPI.c **** *  Display_SPI_rxBufferRead - used for the account of the bytes which
 660:Generated_Source\PSoC4/Display_SPI.c **** *  have been read from the RX software buffer.
 661:Generated_Source\PSoC4/Display_SPI.c **** *
 662:Generated_Source\PSoC4/Display_SPI.c **** * Side Effects:
 663:Generated_Source\PSoC4/Display_SPI.c **** *  Clear status register of the component.
 664:Generated_Source\PSoC4/Display_SPI.c **** *
 665:Generated_Source\PSoC4/Display_SPI.c **** *******************************************************************************/
 666:Generated_Source\PSoC4/Display_SPI.c **** uint8 Display_SPI_GetRxBufferSize(void) 
 667:Generated_Source\PSoC4/Display_SPI.c **** {
 381              		.loc 1 667 0
 382              		.cfi_startproc
 383              		@ args = 0, pretend = 0, frame = 0
 384              		@ frame_needed = 0, uses_anonymous_args = 0
 385              		@ link register save eliminated.
 668:Generated_Source\PSoC4/Display_SPI.c ****     uint8 size;
 669:Generated_Source\PSoC4/Display_SPI.c **** 
 670:Generated_Source\PSoC4/Display_SPI.c ****     #if(Display_SPI_RX_SOFTWARE_BUF_ENABLED)
 671:Generated_Source\PSoC4/Display_SPI.c **** 
 672:Generated_Source\PSoC4/Display_SPI.c ****         /* Disable RX interrupt to protect global veriables */
 673:Generated_Source\PSoC4/Display_SPI.c ****         Display_SPI_DisableRxInt();
 674:Generated_Source\PSoC4/Display_SPI.c **** 
 675:Generated_Source\PSoC4/Display_SPI.c ****         if(Display_SPI_rxBufferRead == Display_SPI_rxBufferWrite)
 676:Generated_Source\PSoC4/Display_SPI.c ****         {
 677:Generated_Source\PSoC4/Display_SPI.c ****             size = 0u;
 678:Generated_Source\PSoC4/Display_SPI.c ****         }
 679:Generated_Source\PSoC4/Display_SPI.c ****         else if(Display_SPI_rxBufferRead < Display_SPI_rxBufferWrite)
 680:Generated_Source\PSoC4/Display_SPI.c ****         {
 681:Generated_Source\PSoC4/Display_SPI.c ****             size = (Display_SPI_rxBufferWrite - Display_SPI_rxBufferRead);
 682:Generated_Source\PSoC4/Display_SPI.c ****         }
 683:Generated_Source\PSoC4/Display_SPI.c ****         else
 684:Generated_Source\PSoC4/Display_SPI.c ****         {
 685:Generated_Source\PSoC4/Display_SPI.c ****             size = (Display_SPI_RX_BUFFER_SIZE - Display_SPI_rxBufferRead) + Display_SPI_rxBufferWr
ARM GAS  C:\Users\VIDEOH~1\AppData\Local\Temp\ccqaCiob.s 			page 20


 686:Generated_Source\PSoC4/Display_SPI.c ****         }
 687:Generated_Source\PSoC4/Display_SPI.c **** 
 688:Generated_Source\PSoC4/Display_SPI.c ****         Display_SPI_EnableRxInt();
 689:Generated_Source\PSoC4/Display_SPI.c **** 
 690:Generated_Source\PSoC4/Display_SPI.c ****     #else
 691:Generated_Source\PSoC4/Display_SPI.c **** 
 692:Generated_Source\PSoC4/Display_SPI.c ****         /* We can only know if there is data in the RX FIFO */
 693:Generated_Source\PSoC4/Display_SPI.c ****         size = (0u != (Display_SPI_RX_STATUS_REG & Display_SPI_STS_RX_FIFO_NOT_EMPTY)) ? 1u : 0u;
 386              		.loc 1 693 0
 387 0000 024B     		ldr	r3, .L34
 694:Generated_Source\PSoC4/Display_SPI.c **** 
 695:Generated_Source\PSoC4/Display_SPI.c ****     #endif /* (Display_SPI_TX_SOFTWARE_BUF_ENABLED) */
 696:Generated_Source\PSoC4/Display_SPI.c **** 
 697:Generated_Source\PSoC4/Display_SPI.c ****     return(size);
 698:Generated_Source\PSoC4/Display_SPI.c **** }
 388              		.loc 1 698 0
 389              		@ sp needed
 693:Generated_Source\PSoC4/Display_SPI.c **** 
 390              		.loc 1 693 0
 391 0002 1878     		ldrb	r0, [r3]
 392              	.LVL10:
 697:Generated_Source\PSoC4/Display_SPI.c **** }
 393              		.loc 1 697 0
 394 0004 8006     		lsls	r0, r0, #26
 395              	.LVL11:
 396 0006 C00F     		lsrs	r0, r0, #31
 397              		.loc 1 698 0
 398 0008 7047     		bx	lr
 399              	.L35:
 400 000a C046     		.align	2
 401              	.L34:
 402 000c 63000F40 		.word	1074724963
 403              		.cfi_endproc
 404              	.LFE14:
 405              		.size	Display_SPI_GetRxBufferSize, .-Display_SPI_GetRxBufferSize
 406              		.section	.text.Display_SPI_GetTxBufferSize,"ax",%progbits
 407              		.align	1
 408              		.global	Display_SPI_GetTxBufferSize
 409              		.code	16
 410              		.thumb_func
 411              		.type	Display_SPI_GetTxBufferSize, %function
 412              	Display_SPI_GetTxBufferSize:
 413              	.LFB15:
 699:Generated_Source\PSoC4/Display_SPI.c **** 
 700:Generated_Source\PSoC4/Display_SPI.c **** 
 701:Generated_Source\PSoC4/Display_SPI.c **** /*******************************************************************************
 702:Generated_Source\PSoC4/Display_SPI.c **** * Function Name: Display_SPI_GetTxBufferSize
 703:Generated_Source\PSoC4/Display_SPI.c **** ********************************************************************************
 704:Generated_Source\PSoC4/Display_SPI.c **** *
 705:Generated_Source\PSoC4/Display_SPI.c **** * Summary:
 706:Generated_Source\PSoC4/Display_SPI.c **** *  Returns the number of bytes/words of data currently held in the TX buffer.
 707:Generated_Source\PSoC4/Display_SPI.c **** *  If TX Software Buffer not used then function return 0 - if FIFO empty, 1 - if
 708:Generated_Source\PSoC4/Display_SPI.c **** *  FIFO not full, 4 - if FIFO full. In another case function return size of TX
 709:Generated_Source\PSoC4/Display_SPI.c **** *  Software Buffer.
 710:Generated_Source\PSoC4/Display_SPI.c **** *
 711:Generated_Source\PSoC4/Display_SPI.c **** * Parameters:
 712:Generated_Source\PSoC4/Display_SPI.c **** *  None.
ARM GAS  C:\Users\VIDEOH~1\AppData\Local\Temp\ccqaCiob.s 			page 21


 713:Generated_Source\PSoC4/Display_SPI.c **** *
 714:Generated_Source\PSoC4/Display_SPI.c **** * Return:
 715:Generated_Source\PSoC4/Display_SPI.c **** *  Integer count of the number of bytes/words in the TX buffer.
 716:Generated_Source\PSoC4/Display_SPI.c **** *
 717:Generated_Source\PSoC4/Display_SPI.c **** * Global variables:
 718:Generated_Source\PSoC4/Display_SPI.c **** *  Display_SPI_txBufferWrite - used for the account of the bytes which
 719:Generated_Source\PSoC4/Display_SPI.c **** *  have been written down in the TX software buffer.
 720:Generated_Source\PSoC4/Display_SPI.c **** *  Display_SPI_txBufferRead - used for the account of the bytes which
 721:Generated_Source\PSoC4/Display_SPI.c **** *  have been read from the TX software buffer.
 722:Generated_Source\PSoC4/Display_SPI.c **** *
 723:Generated_Source\PSoC4/Display_SPI.c **** * Side Effects:
 724:Generated_Source\PSoC4/Display_SPI.c **** *  Clear status register of the component.
 725:Generated_Source\PSoC4/Display_SPI.c **** *
 726:Generated_Source\PSoC4/Display_SPI.c **** *******************************************************************************/
 727:Generated_Source\PSoC4/Display_SPI.c **** uint8  Display_SPI_GetTxBufferSize(void) 
 728:Generated_Source\PSoC4/Display_SPI.c **** {
 414              		.loc 1 728 0
 415              		.cfi_startproc
 416              		@ args = 0, pretend = 0, frame = 0
 417              		@ frame_needed = 0, uses_anonymous_args = 0
 418              		@ link register save eliminated.
 729:Generated_Source\PSoC4/Display_SPI.c ****     uint8 size;
 730:Generated_Source\PSoC4/Display_SPI.c **** 
 731:Generated_Source\PSoC4/Display_SPI.c ****     #if(Display_SPI_TX_SOFTWARE_BUF_ENABLED)
 732:Generated_Source\PSoC4/Display_SPI.c ****         /* Disable TX interrupt to protect global veriables */
 733:Generated_Source\PSoC4/Display_SPI.c ****         Display_SPI_DisableTxInt();
 734:Generated_Source\PSoC4/Display_SPI.c **** 
 735:Generated_Source\PSoC4/Display_SPI.c ****         if(Display_SPI_txBufferRead == Display_SPI_txBufferWrite)
 736:Generated_Source\PSoC4/Display_SPI.c ****         {
 737:Generated_Source\PSoC4/Display_SPI.c ****             size = 0u;
 738:Generated_Source\PSoC4/Display_SPI.c ****         }
 739:Generated_Source\PSoC4/Display_SPI.c ****         else if(Display_SPI_txBufferRead < Display_SPI_txBufferWrite)
 740:Generated_Source\PSoC4/Display_SPI.c ****         {
 741:Generated_Source\PSoC4/Display_SPI.c ****             size = (Display_SPI_txBufferWrite - Display_SPI_txBufferRead);
 742:Generated_Source\PSoC4/Display_SPI.c ****         }
 743:Generated_Source\PSoC4/Display_SPI.c ****         else
 744:Generated_Source\PSoC4/Display_SPI.c ****         {
 745:Generated_Source\PSoC4/Display_SPI.c ****             size = (Display_SPI_TX_BUFFER_SIZE - Display_SPI_txBufferRead) + Display_SPI_txBufferWr
 746:Generated_Source\PSoC4/Display_SPI.c ****         }
 747:Generated_Source\PSoC4/Display_SPI.c **** 
 748:Generated_Source\PSoC4/Display_SPI.c ****         Display_SPI_EnableTxInt();
 749:Generated_Source\PSoC4/Display_SPI.c **** 
 750:Generated_Source\PSoC4/Display_SPI.c ****     #else
 751:Generated_Source\PSoC4/Display_SPI.c **** 
 752:Generated_Source\PSoC4/Display_SPI.c ****         size = Display_SPI_TX_STATUS_REG;
 419              		.loc 1 752 0
 420 0000 054B     		ldr	r3, .L40
 753:Generated_Source\PSoC4/Display_SPI.c **** 
 754:Generated_Source\PSoC4/Display_SPI.c ****         if(0u != (size & Display_SPI_STS_TX_FIFO_EMPTY))
 755:Generated_Source\PSoC4/Display_SPI.c ****         {
 756:Generated_Source\PSoC4/Display_SPI.c ****             size = 0u;
 421              		.loc 1 756 0
 422 0002 0020     		movs	r0, #0
 752:Generated_Source\PSoC4/Display_SPI.c **** 
 423              		.loc 1 752 0
 424 0004 1B78     		ldrb	r3, [r3]
 425 0006 DBB2     		uxtb	r3, r3
ARM GAS  C:\Users\VIDEOH~1\AppData\Local\Temp\ccqaCiob.s 			page 22


 426              	.LVL12:
 754:Generated_Source\PSoC4/Display_SPI.c ****         {
 427              		.loc 1 754 0
 428 0008 9A07     		lsls	r2, r3, #30
 429 000a 04D4     		bmi	.L37
 757:Generated_Source\PSoC4/Display_SPI.c ****         }
 758:Generated_Source\PSoC4/Display_SPI.c ****         else if(0u != (size & Display_SPI_STS_TX_FIFO_NOT_FULL))
 430              		.loc 1 758 0
 431 000c 0422     		movs	r2, #4
 759:Generated_Source\PSoC4/Display_SPI.c ****         {
 760:Generated_Source\PSoC4/Display_SPI.c ****             size = 1u;
 432              		.loc 1 760 0
 433 000e 0130     		adds	r0, r0, #1
 758:Generated_Source\PSoC4/Display_SPI.c ****         {
 434              		.loc 1 758 0
 435 0010 1342     		tst	r3, r2
 436 0012 00D1     		bne	.L37
 761:Generated_Source\PSoC4/Display_SPI.c ****         }
 762:Generated_Source\PSoC4/Display_SPI.c ****         else
 763:Generated_Source\PSoC4/Display_SPI.c ****         {
 764:Generated_Source\PSoC4/Display_SPI.c ****             size = Display_SPI_FIFO_SIZE;
 437              		.loc 1 764 0
 438 0014 1000     		movs	r0, r2
 439              	.L37:
 440              	.LVL13:
 765:Generated_Source\PSoC4/Display_SPI.c ****         }
 766:Generated_Source\PSoC4/Display_SPI.c **** 
 767:Generated_Source\PSoC4/Display_SPI.c ****     #endif /* (Display_SPI_TX_SOFTWARE_BUF_ENABLED) */
 768:Generated_Source\PSoC4/Display_SPI.c **** 
 769:Generated_Source\PSoC4/Display_SPI.c ****     return(size);
 770:Generated_Source\PSoC4/Display_SPI.c **** }
 441              		.loc 1 770 0
 442              		@ sp needed
 443 0016 7047     		bx	lr
 444              	.L41:
 445              		.align	2
 446              	.L40:
 447 0018 62000F40 		.word	1074724962
 448              		.cfi_endproc
 449              	.LFE15:
 450              		.size	Display_SPI_GetTxBufferSize, .-Display_SPI_GetTxBufferSize
 451              		.section	.text.Display_SPI_ClearRxBuffer,"ax",%progbits
 452              		.align	1
 453              		.global	Display_SPI_ClearRxBuffer
 454              		.code	16
 455              		.thumb_func
 456              		.type	Display_SPI_ClearRxBuffer, %function
 457              	Display_SPI_ClearRxBuffer:
 458              	.LFB16:
 771:Generated_Source\PSoC4/Display_SPI.c **** 
 772:Generated_Source\PSoC4/Display_SPI.c **** 
 773:Generated_Source\PSoC4/Display_SPI.c **** /*******************************************************************************
 774:Generated_Source\PSoC4/Display_SPI.c **** * Function Name: Display_SPI_ClearRxBuffer
 775:Generated_Source\PSoC4/Display_SPI.c **** ********************************************************************************
 776:Generated_Source\PSoC4/Display_SPI.c **** *
 777:Generated_Source\PSoC4/Display_SPI.c **** * Summary:
 778:Generated_Source\PSoC4/Display_SPI.c **** *  Clear the RX RAM buffer by setting the read and write pointers both to zero.
ARM GAS  C:\Users\VIDEOH~1\AppData\Local\Temp\ccqaCiob.s 			page 23


 779:Generated_Source\PSoC4/Display_SPI.c **** *
 780:Generated_Source\PSoC4/Display_SPI.c **** * Parameters:
 781:Generated_Source\PSoC4/Display_SPI.c **** *  None.
 782:Generated_Source\PSoC4/Display_SPI.c **** *
 783:Generated_Source\PSoC4/Display_SPI.c **** * Return:
 784:Generated_Source\PSoC4/Display_SPI.c **** *  None.
 785:Generated_Source\PSoC4/Display_SPI.c **** *
 786:Generated_Source\PSoC4/Display_SPI.c **** * Global variables:
 787:Generated_Source\PSoC4/Display_SPI.c **** *  Display_SPI_rxBufferWrite - used for the account of the bytes which
 788:Generated_Source\PSoC4/Display_SPI.c **** *  have been written down in the RX software buffer, modified every function
 789:Generated_Source\PSoC4/Display_SPI.c **** *  call - resets to zero.
 790:Generated_Source\PSoC4/Display_SPI.c **** *  Display_SPI_rxBufferRead - used for the account of the bytes which
 791:Generated_Source\PSoC4/Display_SPI.c **** *  have been read from the RX software buffer, modified every function call -
 792:Generated_Source\PSoC4/Display_SPI.c **** *  resets to zero.
 793:Generated_Source\PSoC4/Display_SPI.c **** *
 794:Generated_Source\PSoC4/Display_SPI.c **** * Theory:
 795:Generated_Source\PSoC4/Display_SPI.c **** *  Setting the pointers to zero makes the system believe there is no data to
 796:Generated_Source\PSoC4/Display_SPI.c **** *  read and writing will resume at address 0 overwriting any data that may have
 797:Generated_Source\PSoC4/Display_SPI.c **** *  remained in the RAM.
 798:Generated_Source\PSoC4/Display_SPI.c **** *
 799:Generated_Source\PSoC4/Display_SPI.c **** * Side Effects:
 800:Generated_Source\PSoC4/Display_SPI.c **** *  Any received data not read from the RAM buffer will be lost when overwritten.
 801:Generated_Source\PSoC4/Display_SPI.c **** *
 802:Generated_Source\PSoC4/Display_SPI.c **** * Reentrant:
 803:Generated_Source\PSoC4/Display_SPI.c **** *  No.
 804:Generated_Source\PSoC4/Display_SPI.c **** *
 805:Generated_Source\PSoC4/Display_SPI.c **** *******************************************************************************/
 806:Generated_Source\PSoC4/Display_SPI.c **** void Display_SPI_ClearRxBuffer(void) 
 807:Generated_Source\PSoC4/Display_SPI.c **** {
 459              		.loc 1 807 0
 460              		.cfi_startproc
 461              		@ args = 0, pretend = 0, frame = 0
 462              		@ frame_needed = 0, uses_anonymous_args = 0
 463              		@ link register save eliminated.
 808:Generated_Source\PSoC4/Display_SPI.c ****     /* Clear Hardware RX FIFO */
 809:Generated_Source\PSoC4/Display_SPI.c ****     while(0u !=(Display_SPI_RX_STATUS_REG & Display_SPI_STS_RX_FIFO_NOT_EMPTY))
 464              		.loc 1 809 0
 465 0000 2023     		movs	r3, #32
 466 0002 0449     		ldr	r1, .L46
 810:Generated_Source\PSoC4/Display_SPI.c ****     {
 811:Generated_Source\PSoC4/Display_SPI.c ****         (void) CY_GET_REG8(Display_SPI_RXDATA_PTR);
 467              		.loc 1 811 0
 468 0004 0448     		ldr	r0, .L46+4
 469              	.L43:
 809:Generated_Source\PSoC4/Display_SPI.c ****     {
 470              		.loc 1 809 0
 471 0006 0A78     		ldrb	r2, [r1]
 472 0008 1A42     		tst	r2, r3
 473 000a 01D0     		beq	.L45
 474              		.loc 1 811 0
 475 000c 0278     		ldrb	r2, [r0]
 476 000e FAE7     		b	.L43
 477              	.L45:
 812:Generated_Source\PSoC4/Display_SPI.c ****     }
 813:Generated_Source\PSoC4/Display_SPI.c **** 
 814:Generated_Source\PSoC4/Display_SPI.c ****     #if(Display_SPI_RX_SOFTWARE_BUF_ENABLED)
 815:Generated_Source\PSoC4/Display_SPI.c ****         /* Disable RX interrupt to protect global veriables */
ARM GAS  C:\Users\VIDEOH~1\AppData\Local\Temp\ccqaCiob.s 			page 24


 816:Generated_Source\PSoC4/Display_SPI.c ****         Display_SPI_DisableRxInt();
 817:Generated_Source\PSoC4/Display_SPI.c **** 
 818:Generated_Source\PSoC4/Display_SPI.c ****         Display_SPI_rxBufferFull  = 0u;
 819:Generated_Source\PSoC4/Display_SPI.c ****         Display_SPI_rxBufferRead  = 0u;
 820:Generated_Source\PSoC4/Display_SPI.c ****         Display_SPI_rxBufferWrite = 0u;
 821:Generated_Source\PSoC4/Display_SPI.c **** 
 822:Generated_Source\PSoC4/Display_SPI.c ****         Display_SPI_EnableRxInt();
 823:Generated_Source\PSoC4/Display_SPI.c ****     #endif /* (Display_SPI_RX_SOFTWARE_BUF_ENABLED) */
 824:Generated_Source\PSoC4/Display_SPI.c **** }
 478              		.loc 1 824 0
 479              		@ sp needed
 480 0010 7047     		bx	lr
 481              	.L47:
 482 0012 C046     		.align	2
 483              	.L46:
 484 0014 63000F40 		.word	1074724963
 485 0018 51000F40 		.word	1074724945
 486              		.cfi_endproc
 487              	.LFE16:
 488              		.size	Display_SPI_ClearRxBuffer, .-Display_SPI_ClearRxBuffer
 489              		.section	.text.Display_SPI_ClearTxBuffer,"ax",%progbits
 490              		.align	1
 491              		.global	Display_SPI_ClearTxBuffer
 492              		.code	16
 493              		.thumb_func
 494              		.type	Display_SPI_ClearTxBuffer, %function
 495              	Display_SPI_ClearTxBuffer:
 496              	.LFB17:
 825:Generated_Source\PSoC4/Display_SPI.c **** 
 826:Generated_Source\PSoC4/Display_SPI.c **** 
 827:Generated_Source\PSoC4/Display_SPI.c **** /*******************************************************************************
 828:Generated_Source\PSoC4/Display_SPI.c **** * Function Name: Display_SPI_ClearTxBuffer
 829:Generated_Source\PSoC4/Display_SPI.c **** ********************************************************************************
 830:Generated_Source\PSoC4/Display_SPI.c **** *
 831:Generated_Source\PSoC4/Display_SPI.c **** * Summary:
 832:Generated_Source\PSoC4/Display_SPI.c **** *  Clear the TX RAM buffer by setting the read and write pointers both to zero.
 833:Generated_Source\PSoC4/Display_SPI.c **** *
 834:Generated_Source\PSoC4/Display_SPI.c **** * Parameters:
 835:Generated_Source\PSoC4/Display_SPI.c **** *  None.
 836:Generated_Source\PSoC4/Display_SPI.c **** *
 837:Generated_Source\PSoC4/Display_SPI.c **** * Return:
 838:Generated_Source\PSoC4/Display_SPI.c **** *  None.
 839:Generated_Source\PSoC4/Display_SPI.c **** *
 840:Generated_Source\PSoC4/Display_SPI.c **** * Global variables:
 841:Generated_Source\PSoC4/Display_SPI.c **** *  Display_SPI_txBufferWrite - used for the account of the bytes which
 842:Generated_Source\PSoC4/Display_SPI.c **** *  have been written down in the TX software buffer, modified every function
 843:Generated_Source\PSoC4/Display_SPI.c **** *  call - resets to zero.
 844:Generated_Source\PSoC4/Display_SPI.c **** *  Display_SPI_txBufferRead - used for the account of the bytes which
 845:Generated_Source\PSoC4/Display_SPI.c **** *  have been read from the TX software buffer, modified every function call -
 846:Generated_Source\PSoC4/Display_SPI.c **** *  resets to zero.
 847:Generated_Source\PSoC4/Display_SPI.c **** *
 848:Generated_Source\PSoC4/Display_SPI.c **** * Theory:
 849:Generated_Source\PSoC4/Display_SPI.c **** *  Setting the pointers to zero makes the system believe there is no data to
 850:Generated_Source\PSoC4/Display_SPI.c **** *  read and writing will resume at address 0 overwriting any data that may have
 851:Generated_Source\PSoC4/Display_SPI.c **** *  remained in the RAM.
 852:Generated_Source\PSoC4/Display_SPI.c **** *
 853:Generated_Source\PSoC4/Display_SPI.c **** * Side Effects:
ARM GAS  C:\Users\VIDEOH~1\AppData\Local\Temp\ccqaCiob.s 			page 25


 854:Generated_Source\PSoC4/Display_SPI.c **** *  Any data not yet transmitted from the RAM buffer will be lost when
 855:Generated_Source\PSoC4/Display_SPI.c **** *  overwritten.
 856:Generated_Source\PSoC4/Display_SPI.c **** *
 857:Generated_Source\PSoC4/Display_SPI.c **** * Reentrant:
 858:Generated_Source\PSoC4/Display_SPI.c **** *  No.
 859:Generated_Source\PSoC4/Display_SPI.c **** *
 860:Generated_Source\PSoC4/Display_SPI.c **** *******************************************************************************/
 861:Generated_Source\PSoC4/Display_SPI.c **** void Display_SPI_ClearTxBuffer(void) 
 862:Generated_Source\PSoC4/Display_SPI.c **** {
 497              		.loc 1 862 0
 498              		.cfi_startproc
 499              		@ args = 0, pretend = 0, frame = 0
 500              		@ frame_needed = 0, uses_anonymous_args = 0
 501 0000 10B5     		push	{r4, lr}
 502              		.cfi_def_cfa_offset 8
 503              		.cfi_offset 4, -8
 504              		.cfi_offset 14, -4
 863:Generated_Source\PSoC4/Display_SPI.c ****     uint8 enableInterrupts;
 864:Generated_Source\PSoC4/Display_SPI.c **** 
 865:Generated_Source\PSoC4/Display_SPI.c ****     enableInterrupts = CyEnterCriticalSection();
 505              		.loc 1 865 0
 506 0002 FFF7FEFF 		bl	CyEnterCriticalSection
 507              	.LVL14:
 866:Generated_Source\PSoC4/Display_SPI.c ****     /* Clear TX FIFO */
 867:Generated_Source\PSoC4/Display_SPI.c ****     Display_SPI_AUX_CONTROL_DP0_REG |= ((uint8)  Display_SPI_TX_FIFO_CLR);
 508              		.loc 1 867 0
 509 0006 0121     		movs	r1, #1
 510 0008 044B     		ldr	r3, .L49
 868:Generated_Source\PSoC4/Display_SPI.c ****     Display_SPI_AUX_CONTROL_DP0_REG &= ((uint8) ~Display_SPI_TX_FIFO_CLR);
 869:Generated_Source\PSoC4/Display_SPI.c **** 
 870:Generated_Source\PSoC4/Display_SPI.c ****     #if(Display_SPI_USE_SECOND_DATAPATH)
 871:Generated_Source\PSoC4/Display_SPI.c ****         /* Clear TX FIFO for 2nd Datapath */
 872:Generated_Source\PSoC4/Display_SPI.c ****         Display_SPI_AUX_CONTROL_DP1_REG |= ((uint8)  Display_SPI_TX_FIFO_CLR);
 873:Generated_Source\PSoC4/Display_SPI.c ****         Display_SPI_AUX_CONTROL_DP1_REG &= ((uint8) ~Display_SPI_TX_FIFO_CLR);
 874:Generated_Source\PSoC4/Display_SPI.c ****     #endif /* (Display_SPI_USE_SECOND_DATAPATH) */
 875:Generated_Source\PSoC4/Display_SPI.c ****     CyExitCriticalSection(enableInterrupts);
 876:Generated_Source\PSoC4/Display_SPI.c **** 
 877:Generated_Source\PSoC4/Display_SPI.c ****     #if(Display_SPI_TX_SOFTWARE_BUF_ENABLED)
 878:Generated_Source\PSoC4/Display_SPI.c ****         /* Disable TX interrupt to protect global veriables */
 879:Generated_Source\PSoC4/Display_SPI.c ****         Display_SPI_DisableTxInt();
 880:Generated_Source\PSoC4/Display_SPI.c **** 
 881:Generated_Source\PSoC4/Display_SPI.c ****         Display_SPI_txBufferFull  = 0u;
 882:Generated_Source\PSoC4/Display_SPI.c ****         Display_SPI_txBufferRead  = 0u;
 883:Generated_Source\PSoC4/Display_SPI.c ****         Display_SPI_txBufferWrite = 0u;
 884:Generated_Source\PSoC4/Display_SPI.c **** 
 885:Generated_Source\PSoC4/Display_SPI.c ****         /* Buffer is EMPTY: disable TX FIFO NOT FULL interrupt */
 886:Generated_Source\PSoC4/Display_SPI.c ****         Display_SPI_TX_STATUS_MASK_REG &= ((uint8) ~Display_SPI_STS_TX_FIFO_NOT_FULL);
 887:Generated_Source\PSoC4/Display_SPI.c **** 
 888:Generated_Source\PSoC4/Display_SPI.c ****         Display_SPI_EnableTxInt();
 889:Generated_Source\PSoC4/Display_SPI.c ****     #endif /* (Display_SPI_TX_SOFTWARE_BUF_ENABLED) */
 890:Generated_Source\PSoC4/Display_SPI.c **** }
 511              		.loc 1 890 0
 512              		@ sp needed
 867:Generated_Source\PSoC4/Display_SPI.c ****     Display_SPI_AUX_CONTROL_DP0_REG &= ((uint8) ~Display_SPI_TX_FIFO_CLR);
 513              		.loc 1 867 0
 514 000a 1A78     		ldrb	r2, [r3]
 515 000c 0A43     		orrs	r2, r1
ARM GAS  C:\Users\VIDEOH~1\AppData\Local\Temp\ccqaCiob.s 			page 26


 516 000e 1A70     		strb	r2, [r3]
 868:Generated_Source\PSoC4/Display_SPI.c ****     Display_SPI_AUX_CONTROL_DP0_REG &= ((uint8) ~Display_SPI_TX_FIFO_CLR);
 517              		.loc 1 868 0
 518 0010 1A78     		ldrb	r2, [r3]
 519 0012 8A43     		bics	r2, r1
 520 0014 1A70     		strb	r2, [r3]
 875:Generated_Source\PSoC4/Display_SPI.c **** 
 521              		.loc 1 875 0
 522 0016 FFF7FEFF 		bl	CyExitCriticalSection
 523              	.LVL15:
 524              		.loc 1 890 0
 525 001a 10BD     		pop	{r4, pc}
 526              	.L50:
 527              		.align	2
 528              	.L49:
 529 001c 91000F40 		.word	1074725009
 530              		.cfi_endproc
 531              	.LFE17:
 532              		.size	Display_SPI_ClearTxBuffer, .-Display_SPI_ClearTxBuffer
 533              		.section	.text.Display_SPI_PutArray,"ax",%progbits
 534              		.align	1
 535              		.global	Display_SPI_PutArray
 536              		.code	16
 537              		.thumb_func
 538              		.type	Display_SPI_PutArray, %function
 539              	Display_SPI_PutArray:
 540              	.LFB18:
 891:Generated_Source\PSoC4/Display_SPI.c **** 
 892:Generated_Source\PSoC4/Display_SPI.c **** 
 893:Generated_Source\PSoC4/Display_SPI.c **** #if(0u != Display_SPI_BIDIRECTIONAL_MODE)
 894:Generated_Source\PSoC4/Display_SPI.c ****     /*******************************************************************************
 895:Generated_Source\PSoC4/Display_SPI.c ****     * Function Name: Display_SPI_TxEnable
 896:Generated_Source\PSoC4/Display_SPI.c ****     ********************************************************************************
 897:Generated_Source\PSoC4/Display_SPI.c ****     *
 898:Generated_Source\PSoC4/Display_SPI.c ****     * Summary:
 899:Generated_Source\PSoC4/Display_SPI.c ****     *  If the SPI master is configured to use a single bi-directional pin then this
 900:Generated_Source\PSoC4/Display_SPI.c ****     *  will set the bi-directional pin to transmit.
 901:Generated_Source\PSoC4/Display_SPI.c ****     *
 902:Generated_Source\PSoC4/Display_SPI.c ****     * Parameters:
 903:Generated_Source\PSoC4/Display_SPI.c ****     *  None.
 904:Generated_Source\PSoC4/Display_SPI.c ****     *
 905:Generated_Source\PSoC4/Display_SPI.c ****     * Return:
 906:Generated_Source\PSoC4/Display_SPI.c ****     *  None.
 907:Generated_Source\PSoC4/Display_SPI.c ****     *
 908:Generated_Source\PSoC4/Display_SPI.c ****     *******************************************************************************/
 909:Generated_Source\PSoC4/Display_SPI.c ****     void Display_SPI_TxEnable(void) 
 910:Generated_Source\PSoC4/Display_SPI.c ****     {
 911:Generated_Source\PSoC4/Display_SPI.c ****         Display_SPI_CONTROL_REG |= Display_SPI_CTRL_TX_SIGNAL_EN;
 912:Generated_Source\PSoC4/Display_SPI.c ****     }
 913:Generated_Source\PSoC4/Display_SPI.c **** 
 914:Generated_Source\PSoC4/Display_SPI.c **** 
 915:Generated_Source\PSoC4/Display_SPI.c ****     /*******************************************************************************
 916:Generated_Source\PSoC4/Display_SPI.c ****     * Function Name: Display_SPI_TxDisable
 917:Generated_Source\PSoC4/Display_SPI.c ****     ********************************************************************************
 918:Generated_Source\PSoC4/Display_SPI.c ****     *
 919:Generated_Source\PSoC4/Display_SPI.c ****     * Summary:
 920:Generated_Source\PSoC4/Display_SPI.c ****     *  If the SPI master is configured to use a single bi-directional pin then this
ARM GAS  C:\Users\VIDEOH~1\AppData\Local\Temp\ccqaCiob.s 			page 27


 921:Generated_Source\PSoC4/Display_SPI.c ****     *  will set the bi-directional pin to receive.
 922:Generated_Source\PSoC4/Display_SPI.c ****     *
 923:Generated_Source\PSoC4/Display_SPI.c ****     * Parameters:
 924:Generated_Source\PSoC4/Display_SPI.c ****     *  None.
 925:Generated_Source\PSoC4/Display_SPI.c ****     *
 926:Generated_Source\PSoC4/Display_SPI.c ****     * Return:
 927:Generated_Source\PSoC4/Display_SPI.c ****     *  None.
 928:Generated_Source\PSoC4/Display_SPI.c ****     *
 929:Generated_Source\PSoC4/Display_SPI.c ****     *******************************************************************************/
 930:Generated_Source\PSoC4/Display_SPI.c ****     void Display_SPI_TxDisable(void) 
 931:Generated_Source\PSoC4/Display_SPI.c ****     {
 932:Generated_Source\PSoC4/Display_SPI.c ****         Display_SPI_CONTROL_REG &= ((uint8) ~Display_SPI_CTRL_TX_SIGNAL_EN);
 933:Generated_Source\PSoC4/Display_SPI.c ****     }
 934:Generated_Source\PSoC4/Display_SPI.c **** 
 935:Generated_Source\PSoC4/Display_SPI.c **** #endif /* (0u != Display_SPI_BIDIRECTIONAL_MODE) */
 936:Generated_Source\PSoC4/Display_SPI.c **** 
 937:Generated_Source\PSoC4/Display_SPI.c **** 
 938:Generated_Source\PSoC4/Display_SPI.c **** /*******************************************************************************
 939:Generated_Source\PSoC4/Display_SPI.c **** * Function Name: Display_SPI_PutArray
 940:Generated_Source\PSoC4/Display_SPI.c **** ********************************************************************************
 941:Generated_Source\PSoC4/Display_SPI.c **** *
 942:Generated_Source\PSoC4/Display_SPI.c **** * Summary:
 943:Generated_Source\PSoC4/Display_SPI.c **** *  Write available data from ROM/RAM to the TX buffer while space is available
 944:Generated_Source\PSoC4/Display_SPI.c **** *  in the TX buffer. Keep trying until all data is passed to the TX buffer.
 945:Generated_Source\PSoC4/Display_SPI.c **** *
 946:Generated_Source\PSoC4/Display_SPI.c **** * Parameters:
 947:Generated_Source\PSoC4/Display_SPI.c **** *  *buffer: Pointer to the location in RAM containing the data to send
 948:Generated_Source\PSoC4/Display_SPI.c **** *  byteCount: The number of bytes to move to the transmit buffer.
 949:Generated_Source\PSoC4/Display_SPI.c **** *
 950:Generated_Source\PSoC4/Display_SPI.c **** * Return:
 951:Generated_Source\PSoC4/Display_SPI.c **** *  None.
 952:Generated_Source\PSoC4/Display_SPI.c **** *
 953:Generated_Source\PSoC4/Display_SPI.c **** * Side Effects:
 954:Generated_Source\PSoC4/Display_SPI.c **** *  Will stay in this routine until all data has been sent.  May get locked in
 955:Generated_Source\PSoC4/Display_SPI.c **** *  this loop if data is not being initiated by the master if there is not
 956:Generated_Source\PSoC4/Display_SPI.c **** *  enough room in the TX FIFO.
 957:Generated_Source\PSoC4/Display_SPI.c **** *
 958:Generated_Source\PSoC4/Display_SPI.c **** * Reentrant:
 959:Generated_Source\PSoC4/Display_SPI.c **** *  No.
 960:Generated_Source\PSoC4/Display_SPI.c **** *
 961:Generated_Source\PSoC4/Display_SPI.c **** *******************************************************************************/
 962:Generated_Source\PSoC4/Display_SPI.c **** void Display_SPI_PutArray(const uint8 buffer[], uint8 byteCount)
 963:Generated_Source\PSoC4/Display_SPI.c ****                                                                           
 964:Generated_Source\PSoC4/Display_SPI.c **** {
 541              		.loc 1 964 0
 542              		.cfi_startproc
 543              		@ args = 0, pretend = 0, frame = 0
 544              		@ frame_needed = 0, uses_anonymous_args = 0
 545              	.LVL16:
 546 0000 70B5     		push	{r4, r5, r6, lr}
 547              		.cfi_def_cfa_offset 16
 548              		.cfi_offset 4, -16
 549              		.cfi_offset 5, -12
 550              		.cfi_offset 6, -8
 551              		.cfi_offset 14, -4
 552 0002 0400     		movs	r4, r0
 553 0004 4518     		adds	r5, r0, r1
ARM GAS  C:\Users\VIDEOH~1\AppData\Local\Temp\ccqaCiob.s 			page 28


 554              	.LVL17:
 555              	.L52:
 965:Generated_Source\PSoC4/Display_SPI.c ****     uint8 bufIndex;
 966:Generated_Source\PSoC4/Display_SPI.c **** 
 967:Generated_Source\PSoC4/Display_SPI.c ****     bufIndex = 0u;
 968:Generated_Source\PSoC4/Display_SPI.c **** 
 969:Generated_Source\PSoC4/Display_SPI.c ****     while(byteCount > 0u)
 556              		.loc 1 969 0
 557 0006 AC42     		cmp	r4, r5
 558 0008 04D0     		beq	.L54
 970:Generated_Source\PSoC4/Display_SPI.c ****     {
 971:Generated_Source\PSoC4/Display_SPI.c ****         Display_SPI_WriteTxData(buffer[bufIndex]);
 559              		.loc 1 971 0
 560 000a 2078     		ldrb	r0, [r4]
 561 000c FFF7FEFF 		bl	Display_SPI_WriteTxData
 562              	.LVL18:
 563 0010 0134     		adds	r4, r4, #1
 564              	.LVL19:
 565 0012 F8E7     		b	.L52
 566              	.LVL20:
 567              	.L54:
 972:Generated_Source\PSoC4/Display_SPI.c ****         bufIndex++;
 973:Generated_Source\PSoC4/Display_SPI.c ****         byteCount--;
 974:Generated_Source\PSoC4/Display_SPI.c ****     }
 975:Generated_Source\PSoC4/Display_SPI.c **** }
 568              		.loc 1 975 0
 569              		@ sp needed
 570              	.LVL21:
 571 0014 70BD     		pop	{r4, r5, r6, pc}
 572              		.cfi_endproc
 573              	.LFE18:
 574              		.size	Display_SPI_PutArray, .-Display_SPI_PutArray
 575              		.section	.text.Display_SPI_ClearFIFO,"ax",%progbits
 576              		.align	1
 577              		.global	Display_SPI_ClearFIFO
 578              		.code	16
 579              		.thumb_func
 580              		.type	Display_SPI_ClearFIFO, %function
 581              	Display_SPI_ClearFIFO:
 582              	.LFB19:
 976:Generated_Source\PSoC4/Display_SPI.c **** 
 977:Generated_Source\PSoC4/Display_SPI.c **** 
 978:Generated_Source\PSoC4/Display_SPI.c **** /*******************************************************************************
 979:Generated_Source\PSoC4/Display_SPI.c **** * Function Name: Display_SPI_ClearFIFO
 980:Generated_Source\PSoC4/Display_SPI.c **** ********************************************************************************
 981:Generated_Source\PSoC4/Display_SPI.c **** *
 982:Generated_Source\PSoC4/Display_SPI.c **** * Summary:
 983:Generated_Source\PSoC4/Display_SPI.c **** *  Clear the RX and TX FIFO's of all data for a fresh start.
 984:Generated_Source\PSoC4/Display_SPI.c **** *
 985:Generated_Source\PSoC4/Display_SPI.c **** * Parameters:
 986:Generated_Source\PSoC4/Display_SPI.c **** *  None.
 987:Generated_Source\PSoC4/Display_SPI.c **** *
 988:Generated_Source\PSoC4/Display_SPI.c **** * Return:
 989:Generated_Source\PSoC4/Display_SPI.c **** *  None.
 990:Generated_Source\PSoC4/Display_SPI.c **** *
 991:Generated_Source\PSoC4/Display_SPI.c **** * Side Effects:
 992:Generated_Source\PSoC4/Display_SPI.c **** *  Clear status register of the component.
ARM GAS  C:\Users\VIDEOH~1\AppData\Local\Temp\ccqaCiob.s 			page 29


 993:Generated_Source\PSoC4/Display_SPI.c **** *
 994:Generated_Source\PSoC4/Display_SPI.c **** *******************************************************************************/
 995:Generated_Source\PSoC4/Display_SPI.c **** void Display_SPI_ClearFIFO(void) 
 996:Generated_Source\PSoC4/Display_SPI.c **** {
 583              		.loc 1 996 0
 584              		.cfi_startproc
 585              		@ args = 0, pretend = 0, frame = 0
 586              		@ frame_needed = 0, uses_anonymous_args = 0
 997:Generated_Source\PSoC4/Display_SPI.c ****     uint8 enableInterrupts;
 998:Generated_Source\PSoC4/Display_SPI.c **** 
 999:Generated_Source\PSoC4/Display_SPI.c ****     /* Clear Hardware RX FIFO */
1000:Generated_Source\PSoC4/Display_SPI.c ****     while(0u !=(Display_SPI_RX_STATUS_REG & Display_SPI_STS_RX_FIFO_NOT_EMPTY))
 587              		.loc 1 1000 0
 588 0000 2023     		movs	r3, #32
 996:Generated_Source\PSoC4/Display_SPI.c ****     uint8 enableInterrupts;
 589              		.loc 1 996 0
 590 0002 10B5     		push	{r4, lr}
 591              		.cfi_def_cfa_offset 8
 592              		.cfi_offset 4, -8
 593              		.cfi_offset 14, -4
 594              		.loc 1 1000 0
 595 0004 0949     		ldr	r1, .L59
1001:Generated_Source\PSoC4/Display_SPI.c ****     {
1002:Generated_Source\PSoC4/Display_SPI.c ****         (void) CY_GET_REG8(Display_SPI_RXDATA_PTR);
 596              		.loc 1 1002 0
 597 0006 0A48     		ldr	r0, .L59+4
 598              	.L56:
1000:Generated_Source\PSoC4/Display_SPI.c ****     {
 599              		.loc 1 1000 0
 600 0008 0A78     		ldrb	r2, [r1]
 601 000a 1A42     		tst	r2, r3
 602 000c 01D0     		beq	.L58
 603              		.loc 1 1002 0
 604 000e 0278     		ldrb	r2, [r0]
 605 0010 FAE7     		b	.L56
 606              	.L58:
1003:Generated_Source\PSoC4/Display_SPI.c ****     }
1004:Generated_Source\PSoC4/Display_SPI.c **** 
1005:Generated_Source\PSoC4/Display_SPI.c ****     enableInterrupts = CyEnterCriticalSection();
 607              		.loc 1 1005 0
 608 0012 FFF7FEFF 		bl	CyEnterCriticalSection
 609              	.LVL22:
1006:Generated_Source\PSoC4/Display_SPI.c ****     /* Clear TX FIFO */
1007:Generated_Source\PSoC4/Display_SPI.c ****     Display_SPI_AUX_CONTROL_DP0_REG |= ((uint8)  Display_SPI_TX_FIFO_CLR);
 610              		.loc 1 1007 0
 611 0016 0121     		movs	r1, #1
 612 0018 064B     		ldr	r3, .L59+8
1008:Generated_Source\PSoC4/Display_SPI.c ****     Display_SPI_AUX_CONTROL_DP0_REG &= ((uint8) ~Display_SPI_TX_FIFO_CLR);
1009:Generated_Source\PSoC4/Display_SPI.c **** 
1010:Generated_Source\PSoC4/Display_SPI.c ****     #if(Display_SPI_USE_SECOND_DATAPATH)
1011:Generated_Source\PSoC4/Display_SPI.c ****         /* Clear TX FIFO for 2nd Datapath */
1012:Generated_Source\PSoC4/Display_SPI.c ****         Display_SPI_AUX_CONTROL_DP1_REG |= ((uint8)  Display_SPI_TX_FIFO_CLR);
1013:Generated_Source\PSoC4/Display_SPI.c ****         Display_SPI_AUX_CONTROL_DP1_REG &= ((uint8) ~Display_SPI_TX_FIFO_CLR);
1014:Generated_Source\PSoC4/Display_SPI.c ****     #endif /* (Display_SPI_USE_SECOND_DATAPATH) */
1015:Generated_Source\PSoC4/Display_SPI.c ****     CyExitCriticalSection(enableInterrupts);
1016:Generated_Source\PSoC4/Display_SPI.c **** }
 613              		.loc 1 1016 0
ARM GAS  C:\Users\VIDEOH~1\AppData\Local\Temp\ccqaCiob.s 			page 30


 614              		@ sp needed
1007:Generated_Source\PSoC4/Display_SPI.c ****     Display_SPI_AUX_CONTROL_DP0_REG &= ((uint8) ~Display_SPI_TX_FIFO_CLR);
 615              		.loc 1 1007 0
 616 001a 1A78     		ldrb	r2, [r3]
 617 001c 0A43     		orrs	r2, r1
 618 001e 1A70     		strb	r2, [r3]
1008:Generated_Source\PSoC4/Display_SPI.c ****     Display_SPI_AUX_CONTROL_DP0_REG &= ((uint8) ~Display_SPI_TX_FIFO_CLR);
 619              		.loc 1 1008 0
 620 0020 1A78     		ldrb	r2, [r3]
 621 0022 8A43     		bics	r2, r1
 622 0024 1A70     		strb	r2, [r3]
1015:Generated_Source\PSoC4/Display_SPI.c **** }
 623              		.loc 1 1015 0
 624 0026 FFF7FEFF 		bl	CyExitCriticalSection
 625              	.LVL23:
 626              		.loc 1 1016 0
 627 002a 10BD     		pop	{r4, pc}
 628              	.L60:
 629              		.align	2
 630              	.L59:
 631 002c 63000F40 		.word	1074724963
 632 0030 51000F40 		.word	1074724945
 633 0034 91000F40 		.word	1074725009
 634              		.cfi_endproc
 635              	.LFE19:
 636              		.size	Display_SPI_ClearFIFO, .-Display_SPI_ClearFIFO
 637              		.section	.text.Display_SPI_Init,"ax",%progbits
 638              		.align	1
 639              		.global	Display_SPI_Init
 640              		.code	16
 641              		.thumb_func
 642              		.type	Display_SPI_Init, %function
 643              	Display_SPI_Init:
 644              	.LFB0:
  64:Generated_Source\PSoC4/Display_SPI.c ****     /* Initialize the Bit counter */
 645              		.loc 1 64 0
 646              		.cfi_startproc
 647              		@ args = 0, pretend = 0, frame = 0
 648              		@ frame_needed = 0, uses_anonymous_args = 0
  66:Generated_Source\PSoC4/Display_SPI.c **** 
 649              		.loc 1 66 0
 650 0000 0F22     		movs	r2, #15
 651 0002 074B     		ldr	r3, .L62
  64:Generated_Source\PSoC4/Display_SPI.c ****     /* Initialize the Bit counter */
 652              		.loc 1 64 0
 653 0004 10B5     		push	{r4, lr}
 654              		.cfi_def_cfa_offset 8
 655              		.cfi_offset 4, -8
 656              		.cfi_offset 14, -4
  66:Generated_Source\PSoC4/Display_SPI.c **** 
 657              		.loc 1 66 0
 658 0006 1A70     		strb	r2, [r3]
  83:Generated_Source\PSoC4/Display_SPI.c **** 
 659              		.loc 1 83 0
 660 0008 FFF7FEFF 		bl	Display_SPI_ClearFIFO
 661              	.LVL24:
 662              	.LBB22:
ARM GAS  C:\Users\VIDEOH~1\AppData\Local\Temp\ccqaCiob.s 			page 31


 663              	.LBB23:
 401:Generated_Source\PSoC4/Display_SPI.c **** 
 664              		.loc 1 401 0
 665 000c 054B     		ldr	r3, .L62+4
 666              	.LBE23:
 667              	.LBE22:
 101:Generated_Source\PSoC4/Display_SPI.c ****     Display_SPI_RX_STATUS_MASK_REG = Display_SPI_RX_INIT_INTERRUPTS_MASK;
 668              		.loc 1 101 0
 669 000e 064A     		ldr	r2, .L62+8
 670              	.LBB25:
 671              	.LBB24:
 401:Generated_Source\PSoC4/Display_SPI.c **** 
 672              		.loc 1 401 0
 673 0010 1B78     		ldrb	r3, [r3]
 674              	.LBE24:
 675              	.LBE25:
 676              	.LBB26:
 677              	.LBB27:
 452:Generated_Source\PSoC4/Display_SPI.c **** 
 678              		.loc 1 452 0
 679 0012 064B     		ldr	r3, .L62+12
 680              	.LBE27:
 681              	.LBE26:
 103:Generated_Source\PSoC4/Display_SPI.c **** 
 682              		.loc 1 103 0
 683              		@ sp needed
 684              	.LBB29:
 685              	.LBB28:
 452:Generated_Source\PSoC4/Display_SPI.c **** 
 686              		.loc 1 452 0
 687 0014 1B78     		ldrb	r3, [r3]
 688              	.LBE28:
 689              	.LBE29:
 101:Generated_Source\PSoC4/Display_SPI.c ****     Display_SPI_RX_STATUS_MASK_REG = Display_SPI_RX_INIT_INTERRUPTS_MASK;
 690              		.loc 1 101 0
 691 0016 0023     		movs	r3, #0
 692 0018 1370     		strb	r3, [r2]
 102:Generated_Source\PSoC4/Display_SPI.c **** }
 693              		.loc 1 102 0
 694 001a 054A     		ldr	r2, .L62+16
 695 001c 1370     		strb	r3, [r2]
 103:Generated_Source\PSoC4/Display_SPI.c **** 
 696              		.loc 1 103 0
 697 001e 10BD     		pop	{r4, pc}
 698              	.L63:
 699              		.align	2
 700              	.L62:
 701 0020 81000F40 		.word	1074724993
 702 0024 62000F40 		.word	1074724962
 703 0028 82000F40 		.word	1074724994
 704 002c 63000F40 		.word	1074724963
 705 0030 83000F40 		.word	1074724995
 706              		.cfi_endproc
 707              	.LFE0:
 708              		.size	Display_SPI_Init, .-Display_SPI_Init
 709              		.section	.text.Display_SPI_Start,"ax",%progbits
 710              		.align	1
ARM GAS  C:\Users\VIDEOH~1\AppData\Local\Temp\ccqaCiob.s 			page 32


 711              		.global	Display_SPI_Start
 712              		.code	16
 713              		.thumb_func
 714              		.type	Display_SPI_Start, %function
 715              	Display_SPI_Start:
 716              	.LFB2:
 164:Generated_Source\PSoC4/Display_SPI.c ****     if(0u == Display_SPI_initVar)
 717              		.loc 1 164 0
 718              		.cfi_startproc
 719              		@ args = 0, pretend = 0, frame = 0
 720              		@ frame_needed = 0, uses_anonymous_args = 0
 721 0000 10B5     		push	{r4, lr}
 722              		.cfi_def_cfa_offset 8
 723              		.cfi_offset 4, -8
 724              		.cfi_offset 14, -4
 165:Generated_Source\PSoC4/Display_SPI.c ****     {
 725              		.loc 1 165 0
 726 0002 054C     		ldr	r4, .L66
 727 0004 2378     		ldrb	r3, [r4]
 728 0006 002B     		cmp	r3, #0
 729 0008 03D1     		bne	.L65
 167:Generated_Source\PSoC4/Display_SPI.c ****         Display_SPI_initVar = 1u;
 730              		.loc 1 167 0
 731 000a FFF7FEFF 		bl	Display_SPI_Init
 732              	.LVL25:
 168:Generated_Source\PSoC4/Display_SPI.c ****     }
 733              		.loc 1 168 0
 734 000e 0123     		movs	r3, #1
 735 0010 2370     		strb	r3, [r4]
 736              	.L65:
 171:Generated_Source\PSoC4/Display_SPI.c **** }
 737              		.loc 1 171 0
 738 0012 FFF7FEFF 		bl	Display_SPI_Enable
 739              	.LVL26:
 172:Generated_Source\PSoC4/Display_SPI.c **** 
 740              		.loc 1 172 0
 741              		@ sp needed
 742 0016 10BD     		pop	{r4, pc}
 743              	.L67:
 744              		.align	2
 745              	.L66:
 746 0018 00000000 		.word	.LANCHOR0
 747              		.cfi_endproc
 748              	.LFE2:
 749              		.size	Display_SPI_Start, .-Display_SPI_Start
 750              		.section	.text.Display_SPI_EnableInt,"ax",%progbits
 751              		.align	1
 752              		.global	Display_SPI_EnableInt
 753              		.code	16
 754              		.thumb_func
 755              		.type	Display_SPI_EnableInt, %function
 756              	Display_SPI_EnableInt:
 757              	.LFB25:
 758              		.cfi_startproc
 759              		@ args = 0, pretend = 0, frame = 0
 760              		@ frame_needed = 0, uses_anonymous_args = 0
 761              		@ link register save eliminated.
ARM GAS  C:\Users\VIDEOH~1\AppData\Local\Temp\ccqaCiob.s 			page 33


 762              		@ sp needed
 763 0000 7047     		bx	lr
 764              		.cfi_endproc
 765              	.LFE25:
 766              		.size	Display_SPI_EnableInt, .-Display_SPI_EnableInt
 767              		.section	.text.Display_SPI_DisableInt,"ax",%progbits
 768              		.align	1
 769              		.global	Display_SPI_DisableInt
 770              		.code	16
 771              		.thumb_func
 772              		.type	Display_SPI_DisableInt, %function
 773              	Display_SPI_DisableInt:
 774              	.LFB21:
1017:Generated_Source\PSoC4/Display_SPI.c **** 
1018:Generated_Source\PSoC4/Display_SPI.c **** 
1019:Generated_Source\PSoC4/Display_SPI.c **** /* Following functions are for version Compatibility, they are obsolete.
1020:Generated_Source\PSoC4/Display_SPI.c **** *  Please do not use it in new projects.
1021:Generated_Source\PSoC4/Display_SPI.c **** */
1022:Generated_Source\PSoC4/Display_SPI.c **** 
1023:Generated_Source\PSoC4/Display_SPI.c **** 
1024:Generated_Source\PSoC4/Display_SPI.c **** /*******************************************************************************
1025:Generated_Source\PSoC4/Display_SPI.c **** * Function Name: Display_SPI_EnableInt
1026:Generated_Source\PSoC4/Display_SPI.c **** ********************************************************************************
1027:Generated_Source\PSoC4/Display_SPI.c **** *
1028:Generated_Source\PSoC4/Display_SPI.c **** * Summary:
1029:Generated_Source\PSoC4/Display_SPI.c **** *  Enable internal interrupt generation.
1030:Generated_Source\PSoC4/Display_SPI.c **** *
1031:Generated_Source\PSoC4/Display_SPI.c **** * Parameters:
1032:Generated_Source\PSoC4/Display_SPI.c **** *  None.
1033:Generated_Source\PSoC4/Display_SPI.c **** *
1034:Generated_Source\PSoC4/Display_SPI.c **** * Return:
1035:Generated_Source\PSoC4/Display_SPI.c **** *  None.
1036:Generated_Source\PSoC4/Display_SPI.c **** *
1037:Generated_Source\PSoC4/Display_SPI.c **** * Theory:
1038:Generated_Source\PSoC4/Display_SPI.c **** *  Enable the internal interrupt output -or- the interrupt component itself.
1039:Generated_Source\PSoC4/Display_SPI.c **** *
1040:Generated_Source\PSoC4/Display_SPI.c **** *******************************************************************************/
1041:Generated_Source\PSoC4/Display_SPI.c **** void Display_SPI_EnableInt(void) 
1042:Generated_Source\PSoC4/Display_SPI.c **** {
1043:Generated_Source\PSoC4/Display_SPI.c ****     Display_SPI_EnableRxInt();
1044:Generated_Source\PSoC4/Display_SPI.c ****     Display_SPI_EnableTxInt();
1045:Generated_Source\PSoC4/Display_SPI.c **** }
1046:Generated_Source\PSoC4/Display_SPI.c **** 
1047:Generated_Source\PSoC4/Display_SPI.c **** 
1048:Generated_Source\PSoC4/Display_SPI.c **** /*******************************************************************************
1049:Generated_Source\PSoC4/Display_SPI.c **** * Function Name: Display_SPI_DisableInt
1050:Generated_Source\PSoC4/Display_SPI.c **** ********************************************************************************
1051:Generated_Source\PSoC4/Display_SPI.c **** *
1052:Generated_Source\PSoC4/Display_SPI.c **** * Summary:
1053:Generated_Source\PSoC4/Display_SPI.c **** *  Disable internal interrupt generation.
1054:Generated_Source\PSoC4/Display_SPI.c **** *
1055:Generated_Source\PSoC4/Display_SPI.c **** * Parameters:
1056:Generated_Source\PSoC4/Display_SPI.c **** *  None.
1057:Generated_Source\PSoC4/Display_SPI.c **** *
1058:Generated_Source\PSoC4/Display_SPI.c **** * Return:
1059:Generated_Source\PSoC4/Display_SPI.c **** *  None.
1060:Generated_Source\PSoC4/Display_SPI.c **** *
ARM GAS  C:\Users\VIDEOH~1\AppData\Local\Temp\ccqaCiob.s 			page 34


1061:Generated_Source\PSoC4/Display_SPI.c **** * Theory:
1062:Generated_Source\PSoC4/Display_SPI.c **** *  Disable the internal interrupt output -or- the interrupt component itself.
1063:Generated_Source\PSoC4/Display_SPI.c **** *
1064:Generated_Source\PSoC4/Display_SPI.c **** *******************************************************************************/
1065:Generated_Source\PSoC4/Display_SPI.c **** void Display_SPI_DisableInt(void) 
1066:Generated_Source\PSoC4/Display_SPI.c **** {
 775              		.loc 1 1066 0
 776              		.cfi_startproc
 777              		@ args = 0, pretend = 0, frame = 0
 778              		@ frame_needed = 0, uses_anonymous_args = 0
 779              		@ link register save eliminated.
1067:Generated_Source\PSoC4/Display_SPI.c ****     Display_SPI_DisableTxInt();
1068:Generated_Source\PSoC4/Display_SPI.c ****     Display_SPI_DisableRxInt();
1069:Generated_Source\PSoC4/Display_SPI.c **** }
 780              		.loc 1 1069 0
 781              		@ sp needed
 782 0000 7047     		bx	lr
 783              		.cfi_endproc
 784              	.LFE21:
 785              		.size	Display_SPI_DisableInt, .-Display_SPI_DisableInt
 786              		.section	.text.Display_SPI_SetInterruptMode,"ax",%progbits
 787              		.align	1
 788              		.global	Display_SPI_SetInterruptMode
 789              		.code	16
 790              		.thumb_func
 791              		.type	Display_SPI_SetInterruptMode, %function
 792              	Display_SPI_SetInterruptMode:
 793              	.LFB22:
1070:Generated_Source\PSoC4/Display_SPI.c **** 
1071:Generated_Source\PSoC4/Display_SPI.c **** 
1072:Generated_Source\PSoC4/Display_SPI.c **** /*******************************************************************************
1073:Generated_Source\PSoC4/Display_SPI.c **** * Function Name: Display_SPI_SetInterruptMode
1074:Generated_Source\PSoC4/Display_SPI.c **** ********************************************************************************
1075:Generated_Source\PSoC4/Display_SPI.c **** *
1076:Generated_Source\PSoC4/Display_SPI.c **** * Summary:
1077:Generated_Source\PSoC4/Display_SPI.c **** *  Configure which status bits trigger an interrupt event.
1078:Generated_Source\PSoC4/Display_SPI.c **** *
1079:Generated_Source\PSoC4/Display_SPI.c **** * Parameters:
1080:Generated_Source\PSoC4/Display_SPI.c **** *  intSrc: An or'd combination of the desired status bit masks (defined in the
1081:Generated_Source\PSoC4/Display_SPI.c **** *  header file).
1082:Generated_Source\PSoC4/Display_SPI.c **** *
1083:Generated_Source\PSoC4/Display_SPI.c **** * Return:
1084:Generated_Source\PSoC4/Display_SPI.c **** *  None.
1085:Generated_Source\PSoC4/Display_SPI.c **** *
1086:Generated_Source\PSoC4/Display_SPI.c **** * Theory:
1087:Generated_Source\PSoC4/Display_SPI.c **** *  Enables the output of specific status bits to the interrupt controller.
1088:Generated_Source\PSoC4/Display_SPI.c **** *
1089:Generated_Source\PSoC4/Display_SPI.c **** *******************************************************************************/
1090:Generated_Source\PSoC4/Display_SPI.c **** void Display_SPI_SetInterruptMode(uint8 intSrc) 
1091:Generated_Source\PSoC4/Display_SPI.c **** {
 794              		.loc 1 1091 0
 795              		.cfi_startproc
 796              		@ args = 0, pretend = 0, frame = 0
 797              		@ frame_needed = 0, uses_anonymous_args = 0
 798              		@ link register save eliminated.
 799              	.LVL27:
1092:Generated_Source\PSoC4/Display_SPI.c ****     Display_SPI_TX_STATUS_MASK_REG  = (intSrc & ((uint8) ~Display_SPI_STS_SPI_IDLE));
ARM GAS  C:\Users\VIDEOH~1\AppData\Local\Temp\ccqaCiob.s 			page 35


 800              		.loc 1 1092 0
 801 0000 1023     		movs	r3, #16
 802 0002 0200     		movs	r2, r0
 803 0004 9A43     		bics	r2, r3
 804 0006 024B     		ldr	r3, .L71
1093:Generated_Source\PSoC4/Display_SPI.c ****     Display_SPI_RX_STATUS_MASK_REG  =  intSrc;
1094:Generated_Source\PSoC4/Display_SPI.c **** }
 805              		.loc 1 1094 0
 806              		@ sp needed
1092:Generated_Source\PSoC4/Display_SPI.c ****     Display_SPI_TX_STATUS_MASK_REG  = (intSrc & ((uint8) ~Display_SPI_STS_SPI_IDLE));
 807              		.loc 1 1092 0
 808 0008 1A70     		strb	r2, [r3]
1093:Generated_Source\PSoC4/Display_SPI.c ****     Display_SPI_RX_STATUS_MASK_REG  =  intSrc;
 809              		.loc 1 1093 0
 810 000a 024B     		ldr	r3, .L71+4
 811 000c 1870     		strb	r0, [r3]
 812              		.loc 1 1094 0
 813 000e 7047     		bx	lr
 814              	.L72:
 815              		.align	2
 816              	.L71:
 817 0010 82000F40 		.word	1074724994
 818 0014 83000F40 		.word	1074724995
 819              		.cfi_endproc
 820              	.LFE22:
 821              		.size	Display_SPI_SetInterruptMode, .-Display_SPI_SetInterruptMode
 822              		.section	.text.Display_SPI_ReadStatus,"ax",%progbits
 823              		.align	1
 824              		.global	Display_SPI_ReadStatus
 825              		.code	16
 826              		.thumb_func
 827              		.type	Display_SPI_ReadStatus, %function
 828              	Display_SPI_ReadStatus:
 829              	.LFB23:
1095:Generated_Source\PSoC4/Display_SPI.c **** 
1096:Generated_Source\PSoC4/Display_SPI.c **** 
1097:Generated_Source\PSoC4/Display_SPI.c **** /*******************************************************************************
1098:Generated_Source\PSoC4/Display_SPI.c **** * Function Name: Display_SPI_ReadStatus
1099:Generated_Source\PSoC4/Display_SPI.c **** ********************************************************************************
1100:Generated_Source\PSoC4/Display_SPI.c **** *
1101:Generated_Source\PSoC4/Display_SPI.c **** * Summary:
1102:Generated_Source\PSoC4/Display_SPI.c **** *  Read the status register for the component.
1103:Generated_Source\PSoC4/Display_SPI.c **** *
1104:Generated_Source\PSoC4/Display_SPI.c **** * Parameters:
1105:Generated_Source\PSoC4/Display_SPI.c **** *  None.
1106:Generated_Source\PSoC4/Display_SPI.c **** *
1107:Generated_Source\PSoC4/Display_SPI.c **** * Return:
1108:Generated_Source\PSoC4/Display_SPI.c **** *  Contents of the status register.
1109:Generated_Source\PSoC4/Display_SPI.c **** *
1110:Generated_Source\PSoC4/Display_SPI.c **** * Global variables:
1111:Generated_Source\PSoC4/Display_SPI.c **** *  Display_SPI_swStatus - used to store in software status register,
1112:Generated_Source\PSoC4/Display_SPI.c **** *  modified every function call - resets to zero.
1113:Generated_Source\PSoC4/Display_SPI.c **** *
1114:Generated_Source\PSoC4/Display_SPI.c **** * Theory:
1115:Generated_Source\PSoC4/Display_SPI.c **** *  Allows the user and the API to read the status register for error detection
1116:Generated_Source\PSoC4/Display_SPI.c **** *  and flow control.
1117:Generated_Source\PSoC4/Display_SPI.c **** *
ARM GAS  C:\Users\VIDEOH~1\AppData\Local\Temp\ccqaCiob.s 			page 36


1118:Generated_Source\PSoC4/Display_SPI.c **** * Side Effects:
1119:Generated_Source\PSoC4/Display_SPI.c **** *  Clear status register of the component.
1120:Generated_Source\PSoC4/Display_SPI.c **** *
1121:Generated_Source\PSoC4/Display_SPI.c **** * Reentrant:
1122:Generated_Source\PSoC4/Display_SPI.c **** *  No.
1123:Generated_Source\PSoC4/Display_SPI.c **** *
1124:Generated_Source\PSoC4/Display_SPI.c **** *******************************************************************************/
1125:Generated_Source\PSoC4/Display_SPI.c **** uint8 Display_SPI_ReadStatus(void) 
1126:Generated_Source\PSoC4/Display_SPI.c **** {
 830              		.loc 1 1126 0
 831              		.cfi_startproc
 832              		@ args = 0, pretend = 0, frame = 0
 833              		@ frame_needed = 0, uses_anonymous_args = 0
 834              		@ link register save eliminated.
1127:Generated_Source\PSoC4/Display_SPI.c ****     uint8 tmpStatus;
1128:Generated_Source\PSoC4/Display_SPI.c **** 
1129:Generated_Source\PSoC4/Display_SPI.c ****     #if(Display_SPI_TX_SOFTWARE_BUF_ENABLED || Display_SPI_RX_SOFTWARE_BUF_ENABLED)
1130:Generated_Source\PSoC4/Display_SPI.c **** 
1131:Generated_Source\PSoC4/Display_SPI.c ****         Display_SPI_DisableInt();
1132:Generated_Source\PSoC4/Display_SPI.c **** 
1133:Generated_Source\PSoC4/Display_SPI.c ****         tmpStatus  = Display_SPI_GET_STATUS_RX(Display_SPI_swStatusRx);
1134:Generated_Source\PSoC4/Display_SPI.c ****         tmpStatus |= Display_SPI_GET_STATUS_TX(Display_SPI_swStatusTx);
1135:Generated_Source\PSoC4/Display_SPI.c ****         tmpStatus &= ((uint8) ~Display_SPI_STS_SPI_IDLE);
1136:Generated_Source\PSoC4/Display_SPI.c **** 
1137:Generated_Source\PSoC4/Display_SPI.c ****         Display_SPI_swStatusTx = 0u;
1138:Generated_Source\PSoC4/Display_SPI.c ****         Display_SPI_swStatusRx = 0u;
1139:Generated_Source\PSoC4/Display_SPI.c **** 
1140:Generated_Source\PSoC4/Display_SPI.c ****         Display_SPI_EnableInt();
1141:Generated_Source\PSoC4/Display_SPI.c **** 
1142:Generated_Source\PSoC4/Display_SPI.c ****     #else
1143:Generated_Source\PSoC4/Display_SPI.c **** 
1144:Generated_Source\PSoC4/Display_SPI.c ****         tmpStatus  = Display_SPI_RX_STATUS_REG;
 835              		.loc 1 1144 0
 836 0000 034B     		ldr	r3, .L74
1145:Generated_Source\PSoC4/Display_SPI.c ****         tmpStatus |= Display_SPI_TX_STATUS_REG;
1146:Generated_Source\PSoC4/Display_SPI.c ****         tmpStatus &= ((uint8) ~Display_SPI_STS_SPI_IDLE);
1147:Generated_Source\PSoC4/Display_SPI.c **** 
1148:Generated_Source\PSoC4/Display_SPI.c ****     #endif /* (Display_SPI_TX_SOFTWARE_BUF_ENABLED || Display_SPI_RX_SOFTWARE_BUF_ENABLED) */
1149:Generated_Source\PSoC4/Display_SPI.c **** 
1150:Generated_Source\PSoC4/Display_SPI.c ****     return(tmpStatus);
1151:Generated_Source\PSoC4/Display_SPI.c **** }
 837              		.loc 1 1151 0
 838              		@ sp needed
1144:Generated_Source\PSoC4/Display_SPI.c ****         tmpStatus |= Display_SPI_TX_STATUS_REG;
 839              		.loc 1 1144 0
 840 0002 1878     		ldrb	r0, [r3]
 841              	.LVL28:
1145:Generated_Source\PSoC4/Display_SPI.c ****         tmpStatus |= Display_SPI_TX_STATUS_REG;
 842              		.loc 1 1145 0
 843 0004 034B     		ldr	r3, .L74+4
 844 0006 1B78     		ldrb	r3, [r3]
 845 0008 1843     		orrs	r0, r3
 846              	.LVL29:
1150:Generated_Source\PSoC4/Display_SPI.c **** }
 847              		.loc 1 1150 0
 848 000a 1023     		movs	r3, #16
 849 000c 9843     		bics	r0, r3
ARM GAS  C:\Users\VIDEOH~1\AppData\Local\Temp\ccqaCiob.s 			page 37


 850              	.LVL30:
 851              		.loc 1 1151 0
 852 000e 7047     		bx	lr
 853              	.L75:
 854              		.align	2
 855              	.L74:
 856 0010 63000F40 		.word	1074724963
 857 0014 62000F40 		.word	1074724962
 858              		.cfi_endproc
 859              	.LFE23:
 860              		.size	Display_SPI_ReadStatus, .-Display_SPI_ReadStatus
 861              		.comm	Display_SPI_swStatusRx,1,1
 862              		.comm	Display_SPI_swStatusTx,1,1
 863              		.global	Display_SPI_initVar
 864              		.bss
 865              		.set	.LANCHOR0,. + 0
 866              		.type	Display_SPI_initVar, %object
 867              		.size	Display_SPI_initVar, 1
 868              	Display_SPI_initVar:
 869 0000 00       		.space	1
 870              		.text
 871              	.Letext0:
 872              		.file 2 "Generated_Source\\PSoC4\\cytypes.h"
 873              		.file 3 "Generated_Source\\PSoC4\\CyLib.h"