ARM GAS  C:\Users\VIDEOH~1\AppData\Local\Temp\ccAMMyed.s 			page 1


   1              		.syntax unified
   2              		.cpu cortex-m0
   3              		.fpu softvfp
   4              		.eabi_attribute 20, 1
   5              		.eabi_attribute 21, 1
   6              		.eabi_attribute 23, 3
   7              		.eabi_attribute 24, 1
   8              		.eabi_attribute 25, 1
   9              		.eabi_attribute 26, 1
  10              		.eabi_attribute 30, 4
  11              		.eabi_attribute 34, 0
  12              		.eabi_attribute 18, 4
  13              		.thumb
  14              		.syntax unified
  15              		.file	"EEPROM.c"
  16              		.text
  17              	.Ltext0:
  18              		.cfi_sections	.debug_frame
  19              		.section	.text.EEPROM_Init,"ax",%progbits
  20              		.align	1
  21              		.global	EEPROM_Init
  22              		.code	16
  23              		.thumb_func
  24              		.type	EEPROM_Init, %function
  25              	EEPROM_Init:
  26              	.LFB0:
  27              		.file 1 "Generated_Source\\PSoC4\\EEPROM.c"
   1:Generated_Source\PSoC4/EEPROM.c **** /*******************************************************************************
   2:Generated_Source\PSoC4/EEPROM.c **** * File Name: EEPROM.c
   3:Generated_Source\PSoC4/EEPROM.c **** * Version 2.20
   4:Generated_Source\PSoC4/EEPROM.c **** *
   5:Generated_Source\PSoC4/EEPROM.c **** * Description:
   6:Generated_Source\PSoC4/EEPROM.c **** *  This file provides source code of the API for the Emulated EEPROM
   7:Generated_Source\PSoC4/EEPROM.c **** *  Component.
   8:Generated_Source\PSoC4/EEPROM.c **** *
   9:Generated_Source\PSoC4/EEPROM.c **** ********************************************************************************
  10:Generated_Source\PSoC4/EEPROM.c **** * Copyright 2013-2017, Cypress Semiconductor Corporation. All rights reserved.
  11:Generated_Source\PSoC4/EEPROM.c **** * You may use this file only in accordance with the license, terms, conditions,
  12:Generated_Source\PSoC4/EEPROM.c **** * disclaimers, and limitations in the end user license agreement accompanying
  13:Generated_Source\PSoC4/EEPROM.c **** * the software package with which this file was provided.
  14:Generated_Source\PSoC4/EEPROM.c **** *******************************************************************************/
  15:Generated_Source\PSoC4/EEPROM.c **** 
  16:Generated_Source\PSoC4/EEPROM.c **** #include "EEPROM.h"
  17:Generated_Source\PSoC4/EEPROM.c **** 
  18:Generated_Source\PSoC4/EEPROM.c **** /** The instance-specific configuration structure. This should be used in the
  19:Generated_Source\PSoC4/EEPROM.c **** *  associated EEPROM_Init() function.
  20:Generated_Source\PSoC4/EEPROM.c **** */
  21:Generated_Source\PSoC4/EEPROM.c **** cy_stc_eeprom_config_t const EEPROM_config =
  22:Generated_Source\PSoC4/EEPROM.c **** {
  23:Generated_Source\PSoC4/EEPROM.c ****     64U,
  24:Generated_Source\PSoC4/EEPROM.c ****     1U,
  25:Generated_Source\PSoC4/EEPROM.c ****     0U,
  26:Generated_Source\PSoC4/EEPROM.c ****     0U,
  27:Generated_Source\PSoC4/EEPROM.c ****     0U
  28:Generated_Source\PSoC4/EEPROM.c **** };
  29:Generated_Source\PSoC4/EEPROM.c **** 
  30:Generated_Source\PSoC4/EEPROM.c **** /** The instance-specific context structure that holds all required information
ARM GAS  C:\Users\VIDEOH~1\AppData\Local\Temp\ccAMMyed.s 			page 2


  31:Generated_Source\PSoC4/EEPROM.c **** * about an EEPROM instance. This structure is filled by the Em_EEPROM
  32:Generated_Source\PSoC4/EEPROM.c **** * library Init() function and used by EEPROM library functions.
  33:Generated_Source\PSoC4/EEPROM.c **** */
  34:Generated_Source\PSoC4/EEPROM.c **** cy_stc_eeprom_context_t EEPROM_context;
  35:Generated_Source\PSoC4/EEPROM.c **** 
  36:Generated_Source\PSoC4/EEPROM.c **** /* For PSoC 6 place EEPROM into Emulated EEPROM flash area */
  37:Generated_Source\PSoC4/EEPROM.c **** #if ((CY_PSOC6) && (EEPROM_STORAGE_EM_EEPROM))
  38:Generated_Source\PSoC4/EEPROM.c **** 
  39:Generated_Source\PSoC4/EEPROM.c ****     CY_SECTION(".cy_em_eeprom") CY_ALIGN(CY_FLASH_SIZEOF_ROW)
  40:Generated_Source\PSoC4/EEPROM.c ****     const uint8 EEPROM_em_EepromStorage[EEPROM_ACTUAL_SIZE] = {0u};
  41:Generated_Source\PSoC4/EEPROM.c **** 
  42:Generated_Source\PSoC4/EEPROM.c **** #endif /* ((CY_PSOC6) && (EEPROM_STORAGE_EM_EEPROM)) */
  43:Generated_Source\PSoC4/EEPROM.c **** 
  44:Generated_Source\PSoC4/EEPROM.c **** 
  45:Generated_Source\PSoC4/EEPROM.c **** /*******************************************************************************
  46:Generated_Source\PSoC4/EEPROM.c **** * Function Name: EEPROM_Init
  47:Generated_Source\PSoC4/EEPROM.c **** ********************************************************************************
  48:Generated_Source\PSoC4/EEPROM.c **** *
  49:Generated_Source\PSoC4/EEPROM.c **** * Fills the start address of the EEPROM to the component configuration structure
  50:Generated_Source\PSoC4/EEPROM.c **** * and invokes Cy_Em_EEPROM_Init() function. In case of PSoC 6 the function 
  51:Generated_Source\PSoC4/EEPROM.c **** * is located in Cy_Em_EEPROM middleware library which is part of PDL. In case if
  52:Generated_Source\PSoC4/EEPROM.c **** * it is utilized in the design based on non-PSOC 6 device the function is 
  53:Generated_Source\PSoC4/EEPROM.c **** * located in internal design wide resource component - Em_EEPROM_Dynamic.
  54:Generated_Source\PSoC4/EEPROM.c **** *
  55:Generated_Source\PSoC4/EEPROM.c **** * \param startAddress
  56:Generated_Source\PSoC4/EEPROM.c **** * Start address of the EEPROM storage. For PSoC 6, if Emulated EEPROM is 
  57:Generated_Source\PSoC4/EEPROM.c **** * selected for EEPROM storage, the start address will be overwritten to some 
  58:Generated_Source\PSoC4/EEPROM.c **** * address from Emulated EEPROM flash area.
  59:Generated_Source\PSoC4/EEPROM.c **** *
  60:Generated_Source\PSoC4/EEPROM.c **** * \return
  61:Generated_Source\PSoC4/EEPROM.c **** * A result of function execution of type cy_en_em_eeprom_status_t.
  62:Generated_Source\PSoC4/EEPROM.c **** *
  63:Generated_Source\PSoC4/EEPROM.c **** *******************************************************************************/
  64:Generated_Source\PSoC4/EEPROM.c **** cy_en_em_eeprom_status_t EEPROM_Init(uint32 startAddress)
  65:Generated_Source\PSoC4/EEPROM.c **** {
  28              		.loc 1 65 0
  29              		.cfi_startproc
  30              		@ args = 0, pretend = 0, frame = 16
  31              		@ frame_needed = 0, uses_anonymous_args = 0
  32              	.LVL0:
  33 0000 1FB5     		push	{r0, r1, r2, r3, r4, lr}
  34              		.cfi_def_cfa_offset 24
  35              		.cfi_offset 0, -24
  36              		.cfi_offset 1, -20
  37              		.cfi_offset 2, -16
  38              		.cfi_offset 3, -12
  39              		.cfi_offset 4, -8
  40              		.cfi_offset 14, -4
  66:Generated_Source\PSoC4/EEPROM.c ****     cy_en_em_eeprom_status_t ret;
  67:Generated_Source\PSoC4/EEPROM.c ****     cy_stc_eeprom_config_t config;
  68:Generated_Source\PSoC4/EEPROM.c **** 
  69:Generated_Source\PSoC4/EEPROM.c ****     config.blockingWrite =      EEPROM_config.blockingWrite;
  41              		.loc 1 69 0
  42 0002 0023     		movs	r3, #0
  43 0004 6A46     		mov	r2, sp
  44 0006 5372     		strb	r3, [r2, #9]
  70:Generated_Source\PSoC4/EEPROM.c ****     config.eepromSize =         EEPROM_config.eepromSize;
ARM GAS  C:\Users\VIDEOH~1\AppData\Local\Temp\ccAMMyed.s 			page 3


  45              		.loc 1 70 0
  46 0008 4022     		movs	r2, #64
  47 000a 0092     		str	r2, [sp]
  71:Generated_Source\PSoC4/EEPROM.c ****     config.redundantCopy =      EEPROM_config.redundantCopy;
  48              		.loc 1 71 0
  49 000c 6A46     		mov	r2, sp
  72:Generated_Source\PSoC4/EEPROM.c ****     config.wearLevelingFactor = EEPROM_config.wearLevelingFactor;
  73:Generated_Source\PSoC4/EEPROM.c ****     
  74:Generated_Source\PSoC4/EEPROM.c **** #if ((CY_PSOC6) && (EEPROM_STORAGE_EM_EEPROM))
  75:Generated_Source\PSoC4/EEPROM.c ****     /* For PSoC 6, if Emulated EEPROM is selected - override the eeprom start 
  76:Generated_Source\PSoC4/EEPROM.c ****     * address.
  77:Generated_Source\PSoC4/EEPROM.c ****     */
  78:Generated_Source\PSoC4/EEPROM.c ****     config.userFlashStartAddr = (uint32)EEPROM_em_EepromStorage;
  79:Generated_Source\PSoC4/EEPROM.c **** #else
  80:Generated_Source\PSoC4/EEPROM.c ****     config.userFlashStartAddr = startAddress;
  50              		.loc 1 80 0
  51 000e 0390     		str	r0, [sp, #12]
  71:Generated_Source\PSoC4/EEPROM.c ****     config.redundantCopy =      EEPROM_config.redundantCopy;
  52              		.loc 1 71 0
  53 0010 1372     		strb	r3, [r2, #8]
  81:Generated_Source\PSoC4/EEPROM.c **** #endif /* ((CY_PSOC6) && (EEPROM_STORAGE_EM_EEPROM)) */
  82:Generated_Source\PSoC4/EEPROM.c ****         
  83:Generated_Source\PSoC4/EEPROM.c ****     ret = Cy_Em_EEPROM_Init(&config, &EEPROM_context);
  54              		.loc 1 83 0
  55 0012 0449     		ldr	r1, .L2
  72:Generated_Source\PSoC4/EEPROM.c ****     config.wearLevelingFactor = EEPROM_config.wearLevelingFactor;
  56              		.loc 1 72 0
  57 0014 0133     		adds	r3, r3, #1
  58              		.loc 1 83 0
  59 0016 6846     		mov	r0, sp
  60              	.LVL1:
  72:Generated_Source\PSoC4/EEPROM.c ****     config.wearLevelingFactor = EEPROM_config.wearLevelingFactor;
  61              		.loc 1 72 0
  62 0018 0193     		str	r3, [sp, #4]
  63              		.loc 1 83 0
  64 001a FFF7FEFF 		bl	Cy_Em_EEPROM_Init
  65              	.LVL2:
  84:Generated_Source\PSoC4/EEPROM.c **** 
  85:Generated_Source\PSoC4/EEPROM.c ****     return(ret);
  86:Generated_Source\PSoC4/EEPROM.c **** }
  66              		.loc 1 86 0
  67 001e 05B0     		add	sp, sp, #20
  68              		@ sp needed
  69 0020 00BD     		pop	{pc}
  70              	.L3:
  71 0022 C046     		.align	2
  72              	.L2:
  73 0024 00000000 		.word	EEPROM_context
  74              		.cfi_endproc
  75              	.LFE0:
  76              		.size	EEPROM_Init, .-EEPROM_Init
  77              		.comm	EEPROM_context,28,4
  78              		.global	EEPROM_config
  79              		.section	.rodata
  80              		.align	2
  81              		.type	EEPROM_config, %object
  82              		.size	EEPROM_config, 16
ARM GAS  C:\Users\VIDEOH~1\AppData\Local\Temp\ccAMMyed.s 			page 4


  83              	EEPROM_config:
  84 0000 40000000 		.word	64
  85 0004 01000000 		.word	1
  86 0008 00       		.byte	0
  87 0009 00       		.byte	0
  88 000a 0000     		.space	2
  89 000c 00000000 		.word	0
  90              		.text
  91              	.Letext0:
  92              		.file 2 "Generated_Source\\PSoC4\\cytypes.h"
  93              		.file 3 "Generated_Source\\PSoC4\\cy_em_eeprom.h"