ARM GAS  C:\Users\VIDEOH~1\AppData\Local\Temp\ccfC0KgD.s 			page 1


   1              		.syntax unified
   2              		.cpu cortex-m0
   3              		.fpu softvfp
   4              		.eabi_attribute 20, 1
   5              		.eabi_attribute 21, 1
   6              		.eabi_attribute 23, 3
   7              		.eabi_attribute 24, 1
   8              		.eabi_attribute 25, 1
   9              		.eabi_attribute 26, 1
  10              		.eabi_attribute 30, 4
  11              		.eabi_attribute 34, 0
  12              		.eabi_attribute 18, 4
  13              		.thumb
  14              		.syntax unified
  15              		.file	"FanController_FW_PWM1.c"
  16              		.text
  17              	.Ltext0:
  18              		.cfi_sections	.debug_frame
  19              		.section	.text.FanController_FW_PWM1_Init,"ax",%progbits
  20              		.align	1
  21              		.global	FanController_FW_PWM1_Init
  22              		.code	16
  23              		.thumb_func
  24              		.type	FanController_FW_PWM1_Init, %function
  25              	FanController_FW_PWM1_Init:
  26              	.LFB0:
  27              		.file 1 "Generated_Source\\PSoC4\\FanController_FW_PWM1.c"
   1:Generated_Source\PSoC4/FanController_FW_PWM1.c **** /*******************************************************************************
   2:Generated_Source\PSoC4/FanController_FW_PWM1.c **** * File Name: FanController_FW_PWM1.c
   3:Generated_Source\PSoC4/FanController_FW_PWM1.c **** * Version 2.10
   4:Generated_Source\PSoC4/FanController_FW_PWM1.c **** *
   5:Generated_Source\PSoC4/FanController_FW_PWM1.c **** * Description:
   6:Generated_Source\PSoC4/FanController_FW_PWM1.c **** *  This file provides the source code to the API for the FanController_FW_PWM1
   7:Generated_Source\PSoC4/FanController_FW_PWM1.c **** *  component
   8:Generated_Source\PSoC4/FanController_FW_PWM1.c **** *
   9:Generated_Source\PSoC4/FanController_FW_PWM1.c **** * Note:
  10:Generated_Source\PSoC4/FanController_FW_PWM1.c **** *  None
  11:Generated_Source\PSoC4/FanController_FW_PWM1.c **** *
  12:Generated_Source\PSoC4/FanController_FW_PWM1.c **** ********************************************************************************
  13:Generated_Source\PSoC4/FanController_FW_PWM1.c **** * Copyright 2013-2015, Cypress Semiconductor Corporation.  All rights reserved.
  14:Generated_Source\PSoC4/FanController_FW_PWM1.c **** * You may use this file only in accordance with the license, terms, conditions,
  15:Generated_Source\PSoC4/FanController_FW_PWM1.c **** * disclaimers, and limitations in the end user license agreement accompanying
  16:Generated_Source\PSoC4/FanController_FW_PWM1.c **** * the software package with which this file was provided.
  17:Generated_Source\PSoC4/FanController_FW_PWM1.c **** *******************************************************************************/
  18:Generated_Source\PSoC4/FanController_FW_PWM1.c **** 
  19:Generated_Source\PSoC4/FanController_FW_PWM1.c **** #include "FanController_FW_PWM1.h"
  20:Generated_Source\PSoC4/FanController_FW_PWM1.c **** 
  21:Generated_Source\PSoC4/FanController_FW_PWM1.c **** uint8 FanController_FW_PWM1_initVar = 0u;
  22:Generated_Source\PSoC4/FanController_FW_PWM1.c **** 
  23:Generated_Source\PSoC4/FanController_FW_PWM1.c **** 
  24:Generated_Source\PSoC4/FanController_FW_PWM1.c **** /*******************************************************************************
  25:Generated_Source\PSoC4/FanController_FW_PWM1.c **** * Function Name: FanController_FW_PWM1_Init
  26:Generated_Source\PSoC4/FanController_FW_PWM1.c **** ********************************************************************************
  27:Generated_Source\PSoC4/FanController_FW_PWM1.c **** *
  28:Generated_Source\PSoC4/FanController_FW_PWM1.c **** * Summary:
  29:Generated_Source\PSoC4/FanController_FW_PWM1.c **** *  Initialize/Restore default FanController_FW_PWM1 configuration.
  30:Generated_Source\PSoC4/FanController_FW_PWM1.c **** *
ARM GAS  C:\Users\VIDEOH~1\AppData\Local\Temp\ccfC0KgD.s 			page 2


  31:Generated_Source\PSoC4/FanController_FW_PWM1.c **** * Parameters:
  32:Generated_Source\PSoC4/FanController_FW_PWM1.c **** *  None
  33:Generated_Source\PSoC4/FanController_FW_PWM1.c **** *
  34:Generated_Source\PSoC4/FanController_FW_PWM1.c **** * Return:
  35:Generated_Source\PSoC4/FanController_FW_PWM1.c **** *  None
  36:Generated_Source\PSoC4/FanController_FW_PWM1.c **** *
  37:Generated_Source\PSoC4/FanController_FW_PWM1.c **** *******************************************************************************/
  38:Generated_Source\PSoC4/FanController_FW_PWM1.c **** void FanController_FW_PWM1_Init(void)
  39:Generated_Source\PSoC4/FanController_FW_PWM1.c **** {
  28              		.loc 1 39 0
  29              		.cfi_startproc
  30              		@ args = 0, pretend = 0, frame = 0
  31              		@ frame_needed = 0, uses_anonymous_args = 0
  32              		@ link register save eliminated.
  40:Generated_Source\PSoC4/FanController_FW_PWM1.c **** 
  41:Generated_Source\PSoC4/FanController_FW_PWM1.c ****     /* Set values from customizer to CTRL */
  42:Generated_Source\PSoC4/FanController_FW_PWM1.c ****     #if (FanController_FW_PWM1__QUAD == FanController_FW_PWM1_CONFIG)
  43:Generated_Source\PSoC4/FanController_FW_PWM1.c ****         FanController_FW_PWM1_CONTROL_REG = FanController_FW_PWM1_CTRL_QUAD_BASE_CONFIG;
  44:Generated_Source\PSoC4/FanController_FW_PWM1.c ****         
  45:Generated_Source\PSoC4/FanController_FW_PWM1.c ****         /* Set values from customizer to CTRL1 */
  46:Generated_Source\PSoC4/FanController_FW_PWM1.c ****         FanController_FW_PWM1_TRIG_CONTROL1_REG  = FanController_FW_PWM1_QUAD_SIGNALS_MODES;
  47:Generated_Source\PSoC4/FanController_FW_PWM1.c **** 
  48:Generated_Source\PSoC4/FanController_FW_PWM1.c ****         /* Set values from customizer to INTR */
  49:Generated_Source\PSoC4/FanController_FW_PWM1.c ****         FanController_FW_PWM1_SetInterruptMode(FanController_FW_PWM1_QUAD_INTERRUPT_MASK);
  50:Generated_Source\PSoC4/FanController_FW_PWM1.c ****         
  51:Generated_Source\PSoC4/FanController_FW_PWM1.c ****          /* Set other values */
  52:Generated_Source\PSoC4/FanController_FW_PWM1.c ****         FanController_FW_PWM1_SetCounterMode(FanController_FW_PWM1_COUNT_DOWN);
  53:Generated_Source\PSoC4/FanController_FW_PWM1.c ****         FanController_FW_PWM1_WritePeriod(FanController_FW_PWM1_QUAD_PERIOD_INIT_VALUE);
  54:Generated_Source\PSoC4/FanController_FW_PWM1.c ****         FanController_FW_PWM1_WriteCounter(FanController_FW_PWM1_QUAD_PERIOD_INIT_VALUE);
  55:Generated_Source\PSoC4/FanController_FW_PWM1.c ****     #endif  /* (FanController_FW_PWM1__QUAD == FanController_FW_PWM1_CONFIG) */
  56:Generated_Source\PSoC4/FanController_FW_PWM1.c **** 
  57:Generated_Source\PSoC4/FanController_FW_PWM1.c ****     #if (FanController_FW_PWM1__TIMER == FanController_FW_PWM1_CONFIG)
  58:Generated_Source\PSoC4/FanController_FW_PWM1.c ****         FanController_FW_PWM1_CONTROL_REG = FanController_FW_PWM1_CTRL_TIMER_BASE_CONFIG;
  59:Generated_Source\PSoC4/FanController_FW_PWM1.c ****         
  60:Generated_Source\PSoC4/FanController_FW_PWM1.c ****         /* Set values from customizer to CTRL1 */
  61:Generated_Source\PSoC4/FanController_FW_PWM1.c ****         FanController_FW_PWM1_TRIG_CONTROL1_REG  = FanController_FW_PWM1_TIMER_SIGNALS_MODES;
  62:Generated_Source\PSoC4/FanController_FW_PWM1.c ****     
  63:Generated_Source\PSoC4/FanController_FW_PWM1.c ****         /* Set values from customizer to INTR */
  64:Generated_Source\PSoC4/FanController_FW_PWM1.c ****         FanController_FW_PWM1_SetInterruptMode(FanController_FW_PWM1_TC_INTERRUPT_MASK);
  65:Generated_Source\PSoC4/FanController_FW_PWM1.c ****         
  66:Generated_Source\PSoC4/FanController_FW_PWM1.c ****         /* Set other values from customizer */
  67:Generated_Source\PSoC4/FanController_FW_PWM1.c ****         FanController_FW_PWM1_WritePeriod(FanController_FW_PWM1_TC_PERIOD_VALUE );
  68:Generated_Source\PSoC4/FanController_FW_PWM1.c **** 
  69:Generated_Source\PSoC4/FanController_FW_PWM1.c ****         #if (FanController_FW_PWM1__COMPARE == FanController_FW_PWM1_TC_COMP_CAP_MODE)
  70:Generated_Source\PSoC4/FanController_FW_PWM1.c ****             FanController_FW_PWM1_WriteCompare(FanController_FW_PWM1_TC_COMPARE_VALUE);
  71:Generated_Source\PSoC4/FanController_FW_PWM1.c **** 
  72:Generated_Source\PSoC4/FanController_FW_PWM1.c ****             #if (1u == FanController_FW_PWM1_TC_COMPARE_SWAP)
  73:Generated_Source\PSoC4/FanController_FW_PWM1.c ****                 FanController_FW_PWM1_SetCompareSwap(1u);
  74:Generated_Source\PSoC4/FanController_FW_PWM1.c ****                 FanController_FW_PWM1_WriteCompareBuf(FanController_FW_PWM1_TC_COMPARE_BUF_VALUE);
  75:Generated_Source\PSoC4/FanController_FW_PWM1.c ****             #endif  /* (1u == FanController_FW_PWM1_TC_COMPARE_SWAP) */
  76:Generated_Source\PSoC4/FanController_FW_PWM1.c ****         #endif  /* (FanController_FW_PWM1__COMPARE == FanController_FW_PWM1_TC_COMP_CAP_MODE) */
  77:Generated_Source\PSoC4/FanController_FW_PWM1.c **** 
  78:Generated_Source\PSoC4/FanController_FW_PWM1.c ****         /* Initialize counter value */
  79:Generated_Source\PSoC4/FanController_FW_PWM1.c ****         #if (FanController_FW_PWM1_CY_TCPWM_V2 && FanController_FW_PWM1_TIMER_UPDOWN_CNT_USED && !F
  80:Generated_Source\PSoC4/FanController_FW_PWM1.c ****             FanController_FW_PWM1_WriteCounter(1u);
  81:Generated_Source\PSoC4/FanController_FW_PWM1.c ****         #elif(FanController_FW_PWM1__COUNT_DOWN == FanController_FW_PWM1_TC_COUNTER_MODE)
  82:Generated_Source\PSoC4/FanController_FW_PWM1.c ****             FanController_FW_PWM1_WriteCounter(FanController_FW_PWM1_TC_PERIOD_VALUE);
ARM GAS  C:\Users\VIDEOH~1\AppData\Local\Temp\ccfC0KgD.s 			page 3


  83:Generated_Source\PSoC4/FanController_FW_PWM1.c ****         #else
  84:Generated_Source\PSoC4/FanController_FW_PWM1.c ****             FanController_FW_PWM1_WriteCounter(0u);
  85:Generated_Source\PSoC4/FanController_FW_PWM1.c ****         #endif /* (FanController_FW_PWM1_CY_TCPWM_V2 && FanController_FW_PWM1_TIMER_UPDOWN_CNT_USED
  86:Generated_Source\PSoC4/FanController_FW_PWM1.c ****     #endif  /* (FanController_FW_PWM1__TIMER == FanController_FW_PWM1_CONFIG) */
  87:Generated_Source\PSoC4/FanController_FW_PWM1.c **** 
  88:Generated_Source\PSoC4/FanController_FW_PWM1.c ****     #if (FanController_FW_PWM1__PWM_SEL == FanController_FW_PWM1_CONFIG)
  89:Generated_Source\PSoC4/FanController_FW_PWM1.c ****         FanController_FW_PWM1_CONTROL_REG = FanController_FW_PWM1_CTRL_PWM_BASE_CONFIG;
  33              		.loc 1 89 0
  34 0000 8022     		movs	r2, #128
  35 0002 0C4B     		ldr	r3, .L2
  36 0004 D204     		lsls	r2, r2, #19
  37 0006 1A60     		str	r2, [r3]
  90:Generated_Source\PSoC4/FanController_FW_PWM1.c **** 
  91:Generated_Source\PSoC4/FanController_FW_PWM1.c ****         #if (FanController_FW_PWM1__PWM_PR == FanController_FW_PWM1_PWM_MODE)
  92:Generated_Source\PSoC4/FanController_FW_PWM1.c ****             FanController_FW_PWM1_CONTROL_REG |= FanController_FW_PWM1_CTRL_PWM_RUN_MODE;
  93:Generated_Source\PSoC4/FanController_FW_PWM1.c ****             FanController_FW_PWM1_WriteCounter(FanController_FW_PWM1_PWM_PR_INIT_VALUE);
  94:Generated_Source\PSoC4/FanController_FW_PWM1.c ****         #else
  95:Generated_Source\PSoC4/FanController_FW_PWM1.c ****             FanController_FW_PWM1_CONTROL_REG |= FanController_FW_PWM1_CTRL_PWM_ALIGN | FanControll
  38              		.loc 1 95 0
  39 0008 1A68     		ldr	r2, [r3]
  40              	.LBB10:
  41              	.LBB11:
  96:Generated_Source\PSoC4/FanController_FW_PWM1.c ****             
  97:Generated_Source\PSoC4/FanController_FW_PWM1.c ****             /* Initialize counter value */
  98:Generated_Source\PSoC4/FanController_FW_PWM1.c ****             #if (FanController_FW_PWM1_CY_TCPWM_V2 && FanController_FW_PWM1_PWM_UPDOWN_CNT_USED && 
  99:Generated_Source\PSoC4/FanController_FW_PWM1.c ****                 FanController_FW_PWM1_WriteCounter(1u);
 100:Generated_Source\PSoC4/FanController_FW_PWM1.c ****             #elif (FanController_FW_PWM1__RIGHT == FanController_FW_PWM1_PWM_ALIGN)
 101:Generated_Source\PSoC4/FanController_FW_PWM1.c ****                 FanController_FW_PWM1_WriteCounter(FanController_FW_PWM1_PWM_PERIOD_VALUE);
 102:Generated_Source\PSoC4/FanController_FW_PWM1.c ****             #else 
 103:Generated_Source\PSoC4/FanController_FW_PWM1.c ****                 FanController_FW_PWM1_WriteCounter(0u);
 104:Generated_Source\PSoC4/FanController_FW_PWM1.c ****             #endif  /* (FanController_FW_PWM1_CY_TCPWM_V2 && FanController_FW_PWM1_PWM_UPDOWN_CNT_U
 105:Generated_Source\PSoC4/FanController_FW_PWM1.c ****         #endif  /* (FanController_FW_PWM1__PWM_PR == FanController_FW_PWM1_PWM_MODE) */
 106:Generated_Source\PSoC4/FanController_FW_PWM1.c **** 
 107:Generated_Source\PSoC4/FanController_FW_PWM1.c ****         #if (FanController_FW_PWM1__PWM_DT == FanController_FW_PWM1_PWM_MODE)
 108:Generated_Source\PSoC4/FanController_FW_PWM1.c ****             FanController_FW_PWM1_CONTROL_REG |= FanController_FW_PWM1_CTRL_PWM_DEAD_TIME_CYCLE;
 109:Generated_Source\PSoC4/FanController_FW_PWM1.c ****         #endif  /* (FanController_FW_PWM1__PWM_DT == FanController_FW_PWM1_PWM_MODE) */
 110:Generated_Source\PSoC4/FanController_FW_PWM1.c **** 
 111:Generated_Source\PSoC4/FanController_FW_PWM1.c ****         #if (FanController_FW_PWM1__PWM == FanController_FW_PWM1_PWM_MODE)
 112:Generated_Source\PSoC4/FanController_FW_PWM1.c ****             FanController_FW_PWM1_CONTROL_REG |= FanController_FW_PWM1_CTRL_PWM_PRESCALER;
 113:Generated_Source\PSoC4/FanController_FW_PWM1.c ****         #endif  /* (FanController_FW_PWM1__PWM == FanController_FW_PWM1_PWM_MODE) */
 114:Generated_Source\PSoC4/FanController_FW_PWM1.c **** 
 115:Generated_Source\PSoC4/FanController_FW_PWM1.c ****         /* Set values from customizer to CTRL1 */
 116:Generated_Source\PSoC4/FanController_FW_PWM1.c ****         FanController_FW_PWM1_TRIG_CONTROL1_REG  = FanController_FW_PWM1_PWM_SIGNALS_MODES;
 117:Generated_Source\PSoC4/FanController_FW_PWM1.c ****     
 118:Generated_Source\PSoC4/FanController_FW_PWM1.c ****         /* Set values from customizer to INTR */
 119:Generated_Source\PSoC4/FanController_FW_PWM1.c ****         FanController_FW_PWM1_SetInterruptMode(FanController_FW_PWM1_PWM_INTERRUPT_MASK);
 120:Generated_Source\PSoC4/FanController_FW_PWM1.c **** 
 121:Generated_Source\PSoC4/FanController_FW_PWM1.c ****         /* Set values from customizer to CTRL2 */
 122:Generated_Source\PSoC4/FanController_FW_PWM1.c ****         #if (FanController_FW_PWM1__PWM_PR == FanController_FW_PWM1_PWM_MODE)
 123:Generated_Source\PSoC4/FanController_FW_PWM1.c ****             FanController_FW_PWM1_TRIG_CONTROL2_REG =
 124:Generated_Source\PSoC4/FanController_FW_PWM1.c ****                     (FanController_FW_PWM1_CC_MATCH_NO_CHANGE    |
 125:Generated_Source\PSoC4/FanController_FW_PWM1.c ****                     FanController_FW_PWM1_OVERLOW_NO_CHANGE      |
 126:Generated_Source\PSoC4/FanController_FW_PWM1.c ****                     FanController_FW_PWM1_UNDERFLOW_NO_CHANGE);
 127:Generated_Source\PSoC4/FanController_FW_PWM1.c ****         #else
 128:Generated_Source\PSoC4/FanController_FW_PWM1.c ****             #if (FanController_FW_PWM1__LEFT == FanController_FW_PWM1_PWM_ALIGN)
 129:Generated_Source\PSoC4/FanController_FW_PWM1.c ****                 FanController_FW_PWM1_TRIG_CONTROL2_REG = FanController_FW_PWM1_PWM_MODE_LEFT;
 130:Generated_Source\PSoC4/FanController_FW_PWM1.c ****             #endif  /* ( FanController_FW_PWM1_PWM_LEFT == FanController_FW_PWM1_PWM_ALIGN) */
ARM GAS  C:\Users\VIDEOH~1\AppData\Local\Temp\ccfC0KgD.s 			page 4


 131:Generated_Source\PSoC4/FanController_FW_PWM1.c **** 
 132:Generated_Source\PSoC4/FanController_FW_PWM1.c ****             #if (FanController_FW_PWM1__RIGHT == FanController_FW_PWM1_PWM_ALIGN)
 133:Generated_Source\PSoC4/FanController_FW_PWM1.c ****                 FanController_FW_PWM1_TRIG_CONTROL2_REG = FanController_FW_PWM1_PWM_MODE_RIGHT;
 134:Generated_Source\PSoC4/FanController_FW_PWM1.c ****             #endif  /* ( FanController_FW_PWM1_PWM_RIGHT == FanController_FW_PWM1_PWM_ALIGN) */
 135:Generated_Source\PSoC4/FanController_FW_PWM1.c **** 
 136:Generated_Source\PSoC4/FanController_FW_PWM1.c ****             #if (FanController_FW_PWM1__CENTER == FanController_FW_PWM1_PWM_ALIGN)
 137:Generated_Source\PSoC4/FanController_FW_PWM1.c ****                 FanController_FW_PWM1_TRIG_CONTROL2_REG = FanController_FW_PWM1_PWM_MODE_CENTER;
 138:Generated_Source\PSoC4/FanController_FW_PWM1.c ****             #endif  /* ( FanController_FW_PWM1_PWM_CENTER == FanController_FW_PWM1_PWM_ALIGN) */
 139:Generated_Source\PSoC4/FanController_FW_PWM1.c **** 
 140:Generated_Source\PSoC4/FanController_FW_PWM1.c ****             #if (FanController_FW_PWM1__ASYMMETRIC == FanController_FW_PWM1_PWM_ALIGN)
 141:Generated_Source\PSoC4/FanController_FW_PWM1.c ****                 FanController_FW_PWM1_TRIG_CONTROL2_REG = FanController_FW_PWM1_PWM_MODE_ASYM;
 142:Generated_Source\PSoC4/FanController_FW_PWM1.c ****             #endif  /* (FanController_FW_PWM1__ASYMMETRIC == FanController_FW_PWM1_PWM_ALIGN) */
 143:Generated_Source\PSoC4/FanController_FW_PWM1.c ****         #endif  /* (FanController_FW_PWM1__PWM_PR == FanController_FW_PWM1_PWM_MODE) */
 144:Generated_Source\PSoC4/FanController_FW_PWM1.c **** 
 145:Generated_Source\PSoC4/FanController_FW_PWM1.c ****         /* Set other values from customizer */
 146:Generated_Source\PSoC4/FanController_FW_PWM1.c ****         FanController_FW_PWM1_WritePeriod(FanController_FW_PWM1_PWM_PERIOD_VALUE );
 147:Generated_Source\PSoC4/FanController_FW_PWM1.c ****         FanController_FW_PWM1_WriteCompare(FanController_FW_PWM1_PWM_COMPARE_VALUE);
 148:Generated_Source\PSoC4/FanController_FW_PWM1.c **** 
 149:Generated_Source\PSoC4/FanController_FW_PWM1.c ****         #if (1u == FanController_FW_PWM1_PWM_COMPARE_SWAP)
 150:Generated_Source\PSoC4/FanController_FW_PWM1.c ****             FanController_FW_PWM1_SetCompareSwap(1u);
 151:Generated_Source\PSoC4/FanController_FW_PWM1.c ****             FanController_FW_PWM1_WriteCompareBuf(FanController_FW_PWM1_PWM_COMPARE_BUF_VALUE);
 152:Generated_Source\PSoC4/FanController_FW_PWM1.c ****         #endif  /* (1u == FanController_FW_PWM1_PWM_COMPARE_SWAP) */
 153:Generated_Source\PSoC4/FanController_FW_PWM1.c **** 
 154:Generated_Source\PSoC4/FanController_FW_PWM1.c ****         #if (1u == FanController_FW_PWM1_PWM_PERIOD_SWAP)
 155:Generated_Source\PSoC4/FanController_FW_PWM1.c ****             FanController_FW_PWM1_SetPeriodSwap(1u);
 156:Generated_Source\PSoC4/FanController_FW_PWM1.c ****             FanController_FW_PWM1_WritePeriodBuf(FanController_FW_PWM1_PWM_PERIOD_BUF_VALUE);
 157:Generated_Source\PSoC4/FanController_FW_PWM1.c ****         #endif  /* (1u == FanController_FW_PWM1_PWM_PERIOD_SWAP) */
 158:Generated_Source\PSoC4/FanController_FW_PWM1.c ****     #endif  /* (FanController_FW_PWM1__PWM_SEL == FanController_FW_PWM1_CONFIG) */
 159:Generated_Source\PSoC4/FanController_FW_PWM1.c ****     
 160:Generated_Source\PSoC4/FanController_FW_PWM1.c **** }
 161:Generated_Source\PSoC4/FanController_FW_PWM1.c **** 
 162:Generated_Source\PSoC4/FanController_FW_PWM1.c **** 
 163:Generated_Source\PSoC4/FanController_FW_PWM1.c **** /*******************************************************************************
 164:Generated_Source\PSoC4/FanController_FW_PWM1.c **** * Function Name: FanController_FW_PWM1_Enable
 165:Generated_Source\PSoC4/FanController_FW_PWM1.c **** ********************************************************************************
 166:Generated_Source\PSoC4/FanController_FW_PWM1.c **** *
 167:Generated_Source\PSoC4/FanController_FW_PWM1.c **** * Summary:
 168:Generated_Source\PSoC4/FanController_FW_PWM1.c **** *  Enables the FanController_FW_PWM1.
 169:Generated_Source\PSoC4/FanController_FW_PWM1.c **** *
 170:Generated_Source\PSoC4/FanController_FW_PWM1.c **** * Parameters:
 171:Generated_Source\PSoC4/FanController_FW_PWM1.c **** *  None
 172:Generated_Source\PSoC4/FanController_FW_PWM1.c **** *
 173:Generated_Source\PSoC4/FanController_FW_PWM1.c **** * Return:
 174:Generated_Source\PSoC4/FanController_FW_PWM1.c **** *  None
 175:Generated_Source\PSoC4/FanController_FW_PWM1.c **** *
 176:Generated_Source\PSoC4/FanController_FW_PWM1.c **** *******************************************************************************/
 177:Generated_Source\PSoC4/FanController_FW_PWM1.c **** void FanController_FW_PWM1_Enable(void)
 178:Generated_Source\PSoC4/FanController_FW_PWM1.c **** {
 179:Generated_Source\PSoC4/FanController_FW_PWM1.c ****     uint8 enableInterrupts;
 180:Generated_Source\PSoC4/FanController_FW_PWM1.c **** 
 181:Generated_Source\PSoC4/FanController_FW_PWM1.c ****     enableInterrupts = CyEnterCriticalSection();
 182:Generated_Source\PSoC4/FanController_FW_PWM1.c ****     FanController_FW_PWM1_BLOCK_CONTROL_REG |= FanController_FW_PWM1_MASK;
 183:Generated_Source\PSoC4/FanController_FW_PWM1.c ****     CyExitCriticalSection(enableInterrupts);
 184:Generated_Source\PSoC4/FanController_FW_PWM1.c **** 
 185:Generated_Source\PSoC4/FanController_FW_PWM1.c ****     /* Start Timer or PWM if start input is absent */
 186:Generated_Source\PSoC4/FanController_FW_PWM1.c ****     #if (FanController_FW_PWM1__PWM_SEL == FanController_FW_PWM1_CONFIG)
 187:Generated_Source\PSoC4/FanController_FW_PWM1.c ****         #if (0u == FanController_FW_PWM1_PWM_START_SIGNAL_PRESENT)
ARM GAS  C:\Users\VIDEOH~1\AppData\Local\Temp\ccfC0KgD.s 			page 5


 188:Generated_Source\PSoC4/FanController_FW_PWM1.c ****             FanController_FW_PWM1_TriggerCommand(FanController_FW_PWM1_MASK, FanController_FW_PWM1_
 189:Generated_Source\PSoC4/FanController_FW_PWM1.c ****         #endif /* (0u == FanController_FW_PWM1_PWM_START_SIGNAL_PRESENT) */
 190:Generated_Source\PSoC4/FanController_FW_PWM1.c ****     #endif /* (FanController_FW_PWM1__PWM_SEL == FanController_FW_PWM1_CONFIG) */
 191:Generated_Source\PSoC4/FanController_FW_PWM1.c **** 
 192:Generated_Source\PSoC4/FanController_FW_PWM1.c ****     #if (FanController_FW_PWM1__TIMER == FanController_FW_PWM1_CONFIG)
 193:Generated_Source\PSoC4/FanController_FW_PWM1.c ****         #if (0u == FanController_FW_PWM1_TC_START_SIGNAL_PRESENT)
 194:Generated_Source\PSoC4/FanController_FW_PWM1.c ****             FanController_FW_PWM1_TriggerCommand(FanController_FW_PWM1_MASK, FanController_FW_PWM1_
 195:Generated_Source\PSoC4/FanController_FW_PWM1.c ****         #endif /* (0u == FanController_FW_PWM1_TC_START_SIGNAL_PRESENT) */
 196:Generated_Source\PSoC4/FanController_FW_PWM1.c ****     #endif /* (FanController_FW_PWM1__TIMER == FanController_FW_PWM1_CONFIG) */
 197:Generated_Source\PSoC4/FanController_FW_PWM1.c ****     
 198:Generated_Source\PSoC4/FanController_FW_PWM1.c ****     #if (FanController_FW_PWM1__QUAD == FanController_FW_PWM1_CONFIG)
 199:Generated_Source\PSoC4/FanController_FW_PWM1.c ****         #if (0u != FanController_FW_PWM1_QUAD_AUTO_START)
 200:Generated_Source\PSoC4/FanController_FW_PWM1.c ****             FanController_FW_PWM1_TriggerCommand(FanController_FW_PWM1_MASK, FanController_FW_PWM1_
 201:Generated_Source\PSoC4/FanController_FW_PWM1.c ****         #endif /* (0u != FanController_FW_PWM1_QUAD_AUTO_START) */
 202:Generated_Source\PSoC4/FanController_FW_PWM1.c ****     #endif  /* (FanController_FW_PWM1__QUAD == FanController_FW_PWM1_CONFIG) */
 203:Generated_Source\PSoC4/FanController_FW_PWM1.c **** }
 204:Generated_Source\PSoC4/FanController_FW_PWM1.c **** 
 205:Generated_Source\PSoC4/FanController_FW_PWM1.c **** 
 206:Generated_Source\PSoC4/FanController_FW_PWM1.c **** /*******************************************************************************
 207:Generated_Source\PSoC4/FanController_FW_PWM1.c **** * Function Name: FanController_FW_PWM1_Start
 208:Generated_Source\PSoC4/FanController_FW_PWM1.c **** ********************************************************************************
 209:Generated_Source\PSoC4/FanController_FW_PWM1.c **** *
 210:Generated_Source\PSoC4/FanController_FW_PWM1.c **** * Summary:
 211:Generated_Source\PSoC4/FanController_FW_PWM1.c **** *  Initializes the FanController_FW_PWM1 with default customizer
 212:Generated_Source\PSoC4/FanController_FW_PWM1.c **** *  values when called the first time and enables the FanController_FW_PWM1.
 213:Generated_Source\PSoC4/FanController_FW_PWM1.c **** *  For subsequent calls the configuration is left unchanged and the component is
 214:Generated_Source\PSoC4/FanController_FW_PWM1.c **** *  just enabled.
 215:Generated_Source\PSoC4/FanController_FW_PWM1.c **** *
 216:Generated_Source\PSoC4/FanController_FW_PWM1.c **** * Parameters:
 217:Generated_Source\PSoC4/FanController_FW_PWM1.c **** *  None
 218:Generated_Source\PSoC4/FanController_FW_PWM1.c **** *
 219:Generated_Source\PSoC4/FanController_FW_PWM1.c **** * Return:
 220:Generated_Source\PSoC4/FanController_FW_PWM1.c **** *  None
 221:Generated_Source\PSoC4/FanController_FW_PWM1.c **** *
 222:Generated_Source\PSoC4/FanController_FW_PWM1.c **** * Global variables:
 223:Generated_Source\PSoC4/FanController_FW_PWM1.c **** *  FanController_FW_PWM1_initVar: global variable is used to indicate initial
 224:Generated_Source\PSoC4/FanController_FW_PWM1.c **** *  configuration of this component.  The variable is initialized to zero and set
 225:Generated_Source\PSoC4/FanController_FW_PWM1.c **** *  to 1 the first time FanController_FW_PWM1_Start() is called. This allows
 226:Generated_Source\PSoC4/FanController_FW_PWM1.c **** *  enabling/disabling a component without re-initialization in all subsequent
 227:Generated_Source\PSoC4/FanController_FW_PWM1.c **** *  calls to the FanController_FW_PWM1_Start() routine.
 228:Generated_Source\PSoC4/FanController_FW_PWM1.c **** *
 229:Generated_Source\PSoC4/FanController_FW_PWM1.c **** *******************************************************************************/
 230:Generated_Source\PSoC4/FanController_FW_PWM1.c **** void FanController_FW_PWM1_Start(void)
 231:Generated_Source\PSoC4/FanController_FW_PWM1.c **** {
 232:Generated_Source\PSoC4/FanController_FW_PWM1.c ****     if (0u == FanController_FW_PWM1_initVar)
 233:Generated_Source\PSoC4/FanController_FW_PWM1.c ****     {
 234:Generated_Source\PSoC4/FanController_FW_PWM1.c ****         FanController_FW_PWM1_Init();
 235:Generated_Source\PSoC4/FanController_FW_PWM1.c ****         FanController_FW_PWM1_initVar = 1u;
 236:Generated_Source\PSoC4/FanController_FW_PWM1.c ****     }
 237:Generated_Source\PSoC4/FanController_FW_PWM1.c **** 
 238:Generated_Source\PSoC4/FanController_FW_PWM1.c ****     FanController_FW_PWM1_Enable();
 239:Generated_Source\PSoC4/FanController_FW_PWM1.c **** }
 240:Generated_Source\PSoC4/FanController_FW_PWM1.c **** 
 241:Generated_Source\PSoC4/FanController_FW_PWM1.c **** 
 242:Generated_Source\PSoC4/FanController_FW_PWM1.c **** /*******************************************************************************
 243:Generated_Source\PSoC4/FanController_FW_PWM1.c **** * Function Name: FanController_FW_PWM1_Stop
 244:Generated_Source\PSoC4/FanController_FW_PWM1.c **** ********************************************************************************
ARM GAS  C:\Users\VIDEOH~1\AppData\Local\Temp\ccfC0KgD.s 			page 6


 245:Generated_Source\PSoC4/FanController_FW_PWM1.c **** *
 246:Generated_Source\PSoC4/FanController_FW_PWM1.c **** * Summary:
 247:Generated_Source\PSoC4/FanController_FW_PWM1.c **** *  Disables the FanController_FW_PWM1.
 248:Generated_Source\PSoC4/FanController_FW_PWM1.c **** *
 249:Generated_Source\PSoC4/FanController_FW_PWM1.c **** * Parameters:
 250:Generated_Source\PSoC4/FanController_FW_PWM1.c **** *  None
 251:Generated_Source\PSoC4/FanController_FW_PWM1.c **** *
 252:Generated_Source\PSoC4/FanController_FW_PWM1.c **** * Return:
 253:Generated_Source\PSoC4/FanController_FW_PWM1.c **** *  None
 254:Generated_Source\PSoC4/FanController_FW_PWM1.c **** *
 255:Generated_Source\PSoC4/FanController_FW_PWM1.c **** *******************************************************************************/
 256:Generated_Source\PSoC4/FanController_FW_PWM1.c **** void FanController_FW_PWM1_Stop(void)
 257:Generated_Source\PSoC4/FanController_FW_PWM1.c **** {
 258:Generated_Source\PSoC4/FanController_FW_PWM1.c ****     uint8 enableInterrupts;
 259:Generated_Source\PSoC4/FanController_FW_PWM1.c **** 
 260:Generated_Source\PSoC4/FanController_FW_PWM1.c ****     enableInterrupts = CyEnterCriticalSection();
 261:Generated_Source\PSoC4/FanController_FW_PWM1.c **** 
 262:Generated_Source\PSoC4/FanController_FW_PWM1.c ****     FanController_FW_PWM1_BLOCK_CONTROL_REG &= (uint32)~FanController_FW_PWM1_MASK;
 263:Generated_Source\PSoC4/FanController_FW_PWM1.c **** 
 264:Generated_Source\PSoC4/FanController_FW_PWM1.c ****     CyExitCriticalSection(enableInterrupts);
 265:Generated_Source\PSoC4/FanController_FW_PWM1.c **** }
 266:Generated_Source\PSoC4/FanController_FW_PWM1.c **** 
 267:Generated_Source\PSoC4/FanController_FW_PWM1.c **** 
 268:Generated_Source\PSoC4/FanController_FW_PWM1.c **** /*******************************************************************************
 269:Generated_Source\PSoC4/FanController_FW_PWM1.c **** * Function Name: FanController_FW_PWM1_SetMode
 270:Generated_Source\PSoC4/FanController_FW_PWM1.c **** ********************************************************************************
 271:Generated_Source\PSoC4/FanController_FW_PWM1.c **** *
 272:Generated_Source\PSoC4/FanController_FW_PWM1.c **** * Summary:
 273:Generated_Source\PSoC4/FanController_FW_PWM1.c **** *  Sets the operation mode of the FanController_FW_PWM1. This function is used when
 274:Generated_Source\PSoC4/FanController_FW_PWM1.c **** *  configured as a generic FanController_FW_PWM1 and the actual mode of operation is
 275:Generated_Source\PSoC4/FanController_FW_PWM1.c **** *  set at runtime. The mode must be set while the component is disabled.
 276:Generated_Source\PSoC4/FanController_FW_PWM1.c **** *
 277:Generated_Source\PSoC4/FanController_FW_PWM1.c **** * Parameters:
 278:Generated_Source\PSoC4/FanController_FW_PWM1.c **** *  mode: Mode for the FanController_FW_PWM1 to operate in
 279:Generated_Source\PSoC4/FanController_FW_PWM1.c **** *   Values:
 280:Generated_Source\PSoC4/FanController_FW_PWM1.c **** *   - FanController_FW_PWM1_MODE_TIMER_COMPARE - Timer / Counter with
 281:Generated_Source\PSoC4/FanController_FW_PWM1.c **** *                                                 compare capability
 282:Generated_Source\PSoC4/FanController_FW_PWM1.c **** *         - FanController_FW_PWM1_MODE_TIMER_CAPTURE - Timer / Counter with
 283:Generated_Source\PSoC4/FanController_FW_PWM1.c **** *                                                 capture capability
 284:Generated_Source\PSoC4/FanController_FW_PWM1.c **** *         - FanController_FW_PWM1_MODE_QUAD - Quadrature decoder
 285:Generated_Source\PSoC4/FanController_FW_PWM1.c **** *         - FanController_FW_PWM1_MODE_PWM - PWM
 286:Generated_Source\PSoC4/FanController_FW_PWM1.c **** *         - FanController_FW_PWM1_MODE_PWM_DT - PWM with dead time
 287:Generated_Source\PSoC4/FanController_FW_PWM1.c **** *         - FanController_FW_PWM1_MODE_PWM_PR - PWM with pseudo random capability
 288:Generated_Source\PSoC4/FanController_FW_PWM1.c **** *
 289:Generated_Source\PSoC4/FanController_FW_PWM1.c **** * Return:
 290:Generated_Source\PSoC4/FanController_FW_PWM1.c **** *  None
 291:Generated_Source\PSoC4/FanController_FW_PWM1.c **** *
 292:Generated_Source\PSoC4/FanController_FW_PWM1.c **** *******************************************************************************/
 293:Generated_Source\PSoC4/FanController_FW_PWM1.c **** void FanController_FW_PWM1_SetMode(uint32 mode)
 294:Generated_Source\PSoC4/FanController_FW_PWM1.c **** {
 295:Generated_Source\PSoC4/FanController_FW_PWM1.c ****     uint8 enableInterrupts;
 296:Generated_Source\PSoC4/FanController_FW_PWM1.c **** 
 297:Generated_Source\PSoC4/FanController_FW_PWM1.c ****     enableInterrupts = CyEnterCriticalSection();
 298:Generated_Source\PSoC4/FanController_FW_PWM1.c **** 
 299:Generated_Source\PSoC4/FanController_FW_PWM1.c ****     FanController_FW_PWM1_CONTROL_REG &= (uint32)~FanController_FW_PWM1_MODE_MASK;
 300:Generated_Source\PSoC4/FanController_FW_PWM1.c ****     FanController_FW_PWM1_CONTROL_REG |= mode;
 301:Generated_Source\PSoC4/FanController_FW_PWM1.c **** 
ARM GAS  C:\Users\VIDEOH~1\AppData\Local\Temp\ccfC0KgD.s 			page 7


 302:Generated_Source\PSoC4/FanController_FW_PWM1.c ****     CyExitCriticalSection(enableInterrupts);
 303:Generated_Source\PSoC4/FanController_FW_PWM1.c **** }
 304:Generated_Source\PSoC4/FanController_FW_PWM1.c **** 
 305:Generated_Source\PSoC4/FanController_FW_PWM1.c **** 
 306:Generated_Source\PSoC4/FanController_FW_PWM1.c **** /*******************************************************************************
 307:Generated_Source\PSoC4/FanController_FW_PWM1.c **** * Function Name: FanController_FW_PWM1_SetQDMode
 308:Generated_Source\PSoC4/FanController_FW_PWM1.c **** ********************************************************************************
 309:Generated_Source\PSoC4/FanController_FW_PWM1.c **** *
 310:Generated_Source\PSoC4/FanController_FW_PWM1.c **** * Summary:
 311:Generated_Source\PSoC4/FanController_FW_PWM1.c **** *  Sets the the Quadrature Decoder to one of the 3 supported modes.
 312:Generated_Source\PSoC4/FanController_FW_PWM1.c **** *  Its functionality is only applicable to Quadrature Decoder operation.
 313:Generated_Source\PSoC4/FanController_FW_PWM1.c **** *
 314:Generated_Source\PSoC4/FanController_FW_PWM1.c **** * Parameters:
 315:Generated_Source\PSoC4/FanController_FW_PWM1.c **** *  qdMode: Quadrature Decoder mode
 316:Generated_Source\PSoC4/FanController_FW_PWM1.c **** *   Values:
 317:Generated_Source\PSoC4/FanController_FW_PWM1.c **** *         - FanController_FW_PWM1_MODE_X1 - Counts on phi 1 rising
 318:Generated_Source\PSoC4/FanController_FW_PWM1.c **** *         - FanController_FW_PWM1_MODE_X2 - Counts on both edges of phi1 (2x faster)
 319:Generated_Source\PSoC4/FanController_FW_PWM1.c **** *         - FanController_FW_PWM1_MODE_X4 - Counts on both edges of phi1 and phi2
 320:Generated_Source\PSoC4/FanController_FW_PWM1.c **** *                                        (4x faster)
 321:Generated_Source\PSoC4/FanController_FW_PWM1.c **** *
 322:Generated_Source\PSoC4/FanController_FW_PWM1.c **** * Return:
 323:Generated_Source\PSoC4/FanController_FW_PWM1.c **** *  None
 324:Generated_Source\PSoC4/FanController_FW_PWM1.c **** *
 325:Generated_Source\PSoC4/FanController_FW_PWM1.c **** *******************************************************************************/
 326:Generated_Source\PSoC4/FanController_FW_PWM1.c **** void FanController_FW_PWM1_SetQDMode(uint32 qdMode)
 327:Generated_Source\PSoC4/FanController_FW_PWM1.c **** {
 328:Generated_Source\PSoC4/FanController_FW_PWM1.c ****     uint8 enableInterrupts;
 329:Generated_Source\PSoC4/FanController_FW_PWM1.c **** 
 330:Generated_Source\PSoC4/FanController_FW_PWM1.c ****     enableInterrupts = CyEnterCriticalSection();
 331:Generated_Source\PSoC4/FanController_FW_PWM1.c **** 
 332:Generated_Source\PSoC4/FanController_FW_PWM1.c ****     FanController_FW_PWM1_CONTROL_REG &= (uint32)~FanController_FW_PWM1_QUAD_MODE_MASK;
 333:Generated_Source\PSoC4/FanController_FW_PWM1.c ****     FanController_FW_PWM1_CONTROL_REG |= qdMode;
 334:Generated_Source\PSoC4/FanController_FW_PWM1.c **** 
 335:Generated_Source\PSoC4/FanController_FW_PWM1.c ****     CyExitCriticalSection(enableInterrupts);
 336:Generated_Source\PSoC4/FanController_FW_PWM1.c **** }
 337:Generated_Source\PSoC4/FanController_FW_PWM1.c **** 
 338:Generated_Source\PSoC4/FanController_FW_PWM1.c **** 
 339:Generated_Source\PSoC4/FanController_FW_PWM1.c **** /*******************************************************************************
 340:Generated_Source\PSoC4/FanController_FW_PWM1.c **** * Function Name: FanController_FW_PWM1_SetPrescaler
 341:Generated_Source\PSoC4/FanController_FW_PWM1.c **** ********************************************************************************
 342:Generated_Source\PSoC4/FanController_FW_PWM1.c **** *
 343:Generated_Source\PSoC4/FanController_FW_PWM1.c **** * Summary:
 344:Generated_Source\PSoC4/FanController_FW_PWM1.c **** *  Sets the prescaler value that is applied to the clock input.  Not applicable
 345:Generated_Source\PSoC4/FanController_FW_PWM1.c **** *  to a PWM with the dead time mode or Quadrature Decoder mode.
 346:Generated_Source\PSoC4/FanController_FW_PWM1.c **** *
 347:Generated_Source\PSoC4/FanController_FW_PWM1.c **** * Parameters:
 348:Generated_Source\PSoC4/FanController_FW_PWM1.c **** *  prescaler: Prescaler divider value
 349:Generated_Source\PSoC4/FanController_FW_PWM1.c **** *   Values:
 350:Generated_Source\PSoC4/FanController_FW_PWM1.c **** *         - FanController_FW_PWM1_PRESCALE_DIVBY1    - Divide by 1 (no prescaling)
 351:Generated_Source\PSoC4/FanController_FW_PWM1.c **** *         - FanController_FW_PWM1_PRESCALE_DIVBY2    - Divide by 2
 352:Generated_Source\PSoC4/FanController_FW_PWM1.c **** *         - FanController_FW_PWM1_PRESCALE_DIVBY4    - Divide by 4
 353:Generated_Source\PSoC4/FanController_FW_PWM1.c **** *         - FanController_FW_PWM1_PRESCALE_DIVBY8    - Divide by 8
 354:Generated_Source\PSoC4/FanController_FW_PWM1.c **** *         - FanController_FW_PWM1_PRESCALE_DIVBY16   - Divide by 16
 355:Generated_Source\PSoC4/FanController_FW_PWM1.c **** *         - FanController_FW_PWM1_PRESCALE_DIVBY32   - Divide by 32
 356:Generated_Source\PSoC4/FanController_FW_PWM1.c **** *         - FanController_FW_PWM1_PRESCALE_DIVBY64   - Divide by 64
 357:Generated_Source\PSoC4/FanController_FW_PWM1.c **** *         - FanController_FW_PWM1_PRESCALE_DIVBY128  - Divide by 128
 358:Generated_Source\PSoC4/FanController_FW_PWM1.c **** *
ARM GAS  C:\Users\VIDEOH~1\AppData\Local\Temp\ccfC0KgD.s 			page 8


 359:Generated_Source\PSoC4/FanController_FW_PWM1.c **** * Return:
 360:Generated_Source\PSoC4/FanController_FW_PWM1.c **** *  None
 361:Generated_Source\PSoC4/FanController_FW_PWM1.c **** *
 362:Generated_Source\PSoC4/FanController_FW_PWM1.c **** *******************************************************************************/
 363:Generated_Source\PSoC4/FanController_FW_PWM1.c **** void FanController_FW_PWM1_SetPrescaler(uint32 prescaler)
 364:Generated_Source\PSoC4/FanController_FW_PWM1.c **** {
 365:Generated_Source\PSoC4/FanController_FW_PWM1.c ****     uint8 enableInterrupts;
 366:Generated_Source\PSoC4/FanController_FW_PWM1.c **** 
 367:Generated_Source\PSoC4/FanController_FW_PWM1.c ****     enableInterrupts = CyEnterCriticalSection();
 368:Generated_Source\PSoC4/FanController_FW_PWM1.c **** 
 369:Generated_Source\PSoC4/FanController_FW_PWM1.c ****     FanController_FW_PWM1_CONTROL_REG &= (uint32)~FanController_FW_PWM1_PRESCALER_MASK;
 370:Generated_Source\PSoC4/FanController_FW_PWM1.c ****     FanController_FW_PWM1_CONTROL_REG |= prescaler;
 371:Generated_Source\PSoC4/FanController_FW_PWM1.c **** 
 372:Generated_Source\PSoC4/FanController_FW_PWM1.c ****     CyExitCriticalSection(enableInterrupts);
 373:Generated_Source\PSoC4/FanController_FW_PWM1.c **** }
 374:Generated_Source\PSoC4/FanController_FW_PWM1.c **** 
 375:Generated_Source\PSoC4/FanController_FW_PWM1.c **** 
 376:Generated_Source\PSoC4/FanController_FW_PWM1.c **** /*******************************************************************************
 377:Generated_Source\PSoC4/FanController_FW_PWM1.c **** * Function Name: FanController_FW_PWM1_SetOneShot
 378:Generated_Source\PSoC4/FanController_FW_PWM1.c **** ********************************************************************************
 379:Generated_Source\PSoC4/FanController_FW_PWM1.c **** *
 380:Generated_Source\PSoC4/FanController_FW_PWM1.c **** * Summary:
 381:Generated_Source\PSoC4/FanController_FW_PWM1.c **** *  Writes the register that controls whether the FanController_FW_PWM1 runs
 382:Generated_Source\PSoC4/FanController_FW_PWM1.c **** *  continuously or stops when terminal count is reached.  By default the
 383:Generated_Source\PSoC4/FanController_FW_PWM1.c **** *  FanController_FW_PWM1 operates in the continuous mode.
 384:Generated_Source\PSoC4/FanController_FW_PWM1.c **** *
 385:Generated_Source\PSoC4/FanController_FW_PWM1.c **** * Parameters:
 386:Generated_Source\PSoC4/FanController_FW_PWM1.c **** *  oneShotEnable
 387:Generated_Source\PSoC4/FanController_FW_PWM1.c **** *   Values:
 388:Generated_Source\PSoC4/FanController_FW_PWM1.c **** *     - 0 - Continuous
 389:Generated_Source\PSoC4/FanController_FW_PWM1.c **** *     - 1 - Enable One Shot
 390:Generated_Source\PSoC4/FanController_FW_PWM1.c **** *
 391:Generated_Source\PSoC4/FanController_FW_PWM1.c **** * Return:
 392:Generated_Source\PSoC4/FanController_FW_PWM1.c **** *  None
 393:Generated_Source\PSoC4/FanController_FW_PWM1.c **** *
 394:Generated_Source\PSoC4/FanController_FW_PWM1.c **** *******************************************************************************/
 395:Generated_Source\PSoC4/FanController_FW_PWM1.c **** void FanController_FW_PWM1_SetOneShot(uint32 oneShotEnable)
 396:Generated_Source\PSoC4/FanController_FW_PWM1.c **** {
 397:Generated_Source\PSoC4/FanController_FW_PWM1.c ****     uint8 enableInterrupts;
 398:Generated_Source\PSoC4/FanController_FW_PWM1.c **** 
 399:Generated_Source\PSoC4/FanController_FW_PWM1.c ****     enableInterrupts = CyEnterCriticalSection();
 400:Generated_Source\PSoC4/FanController_FW_PWM1.c **** 
 401:Generated_Source\PSoC4/FanController_FW_PWM1.c ****     FanController_FW_PWM1_CONTROL_REG &= (uint32)~FanController_FW_PWM1_ONESHOT_MASK;
 402:Generated_Source\PSoC4/FanController_FW_PWM1.c ****     FanController_FW_PWM1_CONTROL_REG |= ((uint32)((oneShotEnable & FanController_FW_PWM1_1BIT_MASK
 403:Generated_Source\PSoC4/FanController_FW_PWM1.c ****                                                                FanController_FW_PWM1_ONESHOT_SHIFT)
 404:Generated_Source\PSoC4/FanController_FW_PWM1.c **** 
 405:Generated_Source\PSoC4/FanController_FW_PWM1.c ****     CyExitCriticalSection(enableInterrupts);
 406:Generated_Source\PSoC4/FanController_FW_PWM1.c **** }
 407:Generated_Source\PSoC4/FanController_FW_PWM1.c **** 
 408:Generated_Source\PSoC4/FanController_FW_PWM1.c **** 
 409:Generated_Source\PSoC4/FanController_FW_PWM1.c **** /*******************************************************************************
 410:Generated_Source\PSoC4/FanController_FW_PWM1.c **** * Function Name: FanController_FW_PWM1_SetPWMMode
 411:Generated_Source\PSoC4/FanController_FW_PWM1.c **** ********************************************************************************
 412:Generated_Source\PSoC4/FanController_FW_PWM1.c **** *
 413:Generated_Source\PSoC4/FanController_FW_PWM1.c **** * Summary:
 414:Generated_Source\PSoC4/FanController_FW_PWM1.c **** *  Writes the control register that determines what mode of operation the PWM
 415:Generated_Source\PSoC4/FanController_FW_PWM1.c **** *  output lines are driven in.  There is a setting for what to do on a
ARM GAS  C:\Users\VIDEOH~1\AppData\Local\Temp\ccfC0KgD.s 			page 9


 416:Generated_Source\PSoC4/FanController_FW_PWM1.c **** *  comparison match (CC_MATCH), on an overflow (OVERFLOW) and on an underflow
 417:Generated_Source\PSoC4/FanController_FW_PWM1.c **** *  (UNDERFLOW).  The value for each of the three must be ORed together to form
 418:Generated_Source\PSoC4/FanController_FW_PWM1.c **** *  the mode.
 419:Generated_Source\PSoC4/FanController_FW_PWM1.c **** *
 420:Generated_Source\PSoC4/FanController_FW_PWM1.c **** * Parameters:
 421:Generated_Source\PSoC4/FanController_FW_PWM1.c **** *  modeMask: A combination of three mode settings.  Mask must include a value
 422:Generated_Source\PSoC4/FanController_FW_PWM1.c **** *  for each of the three or use one of the preconfigured PWM settings.
 423:Generated_Source\PSoC4/FanController_FW_PWM1.c **** *   Values:
 424:Generated_Source\PSoC4/FanController_FW_PWM1.c **** *     - CC_MATCH_SET        - Set on comparison match
 425:Generated_Source\PSoC4/FanController_FW_PWM1.c **** *     - CC_MATCH_CLEAR      - Clear on comparison match
 426:Generated_Source\PSoC4/FanController_FW_PWM1.c **** *     - CC_MATCH_INVERT     - Invert on comparison match
 427:Generated_Source\PSoC4/FanController_FW_PWM1.c **** *     - CC_MATCH_NO_CHANGE  - No change on comparison match
 428:Generated_Source\PSoC4/FanController_FW_PWM1.c **** *     - OVERLOW_SET         - Set on overflow
 429:Generated_Source\PSoC4/FanController_FW_PWM1.c **** *     - OVERLOW_CLEAR       - Clear on  overflow
 430:Generated_Source\PSoC4/FanController_FW_PWM1.c **** *     - OVERLOW_INVERT      - Invert on overflow
 431:Generated_Source\PSoC4/FanController_FW_PWM1.c **** *     - OVERLOW_NO_CHANGE   - No change on overflow
 432:Generated_Source\PSoC4/FanController_FW_PWM1.c **** *     - UNDERFLOW_SET       - Set on underflow
 433:Generated_Source\PSoC4/FanController_FW_PWM1.c **** *     - UNDERFLOW_CLEAR     - Clear on underflow
 434:Generated_Source\PSoC4/FanController_FW_PWM1.c **** *     - UNDERFLOW_INVERT    - Invert on underflow
 435:Generated_Source\PSoC4/FanController_FW_PWM1.c **** *     - UNDERFLOW_NO_CHANGE - No change on underflow
 436:Generated_Source\PSoC4/FanController_FW_PWM1.c **** *     - PWM_MODE_LEFT       - Setting for left aligned PWM.  Should be combined
 437:Generated_Source\PSoC4/FanController_FW_PWM1.c **** *                             with up counting mode
 438:Generated_Source\PSoC4/FanController_FW_PWM1.c **** *     - PWM_MODE_RIGHT      - Setting for right aligned PWM.  Should be combined
 439:Generated_Source\PSoC4/FanController_FW_PWM1.c **** *                             with down counting mode
 440:Generated_Source\PSoC4/FanController_FW_PWM1.c **** *     - PWM_MODE_CENTER     - Setting for center aligned PWM.  Should be
 441:Generated_Source\PSoC4/FanController_FW_PWM1.c **** *                             combined with up/down 0 mode
 442:Generated_Source\PSoC4/FanController_FW_PWM1.c **** *     - PWM_MODE_ASYM       - Setting for asymmetric PWM.  Should be combined
 443:Generated_Source\PSoC4/FanController_FW_PWM1.c **** *                             with up/down 1 mode
 444:Generated_Source\PSoC4/FanController_FW_PWM1.c **** *
 445:Generated_Source\PSoC4/FanController_FW_PWM1.c **** * Return:
 446:Generated_Source\PSoC4/FanController_FW_PWM1.c **** *  None
 447:Generated_Source\PSoC4/FanController_FW_PWM1.c **** *
 448:Generated_Source\PSoC4/FanController_FW_PWM1.c **** *******************************************************************************/
 449:Generated_Source\PSoC4/FanController_FW_PWM1.c **** void FanController_FW_PWM1_SetPWMMode(uint32 modeMask)
 450:Generated_Source\PSoC4/FanController_FW_PWM1.c **** {
 451:Generated_Source\PSoC4/FanController_FW_PWM1.c ****     FanController_FW_PWM1_TRIG_CONTROL2_REG = (modeMask & FanController_FW_PWM1_6BIT_MASK);
 452:Generated_Source\PSoC4/FanController_FW_PWM1.c **** }
 453:Generated_Source\PSoC4/FanController_FW_PWM1.c **** 
 454:Generated_Source\PSoC4/FanController_FW_PWM1.c **** 
 455:Generated_Source\PSoC4/FanController_FW_PWM1.c **** 
 456:Generated_Source\PSoC4/FanController_FW_PWM1.c **** /*******************************************************************************
 457:Generated_Source\PSoC4/FanController_FW_PWM1.c **** * Function Name: FanController_FW_PWM1_SetPWMSyncKill
 458:Generated_Source\PSoC4/FanController_FW_PWM1.c **** ********************************************************************************
 459:Generated_Source\PSoC4/FanController_FW_PWM1.c **** *
 460:Generated_Source\PSoC4/FanController_FW_PWM1.c **** * Summary:
 461:Generated_Source\PSoC4/FanController_FW_PWM1.c **** *  Writes the register that controls whether the PWM kill signal (stop input)
 462:Generated_Source\PSoC4/FanController_FW_PWM1.c **** *  causes asynchronous or synchronous kill operation.  By default the kill
 463:Generated_Source\PSoC4/FanController_FW_PWM1.c **** *  operation is asynchronous.  This functionality is only applicable to the PWM
 464:Generated_Source\PSoC4/FanController_FW_PWM1.c **** *  and PWM with dead time modes.
 465:Generated_Source\PSoC4/FanController_FW_PWM1.c **** *
 466:Generated_Source\PSoC4/FanController_FW_PWM1.c **** *  For Synchronous mode the kill signal disables both the line and line_n
 467:Generated_Source\PSoC4/FanController_FW_PWM1.c **** *  signals until the next terminal count.
 468:Generated_Source\PSoC4/FanController_FW_PWM1.c **** *
 469:Generated_Source\PSoC4/FanController_FW_PWM1.c **** *  For Asynchronous mode the kill signal disables both the line and line_n
 470:Generated_Source\PSoC4/FanController_FW_PWM1.c **** *  signals when the kill signal is present.  This mode should only be used
 471:Generated_Source\PSoC4/FanController_FW_PWM1.c **** *  when the kill signal (stop input) is configured in the pass through mode
 472:Generated_Source\PSoC4/FanController_FW_PWM1.c **** *  (Level sensitive signal).
ARM GAS  C:\Users\VIDEOH~1\AppData\Local\Temp\ccfC0KgD.s 			page 10


 473:Generated_Source\PSoC4/FanController_FW_PWM1.c **** 
 474:Generated_Source\PSoC4/FanController_FW_PWM1.c **** *
 475:Generated_Source\PSoC4/FanController_FW_PWM1.c **** * Parameters:
 476:Generated_Source\PSoC4/FanController_FW_PWM1.c **** *  syncKillEnable
 477:Generated_Source\PSoC4/FanController_FW_PWM1.c **** *   Values:
 478:Generated_Source\PSoC4/FanController_FW_PWM1.c **** *     - 0 - Asynchronous
 479:Generated_Source\PSoC4/FanController_FW_PWM1.c **** *     - 1 - Synchronous
 480:Generated_Source\PSoC4/FanController_FW_PWM1.c **** *
 481:Generated_Source\PSoC4/FanController_FW_PWM1.c **** * Return:
 482:Generated_Source\PSoC4/FanController_FW_PWM1.c **** *  None
 483:Generated_Source\PSoC4/FanController_FW_PWM1.c **** *
 484:Generated_Source\PSoC4/FanController_FW_PWM1.c **** *******************************************************************************/
 485:Generated_Source\PSoC4/FanController_FW_PWM1.c **** void FanController_FW_PWM1_SetPWMSyncKill(uint32 syncKillEnable)
 486:Generated_Source\PSoC4/FanController_FW_PWM1.c **** {
 487:Generated_Source\PSoC4/FanController_FW_PWM1.c ****     uint8 enableInterrupts;
 488:Generated_Source\PSoC4/FanController_FW_PWM1.c **** 
 489:Generated_Source\PSoC4/FanController_FW_PWM1.c ****     enableInterrupts = CyEnterCriticalSection();
 490:Generated_Source\PSoC4/FanController_FW_PWM1.c **** 
 491:Generated_Source\PSoC4/FanController_FW_PWM1.c ****     FanController_FW_PWM1_CONTROL_REG &= (uint32)~FanController_FW_PWM1_PWM_SYNC_KILL_MASK;
 492:Generated_Source\PSoC4/FanController_FW_PWM1.c ****     FanController_FW_PWM1_CONTROL_REG |= ((uint32)((syncKillEnable & FanController_FW_PWM1_1BIT_MAS
 493:Generated_Source\PSoC4/FanController_FW_PWM1.c ****                                                FanController_FW_PWM1_PWM_SYNC_KILL_SHIFT));
 494:Generated_Source\PSoC4/FanController_FW_PWM1.c **** 
 495:Generated_Source\PSoC4/FanController_FW_PWM1.c ****     CyExitCriticalSection(enableInterrupts);
 496:Generated_Source\PSoC4/FanController_FW_PWM1.c **** }
 497:Generated_Source\PSoC4/FanController_FW_PWM1.c **** 
 498:Generated_Source\PSoC4/FanController_FW_PWM1.c **** 
 499:Generated_Source\PSoC4/FanController_FW_PWM1.c **** /*******************************************************************************
 500:Generated_Source\PSoC4/FanController_FW_PWM1.c **** * Function Name: FanController_FW_PWM1_SetPWMStopOnKill
 501:Generated_Source\PSoC4/FanController_FW_PWM1.c **** ********************************************************************************
 502:Generated_Source\PSoC4/FanController_FW_PWM1.c **** *
 503:Generated_Source\PSoC4/FanController_FW_PWM1.c **** * Summary:
 504:Generated_Source\PSoC4/FanController_FW_PWM1.c **** *  Writes the register that controls whether the PWM kill signal (stop input)
 505:Generated_Source\PSoC4/FanController_FW_PWM1.c **** *  causes the PWM counter to stop.  By default the kill operation does not stop
 506:Generated_Source\PSoC4/FanController_FW_PWM1.c **** *  the counter.  This functionality is only applicable to the three PWM modes.
 507:Generated_Source\PSoC4/FanController_FW_PWM1.c **** *
 508:Generated_Source\PSoC4/FanController_FW_PWM1.c **** *
 509:Generated_Source\PSoC4/FanController_FW_PWM1.c **** * Parameters:
 510:Generated_Source\PSoC4/FanController_FW_PWM1.c **** *  stopOnKillEnable
 511:Generated_Source\PSoC4/FanController_FW_PWM1.c **** *   Values:
 512:Generated_Source\PSoC4/FanController_FW_PWM1.c **** *     - 0 - Don't stop
 513:Generated_Source\PSoC4/FanController_FW_PWM1.c **** *     - 1 - Stop
 514:Generated_Source\PSoC4/FanController_FW_PWM1.c **** *
 515:Generated_Source\PSoC4/FanController_FW_PWM1.c **** * Return:
 516:Generated_Source\PSoC4/FanController_FW_PWM1.c **** *  None
 517:Generated_Source\PSoC4/FanController_FW_PWM1.c **** *
 518:Generated_Source\PSoC4/FanController_FW_PWM1.c **** *******************************************************************************/
 519:Generated_Source\PSoC4/FanController_FW_PWM1.c **** void FanController_FW_PWM1_SetPWMStopOnKill(uint32 stopOnKillEnable)
 520:Generated_Source\PSoC4/FanController_FW_PWM1.c **** {
 521:Generated_Source\PSoC4/FanController_FW_PWM1.c ****     uint8 enableInterrupts;
 522:Generated_Source\PSoC4/FanController_FW_PWM1.c **** 
 523:Generated_Source\PSoC4/FanController_FW_PWM1.c ****     enableInterrupts = CyEnterCriticalSection();
 524:Generated_Source\PSoC4/FanController_FW_PWM1.c **** 
 525:Generated_Source\PSoC4/FanController_FW_PWM1.c ****     FanController_FW_PWM1_CONTROL_REG &= (uint32)~FanController_FW_PWM1_PWM_STOP_KILL_MASK;
 526:Generated_Source\PSoC4/FanController_FW_PWM1.c ****     FanController_FW_PWM1_CONTROL_REG |= ((uint32)((stopOnKillEnable & FanController_FW_PWM1_1BIT_M
 527:Generated_Source\PSoC4/FanController_FW_PWM1.c ****                                                          FanController_FW_PWM1_PWM_STOP_KILL_SHIFT)
 528:Generated_Source\PSoC4/FanController_FW_PWM1.c **** 
 529:Generated_Source\PSoC4/FanController_FW_PWM1.c ****     CyExitCriticalSection(enableInterrupts);
ARM GAS  C:\Users\VIDEOH~1\AppData\Local\Temp\ccfC0KgD.s 			page 11


 530:Generated_Source\PSoC4/FanController_FW_PWM1.c **** }
 531:Generated_Source\PSoC4/FanController_FW_PWM1.c **** 
 532:Generated_Source\PSoC4/FanController_FW_PWM1.c **** 
 533:Generated_Source\PSoC4/FanController_FW_PWM1.c **** /*******************************************************************************
 534:Generated_Source\PSoC4/FanController_FW_PWM1.c **** * Function Name: FanController_FW_PWM1_SetPWMDeadTime
 535:Generated_Source\PSoC4/FanController_FW_PWM1.c **** ********************************************************************************
 536:Generated_Source\PSoC4/FanController_FW_PWM1.c **** *
 537:Generated_Source\PSoC4/FanController_FW_PWM1.c **** * Summary:
 538:Generated_Source\PSoC4/FanController_FW_PWM1.c **** *  Writes the dead time control value.  This value delays the rising edge of
 539:Generated_Source\PSoC4/FanController_FW_PWM1.c **** *  both the line and line_n signals the designated number of cycles resulting
 540:Generated_Source\PSoC4/FanController_FW_PWM1.c **** *  in both signals being inactive for that many cycles.  This functionality is
 541:Generated_Source\PSoC4/FanController_FW_PWM1.c **** *  only applicable to the PWM in the dead time mode.
 542:Generated_Source\PSoC4/FanController_FW_PWM1.c **** 
 543:Generated_Source\PSoC4/FanController_FW_PWM1.c **** *
 544:Generated_Source\PSoC4/FanController_FW_PWM1.c **** * Parameters:
 545:Generated_Source\PSoC4/FanController_FW_PWM1.c **** *  Dead time to insert
 546:Generated_Source\PSoC4/FanController_FW_PWM1.c **** *   Values: 0 to 255
 547:Generated_Source\PSoC4/FanController_FW_PWM1.c **** *
 548:Generated_Source\PSoC4/FanController_FW_PWM1.c **** * Return:
 549:Generated_Source\PSoC4/FanController_FW_PWM1.c **** *  None
 550:Generated_Source\PSoC4/FanController_FW_PWM1.c **** *
 551:Generated_Source\PSoC4/FanController_FW_PWM1.c **** *******************************************************************************/
 552:Generated_Source\PSoC4/FanController_FW_PWM1.c **** void FanController_FW_PWM1_SetPWMDeadTime(uint32 deadTime)
 553:Generated_Source\PSoC4/FanController_FW_PWM1.c **** {
 554:Generated_Source\PSoC4/FanController_FW_PWM1.c ****     uint8 enableInterrupts;
 555:Generated_Source\PSoC4/FanController_FW_PWM1.c **** 
 556:Generated_Source\PSoC4/FanController_FW_PWM1.c ****     enableInterrupts = CyEnterCriticalSection();
 557:Generated_Source\PSoC4/FanController_FW_PWM1.c **** 
 558:Generated_Source\PSoC4/FanController_FW_PWM1.c ****     FanController_FW_PWM1_CONTROL_REG &= (uint32)~FanController_FW_PWM1_PRESCALER_MASK;
 559:Generated_Source\PSoC4/FanController_FW_PWM1.c ****     FanController_FW_PWM1_CONTROL_REG |= ((uint32)((deadTime & FanController_FW_PWM1_8BIT_MASK) <<
 560:Generated_Source\PSoC4/FanController_FW_PWM1.c ****                                                           FanController_FW_PWM1_PRESCALER_SHIFT));
 561:Generated_Source\PSoC4/FanController_FW_PWM1.c **** 
 562:Generated_Source\PSoC4/FanController_FW_PWM1.c ****     CyExitCriticalSection(enableInterrupts);
 563:Generated_Source\PSoC4/FanController_FW_PWM1.c **** }
 564:Generated_Source\PSoC4/FanController_FW_PWM1.c **** 
 565:Generated_Source\PSoC4/FanController_FW_PWM1.c **** 
 566:Generated_Source\PSoC4/FanController_FW_PWM1.c **** /*******************************************************************************
 567:Generated_Source\PSoC4/FanController_FW_PWM1.c **** * Function Name: FanController_FW_PWM1_SetPWMInvert
 568:Generated_Source\PSoC4/FanController_FW_PWM1.c **** ********************************************************************************
 569:Generated_Source\PSoC4/FanController_FW_PWM1.c **** *
 570:Generated_Source\PSoC4/FanController_FW_PWM1.c **** * Summary:
 571:Generated_Source\PSoC4/FanController_FW_PWM1.c **** *  Writes the bits that control whether the line and line_n outputs are
 572:Generated_Source\PSoC4/FanController_FW_PWM1.c **** *  inverted from their normal output values.  This functionality is only
 573:Generated_Source\PSoC4/FanController_FW_PWM1.c **** *  applicable to the three PWM modes.
 574:Generated_Source\PSoC4/FanController_FW_PWM1.c **** *
 575:Generated_Source\PSoC4/FanController_FW_PWM1.c **** * Parameters:
 576:Generated_Source\PSoC4/FanController_FW_PWM1.c **** *  mask: Mask of outputs to invert.
 577:Generated_Source\PSoC4/FanController_FW_PWM1.c **** *   Values:
 578:Generated_Source\PSoC4/FanController_FW_PWM1.c **** *         - FanController_FW_PWM1_INVERT_LINE   - Inverts the line output
 579:Generated_Source\PSoC4/FanController_FW_PWM1.c **** *         - FanController_FW_PWM1_INVERT_LINE_N - Inverts the line_n output
 580:Generated_Source\PSoC4/FanController_FW_PWM1.c **** *
 581:Generated_Source\PSoC4/FanController_FW_PWM1.c **** * Return:
 582:Generated_Source\PSoC4/FanController_FW_PWM1.c **** *  None
 583:Generated_Source\PSoC4/FanController_FW_PWM1.c **** *
 584:Generated_Source\PSoC4/FanController_FW_PWM1.c **** *******************************************************************************/
 585:Generated_Source\PSoC4/FanController_FW_PWM1.c **** void FanController_FW_PWM1_SetPWMInvert(uint32 mask)
 586:Generated_Source\PSoC4/FanController_FW_PWM1.c **** {
ARM GAS  C:\Users\VIDEOH~1\AppData\Local\Temp\ccfC0KgD.s 			page 12


 587:Generated_Source\PSoC4/FanController_FW_PWM1.c ****     uint8 enableInterrupts;
 588:Generated_Source\PSoC4/FanController_FW_PWM1.c **** 
 589:Generated_Source\PSoC4/FanController_FW_PWM1.c ****     enableInterrupts = CyEnterCriticalSection();
 590:Generated_Source\PSoC4/FanController_FW_PWM1.c **** 
 591:Generated_Source\PSoC4/FanController_FW_PWM1.c ****     FanController_FW_PWM1_CONTROL_REG &= (uint32)~FanController_FW_PWM1_INV_OUT_MASK;
 592:Generated_Source\PSoC4/FanController_FW_PWM1.c ****     FanController_FW_PWM1_CONTROL_REG |= mask;
 593:Generated_Source\PSoC4/FanController_FW_PWM1.c **** 
 594:Generated_Source\PSoC4/FanController_FW_PWM1.c ****     CyExitCriticalSection(enableInterrupts);
 595:Generated_Source\PSoC4/FanController_FW_PWM1.c **** }
 596:Generated_Source\PSoC4/FanController_FW_PWM1.c **** 
 597:Generated_Source\PSoC4/FanController_FW_PWM1.c **** 
 598:Generated_Source\PSoC4/FanController_FW_PWM1.c **** 
 599:Generated_Source\PSoC4/FanController_FW_PWM1.c **** /*******************************************************************************
 600:Generated_Source\PSoC4/FanController_FW_PWM1.c **** * Function Name: FanController_FW_PWM1_WriteCounter
 601:Generated_Source\PSoC4/FanController_FW_PWM1.c **** ********************************************************************************
 602:Generated_Source\PSoC4/FanController_FW_PWM1.c **** *
 603:Generated_Source\PSoC4/FanController_FW_PWM1.c **** * Summary:
 604:Generated_Source\PSoC4/FanController_FW_PWM1.c **** *  Writes a new 16bit counter value directly into the counter register, thus
 605:Generated_Source\PSoC4/FanController_FW_PWM1.c **** *  setting the counter (not the period) to the value written. It is not
 606:Generated_Source\PSoC4/FanController_FW_PWM1.c **** *  advised to write to this field when the counter is running.
 607:Generated_Source\PSoC4/FanController_FW_PWM1.c **** *
 608:Generated_Source\PSoC4/FanController_FW_PWM1.c **** * Parameters:
 609:Generated_Source\PSoC4/FanController_FW_PWM1.c **** *  count: value to write
 610:Generated_Source\PSoC4/FanController_FW_PWM1.c **** *
 611:Generated_Source\PSoC4/FanController_FW_PWM1.c **** * Return:
 612:Generated_Source\PSoC4/FanController_FW_PWM1.c **** *  None
 613:Generated_Source\PSoC4/FanController_FW_PWM1.c **** *
 614:Generated_Source\PSoC4/FanController_FW_PWM1.c **** *******************************************************************************/
 615:Generated_Source\PSoC4/FanController_FW_PWM1.c **** void FanController_FW_PWM1_WriteCounter(uint32 count)
 616:Generated_Source\PSoC4/FanController_FW_PWM1.c **** {
 617:Generated_Source\PSoC4/FanController_FW_PWM1.c ****     FanController_FW_PWM1_COUNTER_REG = (count & FanController_FW_PWM1_16BIT_MASK);
  42              		.loc 1 617 0
  43 000a 0B49     		ldr	r1, .L2+4
  44              	.LBE11:
  45              	.LBE10:
  95:Generated_Source\PSoC4/FanController_FW_PWM1.c ****             
  46              		.loc 1 95 0
  47 000c 1A60     		str	r2, [r3]
  48              	.LVL0:
  49              	.LBB13:
  50              	.LBB12:
  51              		.loc 1 617 0
  52 000e 0022     		movs	r2, #0
  53 0010 0A60     		str	r2, [r1]
  54              	.LVL1:
  55              	.LBE12:
  56              	.LBE13:
 112:Generated_Source\PSoC4/FanController_FW_PWM1.c ****         #endif  /* (FanController_FW_PWM1__PWM == FanController_FW_PWM1_PWM_MODE) */
  57              		.loc 1 112 0
  58 0012 1968     		ldr	r1, [r3]
 160:Generated_Source\PSoC4/FanController_FW_PWM1.c **** 
  59              		.loc 1 160 0
  60              		@ sp needed
 112:Generated_Source\PSoC4/FanController_FW_PWM1.c ****         #endif  /* (FanController_FW_PWM1__PWM == FanController_FW_PWM1_PWM_MODE) */
  61              		.loc 1 112 0
  62 0014 1960     		str	r1, [r3]
 116:Generated_Source\PSoC4/FanController_FW_PWM1.c ****     
ARM GAS  C:\Users\VIDEOH~1\AppData\Local\Temp\ccfC0KgD.s 			page 13


  63              		.loc 1 116 0
  64 0016 0C21     		movs	r1, #12
  65 0018 084B     		ldr	r3, .L2+8
  66 001a 1960     		str	r1, [r3]
  67              	.LVL2:
  68              	.LBB14:
  69              	.LBB15:
 618:Generated_Source\PSoC4/FanController_FW_PWM1.c **** }
 619:Generated_Source\PSoC4/FanController_FW_PWM1.c **** 
 620:Generated_Source\PSoC4/FanController_FW_PWM1.c **** 
 621:Generated_Source\PSoC4/FanController_FW_PWM1.c **** /*******************************************************************************
 622:Generated_Source\PSoC4/FanController_FW_PWM1.c **** * Function Name: FanController_FW_PWM1_ReadCounter
 623:Generated_Source\PSoC4/FanController_FW_PWM1.c **** ********************************************************************************
 624:Generated_Source\PSoC4/FanController_FW_PWM1.c **** *
 625:Generated_Source\PSoC4/FanController_FW_PWM1.c **** * Summary:
 626:Generated_Source\PSoC4/FanController_FW_PWM1.c **** *  Reads the current counter value.
 627:Generated_Source\PSoC4/FanController_FW_PWM1.c **** *
 628:Generated_Source\PSoC4/FanController_FW_PWM1.c **** * Parameters:
 629:Generated_Source\PSoC4/FanController_FW_PWM1.c **** *  None
 630:Generated_Source\PSoC4/FanController_FW_PWM1.c **** *
 631:Generated_Source\PSoC4/FanController_FW_PWM1.c **** * Return:
 632:Generated_Source\PSoC4/FanController_FW_PWM1.c **** *  Current counter value
 633:Generated_Source\PSoC4/FanController_FW_PWM1.c **** *
 634:Generated_Source\PSoC4/FanController_FW_PWM1.c **** *******************************************************************************/
 635:Generated_Source\PSoC4/FanController_FW_PWM1.c **** uint32 FanController_FW_PWM1_ReadCounter(void)
 636:Generated_Source\PSoC4/FanController_FW_PWM1.c **** {
 637:Generated_Source\PSoC4/FanController_FW_PWM1.c ****     return (FanController_FW_PWM1_COUNTER_REG & FanController_FW_PWM1_16BIT_MASK);
 638:Generated_Source\PSoC4/FanController_FW_PWM1.c **** }
 639:Generated_Source\PSoC4/FanController_FW_PWM1.c **** 
 640:Generated_Source\PSoC4/FanController_FW_PWM1.c **** 
 641:Generated_Source\PSoC4/FanController_FW_PWM1.c **** /*******************************************************************************
 642:Generated_Source\PSoC4/FanController_FW_PWM1.c **** * Function Name: FanController_FW_PWM1_SetCounterMode
 643:Generated_Source\PSoC4/FanController_FW_PWM1.c **** ********************************************************************************
 644:Generated_Source\PSoC4/FanController_FW_PWM1.c **** *
 645:Generated_Source\PSoC4/FanController_FW_PWM1.c **** * Summary:
 646:Generated_Source\PSoC4/FanController_FW_PWM1.c **** *  Sets the counter mode.  Applicable to all modes except Quadrature Decoder
 647:Generated_Source\PSoC4/FanController_FW_PWM1.c **** *  and the PWM with a pseudo random output.
 648:Generated_Source\PSoC4/FanController_FW_PWM1.c **** *
 649:Generated_Source\PSoC4/FanController_FW_PWM1.c **** * Parameters:
 650:Generated_Source\PSoC4/FanController_FW_PWM1.c **** *  counterMode: Enumerated counter type values
 651:Generated_Source\PSoC4/FanController_FW_PWM1.c **** *   Values:
 652:Generated_Source\PSoC4/FanController_FW_PWM1.c **** *     - FanController_FW_PWM1_COUNT_UP       - Counts up
 653:Generated_Source\PSoC4/FanController_FW_PWM1.c **** *     - FanController_FW_PWM1_COUNT_DOWN     - Counts down
 654:Generated_Source\PSoC4/FanController_FW_PWM1.c **** *     - FanController_FW_PWM1_COUNT_UPDOWN0  - Counts up and down. Terminal count
 655:Generated_Source\PSoC4/FanController_FW_PWM1.c **** *                                         generated when counter reaches 0
 656:Generated_Source\PSoC4/FanController_FW_PWM1.c **** *     - FanController_FW_PWM1_COUNT_UPDOWN1  - Counts up and down. Terminal count
 657:Generated_Source\PSoC4/FanController_FW_PWM1.c **** *                                         generated both when counter reaches 0
 658:Generated_Source\PSoC4/FanController_FW_PWM1.c **** *                                         and period
 659:Generated_Source\PSoC4/FanController_FW_PWM1.c **** *
 660:Generated_Source\PSoC4/FanController_FW_PWM1.c **** * Return:
 661:Generated_Source\PSoC4/FanController_FW_PWM1.c **** *  None
 662:Generated_Source\PSoC4/FanController_FW_PWM1.c **** *
 663:Generated_Source\PSoC4/FanController_FW_PWM1.c **** *******************************************************************************/
 664:Generated_Source\PSoC4/FanController_FW_PWM1.c **** void FanController_FW_PWM1_SetCounterMode(uint32 counterMode)
 665:Generated_Source\PSoC4/FanController_FW_PWM1.c **** {
 666:Generated_Source\PSoC4/FanController_FW_PWM1.c ****     uint8 enableInterrupts;
 667:Generated_Source\PSoC4/FanController_FW_PWM1.c **** 
ARM GAS  C:\Users\VIDEOH~1\AppData\Local\Temp\ccfC0KgD.s 			page 14


 668:Generated_Source\PSoC4/FanController_FW_PWM1.c ****     enableInterrupts = CyEnterCriticalSection();
 669:Generated_Source\PSoC4/FanController_FW_PWM1.c **** 
 670:Generated_Source\PSoC4/FanController_FW_PWM1.c ****     FanController_FW_PWM1_CONTROL_REG &= (uint32)~FanController_FW_PWM1_UPDOWN_MASK;
 671:Generated_Source\PSoC4/FanController_FW_PWM1.c ****     FanController_FW_PWM1_CONTROL_REG |= counterMode;
 672:Generated_Source\PSoC4/FanController_FW_PWM1.c **** 
 673:Generated_Source\PSoC4/FanController_FW_PWM1.c ****     CyExitCriticalSection(enableInterrupts);
 674:Generated_Source\PSoC4/FanController_FW_PWM1.c **** }
 675:Generated_Source\PSoC4/FanController_FW_PWM1.c **** 
 676:Generated_Source\PSoC4/FanController_FW_PWM1.c **** 
 677:Generated_Source\PSoC4/FanController_FW_PWM1.c **** /*******************************************************************************
 678:Generated_Source\PSoC4/FanController_FW_PWM1.c **** * Function Name: FanController_FW_PWM1_WritePeriod
 679:Generated_Source\PSoC4/FanController_FW_PWM1.c **** ********************************************************************************
 680:Generated_Source\PSoC4/FanController_FW_PWM1.c **** *
 681:Generated_Source\PSoC4/FanController_FW_PWM1.c **** * Summary:
 682:Generated_Source\PSoC4/FanController_FW_PWM1.c **** *  Writes the 16 bit period register with the new period value.
 683:Generated_Source\PSoC4/FanController_FW_PWM1.c **** *  To cause the counter to count for N cycles this register should be written
 684:Generated_Source\PSoC4/FanController_FW_PWM1.c **** *  with N-1 (counts from 0 to period inclusive).
 685:Generated_Source\PSoC4/FanController_FW_PWM1.c **** *
 686:Generated_Source\PSoC4/FanController_FW_PWM1.c **** * Parameters:
 687:Generated_Source\PSoC4/FanController_FW_PWM1.c **** *  period: Period value
 688:Generated_Source\PSoC4/FanController_FW_PWM1.c **** *
 689:Generated_Source\PSoC4/FanController_FW_PWM1.c **** * Return:
 690:Generated_Source\PSoC4/FanController_FW_PWM1.c **** *  None
 691:Generated_Source\PSoC4/FanController_FW_PWM1.c **** *
 692:Generated_Source\PSoC4/FanController_FW_PWM1.c **** *******************************************************************************/
 693:Generated_Source\PSoC4/FanController_FW_PWM1.c **** void FanController_FW_PWM1_WritePeriod(uint32 period)
 694:Generated_Source\PSoC4/FanController_FW_PWM1.c **** {
 695:Generated_Source\PSoC4/FanController_FW_PWM1.c ****     FanController_FW_PWM1_PERIOD_REG = (period & FanController_FW_PWM1_16BIT_MASK);
 696:Generated_Source\PSoC4/FanController_FW_PWM1.c **** }
 697:Generated_Source\PSoC4/FanController_FW_PWM1.c **** 
 698:Generated_Source\PSoC4/FanController_FW_PWM1.c **** 
 699:Generated_Source\PSoC4/FanController_FW_PWM1.c **** /*******************************************************************************
 700:Generated_Source\PSoC4/FanController_FW_PWM1.c **** * Function Name: FanController_FW_PWM1_ReadPeriod
 701:Generated_Source\PSoC4/FanController_FW_PWM1.c **** ********************************************************************************
 702:Generated_Source\PSoC4/FanController_FW_PWM1.c **** *
 703:Generated_Source\PSoC4/FanController_FW_PWM1.c **** * Summary:
 704:Generated_Source\PSoC4/FanController_FW_PWM1.c **** *  Reads the 16 bit period register.
 705:Generated_Source\PSoC4/FanController_FW_PWM1.c **** *
 706:Generated_Source\PSoC4/FanController_FW_PWM1.c **** * Parameters:
 707:Generated_Source\PSoC4/FanController_FW_PWM1.c **** *  None
 708:Generated_Source\PSoC4/FanController_FW_PWM1.c **** *
 709:Generated_Source\PSoC4/FanController_FW_PWM1.c **** * Return:
 710:Generated_Source\PSoC4/FanController_FW_PWM1.c **** *  Period value
 711:Generated_Source\PSoC4/FanController_FW_PWM1.c **** *
 712:Generated_Source\PSoC4/FanController_FW_PWM1.c **** *******************************************************************************/
 713:Generated_Source\PSoC4/FanController_FW_PWM1.c **** uint32 FanController_FW_PWM1_ReadPeriod(void)
 714:Generated_Source\PSoC4/FanController_FW_PWM1.c **** {
 715:Generated_Source\PSoC4/FanController_FW_PWM1.c ****     return (FanController_FW_PWM1_PERIOD_REG & FanController_FW_PWM1_16BIT_MASK);
 716:Generated_Source\PSoC4/FanController_FW_PWM1.c **** }
 717:Generated_Source\PSoC4/FanController_FW_PWM1.c **** 
 718:Generated_Source\PSoC4/FanController_FW_PWM1.c **** 
 719:Generated_Source\PSoC4/FanController_FW_PWM1.c **** /*******************************************************************************
 720:Generated_Source\PSoC4/FanController_FW_PWM1.c **** * Function Name: FanController_FW_PWM1_SetCompareSwap
 721:Generated_Source\PSoC4/FanController_FW_PWM1.c **** ********************************************************************************
 722:Generated_Source\PSoC4/FanController_FW_PWM1.c **** *
 723:Generated_Source\PSoC4/FanController_FW_PWM1.c **** * Summary:
 724:Generated_Source\PSoC4/FanController_FW_PWM1.c **** *  Writes the register that controls whether the compare registers are
ARM GAS  C:\Users\VIDEOH~1\AppData\Local\Temp\ccfC0KgD.s 			page 15


 725:Generated_Source\PSoC4/FanController_FW_PWM1.c **** *  swapped. When enabled in the Timer/Counter mode(without capture) the swap
 726:Generated_Source\PSoC4/FanController_FW_PWM1.c **** *  occurs at a TC event. In the PWM mode the swap occurs at the next TC event
 727:Generated_Source\PSoC4/FanController_FW_PWM1.c **** *  following a hardware switch event.
 728:Generated_Source\PSoC4/FanController_FW_PWM1.c **** *
 729:Generated_Source\PSoC4/FanController_FW_PWM1.c **** * Parameters:
 730:Generated_Source\PSoC4/FanController_FW_PWM1.c **** *  swapEnable
 731:Generated_Source\PSoC4/FanController_FW_PWM1.c **** *   Values:
 732:Generated_Source\PSoC4/FanController_FW_PWM1.c **** *     - 0 - Disable swap
 733:Generated_Source\PSoC4/FanController_FW_PWM1.c **** *     - 1 - Enable swap
 734:Generated_Source\PSoC4/FanController_FW_PWM1.c **** *
 735:Generated_Source\PSoC4/FanController_FW_PWM1.c **** * Return:
 736:Generated_Source\PSoC4/FanController_FW_PWM1.c **** *  None
 737:Generated_Source\PSoC4/FanController_FW_PWM1.c **** *
 738:Generated_Source\PSoC4/FanController_FW_PWM1.c **** *******************************************************************************/
 739:Generated_Source\PSoC4/FanController_FW_PWM1.c **** void FanController_FW_PWM1_SetCompareSwap(uint32 swapEnable)
 740:Generated_Source\PSoC4/FanController_FW_PWM1.c **** {
 741:Generated_Source\PSoC4/FanController_FW_PWM1.c ****     uint8 enableInterrupts;
 742:Generated_Source\PSoC4/FanController_FW_PWM1.c **** 
 743:Generated_Source\PSoC4/FanController_FW_PWM1.c ****     enableInterrupts = CyEnterCriticalSection();
 744:Generated_Source\PSoC4/FanController_FW_PWM1.c **** 
 745:Generated_Source\PSoC4/FanController_FW_PWM1.c ****     FanController_FW_PWM1_CONTROL_REG &= (uint32)~FanController_FW_PWM1_RELOAD_CC_MASK;
 746:Generated_Source\PSoC4/FanController_FW_PWM1.c ****     FanController_FW_PWM1_CONTROL_REG |= (swapEnable & FanController_FW_PWM1_1BIT_MASK);
 747:Generated_Source\PSoC4/FanController_FW_PWM1.c **** 
 748:Generated_Source\PSoC4/FanController_FW_PWM1.c ****     CyExitCriticalSection(enableInterrupts);
 749:Generated_Source\PSoC4/FanController_FW_PWM1.c **** }
 750:Generated_Source\PSoC4/FanController_FW_PWM1.c **** 
 751:Generated_Source\PSoC4/FanController_FW_PWM1.c **** 
 752:Generated_Source\PSoC4/FanController_FW_PWM1.c **** /*******************************************************************************
 753:Generated_Source\PSoC4/FanController_FW_PWM1.c **** * Function Name: FanController_FW_PWM1_WritePeriodBuf
 754:Generated_Source\PSoC4/FanController_FW_PWM1.c **** ********************************************************************************
 755:Generated_Source\PSoC4/FanController_FW_PWM1.c **** *
 756:Generated_Source\PSoC4/FanController_FW_PWM1.c **** * Summary:
 757:Generated_Source\PSoC4/FanController_FW_PWM1.c **** *  Writes the 16 bit period buf register with the new period value.
 758:Generated_Source\PSoC4/FanController_FW_PWM1.c **** *
 759:Generated_Source\PSoC4/FanController_FW_PWM1.c **** * Parameters:
 760:Generated_Source\PSoC4/FanController_FW_PWM1.c **** *  periodBuf: Period value
 761:Generated_Source\PSoC4/FanController_FW_PWM1.c **** *
 762:Generated_Source\PSoC4/FanController_FW_PWM1.c **** * Return:
 763:Generated_Source\PSoC4/FanController_FW_PWM1.c **** *  None
 764:Generated_Source\PSoC4/FanController_FW_PWM1.c **** *
 765:Generated_Source\PSoC4/FanController_FW_PWM1.c **** *******************************************************************************/
 766:Generated_Source\PSoC4/FanController_FW_PWM1.c **** void FanController_FW_PWM1_WritePeriodBuf(uint32 periodBuf)
 767:Generated_Source\PSoC4/FanController_FW_PWM1.c **** {
 768:Generated_Source\PSoC4/FanController_FW_PWM1.c ****     FanController_FW_PWM1_PERIOD_BUF_REG = (periodBuf & FanController_FW_PWM1_16BIT_MASK);
 769:Generated_Source\PSoC4/FanController_FW_PWM1.c **** }
 770:Generated_Source\PSoC4/FanController_FW_PWM1.c **** 
 771:Generated_Source\PSoC4/FanController_FW_PWM1.c **** 
 772:Generated_Source\PSoC4/FanController_FW_PWM1.c **** /*******************************************************************************
 773:Generated_Source\PSoC4/FanController_FW_PWM1.c **** * Function Name: FanController_FW_PWM1_ReadPeriodBuf
 774:Generated_Source\PSoC4/FanController_FW_PWM1.c **** ********************************************************************************
 775:Generated_Source\PSoC4/FanController_FW_PWM1.c **** *
 776:Generated_Source\PSoC4/FanController_FW_PWM1.c **** * Summary:
 777:Generated_Source\PSoC4/FanController_FW_PWM1.c **** *  Reads the 16 bit period buf register.
 778:Generated_Source\PSoC4/FanController_FW_PWM1.c **** *
 779:Generated_Source\PSoC4/FanController_FW_PWM1.c **** * Parameters:
 780:Generated_Source\PSoC4/FanController_FW_PWM1.c **** *  None
 781:Generated_Source\PSoC4/FanController_FW_PWM1.c **** *
ARM GAS  C:\Users\VIDEOH~1\AppData\Local\Temp\ccfC0KgD.s 			page 16


 782:Generated_Source\PSoC4/FanController_FW_PWM1.c **** * Return:
 783:Generated_Source\PSoC4/FanController_FW_PWM1.c **** *  Period value
 784:Generated_Source\PSoC4/FanController_FW_PWM1.c **** *
 785:Generated_Source\PSoC4/FanController_FW_PWM1.c **** *******************************************************************************/
 786:Generated_Source\PSoC4/FanController_FW_PWM1.c **** uint32 FanController_FW_PWM1_ReadPeriodBuf(void)
 787:Generated_Source\PSoC4/FanController_FW_PWM1.c **** {
 788:Generated_Source\PSoC4/FanController_FW_PWM1.c ****     return (FanController_FW_PWM1_PERIOD_BUF_REG & FanController_FW_PWM1_16BIT_MASK);
 789:Generated_Source\PSoC4/FanController_FW_PWM1.c **** }
 790:Generated_Source\PSoC4/FanController_FW_PWM1.c **** 
 791:Generated_Source\PSoC4/FanController_FW_PWM1.c **** 
 792:Generated_Source\PSoC4/FanController_FW_PWM1.c **** /*******************************************************************************
 793:Generated_Source\PSoC4/FanController_FW_PWM1.c **** * Function Name: FanController_FW_PWM1_SetPeriodSwap
 794:Generated_Source\PSoC4/FanController_FW_PWM1.c **** ********************************************************************************
 795:Generated_Source\PSoC4/FanController_FW_PWM1.c **** *
 796:Generated_Source\PSoC4/FanController_FW_PWM1.c **** * Summary:
 797:Generated_Source\PSoC4/FanController_FW_PWM1.c **** *  Writes the register that controls whether the period registers are
 798:Generated_Source\PSoC4/FanController_FW_PWM1.c **** *  swapped. When enabled in Timer/Counter mode the swap occurs at a TC event.
 799:Generated_Source\PSoC4/FanController_FW_PWM1.c **** *  In the PWM mode the swap occurs at the next TC event following a hardware
 800:Generated_Source\PSoC4/FanController_FW_PWM1.c **** *  switch event.
 801:Generated_Source\PSoC4/FanController_FW_PWM1.c **** *
 802:Generated_Source\PSoC4/FanController_FW_PWM1.c **** * Parameters:
 803:Generated_Source\PSoC4/FanController_FW_PWM1.c **** *  swapEnable
 804:Generated_Source\PSoC4/FanController_FW_PWM1.c **** *   Values:
 805:Generated_Source\PSoC4/FanController_FW_PWM1.c **** *     - 0 - Disable swap
 806:Generated_Source\PSoC4/FanController_FW_PWM1.c **** *     - 1 - Enable swap
 807:Generated_Source\PSoC4/FanController_FW_PWM1.c **** *
 808:Generated_Source\PSoC4/FanController_FW_PWM1.c **** * Return:
 809:Generated_Source\PSoC4/FanController_FW_PWM1.c **** *  None
 810:Generated_Source\PSoC4/FanController_FW_PWM1.c **** *
 811:Generated_Source\PSoC4/FanController_FW_PWM1.c **** *******************************************************************************/
 812:Generated_Source\PSoC4/FanController_FW_PWM1.c **** void FanController_FW_PWM1_SetPeriodSwap(uint32 swapEnable)
 813:Generated_Source\PSoC4/FanController_FW_PWM1.c **** {
 814:Generated_Source\PSoC4/FanController_FW_PWM1.c ****     uint8 enableInterrupts;
 815:Generated_Source\PSoC4/FanController_FW_PWM1.c **** 
 816:Generated_Source\PSoC4/FanController_FW_PWM1.c ****     enableInterrupts = CyEnterCriticalSection();
 817:Generated_Source\PSoC4/FanController_FW_PWM1.c **** 
 818:Generated_Source\PSoC4/FanController_FW_PWM1.c ****     FanController_FW_PWM1_CONTROL_REG &= (uint32)~FanController_FW_PWM1_RELOAD_PERIOD_MASK;
 819:Generated_Source\PSoC4/FanController_FW_PWM1.c ****     FanController_FW_PWM1_CONTROL_REG |= ((uint32)((swapEnable & FanController_FW_PWM1_1BIT_MASK) <
 820:Generated_Source\PSoC4/FanController_FW_PWM1.c ****                                                             FanController_FW_PWM1_RELOAD_PERIOD_SHI
 821:Generated_Source\PSoC4/FanController_FW_PWM1.c **** 
 822:Generated_Source\PSoC4/FanController_FW_PWM1.c ****     CyExitCriticalSection(enableInterrupts);
 823:Generated_Source\PSoC4/FanController_FW_PWM1.c **** }
 824:Generated_Source\PSoC4/FanController_FW_PWM1.c **** 
 825:Generated_Source\PSoC4/FanController_FW_PWM1.c **** 
 826:Generated_Source\PSoC4/FanController_FW_PWM1.c **** /*******************************************************************************
 827:Generated_Source\PSoC4/FanController_FW_PWM1.c **** * Function Name: FanController_FW_PWM1_WriteCompare
 828:Generated_Source\PSoC4/FanController_FW_PWM1.c **** ********************************************************************************
 829:Generated_Source\PSoC4/FanController_FW_PWM1.c **** *
 830:Generated_Source\PSoC4/FanController_FW_PWM1.c **** * Summary:
 831:Generated_Source\PSoC4/FanController_FW_PWM1.c **** *  Writes the 16 bit compare register with the new compare value. Not
 832:Generated_Source\PSoC4/FanController_FW_PWM1.c **** *  applicable for Timer/Counter with Capture or in Quadrature Decoder modes.
 833:Generated_Source\PSoC4/FanController_FW_PWM1.c **** *
 834:Generated_Source\PSoC4/FanController_FW_PWM1.c **** * Parameters:
 835:Generated_Source\PSoC4/FanController_FW_PWM1.c **** *  compare: Compare value
 836:Generated_Source\PSoC4/FanController_FW_PWM1.c **** *
 837:Generated_Source\PSoC4/FanController_FW_PWM1.c **** * Return:
 838:Generated_Source\PSoC4/FanController_FW_PWM1.c **** *  None
ARM GAS  C:\Users\VIDEOH~1\AppData\Local\Temp\ccfC0KgD.s 			page 17


 839:Generated_Source\PSoC4/FanController_FW_PWM1.c **** *
 840:Generated_Source\PSoC4/FanController_FW_PWM1.c **** * Note:
 841:Generated_Source\PSoC4/FanController_FW_PWM1.c **** *  It is not recommended to use the value equal to "0" or equal to 
 842:Generated_Source\PSoC4/FanController_FW_PWM1.c **** *  "period value" in Center or Asymmetric align PWM modes on the 
 843:Generated_Source\PSoC4/FanController_FW_PWM1.c **** *  PSoC 4100/PSoC 4200 devices.
 844:Generated_Source\PSoC4/FanController_FW_PWM1.c **** *  PSoC 4000 devices write the 16 bit compare register with the decremented 
 845:Generated_Source\PSoC4/FanController_FW_PWM1.c **** *  compare value in the Up counting mode (except 0x0u), and the incremented 
 846:Generated_Source\PSoC4/FanController_FW_PWM1.c **** *  compare value in the Down counting mode (except 0xFFFFu).
 847:Generated_Source\PSoC4/FanController_FW_PWM1.c **** *
 848:Generated_Source\PSoC4/FanController_FW_PWM1.c **** *******************************************************************************/
 849:Generated_Source\PSoC4/FanController_FW_PWM1.c **** void FanController_FW_PWM1_WriteCompare(uint32 compare)
 850:Generated_Source\PSoC4/FanController_FW_PWM1.c **** {
 851:Generated_Source\PSoC4/FanController_FW_PWM1.c ****     #if (FanController_FW_PWM1_CY_TCPWM_4000)
 852:Generated_Source\PSoC4/FanController_FW_PWM1.c ****         uint32 currentMode;
 853:Generated_Source\PSoC4/FanController_FW_PWM1.c ****     #endif /* (FanController_FW_PWM1_CY_TCPWM_4000) */
 854:Generated_Source\PSoC4/FanController_FW_PWM1.c **** 
 855:Generated_Source\PSoC4/FanController_FW_PWM1.c ****     #if (FanController_FW_PWM1_CY_TCPWM_4000)
 856:Generated_Source\PSoC4/FanController_FW_PWM1.c ****         currentMode = ((FanController_FW_PWM1_CONTROL_REG & FanController_FW_PWM1_UPDOWN_MASK) >> F
 857:Generated_Source\PSoC4/FanController_FW_PWM1.c **** 
 858:Generated_Source\PSoC4/FanController_FW_PWM1.c ****         if (((uint32)FanController_FW_PWM1__COUNT_DOWN == currentMode) && (0xFFFFu != compare))
 859:Generated_Source\PSoC4/FanController_FW_PWM1.c ****         {
 860:Generated_Source\PSoC4/FanController_FW_PWM1.c ****             compare++;
 861:Generated_Source\PSoC4/FanController_FW_PWM1.c ****         }
 862:Generated_Source\PSoC4/FanController_FW_PWM1.c ****         else if (((uint32)FanController_FW_PWM1__COUNT_UP == currentMode) && (0u != compare))
 863:Generated_Source\PSoC4/FanController_FW_PWM1.c ****         {
 864:Generated_Source\PSoC4/FanController_FW_PWM1.c ****             compare--;
 865:Generated_Source\PSoC4/FanController_FW_PWM1.c ****         }
 866:Generated_Source\PSoC4/FanController_FW_PWM1.c ****         else
 867:Generated_Source\PSoC4/FanController_FW_PWM1.c ****         {
 868:Generated_Source\PSoC4/FanController_FW_PWM1.c ****         }
 869:Generated_Source\PSoC4/FanController_FW_PWM1.c ****         
 870:Generated_Source\PSoC4/FanController_FW_PWM1.c ****     
 871:Generated_Source\PSoC4/FanController_FW_PWM1.c ****     #endif /* (FanController_FW_PWM1_CY_TCPWM_4000) */
 872:Generated_Source\PSoC4/FanController_FW_PWM1.c ****     
 873:Generated_Source\PSoC4/FanController_FW_PWM1.c ****     FanController_FW_PWM1_COMP_CAP_REG = (compare & FanController_FW_PWM1_16BIT_MASK);
 874:Generated_Source\PSoC4/FanController_FW_PWM1.c **** }
 875:Generated_Source\PSoC4/FanController_FW_PWM1.c **** 
 876:Generated_Source\PSoC4/FanController_FW_PWM1.c **** 
 877:Generated_Source\PSoC4/FanController_FW_PWM1.c **** /*******************************************************************************
 878:Generated_Source\PSoC4/FanController_FW_PWM1.c **** * Function Name: FanController_FW_PWM1_ReadCompare
 879:Generated_Source\PSoC4/FanController_FW_PWM1.c **** ********************************************************************************
 880:Generated_Source\PSoC4/FanController_FW_PWM1.c **** *
 881:Generated_Source\PSoC4/FanController_FW_PWM1.c **** * Summary:
 882:Generated_Source\PSoC4/FanController_FW_PWM1.c **** *  Reads the compare register. Not applicable for Timer/Counter with Capture
 883:Generated_Source\PSoC4/FanController_FW_PWM1.c **** *  or in Quadrature Decoder modes.
 884:Generated_Source\PSoC4/FanController_FW_PWM1.c **** *  PSoC 4000 devices read the incremented compare register value in the 
 885:Generated_Source\PSoC4/FanController_FW_PWM1.c **** *  Up counting mode (except 0xFFFFu), and the decremented value in the 
 886:Generated_Source\PSoC4/FanController_FW_PWM1.c **** *  Down counting mode (except 0x0u).
 887:Generated_Source\PSoC4/FanController_FW_PWM1.c **** *
 888:Generated_Source\PSoC4/FanController_FW_PWM1.c **** * Parameters:
 889:Generated_Source\PSoC4/FanController_FW_PWM1.c **** *  None
 890:Generated_Source\PSoC4/FanController_FW_PWM1.c **** *
 891:Generated_Source\PSoC4/FanController_FW_PWM1.c **** * Return:
 892:Generated_Source\PSoC4/FanController_FW_PWM1.c **** *  Compare value
 893:Generated_Source\PSoC4/FanController_FW_PWM1.c **** *
 894:Generated_Source\PSoC4/FanController_FW_PWM1.c **** * Note:
 895:Generated_Source\PSoC4/FanController_FW_PWM1.c **** *  PSoC 4000 devices read the incremented compare register value in the 
ARM GAS  C:\Users\VIDEOH~1\AppData\Local\Temp\ccfC0KgD.s 			page 18


 896:Generated_Source\PSoC4/FanController_FW_PWM1.c **** *  Up counting mode (except 0xFFFFu), and the decremented value in the 
 897:Generated_Source\PSoC4/FanController_FW_PWM1.c **** *  Down counting mode (except 0x0u).
 898:Generated_Source\PSoC4/FanController_FW_PWM1.c **** *
 899:Generated_Source\PSoC4/FanController_FW_PWM1.c **** *******************************************************************************/
 900:Generated_Source\PSoC4/FanController_FW_PWM1.c **** uint32 FanController_FW_PWM1_ReadCompare(void)
 901:Generated_Source\PSoC4/FanController_FW_PWM1.c **** {
 902:Generated_Source\PSoC4/FanController_FW_PWM1.c ****     #if (FanController_FW_PWM1_CY_TCPWM_4000)
 903:Generated_Source\PSoC4/FanController_FW_PWM1.c ****         uint32 currentMode;
 904:Generated_Source\PSoC4/FanController_FW_PWM1.c ****         uint32 regVal;
 905:Generated_Source\PSoC4/FanController_FW_PWM1.c ****     #endif /* (FanController_FW_PWM1_CY_TCPWM_4000) */
 906:Generated_Source\PSoC4/FanController_FW_PWM1.c **** 
 907:Generated_Source\PSoC4/FanController_FW_PWM1.c ****     #if (FanController_FW_PWM1_CY_TCPWM_4000)
 908:Generated_Source\PSoC4/FanController_FW_PWM1.c ****         currentMode = ((FanController_FW_PWM1_CONTROL_REG & FanController_FW_PWM1_UPDOWN_MASK) >> F
 909:Generated_Source\PSoC4/FanController_FW_PWM1.c ****         
 910:Generated_Source\PSoC4/FanController_FW_PWM1.c ****         regVal = FanController_FW_PWM1_COMP_CAP_REG;
 911:Generated_Source\PSoC4/FanController_FW_PWM1.c ****         
 912:Generated_Source\PSoC4/FanController_FW_PWM1.c ****         if (((uint32)FanController_FW_PWM1__COUNT_DOWN == currentMode) && (0u != regVal))
 913:Generated_Source\PSoC4/FanController_FW_PWM1.c ****         {
 914:Generated_Source\PSoC4/FanController_FW_PWM1.c ****             regVal--;
 915:Generated_Source\PSoC4/FanController_FW_PWM1.c ****         }
 916:Generated_Source\PSoC4/FanController_FW_PWM1.c ****         else if (((uint32)FanController_FW_PWM1__COUNT_UP == currentMode) && (0xFFFFu != regVal))
 917:Generated_Source\PSoC4/FanController_FW_PWM1.c ****         {
 918:Generated_Source\PSoC4/FanController_FW_PWM1.c ****             regVal++;
 919:Generated_Source\PSoC4/FanController_FW_PWM1.c ****         }
 920:Generated_Source\PSoC4/FanController_FW_PWM1.c ****         else
 921:Generated_Source\PSoC4/FanController_FW_PWM1.c ****         {
 922:Generated_Source\PSoC4/FanController_FW_PWM1.c ****         }
 923:Generated_Source\PSoC4/FanController_FW_PWM1.c **** 
 924:Generated_Source\PSoC4/FanController_FW_PWM1.c ****         return (regVal & FanController_FW_PWM1_16BIT_MASK);
 925:Generated_Source\PSoC4/FanController_FW_PWM1.c ****     #else
 926:Generated_Source\PSoC4/FanController_FW_PWM1.c ****         return (FanController_FW_PWM1_COMP_CAP_REG & FanController_FW_PWM1_16BIT_MASK);
 927:Generated_Source\PSoC4/FanController_FW_PWM1.c ****     #endif /* (FanController_FW_PWM1_CY_TCPWM_4000) */
 928:Generated_Source\PSoC4/FanController_FW_PWM1.c **** }
 929:Generated_Source\PSoC4/FanController_FW_PWM1.c **** 
 930:Generated_Source\PSoC4/FanController_FW_PWM1.c **** 
 931:Generated_Source\PSoC4/FanController_FW_PWM1.c **** /*******************************************************************************
 932:Generated_Source\PSoC4/FanController_FW_PWM1.c **** * Function Name: FanController_FW_PWM1_WriteCompareBuf
 933:Generated_Source\PSoC4/FanController_FW_PWM1.c **** ********************************************************************************
 934:Generated_Source\PSoC4/FanController_FW_PWM1.c **** *
 935:Generated_Source\PSoC4/FanController_FW_PWM1.c **** * Summary:
 936:Generated_Source\PSoC4/FanController_FW_PWM1.c **** *  Writes the 16 bit compare buffer register with the new compare value. Not
 937:Generated_Source\PSoC4/FanController_FW_PWM1.c **** *  applicable for Timer/Counter with Capture or in Quadrature Decoder modes.
 938:Generated_Source\PSoC4/FanController_FW_PWM1.c **** *
 939:Generated_Source\PSoC4/FanController_FW_PWM1.c **** * Parameters:
 940:Generated_Source\PSoC4/FanController_FW_PWM1.c **** *  compareBuf: Compare value
 941:Generated_Source\PSoC4/FanController_FW_PWM1.c **** *
 942:Generated_Source\PSoC4/FanController_FW_PWM1.c **** * Return:
 943:Generated_Source\PSoC4/FanController_FW_PWM1.c **** *  None
 944:Generated_Source\PSoC4/FanController_FW_PWM1.c **** *
 945:Generated_Source\PSoC4/FanController_FW_PWM1.c **** * Note:
 946:Generated_Source\PSoC4/FanController_FW_PWM1.c **** *  It is not recommended to use the value equal to "0" or equal to 
 947:Generated_Source\PSoC4/FanController_FW_PWM1.c **** *  "period value" in Center or Asymmetric align PWM modes on the 
 948:Generated_Source\PSoC4/FanController_FW_PWM1.c **** *  PSoC 4100/PSoC 4200 devices.
 949:Generated_Source\PSoC4/FanController_FW_PWM1.c **** *  PSoC 4000 devices write the 16 bit compare register with the decremented 
 950:Generated_Source\PSoC4/FanController_FW_PWM1.c **** *  compare value in the Up counting mode (except 0x0u), and the incremented 
 951:Generated_Source\PSoC4/FanController_FW_PWM1.c **** *  compare value in the Down counting mode (except 0xFFFFu).
 952:Generated_Source\PSoC4/FanController_FW_PWM1.c **** *
ARM GAS  C:\Users\VIDEOH~1\AppData\Local\Temp\ccfC0KgD.s 			page 19


 953:Generated_Source\PSoC4/FanController_FW_PWM1.c **** *******************************************************************************/
 954:Generated_Source\PSoC4/FanController_FW_PWM1.c **** void FanController_FW_PWM1_WriteCompareBuf(uint32 compareBuf)
 955:Generated_Source\PSoC4/FanController_FW_PWM1.c **** {
 956:Generated_Source\PSoC4/FanController_FW_PWM1.c ****     #if (FanController_FW_PWM1_CY_TCPWM_4000)
 957:Generated_Source\PSoC4/FanController_FW_PWM1.c ****         uint32 currentMode;
 958:Generated_Source\PSoC4/FanController_FW_PWM1.c ****     #endif /* (FanController_FW_PWM1_CY_TCPWM_4000) */
 959:Generated_Source\PSoC4/FanController_FW_PWM1.c **** 
 960:Generated_Source\PSoC4/FanController_FW_PWM1.c ****     #if (FanController_FW_PWM1_CY_TCPWM_4000)
 961:Generated_Source\PSoC4/FanController_FW_PWM1.c ****         currentMode = ((FanController_FW_PWM1_CONTROL_REG & FanController_FW_PWM1_UPDOWN_MASK) >> F
 962:Generated_Source\PSoC4/FanController_FW_PWM1.c **** 
 963:Generated_Source\PSoC4/FanController_FW_PWM1.c ****         if (((uint32)FanController_FW_PWM1__COUNT_DOWN == currentMode) && (0xFFFFu != compareBuf))
 964:Generated_Source\PSoC4/FanController_FW_PWM1.c ****         {
 965:Generated_Source\PSoC4/FanController_FW_PWM1.c ****             compareBuf++;
 966:Generated_Source\PSoC4/FanController_FW_PWM1.c ****         }
 967:Generated_Source\PSoC4/FanController_FW_PWM1.c ****         else if (((uint32)FanController_FW_PWM1__COUNT_UP == currentMode) && (0u != compareBuf))
 968:Generated_Source\PSoC4/FanController_FW_PWM1.c ****         {
 969:Generated_Source\PSoC4/FanController_FW_PWM1.c ****             compareBuf --;
 970:Generated_Source\PSoC4/FanController_FW_PWM1.c ****         }
 971:Generated_Source\PSoC4/FanController_FW_PWM1.c ****         else
 972:Generated_Source\PSoC4/FanController_FW_PWM1.c ****         {
 973:Generated_Source\PSoC4/FanController_FW_PWM1.c ****         }
 974:Generated_Source\PSoC4/FanController_FW_PWM1.c ****     #endif /* (FanController_FW_PWM1_CY_TCPWM_4000) */
 975:Generated_Source\PSoC4/FanController_FW_PWM1.c ****     
 976:Generated_Source\PSoC4/FanController_FW_PWM1.c ****     FanController_FW_PWM1_COMP_CAP_BUF_REG = (compareBuf & FanController_FW_PWM1_16BIT_MASK);
 977:Generated_Source\PSoC4/FanController_FW_PWM1.c **** }
 978:Generated_Source\PSoC4/FanController_FW_PWM1.c **** 
 979:Generated_Source\PSoC4/FanController_FW_PWM1.c **** 
 980:Generated_Source\PSoC4/FanController_FW_PWM1.c **** /*******************************************************************************
 981:Generated_Source\PSoC4/FanController_FW_PWM1.c **** * Function Name: FanController_FW_PWM1_ReadCompareBuf
 982:Generated_Source\PSoC4/FanController_FW_PWM1.c **** ********************************************************************************
 983:Generated_Source\PSoC4/FanController_FW_PWM1.c **** *
 984:Generated_Source\PSoC4/FanController_FW_PWM1.c **** * Summary:
 985:Generated_Source\PSoC4/FanController_FW_PWM1.c **** *  Reads the compare buffer register. Not applicable for Timer/Counter with
 986:Generated_Source\PSoC4/FanController_FW_PWM1.c **** *  Capture or in Quadrature Decoder modes.
 987:Generated_Source\PSoC4/FanController_FW_PWM1.c **** *
 988:Generated_Source\PSoC4/FanController_FW_PWM1.c **** * Parameters:
 989:Generated_Source\PSoC4/FanController_FW_PWM1.c **** *  None
 990:Generated_Source\PSoC4/FanController_FW_PWM1.c **** *
 991:Generated_Source\PSoC4/FanController_FW_PWM1.c **** * Return:
 992:Generated_Source\PSoC4/FanController_FW_PWM1.c **** *  Compare buffer value
 993:Generated_Source\PSoC4/FanController_FW_PWM1.c **** *
 994:Generated_Source\PSoC4/FanController_FW_PWM1.c **** * Note:
 995:Generated_Source\PSoC4/FanController_FW_PWM1.c **** *  PSoC 4000 devices read the incremented compare register value in the 
 996:Generated_Source\PSoC4/FanController_FW_PWM1.c **** *  Up counting mode (except 0xFFFFu), and the decremented value in the 
 997:Generated_Source\PSoC4/FanController_FW_PWM1.c **** *  Down counting mode (except 0x0u).
 998:Generated_Source\PSoC4/FanController_FW_PWM1.c **** *
 999:Generated_Source\PSoC4/FanController_FW_PWM1.c **** *******************************************************************************/
1000:Generated_Source\PSoC4/FanController_FW_PWM1.c **** uint32 FanController_FW_PWM1_ReadCompareBuf(void)
1001:Generated_Source\PSoC4/FanController_FW_PWM1.c **** {
1002:Generated_Source\PSoC4/FanController_FW_PWM1.c ****     #if (FanController_FW_PWM1_CY_TCPWM_4000)
1003:Generated_Source\PSoC4/FanController_FW_PWM1.c ****         uint32 currentMode;
1004:Generated_Source\PSoC4/FanController_FW_PWM1.c ****         uint32 regVal;
1005:Generated_Source\PSoC4/FanController_FW_PWM1.c ****     #endif /* (FanController_FW_PWM1_CY_TCPWM_4000) */
1006:Generated_Source\PSoC4/FanController_FW_PWM1.c **** 
1007:Generated_Source\PSoC4/FanController_FW_PWM1.c ****     #if (FanController_FW_PWM1_CY_TCPWM_4000)
1008:Generated_Source\PSoC4/FanController_FW_PWM1.c ****         currentMode = ((FanController_FW_PWM1_CONTROL_REG & FanController_FW_PWM1_UPDOWN_MASK) >> F
1009:Generated_Source\PSoC4/FanController_FW_PWM1.c **** 
ARM GAS  C:\Users\VIDEOH~1\AppData\Local\Temp\ccfC0KgD.s 			page 20


1010:Generated_Source\PSoC4/FanController_FW_PWM1.c ****         regVal = FanController_FW_PWM1_COMP_CAP_BUF_REG;
1011:Generated_Source\PSoC4/FanController_FW_PWM1.c ****         
1012:Generated_Source\PSoC4/FanController_FW_PWM1.c ****         if (((uint32)FanController_FW_PWM1__COUNT_DOWN == currentMode) && (0u != regVal))
1013:Generated_Source\PSoC4/FanController_FW_PWM1.c ****         {
1014:Generated_Source\PSoC4/FanController_FW_PWM1.c ****             regVal--;
1015:Generated_Source\PSoC4/FanController_FW_PWM1.c ****         }
1016:Generated_Source\PSoC4/FanController_FW_PWM1.c ****         else if (((uint32)FanController_FW_PWM1__COUNT_UP == currentMode) && (0xFFFFu != regVal))
1017:Generated_Source\PSoC4/FanController_FW_PWM1.c ****         {
1018:Generated_Source\PSoC4/FanController_FW_PWM1.c ****             regVal++;
1019:Generated_Source\PSoC4/FanController_FW_PWM1.c ****         }
1020:Generated_Source\PSoC4/FanController_FW_PWM1.c ****         else
1021:Generated_Source\PSoC4/FanController_FW_PWM1.c ****         {
1022:Generated_Source\PSoC4/FanController_FW_PWM1.c ****         }
1023:Generated_Source\PSoC4/FanController_FW_PWM1.c **** 
1024:Generated_Source\PSoC4/FanController_FW_PWM1.c ****         return (regVal & FanController_FW_PWM1_16BIT_MASK);
1025:Generated_Source\PSoC4/FanController_FW_PWM1.c ****     #else
1026:Generated_Source\PSoC4/FanController_FW_PWM1.c ****         return (FanController_FW_PWM1_COMP_CAP_BUF_REG & FanController_FW_PWM1_16BIT_MASK);
1027:Generated_Source\PSoC4/FanController_FW_PWM1.c ****     #endif /* (FanController_FW_PWM1_CY_TCPWM_4000) */
1028:Generated_Source\PSoC4/FanController_FW_PWM1.c **** }
1029:Generated_Source\PSoC4/FanController_FW_PWM1.c **** 
1030:Generated_Source\PSoC4/FanController_FW_PWM1.c **** 
1031:Generated_Source\PSoC4/FanController_FW_PWM1.c **** /*******************************************************************************
1032:Generated_Source\PSoC4/FanController_FW_PWM1.c **** * Function Name: FanController_FW_PWM1_ReadCapture
1033:Generated_Source\PSoC4/FanController_FW_PWM1.c **** ********************************************************************************
1034:Generated_Source\PSoC4/FanController_FW_PWM1.c **** *
1035:Generated_Source\PSoC4/FanController_FW_PWM1.c **** * Summary:
1036:Generated_Source\PSoC4/FanController_FW_PWM1.c **** *  Reads the captured counter value. This API is applicable only for
1037:Generated_Source\PSoC4/FanController_FW_PWM1.c **** *  Timer/Counter with the capture mode and Quadrature Decoder modes.
1038:Generated_Source\PSoC4/FanController_FW_PWM1.c **** *
1039:Generated_Source\PSoC4/FanController_FW_PWM1.c **** * Parameters:
1040:Generated_Source\PSoC4/FanController_FW_PWM1.c **** *  None
1041:Generated_Source\PSoC4/FanController_FW_PWM1.c **** *
1042:Generated_Source\PSoC4/FanController_FW_PWM1.c **** * Return:
1043:Generated_Source\PSoC4/FanController_FW_PWM1.c **** *  Capture value
1044:Generated_Source\PSoC4/FanController_FW_PWM1.c **** *
1045:Generated_Source\PSoC4/FanController_FW_PWM1.c **** *******************************************************************************/
1046:Generated_Source\PSoC4/FanController_FW_PWM1.c **** uint32 FanController_FW_PWM1_ReadCapture(void)
1047:Generated_Source\PSoC4/FanController_FW_PWM1.c **** {
1048:Generated_Source\PSoC4/FanController_FW_PWM1.c ****     return (FanController_FW_PWM1_COMP_CAP_REG & FanController_FW_PWM1_16BIT_MASK);
1049:Generated_Source\PSoC4/FanController_FW_PWM1.c **** }
1050:Generated_Source\PSoC4/FanController_FW_PWM1.c **** 
1051:Generated_Source\PSoC4/FanController_FW_PWM1.c **** 
1052:Generated_Source\PSoC4/FanController_FW_PWM1.c **** /*******************************************************************************
1053:Generated_Source\PSoC4/FanController_FW_PWM1.c **** * Function Name: FanController_FW_PWM1_ReadCaptureBuf
1054:Generated_Source\PSoC4/FanController_FW_PWM1.c **** ********************************************************************************
1055:Generated_Source\PSoC4/FanController_FW_PWM1.c **** *
1056:Generated_Source\PSoC4/FanController_FW_PWM1.c **** * Summary:
1057:Generated_Source\PSoC4/FanController_FW_PWM1.c **** *  Reads the capture buffer register. This API is applicable only for
1058:Generated_Source\PSoC4/FanController_FW_PWM1.c **** *  Timer/Counter with the capture mode and Quadrature Decoder modes.
1059:Generated_Source\PSoC4/FanController_FW_PWM1.c **** *
1060:Generated_Source\PSoC4/FanController_FW_PWM1.c **** * Parameters:
1061:Generated_Source\PSoC4/FanController_FW_PWM1.c **** *  None
1062:Generated_Source\PSoC4/FanController_FW_PWM1.c **** *
1063:Generated_Source\PSoC4/FanController_FW_PWM1.c **** * Return:
1064:Generated_Source\PSoC4/FanController_FW_PWM1.c **** *  Capture buffer value
1065:Generated_Source\PSoC4/FanController_FW_PWM1.c **** *
1066:Generated_Source\PSoC4/FanController_FW_PWM1.c **** *******************************************************************************/
ARM GAS  C:\Users\VIDEOH~1\AppData\Local\Temp\ccfC0KgD.s 			page 21


1067:Generated_Source\PSoC4/FanController_FW_PWM1.c **** uint32 FanController_FW_PWM1_ReadCaptureBuf(void)
1068:Generated_Source\PSoC4/FanController_FW_PWM1.c **** {
1069:Generated_Source\PSoC4/FanController_FW_PWM1.c ****     return (FanController_FW_PWM1_COMP_CAP_BUF_REG & FanController_FW_PWM1_16BIT_MASK);
1070:Generated_Source\PSoC4/FanController_FW_PWM1.c **** }
1071:Generated_Source\PSoC4/FanController_FW_PWM1.c **** 
1072:Generated_Source\PSoC4/FanController_FW_PWM1.c **** 
1073:Generated_Source\PSoC4/FanController_FW_PWM1.c **** /*******************************************************************************
1074:Generated_Source\PSoC4/FanController_FW_PWM1.c **** * Function Name: FanController_FW_PWM1_SetCaptureMode
1075:Generated_Source\PSoC4/FanController_FW_PWM1.c **** ********************************************************************************
1076:Generated_Source\PSoC4/FanController_FW_PWM1.c **** *
1077:Generated_Source\PSoC4/FanController_FW_PWM1.c **** * Summary:
1078:Generated_Source\PSoC4/FanController_FW_PWM1.c **** *  Sets the capture trigger mode. For PWM mode this is the switch input.
1079:Generated_Source\PSoC4/FanController_FW_PWM1.c **** *  This input is not applicable to the Timer/Counter without Capture and
1080:Generated_Source\PSoC4/FanController_FW_PWM1.c **** *  Quadrature Decoder modes.
1081:Generated_Source\PSoC4/FanController_FW_PWM1.c **** *
1082:Generated_Source\PSoC4/FanController_FW_PWM1.c **** * Parameters:
1083:Generated_Source\PSoC4/FanController_FW_PWM1.c **** *  triggerMode: Enumerated trigger mode value
1084:Generated_Source\PSoC4/FanController_FW_PWM1.c **** *   Values:
1085:Generated_Source\PSoC4/FanController_FW_PWM1.c **** *     - FanController_FW_PWM1_TRIG_LEVEL     - Level
1086:Generated_Source\PSoC4/FanController_FW_PWM1.c **** *     - FanController_FW_PWM1_TRIG_RISING    - Rising edge
1087:Generated_Source\PSoC4/FanController_FW_PWM1.c **** *     - FanController_FW_PWM1_TRIG_FALLING   - Falling edge
1088:Generated_Source\PSoC4/FanController_FW_PWM1.c **** *     - FanController_FW_PWM1_TRIG_BOTH      - Both rising and falling edge
1089:Generated_Source\PSoC4/FanController_FW_PWM1.c **** *
1090:Generated_Source\PSoC4/FanController_FW_PWM1.c **** * Return:
1091:Generated_Source\PSoC4/FanController_FW_PWM1.c **** *  None
1092:Generated_Source\PSoC4/FanController_FW_PWM1.c **** *
1093:Generated_Source\PSoC4/FanController_FW_PWM1.c **** *******************************************************************************/
1094:Generated_Source\PSoC4/FanController_FW_PWM1.c **** void FanController_FW_PWM1_SetCaptureMode(uint32 triggerMode)
1095:Generated_Source\PSoC4/FanController_FW_PWM1.c **** {
1096:Generated_Source\PSoC4/FanController_FW_PWM1.c ****     uint8 enableInterrupts;
1097:Generated_Source\PSoC4/FanController_FW_PWM1.c **** 
1098:Generated_Source\PSoC4/FanController_FW_PWM1.c ****     enableInterrupts = CyEnterCriticalSection();
1099:Generated_Source\PSoC4/FanController_FW_PWM1.c **** 
1100:Generated_Source\PSoC4/FanController_FW_PWM1.c ****     FanController_FW_PWM1_TRIG_CONTROL1_REG &= (uint32)~FanController_FW_PWM1_CAPTURE_MASK;
1101:Generated_Source\PSoC4/FanController_FW_PWM1.c ****     FanController_FW_PWM1_TRIG_CONTROL1_REG |= triggerMode;
1102:Generated_Source\PSoC4/FanController_FW_PWM1.c **** 
1103:Generated_Source\PSoC4/FanController_FW_PWM1.c ****     CyExitCriticalSection(enableInterrupts);
1104:Generated_Source\PSoC4/FanController_FW_PWM1.c **** }
1105:Generated_Source\PSoC4/FanController_FW_PWM1.c **** 
1106:Generated_Source\PSoC4/FanController_FW_PWM1.c **** 
1107:Generated_Source\PSoC4/FanController_FW_PWM1.c **** /*******************************************************************************
1108:Generated_Source\PSoC4/FanController_FW_PWM1.c **** * Function Name: FanController_FW_PWM1_SetReloadMode
1109:Generated_Source\PSoC4/FanController_FW_PWM1.c **** ********************************************************************************
1110:Generated_Source\PSoC4/FanController_FW_PWM1.c **** *
1111:Generated_Source\PSoC4/FanController_FW_PWM1.c **** * Summary:
1112:Generated_Source\PSoC4/FanController_FW_PWM1.c **** *  Sets the reload trigger mode. For Quadrature Decoder mode this is the index
1113:Generated_Source\PSoC4/FanController_FW_PWM1.c **** *  input.
1114:Generated_Source\PSoC4/FanController_FW_PWM1.c **** *
1115:Generated_Source\PSoC4/FanController_FW_PWM1.c **** * Parameters:
1116:Generated_Source\PSoC4/FanController_FW_PWM1.c **** *  triggerMode: Enumerated trigger mode value
1117:Generated_Source\PSoC4/FanController_FW_PWM1.c **** *   Values:
1118:Generated_Source\PSoC4/FanController_FW_PWM1.c **** *     - FanController_FW_PWM1_TRIG_LEVEL     - Level
1119:Generated_Source\PSoC4/FanController_FW_PWM1.c **** *     - FanController_FW_PWM1_TRIG_RISING    - Rising edge
1120:Generated_Source\PSoC4/FanController_FW_PWM1.c **** *     - FanController_FW_PWM1_TRIG_FALLING   - Falling edge
1121:Generated_Source\PSoC4/FanController_FW_PWM1.c **** *     - FanController_FW_PWM1_TRIG_BOTH      - Both rising and falling edge
1122:Generated_Source\PSoC4/FanController_FW_PWM1.c **** *
1123:Generated_Source\PSoC4/FanController_FW_PWM1.c **** * Return:
ARM GAS  C:\Users\VIDEOH~1\AppData\Local\Temp\ccfC0KgD.s 			page 22


1124:Generated_Source\PSoC4/FanController_FW_PWM1.c **** *  None
1125:Generated_Source\PSoC4/FanController_FW_PWM1.c **** *
1126:Generated_Source\PSoC4/FanController_FW_PWM1.c **** *******************************************************************************/
1127:Generated_Source\PSoC4/FanController_FW_PWM1.c **** void FanController_FW_PWM1_SetReloadMode(uint32 triggerMode)
1128:Generated_Source\PSoC4/FanController_FW_PWM1.c **** {
1129:Generated_Source\PSoC4/FanController_FW_PWM1.c ****     uint8 enableInterrupts;
1130:Generated_Source\PSoC4/FanController_FW_PWM1.c **** 
1131:Generated_Source\PSoC4/FanController_FW_PWM1.c ****     enableInterrupts = CyEnterCriticalSection();
1132:Generated_Source\PSoC4/FanController_FW_PWM1.c **** 
1133:Generated_Source\PSoC4/FanController_FW_PWM1.c ****     FanController_FW_PWM1_TRIG_CONTROL1_REG &= (uint32)~FanController_FW_PWM1_RELOAD_MASK;
1134:Generated_Source\PSoC4/FanController_FW_PWM1.c ****     FanController_FW_PWM1_TRIG_CONTROL1_REG |= ((uint32)(triggerMode << FanController_FW_PWM1_RELOA
1135:Generated_Source\PSoC4/FanController_FW_PWM1.c **** 
1136:Generated_Source\PSoC4/FanController_FW_PWM1.c ****     CyExitCriticalSection(enableInterrupts);
1137:Generated_Source\PSoC4/FanController_FW_PWM1.c **** }
1138:Generated_Source\PSoC4/FanController_FW_PWM1.c **** 
1139:Generated_Source\PSoC4/FanController_FW_PWM1.c **** 
1140:Generated_Source\PSoC4/FanController_FW_PWM1.c **** /*******************************************************************************
1141:Generated_Source\PSoC4/FanController_FW_PWM1.c **** * Function Name: FanController_FW_PWM1_SetStartMode
1142:Generated_Source\PSoC4/FanController_FW_PWM1.c **** ********************************************************************************
1143:Generated_Source\PSoC4/FanController_FW_PWM1.c **** *
1144:Generated_Source\PSoC4/FanController_FW_PWM1.c **** * Summary:
1145:Generated_Source\PSoC4/FanController_FW_PWM1.c **** *  Sets the start trigger mode. For Quadrature Decoder mode this is the
1146:Generated_Source\PSoC4/FanController_FW_PWM1.c **** *  phiB input.
1147:Generated_Source\PSoC4/FanController_FW_PWM1.c **** *
1148:Generated_Source\PSoC4/FanController_FW_PWM1.c **** * Parameters:
1149:Generated_Source\PSoC4/FanController_FW_PWM1.c **** *  triggerMode: Enumerated trigger mode value
1150:Generated_Source\PSoC4/FanController_FW_PWM1.c **** *   Values:
1151:Generated_Source\PSoC4/FanController_FW_PWM1.c **** *     - FanController_FW_PWM1_TRIG_LEVEL     - Level
1152:Generated_Source\PSoC4/FanController_FW_PWM1.c **** *     - FanController_FW_PWM1_TRIG_RISING    - Rising edge
1153:Generated_Source\PSoC4/FanController_FW_PWM1.c **** *     - FanController_FW_PWM1_TRIG_FALLING   - Falling edge
1154:Generated_Source\PSoC4/FanController_FW_PWM1.c **** *     - FanController_FW_PWM1_TRIG_BOTH      - Both rising and falling edge
1155:Generated_Source\PSoC4/FanController_FW_PWM1.c **** *
1156:Generated_Source\PSoC4/FanController_FW_PWM1.c **** * Return:
1157:Generated_Source\PSoC4/FanController_FW_PWM1.c **** *  None
1158:Generated_Source\PSoC4/FanController_FW_PWM1.c **** *
1159:Generated_Source\PSoC4/FanController_FW_PWM1.c **** *******************************************************************************/
1160:Generated_Source\PSoC4/FanController_FW_PWM1.c **** void FanController_FW_PWM1_SetStartMode(uint32 triggerMode)
1161:Generated_Source\PSoC4/FanController_FW_PWM1.c **** {
1162:Generated_Source\PSoC4/FanController_FW_PWM1.c ****     uint8 enableInterrupts;
1163:Generated_Source\PSoC4/FanController_FW_PWM1.c **** 
1164:Generated_Source\PSoC4/FanController_FW_PWM1.c ****     enableInterrupts = CyEnterCriticalSection();
1165:Generated_Source\PSoC4/FanController_FW_PWM1.c **** 
1166:Generated_Source\PSoC4/FanController_FW_PWM1.c ****     FanController_FW_PWM1_TRIG_CONTROL1_REG &= (uint32)~FanController_FW_PWM1_START_MASK;
1167:Generated_Source\PSoC4/FanController_FW_PWM1.c ****     FanController_FW_PWM1_TRIG_CONTROL1_REG |= ((uint32)(triggerMode << FanController_FW_PWM1_START
1168:Generated_Source\PSoC4/FanController_FW_PWM1.c **** 
1169:Generated_Source\PSoC4/FanController_FW_PWM1.c ****     CyExitCriticalSection(enableInterrupts);
1170:Generated_Source\PSoC4/FanController_FW_PWM1.c **** }
1171:Generated_Source\PSoC4/FanController_FW_PWM1.c **** 
1172:Generated_Source\PSoC4/FanController_FW_PWM1.c **** 
1173:Generated_Source\PSoC4/FanController_FW_PWM1.c **** /*******************************************************************************
1174:Generated_Source\PSoC4/FanController_FW_PWM1.c **** * Function Name: FanController_FW_PWM1_SetStopMode
1175:Generated_Source\PSoC4/FanController_FW_PWM1.c **** ********************************************************************************
1176:Generated_Source\PSoC4/FanController_FW_PWM1.c **** *
1177:Generated_Source\PSoC4/FanController_FW_PWM1.c **** * Summary:
1178:Generated_Source\PSoC4/FanController_FW_PWM1.c **** *  Sets the stop trigger mode. For PWM mode this is the kill input.
1179:Generated_Source\PSoC4/FanController_FW_PWM1.c **** *
1180:Generated_Source\PSoC4/FanController_FW_PWM1.c **** * Parameters:
ARM GAS  C:\Users\VIDEOH~1\AppData\Local\Temp\ccfC0KgD.s 			page 23


1181:Generated_Source\PSoC4/FanController_FW_PWM1.c **** *  triggerMode: Enumerated trigger mode value
1182:Generated_Source\PSoC4/FanController_FW_PWM1.c **** *   Values:
1183:Generated_Source\PSoC4/FanController_FW_PWM1.c **** *     - FanController_FW_PWM1_TRIG_LEVEL     - Level
1184:Generated_Source\PSoC4/FanController_FW_PWM1.c **** *     - FanController_FW_PWM1_TRIG_RISING    - Rising edge
1185:Generated_Source\PSoC4/FanController_FW_PWM1.c **** *     - FanController_FW_PWM1_TRIG_FALLING   - Falling edge
1186:Generated_Source\PSoC4/FanController_FW_PWM1.c **** *     - FanController_FW_PWM1_TRIG_BOTH      - Both rising and falling edge
1187:Generated_Source\PSoC4/FanController_FW_PWM1.c **** *
1188:Generated_Source\PSoC4/FanController_FW_PWM1.c **** * Return:
1189:Generated_Source\PSoC4/FanController_FW_PWM1.c **** *  None
1190:Generated_Source\PSoC4/FanController_FW_PWM1.c **** *
1191:Generated_Source\PSoC4/FanController_FW_PWM1.c **** *******************************************************************************/
1192:Generated_Source\PSoC4/FanController_FW_PWM1.c **** void FanController_FW_PWM1_SetStopMode(uint32 triggerMode)
1193:Generated_Source\PSoC4/FanController_FW_PWM1.c **** {
1194:Generated_Source\PSoC4/FanController_FW_PWM1.c ****     uint8 enableInterrupts;
1195:Generated_Source\PSoC4/FanController_FW_PWM1.c **** 
1196:Generated_Source\PSoC4/FanController_FW_PWM1.c ****     enableInterrupts = CyEnterCriticalSection();
1197:Generated_Source\PSoC4/FanController_FW_PWM1.c **** 
1198:Generated_Source\PSoC4/FanController_FW_PWM1.c ****     FanController_FW_PWM1_TRIG_CONTROL1_REG &= (uint32)~FanController_FW_PWM1_STOP_MASK;
1199:Generated_Source\PSoC4/FanController_FW_PWM1.c ****     FanController_FW_PWM1_TRIG_CONTROL1_REG |= ((uint32)(triggerMode << FanController_FW_PWM1_STOP_
1200:Generated_Source\PSoC4/FanController_FW_PWM1.c **** 
1201:Generated_Source\PSoC4/FanController_FW_PWM1.c ****     CyExitCriticalSection(enableInterrupts);
1202:Generated_Source\PSoC4/FanController_FW_PWM1.c **** }
1203:Generated_Source\PSoC4/FanController_FW_PWM1.c **** 
1204:Generated_Source\PSoC4/FanController_FW_PWM1.c **** 
1205:Generated_Source\PSoC4/FanController_FW_PWM1.c **** /*******************************************************************************
1206:Generated_Source\PSoC4/FanController_FW_PWM1.c **** * Function Name: FanController_FW_PWM1_SetCountMode
1207:Generated_Source\PSoC4/FanController_FW_PWM1.c **** ********************************************************************************
1208:Generated_Source\PSoC4/FanController_FW_PWM1.c **** *
1209:Generated_Source\PSoC4/FanController_FW_PWM1.c **** * Summary:
1210:Generated_Source\PSoC4/FanController_FW_PWM1.c **** *  Sets the count trigger mode. For Quadrature Decoder mode this is the phiA
1211:Generated_Source\PSoC4/FanController_FW_PWM1.c **** *  input.
1212:Generated_Source\PSoC4/FanController_FW_PWM1.c **** *
1213:Generated_Source\PSoC4/FanController_FW_PWM1.c **** * Parameters:
1214:Generated_Source\PSoC4/FanController_FW_PWM1.c **** *  triggerMode: Enumerated trigger mode value
1215:Generated_Source\PSoC4/FanController_FW_PWM1.c **** *   Values:
1216:Generated_Source\PSoC4/FanController_FW_PWM1.c **** *     - FanController_FW_PWM1_TRIG_LEVEL     - Level
1217:Generated_Source\PSoC4/FanController_FW_PWM1.c **** *     - FanController_FW_PWM1_TRIG_RISING    - Rising edge
1218:Generated_Source\PSoC4/FanController_FW_PWM1.c **** *     - FanController_FW_PWM1_TRIG_FALLING   - Falling edge
1219:Generated_Source\PSoC4/FanController_FW_PWM1.c **** *     - FanController_FW_PWM1_TRIG_BOTH      - Both rising and falling edge
1220:Generated_Source\PSoC4/FanController_FW_PWM1.c **** *
1221:Generated_Source\PSoC4/FanController_FW_PWM1.c **** * Return:
1222:Generated_Source\PSoC4/FanController_FW_PWM1.c **** *  None
1223:Generated_Source\PSoC4/FanController_FW_PWM1.c **** *
1224:Generated_Source\PSoC4/FanController_FW_PWM1.c **** *******************************************************************************/
1225:Generated_Source\PSoC4/FanController_FW_PWM1.c **** void FanController_FW_PWM1_SetCountMode(uint32 triggerMode)
1226:Generated_Source\PSoC4/FanController_FW_PWM1.c **** {
1227:Generated_Source\PSoC4/FanController_FW_PWM1.c ****     uint8 enableInterrupts;
1228:Generated_Source\PSoC4/FanController_FW_PWM1.c **** 
1229:Generated_Source\PSoC4/FanController_FW_PWM1.c ****     enableInterrupts = CyEnterCriticalSection();
1230:Generated_Source\PSoC4/FanController_FW_PWM1.c **** 
1231:Generated_Source\PSoC4/FanController_FW_PWM1.c ****     FanController_FW_PWM1_TRIG_CONTROL1_REG &= (uint32)~FanController_FW_PWM1_COUNT_MASK;
1232:Generated_Source\PSoC4/FanController_FW_PWM1.c ****     FanController_FW_PWM1_TRIG_CONTROL1_REG |= ((uint32)(triggerMode << FanController_FW_PWM1_COUNT
1233:Generated_Source\PSoC4/FanController_FW_PWM1.c **** 
1234:Generated_Source\PSoC4/FanController_FW_PWM1.c ****     CyExitCriticalSection(enableInterrupts);
1235:Generated_Source\PSoC4/FanController_FW_PWM1.c **** }
1236:Generated_Source\PSoC4/FanController_FW_PWM1.c **** 
1237:Generated_Source\PSoC4/FanController_FW_PWM1.c **** 
ARM GAS  C:\Users\VIDEOH~1\AppData\Local\Temp\ccfC0KgD.s 			page 24


1238:Generated_Source\PSoC4/FanController_FW_PWM1.c **** /*******************************************************************************
1239:Generated_Source\PSoC4/FanController_FW_PWM1.c **** * Function Name: FanController_FW_PWM1_TriggerCommand
1240:Generated_Source\PSoC4/FanController_FW_PWM1.c **** ********************************************************************************
1241:Generated_Source\PSoC4/FanController_FW_PWM1.c **** *
1242:Generated_Source\PSoC4/FanController_FW_PWM1.c **** * Summary:
1243:Generated_Source\PSoC4/FanController_FW_PWM1.c **** *  Triggers the designated command to occur on the designated TCPWM instances.
1244:Generated_Source\PSoC4/FanController_FW_PWM1.c **** *  The mask can be used to apply this command simultaneously to more than one
1245:Generated_Source\PSoC4/FanController_FW_PWM1.c **** *  instance.  This allows multiple TCPWM instances to be synchronized.
1246:Generated_Source\PSoC4/FanController_FW_PWM1.c **** *
1247:Generated_Source\PSoC4/FanController_FW_PWM1.c **** * Parameters:
1248:Generated_Source\PSoC4/FanController_FW_PWM1.c **** *  mask: A combination of mask bits for each instance of the TCPWM that the
1249:Generated_Source\PSoC4/FanController_FW_PWM1.c **** *        command should apply to.  This function from one instance can be used
1250:Generated_Source\PSoC4/FanController_FW_PWM1.c **** *        to apply the command to any of the instances in the design.
1251:Generated_Source\PSoC4/FanController_FW_PWM1.c **** *        The mask value for a specific instance is available with the MASK
1252:Generated_Source\PSoC4/FanController_FW_PWM1.c **** *        define.
1253:Generated_Source\PSoC4/FanController_FW_PWM1.c **** *  command: Enumerated command values. Capture command only applicable for
1254:Generated_Source\PSoC4/FanController_FW_PWM1.c **** *           Timer/Counter with Capture and PWM modes.
1255:Generated_Source\PSoC4/FanController_FW_PWM1.c **** *   Values:
1256:Generated_Source\PSoC4/FanController_FW_PWM1.c **** *     - FanController_FW_PWM1_CMD_CAPTURE    - Trigger Capture/Switch command
1257:Generated_Source\PSoC4/FanController_FW_PWM1.c **** *     - FanController_FW_PWM1_CMD_RELOAD     - Trigger Reload/Index command
1258:Generated_Source\PSoC4/FanController_FW_PWM1.c **** *     - FanController_FW_PWM1_CMD_STOP       - Trigger Stop/Kill command
1259:Generated_Source\PSoC4/FanController_FW_PWM1.c **** *     - FanController_FW_PWM1_CMD_START      - Trigger Start/phiB command
1260:Generated_Source\PSoC4/FanController_FW_PWM1.c **** *
1261:Generated_Source\PSoC4/FanController_FW_PWM1.c **** * Return:
1262:Generated_Source\PSoC4/FanController_FW_PWM1.c **** *  None
1263:Generated_Source\PSoC4/FanController_FW_PWM1.c **** *
1264:Generated_Source\PSoC4/FanController_FW_PWM1.c **** *******************************************************************************/
1265:Generated_Source\PSoC4/FanController_FW_PWM1.c **** void FanController_FW_PWM1_TriggerCommand(uint32 mask, uint32 command)
1266:Generated_Source\PSoC4/FanController_FW_PWM1.c **** {
1267:Generated_Source\PSoC4/FanController_FW_PWM1.c ****     uint8 enableInterrupts;
1268:Generated_Source\PSoC4/FanController_FW_PWM1.c **** 
1269:Generated_Source\PSoC4/FanController_FW_PWM1.c ****     enableInterrupts = CyEnterCriticalSection();
1270:Generated_Source\PSoC4/FanController_FW_PWM1.c **** 
1271:Generated_Source\PSoC4/FanController_FW_PWM1.c ****     FanController_FW_PWM1_COMMAND_REG = ((uint32)(mask << command));
1272:Generated_Source\PSoC4/FanController_FW_PWM1.c **** 
1273:Generated_Source\PSoC4/FanController_FW_PWM1.c ****     CyExitCriticalSection(enableInterrupts);
1274:Generated_Source\PSoC4/FanController_FW_PWM1.c **** }
1275:Generated_Source\PSoC4/FanController_FW_PWM1.c **** 
1276:Generated_Source\PSoC4/FanController_FW_PWM1.c **** 
1277:Generated_Source\PSoC4/FanController_FW_PWM1.c **** /*******************************************************************************
1278:Generated_Source\PSoC4/FanController_FW_PWM1.c **** * Function Name: FanController_FW_PWM1_ReadStatus
1279:Generated_Source\PSoC4/FanController_FW_PWM1.c **** ********************************************************************************
1280:Generated_Source\PSoC4/FanController_FW_PWM1.c **** *
1281:Generated_Source\PSoC4/FanController_FW_PWM1.c **** * Summary:
1282:Generated_Source\PSoC4/FanController_FW_PWM1.c **** *  Reads the status of the FanController_FW_PWM1.
1283:Generated_Source\PSoC4/FanController_FW_PWM1.c **** *
1284:Generated_Source\PSoC4/FanController_FW_PWM1.c **** * Parameters:
1285:Generated_Source\PSoC4/FanController_FW_PWM1.c **** *  None
1286:Generated_Source\PSoC4/FanController_FW_PWM1.c **** *
1287:Generated_Source\PSoC4/FanController_FW_PWM1.c **** * Return:
1288:Generated_Source\PSoC4/FanController_FW_PWM1.c **** *  Status
1289:Generated_Source\PSoC4/FanController_FW_PWM1.c **** *   Values:
1290:Generated_Source\PSoC4/FanController_FW_PWM1.c **** *     - FanController_FW_PWM1_STATUS_DOWN    - Set if counting down
1291:Generated_Source\PSoC4/FanController_FW_PWM1.c **** *     - FanController_FW_PWM1_STATUS_RUNNING - Set if counter is running
1292:Generated_Source\PSoC4/FanController_FW_PWM1.c **** *
1293:Generated_Source\PSoC4/FanController_FW_PWM1.c **** *******************************************************************************/
1294:Generated_Source\PSoC4/FanController_FW_PWM1.c **** uint32 FanController_FW_PWM1_ReadStatus(void)
ARM GAS  C:\Users\VIDEOH~1\AppData\Local\Temp\ccfC0KgD.s 			page 25


1295:Generated_Source\PSoC4/FanController_FW_PWM1.c **** {
1296:Generated_Source\PSoC4/FanController_FW_PWM1.c ****     return ((FanController_FW_PWM1_STATUS_REG >> FanController_FW_PWM1_RUNNING_STATUS_SHIFT) |
1297:Generated_Source\PSoC4/FanController_FW_PWM1.c ****             (FanController_FW_PWM1_STATUS_REG & FanController_FW_PWM1_STATUS_DOWN));
1298:Generated_Source\PSoC4/FanController_FW_PWM1.c **** }
1299:Generated_Source\PSoC4/FanController_FW_PWM1.c **** 
1300:Generated_Source\PSoC4/FanController_FW_PWM1.c **** 
1301:Generated_Source\PSoC4/FanController_FW_PWM1.c **** /*******************************************************************************
1302:Generated_Source\PSoC4/FanController_FW_PWM1.c **** * Function Name: FanController_FW_PWM1_SetInterruptMode
1303:Generated_Source\PSoC4/FanController_FW_PWM1.c **** ********************************************************************************
1304:Generated_Source\PSoC4/FanController_FW_PWM1.c **** *
1305:Generated_Source\PSoC4/FanController_FW_PWM1.c **** * Summary:
1306:Generated_Source\PSoC4/FanController_FW_PWM1.c **** *  Sets the interrupt mask to control which interrupt
1307:Generated_Source\PSoC4/FanController_FW_PWM1.c **** *  requests generate the interrupt signal.
1308:Generated_Source\PSoC4/FanController_FW_PWM1.c **** *
1309:Generated_Source\PSoC4/FanController_FW_PWM1.c **** * Parameters:
1310:Generated_Source\PSoC4/FanController_FW_PWM1.c **** *   interruptMask: Mask of bits to be enabled
1311:Generated_Source\PSoC4/FanController_FW_PWM1.c **** *   Values:
1312:Generated_Source\PSoC4/FanController_FW_PWM1.c **** *     - FanController_FW_PWM1_INTR_MASK_TC       - Terminal count mask
1313:Generated_Source\PSoC4/FanController_FW_PWM1.c **** *     - FanController_FW_PWM1_INTR_MASK_CC_MATCH - Compare count / capture mask
1314:Generated_Source\PSoC4/FanController_FW_PWM1.c **** *
1315:Generated_Source\PSoC4/FanController_FW_PWM1.c **** * Return:
1316:Generated_Source\PSoC4/FanController_FW_PWM1.c **** *  None
1317:Generated_Source\PSoC4/FanController_FW_PWM1.c **** *
1318:Generated_Source\PSoC4/FanController_FW_PWM1.c **** *******************************************************************************/
1319:Generated_Source\PSoC4/FanController_FW_PWM1.c **** void FanController_FW_PWM1_SetInterruptMode(uint32 interruptMask)
1320:Generated_Source\PSoC4/FanController_FW_PWM1.c **** {
1321:Generated_Source\PSoC4/FanController_FW_PWM1.c ****     FanController_FW_PWM1_INTERRUPT_MASK_REG =  interruptMask;
  70              		.loc 1 1321 0
  71 001c 084B     		ldr	r3, .L2+12
  72 001e 1A60     		str	r2, [r3]
  73              	.LVL3:
  74              	.LBE15:
  75              	.LBE14:
 129:Generated_Source\PSoC4/FanController_FW_PWM1.c ****             #endif  /* ( FanController_FW_PWM1_PWM_LEFT == FanController_FW_PWM1_PWM_ALIGN) */
  76              		.loc 1 129 0
  77 0020 084B     		ldr	r3, .L2+16
  78 0022 3132     		adds	r2, r2, #49
  79 0024 1A60     		str	r2, [r3]
  80              	.LVL4:
  81              	.LBB16:
  82              	.LBB17:
 695:Generated_Source\PSoC4/FanController_FW_PWM1.c **** }
  83              		.loc 1 695 0
  84 0026 084B     		ldr	r3, .L2+20
  85 0028 CE32     		adds	r2, r2, #206
  86 002a 1A60     		str	r2, [r3]
  87              	.LVL5:
  88              	.LBE17:
  89              	.LBE16:
  90              	.LBB18:
  91              	.LBB19:
 873:Generated_Source\PSoC4/FanController_FW_PWM1.c **** }
  92              		.loc 1 873 0
  93 002c 074B     		ldr	r3, .L2+24
  94 002e BF3A     		subs	r2, r2, #191
  95 0030 1A60     		str	r2, [r3]
  96              	.LVL6:
ARM GAS  C:\Users\VIDEOH~1\AppData\Local\Temp\ccfC0KgD.s 			page 26


  97              	.LBE19:
  98              	.LBE18:
 160:Generated_Source\PSoC4/FanController_FW_PWM1.c **** 
  99              		.loc 1 160 0
 100 0032 7047     		bx	lr
 101              	.L3:
 102              		.align	2
 103              	.L2:
 104 0034 80010540 		.word	1074069888
 105 0038 88010540 		.word	1074069896
 106 003c A4010540 		.word	1074069924
 107 0040 B8010540 		.word	1074069944
 108 0044 A8010540 		.word	1074069928
 109 0048 94010540 		.word	1074069908
 110 004c 8C010540 		.word	1074069900
 111              		.cfi_endproc
 112              	.LFE0:
 113              		.size	FanController_FW_PWM1_Init, .-FanController_FW_PWM1_Init
 114              		.section	.text.FanController_FW_PWM1_Stop,"ax",%progbits
 115              		.align	1
 116              		.global	FanController_FW_PWM1_Stop
 117              		.code	16
 118              		.thumb_func
 119              		.type	FanController_FW_PWM1_Stop, %function
 120              	FanController_FW_PWM1_Stop:
 121              	.LFB3:
 257:Generated_Source\PSoC4/FanController_FW_PWM1.c ****     uint8 enableInterrupts;
 122              		.loc 1 257 0
 123              		.cfi_startproc
 124              		@ args = 0, pretend = 0, frame = 0
 125              		@ frame_needed = 0, uses_anonymous_args = 0
 126 0000 10B5     		push	{r4, lr}
 127              		.cfi_def_cfa_offset 8
 128              		.cfi_offset 4, -8
 129              		.cfi_offset 14, -4
 260:Generated_Source\PSoC4/FanController_FW_PWM1.c **** 
 130              		.loc 1 260 0
 131 0002 FFF7FEFF 		bl	CyEnterCriticalSection
 132              	.LVL7:
 262:Generated_Source\PSoC4/FanController_FW_PWM1.c **** 
 133              		.loc 1 262 0
 134 0006 0421     		movs	r1, #4
 135 0008 034A     		ldr	r2, .L5
 265:Generated_Source\PSoC4/FanController_FW_PWM1.c **** 
 136              		.loc 1 265 0
 137              		@ sp needed
 262:Generated_Source\PSoC4/FanController_FW_PWM1.c **** 
 138              		.loc 1 262 0
 139 000a 1368     		ldr	r3, [r2]
 140 000c 8B43     		bics	r3, r1
 141 000e 1360     		str	r3, [r2]
 264:Generated_Source\PSoC4/FanController_FW_PWM1.c **** }
 142              		.loc 1 264 0
 143 0010 FFF7FEFF 		bl	CyExitCriticalSection
 144              	.LVL8:
 265:Generated_Source\PSoC4/FanController_FW_PWM1.c **** 
 145              		.loc 1 265 0
ARM GAS  C:\Users\VIDEOH~1\AppData\Local\Temp\ccfC0KgD.s 			page 27


 146 0014 10BD     		pop	{r4, pc}
 147              	.L6:
 148 0016 C046     		.align	2
 149              	.L5:
 150 0018 00000540 		.word	1074069504
 151              		.cfi_endproc
 152              	.LFE3:
 153              		.size	FanController_FW_PWM1_Stop, .-FanController_FW_PWM1_Stop
 154              		.section	.text.FanController_FW_PWM1_SetMode,"ax",%progbits
 155              		.align	1
 156              		.global	FanController_FW_PWM1_SetMode
 157              		.code	16
 158              		.thumb_func
 159              		.type	FanController_FW_PWM1_SetMode, %function
 160              	FanController_FW_PWM1_SetMode:
 161              	.LFB4:
 294:Generated_Source\PSoC4/FanController_FW_PWM1.c ****     uint8 enableInterrupts;
 162              		.loc 1 294 0
 163              		.cfi_startproc
 164              		@ args = 0, pretend = 0, frame = 0
 165              		@ frame_needed = 0, uses_anonymous_args = 0
 166              	.LVL9:
 167 0000 10B5     		push	{r4, lr}
 168              		.cfi_def_cfa_offset 8
 169              		.cfi_offset 4, -8
 170              		.cfi_offset 14, -4
 294:Generated_Source\PSoC4/FanController_FW_PWM1.c ****     uint8 enableInterrupts;
 171              		.loc 1 294 0
 172 0002 0400     		movs	r4, r0
 297:Generated_Source\PSoC4/FanController_FW_PWM1.c **** 
 173              		.loc 1 297 0
 174 0004 FFF7FEFF 		bl	CyEnterCriticalSection
 175              	.LVL10:
 299:Generated_Source\PSoC4/FanController_FW_PWM1.c ****     FanController_FW_PWM1_CONTROL_REG |= mode;
 176              		.loc 1 299 0
 177 0008 054B     		ldr	r3, .L8
 178 000a 064A     		ldr	r2, .L8+4
 179 000c 1968     		ldr	r1, [r3]
 303:Generated_Source\PSoC4/FanController_FW_PWM1.c **** 
 180              		.loc 1 303 0
 181              		@ sp needed
 299:Generated_Source\PSoC4/FanController_FW_PWM1.c ****     FanController_FW_PWM1_CONTROL_REG |= mode;
 182              		.loc 1 299 0
 183 000e 0A40     		ands	r2, r1
 184 0010 1A60     		str	r2, [r3]
 300:Generated_Source\PSoC4/FanController_FW_PWM1.c **** 
 185              		.loc 1 300 0
 186 0012 1A68     		ldr	r2, [r3]
 187 0014 1443     		orrs	r4, r2
 188              	.LVL11:
 189 0016 1C60     		str	r4, [r3]
 302:Generated_Source\PSoC4/FanController_FW_PWM1.c **** }
 190              		.loc 1 302 0
 191 0018 FFF7FEFF 		bl	CyExitCriticalSection
 192              	.LVL12:
 303:Generated_Source\PSoC4/FanController_FW_PWM1.c **** 
 193              		.loc 1 303 0
ARM GAS  C:\Users\VIDEOH~1\AppData\Local\Temp\ccfC0KgD.s 			page 28


 194 001c 10BD     		pop	{r4, pc}
 195              	.L9:
 196 001e C046     		.align	2
 197              	.L8:
 198 0020 80010540 		.word	1074069888
 199 0024 FFFFFFF8 		.word	-117440513
 200              		.cfi_endproc
 201              	.LFE4:
 202              		.size	FanController_FW_PWM1_SetMode, .-FanController_FW_PWM1_SetMode
 203              		.section	.text.FanController_FW_PWM1_SetQDMode,"ax",%progbits
 204              		.align	1
 205              		.global	FanController_FW_PWM1_SetQDMode
 206              		.code	16
 207              		.thumb_func
 208              		.type	FanController_FW_PWM1_SetQDMode, %function
 209              	FanController_FW_PWM1_SetQDMode:
 210              	.LFB5:
 327:Generated_Source\PSoC4/FanController_FW_PWM1.c ****     uint8 enableInterrupts;
 211              		.loc 1 327 0
 212              		.cfi_startproc
 213              		@ args = 0, pretend = 0, frame = 0
 214              		@ frame_needed = 0, uses_anonymous_args = 0
 215              	.LVL13:
 216 0000 10B5     		push	{r4, lr}
 217              		.cfi_def_cfa_offset 8
 218              		.cfi_offset 4, -8
 219              		.cfi_offset 14, -4
 327:Generated_Source\PSoC4/FanController_FW_PWM1.c ****     uint8 enableInterrupts;
 220              		.loc 1 327 0
 221 0002 0400     		movs	r4, r0
 330:Generated_Source\PSoC4/FanController_FW_PWM1.c **** 
 222              		.loc 1 330 0
 223 0004 FFF7FEFF 		bl	CyEnterCriticalSection
 224              	.LVL14:
 332:Generated_Source\PSoC4/FanController_FW_PWM1.c ****     FanController_FW_PWM1_CONTROL_REG |= qdMode;
 225              		.loc 1 332 0
 226 0008 054B     		ldr	r3, .L11
 227 000a 064A     		ldr	r2, .L11+4
 228 000c 1968     		ldr	r1, [r3]
 336:Generated_Source\PSoC4/FanController_FW_PWM1.c **** 
 229              		.loc 1 336 0
 230              		@ sp needed
 332:Generated_Source\PSoC4/FanController_FW_PWM1.c ****     FanController_FW_PWM1_CONTROL_REG |= qdMode;
 231              		.loc 1 332 0
 232 000e 0A40     		ands	r2, r1
 233 0010 1A60     		str	r2, [r3]
 333:Generated_Source\PSoC4/FanController_FW_PWM1.c **** 
 234              		.loc 1 333 0
 235 0012 1A68     		ldr	r2, [r3]
 236 0014 1443     		orrs	r4, r2
 237              	.LVL15:
 238 0016 1C60     		str	r4, [r3]
 335:Generated_Source\PSoC4/FanController_FW_PWM1.c **** }
 239              		.loc 1 335 0
 240 0018 FFF7FEFF 		bl	CyExitCriticalSection
 241              	.LVL16:
 336:Generated_Source\PSoC4/FanController_FW_PWM1.c **** 
ARM GAS  C:\Users\VIDEOH~1\AppData\Local\Temp\ccfC0KgD.s 			page 29


 242              		.loc 1 336 0
 243 001c 10BD     		pop	{r4, pc}
 244              	.L12:
 245 001e C046     		.align	2
 246              	.L11:
 247 0020 80010540 		.word	1074069888
 248 0024 FFFF8FFF 		.word	-7340033
 249              		.cfi_endproc
 250              	.LFE5:
 251              		.size	FanController_FW_PWM1_SetQDMode, .-FanController_FW_PWM1_SetQDMode
 252              		.section	.text.FanController_FW_PWM1_SetPrescaler,"ax",%progbits
 253              		.align	1
 254              		.global	FanController_FW_PWM1_SetPrescaler
 255              		.code	16
 256              		.thumb_func
 257              		.type	FanController_FW_PWM1_SetPrescaler, %function
 258              	FanController_FW_PWM1_SetPrescaler:
 259              	.LFB6:
 364:Generated_Source\PSoC4/FanController_FW_PWM1.c ****     uint8 enableInterrupts;
 260              		.loc 1 364 0
 261              		.cfi_startproc
 262              		@ args = 0, pretend = 0, frame = 0
 263              		@ frame_needed = 0, uses_anonymous_args = 0
 264              	.LVL17:
 265 0000 10B5     		push	{r4, lr}
 266              		.cfi_def_cfa_offset 8
 267              		.cfi_offset 4, -8
 268              		.cfi_offset 14, -4
 364:Generated_Source\PSoC4/FanController_FW_PWM1.c ****     uint8 enableInterrupts;
 269              		.loc 1 364 0
 270 0002 0400     		movs	r4, r0
 367:Generated_Source\PSoC4/FanController_FW_PWM1.c **** 
 271              		.loc 1 367 0
 272 0004 FFF7FEFF 		bl	CyEnterCriticalSection
 273              	.LVL18:
 369:Generated_Source\PSoC4/FanController_FW_PWM1.c ****     FanController_FW_PWM1_CONTROL_REG |= prescaler;
 274              		.loc 1 369 0
 275 0008 054B     		ldr	r3, .L14
 276 000a 064A     		ldr	r2, .L14+4
 277 000c 1968     		ldr	r1, [r3]
 373:Generated_Source\PSoC4/FanController_FW_PWM1.c **** 
 278              		.loc 1 373 0
 279              		@ sp needed
 369:Generated_Source\PSoC4/FanController_FW_PWM1.c ****     FanController_FW_PWM1_CONTROL_REG |= prescaler;
 280              		.loc 1 369 0
 281 000e 0A40     		ands	r2, r1
 282 0010 1A60     		str	r2, [r3]
 370:Generated_Source\PSoC4/FanController_FW_PWM1.c **** 
 283              		.loc 1 370 0
 284 0012 1A68     		ldr	r2, [r3]
 285 0014 1443     		orrs	r4, r2
 286              	.LVL19:
 287 0016 1C60     		str	r4, [r3]
 372:Generated_Source\PSoC4/FanController_FW_PWM1.c **** }
 288              		.loc 1 372 0
 289 0018 FFF7FEFF 		bl	CyExitCriticalSection
 290              	.LVL20:
ARM GAS  C:\Users\VIDEOH~1\AppData\Local\Temp\ccfC0KgD.s 			page 30


 373:Generated_Source\PSoC4/FanController_FW_PWM1.c **** 
 291              		.loc 1 373 0
 292 001c 10BD     		pop	{r4, pc}
 293              	.L15:
 294 001e C046     		.align	2
 295              	.L14:
 296 0020 80010540 		.word	1074069888
 297 0024 FF00FFFF 		.word	-65281
 298              		.cfi_endproc
 299              	.LFE6:
 300              		.size	FanController_FW_PWM1_SetPrescaler, .-FanController_FW_PWM1_SetPrescaler
 301              		.section	.text.FanController_FW_PWM1_SetOneShot,"ax",%progbits
 302              		.align	1
 303              		.global	FanController_FW_PWM1_SetOneShot
 304              		.code	16
 305              		.thumb_func
 306              		.type	FanController_FW_PWM1_SetOneShot, %function
 307              	FanController_FW_PWM1_SetOneShot:
 308              	.LFB7:
 396:Generated_Source\PSoC4/FanController_FW_PWM1.c ****     uint8 enableInterrupts;
 309              		.loc 1 396 0
 310              		.cfi_startproc
 311              		@ args = 0, pretend = 0, frame = 0
 312              		@ frame_needed = 0, uses_anonymous_args = 0
 313              	.LVL21:
 314 0000 10B5     		push	{r4, lr}
 315              		.cfi_def_cfa_offset 8
 316              		.cfi_offset 4, -8
 317              		.cfi_offset 14, -4
 396:Generated_Source\PSoC4/FanController_FW_PWM1.c ****     uint8 enableInterrupts;
 318              		.loc 1 396 0
 319 0002 0400     		movs	r4, r0
 399:Generated_Source\PSoC4/FanController_FW_PWM1.c **** 
 320              		.loc 1 399 0
 321 0004 FFF7FEFF 		bl	CyEnterCriticalSection
 322              	.LVL22:
 401:Generated_Source\PSoC4/FanController_FW_PWM1.c ****     FanController_FW_PWM1_CONTROL_REG |= ((uint32)((oneShotEnable & FanController_FW_PWM1_1BIT_MASK
 323              		.loc 1 401 0
 324 0008 074B     		ldr	r3, .L17
 325 000a 084A     		ldr	r2, .L17+4
 326 000c 1968     		ldr	r1, [r3]
 406:Generated_Source\PSoC4/FanController_FW_PWM1.c **** 
 327              		.loc 1 406 0
 328              		@ sp needed
 401:Generated_Source\PSoC4/FanController_FW_PWM1.c ****     FanController_FW_PWM1_CONTROL_REG |= ((uint32)((oneShotEnable & FanController_FW_PWM1_1BIT_MASK
 329              		.loc 1 401 0
 330 000e 0A40     		ands	r2, r1
 331 0010 1A60     		str	r2, [r3]
 402:Generated_Source\PSoC4/FanController_FW_PWM1.c ****                                                                FanController_FW_PWM1_ONESHOT_SHIFT)
 332              		.loc 1 402 0
 333 0012 A204     		lsls	r2, r4, #18
 334 0014 8024     		movs	r4, #128
 335              	.LVL23:
 336 0016 1968     		ldr	r1, [r3]
 337 0018 E402     		lsls	r4, r4, #11
 338 001a 2240     		ands	r2, r4
 339 001c 0A43     		orrs	r2, r1
ARM GAS  C:\Users\VIDEOH~1\AppData\Local\Temp\ccfC0KgD.s 			page 31


 340 001e 1A60     		str	r2, [r3]
 405:Generated_Source\PSoC4/FanController_FW_PWM1.c **** }
 341              		.loc 1 405 0
 342 0020 FFF7FEFF 		bl	CyExitCriticalSection
 343              	.LVL24:
 406:Generated_Source\PSoC4/FanController_FW_PWM1.c **** 
 344              		.loc 1 406 0
 345 0024 10BD     		pop	{r4, pc}
 346              	.L18:
 347 0026 C046     		.align	2
 348              	.L17:
 349 0028 80010540 		.word	1074069888
 350 002c FFFFFBFF 		.word	-262145
 351              		.cfi_endproc
 352              	.LFE7:
 353              		.size	FanController_FW_PWM1_SetOneShot, .-FanController_FW_PWM1_SetOneShot
 354              		.section	.text.FanController_FW_PWM1_SetPWMMode,"ax",%progbits
 355              		.align	1
 356              		.global	FanController_FW_PWM1_SetPWMMode
 357              		.code	16
 358              		.thumb_func
 359              		.type	FanController_FW_PWM1_SetPWMMode, %function
 360              	FanController_FW_PWM1_SetPWMMode:
 361              	.LFB8:
 450:Generated_Source\PSoC4/FanController_FW_PWM1.c ****     FanController_FW_PWM1_TRIG_CONTROL2_REG = (modeMask & FanController_FW_PWM1_6BIT_MASK);
 362              		.loc 1 450 0
 363              		.cfi_startproc
 364              		@ args = 0, pretend = 0, frame = 0
 365              		@ frame_needed = 0, uses_anonymous_args = 0
 366              		@ link register save eliminated.
 367              	.LVL25:
 451:Generated_Source\PSoC4/FanController_FW_PWM1.c **** }
 368              		.loc 1 451 0
 369 0000 3F23     		movs	r3, #63
 370 0002 1840     		ands	r0, r3
 371              	.LVL26:
 372 0004 014B     		ldr	r3, .L20
 452:Generated_Source\PSoC4/FanController_FW_PWM1.c **** 
 373              		.loc 1 452 0
 374              		@ sp needed
 451:Generated_Source\PSoC4/FanController_FW_PWM1.c **** }
 375              		.loc 1 451 0
 376 0006 1860     		str	r0, [r3]
 452:Generated_Source\PSoC4/FanController_FW_PWM1.c **** 
 377              		.loc 1 452 0
 378 0008 7047     		bx	lr
 379              	.L21:
 380 000a C046     		.align	2
 381              	.L20:
 382 000c A8010540 		.word	1074069928
 383              		.cfi_endproc
 384              	.LFE8:
 385              		.size	FanController_FW_PWM1_SetPWMMode, .-FanController_FW_PWM1_SetPWMMode
 386              		.section	.text.FanController_FW_PWM1_SetPWMSyncKill,"ax",%progbits
 387              		.align	1
 388              		.global	FanController_FW_PWM1_SetPWMSyncKill
 389              		.code	16
ARM GAS  C:\Users\VIDEOH~1\AppData\Local\Temp\ccfC0KgD.s 			page 32


 390              		.thumb_func
 391              		.type	FanController_FW_PWM1_SetPWMSyncKill, %function
 392              	FanController_FW_PWM1_SetPWMSyncKill:
 393              	.LFB9:
 486:Generated_Source\PSoC4/FanController_FW_PWM1.c ****     uint8 enableInterrupts;
 394              		.loc 1 486 0
 395              		.cfi_startproc
 396              		@ args = 0, pretend = 0, frame = 0
 397              		@ frame_needed = 0, uses_anonymous_args = 0
 398              	.LVL27:
 399 0000 10B5     		push	{r4, lr}
 400              		.cfi_def_cfa_offset 8
 401              		.cfi_offset 4, -8
 402              		.cfi_offset 14, -4
 486:Generated_Source\PSoC4/FanController_FW_PWM1.c ****     uint8 enableInterrupts;
 403              		.loc 1 486 0
 404 0002 0400     		movs	r4, r0
 489:Generated_Source\PSoC4/FanController_FW_PWM1.c **** 
 405              		.loc 1 489 0
 406 0004 FFF7FEFF 		bl	CyEnterCriticalSection
 407              	.LVL28:
 491:Generated_Source\PSoC4/FanController_FW_PWM1.c ****     FanController_FW_PWM1_CONTROL_REG |= ((uint32)((syncKillEnable & FanController_FW_PWM1_1BIT_MAS
 408              		.loc 1 491 0
 409 0008 0422     		movs	r2, #4
 410 000a 064B     		ldr	r3, .L23
 492:Generated_Source\PSoC4/FanController_FW_PWM1.c ****                                                FanController_FW_PWM1_PWM_SYNC_KILL_SHIFT));
 411              		.loc 1 492 0
 412 000c A400     		lsls	r4, r4, #2
 413              	.LVL29:
 491:Generated_Source\PSoC4/FanController_FW_PWM1.c ****     FanController_FW_PWM1_CONTROL_REG |= ((uint32)((syncKillEnable & FanController_FW_PWM1_1BIT_MAS
 414              		.loc 1 491 0
 415 000e 1968     		ldr	r1, [r3]
 496:Generated_Source\PSoC4/FanController_FW_PWM1.c **** 
 416              		.loc 1 496 0
 417              		@ sp needed
 491:Generated_Source\PSoC4/FanController_FW_PWM1.c ****     FanController_FW_PWM1_CONTROL_REG |= ((uint32)((syncKillEnable & FanController_FW_PWM1_1BIT_MAS
 418              		.loc 1 491 0
 419 0010 9143     		bics	r1, r2
 420 0012 1960     		str	r1, [r3]
 492:Generated_Source\PSoC4/FanController_FW_PWM1.c ****                                                FanController_FW_PWM1_PWM_SYNC_KILL_SHIFT));
 421              		.loc 1 492 0
 422 0014 1968     		ldr	r1, [r3]
 423 0016 2240     		ands	r2, r4
 424 0018 0A43     		orrs	r2, r1
 425 001a 1A60     		str	r2, [r3]
 495:Generated_Source\PSoC4/FanController_FW_PWM1.c **** }
 426              		.loc 1 495 0
 427 001c FFF7FEFF 		bl	CyExitCriticalSection
 428              	.LVL30:
 496:Generated_Source\PSoC4/FanController_FW_PWM1.c **** 
 429              		.loc 1 496 0
 430 0020 10BD     		pop	{r4, pc}
 431              	.L24:
 432 0022 C046     		.align	2
 433              	.L23:
 434 0024 80010540 		.word	1074069888
 435              		.cfi_endproc
ARM GAS  C:\Users\VIDEOH~1\AppData\Local\Temp\ccfC0KgD.s 			page 33


 436              	.LFE9:
 437              		.size	FanController_FW_PWM1_SetPWMSyncKill, .-FanController_FW_PWM1_SetPWMSyncKill
 438              		.section	.text.FanController_FW_PWM1_SetPWMStopOnKill,"ax",%progbits
 439              		.align	1
 440              		.global	FanController_FW_PWM1_SetPWMStopOnKill
 441              		.code	16
 442              		.thumb_func
 443              		.type	FanController_FW_PWM1_SetPWMStopOnKill, %function
 444              	FanController_FW_PWM1_SetPWMStopOnKill:
 445              	.LFB10:
 520:Generated_Source\PSoC4/FanController_FW_PWM1.c ****     uint8 enableInterrupts;
 446              		.loc 1 520 0
 447              		.cfi_startproc
 448              		@ args = 0, pretend = 0, frame = 0
 449              		@ frame_needed = 0, uses_anonymous_args = 0
 450              	.LVL31:
 451 0000 10B5     		push	{r4, lr}
 452              		.cfi_def_cfa_offset 8
 453              		.cfi_offset 4, -8
 454              		.cfi_offset 14, -4
 520:Generated_Source\PSoC4/FanController_FW_PWM1.c ****     uint8 enableInterrupts;
 455              		.loc 1 520 0
 456 0002 0400     		movs	r4, r0
 523:Generated_Source\PSoC4/FanController_FW_PWM1.c **** 
 457              		.loc 1 523 0
 458 0004 FFF7FEFF 		bl	CyEnterCriticalSection
 459              	.LVL32:
 525:Generated_Source\PSoC4/FanController_FW_PWM1.c ****     FanController_FW_PWM1_CONTROL_REG |= ((uint32)((stopOnKillEnable & FanController_FW_PWM1_1BIT_M
 460              		.loc 1 525 0
 461 0008 0822     		movs	r2, #8
 462 000a 064B     		ldr	r3, .L26
 526:Generated_Source\PSoC4/FanController_FW_PWM1.c ****                                                          FanController_FW_PWM1_PWM_STOP_KILL_SHIFT)
 463              		.loc 1 526 0
 464 000c E400     		lsls	r4, r4, #3
 465              	.LVL33:
 525:Generated_Source\PSoC4/FanController_FW_PWM1.c ****     FanController_FW_PWM1_CONTROL_REG |= ((uint32)((stopOnKillEnable & FanController_FW_PWM1_1BIT_M
 466              		.loc 1 525 0
 467 000e 1968     		ldr	r1, [r3]
 530:Generated_Source\PSoC4/FanController_FW_PWM1.c **** 
 468              		.loc 1 530 0
 469              		@ sp needed
 525:Generated_Source\PSoC4/FanController_FW_PWM1.c ****     FanController_FW_PWM1_CONTROL_REG |= ((uint32)((stopOnKillEnable & FanController_FW_PWM1_1BIT_M
 470              		.loc 1 525 0
 471 0010 9143     		bics	r1, r2
 472 0012 1960     		str	r1, [r3]
 526:Generated_Source\PSoC4/FanController_FW_PWM1.c ****                                                          FanController_FW_PWM1_PWM_STOP_KILL_SHIFT)
 473              		.loc 1 526 0
 474 0014 1968     		ldr	r1, [r3]
 475 0016 2240     		ands	r2, r4
 476 0018 0A43     		orrs	r2, r1
 477 001a 1A60     		str	r2, [r3]
 529:Generated_Source\PSoC4/FanController_FW_PWM1.c **** }
 478              		.loc 1 529 0
 479 001c FFF7FEFF 		bl	CyExitCriticalSection
 480              	.LVL34:
 530:Generated_Source\PSoC4/FanController_FW_PWM1.c **** 
 481              		.loc 1 530 0
ARM GAS  C:\Users\VIDEOH~1\AppData\Local\Temp\ccfC0KgD.s 			page 34


 482 0020 10BD     		pop	{r4, pc}
 483              	.L27:
 484 0022 C046     		.align	2
 485              	.L26:
 486 0024 80010540 		.word	1074069888
 487              		.cfi_endproc
 488              	.LFE10:
 489              		.size	FanController_FW_PWM1_SetPWMStopOnKill, .-FanController_FW_PWM1_SetPWMStopOnKill
 490              		.section	.text.FanController_FW_PWM1_SetPWMDeadTime,"ax",%progbits
 491              		.align	1
 492              		.global	FanController_FW_PWM1_SetPWMDeadTime
 493              		.code	16
 494              		.thumb_func
 495              		.type	FanController_FW_PWM1_SetPWMDeadTime, %function
 496              	FanController_FW_PWM1_SetPWMDeadTime:
 497              	.LFB11:
 553:Generated_Source\PSoC4/FanController_FW_PWM1.c ****     uint8 enableInterrupts;
 498              		.loc 1 553 0
 499              		.cfi_startproc
 500              		@ args = 0, pretend = 0, frame = 0
 501              		@ frame_needed = 0, uses_anonymous_args = 0
 502              	.LVL35:
 503 0000 10B5     		push	{r4, lr}
 504              		.cfi_def_cfa_offset 8
 505              		.cfi_offset 4, -8
 506              		.cfi_offset 14, -4
 553:Generated_Source\PSoC4/FanController_FW_PWM1.c ****     uint8 enableInterrupts;
 507              		.loc 1 553 0
 508 0002 0400     		movs	r4, r0
 556:Generated_Source\PSoC4/FanController_FW_PWM1.c **** 
 509              		.loc 1 556 0
 510 0004 FFF7FEFF 		bl	CyEnterCriticalSection
 511              	.LVL36:
 558:Generated_Source\PSoC4/FanController_FW_PWM1.c ****     FanController_FW_PWM1_CONTROL_REG |= ((uint32)((deadTime & FanController_FW_PWM1_8BIT_MASK) <<
 512              		.loc 1 558 0
 513 0008 064B     		ldr	r3, .L29
 514 000a 074A     		ldr	r2, .L29+4
 515 000c 1968     		ldr	r1, [r3]
 559:Generated_Source\PSoC4/FanController_FW_PWM1.c ****                                                           FanController_FW_PWM1_PRESCALER_SHIFT));
 516              		.loc 1 559 0
 517 000e 2406     		lsls	r4, r4, #24
 518              	.LVL37:
 558:Generated_Source\PSoC4/FanController_FW_PWM1.c ****     FanController_FW_PWM1_CONTROL_REG |= ((uint32)((deadTime & FanController_FW_PWM1_8BIT_MASK) <<
 519              		.loc 1 558 0
 520 0010 0A40     		ands	r2, r1
 521 0012 1A60     		str	r2, [r3]
 559:Generated_Source\PSoC4/FanController_FW_PWM1.c ****                                                           FanController_FW_PWM1_PRESCALER_SHIFT));
 522              		.loc 1 559 0
 523 0014 1A68     		ldr	r2, [r3]
 524 0016 240C     		lsrs	r4, r4, #16
 525 0018 1443     		orrs	r4, r2
 526 001a 1C60     		str	r4, [r3]
 562:Generated_Source\PSoC4/FanController_FW_PWM1.c **** }
 527              		.loc 1 562 0
 528 001c FFF7FEFF 		bl	CyExitCriticalSection
 529              	.LVL38:
 563:Generated_Source\PSoC4/FanController_FW_PWM1.c **** 
ARM GAS  C:\Users\VIDEOH~1\AppData\Local\Temp\ccfC0KgD.s 			page 35


 530              		.loc 1 563 0
 531              		@ sp needed
 532 0020 10BD     		pop	{r4, pc}
 533              	.L30:
 534 0022 C046     		.align	2
 535              	.L29:
 536 0024 80010540 		.word	1074069888
 537 0028 FF00FFFF 		.word	-65281
 538              		.cfi_endproc
 539              	.LFE11:
 540              		.size	FanController_FW_PWM1_SetPWMDeadTime, .-FanController_FW_PWM1_SetPWMDeadTime
 541              		.section	.text.FanController_FW_PWM1_SetPWMInvert,"ax",%progbits
 542              		.align	1
 543              		.global	FanController_FW_PWM1_SetPWMInvert
 544              		.code	16
 545              		.thumb_func
 546              		.type	FanController_FW_PWM1_SetPWMInvert, %function
 547              	FanController_FW_PWM1_SetPWMInvert:
 548              	.LFB12:
 586:Generated_Source\PSoC4/FanController_FW_PWM1.c ****     uint8 enableInterrupts;
 549              		.loc 1 586 0
 550              		.cfi_startproc
 551              		@ args = 0, pretend = 0, frame = 0
 552              		@ frame_needed = 0, uses_anonymous_args = 0
 553              	.LVL39:
 554 0000 10B5     		push	{r4, lr}
 555              		.cfi_def_cfa_offset 8
 556              		.cfi_offset 4, -8
 557              		.cfi_offset 14, -4
 586:Generated_Source\PSoC4/FanController_FW_PWM1.c ****     uint8 enableInterrupts;
 558              		.loc 1 586 0
 559 0002 0400     		movs	r4, r0
 589:Generated_Source\PSoC4/FanController_FW_PWM1.c **** 
 560              		.loc 1 589 0
 561 0004 FFF7FEFF 		bl	CyEnterCriticalSection
 562              	.LVL40:
 591:Generated_Source\PSoC4/FanController_FW_PWM1.c ****     FanController_FW_PWM1_CONTROL_REG |= mask;
 563              		.loc 1 591 0
 564 0008 054B     		ldr	r3, .L32
 565 000a 064A     		ldr	r2, .L32+4
 566 000c 1968     		ldr	r1, [r3]
 595:Generated_Source\PSoC4/FanController_FW_PWM1.c **** 
 567              		.loc 1 595 0
 568              		@ sp needed
 591:Generated_Source\PSoC4/FanController_FW_PWM1.c ****     FanController_FW_PWM1_CONTROL_REG |= mask;
 569              		.loc 1 591 0
 570 000e 0A40     		ands	r2, r1
 571 0010 1A60     		str	r2, [r3]
 592:Generated_Source\PSoC4/FanController_FW_PWM1.c **** 
 572              		.loc 1 592 0
 573 0012 1A68     		ldr	r2, [r3]
 574 0014 1443     		orrs	r4, r2
 575              	.LVL41:
 576 0016 1C60     		str	r4, [r3]
 594:Generated_Source\PSoC4/FanController_FW_PWM1.c **** }
 577              		.loc 1 594 0
 578 0018 FFF7FEFF 		bl	CyExitCriticalSection
ARM GAS  C:\Users\VIDEOH~1\AppData\Local\Temp\ccfC0KgD.s 			page 36


 579              	.LVL42:
 595:Generated_Source\PSoC4/FanController_FW_PWM1.c **** 
 580              		.loc 1 595 0
 581 001c 10BD     		pop	{r4, pc}
 582              	.L33:
 583 001e C046     		.align	2
 584              	.L32:
 585 0020 80010540 		.word	1074069888
 586 0024 FFFFCFFF 		.word	-3145729
 587              		.cfi_endproc
 588              	.LFE12:
 589              		.size	FanController_FW_PWM1_SetPWMInvert, .-FanController_FW_PWM1_SetPWMInvert
 590              		.section	.text.FanController_FW_PWM1_WriteCounter,"ax",%progbits
 591              		.align	1
 592              		.global	FanController_FW_PWM1_WriteCounter
 593              		.code	16
 594              		.thumb_func
 595              		.type	FanController_FW_PWM1_WriteCounter, %function
 596              	FanController_FW_PWM1_WriteCounter:
 597              	.LFB13:
 616:Generated_Source\PSoC4/FanController_FW_PWM1.c ****     FanController_FW_PWM1_COUNTER_REG = (count & FanController_FW_PWM1_16BIT_MASK);
 598              		.loc 1 616 0
 599              		.cfi_startproc
 600              		@ args = 0, pretend = 0, frame = 0
 601              		@ frame_needed = 0, uses_anonymous_args = 0
 602              		@ link register save eliminated.
 603              	.LVL43:
 617:Generated_Source\PSoC4/FanController_FW_PWM1.c **** }
 604              		.loc 1 617 0
 605 0000 014B     		ldr	r3, .L35
 606 0002 80B2     		uxth	r0, r0
 607              	.LVL44:
 608 0004 1860     		str	r0, [r3]
 618:Generated_Source\PSoC4/FanController_FW_PWM1.c **** 
 609              		.loc 1 618 0
 610              		@ sp needed
 611 0006 7047     		bx	lr
 612              	.L36:
 613              		.align	2
 614              	.L35:
 615 0008 88010540 		.word	1074069896
 616              		.cfi_endproc
 617              	.LFE13:
 618              		.size	FanController_FW_PWM1_WriteCounter, .-FanController_FW_PWM1_WriteCounter
 619              		.section	.text.FanController_FW_PWM1_ReadCounter,"ax",%progbits
 620              		.align	1
 621              		.global	FanController_FW_PWM1_ReadCounter
 622              		.code	16
 623              		.thumb_func
 624              		.type	FanController_FW_PWM1_ReadCounter, %function
 625              	FanController_FW_PWM1_ReadCounter:
 626              	.LFB14:
 636:Generated_Source\PSoC4/FanController_FW_PWM1.c ****     return (FanController_FW_PWM1_COUNTER_REG & FanController_FW_PWM1_16BIT_MASK);
 627              		.loc 1 636 0
 628              		.cfi_startproc
 629              		@ args = 0, pretend = 0, frame = 0
 630              		@ frame_needed = 0, uses_anonymous_args = 0
ARM GAS  C:\Users\VIDEOH~1\AppData\Local\Temp\ccfC0KgD.s 			page 37


 631              		@ link register save eliminated.
 637:Generated_Source\PSoC4/FanController_FW_PWM1.c **** }
 632              		.loc 1 637 0
 633 0000 014B     		ldr	r3, .L38
 638:Generated_Source\PSoC4/FanController_FW_PWM1.c **** 
 634              		.loc 1 638 0
 635              		@ sp needed
 637:Generated_Source\PSoC4/FanController_FW_PWM1.c **** }
 636              		.loc 1 637 0
 637 0002 1868     		ldr	r0, [r3]
 638 0004 80B2     		uxth	r0, r0
 638:Generated_Source\PSoC4/FanController_FW_PWM1.c **** 
 639              		.loc 1 638 0
 640 0006 7047     		bx	lr
 641              	.L39:
 642              		.align	2
 643              	.L38:
 644 0008 88010540 		.word	1074069896
 645              		.cfi_endproc
 646              	.LFE14:
 647              		.size	FanController_FW_PWM1_ReadCounter, .-FanController_FW_PWM1_ReadCounter
 648              		.section	.text.FanController_FW_PWM1_SetCounterMode,"ax",%progbits
 649              		.align	1
 650              		.global	FanController_FW_PWM1_SetCounterMode
 651              		.code	16
 652              		.thumb_func
 653              		.type	FanController_FW_PWM1_SetCounterMode, %function
 654              	FanController_FW_PWM1_SetCounterMode:
 655              	.LFB15:
 665:Generated_Source\PSoC4/FanController_FW_PWM1.c ****     uint8 enableInterrupts;
 656              		.loc 1 665 0
 657              		.cfi_startproc
 658              		@ args = 0, pretend = 0, frame = 0
 659              		@ frame_needed = 0, uses_anonymous_args = 0
 660              	.LVL45:
 661 0000 10B5     		push	{r4, lr}
 662              		.cfi_def_cfa_offset 8
 663              		.cfi_offset 4, -8
 664              		.cfi_offset 14, -4
 665:Generated_Source\PSoC4/FanController_FW_PWM1.c ****     uint8 enableInterrupts;
 665              		.loc 1 665 0
 666 0002 0400     		movs	r4, r0
 668:Generated_Source\PSoC4/FanController_FW_PWM1.c **** 
 667              		.loc 1 668 0
 668 0004 FFF7FEFF 		bl	CyEnterCriticalSection
 669              	.LVL46:
 670:Generated_Source\PSoC4/FanController_FW_PWM1.c ****     FanController_FW_PWM1_CONTROL_REG |= counterMode;
 670              		.loc 1 670 0
 671 0008 054B     		ldr	r3, .L41
 672 000a 064A     		ldr	r2, .L41+4
 673 000c 1968     		ldr	r1, [r3]
 674:Generated_Source\PSoC4/FanController_FW_PWM1.c **** 
 674              		.loc 1 674 0
 675              		@ sp needed
 670:Generated_Source\PSoC4/FanController_FW_PWM1.c ****     FanController_FW_PWM1_CONTROL_REG |= counterMode;
 676              		.loc 1 670 0
 677 000e 0A40     		ands	r2, r1
ARM GAS  C:\Users\VIDEOH~1\AppData\Local\Temp\ccfC0KgD.s 			page 38


 678 0010 1A60     		str	r2, [r3]
 671:Generated_Source\PSoC4/FanController_FW_PWM1.c **** 
 679              		.loc 1 671 0
 680 0012 1A68     		ldr	r2, [r3]
 681 0014 1443     		orrs	r4, r2
 682              	.LVL47:
 683 0016 1C60     		str	r4, [r3]
 673:Generated_Source\PSoC4/FanController_FW_PWM1.c **** }
 684              		.loc 1 673 0
 685 0018 FFF7FEFF 		bl	CyExitCriticalSection
 686              	.LVL48:
 674:Generated_Source\PSoC4/FanController_FW_PWM1.c **** 
 687              		.loc 1 674 0
 688 001c 10BD     		pop	{r4, pc}
 689              	.L42:
 690 001e C046     		.align	2
 691              	.L41:
 692 0020 80010540 		.word	1074069888
 693 0024 FFFFFCFF 		.word	-196609
 694              		.cfi_endproc
 695              	.LFE15:
 696              		.size	FanController_FW_PWM1_SetCounterMode, .-FanController_FW_PWM1_SetCounterMode
 697              		.section	.text.FanController_FW_PWM1_WritePeriod,"ax",%progbits
 698              		.align	1
 699              		.global	FanController_FW_PWM1_WritePeriod
 700              		.code	16
 701              		.thumb_func
 702              		.type	FanController_FW_PWM1_WritePeriod, %function
 703              	FanController_FW_PWM1_WritePeriod:
 704              	.LFB16:
 694:Generated_Source\PSoC4/FanController_FW_PWM1.c ****     FanController_FW_PWM1_PERIOD_REG = (period & FanController_FW_PWM1_16BIT_MASK);
 705              		.loc 1 694 0
 706              		.cfi_startproc
 707              		@ args = 0, pretend = 0, frame = 0
 708              		@ frame_needed = 0, uses_anonymous_args = 0
 709              		@ link register save eliminated.
 710              	.LVL49:
 695:Generated_Source\PSoC4/FanController_FW_PWM1.c **** }
 711              		.loc 1 695 0
 712 0000 014B     		ldr	r3, .L44
 713 0002 80B2     		uxth	r0, r0
 714              	.LVL50:
 715 0004 1860     		str	r0, [r3]
 696:Generated_Source\PSoC4/FanController_FW_PWM1.c **** 
 716              		.loc 1 696 0
 717              		@ sp needed
 718 0006 7047     		bx	lr
 719              	.L45:
 720              		.align	2
 721              	.L44:
 722 0008 94010540 		.word	1074069908
 723              		.cfi_endproc
 724              	.LFE16:
 725              		.size	FanController_FW_PWM1_WritePeriod, .-FanController_FW_PWM1_WritePeriod
 726              		.section	.text.FanController_FW_PWM1_ReadPeriod,"ax",%progbits
 727              		.align	1
 728              		.global	FanController_FW_PWM1_ReadPeriod
ARM GAS  C:\Users\VIDEOH~1\AppData\Local\Temp\ccfC0KgD.s 			page 39


 729              		.code	16
 730              		.thumb_func
 731              		.type	FanController_FW_PWM1_ReadPeriod, %function
 732              	FanController_FW_PWM1_ReadPeriod:
 733              	.LFB17:
 714:Generated_Source\PSoC4/FanController_FW_PWM1.c ****     return (FanController_FW_PWM1_PERIOD_REG & FanController_FW_PWM1_16BIT_MASK);
 734              		.loc 1 714 0
 735              		.cfi_startproc
 736              		@ args = 0, pretend = 0, frame = 0
 737              		@ frame_needed = 0, uses_anonymous_args = 0
 738              		@ link register save eliminated.
 715:Generated_Source\PSoC4/FanController_FW_PWM1.c **** }
 739              		.loc 1 715 0
 740 0000 014B     		ldr	r3, .L47
 716:Generated_Source\PSoC4/FanController_FW_PWM1.c **** 
 741              		.loc 1 716 0
 742              		@ sp needed
 715:Generated_Source\PSoC4/FanController_FW_PWM1.c **** }
 743              		.loc 1 715 0
 744 0002 1868     		ldr	r0, [r3]
 745 0004 80B2     		uxth	r0, r0
 716:Generated_Source\PSoC4/FanController_FW_PWM1.c **** 
 746              		.loc 1 716 0
 747 0006 7047     		bx	lr
 748              	.L48:
 749              		.align	2
 750              	.L47:
 751 0008 94010540 		.word	1074069908
 752              		.cfi_endproc
 753              	.LFE17:
 754              		.size	FanController_FW_PWM1_ReadPeriod, .-FanController_FW_PWM1_ReadPeriod
 755              		.section	.text.FanController_FW_PWM1_SetCompareSwap,"ax",%progbits
 756              		.align	1
 757              		.global	FanController_FW_PWM1_SetCompareSwap
 758              		.code	16
 759              		.thumb_func
 760              		.type	FanController_FW_PWM1_SetCompareSwap, %function
 761              	FanController_FW_PWM1_SetCompareSwap:
 762              	.LFB18:
 740:Generated_Source\PSoC4/FanController_FW_PWM1.c ****     uint8 enableInterrupts;
 763              		.loc 1 740 0
 764              		.cfi_startproc
 765              		@ args = 0, pretend = 0, frame = 0
 766              		@ frame_needed = 0, uses_anonymous_args = 0
 767              	.LVL51:
 768 0000 10B5     		push	{r4, lr}
 769              		.cfi_def_cfa_offset 8
 770              		.cfi_offset 4, -8
 771              		.cfi_offset 14, -4
 740:Generated_Source\PSoC4/FanController_FW_PWM1.c ****     uint8 enableInterrupts;
 772              		.loc 1 740 0
 773 0002 0400     		movs	r4, r0
 743:Generated_Source\PSoC4/FanController_FW_PWM1.c **** 
 774              		.loc 1 743 0
 775 0004 FFF7FEFF 		bl	CyEnterCriticalSection
 776              	.LVL52:
 745:Generated_Source\PSoC4/FanController_FW_PWM1.c ****     FanController_FW_PWM1_CONTROL_REG |= (swapEnable & FanController_FW_PWM1_1BIT_MASK);
ARM GAS  C:\Users\VIDEOH~1\AppData\Local\Temp\ccfC0KgD.s 			page 40


 777              		.loc 1 745 0
 778 0008 0122     		movs	r2, #1
 779 000a 054B     		ldr	r3, .L50
 749:Generated_Source\PSoC4/FanController_FW_PWM1.c **** 
 780              		.loc 1 749 0
 781              		@ sp needed
 745:Generated_Source\PSoC4/FanController_FW_PWM1.c ****     FanController_FW_PWM1_CONTROL_REG |= (swapEnable & FanController_FW_PWM1_1BIT_MASK);
 782              		.loc 1 745 0
 783 000c 1968     		ldr	r1, [r3]
 784 000e 9143     		bics	r1, r2
 785 0010 1960     		str	r1, [r3]
 746:Generated_Source\PSoC4/FanController_FW_PWM1.c **** 
 786              		.loc 1 746 0
 787 0012 1968     		ldr	r1, [r3]
 788 0014 2240     		ands	r2, r4
 789 0016 0A43     		orrs	r2, r1
 790 0018 1A60     		str	r2, [r3]
 748:Generated_Source\PSoC4/FanController_FW_PWM1.c **** }
 791              		.loc 1 748 0
 792 001a FFF7FEFF 		bl	CyExitCriticalSection
 793              	.LVL53:
 794              	.LVL54:
 749:Generated_Source\PSoC4/FanController_FW_PWM1.c **** 
 795              		.loc 1 749 0
 796 001e 10BD     		pop	{r4, pc}
 797              	.L51:
 798              		.align	2
 799              	.L50:
 800 0020 80010540 		.word	1074069888
 801              		.cfi_endproc
 802              	.LFE18:
 803              		.size	FanController_FW_PWM1_SetCompareSwap, .-FanController_FW_PWM1_SetCompareSwap
 804              		.section	.text.FanController_FW_PWM1_WritePeriodBuf,"ax",%progbits
 805              		.align	1
 806              		.global	FanController_FW_PWM1_WritePeriodBuf
 807              		.code	16
 808              		.thumb_func
 809              		.type	FanController_FW_PWM1_WritePeriodBuf, %function
 810              	FanController_FW_PWM1_WritePeriodBuf:
 811              	.LFB19:
 767:Generated_Source\PSoC4/FanController_FW_PWM1.c ****     FanController_FW_PWM1_PERIOD_BUF_REG = (periodBuf & FanController_FW_PWM1_16BIT_MASK);
 812              		.loc 1 767 0
 813              		.cfi_startproc
 814              		@ args = 0, pretend = 0, frame = 0
 815              		@ frame_needed = 0, uses_anonymous_args = 0
 816              		@ link register save eliminated.
 817              	.LVL55:
 768:Generated_Source\PSoC4/FanController_FW_PWM1.c **** }
 818              		.loc 1 768 0
 819 0000 014B     		ldr	r3, .L53
 820 0002 80B2     		uxth	r0, r0
 821              	.LVL56:
 822 0004 1860     		str	r0, [r3]
 769:Generated_Source\PSoC4/FanController_FW_PWM1.c **** 
 823              		.loc 1 769 0
 824              		@ sp needed
 825 0006 7047     		bx	lr
ARM GAS  C:\Users\VIDEOH~1\AppData\Local\Temp\ccfC0KgD.s 			page 41


 826              	.L54:
 827              		.align	2
 828              	.L53:
 829 0008 98010540 		.word	1074069912
 830              		.cfi_endproc
 831              	.LFE19:
 832              		.size	FanController_FW_PWM1_WritePeriodBuf, .-FanController_FW_PWM1_WritePeriodBuf
 833              		.section	.text.FanController_FW_PWM1_ReadPeriodBuf,"ax",%progbits
 834              		.align	1
 835              		.global	FanController_FW_PWM1_ReadPeriodBuf
 836              		.code	16
 837              		.thumb_func
 838              		.type	FanController_FW_PWM1_ReadPeriodBuf, %function
 839              	FanController_FW_PWM1_ReadPeriodBuf:
 840              	.LFB20:
 787:Generated_Source\PSoC4/FanController_FW_PWM1.c ****     return (FanController_FW_PWM1_PERIOD_BUF_REG & FanController_FW_PWM1_16BIT_MASK);
 841              		.loc 1 787 0
 842              		.cfi_startproc
 843              		@ args = 0, pretend = 0, frame = 0
 844              		@ frame_needed = 0, uses_anonymous_args = 0
 845              		@ link register save eliminated.
 788:Generated_Source\PSoC4/FanController_FW_PWM1.c **** }
 846              		.loc 1 788 0
 847 0000 014B     		ldr	r3, .L56
 789:Generated_Source\PSoC4/FanController_FW_PWM1.c **** 
 848              		.loc 1 789 0
 849              		@ sp needed
 788:Generated_Source\PSoC4/FanController_FW_PWM1.c **** }
 850              		.loc 1 788 0
 851 0002 1868     		ldr	r0, [r3]
 852 0004 80B2     		uxth	r0, r0
 789:Generated_Source\PSoC4/FanController_FW_PWM1.c **** 
 853              		.loc 1 789 0
 854 0006 7047     		bx	lr
 855              	.L57:
 856              		.align	2
 857              	.L56:
 858 0008 98010540 		.word	1074069912
 859              		.cfi_endproc
 860              	.LFE20:
 861              		.size	FanController_FW_PWM1_ReadPeriodBuf, .-FanController_FW_PWM1_ReadPeriodBuf
 862              		.section	.text.FanController_FW_PWM1_SetPeriodSwap,"ax",%progbits
 863              		.align	1
 864              		.global	FanController_FW_PWM1_SetPeriodSwap
 865              		.code	16
 866              		.thumb_func
 867              		.type	FanController_FW_PWM1_SetPeriodSwap, %function
 868              	FanController_FW_PWM1_SetPeriodSwap:
 869              	.LFB21:
 813:Generated_Source\PSoC4/FanController_FW_PWM1.c ****     uint8 enableInterrupts;
 870              		.loc 1 813 0
 871              		.cfi_startproc
 872              		@ args = 0, pretend = 0, frame = 0
 873              		@ frame_needed = 0, uses_anonymous_args = 0
 874              	.LVL57:
 875 0000 10B5     		push	{r4, lr}
 876              		.cfi_def_cfa_offset 8
ARM GAS  C:\Users\VIDEOH~1\AppData\Local\Temp\ccfC0KgD.s 			page 42


 877              		.cfi_offset 4, -8
 878              		.cfi_offset 14, -4
 813:Generated_Source\PSoC4/FanController_FW_PWM1.c ****     uint8 enableInterrupts;
 879              		.loc 1 813 0
 880 0002 0400     		movs	r4, r0
 816:Generated_Source\PSoC4/FanController_FW_PWM1.c **** 
 881              		.loc 1 816 0
 882 0004 FFF7FEFF 		bl	CyEnterCriticalSection
 883              	.LVL58:
 818:Generated_Source\PSoC4/FanController_FW_PWM1.c ****     FanController_FW_PWM1_CONTROL_REG |= ((uint32)((swapEnable & FanController_FW_PWM1_1BIT_MASK) <
 884              		.loc 1 818 0
 885 0008 0222     		movs	r2, #2
 886 000a 064B     		ldr	r3, .L59
 819:Generated_Source\PSoC4/FanController_FW_PWM1.c ****                                                             FanController_FW_PWM1_RELOAD_PERIOD_SHI
 887              		.loc 1 819 0
 888 000c 6400     		lsls	r4, r4, #1
 889              	.LVL59:
 818:Generated_Source\PSoC4/FanController_FW_PWM1.c ****     FanController_FW_PWM1_CONTROL_REG |= ((uint32)((swapEnable & FanController_FW_PWM1_1BIT_MASK) <
 890              		.loc 1 818 0
 891 000e 1968     		ldr	r1, [r3]
 823:Generated_Source\PSoC4/FanController_FW_PWM1.c **** 
 892              		.loc 1 823 0
 893              		@ sp needed
 818:Generated_Source\PSoC4/FanController_FW_PWM1.c ****     FanController_FW_PWM1_CONTROL_REG |= ((uint32)((swapEnable & FanController_FW_PWM1_1BIT_MASK) <
 894              		.loc 1 818 0
 895 0010 9143     		bics	r1, r2
 896 0012 1960     		str	r1, [r3]
 819:Generated_Source\PSoC4/FanController_FW_PWM1.c ****                                                             FanController_FW_PWM1_RELOAD_PERIOD_SHI
 897              		.loc 1 819 0
 898 0014 1968     		ldr	r1, [r3]
 899 0016 2240     		ands	r2, r4
 900 0018 0A43     		orrs	r2, r1
 901 001a 1A60     		str	r2, [r3]
 822:Generated_Source\PSoC4/FanController_FW_PWM1.c **** }
 902              		.loc 1 822 0
 903 001c FFF7FEFF 		bl	CyExitCriticalSection
 904              	.LVL60:
 823:Generated_Source\PSoC4/FanController_FW_PWM1.c **** 
 905              		.loc 1 823 0
 906 0020 10BD     		pop	{r4, pc}
 907              	.L60:
 908 0022 C046     		.align	2
 909              	.L59:
 910 0024 80010540 		.word	1074069888
 911              		.cfi_endproc
 912              	.LFE21:
 913              		.size	FanController_FW_PWM1_SetPeriodSwap, .-FanController_FW_PWM1_SetPeriodSwap
 914              		.section	.text.FanController_FW_PWM1_WriteCompare,"ax",%progbits
 915              		.align	1
 916              		.global	FanController_FW_PWM1_WriteCompare
 917              		.code	16
 918              		.thumb_func
 919              		.type	FanController_FW_PWM1_WriteCompare, %function
 920              	FanController_FW_PWM1_WriteCompare:
 921              	.LFB22:
 850:Generated_Source\PSoC4/FanController_FW_PWM1.c ****     #if (FanController_FW_PWM1_CY_TCPWM_4000)
 922              		.loc 1 850 0
ARM GAS  C:\Users\VIDEOH~1\AppData\Local\Temp\ccfC0KgD.s 			page 43


 923              		.cfi_startproc
 924              		@ args = 0, pretend = 0, frame = 0
 925              		@ frame_needed = 0, uses_anonymous_args = 0
 926              		@ link register save eliminated.
 927              	.LVL61:
 873:Generated_Source\PSoC4/FanController_FW_PWM1.c **** }
 928              		.loc 1 873 0
 929 0000 014B     		ldr	r3, .L62
 930 0002 80B2     		uxth	r0, r0
 931              	.LVL62:
 932 0004 1860     		str	r0, [r3]
 874:Generated_Source\PSoC4/FanController_FW_PWM1.c **** 
 933              		.loc 1 874 0
 934              		@ sp needed
 935 0006 7047     		bx	lr
 936              	.L63:
 937              		.align	2
 938              	.L62:
 939 0008 8C010540 		.word	1074069900
 940              		.cfi_endproc
 941              	.LFE22:
 942              		.size	FanController_FW_PWM1_WriteCompare, .-FanController_FW_PWM1_WriteCompare
 943              		.section	.text.FanController_FW_PWM1_ReadCompare,"ax",%progbits
 944              		.align	1
 945              		.global	FanController_FW_PWM1_ReadCompare
 946              		.code	16
 947              		.thumb_func
 948              		.type	FanController_FW_PWM1_ReadCompare, %function
 949              	FanController_FW_PWM1_ReadCompare:
 950              	.LFB43:
 951              		.cfi_startproc
 952              		@ args = 0, pretend = 0, frame = 0
 953              		@ frame_needed = 0, uses_anonymous_args = 0
 954              		@ link register save eliminated.
 955 0000 014B     		ldr	r3, .L65
 956              		@ sp needed
 957 0002 1868     		ldr	r0, [r3]
 958 0004 80B2     		uxth	r0, r0
 959 0006 7047     		bx	lr
 960              	.L66:
 961              		.align	2
 962              	.L65:
 963 0008 8C010540 		.word	1074069900
 964              		.cfi_endproc
 965              	.LFE43:
 966              		.size	FanController_FW_PWM1_ReadCompare, .-FanController_FW_PWM1_ReadCompare
 967              		.section	.text.FanController_FW_PWM1_WriteCompareBuf,"ax",%progbits
 968              		.align	1
 969              		.global	FanController_FW_PWM1_WriteCompareBuf
 970              		.code	16
 971              		.thumb_func
 972              		.type	FanController_FW_PWM1_WriteCompareBuf, %function
 973              	FanController_FW_PWM1_WriteCompareBuf:
 974              	.LFB24:
 955:Generated_Source\PSoC4/FanController_FW_PWM1.c ****     #if (FanController_FW_PWM1_CY_TCPWM_4000)
 975              		.loc 1 955 0
 976              		.cfi_startproc
ARM GAS  C:\Users\VIDEOH~1\AppData\Local\Temp\ccfC0KgD.s 			page 44


 977              		@ args = 0, pretend = 0, frame = 0
 978              		@ frame_needed = 0, uses_anonymous_args = 0
 979              		@ link register save eliminated.
 980              	.LVL63:
 976:Generated_Source\PSoC4/FanController_FW_PWM1.c **** }
 981              		.loc 1 976 0
 982 0000 014B     		ldr	r3, .L68
 983 0002 80B2     		uxth	r0, r0
 984              	.LVL64:
 985 0004 1860     		str	r0, [r3]
 977:Generated_Source\PSoC4/FanController_FW_PWM1.c **** 
 986              		.loc 1 977 0
 987              		@ sp needed
 988 0006 7047     		bx	lr
 989              	.L69:
 990              		.align	2
 991              	.L68:
 992 0008 90010540 		.word	1074069904
 993              		.cfi_endproc
 994              	.LFE24:
 995              		.size	FanController_FW_PWM1_WriteCompareBuf, .-FanController_FW_PWM1_WriteCompareBuf
 996              		.section	.text.FanController_FW_PWM1_ReadCompareBuf,"ax",%progbits
 997              		.align	1
 998              		.global	FanController_FW_PWM1_ReadCompareBuf
 999              		.code	16
 1000              		.thumb_func
 1001              		.type	FanController_FW_PWM1_ReadCompareBuf, %function
 1002              	FanController_FW_PWM1_ReadCompareBuf:
 1003              	.LFB41:
 1004              		.cfi_startproc
 1005              		@ args = 0, pretend = 0, frame = 0
 1006              		@ frame_needed = 0, uses_anonymous_args = 0
 1007              		@ link register save eliminated.
 1008 0000 014B     		ldr	r3, .L71
 1009              		@ sp needed
 1010 0002 1868     		ldr	r0, [r3]
 1011 0004 80B2     		uxth	r0, r0
 1012 0006 7047     		bx	lr
 1013              	.L72:
 1014              		.align	2
 1015              	.L71:
 1016 0008 90010540 		.word	1074069904
 1017              		.cfi_endproc
 1018              	.LFE41:
 1019              		.size	FanController_FW_PWM1_ReadCompareBuf, .-FanController_FW_PWM1_ReadCompareBuf
 1020              		.section	.text.FanController_FW_PWM1_ReadCapture,"ax",%progbits
 1021              		.align	1
 1022              		.global	FanController_FW_PWM1_ReadCapture
 1023              		.code	16
 1024              		.thumb_func
 1025              		.type	FanController_FW_PWM1_ReadCapture, %function
 1026              	FanController_FW_PWM1_ReadCapture:
 1027              	.LFB26:
1047:Generated_Source\PSoC4/FanController_FW_PWM1.c ****     return (FanController_FW_PWM1_COMP_CAP_REG & FanController_FW_PWM1_16BIT_MASK);
 1028              		.loc 1 1047 0
 1029              		.cfi_startproc
 1030              		@ args = 0, pretend = 0, frame = 0
ARM GAS  C:\Users\VIDEOH~1\AppData\Local\Temp\ccfC0KgD.s 			page 45


 1031              		@ frame_needed = 0, uses_anonymous_args = 0
 1032              		@ link register save eliminated.
1048:Generated_Source\PSoC4/FanController_FW_PWM1.c **** }
 1033              		.loc 1 1048 0
 1034 0000 014B     		ldr	r3, .L74
1049:Generated_Source\PSoC4/FanController_FW_PWM1.c **** 
 1035              		.loc 1 1049 0
 1036              		@ sp needed
1048:Generated_Source\PSoC4/FanController_FW_PWM1.c **** }
 1037              		.loc 1 1048 0
 1038 0002 1868     		ldr	r0, [r3]
 1039 0004 80B2     		uxth	r0, r0
1049:Generated_Source\PSoC4/FanController_FW_PWM1.c **** 
 1040              		.loc 1 1049 0
 1041 0006 7047     		bx	lr
 1042              	.L75:
 1043              		.align	2
 1044              	.L74:
 1045 0008 8C010540 		.word	1074069900
 1046              		.cfi_endproc
 1047              	.LFE26:
 1048              		.size	FanController_FW_PWM1_ReadCapture, .-FanController_FW_PWM1_ReadCapture
 1049              		.section	.text.FanController_FW_PWM1_ReadCaptureBuf,"ax",%progbits
 1050              		.align	1
 1051              		.global	FanController_FW_PWM1_ReadCaptureBuf
 1052              		.code	16
 1053              		.thumb_func
 1054              		.type	FanController_FW_PWM1_ReadCaptureBuf, %function
 1055              	FanController_FW_PWM1_ReadCaptureBuf:
 1056              	.LFB27:
1068:Generated_Source\PSoC4/FanController_FW_PWM1.c ****     return (FanController_FW_PWM1_COMP_CAP_BUF_REG & FanController_FW_PWM1_16BIT_MASK);
 1057              		.loc 1 1068 0
 1058              		.cfi_startproc
 1059              		@ args = 0, pretend = 0, frame = 0
 1060              		@ frame_needed = 0, uses_anonymous_args = 0
 1061              		@ link register save eliminated.
1069:Generated_Source\PSoC4/FanController_FW_PWM1.c **** }
 1062              		.loc 1 1069 0
 1063 0000 014B     		ldr	r3, .L77
1070:Generated_Source\PSoC4/FanController_FW_PWM1.c **** 
 1064              		.loc 1 1070 0
 1065              		@ sp needed
1069:Generated_Source\PSoC4/FanController_FW_PWM1.c **** }
 1066              		.loc 1 1069 0
 1067 0002 1868     		ldr	r0, [r3]
 1068 0004 80B2     		uxth	r0, r0
1070:Generated_Source\PSoC4/FanController_FW_PWM1.c **** 
 1069              		.loc 1 1070 0
 1070 0006 7047     		bx	lr
 1071              	.L78:
 1072              		.align	2
 1073              	.L77:
 1074 0008 90010540 		.word	1074069904
 1075              		.cfi_endproc
 1076              	.LFE27:
 1077              		.size	FanController_FW_PWM1_ReadCaptureBuf, .-FanController_FW_PWM1_ReadCaptureBuf
 1078              		.section	.text.FanController_FW_PWM1_SetCaptureMode,"ax",%progbits
ARM GAS  C:\Users\VIDEOH~1\AppData\Local\Temp\ccfC0KgD.s 			page 46


 1079              		.align	1
 1080              		.global	FanController_FW_PWM1_SetCaptureMode
 1081              		.code	16
 1082              		.thumb_func
 1083              		.type	FanController_FW_PWM1_SetCaptureMode, %function
 1084              	FanController_FW_PWM1_SetCaptureMode:
 1085              	.LFB28:
1095:Generated_Source\PSoC4/FanController_FW_PWM1.c ****     uint8 enableInterrupts;
 1086              		.loc 1 1095 0
 1087              		.cfi_startproc
 1088              		@ args = 0, pretend = 0, frame = 0
 1089              		@ frame_needed = 0, uses_anonymous_args = 0
 1090              	.LVL65:
 1091 0000 10B5     		push	{r4, lr}
 1092              		.cfi_def_cfa_offset 8
 1093              		.cfi_offset 4, -8
 1094              		.cfi_offset 14, -4
1095:Generated_Source\PSoC4/FanController_FW_PWM1.c ****     uint8 enableInterrupts;
 1095              		.loc 1 1095 0
 1096 0002 0400     		movs	r4, r0
1098:Generated_Source\PSoC4/FanController_FW_PWM1.c **** 
 1097              		.loc 1 1098 0
 1098 0004 FFF7FEFF 		bl	CyEnterCriticalSection
 1099              	.LVL66:
1100:Generated_Source\PSoC4/FanController_FW_PWM1.c ****     FanController_FW_PWM1_TRIG_CONTROL1_REG |= triggerMode;
 1100              		.loc 1 1100 0
 1101 0008 0321     		movs	r1, #3
 1102 000a 054B     		ldr	r3, .L80
1104:Generated_Source\PSoC4/FanController_FW_PWM1.c **** 
 1103              		.loc 1 1104 0
 1104              		@ sp needed
1100:Generated_Source\PSoC4/FanController_FW_PWM1.c ****     FanController_FW_PWM1_TRIG_CONTROL1_REG |= triggerMode;
 1105              		.loc 1 1100 0
 1106 000c 1A68     		ldr	r2, [r3]
 1107 000e 8A43     		bics	r2, r1
 1108 0010 1A60     		str	r2, [r3]
1101:Generated_Source\PSoC4/FanController_FW_PWM1.c **** 
 1109              		.loc 1 1101 0
 1110 0012 1A68     		ldr	r2, [r3]
 1111 0014 1443     		orrs	r4, r2
 1112              	.LVL67:
 1113 0016 1C60     		str	r4, [r3]
1103:Generated_Source\PSoC4/FanController_FW_PWM1.c **** }
 1114              		.loc 1 1103 0
 1115 0018 FFF7FEFF 		bl	CyExitCriticalSection
 1116              	.LVL68:
1104:Generated_Source\PSoC4/FanController_FW_PWM1.c **** 
 1117              		.loc 1 1104 0
 1118 001c 10BD     		pop	{r4, pc}
 1119              	.L81:
 1120 001e C046     		.align	2
 1121              	.L80:
 1122 0020 A4010540 		.word	1074069924
 1123              		.cfi_endproc
 1124              	.LFE28:
 1125              		.size	FanController_FW_PWM1_SetCaptureMode, .-FanController_FW_PWM1_SetCaptureMode
 1126              		.section	.text.FanController_FW_PWM1_SetReloadMode,"ax",%progbits
ARM GAS  C:\Users\VIDEOH~1\AppData\Local\Temp\ccfC0KgD.s 			page 47


 1127              		.align	1
 1128              		.global	FanController_FW_PWM1_SetReloadMode
 1129              		.code	16
 1130              		.thumb_func
 1131              		.type	FanController_FW_PWM1_SetReloadMode, %function
 1132              	FanController_FW_PWM1_SetReloadMode:
 1133              	.LFB29:
1128:Generated_Source\PSoC4/FanController_FW_PWM1.c ****     uint8 enableInterrupts;
 1134              		.loc 1 1128 0
 1135              		.cfi_startproc
 1136              		@ args = 0, pretend = 0, frame = 0
 1137              		@ frame_needed = 0, uses_anonymous_args = 0
 1138              	.LVL69:
 1139 0000 10B5     		push	{r4, lr}
 1140              		.cfi_def_cfa_offset 8
 1141              		.cfi_offset 4, -8
 1142              		.cfi_offset 14, -4
1128:Generated_Source\PSoC4/FanController_FW_PWM1.c ****     uint8 enableInterrupts;
 1143              		.loc 1 1128 0
 1144 0002 0400     		movs	r4, r0
1131:Generated_Source\PSoC4/FanController_FW_PWM1.c **** 
 1145              		.loc 1 1131 0
 1146 0004 FFF7FEFF 		bl	CyEnterCriticalSection
 1147              	.LVL70:
1133:Generated_Source\PSoC4/FanController_FW_PWM1.c ****     FanController_FW_PWM1_TRIG_CONTROL1_REG |= ((uint32)(triggerMode << FanController_FW_PWM1_RELOA
 1148              		.loc 1 1133 0
 1149 0008 3021     		movs	r1, #48
 1150 000a 054B     		ldr	r3, .L83
1137:Generated_Source\PSoC4/FanController_FW_PWM1.c **** 
 1151              		.loc 1 1137 0
 1152              		@ sp needed
1133:Generated_Source\PSoC4/FanController_FW_PWM1.c ****     FanController_FW_PWM1_TRIG_CONTROL1_REG |= ((uint32)(triggerMode << FanController_FW_PWM1_RELOA
 1153              		.loc 1 1133 0
 1154 000c 1A68     		ldr	r2, [r3]
 1155 000e 8A43     		bics	r2, r1
 1156 0010 1A60     		str	r2, [r3]
1134:Generated_Source\PSoC4/FanController_FW_PWM1.c **** 
 1157              		.loc 1 1134 0
 1158 0012 1968     		ldr	r1, [r3]
 1159 0014 2201     		lsls	r2, r4, #4
 1160 0016 0A43     		orrs	r2, r1
 1161 0018 1A60     		str	r2, [r3]
1136:Generated_Source\PSoC4/FanController_FW_PWM1.c **** }
 1162              		.loc 1 1136 0
 1163 001a FFF7FEFF 		bl	CyExitCriticalSection
 1164              	.LVL71:
 1165              	.LVL72:
1137:Generated_Source\PSoC4/FanController_FW_PWM1.c **** 
 1166              		.loc 1 1137 0
 1167 001e 10BD     		pop	{r4, pc}
 1168              	.L84:
 1169              		.align	2
 1170              	.L83:
 1171 0020 A4010540 		.word	1074069924
 1172              		.cfi_endproc
 1173              	.LFE29:
 1174              		.size	FanController_FW_PWM1_SetReloadMode, .-FanController_FW_PWM1_SetReloadMode
ARM GAS  C:\Users\VIDEOH~1\AppData\Local\Temp\ccfC0KgD.s 			page 48


 1175              		.section	.text.FanController_FW_PWM1_SetStartMode,"ax",%progbits
 1176              		.align	1
 1177              		.global	FanController_FW_PWM1_SetStartMode
 1178              		.code	16
 1179              		.thumb_func
 1180              		.type	FanController_FW_PWM1_SetStartMode, %function
 1181              	FanController_FW_PWM1_SetStartMode:
 1182              	.LFB30:
1161:Generated_Source\PSoC4/FanController_FW_PWM1.c ****     uint8 enableInterrupts;
 1183              		.loc 1 1161 0
 1184              		.cfi_startproc
 1185              		@ args = 0, pretend = 0, frame = 0
 1186              		@ frame_needed = 0, uses_anonymous_args = 0
 1187              	.LVL73:
 1188 0000 10B5     		push	{r4, lr}
 1189              		.cfi_def_cfa_offset 8
 1190              		.cfi_offset 4, -8
 1191              		.cfi_offset 14, -4
1161:Generated_Source\PSoC4/FanController_FW_PWM1.c ****     uint8 enableInterrupts;
 1192              		.loc 1 1161 0
 1193 0002 0400     		movs	r4, r0
1164:Generated_Source\PSoC4/FanController_FW_PWM1.c **** 
 1194              		.loc 1 1164 0
 1195 0004 FFF7FEFF 		bl	CyEnterCriticalSection
 1196              	.LVL74:
1166:Generated_Source\PSoC4/FanController_FW_PWM1.c ****     FanController_FW_PWM1_TRIG_CONTROL1_REG |= ((uint32)(triggerMode << FanController_FW_PWM1_START
 1197              		.loc 1 1166 0
 1198 0008 054B     		ldr	r3, .L86
 1199 000a 064A     		ldr	r2, .L86+4
 1200 000c 1968     		ldr	r1, [r3]
1170:Generated_Source\PSoC4/FanController_FW_PWM1.c **** 
 1201              		.loc 1 1170 0
 1202              		@ sp needed
1166:Generated_Source\PSoC4/FanController_FW_PWM1.c ****     FanController_FW_PWM1_TRIG_CONTROL1_REG |= ((uint32)(triggerMode << FanController_FW_PWM1_START
 1203              		.loc 1 1166 0
 1204 000e 0A40     		ands	r2, r1
 1205 0010 1A60     		str	r2, [r3]
1167:Generated_Source\PSoC4/FanController_FW_PWM1.c **** 
 1206              		.loc 1 1167 0
 1207 0012 1968     		ldr	r1, [r3]
 1208 0014 2202     		lsls	r2, r4, #8
 1209 0016 0A43     		orrs	r2, r1
 1210 0018 1A60     		str	r2, [r3]
1169:Generated_Source\PSoC4/FanController_FW_PWM1.c **** }
 1211              		.loc 1 1169 0
 1212 001a FFF7FEFF 		bl	CyExitCriticalSection
 1213              	.LVL75:
 1214              	.LVL76:
1170:Generated_Source\PSoC4/FanController_FW_PWM1.c **** 
 1215              		.loc 1 1170 0
 1216 001e 10BD     		pop	{r4, pc}
 1217              	.L87:
 1218              		.align	2
 1219              	.L86:
 1220 0020 A4010540 		.word	1074069924
 1221 0024 FFFCFFFF 		.word	-769
 1222              		.cfi_endproc
ARM GAS  C:\Users\VIDEOH~1\AppData\Local\Temp\ccfC0KgD.s 			page 49


 1223              	.LFE30:
 1224              		.size	FanController_FW_PWM1_SetStartMode, .-FanController_FW_PWM1_SetStartMode
 1225              		.section	.text.FanController_FW_PWM1_SetStopMode,"ax",%progbits
 1226              		.align	1
 1227              		.global	FanController_FW_PWM1_SetStopMode
 1228              		.code	16
 1229              		.thumb_func
 1230              		.type	FanController_FW_PWM1_SetStopMode, %function
 1231              	FanController_FW_PWM1_SetStopMode:
 1232              	.LFB31:
1193:Generated_Source\PSoC4/FanController_FW_PWM1.c ****     uint8 enableInterrupts;
 1233              		.loc 1 1193 0
 1234              		.cfi_startproc
 1235              		@ args = 0, pretend = 0, frame = 0
 1236              		@ frame_needed = 0, uses_anonymous_args = 0
 1237              	.LVL77:
 1238 0000 10B5     		push	{r4, lr}
 1239              		.cfi_def_cfa_offset 8
 1240              		.cfi_offset 4, -8
 1241              		.cfi_offset 14, -4
1193:Generated_Source\PSoC4/FanController_FW_PWM1.c ****     uint8 enableInterrupts;
 1242              		.loc 1 1193 0
 1243 0002 0400     		movs	r4, r0
1196:Generated_Source\PSoC4/FanController_FW_PWM1.c **** 
 1244              		.loc 1 1196 0
 1245 0004 FFF7FEFF 		bl	CyEnterCriticalSection
 1246              	.LVL78:
1198:Generated_Source\PSoC4/FanController_FW_PWM1.c ****     FanController_FW_PWM1_TRIG_CONTROL1_REG |= ((uint32)(triggerMode << FanController_FW_PWM1_STOP_
 1247              		.loc 1 1198 0
 1248 0008 C021     		movs	r1, #192
 1249 000a 054B     		ldr	r3, .L89
1202:Generated_Source\PSoC4/FanController_FW_PWM1.c **** 
 1250              		.loc 1 1202 0
 1251              		@ sp needed
1198:Generated_Source\PSoC4/FanController_FW_PWM1.c ****     FanController_FW_PWM1_TRIG_CONTROL1_REG |= ((uint32)(triggerMode << FanController_FW_PWM1_STOP_
 1252              		.loc 1 1198 0
 1253 000c 1A68     		ldr	r2, [r3]
 1254 000e 8A43     		bics	r2, r1
 1255 0010 1A60     		str	r2, [r3]
1199:Generated_Source\PSoC4/FanController_FW_PWM1.c **** 
 1256              		.loc 1 1199 0
 1257 0012 1968     		ldr	r1, [r3]
 1258 0014 A201     		lsls	r2, r4, #6
 1259 0016 0A43     		orrs	r2, r1
 1260 0018 1A60     		str	r2, [r3]
1201:Generated_Source\PSoC4/FanController_FW_PWM1.c **** }
 1261              		.loc 1 1201 0
 1262 001a FFF7FEFF 		bl	CyExitCriticalSection
 1263              	.LVL79:
 1264              	.LVL80:
1202:Generated_Source\PSoC4/FanController_FW_PWM1.c **** 
 1265              		.loc 1 1202 0
 1266 001e 10BD     		pop	{r4, pc}
 1267              	.L90:
 1268              		.align	2
 1269              	.L89:
 1270 0020 A4010540 		.word	1074069924
ARM GAS  C:\Users\VIDEOH~1\AppData\Local\Temp\ccfC0KgD.s 			page 50


 1271              		.cfi_endproc
 1272              	.LFE31:
 1273              		.size	FanController_FW_PWM1_SetStopMode, .-FanController_FW_PWM1_SetStopMode
 1274              		.section	.text.FanController_FW_PWM1_SetCountMode,"ax",%progbits
 1275              		.align	1
 1276              		.global	FanController_FW_PWM1_SetCountMode
 1277              		.code	16
 1278              		.thumb_func
 1279              		.type	FanController_FW_PWM1_SetCountMode, %function
 1280              	FanController_FW_PWM1_SetCountMode:
 1281              	.LFB32:
1226:Generated_Source\PSoC4/FanController_FW_PWM1.c ****     uint8 enableInterrupts;
 1282              		.loc 1 1226 0
 1283              		.cfi_startproc
 1284              		@ args = 0, pretend = 0, frame = 0
 1285              		@ frame_needed = 0, uses_anonymous_args = 0
 1286              	.LVL81:
 1287 0000 10B5     		push	{r4, lr}
 1288              		.cfi_def_cfa_offset 8
 1289              		.cfi_offset 4, -8
 1290              		.cfi_offset 14, -4
1226:Generated_Source\PSoC4/FanController_FW_PWM1.c ****     uint8 enableInterrupts;
 1291              		.loc 1 1226 0
 1292 0002 0400     		movs	r4, r0
1229:Generated_Source\PSoC4/FanController_FW_PWM1.c **** 
 1293              		.loc 1 1229 0
 1294 0004 FFF7FEFF 		bl	CyEnterCriticalSection
 1295              	.LVL82:
1231:Generated_Source\PSoC4/FanController_FW_PWM1.c ****     FanController_FW_PWM1_TRIG_CONTROL1_REG |= ((uint32)(triggerMode << FanController_FW_PWM1_COUNT
 1296              		.loc 1 1231 0
 1297 0008 0C21     		movs	r1, #12
 1298 000a 054B     		ldr	r3, .L92
1235:Generated_Source\PSoC4/FanController_FW_PWM1.c **** 
 1299              		.loc 1 1235 0
 1300              		@ sp needed
1231:Generated_Source\PSoC4/FanController_FW_PWM1.c ****     FanController_FW_PWM1_TRIG_CONTROL1_REG |= ((uint32)(triggerMode << FanController_FW_PWM1_COUNT
 1301              		.loc 1 1231 0
 1302 000c 1A68     		ldr	r2, [r3]
 1303 000e 8A43     		bics	r2, r1
 1304 0010 1A60     		str	r2, [r3]
1232:Generated_Source\PSoC4/FanController_FW_PWM1.c **** 
 1305              		.loc 1 1232 0
 1306 0012 1968     		ldr	r1, [r3]
 1307 0014 A200     		lsls	r2, r4, #2
 1308 0016 0A43     		orrs	r2, r1
 1309 0018 1A60     		str	r2, [r3]
1234:Generated_Source\PSoC4/FanController_FW_PWM1.c **** }
 1310              		.loc 1 1234 0
 1311 001a FFF7FEFF 		bl	CyExitCriticalSection
 1312              	.LVL83:
 1313              	.LVL84:
1235:Generated_Source\PSoC4/FanController_FW_PWM1.c **** 
 1314              		.loc 1 1235 0
 1315 001e 10BD     		pop	{r4, pc}
 1316              	.L93:
 1317              		.align	2
 1318              	.L92:
ARM GAS  C:\Users\VIDEOH~1\AppData\Local\Temp\ccfC0KgD.s 			page 51


 1319 0020 A4010540 		.word	1074069924
 1320              		.cfi_endproc
 1321              	.LFE32:
 1322              		.size	FanController_FW_PWM1_SetCountMode, .-FanController_FW_PWM1_SetCountMode
 1323              		.section	.text.FanController_FW_PWM1_TriggerCommand,"ax",%progbits
 1324              		.align	1
 1325              		.global	FanController_FW_PWM1_TriggerCommand
 1326              		.code	16
 1327              		.thumb_func
 1328              		.type	FanController_FW_PWM1_TriggerCommand, %function
 1329              	FanController_FW_PWM1_TriggerCommand:
 1330              	.LFB33:
1266:Generated_Source\PSoC4/FanController_FW_PWM1.c ****     uint8 enableInterrupts;
 1331              		.loc 1 1266 0
 1332              		.cfi_startproc
 1333              		@ args = 0, pretend = 0, frame = 0
 1334              		@ frame_needed = 0, uses_anonymous_args = 0
 1335              	.LVL85:
 1336 0000 70B5     		push	{r4, r5, r6, lr}
 1337              		.cfi_def_cfa_offset 16
 1338              		.cfi_offset 4, -16
 1339              		.cfi_offset 5, -12
 1340              		.cfi_offset 6, -8
 1341              		.cfi_offset 14, -4
1266:Generated_Source\PSoC4/FanController_FW_PWM1.c ****     uint8 enableInterrupts;
 1342              		.loc 1 1266 0
 1343 0002 0D00     		movs	r5, r1
 1344 0004 0400     		movs	r4, r0
1271:Generated_Source\PSoC4/FanController_FW_PWM1.c **** 
 1345              		.loc 1 1271 0
 1346 0006 AC40     		lsls	r4, r4, r5
1269:Generated_Source\PSoC4/FanController_FW_PWM1.c **** 
 1347              		.loc 1 1269 0
 1348 0008 FFF7FEFF 		bl	CyEnterCriticalSection
 1349              	.LVL86:
1271:Generated_Source\PSoC4/FanController_FW_PWM1.c **** 
 1350              		.loc 1 1271 0
 1351 000c 024B     		ldr	r3, .L95
1274:Generated_Source\PSoC4/FanController_FW_PWM1.c **** 
 1352              		.loc 1 1274 0
 1353              		@ sp needed
1271:Generated_Source\PSoC4/FanController_FW_PWM1.c **** 
 1354              		.loc 1 1271 0
 1355 000e 1C60     		str	r4, [r3]
1273:Generated_Source\PSoC4/FanController_FW_PWM1.c **** }
 1356              		.loc 1 1273 0
 1357 0010 FFF7FEFF 		bl	CyExitCriticalSection
 1358              	.LVL87:
 1359              	.LVL88:
1274:Generated_Source\PSoC4/FanController_FW_PWM1.c **** 
 1360              		.loc 1 1274 0
 1361 0014 70BD     		pop	{r4, r5, r6, pc}
 1362              	.L96:
 1363 0016 C046     		.align	2
 1364              	.L95:
 1365 0018 08000540 		.word	1074069512
 1366              		.cfi_endproc
ARM GAS  C:\Users\VIDEOH~1\AppData\Local\Temp\ccfC0KgD.s 			page 52


 1367              	.LFE33:
 1368              		.size	FanController_FW_PWM1_TriggerCommand, .-FanController_FW_PWM1_TriggerCommand
 1369              		.section	.text.FanController_FW_PWM1_Enable,"ax",%progbits
 1370              		.align	1
 1371              		.global	FanController_FW_PWM1_Enable
 1372              		.code	16
 1373              		.thumb_func
 1374              		.type	FanController_FW_PWM1_Enable, %function
 1375              	FanController_FW_PWM1_Enable:
 1376              	.LFB1:
 178:Generated_Source\PSoC4/FanController_FW_PWM1.c ****     uint8 enableInterrupts;
 1377              		.loc 1 178 0
 1378              		.cfi_startproc
 1379              		@ args = 0, pretend = 0, frame = 0
 1380              		@ frame_needed = 0, uses_anonymous_args = 0
 1381 0000 10B5     		push	{r4, lr}
 1382              		.cfi_def_cfa_offset 8
 1383              		.cfi_offset 4, -8
 1384              		.cfi_offset 14, -4
 182:Generated_Source\PSoC4/FanController_FW_PWM1.c ****     CyExitCriticalSection(enableInterrupts);
 1385              		.loc 1 182 0
 1386 0002 0424     		movs	r4, #4
 181:Generated_Source\PSoC4/FanController_FW_PWM1.c ****     FanController_FW_PWM1_BLOCK_CONTROL_REG |= FanController_FW_PWM1_MASK;
 1387              		.loc 1 181 0
 1388 0004 FFF7FEFF 		bl	CyEnterCriticalSection
 1389              	.LVL89:
 182:Generated_Source\PSoC4/FanController_FW_PWM1.c ****     CyExitCriticalSection(enableInterrupts);
 1390              		.loc 1 182 0
 1391 0008 054A     		ldr	r2, .L98
 203:Generated_Source\PSoC4/FanController_FW_PWM1.c **** 
 1392              		.loc 1 203 0
 1393              		@ sp needed
 182:Generated_Source\PSoC4/FanController_FW_PWM1.c ****     CyExitCriticalSection(enableInterrupts);
 1394              		.loc 1 182 0
 1395 000a 1368     		ldr	r3, [r2]
 1396 000c 2343     		orrs	r3, r4
 1397 000e 1360     		str	r3, [r2]
 183:Generated_Source\PSoC4/FanController_FW_PWM1.c **** 
 1398              		.loc 1 183 0
 1399 0010 FFF7FEFF 		bl	CyExitCriticalSection
 1400              	.LVL90:
 188:Generated_Source\PSoC4/FanController_FW_PWM1.c ****         #endif /* (0u == FanController_FW_PWM1_PWM_START_SIGNAL_PRESENT) */
 1401              		.loc 1 188 0
 1402 0014 1821     		movs	r1, #24
 1403 0016 2000     		movs	r0, r4
 1404 0018 FFF7FEFF 		bl	FanController_FW_PWM1_TriggerCommand
 1405              	.LVL91:
 203:Generated_Source\PSoC4/FanController_FW_PWM1.c **** 
 1406              		.loc 1 203 0
 1407 001c 10BD     		pop	{r4, pc}
 1408              	.L99:
 1409 001e C046     		.align	2
 1410              	.L98:
 1411 0020 00000540 		.word	1074069504
 1412              		.cfi_endproc
 1413              	.LFE1:
 1414              		.size	FanController_FW_PWM1_Enable, .-FanController_FW_PWM1_Enable
ARM GAS  C:\Users\VIDEOH~1\AppData\Local\Temp\ccfC0KgD.s 			page 53


 1415              		.section	.text.FanController_FW_PWM1_Start,"ax",%progbits
 1416              		.align	1
 1417              		.global	FanController_FW_PWM1_Start
 1418              		.code	16
 1419              		.thumb_func
 1420              		.type	FanController_FW_PWM1_Start, %function
 1421              	FanController_FW_PWM1_Start:
 1422              	.LFB2:
 231:Generated_Source\PSoC4/FanController_FW_PWM1.c ****     if (0u == FanController_FW_PWM1_initVar)
 1423              		.loc 1 231 0
 1424              		.cfi_startproc
 1425              		@ args = 0, pretend = 0, frame = 0
 1426              		@ frame_needed = 0, uses_anonymous_args = 0
 1427 0000 10B5     		push	{r4, lr}
 1428              		.cfi_def_cfa_offset 8
 1429              		.cfi_offset 4, -8
 1430              		.cfi_offset 14, -4
 232:Generated_Source\PSoC4/FanController_FW_PWM1.c ****     {
 1431              		.loc 1 232 0
 1432 0002 054C     		ldr	r4, .L103
 1433 0004 2378     		ldrb	r3, [r4]
 1434 0006 002B     		cmp	r3, #0
 1435 0008 03D1     		bne	.L101
 234:Generated_Source\PSoC4/FanController_FW_PWM1.c ****         FanController_FW_PWM1_initVar = 1u;
 1436              		.loc 1 234 0
 1437 000a FFF7FEFF 		bl	FanController_FW_PWM1_Init
 1438              	.LVL92:
 235:Generated_Source\PSoC4/FanController_FW_PWM1.c ****     }
 1439              		.loc 1 235 0
 1440 000e 0123     		movs	r3, #1
 1441 0010 2370     		strb	r3, [r4]
 1442              	.L101:
 238:Generated_Source\PSoC4/FanController_FW_PWM1.c **** }
 1443              		.loc 1 238 0
 1444 0012 FFF7FEFF 		bl	FanController_FW_PWM1_Enable
 1445              	.LVL93:
 239:Generated_Source\PSoC4/FanController_FW_PWM1.c **** 
 1446              		.loc 1 239 0
 1447              		@ sp needed
 1448 0016 10BD     		pop	{r4, pc}
 1449              	.L104:
 1450              		.align	2
 1451              	.L103:
 1452 0018 00000000 		.word	.LANCHOR0
 1453              		.cfi_endproc
 1454              	.LFE2:
 1455              		.size	FanController_FW_PWM1_Start, .-FanController_FW_PWM1_Start
 1456              		.section	.text.FanController_FW_PWM1_ReadStatus,"ax",%progbits
 1457              		.align	1
 1458              		.global	FanController_FW_PWM1_ReadStatus
 1459              		.code	16
 1460              		.thumb_func
 1461              		.type	FanController_FW_PWM1_ReadStatus, %function
 1462              	FanController_FW_PWM1_ReadStatus:
 1463              	.LFB34:
1295:Generated_Source\PSoC4/FanController_FW_PWM1.c ****     return ((FanController_FW_PWM1_STATUS_REG >> FanController_FW_PWM1_RUNNING_STATUS_SHIFT) |
 1464              		.loc 1 1295 0
ARM GAS  C:\Users\VIDEOH~1\AppData\Local\Temp\ccfC0KgD.s 			page 54


 1465              		.cfi_startproc
 1466              		@ args = 0, pretend = 0, frame = 0
 1467              		@ frame_needed = 0, uses_anonymous_args = 0
 1468              		@ link register save eliminated.
1296:Generated_Source\PSoC4/FanController_FW_PWM1.c ****             (FanController_FW_PWM1_STATUS_REG & FanController_FW_PWM1_STATUS_DOWN));
 1469              		.loc 1 1296 0
 1470 0000 034B     		ldr	r3, .L106
1298:Generated_Source\PSoC4/FanController_FW_PWM1.c **** 
 1471              		.loc 1 1298 0
 1472              		@ sp needed
1296:Generated_Source\PSoC4/FanController_FW_PWM1.c ****             (FanController_FW_PWM1_STATUS_REG & FanController_FW_PWM1_STATUS_DOWN));
 1473              		.loc 1 1296 0
 1474 0002 1A68     		ldr	r2, [r3]
1297:Generated_Source\PSoC4/FanController_FW_PWM1.c **** }
 1475              		.loc 1 1297 0
 1476 0004 1868     		ldr	r0, [r3]
1296:Generated_Source\PSoC4/FanController_FW_PWM1.c ****             (FanController_FW_PWM1_STATUS_REG & FanController_FW_PWM1_STATUS_DOWN));
 1477              		.loc 1 1296 0
 1478 0006 0123     		movs	r3, #1
 1479 0008 920F     		lsrs	r2, r2, #30
 1480 000a 1840     		ands	r0, r3
 1481 000c 1043     		orrs	r0, r2
1298:Generated_Source\PSoC4/FanController_FW_PWM1.c **** 
 1482              		.loc 1 1298 0
 1483 000e 7047     		bx	lr
 1484              	.L107:
 1485              		.align	2
 1486              	.L106:
 1487 0010 84010540 		.word	1074069892
 1488              		.cfi_endproc
 1489              	.LFE34:
 1490              		.size	FanController_FW_PWM1_ReadStatus, .-FanController_FW_PWM1_ReadStatus
 1491              		.section	.text.FanController_FW_PWM1_SetInterruptMode,"ax",%progbits
 1492              		.align	1
 1493              		.global	FanController_FW_PWM1_SetInterruptMode
 1494              		.code	16
 1495              		.thumb_func
 1496              		.type	FanController_FW_PWM1_SetInterruptMode, %function
 1497              	FanController_FW_PWM1_SetInterruptMode:
 1498              	.LFB35:
1320:Generated_Source\PSoC4/FanController_FW_PWM1.c ****     FanController_FW_PWM1_INTERRUPT_MASK_REG =  interruptMask;
 1499              		.loc 1 1320 0
 1500              		.cfi_startproc
 1501              		@ args = 0, pretend = 0, frame = 0
 1502              		@ frame_needed = 0, uses_anonymous_args = 0
 1503              		@ link register save eliminated.
 1504              	.LVL94:
 1505              		.loc 1 1321 0
 1506 0000 014B     		ldr	r3, .L109
1322:Generated_Source\PSoC4/FanController_FW_PWM1.c **** }
 1507              		.loc 1 1322 0
 1508              		@ sp needed
1321:Generated_Source\PSoC4/FanController_FW_PWM1.c **** }
 1509              		.loc 1 1321 0
 1510 0002 1860     		str	r0, [r3]
 1511              		.loc 1 1322 0
 1512 0004 7047     		bx	lr
ARM GAS  C:\Users\VIDEOH~1\AppData\Local\Temp\ccfC0KgD.s 			page 55


 1513              	.L110:
 1514 0006 C046     		.align	2
 1515              	.L109:
 1516 0008 B8010540 		.word	1074069944
 1517              		.cfi_endproc
 1518              	.LFE35:
 1519              		.size	FanController_FW_PWM1_SetInterruptMode, .-FanController_FW_PWM1_SetInterruptMode
 1520              		.section	.text.FanController_FW_PWM1_GetInterruptSourceMasked,"ax",%progbits
 1521              		.align	1
 1522              		.global	FanController_FW_PWM1_GetInterruptSourceMasked
 1523              		.code	16
 1524              		.thumb_func
 1525              		.type	FanController_FW_PWM1_GetInterruptSourceMasked, %function
 1526              	FanController_FW_PWM1_GetInterruptSourceMasked:
 1527              	.LFB36:
1323:Generated_Source\PSoC4/FanController_FW_PWM1.c **** 
1324:Generated_Source\PSoC4/FanController_FW_PWM1.c **** 
1325:Generated_Source\PSoC4/FanController_FW_PWM1.c **** /*******************************************************************************
1326:Generated_Source\PSoC4/FanController_FW_PWM1.c **** * Function Name: FanController_FW_PWM1_GetInterruptSourceMasked
1327:Generated_Source\PSoC4/FanController_FW_PWM1.c **** ********************************************************************************
1328:Generated_Source\PSoC4/FanController_FW_PWM1.c **** *
1329:Generated_Source\PSoC4/FanController_FW_PWM1.c **** * Summary:
1330:Generated_Source\PSoC4/FanController_FW_PWM1.c **** *  Gets the interrupt requests masked by the interrupt mask.
1331:Generated_Source\PSoC4/FanController_FW_PWM1.c **** *
1332:Generated_Source\PSoC4/FanController_FW_PWM1.c **** * Parameters:
1333:Generated_Source\PSoC4/FanController_FW_PWM1.c **** *   None
1334:Generated_Source\PSoC4/FanController_FW_PWM1.c **** *
1335:Generated_Source\PSoC4/FanController_FW_PWM1.c **** * Return:
1336:Generated_Source\PSoC4/FanController_FW_PWM1.c **** *  Masked interrupt source
1337:Generated_Source\PSoC4/FanController_FW_PWM1.c **** *   Values:
1338:Generated_Source\PSoC4/FanController_FW_PWM1.c **** *     - FanController_FW_PWM1_INTR_MASK_TC       - Terminal count mask
1339:Generated_Source\PSoC4/FanController_FW_PWM1.c **** *     - FanController_FW_PWM1_INTR_MASK_CC_MATCH - Compare count / capture mask
1340:Generated_Source\PSoC4/FanController_FW_PWM1.c **** *
1341:Generated_Source\PSoC4/FanController_FW_PWM1.c **** *******************************************************************************/
1342:Generated_Source\PSoC4/FanController_FW_PWM1.c **** uint32 FanController_FW_PWM1_GetInterruptSourceMasked(void)
1343:Generated_Source\PSoC4/FanController_FW_PWM1.c **** {
 1528              		.loc 1 1343 0
 1529              		.cfi_startproc
 1530              		@ args = 0, pretend = 0, frame = 0
 1531              		@ frame_needed = 0, uses_anonymous_args = 0
 1532              		@ link register save eliminated.
1344:Generated_Source\PSoC4/FanController_FW_PWM1.c ****     return (FanController_FW_PWM1_INTERRUPT_MASKED_REG);
 1533              		.loc 1 1344 0
 1534 0000 014B     		ldr	r3, .L112
1345:Generated_Source\PSoC4/FanController_FW_PWM1.c **** }
 1535              		.loc 1 1345 0
 1536              		@ sp needed
1344:Generated_Source\PSoC4/FanController_FW_PWM1.c ****     return (FanController_FW_PWM1_INTERRUPT_MASKED_REG);
 1537              		.loc 1 1344 0
 1538 0002 1868     		ldr	r0, [r3]
 1539              		.loc 1 1345 0
 1540 0004 7047     		bx	lr
 1541              	.L113:
 1542 0006 C046     		.align	2
 1543              	.L112:
 1544 0008 BC010540 		.word	1074069948
 1545              		.cfi_endproc
ARM GAS  C:\Users\VIDEOH~1\AppData\Local\Temp\ccfC0KgD.s 			page 56


 1546              	.LFE36:
 1547              		.size	FanController_FW_PWM1_GetInterruptSourceMasked, .-FanController_FW_PWM1_GetInterruptSourceMa
 1548              		.section	.text.FanController_FW_PWM1_GetInterruptSource,"ax",%progbits
 1549              		.align	1
 1550              		.global	FanController_FW_PWM1_GetInterruptSource
 1551              		.code	16
 1552              		.thumb_func
 1553              		.type	FanController_FW_PWM1_GetInterruptSource, %function
 1554              	FanController_FW_PWM1_GetInterruptSource:
 1555              	.LFB37:
1346:Generated_Source\PSoC4/FanController_FW_PWM1.c **** 
1347:Generated_Source\PSoC4/FanController_FW_PWM1.c **** 
1348:Generated_Source\PSoC4/FanController_FW_PWM1.c **** /*******************************************************************************
1349:Generated_Source\PSoC4/FanController_FW_PWM1.c **** * Function Name: FanController_FW_PWM1_GetInterruptSource
1350:Generated_Source\PSoC4/FanController_FW_PWM1.c **** ********************************************************************************
1351:Generated_Source\PSoC4/FanController_FW_PWM1.c **** *
1352:Generated_Source\PSoC4/FanController_FW_PWM1.c **** * Summary:
1353:Generated_Source\PSoC4/FanController_FW_PWM1.c **** *  Gets the interrupt requests (without masking).
1354:Generated_Source\PSoC4/FanController_FW_PWM1.c **** *
1355:Generated_Source\PSoC4/FanController_FW_PWM1.c **** * Parameters:
1356:Generated_Source\PSoC4/FanController_FW_PWM1.c **** *  None
1357:Generated_Source\PSoC4/FanController_FW_PWM1.c **** *
1358:Generated_Source\PSoC4/FanController_FW_PWM1.c **** * Return:
1359:Generated_Source\PSoC4/FanController_FW_PWM1.c **** *  Interrupt request value
1360:Generated_Source\PSoC4/FanController_FW_PWM1.c **** *   Values:
1361:Generated_Source\PSoC4/FanController_FW_PWM1.c **** *     - FanController_FW_PWM1_INTR_MASK_TC       - Terminal count mask
1362:Generated_Source\PSoC4/FanController_FW_PWM1.c **** *     - FanController_FW_PWM1_INTR_MASK_CC_MATCH - Compare count / capture mask
1363:Generated_Source\PSoC4/FanController_FW_PWM1.c **** *
1364:Generated_Source\PSoC4/FanController_FW_PWM1.c **** *******************************************************************************/
1365:Generated_Source\PSoC4/FanController_FW_PWM1.c **** uint32 FanController_FW_PWM1_GetInterruptSource(void)
1366:Generated_Source\PSoC4/FanController_FW_PWM1.c **** {
 1556              		.loc 1 1366 0
 1557              		.cfi_startproc
 1558              		@ args = 0, pretend = 0, frame = 0
 1559              		@ frame_needed = 0, uses_anonymous_args = 0
 1560              		@ link register save eliminated.
1367:Generated_Source\PSoC4/FanController_FW_PWM1.c ****     return (FanController_FW_PWM1_INTERRUPT_REQ_REG);
 1561              		.loc 1 1367 0
 1562 0000 014B     		ldr	r3, .L115
1368:Generated_Source\PSoC4/FanController_FW_PWM1.c **** }
 1563              		.loc 1 1368 0
 1564              		@ sp needed
1367:Generated_Source\PSoC4/FanController_FW_PWM1.c ****     return (FanController_FW_PWM1_INTERRUPT_REQ_REG);
 1565              		.loc 1 1367 0
 1566 0002 1868     		ldr	r0, [r3]
 1567              		.loc 1 1368 0
 1568 0004 7047     		bx	lr
 1569              	.L116:
 1570 0006 C046     		.align	2
 1571              	.L115:
 1572 0008 B0010540 		.word	1074069936
 1573              		.cfi_endproc
 1574              	.LFE37:
 1575              		.size	FanController_FW_PWM1_GetInterruptSource, .-FanController_FW_PWM1_GetInterruptSource
 1576              		.section	.text.FanController_FW_PWM1_ClearInterrupt,"ax",%progbits
 1577              		.align	1
 1578              		.global	FanController_FW_PWM1_ClearInterrupt
ARM GAS  C:\Users\VIDEOH~1\AppData\Local\Temp\ccfC0KgD.s 			page 57


 1579              		.code	16
 1580              		.thumb_func
 1581              		.type	FanController_FW_PWM1_ClearInterrupt, %function
 1582              	FanController_FW_PWM1_ClearInterrupt:
 1583              	.LFB38:
1369:Generated_Source\PSoC4/FanController_FW_PWM1.c **** 
1370:Generated_Source\PSoC4/FanController_FW_PWM1.c **** 
1371:Generated_Source\PSoC4/FanController_FW_PWM1.c **** /*******************************************************************************
1372:Generated_Source\PSoC4/FanController_FW_PWM1.c **** * Function Name: FanController_FW_PWM1_ClearInterrupt
1373:Generated_Source\PSoC4/FanController_FW_PWM1.c **** ********************************************************************************
1374:Generated_Source\PSoC4/FanController_FW_PWM1.c **** *
1375:Generated_Source\PSoC4/FanController_FW_PWM1.c **** * Summary:
1376:Generated_Source\PSoC4/FanController_FW_PWM1.c **** *  Clears the interrupt request.
1377:Generated_Source\PSoC4/FanController_FW_PWM1.c **** *
1378:Generated_Source\PSoC4/FanController_FW_PWM1.c **** * Parameters:
1379:Generated_Source\PSoC4/FanController_FW_PWM1.c **** *   interruptMask: Mask of interrupts to clear
1380:Generated_Source\PSoC4/FanController_FW_PWM1.c **** *   Values:
1381:Generated_Source\PSoC4/FanController_FW_PWM1.c **** *     - FanController_FW_PWM1_INTR_MASK_TC       - Terminal count mask
1382:Generated_Source\PSoC4/FanController_FW_PWM1.c **** *     - FanController_FW_PWM1_INTR_MASK_CC_MATCH - Compare count / capture mask
1383:Generated_Source\PSoC4/FanController_FW_PWM1.c **** *
1384:Generated_Source\PSoC4/FanController_FW_PWM1.c **** * Return:
1385:Generated_Source\PSoC4/FanController_FW_PWM1.c **** *  None
1386:Generated_Source\PSoC4/FanController_FW_PWM1.c **** *
1387:Generated_Source\PSoC4/FanController_FW_PWM1.c **** *******************************************************************************/
1388:Generated_Source\PSoC4/FanController_FW_PWM1.c **** void FanController_FW_PWM1_ClearInterrupt(uint32 interruptMask)
1389:Generated_Source\PSoC4/FanController_FW_PWM1.c **** {
 1584              		.loc 1 1389 0
 1585              		.cfi_startproc
 1586              		@ args = 0, pretend = 0, frame = 0
 1587              		@ frame_needed = 0, uses_anonymous_args = 0
 1588              		@ link register save eliminated.
 1589              	.LVL95:
1390:Generated_Source\PSoC4/FanController_FW_PWM1.c ****     FanController_FW_PWM1_INTERRUPT_REQ_REG = interruptMask;
 1590              		.loc 1 1390 0
 1591 0000 014B     		ldr	r3, .L118
1391:Generated_Source\PSoC4/FanController_FW_PWM1.c **** }
 1592              		.loc 1 1391 0
 1593              		@ sp needed
1390:Generated_Source\PSoC4/FanController_FW_PWM1.c ****     FanController_FW_PWM1_INTERRUPT_REQ_REG = interruptMask;
 1594              		.loc 1 1390 0
 1595 0002 1860     		str	r0, [r3]
 1596              		.loc 1 1391 0
 1597 0004 7047     		bx	lr
 1598              	.L119:
 1599 0006 C046     		.align	2
 1600              	.L118:
 1601 0008 B0010540 		.word	1074069936
 1602              		.cfi_endproc
 1603              	.LFE38:
 1604              		.size	FanController_FW_PWM1_ClearInterrupt, .-FanController_FW_PWM1_ClearInterrupt
 1605              		.section	.text.FanController_FW_PWM1_SetInterrupt,"ax",%progbits
 1606              		.align	1
 1607              		.global	FanController_FW_PWM1_SetInterrupt
 1608              		.code	16
 1609              		.thumb_func
 1610              		.type	FanController_FW_PWM1_SetInterrupt, %function
 1611              	FanController_FW_PWM1_SetInterrupt:
ARM GAS  C:\Users\VIDEOH~1\AppData\Local\Temp\ccfC0KgD.s 			page 58


 1612              	.LFB39:
1392:Generated_Source\PSoC4/FanController_FW_PWM1.c **** 
1393:Generated_Source\PSoC4/FanController_FW_PWM1.c **** 
1394:Generated_Source\PSoC4/FanController_FW_PWM1.c **** /*******************************************************************************
1395:Generated_Source\PSoC4/FanController_FW_PWM1.c **** * Function Name: FanController_FW_PWM1_SetInterrupt
1396:Generated_Source\PSoC4/FanController_FW_PWM1.c **** ********************************************************************************
1397:Generated_Source\PSoC4/FanController_FW_PWM1.c **** *
1398:Generated_Source\PSoC4/FanController_FW_PWM1.c **** * Summary:
1399:Generated_Source\PSoC4/FanController_FW_PWM1.c **** *  Sets a software interrupt request.
1400:Generated_Source\PSoC4/FanController_FW_PWM1.c **** *
1401:Generated_Source\PSoC4/FanController_FW_PWM1.c **** * Parameters:
1402:Generated_Source\PSoC4/FanController_FW_PWM1.c **** *   interruptMask: Mask of interrupts to set
1403:Generated_Source\PSoC4/FanController_FW_PWM1.c **** *   Values:
1404:Generated_Source\PSoC4/FanController_FW_PWM1.c **** *     - FanController_FW_PWM1_INTR_MASK_TC       - Terminal count mask
1405:Generated_Source\PSoC4/FanController_FW_PWM1.c **** *     - FanController_FW_PWM1_INTR_MASK_CC_MATCH - Compare count / capture mask
1406:Generated_Source\PSoC4/FanController_FW_PWM1.c **** *
1407:Generated_Source\PSoC4/FanController_FW_PWM1.c **** * Return:
1408:Generated_Source\PSoC4/FanController_FW_PWM1.c **** *  None
1409:Generated_Source\PSoC4/FanController_FW_PWM1.c **** *
1410:Generated_Source\PSoC4/FanController_FW_PWM1.c **** *******************************************************************************/
1411:Generated_Source\PSoC4/FanController_FW_PWM1.c **** void FanController_FW_PWM1_SetInterrupt(uint32 interruptMask)
1412:Generated_Source\PSoC4/FanController_FW_PWM1.c **** {
 1613              		.loc 1 1412 0
 1614              		.cfi_startproc
 1615              		@ args = 0, pretend = 0, frame = 0
 1616              		@ frame_needed = 0, uses_anonymous_args = 0
 1617              		@ link register save eliminated.
 1618              	.LVL96:
1413:Generated_Source\PSoC4/FanController_FW_PWM1.c ****     FanController_FW_PWM1_INTERRUPT_SET_REG = interruptMask;
 1619              		.loc 1 1413 0
 1620 0000 014B     		ldr	r3, .L121
1414:Generated_Source\PSoC4/FanController_FW_PWM1.c **** }
 1621              		.loc 1 1414 0
 1622              		@ sp needed
1413:Generated_Source\PSoC4/FanController_FW_PWM1.c ****     FanController_FW_PWM1_INTERRUPT_SET_REG = interruptMask;
 1623              		.loc 1 1413 0
 1624 0002 1860     		str	r0, [r3]
 1625              		.loc 1 1414 0
 1626 0004 7047     		bx	lr
 1627              	.L122:
 1628 0006 C046     		.align	2
 1629              	.L121:
 1630 0008 B4010540 		.word	1074069940
 1631              		.cfi_endproc
 1632              	.LFE39:
 1633              		.size	FanController_FW_PWM1_SetInterrupt, .-FanController_FW_PWM1_SetInterrupt
 1634              		.global	FanController_FW_PWM1_initVar
 1635              		.bss
 1636              		.set	.LANCHOR0,. + 0
 1637              		.type	FanController_FW_PWM1_initVar, %object
 1638              		.size	FanController_FW_PWM1_initVar, 1
 1639              	FanController_FW_PWM1_initVar:
 1640 0000 00       		.space	1
 1641              		.text
 1642              	.Letext0:
 1643              		.file 2 "Generated_Source\\PSoC4\\cytypes.h"
 1644              		.file 3 "Generated_Source\\PSoC4\\CyLib.h"
ARM GAS  C:\Users\VIDEOH~1\AppData\Local\Temp\ccfC0KgD.s 			page 59


 1645              		.section	.debug_info,"",%progbits
 1646              	.Ldebug_info0:
 1647 0000 45090000 		.4byte	0x945
 1648 0004 0400     		.2byte	0x4
 1649 0006 00000000 		.4byte	.Ldebug_abbrev0
 1650 000a 04       		.byte	0x4
 1651 000b 01       		.uleb128 0x1
 1652 000c 39050000 		.4byte	.LASF76
 1653 0010 0C       		.byte	0xc
 1654 0011 E1040000 		.4byte	.LASF77
 1655 0015 A4060000 		.4byte	.LASF78
 1656 0019 18000000 		.4byte	.Ldebug_ranges0+0x18
 1657 001d 00000000 		.4byte	0
 1658 0021 00000000 		.4byte	.Ldebug_line0
 1659 0025 02       		.uleb128 0x2
 1660 0026 01       		.byte	0x1
 1661 0027 06       		.byte	0x6
 1662 0028 7C010000 		.4byte	.LASF0
 1663 002c 02       		.uleb128 0x2
 1664 002d 01       		.byte	0x1
 1665 002e 08       		.byte	0x8
 1666 002f 93040000 		.4byte	.LASF1
 1667 0033 02       		.uleb128 0x2
 1668 0034 02       		.byte	0x2
 1669 0035 05       		.byte	0x5
 1670 0036 D7040000 		.4byte	.LASF2
 1671 003a 02       		.uleb128 0x2
 1672 003b 02       		.byte	0x2
 1673 003c 07       		.byte	0x7
 1674 003d 44030000 		.4byte	.LASF3
 1675 0041 02       		.uleb128 0x2
 1676 0042 04       		.byte	0x4
 1677 0043 05       		.byte	0x5
 1678 0044 AD010000 		.4byte	.LASF4
 1679 0048 02       		.uleb128 0x2
 1680 0049 04       		.byte	0x4
 1681 004a 07       		.byte	0x7
 1682 004b 12030000 		.4byte	.LASF5
 1683 004f 02       		.uleb128 0x2
 1684 0050 08       		.byte	0x8
 1685 0051 05       		.byte	0x5
 1686 0052 6E010000 		.4byte	.LASF6
 1687 0056 02       		.uleb128 0x2
 1688 0057 08       		.byte	0x8
 1689 0058 07       		.byte	0x7
 1690 0059 00010000 		.4byte	.LASF7
 1691 005d 03       		.uleb128 0x3
 1692 005e 04       		.byte	0x4
 1693 005f 05       		.byte	0x5
 1694 0060 696E7400 		.ascii	"int\000"
 1695 0064 02       		.uleb128 0x2
 1696 0065 04       		.byte	0x4
 1697 0066 07       		.byte	0x7
 1698 0067 D6020000 		.4byte	.LASF8
 1699 006b 04       		.uleb128 0x4
 1700 006c D4010000 		.4byte	.LASF9
 1701 0070 02       		.byte	0x2
ARM GAS  C:\Users\VIDEOH~1\AppData\Local\Temp\ccfC0KgD.s 			page 60


 1702 0071 E401     		.2byte	0x1e4
 1703 0073 2C000000 		.4byte	0x2c
 1704 0077 04       		.uleb128 0x4
 1705 0078 24020000 		.4byte	.LASF10
 1706 007c 02       		.byte	0x2
 1707 007d E601     		.2byte	0x1e6
 1708 007f 48000000 		.4byte	0x48
 1709 0083 02       		.uleb128 0x2
 1710 0084 04       		.byte	0x4
 1711 0085 04       		.byte	0x4
 1712 0086 63040000 		.4byte	.LASF11
 1713 008a 02       		.uleb128 0x2
 1714 008b 08       		.byte	0x8
 1715 008c 04       		.byte	0x4
 1716 008d FC010000 		.4byte	.LASF12
 1717 0091 02       		.uleb128 0x2
 1718 0092 01       		.byte	0x1
 1719 0093 08       		.byte	0x8
 1720 0094 17060000 		.4byte	.LASF13
 1721 0098 04       		.uleb128 0x4
 1722 0099 F1030000 		.4byte	.LASF14
 1723 009d 02       		.byte	0x2
 1724 009e 9002     		.2byte	0x290
 1725 00a0 A4000000 		.4byte	0xa4
 1726 00a4 05       		.uleb128 0x5
 1727 00a5 77000000 		.4byte	0x77
 1728 00a9 02       		.uleb128 0x2
 1729 00aa 04       		.byte	0x4
 1730 00ab 07       		.byte	0x7
 1731 00ac F7030000 		.4byte	.LASF15
 1732 00b0 06       		.uleb128 0x6
 1733 00b1 8D020000 		.4byte	.LASF16
 1734 00b5 01       		.byte	0x1
 1735 00b6 5103     		.2byte	0x351
 1736 00b8 01       		.byte	0x1
 1737 00b9 CA000000 		.4byte	0xca
 1738 00bd 07       		.uleb128 0x7
 1739 00be 34040000 		.4byte	.LASF18
 1740 00c2 01       		.byte	0x1
 1741 00c3 5103     		.2byte	0x351
 1742 00c5 77000000 		.4byte	0x77
 1743 00c9 00       		.byte	0
 1744 00ca 06       		.uleb128 0x6
 1745 00cb 9E000000 		.4byte	.LASF17
 1746 00cf 01       		.byte	0x1
 1747 00d0 B502     		.2byte	0x2b5
 1748 00d2 01       		.byte	0x1
 1749 00d3 E4000000 		.4byte	0xe4
 1750 00d7 07       		.uleb128 0x7
 1751 00d8 C0000000 		.4byte	.LASF19
 1752 00dc 01       		.byte	0x1
 1753 00dd B502     		.2byte	0x2b5
 1754 00df 77000000 		.4byte	0x77
 1755 00e3 00       		.byte	0
 1756 00e4 06       		.uleb128 0x6
 1757 00e5 3C040000 		.4byte	.LASF20
 1758 00e9 01       		.byte	0x1
ARM GAS  C:\Users\VIDEOH~1\AppData\Local\Temp\ccfC0KgD.s 			page 61


 1759 00ea 2705     		.2byte	0x527
 1760 00ec 01       		.byte	0x1
 1761 00ed FE000000 		.4byte	0xfe
 1762 00f1 07       		.uleb128 0x7
 1763 00f2 2B050000 		.4byte	.LASF21
 1764 00f6 01       		.byte	0x1
 1765 00f7 2705     		.2byte	0x527
 1766 00f9 77000000 		.4byte	0x77
 1767 00fd 00       		.byte	0
 1768 00fe 06       		.uleb128 0x6
 1769 00ff CE030000 		.4byte	.LASF22
 1770 0103 01       		.byte	0x1
 1771 0104 6702     		.2byte	0x267
 1772 0106 01       		.byte	0x1
 1773 0107 18010000 		.4byte	0x118
 1774 010b 07       		.uleb128 0x7
 1775 010c 00000000 		.4byte	.LASF23
 1776 0110 01       		.byte	0x1
 1777 0111 6702     		.2byte	0x267
 1778 0113 77000000 		.4byte	0x77
 1779 0117 00       		.byte	0
 1780 0118 08       		.uleb128 0x8
 1781 0119 E5000000 		.4byte	.LASF24
 1782 011d 01       		.byte	0x1
 1783 011e 26       		.byte	0x26
 1784 011f 00000000 		.4byte	.LFB0
 1785 0123 50000000 		.4byte	.LFE0-.LFB0
 1786 0127 01       		.uleb128 0x1
 1787 0128 9C       		.byte	0x9c
 1788 0129 9E010000 		.4byte	0x19e
 1789 012d 09       		.uleb128 0x9
 1790 012e FE000000 		.4byte	0xfe
 1791 0132 0A000000 		.4byte	.LBB10
 1792 0136 00000000 		.4byte	.Ldebug_ranges0+0
 1793 013a 01       		.byte	0x1
 1794 013b 67       		.byte	0x67
 1795 013c 4A010000 		.4byte	0x14a
 1796 0140 0A       		.uleb128 0xa
 1797 0141 0B010000 		.4byte	0x10b
 1798 0145 00000000 		.4byte	.LLST0
 1799 0149 00       		.byte	0
 1800 014a 0B       		.uleb128 0xb
 1801 014b E4000000 		.4byte	0xe4
 1802 014f 1C000000 		.4byte	.LBB14
 1803 0153 04000000 		.4byte	.LBE14-.LBB14
 1804 0157 01       		.byte	0x1
 1805 0158 77       		.byte	0x77
 1806 0159 67010000 		.4byte	0x167
 1807 015d 0A       		.uleb128 0xa
 1808 015e F1000000 		.4byte	0xf1
 1809 0162 14000000 		.4byte	.LLST1
 1810 0166 00       		.byte	0
 1811 0167 0B       		.uleb128 0xb
 1812 0168 CA000000 		.4byte	0xca
 1813 016c 26000000 		.4byte	.LBB16
 1814 0170 06000000 		.4byte	.LBE16-.LBB16
 1815 0174 01       		.byte	0x1
ARM GAS  C:\Users\VIDEOH~1\AppData\Local\Temp\ccfC0KgD.s 			page 62


 1816 0175 92       		.byte	0x92
 1817 0176 84010000 		.4byte	0x184
 1818 017a 0A       		.uleb128 0xa
 1819 017b D7000000 		.4byte	0xd7
 1820 017f 28000000 		.4byte	.LLST2
 1821 0183 00       		.byte	0
 1822 0184 0C       		.uleb128 0xc
 1823 0185 B0000000 		.4byte	0xb0
 1824 0189 2C000000 		.4byte	.LBB18
 1825 018d 06000000 		.4byte	.LBE18-.LBB18
 1826 0191 01       		.byte	0x1
 1827 0192 93       		.byte	0x93
 1828 0193 0A       		.uleb128 0xa
 1829 0194 BD000000 		.4byte	0xbd
 1830 0198 3D000000 		.4byte	.LLST3
 1831 019c 00       		.byte	0
 1832 019d 00       		.byte	0
 1833 019e 0D       		.uleb128 0xd
 1834 019f 10050000 		.4byte	.LASF25
 1835 01a3 01       		.byte	0x1
 1836 01a4 0001     		.2byte	0x100
 1837 01a6 00000000 		.4byte	.LFB3
 1838 01aa 1C000000 		.4byte	.LFE3-.LFB3
 1839 01ae 01       		.uleb128 0x1
 1840 01af 9C       		.byte	0x9c
 1841 01b0 D7010000 		.4byte	0x1d7
 1842 01b4 0E       		.uleb128 0xe
 1843 01b5 DF060000 		.4byte	.LASF27
 1844 01b9 01       		.byte	0x1
 1845 01ba 0201     		.2byte	0x102
 1846 01bc 6B000000 		.4byte	0x6b
 1847 01c0 52000000 		.4byte	.LLST4
 1848 01c4 0F       		.uleb128 0xf
 1849 01c5 06000000 		.4byte	.LVL7
 1850 01c9 32090000 		.4byte	0x932
 1851 01cd 0F       		.uleb128 0xf
 1852 01ce 14000000 		.4byte	.LVL8
 1853 01d2 3D090000 		.4byte	0x93d
 1854 01d6 00       		.byte	0
 1855 01d7 0D       		.uleb128 0xd
 1856 01d8 B6010000 		.4byte	.LASF26
 1857 01dc 01       		.byte	0x1
 1858 01dd 2501     		.2byte	0x125
 1859 01df 00000000 		.4byte	.LFB4
 1860 01e3 28000000 		.4byte	.LFE4-.LFB4
 1861 01e7 01       		.uleb128 0x1
 1862 01e8 9C       		.byte	0x9c
 1863 01e9 20020000 		.4byte	0x220
 1864 01ed 10       		.uleb128 0x10
 1865 01ee 1C060000 		.4byte	.LASF29
 1866 01f2 01       		.byte	0x1
 1867 01f3 2501     		.2byte	0x125
 1868 01f5 77000000 		.4byte	0x77
 1869 01f9 65000000 		.4byte	.LLST5
 1870 01fd 0E       		.uleb128 0xe
 1871 01fe DF060000 		.4byte	.LASF27
 1872 0202 01       		.byte	0x1
ARM GAS  C:\Users\VIDEOH~1\AppData\Local\Temp\ccfC0KgD.s 			page 63


 1873 0203 2701     		.2byte	0x127
 1874 0205 6B000000 		.4byte	0x6b
 1875 0209 91000000 		.4byte	.LLST6
 1876 020d 0F       		.uleb128 0xf
 1877 020e 08000000 		.4byte	.LVL10
 1878 0212 32090000 		.4byte	0x932
 1879 0216 0F       		.uleb128 0xf
 1880 0217 1C000000 		.4byte	.LVL12
 1881 021b 3D090000 		.4byte	0x93d
 1882 021f 00       		.byte	0
 1883 0220 0D       		.uleb128 0xd
 1884 0221 73040000 		.4byte	.LASF28
 1885 0225 01       		.byte	0x1
 1886 0226 4601     		.2byte	0x146
 1887 0228 00000000 		.4byte	.LFB5
 1888 022c 28000000 		.4byte	.LFE5-.LFB5
 1889 0230 01       		.uleb128 0x1
 1890 0231 9C       		.byte	0x9c
 1891 0232 69020000 		.4byte	0x269
 1892 0236 10       		.uleb128 0x10
 1893 0237 38010000 		.4byte	.LASF30
 1894 023b 01       		.byte	0x1
 1895 023c 4601     		.2byte	0x146
 1896 023e 77000000 		.4byte	0x77
 1897 0242 A4000000 		.4byte	.LLST7
 1898 0246 0E       		.uleb128 0xe
 1899 0247 DF060000 		.4byte	.LASF27
 1900 024b 01       		.byte	0x1
 1901 024c 4801     		.2byte	0x148
 1902 024e 6B000000 		.4byte	0x6b
 1903 0252 D0000000 		.4byte	.LLST8
 1904 0256 0F       		.uleb128 0xf
 1905 0257 08000000 		.4byte	.LVL14
 1906 025b 32090000 		.4byte	0x932
 1907 025f 0F       		.uleb128 0xf
 1908 0260 1C000000 		.4byte	.LVL16
 1909 0264 3D090000 		.4byte	0x93d
 1910 0268 00       		.byte	0
 1911 0269 0D       		.uleb128 0xd
 1912 026a AB030000 		.4byte	.LASF31
 1913 026e 01       		.byte	0x1
 1914 026f 6B01     		.2byte	0x16b
 1915 0271 00000000 		.4byte	.LFB6
 1916 0275 28000000 		.4byte	.LFE6-.LFB6
 1917 0279 01       		.uleb128 0x1
 1918 027a 9C       		.byte	0x9c
 1919 027b B2020000 		.4byte	0x2b2
 1920 027f 10       		.uleb128 0x10
 1921 0280 69040000 		.4byte	.LASF32
 1922 0284 01       		.byte	0x1
 1923 0285 6B01     		.2byte	0x16b
 1924 0287 77000000 		.4byte	0x77
 1925 028b E3000000 		.4byte	.LLST9
 1926 028f 0E       		.uleb128 0xe
 1927 0290 DF060000 		.4byte	.LASF27
 1928 0294 01       		.byte	0x1
 1929 0295 6D01     		.2byte	0x16d
ARM GAS  C:\Users\VIDEOH~1\AppData\Local\Temp\ccfC0KgD.s 			page 64


 1930 0297 6B000000 		.4byte	0x6b
 1931 029b 0F010000 		.4byte	.LLST10
 1932 029f 0F       		.uleb128 0xf
 1933 02a0 08000000 		.4byte	.LVL18
 1934 02a4 32090000 		.4byte	0x932
 1935 02a8 0F       		.uleb128 0xf
 1936 02a9 1C000000 		.4byte	.LVL20
 1937 02ad 3D090000 		.4byte	0x93d
 1938 02b1 00       		.byte	0
 1939 02b2 0D       		.uleb128 0xd
 1940 02b3 E1070000 		.4byte	.LASF33
 1941 02b7 01       		.byte	0x1
 1942 02b8 8B01     		.2byte	0x18b
 1943 02ba 00000000 		.4byte	.LFB7
 1944 02be 30000000 		.4byte	.LFE7-.LFB7
 1945 02c2 01       		.uleb128 0x1
 1946 02c3 9C       		.byte	0x9c
 1947 02c4 FB020000 		.4byte	0x2fb
 1948 02c8 10       		.uleb128 0x10
 1949 02c9 9D030000 		.4byte	.LASF34
 1950 02cd 01       		.byte	0x1
 1951 02ce 8B01     		.2byte	0x18b
 1952 02d0 77000000 		.4byte	0x77
 1953 02d4 22010000 		.4byte	.LLST11
 1954 02d8 0E       		.uleb128 0xe
 1955 02d9 DF060000 		.4byte	.LASF27
 1956 02dd 01       		.byte	0x1
 1957 02de 8D01     		.2byte	0x18d
 1958 02e0 6B000000 		.4byte	0x6b
 1959 02e4 4E010000 		.4byte	.LLST12
 1960 02e8 0F       		.uleb128 0xf
 1961 02e9 08000000 		.4byte	.LVL22
 1962 02ed 32090000 		.4byte	0x932
 1963 02f1 0F       		.uleb128 0xf
 1964 02f2 24000000 		.4byte	.LVL24
 1965 02f6 3D090000 		.4byte	0x93d
 1966 02fa 00       		.byte	0
 1967 02fb 0D       		.uleb128 0xd
 1968 02fc 7C030000 		.4byte	.LASF35
 1969 0300 01       		.byte	0x1
 1970 0301 C101     		.2byte	0x1c1
 1971 0303 00000000 		.4byte	.LFB8
 1972 0307 10000000 		.4byte	.LFE8-.LFB8
 1973 030b 01       		.uleb128 0x1
 1974 030c 9C       		.byte	0x9c
 1975 030d 22030000 		.4byte	0x322
 1976 0311 10       		.uleb128 0x10
 1977 0312 24030000 		.4byte	.LASF36
 1978 0316 01       		.byte	0x1
 1979 0317 C101     		.2byte	0x1c1
 1980 0319 77000000 		.4byte	0x77
 1981 031d 61010000 		.4byte	.LLST13
 1982 0321 00       		.byte	0
 1983 0322 0D       		.uleb128 0xd
 1984 0323 14070000 		.4byte	.LASF37
 1985 0327 01       		.byte	0x1
 1986 0328 E501     		.2byte	0x1e5
ARM GAS  C:\Users\VIDEOH~1\AppData\Local\Temp\ccfC0KgD.s 			page 65


 1987 032a 00000000 		.4byte	.LFB9
 1988 032e 28000000 		.4byte	.LFE9-.LFB9
 1989 0332 01       		.uleb128 0x1
 1990 0333 9C       		.byte	0x9c
 1991 0334 6B030000 		.4byte	0x36b
 1992 0338 10       		.uleb128 0x10
 1993 0339 00040000 		.4byte	.LASF38
 1994 033d 01       		.byte	0x1
 1995 033e E501     		.2byte	0x1e5
 1996 0340 77000000 		.4byte	0x77
 1997 0344 82010000 		.4byte	.LLST14
 1998 0348 0E       		.uleb128 0xe
 1999 0349 DF060000 		.4byte	.LASF27
 2000 034d 01       		.byte	0x1
 2001 034e E701     		.2byte	0x1e7
 2002 0350 6B000000 		.4byte	0x6b
 2003 0354 AE010000 		.4byte	.LLST15
 2004 0358 0F       		.uleb128 0xf
 2005 0359 08000000 		.4byte	.LVL28
 2006 035d 32090000 		.4byte	0x932
 2007 0361 0F       		.uleb128 0xf
 2008 0362 20000000 		.4byte	.LVL30
 2009 0366 3D090000 		.4byte	0x93d
 2010 036a 00       		.byte	0
 2011 036b 0D       		.uleb128 0xd
 2012 036c E3020000 		.4byte	.LASF39
 2013 0370 01       		.byte	0x1
 2014 0371 0702     		.2byte	0x207
 2015 0373 00000000 		.4byte	.LFB10
 2016 0377 28000000 		.4byte	.LFE10-.LFB10
 2017 037b 01       		.uleb128 0x1
 2018 037c 9C       		.byte	0x9c
 2019 037d B4030000 		.4byte	0x3b4
 2020 0381 10       		.uleb128 0x10
 2021 0382 C6040000 		.4byte	.LASF40
 2022 0386 01       		.byte	0x1
 2023 0387 0702     		.2byte	0x207
 2024 0389 77000000 		.4byte	0x77
 2025 038d C1010000 		.4byte	.LLST16
 2026 0391 0E       		.uleb128 0xe
 2027 0392 DF060000 		.4byte	.LASF27
 2028 0396 01       		.byte	0x1
 2029 0397 0902     		.2byte	0x209
 2030 0399 6B000000 		.4byte	0x6b
 2031 039d ED010000 		.4byte	.LLST17
 2032 03a1 0F       		.uleb128 0xf
 2033 03a2 08000000 		.4byte	.LVL32
 2034 03a6 32090000 		.4byte	0x932
 2035 03aa 0F       		.uleb128 0xf
 2036 03ab 20000000 		.4byte	.LVL34
 2037 03af 3D090000 		.4byte	0x93d
 2038 03b3 00       		.byte	0
 2039 03b4 0D       		.uleb128 0xd
 2040 03b5 88010000 		.4byte	.LASF41
 2041 03b9 01       		.byte	0x1
 2042 03ba 2802     		.2byte	0x228
 2043 03bc 00000000 		.4byte	.LFB11
ARM GAS  C:\Users\VIDEOH~1\AppData\Local\Temp\ccfC0KgD.s 			page 66


 2044 03c0 2C000000 		.4byte	.LFE11-.LFB11
 2045 03c4 01       		.uleb128 0x1
 2046 03c5 9C       		.byte	0x9c
 2047 03c6 FD030000 		.4byte	0x3fd
 2048 03ca 10       		.uleb128 0x10
 2049 03cb 84020000 		.4byte	.LASF42
 2050 03cf 01       		.byte	0x1
 2051 03d0 2802     		.2byte	0x228
 2052 03d2 77000000 		.4byte	0x77
 2053 03d6 00020000 		.4byte	.LLST18
 2054 03da 0E       		.uleb128 0xe
 2055 03db DF060000 		.4byte	.LASF27
 2056 03df 01       		.byte	0x1
 2057 03e0 2A02     		.2byte	0x22a
 2058 03e2 6B000000 		.4byte	0x6b
 2059 03e6 2C020000 		.4byte	.LLST19
 2060 03ea 0F       		.uleb128 0xf
 2061 03eb 08000000 		.4byte	.LVL36
 2062 03ef 32090000 		.4byte	0x932
 2063 03f3 0F       		.uleb128 0xf
 2064 03f4 20000000 		.4byte	.LVL38
 2065 03f8 3D090000 		.4byte	0x93d
 2066 03fc 00       		.byte	0
 2067 03fd 0D       		.uleb128 0xd
 2068 03fe 2B020000 		.4byte	.LASF43
 2069 0402 01       		.byte	0x1
 2070 0403 4902     		.2byte	0x249
 2071 0405 00000000 		.4byte	.LFB12
 2072 0409 28000000 		.4byte	.LFE12-.LFB12
 2073 040d 01       		.uleb128 0x1
 2074 040e 9C       		.byte	0x9c
 2075 040f 46040000 		.4byte	0x446
 2076 0413 10       		.uleb128 0x10
 2077 0414 5A020000 		.4byte	.LASF44
 2078 0418 01       		.byte	0x1
 2079 0419 4902     		.2byte	0x249
 2080 041b 77000000 		.4byte	0x77
 2081 041f 3F020000 		.4byte	.LLST20
 2082 0423 0E       		.uleb128 0xe
 2083 0424 DF060000 		.4byte	.LASF27
 2084 0428 01       		.byte	0x1
 2085 0429 4B02     		.2byte	0x24b
 2086 042b 6B000000 		.4byte	0x6b
 2087 042f 6B020000 		.4byte	.LLST21
 2088 0433 0F       		.uleb128 0xf
 2089 0434 08000000 		.4byte	.LVL40
 2090 0438 32090000 		.4byte	0x932
 2091 043c 0F       		.uleb128 0xf
 2092 043d 1C000000 		.4byte	.LVL42
 2093 0441 3D090000 		.4byte	0x93d
 2094 0445 00       		.byte	0
 2095 0446 11       		.uleb128 0x11
 2096 0447 FE000000 		.4byte	0xfe
 2097 044b 00000000 		.4byte	.LFB13
 2098 044f 0C000000 		.4byte	.LFE13-.LFB13
 2099 0453 01       		.uleb128 0x1
 2100 0454 9C       		.byte	0x9c
ARM GAS  C:\Users\VIDEOH~1\AppData\Local\Temp\ccfC0KgD.s 			page 67


 2101 0455 63040000 		.4byte	0x463
 2102 0459 0A       		.uleb128 0xa
 2103 045a 0B010000 		.4byte	0x10b
 2104 045e 7E020000 		.4byte	.LLST22
 2105 0462 00       		.byte	0
 2106 0463 12       		.uleb128 0x12
 2107 0464 D2050000 		.4byte	.LASF47
 2108 0468 01       		.byte	0x1
 2109 0469 7B02     		.2byte	0x27b
 2110 046b 77000000 		.4byte	0x77
 2111 046f 00000000 		.4byte	.LFB14
 2112 0473 0C000000 		.4byte	.LFE14-.LFB14
 2113 0477 01       		.uleb128 0x1
 2114 0478 9C       		.byte	0x9c
 2115 0479 0D       		.uleb128 0xd
 2116 047a 0F040000 		.4byte	.LASF45
 2117 047e 01       		.byte	0x1
 2118 047f 9802     		.2byte	0x298
 2119 0481 00000000 		.4byte	.LFB15
 2120 0485 28000000 		.4byte	.LFE15-.LFB15
 2121 0489 01       		.uleb128 0x1
 2122 048a 9C       		.byte	0x9c
 2123 048b C2040000 		.4byte	0x4c2
 2124 048f 10       		.uleb128 0x10
 2125 0490 8D060000 		.4byte	.LASF46
 2126 0494 01       		.byte	0x1
 2127 0495 9802     		.2byte	0x298
 2128 0497 77000000 		.4byte	0x77
 2129 049b 9F020000 		.4byte	.LLST23
 2130 049f 0E       		.uleb128 0xe
 2131 04a0 DF060000 		.4byte	.LASF27
 2132 04a4 01       		.byte	0x1
 2133 04a5 9A02     		.2byte	0x29a
 2134 04a7 6B000000 		.4byte	0x6b
 2135 04ab CB020000 		.4byte	.LLST24
 2136 04af 0F       		.uleb128 0xf
 2137 04b0 08000000 		.4byte	.LVL46
 2138 04b4 32090000 		.4byte	0x932
 2139 04b8 0F       		.uleb128 0xf
 2140 04b9 1C000000 		.4byte	.LVL48
 2141 04bd 3D090000 		.4byte	0x93d
 2142 04c1 00       		.byte	0
 2143 04c2 11       		.uleb128 0x11
 2144 04c3 CA000000 		.4byte	0xca
 2145 04c7 00000000 		.4byte	.LFB16
 2146 04cb 0C000000 		.4byte	.LFE16-.LFB16
 2147 04cf 01       		.uleb128 0x1
 2148 04d0 9C       		.byte	0x9c
 2149 04d1 DF040000 		.4byte	0x4df
 2150 04d5 0A       		.uleb128 0xa
 2151 04d6 D7000000 		.4byte	0xd7
 2152 04da DE020000 		.4byte	.LLST25
 2153 04de 00       		.byte	0
 2154 04df 12       		.uleb128 0x12
 2155 04e0 03020000 		.4byte	.LASF48
 2156 04e4 01       		.byte	0x1
 2157 04e5 C902     		.2byte	0x2c9
ARM GAS  C:\Users\VIDEOH~1\AppData\Local\Temp\ccfC0KgD.s 			page 68


 2158 04e7 77000000 		.4byte	0x77
 2159 04eb 00000000 		.4byte	.LFB17
 2160 04ef 0C000000 		.4byte	.LFE17-.LFB17
 2161 04f3 01       		.uleb128 0x1
 2162 04f4 9C       		.byte	0x9c
 2163 04f5 0D       		.uleb128 0xd
 2164 04f6 44060000 		.4byte	.LASF49
 2165 04fa 01       		.byte	0x1
 2166 04fb E302     		.2byte	0x2e3
 2167 04fd 00000000 		.4byte	.LFB18
 2168 0501 24000000 		.4byte	.LFE18-.LFB18
 2169 0505 01       		.uleb128 0x1
 2170 0506 9C       		.byte	0x9c
 2171 0507 3E050000 		.4byte	0x53e
 2172 050b 10       		.uleb128 0x10
 2173 050c A7070000 		.4byte	.LASF50
 2174 0510 01       		.byte	0x1
 2175 0511 E302     		.2byte	0x2e3
 2176 0513 77000000 		.4byte	0x77
 2177 0517 FF020000 		.4byte	.LLST26
 2178 051b 0E       		.uleb128 0xe
 2179 051c DF060000 		.4byte	.LASF27
 2180 0520 01       		.byte	0x1
 2181 0521 E502     		.2byte	0x2e5
 2182 0523 6B000000 		.4byte	0x6b
 2183 0527 2B030000 		.4byte	.LLST27
 2184 052b 0F       		.uleb128 0xf
 2185 052c 08000000 		.4byte	.LVL52
 2186 0530 32090000 		.4byte	0x932
 2187 0534 0F       		.uleb128 0xf
 2188 0535 1E000000 		.4byte	.LVL53
 2189 0539 3D090000 		.4byte	0x93d
 2190 053d 00       		.byte	0
 2191 053e 0D       		.uleb128 0xd
 2192 053f 5F020000 		.4byte	.LASF51
 2193 0543 01       		.byte	0x1
 2194 0544 FE02     		.2byte	0x2fe
 2195 0546 00000000 		.4byte	.LFB19
 2196 054a 0C000000 		.4byte	.LFE19-.LFB19
 2197 054e 01       		.uleb128 0x1
 2198 054f 9C       		.byte	0x9c
 2199 0550 65050000 		.4byte	0x565
 2200 0554 10       		.uleb128 0x10
 2201 0555 B2070000 		.4byte	.LASF52
 2202 0559 01       		.byte	0x1
 2203 055a FE02     		.2byte	0x2fe
 2204 055c 77000000 		.4byte	0x77
 2205 0560 3E030000 		.4byte	.LLST28
 2206 0564 00       		.byte	0
 2207 0565 12       		.uleb128 0x12
 2208 0566 69060000 		.4byte	.LASF53
 2209 056a 01       		.byte	0x1
 2210 056b 1203     		.2byte	0x312
 2211 056d 77000000 		.4byte	0x77
 2212 0571 00000000 		.4byte	.LFB20
 2213 0575 0C000000 		.4byte	.LFE20-.LFB20
 2214 0579 01       		.uleb128 0x1
ARM GAS  C:\Users\VIDEOH~1\AppData\Local\Temp\ccfC0KgD.s 			page 69


 2215 057a 9C       		.byte	0x9c
 2216 057b 0D       		.uleb128 0xd
 2217 057c F0060000 		.4byte	.LASF54
 2218 0580 01       		.byte	0x1
 2219 0581 2C03     		.2byte	0x32c
 2220 0583 00000000 		.4byte	.LFB21
 2221 0587 28000000 		.4byte	.LFE21-.LFB21
 2222 058b 01       		.uleb128 0x1
 2223 058c 9C       		.byte	0x9c
 2224 058d C4050000 		.4byte	0x5c4
 2225 0591 10       		.uleb128 0x10
 2226 0592 A7070000 		.4byte	.LASF50
 2227 0596 01       		.byte	0x1
 2228 0597 2C03     		.2byte	0x32c
 2229 0599 77000000 		.4byte	0x77
 2230 059d 5F030000 		.4byte	.LLST29
 2231 05a1 0E       		.uleb128 0xe
 2232 05a2 DF060000 		.4byte	.LASF27
 2233 05a6 01       		.byte	0x1
 2234 05a7 2E03     		.2byte	0x32e
 2235 05a9 6B000000 		.4byte	0x6b
 2236 05ad 8B030000 		.4byte	.LLST30
 2237 05b1 0F       		.uleb128 0xf
 2238 05b2 08000000 		.4byte	.LVL58
 2239 05b6 32090000 		.4byte	0x932
 2240 05ba 0F       		.uleb128 0xf
 2241 05bb 20000000 		.4byte	.LVL60
 2242 05bf 3D090000 		.4byte	0x93d
 2243 05c3 00       		.byte	0
 2244 05c4 11       		.uleb128 0x11
 2245 05c5 B0000000 		.4byte	0xb0
 2246 05c9 00000000 		.4byte	.LFB22
 2247 05cd 0C000000 		.4byte	.LFE22-.LFB22
 2248 05d1 01       		.uleb128 0x1
 2249 05d2 9C       		.byte	0x9c
 2250 05d3 E1050000 		.4byte	0x5e1
 2251 05d7 0A       		.uleb128 0xa
 2252 05d8 BD000000 		.4byte	0xbd
 2253 05dc 9E030000 		.4byte	.LLST31
 2254 05e0 00       		.byte	0
 2255 05e1 0D       		.uleb128 0xd
 2256 05e2 B0020000 		.4byte	.LASF55
 2257 05e6 01       		.byte	0x1
 2258 05e7 BA03     		.2byte	0x3ba
 2259 05e9 00000000 		.4byte	.LFB24
 2260 05ed 0C000000 		.4byte	.LFE24-.LFB24
 2261 05f1 01       		.uleb128 0x1
 2262 05f2 9C       		.byte	0x9c
 2263 05f3 08060000 		.4byte	0x608
 2264 05f7 10       		.uleb128 0x10
 2265 05f8 99060000 		.4byte	.LASF56
 2266 05fc 01       		.byte	0x1
 2267 05fd BA03     		.2byte	0x3ba
 2268 05ff 77000000 		.4byte	0x77
 2269 0603 BF030000 		.4byte	.LLST32
 2270 0607 00       		.byte	0
 2271 0608 13       		.uleb128 0x13
ARM GAS  C:\Users\VIDEOH~1\AppData\Local\Temp\ccfC0KgD.s 			page 70


 2272 0609 DA010000 		.4byte	.LASF57
 2273 060d 01       		.byte	0x1
 2274 060e 1604     		.2byte	0x416
 2275 0610 77000000 		.4byte	0x77
 2276 0614 01       		.byte	0x1
 2277 0615 14       		.uleb128 0x14
 2278 0616 08060000 		.4byte	0x608
 2279 061a 00000000 		.4byte	.LFB26
 2280 061e 0C000000 		.4byte	.LFE26-.LFB26
 2281 0622 01       		.uleb128 0x1
 2282 0623 9C       		.byte	0x9c
 2283 0624 13       		.uleb128 0x13
 2284 0625 57030000 		.4byte	.LASF58
 2285 0629 01       		.byte	0x1
 2286 062a 2B04     		.2byte	0x42b
 2287 062c 77000000 		.4byte	0x77
 2288 0630 01       		.byte	0x1
 2289 0631 14       		.uleb128 0x14
 2290 0632 24060000 		.4byte	0x624
 2291 0636 00000000 		.4byte	.LFB27
 2292 063a 0C000000 		.4byte	.LFE27-.LFB27
 2293 063e 01       		.uleb128 0x1
 2294 063f 9C       		.byte	0x9c
 2295 0640 0D       		.uleb128 0xd
 2296 0641 A1040000 		.4byte	.LASF59
 2297 0645 01       		.byte	0x1
 2298 0646 4604     		.2byte	0x446
 2299 0648 00000000 		.4byte	.LFB28
 2300 064c 24000000 		.4byte	.LFE28-.LFB28
 2301 0650 01       		.uleb128 0x1
 2302 0651 9C       		.byte	0x9c
 2303 0652 89060000 		.4byte	0x689
 2304 0656 10       		.uleb128 0x10
 2305 0657 4E020000 		.4byte	.LASF60
 2306 065b 01       		.byte	0x1
 2307 065c 4604     		.2byte	0x446
 2308 065e 77000000 		.4byte	0x77
 2309 0662 E0030000 		.4byte	.LLST33
 2310 0666 0E       		.uleb128 0xe
 2311 0667 DF060000 		.4byte	.LASF27
 2312 066b 01       		.byte	0x1
 2313 066c 4804     		.2byte	0x448
 2314 066e 6B000000 		.4byte	0x6b
 2315 0672 0C040000 		.4byte	.LLST34
 2316 0676 0F       		.uleb128 0xf
 2317 0677 08000000 		.4byte	.LVL66
 2318 067b 32090000 		.4byte	0x932
 2319 067f 0F       		.uleb128 0xf
 2320 0680 1C000000 		.4byte	.LVL68
 2321 0684 3D090000 		.4byte	0x93d
 2322 0688 00       		.byte	0
 2323 0689 0D       		.uleb128 0xd
 2324 068a 5D000000 		.4byte	.LASF61
 2325 068e 01       		.byte	0x1
 2326 068f 6704     		.2byte	0x467
 2327 0691 00000000 		.4byte	.LFB29
 2328 0695 24000000 		.4byte	.LFE29-.LFB29
ARM GAS  C:\Users\VIDEOH~1\AppData\Local\Temp\ccfC0KgD.s 			page 71


 2329 0699 01       		.uleb128 0x1
 2330 069a 9C       		.byte	0x9c
 2331 069b D2060000 		.4byte	0x6d2
 2332 069f 10       		.uleb128 0x10
 2333 06a0 4E020000 		.4byte	.LASF60
 2334 06a4 01       		.byte	0x1
 2335 06a5 6704     		.2byte	0x467
 2336 06a7 77000000 		.4byte	0x77
 2337 06ab 1F040000 		.4byte	.LLST35
 2338 06af 0E       		.uleb128 0xe
 2339 06b0 DF060000 		.4byte	.LASF27
 2340 06b4 01       		.byte	0x1
 2341 06b5 6904     		.2byte	0x469
 2342 06b7 6B000000 		.4byte	0x6b
 2343 06bb 4B040000 		.4byte	.LLST36
 2344 06bf 0F       		.uleb128 0xf
 2345 06c0 08000000 		.4byte	.LVL70
 2346 06c4 32090000 		.4byte	0x932
 2347 06c8 0F       		.uleb128 0xf
 2348 06c9 1E000000 		.4byte	.LVL71
 2349 06cd 3D090000 		.4byte	0x93d
 2350 06d1 00       		.byte	0
 2351 06d2 0D       		.uleb128 0xd
 2352 06d3 F4050000 		.4byte	.LASF62
 2353 06d7 01       		.byte	0x1
 2354 06d8 8804     		.2byte	0x488
 2355 06da 00000000 		.4byte	.LFB30
 2356 06de 28000000 		.4byte	.LFE30-.LFB30
 2357 06e2 01       		.uleb128 0x1
 2358 06e3 9C       		.byte	0x9c
 2359 06e4 1B070000 		.4byte	0x71b
 2360 06e8 10       		.uleb128 0x10
 2361 06e9 4E020000 		.4byte	.LASF60
 2362 06ed 01       		.byte	0x1
 2363 06ee 8804     		.2byte	0x488
 2364 06f0 77000000 		.4byte	0x77
 2365 06f4 5E040000 		.4byte	.LLST37
 2366 06f8 0E       		.uleb128 0xe
 2367 06f9 DF060000 		.4byte	.LASF27
 2368 06fd 01       		.byte	0x1
 2369 06fe 8A04     		.2byte	0x48a
 2370 0700 6B000000 		.4byte	0x6b
 2371 0704 8A040000 		.4byte	.LLST38
 2372 0708 0F       		.uleb128 0xf
 2373 0709 08000000 		.4byte	.LVL74
 2374 070d 32090000 		.4byte	0x932
 2375 0711 0F       		.uleb128 0xf
 2376 0712 1E000000 		.4byte	.LVL75
 2377 0716 3D090000 		.4byte	0x93d
 2378 071a 00       		.byte	0
 2379 071b 0D       		.uleb128 0xd
 2380 071c 5C070000 		.4byte	.LASF63
 2381 0720 01       		.byte	0x1
 2382 0721 A804     		.2byte	0x4a8
 2383 0723 00000000 		.4byte	.LFB31
 2384 0727 24000000 		.4byte	.LFE31-.LFB31
 2385 072b 01       		.uleb128 0x1
ARM GAS  C:\Users\VIDEOH~1\AppData\Local\Temp\ccfC0KgD.s 			page 72


 2386 072c 9C       		.byte	0x9c
 2387 072d 64070000 		.4byte	0x764
 2388 0731 10       		.uleb128 0x10
 2389 0732 4E020000 		.4byte	.LASF60
 2390 0736 01       		.byte	0x1
 2391 0737 A804     		.2byte	0x4a8
 2392 0739 77000000 		.4byte	0x77
 2393 073d 9D040000 		.4byte	.LLST39
 2394 0741 0E       		.uleb128 0xe
 2395 0742 DF060000 		.4byte	.LASF27
 2396 0746 01       		.byte	0x1
 2397 0747 AA04     		.2byte	0x4aa
 2398 0749 6B000000 		.4byte	0x6b
 2399 074d C9040000 		.4byte	.LLST40
 2400 0751 0F       		.uleb128 0xf
 2401 0752 08000000 		.4byte	.LVL78
 2402 0756 32090000 		.4byte	0x932
 2403 075a 0F       		.uleb128 0xf
 2404 075b 1E000000 		.4byte	.LVL79
 2405 075f 3D090000 		.4byte	0x93d
 2406 0763 00       		.byte	0
 2407 0764 0D       		.uleb128 0xd
 2408 0765 39070000 		.4byte	.LASF64
 2409 0769 01       		.byte	0x1
 2410 076a C904     		.2byte	0x4c9
 2411 076c 00000000 		.4byte	.LFB32
 2412 0770 24000000 		.4byte	.LFE32-.LFB32
 2413 0774 01       		.uleb128 0x1
 2414 0775 9C       		.byte	0x9c
 2415 0776 AD070000 		.4byte	0x7ad
 2416 077a 10       		.uleb128 0x10
 2417 077b 4E020000 		.4byte	.LASF60
 2418 077f 01       		.byte	0x1
 2419 0780 C904     		.2byte	0x4c9
 2420 0782 77000000 		.4byte	0x77
 2421 0786 DC040000 		.4byte	.LLST41
 2422 078a 0E       		.uleb128 0xe
 2423 078b DF060000 		.4byte	.LASF27
 2424 078f 01       		.byte	0x1
 2425 0790 CB04     		.2byte	0x4cb
 2426 0792 6B000000 		.4byte	0x6b
 2427 0796 08050000 		.4byte	.LLST42
 2428 079a 0F       		.uleb128 0xf
 2429 079b 08000000 		.4byte	.LVL82
 2430 079f 32090000 		.4byte	0x932
 2431 07a3 0F       		.uleb128 0xf
 2432 07a4 1E000000 		.4byte	.LVL83
 2433 07a8 3D090000 		.4byte	0x93d
 2434 07ac 00       		.byte	0
 2435 07ad 0D       		.uleb128 0xd
 2436 07ae BC070000 		.4byte	.LASF65
 2437 07b2 01       		.byte	0x1
 2438 07b3 F104     		.2byte	0x4f1
 2439 07b5 00000000 		.4byte	.LFB33
 2440 07b9 1C000000 		.4byte	.LFE33-.LFB33
 2441 07bd 01       		.uleb128 0x1
 2442 07be 9C       		.byte	0x9c
ARM GAS  C:\Users\VIDEOH~1\AppData\Local\Temp\ccfC0KgD.s 			page 73


 2443 07bf 06080000 		.4byte	0x806
 2444 07c3 10       		.uleb128 0x10
 2445 07c4 5A020000 		.4byte	.LASF44
 2446 07c8 01       		.byte	0x1
 2447 07c9 F104     		.2byte	0x4f1
 2448 07cb 77000000 		.4byte	0x77
 2449 07cf 1B050000 		.4byte	.LLST43
 2450 07d3 10       		.uleb128 0x10
 2451 07d4 0A030000 		.4byte	.LASF66
 2452 07d8 01       		.byte	0x1
 2453 07d9 F104     		.2byte	0x4f1
 2454 07db 77000000 		.4byte	0x77
 2455 07df 3C050000 		.4byte	.LLST44
 2456 07e3 0E       		.uleb128 0xe
 2457 07e4 DF060000 		.4byte	.LASF27
 2458 07e8 01       		.byte	0x1
 2459 07e9 F304     		.2byte	0x4f3
 2460 07eb 6B000000 		.4byte	0x6b
 2461 07ef 68050000 		.4byte	.LLST45
 2462 07f3 0F       		.uleb128 0xf
 2463 07f4 0C000000 		.4byte	.LVL86
 2464 07f8 32090000 		.4byte	0x932
 2465 07fc 0F       		.uleb128 0xf
 2466 07fd 14000000 		.4byte	.LVL87
 2467 0801 3D090000 		.4byte	0x93d
 2468 0805 00       		.byte	0
 2469 0806 08       		.uleb128 0x8
 2470 0807 81000000 		.4byte	.LASF67
 2471 080b 01       		.byte	0x1
 2472 080c B1       		.byte	0xb1
 2473 080d 00000000 		.4byte	.LFB1
 2474 0811 24000000 		.4byte	.LFE1-.LFB1
 2475 0815 01       		.uleb128 0x1
 2476 0816 9C       		.byte	0x9c
 2477 0817 52080000 		.4byte	0x852
 2478 081b 15       		.uleb128 0x15
 2479 081c DF060000 		.4byte	.LASF27
 2480 0820 01       		.byte	0x1
 2481 0821 B3       		.byte	0xb3
 2482 0822 6B000000 		.4byte	0x6b
 2483 0826 7B050000 		.4byte	.LLST46
 2484 082a 0F       		.uleb128 0xf
 2485 082b 08000000 		.4byte	.LVL89
 2486 082f 32090000 		.4byte	0x932
 2487 0833 0F       		.uleb128 0xf
 2488 0834 14000000 		.4byte	.LVL90
 2489 0838 3D090000 		.4byte	0x93d
 2490 083c 16       		.uleb128 0x16
 2491 083d 1C000000 		.4byte	.LVL91
 2492 0841 AD070000 		.4byte	0x7ad
 2493 0845 17       		.uleb128 0x17
 2494 0846 01       		.uleb128 0x1
 2495 0847 50       		.byte	0x50
 2496 0848 02       		.uleb128 0x2
 2497 0849 74       		.byte	0x74
 2498 084a 00       		.sleb128 0
 2499 084b 17       		.uleb128 0x17
ARM GAS  C:\Users\VIDEOH~1\AppData\Local\Temp\ccfC0KgD.s 			page 74


 2500 084c 01       		.uleb128 0x1
 2501 084d 51       		.byte	0x51
 2502 084e 01       		.uleb128 0x1
 2503 084f 48       		.byte	0x48
 2504 0850 00       		.byte	0
 2505 0851 00       		.byte	0
 2506 0852 08       		.uleb128 0x8
 2507 0853 41000000 		.4byte	.LASF68
 2508 0857 01       		.byte	0x1
 2509 0858 E6       		.byte	0xe6
 2510 0859 00000000 		.4byte	.LFB2
 2511 085d 1C000000 		.4byte	.LFE2-.LFB2
 2512 0861 01       		.uleb128 0x1
 2513 0862 9C       		.byte	0x9c
 2514 0863 7A080000 		.4byte	0x87a
 2515 0867 0F       		.uleb128 0xf
 2516 0868 0E000000 		.4byte	.LVL92
 2517 086c 18010000 		.4byte	0x118
 2518 0870 0F       		.uleb128 0xf
 2519 0871 16000000 		.4byte	.LVL93
 2520 0875 06080000 		.4byte	0x806
 2521 0879 00       		.byte	0
 2522 087a 12       		.uleb128 0x12
 2523 087b 17010000 		.4byte	.LASF69
 2524 087f 01       		.byte	0x1
 2525 0880 0E05     		.2byte	0x50e
 2526 0882 77000000 		.4byte	0x77
 2527 0886 00000000 		.4byte	.LFB34
 2528 088a 14000000 		.4byte	.LFE34-.LFB34
 2529 088e 01       		.uleb128 0x1
 2530 088f 9C       		.byte	0x9c
 2531 0890 11       		.uleb128 0x11
 2532 0891 E4000000 		.4byte	0xe4
 2533 0895 00000000 		.4byte	.LFB35
 2534 0899 0C000000 		.4byte	.LFE35-.LFB35
 2535 089d 01       		.uleb128 0x1
 2536 089e 9C       		.byte	0x9c
 2537 089f AB080000 		.4byte	0x8ab
 2538 08a3 18       		.uleb128 0x18
 2539 08a4 F1000000 		.4byte	0xf1
 2540 08a8 01       		.uleb128 0x1
 2541 08a9 50       		.byte	0x50
 2542 08aa 00       		.byte	0
 2543 08ab 12       		.uleb128 0x12
 2544 08ac 3F010000 		.4byte	.LASF70
 2545 08b0 01       		.byte	0x1
 2546 08b1 3E05     		.2byte	0x53e
 2547 08b3 77000000 		.4byte	0x77
 2548 08b7 00000000 		.4byte	.LFB36
 2549 08bb 0C000000 		.4byte	.LFE36-.LFB36
 2550 08bf 01       		.uleb128 0x1
 2551 08c0 9C       		.byte	0x9c
 2552 08c1 12       		.uleb128 0x12
 2553 08c2 7E070000 		.4byte	.LASF71
 2554 08c6 01       		.byte	0x1
 2555 08c7 5505     		.2byte	0x555
 2556 08c9 77000000 		.4byte	0x77
ARM GAS  C:\Users\VIDEOH~1\AppData\Local\Temp\ccfC0KgD.s 			page 75


 2557 08cd 00000000 		.4byte	.LFB37
 2558 08d1 0C000000 		.4byte	.LFE37-.LFB37
 2559 08d5 01       		.uleb128 0x1
 2560 08d6 9C       		.byte	0x9c
 2561 08d7 0D       		.uleb128 0xd
 2562 08d8 06000000 		.4byte	.LASF72
 2563 08dc 01       		.byte	0x1
 2564 08dd 6C05     		.2byte	0x56c
 2565 08df 00000000 		.4byte	.LFB38
 2566 08e3 0C000000 		.4byte	.LFE38-.LFB38
 2567 08e7 01       		.uleb128 0x1
 2568 08e8 9C       		.byte	0x9c
 2569 08e9 FC080000 		.4byte	0x8fc
 2570 08ed 19       		.uleb128 0x19
 2571 08ee 2B050000 		.4byte	.LASF21
 2572 08f2 01       		.byte	0x1
 2573 08f3 6C05     		.2byte	0x56c
 2574 08f5 77000000 		.4byte	0x77
 2575 08f9 01       		.uleb128 0x1
 2576 08fa 50       		.byte	0x50
 2577 08fb 00       		.byte	0
 2578 08fc 0D       		.uleb128 0xd
 2579 08fd 21060000 		.4byte	.LASF73
 2580 0901 01       		.byte	0x1
 2581 0902 8305     		.2byte	0x583
 2582 0904 00000000 		.4byte	.LFB39
 2583 0908 0C000000 		.4byte	.LFE39-.LFB39
 2584 090c 01       		.uleb128 0x1
 2585 090d 9C       		.byte	0x9c
 2586 090e 21090000 		.4byte	0x921
 2587 0912 19       		.uleb128 0x19
 2588 0913 2B050000 		.4byte	.LASF21
 2589 0917 01       		.byte	0x1
 2590 0918 8305     		.2byte	0x583
 2591 091a 77000000 		.4byte	0x77
 2592 091e 01       		.uleb128 0x1
 2593 091f 50       		.byte	0x50
 2594 0920 00       		.byte	0
 2595 0921 1A       		.uleb128 0x1a
 2596 0922 C7000000 		.4byte	.LASF79
 2597 0926 01       		.byte	0x1
 2598 0927 15       		.byte	0x15
 2599 0928 6B000000 		.4byte	0x6b
 2600 092c 05       		.uleb128 0x5
 2601 092d 03       		.byte	0x3
 2602 092e 00000000 		.4byte	FanController_FW_PWM1_initVar
 2603 0932 1B       		.uleb128 0x1b
 2604 0933 2D030000 		.4byte	.LASF74
 2605 0937 2D030000 		.4byte	.LASF74
 2606 093b 03       		.byte	0x3
 2607 093c E5       		.byte	0xe5
 2608 093d 1B       		.uleb128 0x1b
 2609 093e 2B000000 		.4byte	.LASF75
 2610 0942 2B000000 		.4byte	.LASF75
 2611 0946 03       		.byte	0x3
 2612 0947 E6       		.byte	0xe6
 2613 0948 00       		.byte	0
ARM GAS  C:\Users\VIDEOH~1\AppData\Local\Temp\ccfC0KgD.s 			page 76


 2614              		.section	.debug_abbrev,"",%progbits
 2615              	.Ldebug_abbrev0:
 2616 0000 01       		.uleb128 0x1
 2617 0001 11       		.uleb128 0x11
 2618 0002 01       		.byte	0x1
 2619 0003 25       		.uleb128 0x25
 2620 0004 0E       		.uleb128 0xe
 2621 0005 13       		.uleb128 0x13
 2622 0006 0B       		.uleb128 0xb
 2623 0007 03       		.uleb128 0x3
 2624 0008 0E       		.uleb128 0xe
 2625 0009 1B       		.uleb128 0x1b
 2626 000a 0E       		.uleb128 0xe
 2627 000b 55       		.uleb128 0x55
 2628 000c 17       		.uleb128 0x17
 2629 000d 11       		.uleb128 0x11
 2630 000e 01       		.uleb128 0x1
 2631 000f 10       		.uleb128 0x10
 2632 0010 17       		.uleb128 0x17
 2633 0011 00       		.byte	0
 2634 0012 00       		.byte	0
 2635 0013 02       		.uleb128 0x2
 2636 0014 24       		.uleb128 0x24
 2637 0015 00       		.byte	0
 2638 0016 0B       		.uleb128 0xb
 2639 0017 0B       		.uleb128 0xb
 2640 0018 3E       		.uleb128 0x3e
 2641 0019 0B       		.uleb128 0xb
 2642 001a 03       		.uleb128 0x3
 2643 001b 0E       		.uleb128 0xe
 2644 001c 00       		.byte	0
 2645 001d 00       		.byte	0
 2646 001e 03       		.uleb128 0x3
 2647 001f 24       		.uleb128 0x24
 2648 0020 00       		.byte	0
 2649 0021 0B       		.uleb128 0xb
 2650 0022 0B       		.uleb128 0xb
 2651 0023 3E       		.uleb128 0x3e
 2652 0024 0B       		.uleb128 0xb
 2653 0025 03       		.uleb128 0x3
 2654 0026 08       		.uleb128 0x8
 2655 0027 00       		.byte	0
 2656 0028 00       		.byte	0
 2657 0029 04       		.uleb128 0x4
 2658 002a 16       		.uleb128 0x16
 2659 002b 00       		.byte	0
 2660 002c 03       		.uleb128 0x3
 2661 002d 0E       		.uleb128 0xe
 2662 002e 3A       		.uleb128 0x3a
 2663 002f 0B       		.uleb128 0xb
 2664 0030 3B       		.uleb128 0x3b
 2665 0031 05       		.uleb128 0x5
 2666 0032 49       		.uleb128 0x49
 2667 0033 13       		.uleb128 0x13
 2668 0034 00       		.byte	0
 2669 0035 00       		.byte	0
 2670 0036 05       		.uleb128 0x5
ARM GAS  C:\Users\VIDEOH~1\AppData\Local\Temp\ccfC0KgD.s 			page 77


 2671 0037 35       		.uleb128 0x35
 2672 0038 00       		.byte	0
 2673 0039 49       		.uleb128 0x49
 2674 003a 13       		.uleb128 0x13
 2675 003b 00       		.byte	0
 2676 003c 00       		.byte	0
 2677 003d 06       		.uleb128 0x6
 2678 003e 2E       		.uleb128 0x2e
 2679 003f 01       		.byte	0x1
 2680 0040 3F       		.uleb128 0x3f
 2681 0041 19       		.uleb128 0x19
 2682 0042 03       		.uleb128 0x3
 2683 0043 0E       		.uleb128 0xe
 2684 0044 3A       		.uleb128 0x3a
 2685 0045 0B       		.uleb128 0xb
 2686 0046 3B       		.uleb128 0x3b
 2687 0047 05       		.uleb128 0x5
 2688 0048 27       		.uleb128 0x27
 2689 0049 19       		.uleb128 0x19
 2690 004a 20       		.uleb128 0x20
 2691 004b 0B       		.uleb128 0xb
 2692 004c 01       		.uleb128 0x1
 2693 004d 13       		.uleb128 0x13
 2694 004e 00       		.byte	0
 2695 004f 00       		.byte	0
 2696 0050 07       		.uleb128 0x7
 2697 0051 05       		.uleb128 0x5
 2698 0052 00       		.byte	0
 2699 0053 03       		.uleb128 0x3
 2700 0054 0E       		.uleb128 0xe
 2701 0055 3A       		.uleb128 0x3a
 2702 0056 0B       		.uleb128 0xb
 2703 0057 3B       		.uleb128 0x3b
 2704 0058 05       		.uleb128 0x5
 2705 0059 49       		.uleb128 0x49
 2706 005a 13       		.uleb128 0x13
 2707 005b 00       		.byte	0
 2708 005c 00       		.byte	0
 2709 005d 08       		.uleb128 0x8
 2710 005e 2E       		.uleb128 0x2e
 2711 005f 01       		.byte	0x1
 2712 0060 3F       		.uleb128 0x3f
 2713 0061 19       		.uleb128 0x19
 2714 0062 03       		.uleb128 0x3
 2715 0063 0E       		.uleb128 0xe
 2716 0064 3A       		.uleb128 0x3a
 2717 0065 0B       		.uleb128 0xb
 2718 0066 3B       		.uleb128 0x3b
 2719 0067 0B       		.uleb128 0xb
 2720 0068 27       		.uleb128 0x27
 2721 0069 19       		.uleb128 0x19
 2722 006a 11       		.uleb128 0x11
 2723 006b 01       		.uleb128 0x1
 2724 006c 12       		.uleb128 0x12
 2725 006d 06       		.uleb128 0x6
 2726 006e 40       		.uleb128 0x40
 2727 006f 18       		.uleb128 0x18
ARM GAS  C:\Users\VIDEOH~1\AppData\Local\Temp\ccfC0KgD.s 			page 78


 2728 0070 9742     		.uleb128 0x2117
 2729 0072 19       		.uleb128 0x19
 2730 0073 01       		.uleb128 0x1
 2731 0074 13       		.uleb128 0x13
 2732 0075 00       		.byte	0
 2733 0076 00       		.byte	0
 2734 0077 09       		.uleb128 0x9
 2735 0078 1D       		.uleb128 0x1d
 2736 0079 01       		.byte	0x1
 2737 007a 31       		.uleb128 0x31
 2738 007b 13       		.uleb128 0x13
 2739 007c 52       		.uleb128 0x52
 2740 007d 01       		.uleb128 0x1
 2741 007e 55       		.uleb128 0x55
 2742 007f 17       		.uleb128 0x17
 2743 0080 58       		.uleb128 0x58
 2744 0081 0B       		.uleb128 0xb
 2745 0082 59       		.uleb128 0x59
 2746 0083 0B       		.uleb128 0xb
 2747 0084 01       		.uleb128 0x1
 2748 0085 13       		.uleb128 0x13
 2749 0086 00       		.byte	0
 2750 0087 00       		.byte	0
 2751 0088 0A       		.uleb128 0xa
 2752 0089 05       		.uleb128 0x5
 2753 008a 00       		.byte	0
 2754 008b 31       		.uleb128 0x31
 2755 008c 13       		.uleb128 0x13
 2756 008d 02       		.uleb128 0x2
 2757 008e 17       		.uleb128 0x17
 2758 008f 00       		.byte	0
 2759 0090 00       		.byte	0
 2760 0091 0B       		.uleb128 0xb
 2761 0092 1D       		.uleb128 0x1d
 2762 0093 01       		.byte	0x1
 2763 0094 31       		.uleb128 0x31
 2764 0095 13       		.uleb128 0x13
 2765 0096 11       		.uleb128 0x11
 2766 0097 01       		.uleb128 0x1
 2767 0098 12       		.uleb128 0x12
 2768 0099 06       		.uleb128 0x6
 2769 009a 58       		.uleb128 0x58
 2770 009b 0B       		.uleb128 0xb
 2771 009c 59       		.uleb128 0x59
 2772 009d 0B       		.uleb128 0xb
 2773 009e 01       		.uleb128 0x1
 2774 009f 13       		.uleb128 0x13
 2775 00a0 00       		.byte	0
 2776 00a1 00       		.byte	0
 2777 00a2 0C       		.uleb128 0xc
 2778 00a3 1D       		.uleb128 0x1d
 2779 00a4 01       		.byte	0x1
 2780 00a5 31       		.uleb128 0x31
 2781 00a6 13       		.uleb128 0x13
 2782 00a7 11       		.uleb128 0x11
 2783 00a8 01       		.uleb128 0x1
 2784 00a9 12       		.uleb128 0x12
ARM GAS  C:\Users\VIDEOH~1\AppData\Local\Temp\ccfC0KgD.s 			page 79


 2785 00aa 06       		.uleb128 0x6
 2786 00ab 58       		.uleb128 0x58
 2787 00ac 0B       		.uleb128 0xb
 2788 00ad 59       		.uleb128 0x59
 2789 00ae 0B       		.uleb128 0xb
 2790 00af 00       		.byte	0
 2791 00b0 00       		.byte	0
 2792 00b1 0D       		.uleb128 0xd
 2793 00b2 2E       		.uleb128 0x2e
 2794 00b3 01       		.byte	0x1
 2795 00b4 3F       		.uleb128 0x3f
 2796 00b5 19       		.uleb128 0x19
 2797 00b6 03       		.uleb128 0x3
 2798 00b7 0E       		.uleb128 0xe
 2799 00b8 3A       		.uleb128 0x3a
 2800 00b9 0B       		.uleb128 0xb
 2801 00ba 3B       		.uleb128 0x3b
 2802 00bb 05       		.uleb128 0x5
 2803 00bc 27       		.uleb128 0x27
 2804 00bd 19       		.uleb128 0x19
 2805 00be 11       		.uleb128 0x11
 2806 00bf 01       		.uleb128 0x1
 2807 00c0 12       		.uleb128 0x12
 2808 00c1 06       		.uleb128 0x6
 2809 00c2 40       		.uleb128 0x40
 2810 00c3 18       		.uleb128 0x18
 2811 00c4 9742     		.uleb128 0x2117
 2812 00c6 19       		.uleb128 0x19
 2813 00c7 01       		.uleb128 0x1
 2814 00c8 13       		.uleb128 0x13
 2815 00c9 00       		.byte	0
 2816 00ca 00       		.byte	0
 2817 00cb 0E       		.uleb128 0xe
 2818 00cc 34       		.uleb128 0x34
 2819 00cd 00       		.byte	0
 2820 00ce 03       		.uleb128 0x3
 2821 00cf 0E       		.uleb128 0xe
 2822 00d0 3A       		.uleb128 0x3a
 2823 00d1 0B       		.uleb128 0xb
 2824 00d2 3B       		.uleb128 0x3b
 2825 00d3 05       		.uleb128 0x5
 2826 00d4 49       		.uleb128 0x49
 2827 00d5 13       		.uleb128 0x13
 2828 00d6 02       		.uleb128 0x2
 2829 00d7 17       		.uleb128 0x17
 2830 00d8 00       		.byte	0
 2831 00d9 00       		.byte	0
 2832 00da 0F       		.uleb128 0xf
 2833 00db 898201   		.uleb128 0x4109
 2834 00de 00       		.byte	0
 2835 00df 11       		.uleb128 0x11
 2836 00e0 01       		.uleb128 0x1
 2837 00e1 31       		.uleb128 0x31
 2838 00e2 13       		.uleb128 0x13
 2839 00e3 00       		.byte	0
 2840 00e4 00       		.byte	0
 2841 00e5 10       		.uleb128 0x10
ARM GAS  C:\Users\VIDEOH~1\AppData\Local\Temp\ccfC0KgD.s 			page 80


 2842 00e6 05       		.uleb128 0x5
 2843 00e7 00       		.byte	0
 2844 00e8 03       		.uleb128 0x3
 2845 00e9 0E       		.uleb128 0xe
 2846 00ea 3A       		.uleb128 0x3a
 2847 00eb 0B       		.uleb128 0xb
 2848 00ec 3B       		.uleb128 0x3b
 2849 00ed 05       		.uleb128 0x5
 2850 00ee 49       		.uleb128 0x49
 2851 00ef 13       		.uleb128 0x13
 2852 00f0 02       		.uleb128 0x2
 2853 00f1 17       		.uleb128 0x17
 2854 00f2 00       		.byte	0
 2855 00f3 00       		.byte	0
 2856 00f4 11       		.uleb128 0x11
 2857 00f5 2E       		.uleb128 0x2e
 2858 00f6 01       		.byte	0x1
 2859 00f7 31       		.uleb128 0x31
 2860 00f8 13       		.uleb128 0x13
 2861 00f9 11       		.uleb128 0x11
 2862 00fa 01       		.uleb128 0x1
 2863 00fb 12       		.uleb128 0x12
 2864 00fc 06       		.uleb128 0x6
 2865 00fd 40       		.uleb128 0x40
 2866 00fe 18       		.uleb128 0x18
 2867 00ff 9742     		.uleb128 0x2117
 2868 0101 19       		.uleb128 0x19
 2869 0102 01       		.uleb128 0x1
 2870 0103 13       		.uleb128 0x13
 2871 0104 00       		.byte	0
 2872 0105 00       		.byte	0
 2873 0106 12       		.uleb128 0x12
 2874 0107 2E       		.uleb128 0x2e
 2875 0108 00       		.byte	0
 2876 0109 3F       		.uleb128 0x3f
 2877 010a 19       		.uleb128 0x19
 2878 010b 03       		.uleb128 0x3
 2879 010c 0E       		.uleb128 0xe
 2880 010d 3A       		.uleb128 0x3a
 2881 010e 0B       		.uleb128 0xb
 2882 010f 3B       		.uleb128 0x3b
 2883 0110 05       		.uleb128 0x5
 2884 0111 27       		.uleb128 0x27
 2885 0112 19       		.uleb128 0x19
 2886 0113 49       		.uleb128 0x49
 2887 0114 13       		.uleb128 0x13
 2888 0115 11       		.uleb128 0x11
 2889 0116 01       		.uleb128 0x1
 2890 0117 12       		.uleb128 0x12
 2891 0118 06       		.uleb128 0x6
 2892 0119 40       		.uleb128 0x40
 2893 011a 18       		.uleb128 0x18
 2894 011b 9742     		.uleb128 0x2117
 2895 011d 19       		.uleb128 0x19
 2896 011e 00       		.byte	0
 2897 011f 00       		.byte	0
 2898 0120 13       		.uleb128 0x13
ARM GAS  C:\Users\VIDEOH~1\AppData\Local\Temp\ccfC0KgD.s 			page 81


 2899 0121 2E       		.uleb128 0x2e
 2900 0122 00       		.byte	0
 2901 0123 3F       		.uleb128 0x3f
 2902 0124 19       		.uleb128 0x19
 2903 0125 03       		.uleb128 0x3
 2904 0126 0E       		.uleb128 0xe
 2905 0127 3A       		.uleb128 0x3a
 2906 0128 0B       		.uleb128 0xb
 2907 0129 3B       		.uleb128 0x3b
 2908 012a 05       		.uleb128 0x5
 2909 012b 27       		.uleb128 0x27
 2910 012c 19       		.uleb128 0x19
 2911 012d 49       		.uleb128 0x49
 2912 012e 13       		.uleb128 0x13
 2913 012f 20       		.uleb128 0x20
 2914 0130 0B       		.uleb128 0xb
 2915 0131 00       		.byte	0
 2916 0132 00       		.byte	0
 2917 0133 14       		.uleb128 0x14
 2918 0134 2E       		.uleb128 0x2e
 2919 0135 00       		.byte	0
 2920 0136 31       		.uleb128 0x31
 2921 0137 13       		.uleb128 0x13
 2922 0138 11       		.uleb128 0x11
 2923 0139 01       		.uleb128 0x1
 2924 013a 12       		.uleb128 0x12
 2925 013b 06       		.uleb128 0x6
 2926 013c 40       		.uleb128 0x40
 2927 013d 18       		.uleb128 0x18
 2928 013e 9742     		.uleb128 0x2117
 2929 0140 19       		.uleb128 0x19
 2930 0141 00       		.byte	0
 2931 0142 00       		.byte	0
 2932 0143 15       		.uleb128 0x15
 2933 0144 34       		.uleb128 0x34
 2934 0145 00       		.byte	0
 2935 0146 03       		.uleb128 0x3
 2936 0147 0E       		.uleb128 0xe
 2937 0148 3A       		.uleb128 0x3a
 2938 0149 0B       		.uleb128 0xb
 2939 014a 3B       		.uleb128 0x3b
 2940 014b 0B       		.uleb128 0xb
 2941 014c 49       		.uleb128 0x49
 2942 014d 13       		.uleb128 0x13
 2943 014e 02       		.uleb128 0x2
 2944 014f 17       		.uleb128 0x17
 2945 0150 00       		.byte	0
 2946 0151 00       		.byte	0
 2947 0152 16       		.uleb128 0x16
 2948 0153 898201   		.uleb128 0x4109
 2949 0156 01       		.byte	0x1
 2950 0157 11       		.uleb128 0x11
 2951 0158 01       		.uleb128 0x1
 2952 0159 31       		.uleb128 0x31
 2953 015a 13       		.uleb128 0x13
 2954 015b 00       		.byte	0
 2955 015c 00       		.byte	0
ARM GAS  C:\Users\VIDEOH~1\AppData\Local\Temp\ccfC0KgD.s 			page 82


 2956 015d 17       		.uleb128 0x17
 2957 015e 8A8201   		.uleb128 0x410a
 2958 0161 00       		.byte	0
 2959 0162 02       		.uleb128 0x2
 2960 0163 18       		.uleb128 0x18
 2961 0164 9142     		.uleb128 0x2111
 2962 0166 18       		.uleb128 0x18
 2963 0167 00       		.byte	0
 2964 0168 00       		.byte	0
 2965 0169 18       		.uleb128 0x18
 2966 016a 05       		.uleb128 0x5
 2967 016b 00       		.byte	0
 2968 016c 31       		.uleb128 0x31
 2969 016d 13       		.uleb128 0x13
 2970 016e 02       		.uleb128 0x2
 2971 016f 18       		.uleb128 0x18
 2972 0170 00       		.byte	0
 2973 0171 00       		.byte	0
 2974 0172 19       		.uleb128 0x19
 2975 0173 05       		.uleb128 0x5
 2976 0174 00       		.byte	0
 2977 0175 03       		.uleb128 0x3
 2978 0176 0E       		.uleb128 0xe
 2979 0177 3A       		.uleb128 0x3a
 2980 0178 0B       		.uleb128 0xb
 2981 0179 3B       		.uleb128 0x3b
 2982 017a 05       		.uleb128 0x5
 2983 017b 49       		.uleb128 0x49
 2984 017c 13       		.uleb128 0x13
 2985 017d 02       		.uleb128 0x2
 2986 017e 18       		.uleb128 0x18
 2987 017f 00       		.byte	0
 2988 0180 00       		.byte	0
 2989 0181 1A       		.uleb128 0x1a
 2990 0182 34       		.uleb128 0x34
 2991 0183 00       		.byte	0
 2992 0184 03       		.uleb128 0x3
 2993 0185 0E       		.uleb128 0xe
 2994 0186 3A       		.uleb128 0x3a
 2995 0187 0B       		.uleb128 0xb
 2996 0188 3B       		.uleb128 0x3b
 2997 0189 0B       		.uleb128 0xb
 2998 018a 49       		.uleb128 0x49
 2999 018b 13       		.uleb128 0x13
 3000 018c 3F       		.uleb128 0x3f
 3001 018d 19       		.uleb128 0x19
 3002 018e 02       		.uleb128 0x2
 3003 018f 18       		.uleb128 0x18
 3004 0190 00       		.byte	0
 3005 0191 00       		.byte	0
 3006 0192 1B       		.uleb128 0x1b
 3007 0193 2E       		.uleb128 0x2e
 3008 0194 00       		.byte	0
 3009 0195 3F       		.uleb128 0x3f
 3010 0196 19       		.uleb128 0x19
 3011 0197 3C       		.uleb128 0x3c
 3012 0198 19       		.uleb128 0x19
ARM GAS  C:\Users\VIDEOH~1\AppData\Local\Temp\ccfC0KgD.s 			page 83


 3013 0199 6E       		.uleb128 0x6e
 3014 019a 0E       		.uleb128 0xe
 3015 019b 03       		.uleb128 0x3
 3016 019c 0E       		.uleb128 0xe
 3017 019d 3A       		.uleb128 0x3a
 3018 019e 0B       		.uleb128 0xb
 3019 019f 3B       		.uleb128 0x3b
 3020 01a0 0B       		.uleb128 0xb
 3021 01a1 00       		.byte	0
 3022 01a2 00       		.byte	0
 3023 01a3 00       		.byte	0
 3024              		.section	.debug_loc,"",%progbits
 3025              	.Ldebug_loc0:
 3026              	.LLST0:
 3027 0000 0E000000 		.4byte	.LVL0
 3028 0004 12000000 		.4byte	.LVL1
 3029 0008 0200     		.2byte	0x2
 3030 000a 30       		.byte	0x30
 3031 000b 9F       		.byte	0x9f
 3032 000c 00000000 		.4byte	0
 3033 0010 00000000 		.4byte	0
 3034              	.LLST1:
 3035 0014 1C000000 		.4byte	.LVL2
 3036 0018 20000000 		.4byte	.LVL3
 3037 001c 0200     		.2byte	0x2
 3038 001e 30       		.byte	0x30
 3039 001f 9F       		.byte	0x9f
 3040 0020 00000000 		.4byte	0
 3041 0024 00000000 		.4byte	0
 3042              	.LLST2:
 3043 0028 26000000 		.4byte	.LVL4
 3044 002c 2C000000 		.4byte	.LVL5
 3045 0030 0300     		.2byte	0x3
 3046 0032 08       		.byte	0x8
 3047 0033 FF       		.byte	0xff
 3048 0034 9F       		.byte	0x9f
 3049 0035 00000000 		.4byte	0
 3050 0039 00000000 		.4byte	0
 3051              	.LLST3:
 3052 003d 2C000000 		.4byte	.LVL5
 3053 0041 32000000 		.4byte	.LVL6
 3054 0045 0300     		.2byte	0x3
 3055 0047 08       		.byte	0x8
 3056 0048 40       		.byte	0x40
 3057 0049 9F       		.byte	0x9f
 3058 004a 00000000 		.4byte	0
 3059 004e 00000000 		.4byte	0
 3060              	.LLST4:
 3061 0052 06000000 		.4byte	.LVL7
 3062 0056 13000000 		.4byte	.LVL8-1
 3063 005a 0100     		.2byte	0x1
 3064 005c 50       		.byte	0x50
 3065 005d 00000000 		.4byte	0
 3066 0061 00000000 		.4byte	0
 3067              	.LLST5:
 3068 0065 00000000 		.4byte	.LVL9
 3069 0069 07000000 		.4byte	.LVL10-1
ARM GAS  C:\Users\VIDEOH~1\AppData\Local\Temp\ccfC0KgD.s 			page 84


 3070 006d 0100     		.2byte	0x1
 3071 006f 50       		.byte	0x50
 3072 0070 07000000 		.4byte	.LVL10-1
 3073 0074 16000000 		.4byte	.LVL11
 3074 0078 0100     		.2byte	0x1
 3075 007a 54       		.byte	0x54
 3076 007b 16000000 		.4byte	.LVL11
 3077 007f 28000000 		.4byte	.LFE4
 3078 0083 0400     		.2byte	0x4
 3079 0085 F3       		.byte	0xf3
 3080 0086 01       		.uleb128 0x1
 3081 0087 50       		.byte	0x50
 3082 0088 9F       		.byte	0x9f
 3083 0089 00000000 		.4byte	0
 3084 008d 00000000 		.4byte	0
 3085              	.LLST6:
 3086 0091 08000000 		.4byte	.LVL10
 3087 0095 1B000000 		.4byte	.LVL12-1
 3088 0099 0100     		.2byte	0x1
 3089 009b 50       		.byte	0x50
 3090 009c 00000000 		.4byte	0
 3091 00a0 00000000 		.4byte	0
 3092              	.LLST7:
 3093 00a4 00000000 		.4byte	.LVL13
 3094 00a8 07000000 		.4byte	.LVL14-1
 3095 00ac 0100     		.2byte	0x1
 3096 00ae 50       		.byte	0x50
 3097 00af 07000000 		.4byte	.LVL14-1
 3098 00b3 16000000 		.4byte	.LVL15
 3099 00b7 0100     		.2byte	0x1
 3100 00b9 54       		.byte	0x54
 3101 00ba 16000000 		.4byte	.LVL15
 3102 00be 28000000 		.4byte	.LFE5
 3103 00c2 0400     		.2byte	0x4
 3104 00c4 F3       		.byte	0xf3
 3105 00c5 01       		.uleb128 0x1
 3106 00c6 50       		.byte	0x50
 3107 00c7 9F       		.byte	0x9f
 3108 00c8 00000000 		.4byte	0
 3109 00cc 00000000 		.4byte	0
 3110              	.LLST8:
 3111 00d0 08000000 		.4byte	.LVL14
 3112 00d4 1B000000 		.4byte	.LVL16-1
 3113 00d8 0100     		.2byte	0x1
 3114 00da 50       		.byte	0x50
 3115 00db 00000000 		.4byte	0
 3116 00df 00000000 		.4byte	0
 3117              	.LLST9:
 3118 00e3 00000000 		.4byte	.LVL17
 3119 00e7 07000000 		.4byte	.LVL18-1
 3120 00eb 0100     		.2byte	0x1
 3121 00ed 50       		.byte	0x50
 3122 00ee 07000000 		.4byte	.LVL18-1
 3123 00f2 16000000 		.4byte	.LVL19
 3124 00f6 0100     		.2byte	0x1
 3125 00f8 54       		.byte	0x54
 3126 00f9 16000000 		.4byte	.LVL19
ARM GAS  C:\Users\VIDEOH~1\AppData\Local\Temp\ccfC0KgD.s 			page 85


 3127 00fd 28000000 		.4byte	.LFE6
 3128 0101 0400     		.2byte	0x4
 3129 0103 F3       		.byte	0xf3
 3130 0104 01       		.uleb128 0x1
 3131 0105 50       		.byte	0x50
 3132 0106 9F       		.byte	0x9f
 3133 0107 00000000 		.4byte	0
 3134 010b 00000000 		.4byte	0
 3135              	.LLST10:
 3136 010f 08000000 		.4byte	.LVL18
 3137 0113 1B000000 		.4byte	.LVL20-1
 3138 0117 0100     		.2byte	0x1
 3139 0119 50       		.byte	0x50
 3140 011a 00000000 		.4byte	0
 3141 011e 00000000 		.4byte	0
 3142              	.LLST11:
 3143 0122 00000000 		.4byte	.LVL21
 3144 0126 07000000 		.4byte	.LVL22-1
 3145 012a 0100     		.2byte	0x1
 3146 012c 50       		.byte	0x50
 3147 012d 07000000 		.4byte	.LVL22-1
 3148 0131 16000000 		.4byte	.LVL23
 3149 0135 0100     		.2byte	0x1
 3150 0137 54       		.byte	0x54
 3151 0138 16000000 		.4byte	.LVL23
 3152 013c 30000000 		.4byte	.LFE7
 3153 0140 0400     		.2byte	0x4
 3154 0142 F3       		.byte	0xf3
 3155 0143 01       		.uleb128 0x1
 3156 0144 50       		.byte	0x50
 3157 0145 9F       		.byte	0x9f
 3158 0146 00000000 		.4byte	0
 3159 014a 00000000 		.4byte	0
 3160              	.LLST12:
 3161 014e 08000000 		.4byte	.LVL22
 3162 0152 23000000 		.4byte	.LVL24-1
 3163 0156 0100     		.2byte	0x1
 3164 0158 50       		.byte	0x50
 3165 0159 00000000 		.4byte	0
 3166 015d 00000000 		.4byte	0
 3167              	.LLST13:
 3168 0161 00000000 		.4byte	.LVL25
 3169 0165 04000000 		.4byte	.LVL26
 3170 0169 0100     		.2byte	0x1
 3171 016b 50       		.byte	0x50
 3172 016c 04000000 		.4byte	.LVL26
 3173 0170 10000000 		.4byte	.LFE8
 3174 0174 0400     		.2byte	0x4
 3175 0176 F3       		.byte	0xf3
 3176 0177 01       		.uleb128 0x1
 3177 0178 50       		.byte	0x50
 3178 0179 9F       		.byte	0x9f
 3179 017a 00000000 		.4byte	0
 3180 017e 00000000 		.4byte	0
 3181              	.LLST14:
 3182 0182 00000000 		.4byte	.LVL27
 3183 0186 07000000 		.4byte	.LVL28-1
ARM GAS  C:\Users\VIDEOH~1\AppData\Local\Temp\ccfC0KgD.s 			page 86


 3184 018a 0100     		.2byte	0x1
 3185 018c 50       		.byte	0x50
 3186 018d 07000000 		.4byte	.LVL28-1
 3187 0191 0E000000 		.4byte	.LVL29
 3188 0195 0100     		.2byte	0x1
 3189 0197 54       		.byte	0x54
 3190 0198 0E000000 		.4byte	.LVL29
 3191 019c 28000000 		.4byte	.LFE9
 3192 01a0 0400     		.2byte	0x4
 3193 01a2 F3       		.byte	0xf3
 3194 01a3 01       		.uleb128 0x1
 3195 01a4 50       		.byte	0x50
 3196 01a5 9F       		.byte	0x9f
 3197 01a6 00000000 		.4byte	0
 3198 01aa 00000000 		.4byte	0
 3199              	.LLST15:
 3200 01ae 08000000 		.4byte	.LVL28
 3201 01b2 1F000000 		.4byte	.LVL30-1
 3202 01b6 0100     		.2byte	0x1
 3203 01b8 50       		.byte	0x50
 3204 01b9 00000000 		.4byte	0
 3205 01bd 00000000 		.4byte	0
 3206              	.LLST16:
 3207 01c1 00000000 		.4byte	.LVL31
 3208 01c5 07000000 		.4byte	.LVL32-1
 3209 01c9 0100     		.2byte	0x1
 3210 01cb 50       		.byte	0x50
 3211 01cc 07000000 		.4byte	.LVL32-1
 3212 01d0 0E000000 		.4byte	.LVL33
 3213 01d4 0100     		.2byte	0x1
 3214 01d6 54       		.byte	0x54
 3215 01d7 0E000000 		.4byte	.LVL33
 3216 01db 28000000 		.4byte	.LFE10
 3217 01df 0400     		.2byte	0x4
 3218 01e1 F3       		.byte	0xf3
 3219 01e2 01       		.uleb128 0x1
 3220 01e3 50       		.byte	0x50
 3221 01e4 9F       		.byte	0x9f
 3222 01e5 00000000 		.4byte	0
 3223 01e9 00000000 		.4byte	0
 3224              	.LLST17:
 3225 01ed 08000000 		.4byte	.LVL32
 3226 01f1 1F000000 		.4byte	.LVL34-1
 3227 01f5 0100     		.2byte	0x1
 3228 01f7 50       		.byte	0x50
 3229 01f8 00000000 		.4byte	0
 3230 01fc 00000000 		.4byte	0
 3231              	.LLST18:
 3232 0200 00000000 		.4byte	.LVL35
 3233 0204 07000000 		.4byte	.LVL36-1
 3234 0208 0100     		.2byte	0x1
 3235 020a 50       		.byte	0x50
 3236 020b 07000000 		.4byte	.LVL36-1
 3237 020f 10000000 		.4byte	.LVL37
 3238 0213 0100     		.2byte	0x1
 3239 0215 54       		.byte	0x54
 3240 0216 10000000 		.4byte	.LVL37
ARM GAS  C:\Users\VIDEOH~1\AppData\Local\Temp\ccfC0KgD.s 			page 87


 3241 021a 2C000000 		.4byte	.LFE11
 3242 021e 0400     		.2byte	0x4
 3243 0220 F3       		.byte	0xf3
 3244 0221 01       		.uleb128 0x1
 3245 0222 50       		.byte	0x50
 3246 0223 9F       		.byte	0x9f
 3247 0224 00000000 		.4byte	0
 3248 0228 00000000 		.4byte	0
 3249              	.LLST19:
 3250 022c 08000000 		.4byte	.LVL36
 3251 0230 1F000000 		.4byte	.LVL38-1
 3252 0234 0100     		.2byte	0x1
 3253 0236 50       		.byte	0x50
 3254 0237 00000000 		.4byte	0
 3255 023b 00000000 		.4byte	0
 3256              	.LLST20:
 3257 023f 00000000 		.4byte	.LVL39
 3258 0243 07000000 		.4byte	.LVL40-1
 3259 0247 0100     		.2byte	0x1
 3260 0249 50       		.byte	0x50
 3261 024a 07000000 		.4byte	.LVL40-1
 3262 024e 16000000 		.4byte	.LVL41
 3263 0252 0100     		.2byte	0x1
 3264 0254 54       		.byte	0x54
 3265 0255 16000000 		.4byte	.LVL41
 3266 0259 28000000 		.4byte	.LFE12
 3267 025d 0400     		.2byte	0x4
 3268 025f F3       		.byte	0xf3
 3269 0260 01       		.uleb128 0x1
 3270 0261 50       		.byte	0x50
 3271 0262 9F       		.byte	0x9f
 3272 0263 00000000 		.4byte	0
 3273 0267 00000000 		.4byte	0
 3274              	.LLST21:
 3275 026b 08000000 		.4byte	.LVL40
 3276 026f 1B000000 		.4byte	.LVL42-1
 3277 0273 0100     		.2byte	0x1
 3278 0275 50       		.byte	0x50
 3279 0276 00000000 		.4byte	0
 3280 027a 00000000 		.4byte	0
 3281              	.LLST22:
 3282 027e 00000000 		.4byte	.LVL43
 3283 0282 04000000 		.4byte	.LVL44
 3284 0286 0100     		.2byte	0x1
 3285 0288 50       		.byte	0x50
 3286 0289 04000000 		.4byte	.LVL44
 3287 028d 0C000000 		.4byte	.LFE13
 3288 0291 0400     		.2byte	0x4
 3289 0293 F3       		.byte	0xf3
 3290 0294 01       		.uleb128 0x1
 3291 0295 50       		.byte	0x50
 3292 0296 9F       		.byte	0x9f
 3293 0297 00000000 		.4byte	0
 3294 029b 00000000 		.4byte	0
 3295              	.LLST23:
 3296 029f 00000000 		.4byte	.LVL45
 3297 02a3 07000000 		.4byte	.LVL46-1
ARM GAS  C:\Users\VIDEOH~1\AppData\Local\Temp\ccfC0KgD.s 			page 88


 3298 02a7 0100     		.2byte	0x1
 3299 02a9 50       		.byte	0x50
 3300 02aa 07000000 		.4byte	.LVL46-1
 3301 02ae 16000000 		.4byte	.LVL47
 3302 02b2 0100     		.2byte	0x1
 3303 02b4 54       		.byte	0x54
 3304 02b5 16000000 		.4byte	.LVL47
 3305 02b9 28000000 		.4byte	.LFE15
 3306 02bd 0400     		.2byte	0x4
 3307 02bf F3       		.byte	0xf3
 3308 02c0 01       		.uleb128 0x1
 3309 02c1 50       		.byte	0x50
 3310 02c2 9F       		.byte	0x9f
 3311 02c3 00000000 		.4byte	0
 3312 02c7 00000000 		.4byte	0
 3313              	.LLST24:
 3314 02cb 08000000 		.4byte	.LVL46
 3315 02cf 1B000000 		.4byte	.LVL48-1
 3316 02d3 0100     		.2byte	0x1
 3317 02d5 50       		.byte	0x50
 3318 02d6 00000000 		.4byte	0
 3319 02da 00000000 		.4byte	0
 3320              	.LLST25:
 3321 02de 00000000 		.4byte	.LVL49
 3322 02e2 04000000 		.4byte	.LVL50
 3323 02e6 0100     		.2byte	0x1
 3324 02e8 50       		.byte	0x50
 3325 02e9 04000000 		.4byte	.LVL50
 3326 02ed 0C000000 		.4byte	.LFE16
 3327 02f1 0400     		.2byte	0x4
 3328 02f3 F3       		.byte	0xf3
 3329 02f4 01       		.uleb128 0x1
 3330 02f5 50       		.byte	0x50
 3331 02f6 9F       		.byte	0x9f
 3332 02f7 00000000 		.4byte	0
 3333 02fb 00000000 		.4byte	0
 3334              	.LLST26:
 3335 02ff 00000000 		.4byte	.LVL51
 3336 0303 07000000 		.4byte	.LVL52-1
 3337 0307 0100     		.2byte	0x1
 3338 0309 50       		.byte	0x50
 3339 030a 07000000 		.4byte	.LVL52-1
 3340 030e 1E000000 		.4byte	.LVL54
 3341 0312 0100     		.2byte	0x1
 3342 0314 54       		.byte	0x54
 3343 0315 1E000000 		.4byte	.LVL54
 3344 0319 24000000 		.4byte	.LFE18
 3345 031d 0400     		.2byte	0x4
 3346 031f F3       		.byte	0xf3
 3347 0320 01       		.uleb128 0x1
 3348 0321 50       		.byte	0x50
 3349 0322 9F       		.byte	0x9f
 3350 0323 00000000 		.4byte	0
 3351 0327 00000000 		.4byte	0
 3352              	.LLST27:
 3353 032b 08000000 		.4byte	.LVL52
 3354 032f 1D000000 		.4byte	.LVL53-1
ARM GAS  C:\Users\VIDEOH~1\AppData\Local\Temp\ccfC0KgD.s 			page 89


 3355 0333 0100     		.2byte	0x1
 3356 0335 50       		.byte	0x50
 3357 0336 00000000 		.4byte	0
 3358 033a 00000000 		.4byte	0
 3359              	.LLST28:
 3360 033e 00000000 		.4byte	.LVL55
 3361 0342 04000000 		.4byte	.LVL56
 3362 0346 0100     		.2byte	0x1
 3363 0348 50       		.byte	0x50
 3364 0349 04000000 		.4byte	.LVL56
 3365 034d 0C000000 		.4byte	.LFE19
 3366 0351 0400     		.2byte	0x4
 3367 0353 F3       		.byte	0xf3
 3368 0354 01       		.uleb128 0x1
 3369 0355 50       		.byte	0x50
 3370 0356 9F       		.byte	0x9f
 3371 0357 00000000 		.4byte	0
 3372 035b 00000000 		.4byte	0
 3373              	.LLST29:
 3374 035f 00000000 		.4byte	.LVL57
 3375 0363 07000000 		.4byte	.LVL58-1
 3376 0367 0100     		.2byte	0x1
 3377 0369 50       		.byte	0x50
 3378 036a 07000000 		.4byte	.LVL58-1
 3379 036e 0E000000 		.4byte	.LVL59
 3380 0372 0100     		.2byte	0x1
 3381 0374 54       		.byte	0x54
 3382 0375 0E000000 		.4byte	.LVL59
 3383 0379 28000000 		.4byte	.LFE21
 3384 037d 0400     		.2byte	0x4
 3385 037f F3       		.byte	0xf3
 3386 0380 01       		.uleb128 0x1
 3387 0381 50       		.byte	0x50
 3388 0382 9F       		.byte	0x9f
 3389 0383 00000000 		.4byte	0
 3390 0387 00000000 		.4byte	0
 3391              	.LLST30:
 3392 038b 08000000 		.4byte	.LVL58
 3393 038f 1F000000 		.4byte	.LVL60-1
 3394 0393 0100     		.2byte	0x1
 3395 0395 50       		.byte	0x50
 3396 0396 00000000 		.4byte	0
 3397 039a 00000000 		.4byte	0
 3398              	.LLST31:
 3399 039e 00000000 		.4byte	.LVL61
 3400 03a2 04000000 		.4byte	.LVL62
 3401 03a6 0100     		.2byte	0x1
 3402 03a8 50       		.byte	0x50
 3403 03a9 04000000 		.4byte	.LVL62
 3404 03ad 0C000000 		.4byte	.LFE22
 3405 03b1 0400     		.2byte	0x4
 3406 03b3 F3       		.byte	0xf3
 3407 03b4 01       		.uleb128 0x1
 3408 03b5 50       		.byte	0x50
 3409 03b6 9F       		.byte	0x9f
 3410 03b7 00000000 		.4byte	0
 3411 03bb 00000000 		.4byte	0
ARM GAS  C:\Users\VIDEOH~1\AppData\Local\Temp\ccfC0KgD.s 			page 90


 3412              	.LLST32:
 3413 03bf 00000000 		.4byte	.LVL63
 3414 03c3 04000000 		.4byte	.LVL64
 3415 03c7 0100     		.2byte	0x1
 3416 03c9 50       		.byte	0x50
 3417 03ca 04000000 		.4byte	.LVL64
 3418 03ce 0C000000 		.4byte	.LFE24
 3419 03d2 0400     		.2byte	0x4
 3420 03d4 F3       		.byte	0xf3
 3421 03d5 01       		.uleb128 0x1
 3422 03d6 50       		.byte	0x50
 3423 03d7 9F       		.byte	0x9f
 3424 03d8 00000000 		.4byte	0
 3425 03dc 00000000 		.4byte	0
 3426              	.LLST33:
 3427 03e0 00000000 		.4byte	.LVL65
 3428 03e4 07000000 		.4byte	.LVL66-1
 3429 03e8 0100     		.2byte	0x1
 3430 03ea 50       		.byte	0x50
 3431 03eb 07000000 		.4byte	.LVL66-1
 3432 03ef 16000000 		.4byte	.LVL67
 3433 03f3 0100     		.2byte	0x1
 3434 03f5 54       		.byte	0x54
 3435 03f6 16000000 		.4byte	.LVL67
 3436 03fa 24000000 		.4byte	.LFE28
 3437 03fe 0400     		.2byte	0x4
 3438 0400 F3       		.byte	0xf3
 3439 0401 01       		.uleb128 0x1
 3440 0402 50       		.byte	0x50
 3441 0403 9F       		.byte	0x9f
 3442 0404 00000000 		.4byte	0
 3443 0408 00000000 		.4byte	0
 3444              	.LLST34:
 3445 040c 08000000 		.4byte	.LVL66
 3446 0410 1B000000 		.4byte	.LVL68-1
 3447 0414 0100     		.2byte	0x1
 3448 0416 50       		.byte	0x50
 3449 0417 00000000 		.4byte	0
 3450 041b 00000000 		.4byte	0
 3451              	.LLST35:
 3452 041f 00000000 		.4byte	.LVL69
 3453 0423 07000000 		.4byte	.LVL70-1
 3454 0427 0100     		.2byte	0x1
 3455 0429 50       		.byte	0x50
 3456 042a 07000000 		.4byte	.LVL70-1
 3457 042e 1E000000 		.4byte	.LVL72
 3458 0432 0100     		.2byte	0x1
 3459 0434 54       		.byte	0x54
 3460 0435 1E000000 		.4byte	.LVL72
 3461 0439 24000000 		.4byte	.LFE29
 3462 043d 0400     		.2byte	0x4
 3463 043f F3       		.byte	0xf3
 3464 0440 01       		.uleb128 0x1
 3465 0441 50       		.byte	0x50
 3466 0442 9F       		.byte	0x9f
 3467 0443 00000000 		.4byte	0
 3468 0447 00000000 		.4byte	0
ARM GAS  C:\Users\VIDEOH~1\AppData\Local\Temp\ccfC0KgD.s 			page 91


 3469              	.LLST36:
 3470 044b 08000000 		.4byte	.LVL70
 3471 044f 1D000000 		.4byte	.LVL71-1
 3472 0453 0100     		.2byte	0x1
 3473 0455 50       		.byte	0x50
 3474 0456 00000000 		.4byte	0
 3475 045a 00000000 		.4byte	0
 3476              	.LLST37:
 3477 045e 00000000 		.4byte	.LVL73
 3478 0462 07000000 		.4byte	.LVL74-1
 3479 0466 0100     		.2byte	0x1
 3480 0468 50       		.byte	0x50
 3481 0469 07000000 		.4byte	.LVL74-1
 3482 046d 1E000000 		.4byte	.LVL76
 3483 0471 0100     		.2byte	0x1
 3484 0473 54       		.byte	0x54
 3485 0474 1E000000 		.4byte	.LVL76
 3486 0478 28000000 		.4byte	.LFE30
 3487 047c 0400     		.2byte	0x4
 3488 047e F3       		.byte	0xf3
 3489 047f 01       		.uleb128 0x1
 3490 0480 50       		.byte	0x50
 3491 0481 9F       		.byte	0x9f
 3492 0482 00000000 		.4byte	0
 3493 0486 00000000 		.4byte	0
 3494              	.LLST38:
 3495 048a 08000000 		.4byte	.LVL74
 3496 048e 1D000000 		.4byte	.LVL75-1
 3497 0492 0100     		.2byte	0x1
 3498 0494 50       		.byte	0x50
 3499 0495 00000000 		.4byte	0
 3500 0499 00000000 		.4byte	0
 3501              	.LLST39:
 3502 049d 00000000 		.4byte	.LVL77
 3503 04a1 07000000 		.4byte	.LVL78-1
 3504 04a5 0100     		.2byte	0x1
 3505 04a7 50       		.byte	0x50
 3506 04a8 07000000 		.4byte	.LVL78-1
 3507 04ac 1E000000 		.4byte	.LVL80
 3508 04b0 0100     		.2byte	0x1
 3509 04b2 54       		.byte	0x54
 3510 04b3 1E000000 		.4byte	.LVL80
 3511 04b7 24000000 		.4byte	.LFE31
 3512 04bb 0400     		.2byte	0x4
 3513 04bd F3       		.byte	0xf3
 3514 04be 01       		.uleb128 0x1
 3515 04bf 50       		.byte	0x50
 3516 04c0 9F       		.byte	0x9f
 3517 04c1 00000000 		.4byte	0
 3518 04c5 00000000 		.4byte	0
 3519              	.LLST40:
 3520 04c9 08000000 		.4byte	.LVL78
 3521 04cd 1D000000 		.4byte	.LVL79-1
 3522 04d1 0100     		.2byte	0x1
 3523 04d3 50       		.byte	0x50
 3524 04d4 00000000 		.4byte	0
 3525 04d8 00000000 		.4byte	0
ARM GAS  C:\Users\VIDEOH~1\AppData\Local\Temp\ccfC0KgD.s 			page 92


 3526              	.LLST41:
 3527 04dc 00000000 		.4byte	.LVL81
 3528 04e0 07000000 		.4byte	.LVL82-1
 3529 04e4 0100     		.2byte	0x1
 3530 04e6 50       		.byte	0x50
 3531 04e7 07000000 		.4byte	.LVL82-1
 3532 04eb 1E000000 		.4byte	.LVL84
 3533 04ef 0100     		.2byte	0x1
 3534 04f1 54       		.byte	0x54
 3535 04f2 1E000000 		.4byte	.LVL84
 3536 04f6 24000000 		.4byte	.LFE32
 3537 04fa 0400     		.2byte	0x4
 3538 04fc F3       		.byte	0xf3
 3539 04fd 01       		.uleb128 0x1
 3540 04fe 50       		.byte	0x50
 3541 04ff 9F       		.byte	0x9f
 3542 0500 00000000 		.4byte	0
 3543 0504 00000000 		.4byte	0
 3544              	.LLST42:
 3545 0508 08000000 		.4byte	.LVL82
 3546 050c 1D000000 		.4byte	.LVL83-1
 3547 0510 0100     		.2byte	0x1
 3548 0512 50       		.byte	0x50
 3549 0513 00000000 		.4byte	0
 3550 0517 00000000 		.4byte	0
 3551              	.LLST43:
 3552 051b 00000000 		.4byte	.LVL85
 3553 051f 0B000000 		.4byte	.LVL86-1
 3554 0523 0100     		.2byte	0x1
 3555 0525 50       		.byte	0x50
 3556 0526 0B000000 		.4byte	.LVL86-1
 3557 052a 1C000000 		.4byte	.LFE33
 3558 052e 0400     		.2byte	0x4
 3559 0530 F3       		.byte	0xf3
 3560 0531 01       		.uleb128 0x1
 3561 0532 50       		.byte	0x50
 3562 0533 9F       		.byte	0x9f
 3563 0534 00000000 		.4byte	0
 3564 0538 00000000 		.4byte	0
 3565              	.LLST44:
 3566 053c 00000000 		.4byte	.LVL85
 3567 0540 0B000000 		.4byte	.LVL86-1
 3568 0544 0100     		.2byte	0x1
 3569 0546 51       		.byte	0x51
 3570 0547 0B000000 		.4byte	.LVL86-1
 3571 054b 14000000 		.4byte	.LVL88
 3572 054f 0100     		.2byte	0x1
 3573 0551 55       		.byte	0x55
 3574 0552 14000000 		.4byte	.LVL88
 3575 0556 1C000000 		.4byte	.LFE33
 3576 055a 0400     		.2byte	0x4
 3577 055c F3       		.byte	0xf3
 3578 055d 01       		.uleb128 0x1
 3579 055e 51       		.byte	0x51
 3580 055f 9F       		.byte	0x9f
 3581 0560 00000000 		.4byte	0
 3582 0564 00000000 		.4byte	0
ARM GAS  C:\Users\VIDEOH~1\AppData\Local\Temp\ccfC0KgD.s 			page 93


 3583              	.LLST45:
 3584 0568 0C000000 		.4byte	.LVL86
 3585 056c 13000000 		.4byte	.LVL87-1
 3586 0570 0100     		.2byte	0x1
 3587 0572 50       		.byte	0x50
 3588 0573 00000000 		.4byte	0
 3589 0577 00000000 		.4byte	0
 3590              	.LLST46:
 3591 057b 08000000 		.4byte	.LVL89
 3592 057f 13000000 		.4byte	.LVL90-1
 3593 0583 0100     		.2byte	0x1
 3594 0585 50       		.byte	0x50
 3595 0586 00000000 		.4byte	0
 3596 058a 00000000 		.4byte	0
 3597              		.section	.debug_aranges,"",%progbits
 3598 0000 44010000 		.4byte	0x144
 3599 0004 0200     		.2byte	0x2
 3600 0006 00000000 		.4byte	.Ldebug_info0
 3601 000a 04       		.byte	0x4
 3602 000b 00       		.byte	0
 3603 000c 0000     		.2byte	0
 3604 000e 0000     		.2byte	0
 3605 0010 00000000 		.4byte	.LFB0
 3606 0014 50000000 		.4byte	.LFE0-.LFB0
 3607 0018 00000000 		.4byte	.LFB3
 3608 001c 1C000000 		.4byte	.LFE3-.LFB3
 3609 0020 00000000 		.4byte	.LFB4
 3610 0024 28000000 		.4byte	.LFE4-.LFB4
 3611 0028 00000000 		.4byte	.LFB5
 3612 002c 28000000 		.4byte	.LFE5-.LFB5
 3613 0030 00000000 		.4byte	.LFB6
 3614 0034 28000000 		.4byte	.LFE6-.LFB6
 3615 0038 00000000 		.4byte	.LFB7
 3616 003c 30000000 		.4byte	.LFE7-.LFB7
 3617 0040 00000000 		.4byte	.LFB8
 3618 0044 10000000 		.4byte	.LFE8-.LFB8
 3619 0048 00000000 		.4byte	.LFB9
 3620 004c 28000000 		.4byte	.LFE9-.LFB9
 3621 0050 00000000 		.4byte	.LFB10
 3622 0054 28000000 		.4byte	.LFE10-.LFB10
 3623 0058 00000000 		.4byte	.LFB11
 3624 005c 2C000000 		.4byte	.LFE11-.LFB11
 3625 0060 00000000 		.4byte	.LFB12
 3626 0064 28000000 		.4byte	.LFE12-.LFB12
 3627 0068 00000000 		.4byte	.LFB13
 3628 006c 0C000000 		.4byte	.LFE13-.LFB13
 3629 0070 00000000 		.4byte	.LFB14
 3630 0074 0C000000 		.4byte	.LFE14-.LFB14
 3631 0078 00000000 		.4byte	.LFB15
 3632 007c 28000000 		.4byte	.LFE15-.LFB15
 3633 0080 00000000 		.4byte	.LFB16
 3634 0084 0C000000 		.4byte	.LFE16-.LFB16
 3635 0088 00000000 		.4byte	.LFB17
 3636 008c 0C000000 		.4byte	.LFE17-.LFB17
 3637 0090 00000000 		.4byte	.LFB18
 3638 0094 24000000 		.4byte	.LFE18-.LFB18
 3639 0098 00000000 		.4byte	.LFB19
ARM GAS  C:\Users\VIDEOH~1\AppData\Local\Temp\ccfC0KgD.s 			page 94


 3640 009c 0C000000 		.4byte	.LFE19-.LFB19
 3641 00a0 00000000 		.4byte	.LFB20
 3642 00a4 0C000000 		.4byte	.LFE20-.LFB20
 3643 00a8 00000000 		.4byte	.LFB21
 3644 00ac 28000000 		.4byte	.LFE21-.LFB21
 3645 00b0 00000000 		.4byte	.LFB22
 3646 00b4 0C000000 		.4byte	.LFE22-.LFB22
 3647 00b8 00000000 		.4byte	.LFB24
 3648 00bc 0C000000 		.4byte	.LFE24-.LFB24
 3649 00c0 00000000 		.4byte	.LFB26
 3650 00c4 0C000000 		.4byte	.LFE26-.LFB26
 3651 00c8 00000000 		.4byte	.LFB27
 3652 00cc 0C000000 		.4byte	.LFE27-.LFB27
 3653 00d0 00000000 		.4byte	.LFB28
 3654 00d4 24000000 		.4byte	.LFE28-.LFB28
 3655 00d8 00000000 		.4byte	.LFB29
 3656 00dc 24000000 		.4byte	.LFE29-.LFB29
 3657 00e0 00000000 		.4byte	.LFB30
 3658 00e4 28000000 		.4byte	.LFE30-.LFB30
 3659 00e8 00000000 		.4byte	.LFB31
 3660 00ec 24000000 		.4byte	.LFE31-.LFB31
 3661 00f0 00000000 		.4byte	.LFB32
 3662 00f4 24000000 		.4byte	.LFE32-.LFB32
 3663 00f8 00000000 		.4byte	.LFB33
 3664 00fc 1C000000 		.4byte	.LFE33-.LFB33
 3665 0100 00000000 		.4byte	.LFB1
 3666 0104 24000000 		.4byte	.LFE1-.LFB1
 3667 0108 00000000 		.4byte	.LFB2
 3668 010c 1C000000 		.4byte	.LFE2-.LFB2
 3669 0110 00000000 		.4byte	.LFB34
 3670 0114 14000000 		.4byte	.LFE34-.LFB34
 3671 0118 00000000 		.4byte	.LFB35
 3672 011c 0C000000 		.4byte	.LFE35-.LFB35
 3673 0120 00000000 		.4byte	.LFB36
 3674 0124 0C000000 		.4byte	.LFE36-.LFB36
 3675 0128 00000000 		.4byte	.LFB37
 3676 012c 0C000000 		.4byte	.LFE37-.LFB37
 3677 0130 00000000 		.4byte	.LFB38
 3678 0134 0C000000 		.4byte	.LFE38-.LFB38
 3679 0138 00000000 		.4byte	.LFB39
 3680 013c 0C000000 		.4byte	.LFE39-.LFB39
 3681 0140 00000000 		.4byte	0
 3682 0144 00000000 		.4byte	0
 3683              		.section	.debug_ranges,"",%progbits
 3684              	.Ldebug_ranges0:
 3685 0000 0A000000 		.4byte	.LBB10
 3686 0004 0C000000 		.4byte	.LBE10
 3687 0008 0E000000 		.4byte	.LBB13
 3688 000c 12000000 		.4byte	.LBE13
 3689 0010 00000000 		.4byte	0
 3690 0014 00000000 		.4byte	0
 3691 0018 00000000 		.4byte	.LFB0
 3692 001c 50000000 		.4byte	.LFE0
 3693 0020 00000000 		.4byte	.LFB3
 3694 0024 1C000000 		.4byte	.LFE3
 3695 0028 00000000 		.4byte	.LFB4
 3696 002c 28000000 		.4byte	.LFE4
ARM GAS  C:\Users\VIDEOH~1\AppData\Local\Temp\ccfC0KgD.s 			page 95


 3697 0030 00000000 		.4byte	.LFB5
 3698 0034 28000000 		.4byte	.LFE5
 3699 0038 00000000 		.4byte	.LFB6
 3700 003c 28000000 		.4byte	.LFE6
 3701 0040 00000000 		.4byte	.LFB7
 3702 0044 30000000 		.4byte	.LFE7
 3703 0048 00000000 		.4byte	.LFB8
 3704 004c 10000000 		.4byte	.LFE8
 3705 0050 00000000 		.4byte	.LFB9
 3706 0054 28000000 		.4byte	.LFE9
 3707 0058 00000000 		.4byte	.LFB10
 3708 005c 28000000 		.4byte	.LFE10
 3709 0060 00000000 		.4byte	.LFB11
 3710 0064 2C000000 		.4byte	.LFE11
 3711 0068 00000000 		.4byte	.LFB12
 3712 006c 28000000 		.4byte	.LFE12
 3713 0070 00000000 		.4byte	.LFB13
 3714 0074 0C000000 		.4byte	.LFE13
 3715 0078 00000000 		.4byte	.LFB14
 3716 007c 0C000000 		.4byte	.LFE14
 3717 0080 00000000 		.4byte	.LFB15
 3718 0084 28000000 		.4byte	.LFE15
 3719 0088 00000000 		.4byte	.LFB16
 3720 008c 0C000000 		.4byte	.LFE16
 3721 0090 00000000 		.4byte	.LFB17
 3722 0094 0C000000 		.4byte	.LFE17
 3723 0098 00000000 		.4byte	.LFB18
 3724 009c 24000000 		.4byte	.LFE18
 3725 00a0 00000000 		.4byte	.LFB19
 3726 00a4 0C000000 		.4byte	.LFE19
 3727 00a8 00000000 		.4byte	.LFB20
 3728 00ac 0C000000 		.4byte	.LFE20
 3729 00b0 00000000 		.4byte	.LFB21
 3730 00b4 28000000 		.4byte	.LFE21
 3731 00b8 00000000 		.4byte	.LFB22
 3732 00bc 0C000000 		.4byte	.LFE22
 3733 00c0 00000000 		.4byte	.LFB24
 3734 00c4 0C000000 		.4byte	.LFE24
 3735 00c8 00000000 		.4byte	.LFB26
 3736 00cc 0C000000 		.4byte	.LFE26
 3737 00d0 00000000 		.4byte	.LFB27
 3738 00d4 0C000000 		.4byte	.LFE27
 3739 00d8 00000000 		.4byte	.LFB28
 3740 00dc 24000000 		.4byte	.LFE28
 3741 00e0 00000000 		.4byte	.LFB29
 3742 00e4 24000000 		.4byte	.LFE29
 3743 00e8 00000000 		.4byte	.LFB30
 3744 00ec 28000000 		.4byte	.LFE30
 3745 00f0 00000000 		.4byte	.LFB31
 3746 00f4 24000000 		.4byte	.LFE31
 3747 00f8 00000000 		.4byte	.LFB32
 3748 00fc 24000000 		.4byte	.LFE32
 3749 0100 00000000 		.4byte	.LFB33
 3750 0104 1C000000 		.4byte	.LFE33
 3751 0108 00000000 		.4byte	.LFB1
 3752 010c 24000000 		.4byte	.LFE1
 3753 0110 00000000 		.4byte	.LFB2
ARM GAS  C:\Users\VIDEOH~1\AppData\Local\Temp\ccfC0KgD.s 			page 96


 3754 0114 1C000000 		.4byte	.LFE2
 3755 0118 00000000 		.4byte	.LFB34
 3756 011c 14000000 		.4byte	.LFE34
 3757 0120 00000000 		.4byte	.LFB35
 3758 0124 0C000000 		.4byte	.LFE35
 3759 0128 00000000 		.4byte	.LFB36
 3760 012c 0C000000 		.4byte	.LFE36
 3761 0130 00000000 		.4byte	.LFB37
 3762 0134 0C000000 		.4byte	.LFE37
 3763 0138 00000000 		.4byte	.LFB38
 3764 013c 0C000000 		.4byte	.LFE38
 3765 0140 00000000 		.4byte	.LFB39
 3766 0144 0C000000 		.4byte	.LFE39
 3767 0148 00000000 		.4byte	0
 3768 014c 00000000 		.4byte	0
 3769              		.section	.debug_line,"",%progbits
 3770              	.Ldebug_line0:
 3771 0000 D8030000 		.section	.debug_str,"MS",%progbits,1
 3771      02005D00 
 3771      00000201 
 3771      FB0E0D00 
 3771      01010101 
 3772              	.LASF23:
 3773 0000 636F756E 		.ascii	"count\000"
 3773      7400
 3774              	.LASF72:
 3775 0006 46616E43 		.ascii	"FanController_FW_PWM1_ClearInterrupt\000"
 3775      6F6E7472 
 3775      6F6C6C65 
 3775      725F4657 
 3775      5F50574D 
 3776              	.LASF75:
 3777 002b 43794578 		.ascii	"CyExitCriticalSection\000"
 3777      69744372 
 3777      69746963 
 3777      616C5365 
 3777      6374696F 
 3778              	.LASF68:
 3779 0041 46616E43 		.ascii	"FanController_FW_PWM1_Start\000"
 3779      6F6E7472 
 3779      6F6C6C65 
 3779      725F4657 
 3779      5F50574D 
 3780              	.LASF61:
 3781 005d 46616E43 		.ascii	"FanController_FW_PWM1_SetReloadMode\000"
 3781      6F6E7472 
 3781      6F6C6C65 
 3781      725F4657 
 3781      5F50574D 
 3782              	.LASF67:
 3783 0081 46616E43 		.ascii	"FanController_FW_PWM1_Enable\000"
 3783      6F6E7472 
 3783      6F6C6C65 
 3783      725F4657 
 3783      5F50574D 
 3784              	.LASF17:
 3785 009e 46616E43 		.ascii	"FanController_FW_PWM1_WritePeriod\000"
ARM GAS  C:\Users\VIDEOH~1\AppData\Local\Temp\ccfC0KgD.s 			page 97


 3785      6F6E7472 
 3785      6F6C6C65 
 3785      725F4657 
 3785      5F50574D 
 3786              	.LASF19:
 3787 00c0 70657269 		.ascii	"period\000"
 3787      6F6400
 3788              	.LASF79:
 3789 00c7 46616E43 		.ascii	"FanController_FW_PWM1_initVar\000"
 3789      6F6E7472 
 3789      6F6C6C65 
 3789      725F4657 
 3789      5F50574D 
 3790              	.LASF24:
 3791 00e5 46616E43 		.ascii	"FanController_FW_PWM1_Init\000"
 3791      6F6E7472 
 3791      6F6C6C65 
 3791      725F4657 
 3791      5F50574D 
 3792              	.LASF7:
 3793 0100 6C6F6E67 		.ascii	"long long unsigned int\000"
 3793      206C6F6E 
 3793      6720756E 
 3793      7369676E 
 3793      65642069 
 3794              	.LASF69:
 3795 0117 46616E43 		.ascii	"FanController_FW_PWM1_ReadStatus\000"
 3795      6F6E7472 
 3795      6F6C6C65 
 3795      725F4657 
 3795      5F50574D 
 3796              	.LASF30:
 3797 0138 71644D6F 		.ascii	"qdMode\000"
 3797      646500
 3798              	.LASF70:
 3799 013f 46616E43 		.ascii	"FanController_FW_PWM1_GetInterruptSourceMasked\000"
 3799      6F6E7472 
 3799      6F6C6C65 
 3799      725F4657 
 3799      5F50574D 
 3800              	.LASF6:
 3801 016e 6C6F6E67 		.ascii	"long long int\000"
 3801      206C6F6E 
 3801      6720696E 
 3801      7400
 3802              	.LASF0:
 3803 017c 7369676E 		.ascii	"signed char\000"
 3803      65642063 
 3803      68617200 
 3804              	.LASF41:
 3805 0188 46616E43 		.ascii	"FanController_FW_PWM1_SetPWMDeadTime\000"
 3805      6F6E7472 
 3805      6F6C6C65 
 3805      725F4657 
 3805      5F50574D 
 3806              	.LASF4:
 3807 01ad 6C6F6E67 		.ascii	"long int\000"
ARM GAS  C:\Users\VIDEOH~1\AppData\Local\Temp\ccfC0KgD.s 			page 98


 3807      20696E74 
 3807      00
 3808              	.LASF26:
 3809 01b6 46616E43 		.ascii	"FanController_FW_PWM1_SetMode\000"
 3809      6F6E7472 
 3809      6F6C6C65 
 3809      725F4657 
 3809      5F50574D 
 3810              	.LASF9:
 3811 01d4 75696E74 		.ascii	"uint8\000"
 3811      3800
 3812              	.LASF57:
 3813 01da 46616E43 		.ascii	"FanController_FW_PWM1_ReadCapture\000"
 3813      6F6E7472 
 3813      6F6C6C65 
 3813      725F4657 
 3813      5F50574D 
 3814              	.LASF12:
 3815 01fc 646F7562 		.ascii	"double\000"
 3815      6C6500
 3816              	.LASF48:
 3817 0203 46616E43 		.ascii	"FanController_FW_PWM1_ReadPeriod\000"
 3817      6F6E7472 
 3817      6F6C6C65 
 3817      725F4657 
 3817      5F50574D 
 3818              	.LASF10:
 3819 0224 75696E74 		.ascii	"uint32\000"
 3819      333200
 3820              	.LASF43:
 3821 022b 46616E43 		.ascii	"FanController_FW_PWM1_SetPWMInvert\000"
 3821      6F6E7472 
 3821      6F6C6C65 
 3821      725F4657 
 3821      5F50574D 
 3822              	.LASF60:
 3823 024e 74726967 		.ascii	"triggerMode\000"
 3823      6765724D 
 3823      6F646500 
 3824              	.LASF44:
 3825 025a 6D61736B 		.ascii	"mask\000"
 3825      00
 3826              	.LASF51:
 3827 025f 46616E43 		.ascii	"FanController_FW_PWM1_WritePeriodBuf\000"
 3827      6F6E7472 
 3827      6F6C6C65 
 3827      725F4657 
 3827      5F50574D 
 3828              	.LASF42:
 3829 0284 64656164 		.ascii	"deadTime\000"
 3829      54696D65 
 3829      00
 3830              	.LASF16:
 3831 028d 46616E43 		.ascii	"FanController_FW_PWM1_WriteCompare\000"
 3831      6F6E7472 
 3831      6F6C6C65 
 3831      725F4657 
ARM GAS  C:\Users\VIDEOH~1\AppData\Local\Temp\ccfC0KgD.s 			page 99


 3831      5F50574D 
 3832              	.LASF55:
 3833 02b0 46616E43 		.ascii	"FanController_FW_PWM1_WriteCompareBuf\000"
 3833      6F6E7472 
 3833      6F6C6C65 
 3833      725F4657 
 3833      5F50574D 
 3834              	.LASF8:
 3835 02d6 756E7369 		.ascii	"unsigned int\000"
 3835      676E6564 
 3835      20696E74 
 3835      00
 3836              	.LASF39:
 3837 02e3 46616E43 		.ascii	"FanController_FW_PWM1_SetPWMStopOnKill\000"
 3837      6F6E7472 
 3837      6F6C6C65 
 3837      725F4657 
 3837      5F50574D 
 3838              	.LASF66:
 3839 030a 636F6D6D 		.ascii	"command\000"
 3839      616E6400 
 3840              	.LASF5:
 3841 0312 6C6F6E67 		.ascii	"long unsigned int\000"
 3841      20756E73 
 3841      69676E65 
 3841      6420696E 
 3841      7400
 3842              	.LASF36:
 3843 0324 6D6F6465 		.ascii	"modeMask\000"
 3843      4D61736B 
 3843      00
 3844              	.LASF74:
 3845 032d 4379456E 		.ascii	"CyEnterCriticalSection\000"
 3845      74657243 
 3845      72697469 
 3845      63616C53 
 3845      65637469 
 3846              	.LASF3:
 3847 0344 73686F72 		.ascii	"short unsigned int\000"
 3847      7420756E 
 3847      7369676E 
 3847      65642069 
 3847      6E7400
 3848              	.LASF58:
 3849 0357 46616E43 		.ascii	"FanController_FW_PWM1_ReadCaptureBuf\000"
 3849      6F6E7472 
 3849      6F6C6C65 
 3849      725F4657 
 3849      5F50574D 
 3850              	.LASF35:
 3851 037c 46616E43 		.ascii	"FanController_FW_PWM1_SetPWMMode\000"
 3851      6F6E7472 
 3851      6F6C6C65 
 3851      725F4657 
 3851      5F50574D 
 3852              	.LASF34:
 3853 039d 6F6E6553 		.ascii	"oneShotEnable\000"
ARM GAS  C:\Users\VIDEOH~1\AppData\Local\Temp\ccfC0KgD.s 			page 100


 3853      686F7445 
 3853      6E61626C 
 3853      6500
 3854              	.LASF31:
 3855 03ab 46616E43 		.ascii	"FanController_FW_PWM1_SetPrescaler\000"
 3855      6F6E7472 
 3855      6F6C6C65 
 3855      725F4657 
 3855      5F50574D 
 3856              	.LASF22:
 3857 03ce 46616E43 		.ascii	"FanController_FW_PWM1_WriteCounter\000"
 3857      6F6E7472 
 3857      6F6C6C65 
 3857      725F4657 
 3857      5F50574D 
 3858              	.LASF14:
 3859 03f1 72656733 		.ascii	"reg32\000"
 3859      3200
 3860              	.LASF15:
 3861 03f7 73697A65 		.ascii	"sizetype\000"
 3861      74797065 
 3861      00
 3862              	.LASF38:
 3863 0400 73796E63 		.ascii	"syncKillEnable\000"
 3863      4B696C6C 
 3863      456E6162 
 3863      6C6500
 3864              	.LASF45:
 3865 040f 46616E43 		.ascii	"FanController_FW_PWM1_SetCounterMode\000"
 3865      6F6E7472 
 3865      6F6C6C65 
 3865      725F4657 
 3865      5F50574D 
 3866              	.LASF18:
 3867 0434 636F6D70 		.ascii	"compare\000"
 3867      61726500 
 3868              	.LASF20:
 3869 043c 46616E43 		.ascii	"FanController_FW_PWM1_SetInterruptMode\000"
 3869      6F6E7472 
 3869      6F6C6C65 
 3869      725F4657 
 3869      5F50574D 
 3870              	.LASF11:
 3871 0463 666C6F61 		.ascii	"float\000"
 3871      7400
 3872              	.LASF32:
 3873 0469 70726573 		.ascii	"prescaler\000"
 3873      63616C65 
 3873      7200
 3874              	.LASF28:
 3875 0473 46616E43 		.ascii	"FanController_FW_PWM1_SetQDMode\000"
 3875      6F6E7472 
 3875      6F6C6C65 
 3875      725F4657 
 3875      5F50574D 
 3876              	.LASF1:
 3877 0493 756E7369 		.ascii	"unsigned char\000"
ARM GAS  C:\Users\VIDEOH~1\AppData\Local\Temp\ccfC0KgD.s 			page 101


 3877      676E6564 
 3877      20636861 
 3877      7200
 3878              	.LASF59:
 3879 04a1 46616E43 		.ascii	"FanController_FW_PWM1_SetCaptureMode\000"
 3879      6F6E7472 
 3879      6F6C6C65 
 3879      725F4657 
 3879      5F50574D 
 3880              	.LASF40:
 3881 04c6 73746F70 		.ascii	"stopOnKillEnable\000"
 3881      4F6E4B69 
 3881      6C6C456E 
 3881      61626C65 
 3881      00
 3882              	.LASF2:
 3883 04d7 73686F72 		.ascii	"short int\000"
 3883      7420696E 
 3883      7400
 3884              	.LASF77:
 3885 04e1 47656E65 		.ascii	"Generated_Source\\PSoC4\\FanController_FW_PWM1.c\000"
 3885      72617465 
 3885      645F536F 
 3885      75726365 
 3885      5C50536F 
 3886              	.LASF25:
 3887 0510 46616E43 		.ascii	"FanController_FW_PWM1_Stop\000"
 3887      6F6E7472 
 3887      6F6C6C65 
 3887      725F4657 
 3887      5F50574D 
 3888              	.LASF21:
 3889 052b 696E7465 		.ascii	"interruptMask\000"
 3889      72727570 
 3889      744D6173 
 3889      6B00
 3890              	.LASF76:
 3891 0539 474E5520 		.ascii	"GNU C99 5.4.1 20160609 (release) [ARM/embedded-5-br"
 3891      43393920 
 3891      352E342E 
 3891      31203230 
 3891      31363036 
 3892 056c 616E6368 		.ascii	"anch revision 237715] -mcpu=cortex-m0 -mthumb -g -O"
 3892      20726576 
 3892      6973696F 
 3892      6E203233 
 3892      37373135 
 3893 059f 73202D73 		.ascii	"s -std=gnu99 -ffunction-sections -ffat-lto-objects\000"
 3893      74643D67 
 3893      6E753939 
 3893      202D6666 
 3893      756E6374 
 3894              	.LASF47:
 3895 05d2 46616E43 		.ascii	"FanController_FW_PWM1_ReadCounter\000"
 3895      6F6E7472 
 3895      6F6C6C65 
 3895      725F4657 
ARM GAS  C:\Users\VIDEOH~1\AppData\Local\Temp\ccfC0KgD.s 			page 102


 3895      5F50574D 
 3896              	.LASF62:
 3897 05f4 46616E43 		.ascii	"FanController_FW_PWM1_SetStartMode\000"
 3897      6F6E7472 
 3897      6F6C6C65 
 3897      725F4657 
 3897      5F50574D 
 3898              	.LASF13:
 3899 0617 63686172 		.ascii	"char\000"
 3899      00
 3900              	.LASF29:
 3901 061c 6D6F6465 		.ascii	"mode\000"
 3901      00
 3902              	.LASF73:
 3903 0621 46616E43 		.ascii	"FanController_FW_PWM1_SetInterrupt\000"
 3903      6F6E7472 
 3903      6F6C6C65 
 3903      725F4657 
 3903      5F50574D 
 3904              	.LASF49:
 3905 0644 46616E43 		.ascii	"FanController_FW_PWM1_SetCompareSwap\000"
 3905      6F6E7472 
 3905      6F6C6C65 
 3905      725F4657 
 3905      5F50574D 
 3906              	.LASF53:
 3907 0669 46616E43 		.ascii	"FanController_FW_PWM1_ReadPeriodBuf\000"
 3907      6F6E7472 
 3907      6F6C6C65 
 3907      725F4657 
 3907      5F50574D 
 3908              	.LASF46:
 3909 068d 636F756E 		.ascii	"counterMode\000"
 3909      7465724D 
 3909      6F646500 
 3910              	.LASF56:
 3911 0699 636F6D70 		.ascii	"compareBuf\000"
 3911      61726542 
 3911      756600
 3912              	.LASF78:
 3913 06a4 443A5C31 		.ascii	"D:\\1_work\\my_project\\ReloadPro\\psoc42boot\\Relo"
 3913      5F776F72 
 3913      6B5C6D79 
 3913      5F70726F 
 3913      6A656374 
 3914 06d2 61642050 		.ascii	"ad Pro.cydsn\000"
 3914      726F2E63 
 3914      7964736E 
 3914      00
 3915              	.LASF27:
 3916 06df 656E6162 		.ascii	"enableInterrupts\000"
 3916      6C65496E 
 3916      74657272 
 3916      75707473 
 3916      00
 3917              	.LASF54:
 3918 06f0 46616E43 		.ascii	"FanController_FW_PWM1_SetPeriodSwap\000"
ARM GAS  C:\Users\VIDEOH~1\AppData\Local\Temp\ccfC0KgD.s 			page 103


 3918      6F6E7472 
 3918      6F6C6C65 
 3918      725F4657 
 3918      5F50574D 
 3919              	.LASF37:
 3920 0714 46616E43 		.ascii	"FanController_FW_PWM1_SetPWMSyncKill\000"
 3920      6F6E7472 
 3920      6F6C6C65 
 3920      725F4657 
 3920      5F50574D 
 3921              	.LASF64:
 3922 0739 46616E43 		.ascii	"FanController_FW_PWM1_SetCountMode\000"
 3922      6F6E7472 
 3922      6F6C6C65 
 3922      725F4657 
 3922      5F50574D 
 3923              	.LASF63:
 3924 075c 46616E43 		.ascii	"FanController_FW_PWM1_SetStopMode\000"
 3924      6F6E7472 
 3924      6F6C6C65 
 3924      725F4657 
 3924      5F50574D 
 3925              	.LASF71:
 3926 077e 46616E43 		.ascii	"FanController_FW_PWM1_GetInterruptSource\000"
 3926      6F6E7472 
 3926      6F6C6C65 
 3926      725F4657 
 3926      5F50574D 
 3927              	.LASF50:
 3928 07a7 73776170 		.ascii	"swapEnable\000"
 3928      456E6162 
 3928      6C6500
 3929              	.LASF52:
 3930 07b2 70657269 		.ascii	"periodBuf\000"
 3930      6F644275 
 3930      6600
 3931              	.LASF65:
 3932 07bc 46616E43 		.ascii	"FanController_FW_PWM1_TriggerCommand\000"
 3932      6F6E7472 
 3932      6F6C6C65 
 3932      725F4657 
 3932      5F50574D 
 3933              	.LASF33:
 3934 07e1 46616E43 		.ascii	"FanController_FW_PWM1_SetOneShot\000"
 3934      6F6E7472 
 3934      6F6C6C65 
 3934      725F4657 
 3934      5F50574D 
 3935              		.ident	"GCC: (GNU Tools for ARM Embedded Processors) 5.4.1 20160609 (release) [ARM/embedded-5-bran
