ARM GAS  C:\Users\VIDEOH~1\AppData\Local\Temp\cc3LHdap.s 			page 1


   1              		.syntax unified
   2              		.cpu cortex-m0
   3              		.fpu softvfp
   4              		.eabi_attribute 20, 1
   5              		.eabi_attribute 21, 1
   6              		.eabi_attribute 23, 3
   7              		.eabi_attribute 24, 1
   8              		.eabi_attribute 25, 1
   9              		.eabi_attribute 26, 1
  10              		.eabi_attribute 30, 4
  11              		.eabi_attribute 34, 0
  12              		.eabi_attribute 18, 4
  13              		.thumb
  14              		.syntax unified
  15              		.file	"FanController_DataSend.c"
  16              		.text
  17              	.Ltext0:
  18              		.cfi_sections	.debug_frame
  19              		.section	.text.FanController_DataSend_Interrupt,"ax",%progbits
  20              		.align	1
  21              		.global	FanController_DataSend_Interrupt
  22              		.code	16
  23              		.thumb_func
  24              		.type	FanController_DataSend_Interrupt, %function
  25              	FanController_DataSend_Interrupt:
  26              	.LFB3:
  27              		.file 1 "Generated_Source\\PSoC4\\FanController_DataSend.c"
   1:Generated_Source\PSoC4/FanController_DataSend.c **** /*******************************************************************************
   2:Generated_Source\PSoC4/FanController_DataSend.c **** * File Name: FanController_DataSend.c  
   3:Generated_Source\PSoC4/FanController_DataSend.c **** * Version 1.70
   4:Generated_Source\PSoC4/FanController_DataSend.c **** *
   5:Generated_Source\PSoC4/FanController_DataSend.c **** *  Description:
   6:Generated_Source\PSoC4/FanController_DataSend.c **** *   API for controlling the state of an interrupt.
   7:Generated_Source\PSoC4/FanController_DataSend.c **** *
   8:Generated_Source\PSoC4/FanController_DataSend.c **** *
   9:Generated_Source\PSoC4/FanController_DataSend.c **** *  Note:
  10:Generated_Source\PSoC4/FanController_DataSend.c **** *
  11:Generated_Source\PSoC4/FanController_DataSend.c **** ********************************************************************************
  12:Generated_Source\PSoC4/FanController_DataSend.c **** * Copyright 2008-2015, Cypress Semiconductor Corporation.  All rights reserved.
  13:Generated_Source\PSoC4/FanController_DataSend.c **** * You may use this file only in accordance with the license, terms, conditions, 
  14:Generated_Source\PSoC4/FanController_DataSend.c **** * disclaimers, and limitations in the end user license agreement accompanying 
  15:Generated_Source\PSoC4/FanController_DataSend.c **** * the software package with which this file was provided.
  16:Generated_Source\PSoC4/FanController_DataSend.c **** *******************************************************************************/
  17:Generated_Source\PSoC4/FanController_DataSend.c **** 
  18:Generated_Source\PSoC4/FanController_DataSend.c **** 
  19:Generated_Source\PSoC4/FanController_DataSend.c **** #include <cydevice_trm.h>
  20:Generated_Source\PSoC4/FanController_DataSend.c **** #include <CyLib.h>
  21:Generated_Source\PSoC4/FanController_DataSend.c **** #include <FanController_DataSend.h>
  22:Generated_Source\PSoC4/FanController_DataSend.c **** 
  23:Generated_Source\PSoC4/FanController_DataSend.c **** 
  24:Generated_Source\PSoC4/FanController_DataSend.c **** #if !defined(FanController_DataSend__REMOVED) /* Check for removal by optimization */
  25:Generated_Source\PSoC4/FanController_DataSend.c **** 
  26:Generated_Source\PSoC4/FanController_DataSend.c **** /*******************************************************************************
  27:Generated_Source\PSoC4/FanController_DataSend.c **** *  Place your includes, defines and code here 
  28:Generated_Source\PSoC4/FanController_DataSend.c **** ********************************************************************************/
  29:Generated_Source\PSoC4/FanController_DataSend.c **** /* `#START FanController_DataSend_intc` */
  30:Generated_Source\PSoC4/FanController_DataSend.c **** 
ARM GAS  C:\Users\VIDEOH~1\AppData\Local\Temp\cc3LHdap.s 			page 2


  31:Generated_Source\PSoC4/FanController_DataSend.c **** /* `#END` */
  32:Generated_Source\PSoC4/FanController_DataSend.c **** 
  33:Generated_Source\PSoC4/FanController_DataSend.c **** extern cyisraddress CyRamVectors[CYINT_IRQ_BASE + CY_NUM_INTERRUPTS];
  34:Generated_Source\PSoC4/FanController_DataSend.c **** 
  35:Generated_Source\PSoC4/FanController_DataSend.c **** /* Declared in startup, used to set unused interrupts to. */
  36:Generated_Source\PSoC4/FanController_DataSend.c **** CY_ISR_PROTO(IntDefaultHandler);
  37:Generated_Source\PSoC4/FanController_DataSend.c **** 
  38:Generated_Source\PSoC4/FanController_DataSend.c **** 
  39:Generated_Source\PSoC4/FanController_DataSend.c **** /*******************************************************************************
  40:Generated_Source\PSoC4/FanController_DataSend.c **** * Function Name: FanController_DataSend_Start
  41:Generated_Source\PSoC4/FanController_DataSend.c **** ********************************************************************************
  42:Generated_Source\PSoC4/FanController_DataSend.c **** *
  43:Generated_Source\PSoC4/FanController_DataSend.c **** * Summary:
  44:Generated_Source\PSoC4/FanController_DataSend.c **** *  Set up the interrupt and enable it. This function disables the interrupt, 
  45:Generated_Source\PSoC4/FanController_DataSend.c **** *  sets the default interrupt vector, sets the priority from the value in the
  46:Generated_Source\PSoC4/FanController_DataSend.c **** *  Design Wide Resources Interrupt Editor, then enables the interrupt to the 
  47:Generated_Source\PSoC4/FanController_DataSend.c **** *  interrupt controller.
  48:Generated_Source\PSoC4/FanController_DataSend.c **** *
  49:Generated_Source\PSoC4/FanController_DataSend.c **** * Parameters:  
  50:Generated_Source\PSoC4/FanController_DataSend.c **** *   None
  51:Generated_Source\PSoC4/FanController_DataSend.c **** *
  52:Generated_Source\PSoC4/FanController_DataSend.c **** * Return:
  53:Generated_Source\PSoC4/FanController_DataSend.c **** *   None
  54:Generated_Source\PSoC4/FanController_DataSend.c **** *
  55:Generated_Source\PSoC4/FanController_DataSend.c **** *******************************************************************************/
  56:Generated_Source\PSoC4/FanController_DataSend.c **** void FanController_DataSend_Start(void)
  57:Generated_Source\PSoC4/FanController_DataSend.c **** {
  58:Generated_Source\PSoC4/FanController_DataSend.c ****     /* For all we know the interrupt is active. */
  59:Generated_Source\PSoC4/FanController_DataSend.c ****     FanController_DataSend_Disable();
  60:Generated_Source\PSoC4/FanController_DataSend.c **** 
  61:Generated_Source\PSoC4/FanController_DataSend.c ****     /* Set the ISR to point to the FanController_DataSend Interrupt. */
  62:Generated_Source\PSoC4/FanController_DataSend.c ****     FanController_DataSend_SetVector(&FanController_DataSend_Interrupt);
  63:Generated_Source\PSoC4/FanController_DataSend.c **** 
  64:Generated_Source\PSoC4/FanController_DataSend.c ****     /* Set the priority. */
  65:Generated_Source\PSoC4/FanController_DataSend.c ****     FanController_DataSend_SetPriority((uint8)FanController_DataSend_INTC_PRIOR_NUMBER);
  66:Generated_Source\PSoC4/FanController_DataSend.c **** 
  67:Generated_Source\PSoC4/FanController_DataSend.c ****     /* Enable it. */
  68:Generated_Source\PSoC4/FanController_DataSend.c ****     FanController_DataSend_Enable();
  69:Generated_Source\PSoC4/FanController_DataSend.c **** }
  70:Generated_Source\PSoC4/FanController_DataSend.c **** 
  71:Generated_Source\PSoC4/FanController_DataSend.c **** 
  72:Generated_Source\PSoC4/FanController_DataSend.c **** /*******************************************************************************
  73:Generated_Source\PSoC4/FanController_DataSend.c **** * Function Name: FanController_DataSend_StartEx
  74:Generated_Source\PSoC4/FanController_DataSend.c **** ********************************************************************************
  75:Generated_Source\PSoC4/FanController_DataSend.c **** *
  76:Generated_Source\PSoC4/FanController_DataSend.c **** * Summary:
  77:Generated_Source\PSoC4/FanController_DataSend.c **** *  Sets up the interrupt and enables it. This function disables the interrupt,
  78:Generated_Source\PSoC4/FanController_DataSend.c **** *  sets the interrupt vector based on the address passed in, sets the priority 
  79:Generated_Source\PSoC4/FanController_DataSend.c **** *  from the value in the Design Wide Resources Interrupt Editor, then enables 
  80:Generated_Source\PSoC4/FanController_DataSend.c **** *  the interrupt to the interrupt controller.
  81:Generated_Source\PSoC4/FanController_DataSend.c **** *  
  82:Generated_Source\PSoC4/FanController_DataSend.c **** *  When defining ISR functions, the CY_ISR and CY_ISR_PROTO macros should be 
  83:Generated_Source\PSoC4/FanController_DataSend.c **** *  used to provide consistent definition across compilers:
  84:Generated_Source\PSoC4/FanController_DataSend.c **** *  
  85:Generated_Source\PSoC4/FanController_DataSend.c **** *  Function definition example:
  86:Generated_Source\PSoC4/FanController_DataSend.c **** *   CY_ISR(MyISR)
  87:Generated_Source\PSoC4/FanController_DataSend.c **** *   {
ARM GAS  C:\Users\VIDEOH~1\AppData\Local\Temp\cc3LHdap.s 			page 3


  88:Generated_Source\PSoC4/FanController_DataSend.c **** *   }
  89:Generated_Source\PSoC4/FanController_DataSend.c **** *   Function prototype example:
  90:Generated_Source\PSoC4/FanController_DataSend.c **** *   CY_ISR_PROTO(MyISR);
  91:Generated_Source\PSoC4/FanController_DataSend.c **** *
  92:Generated_Source\PSoC4/FanController_DataSend.c **** * Parameters:  
  93:Generated_Source\PSoC4/FanController_DataSend.c **** *   address: Address of the ISR to set in the interrupt vector table.
  94:Generated_Source\PSoC4/FanController_DataSend.c **** *
  95:Generated_Source\PSoC4/FanController_DataSend.c **** * Return:
  96:Generated_Source\PSoC4/FanController_DataSend.c **** *   None
  97:Generated_Source\PSoC4/FanController_DataSend.c **** *
  98:Generated_Source\PSoC4/FanController_DataSend.c **** *******************************************************************************/
  99:Generated_Source\PSoC4/FanController_DataSend.c **** void FanController_DataSend_StartEx(cyisraddress address)
 100:Generated_Source\PSoC4/FanController_DataSend.c **** {
 101:Generated_Source\PSoC4/FanController_DataSend.c ****     /* For all we know the interrupt is active. */
 102:Generated_Source\PSoC4/FanController_DataSend.c ****     FanController_DataSend_Disable();
 103:Generated_Source\PSoC4/FanController_DataSend.c **** 
 104:Generated_Source\PSoC4/FanController_DataSend.c ****     /* Set the ISR to point to the FanController_DataSend Interrupt. */
 105:Generated_Source\PSoC4/FanController_DataSend.c ****     FanController_DataSend_SetVector(address);
 106:Generated_Source\PSoC4/FanController_DataSend.c **** 
 107:Generated_Source\PSoC4/FanController_DataSend.c ****     /* Set the priority. */
 108:Generated_Source\PSoC4/FanController_DataSend.c ****     FanController_DataSend_SetPriority((uint8)FanController_DataSend_INTC_PRIOR_NUMBER);
 109:Generated_Source\PSoC4/FanController_DataSend.c **** 
 110:Generated_Source\PSoC4/FanController_DataSend.c ****     /* Enable it. */
 111:Generated_Source\PSoC4/FanController_DataSend.c ****     FanController_DataSend_Enable();
 112:Generated_Source\PSoC4/FanController_DataSend.c **** }
 113:Generated_Source\PSoC4/FanController_DataSend.c **** 
 114:Generated_Source\PSoC4/FanController_DataSend.c **** 
 115:Generated_Source\PSoC4/FanController_DataSend.c **** /*******************************************************************************
 116:Generated_Source\PSoC4/FanController_DataSend.c **** * Function Name: FanController_DataSend_Stop
 117:Generated_Source\PSoC4/FanController_DataSend.c **** ********************************************************************************
 118:Generated_Source\PSoC4/FanController_DataSend.c **** *
 119:Generated_Source\PSoC4/FanController_DataSend.c **** * Summary:
 120:Generated_Source\PSoC4/FanController_DataSend.c **** *   Disables and removes the interrupt.
 121:Generated_Source\PSoC4/FanController_DataSend.c **** *
 122:Generated_Source\PSoC4/FanController_DataSend.c **** * Parameters:  
 123:Generated_Source\PSoC4/FanController_DataSend.c **** *   None
 124:Generated_Source\PSoC4/FanController_DataSend.c **** *
 125:Generated_Source\PSoC4/FanController_DataSend.c **** * Return:
 126:Generated_Source\PSoC4/FanController_DataSend.c **** *   None
 127:Generated_Source\PSoC4/FanController_DataSend.c **** *
 128:Generated_Source\PSoC4/FanController_DataSend.c **** *******************************************************************************/
 129:Generated_Source\PSoC4/FanController_DataSend.c **** void FanController_DataSend_Stop(void)
 130:Generated_Source\PSoC4/FanController_DataSend.c **** {
 131:Generated_Source\PSoC4/FanController_DataSend.c ****     /* Disable this interrupt. */
 132:Generated_Source\PSoC4/FanController_DataSend.c ****     FanController_DataSend_Disable();
 133:Generated_Source\PSoC4/FanController_DataSend.c **** 
 134:Generated_Source\PSoC4/FanController_DataSend.c ****     /* Set the ISR to point to the passive one. */
 135:Generated_Source\PSoC4/FanController_DataSend.c ****     FanController_DataSend_SetVector(&IntDefaultHandler);
 136:Generated_Source\PSoC4/FanController_DataSend.c **** }
 137:Generated_Source\PSoC4/FanController_DataSend.c **** 
 138:Generated_Source\PSoC4/FanController_DataSend.c **** 
 139:Generated_Source\PSoC4/FanController_DataSend.c **** /*******************************************************************************
 140:Generated_Source\PSoC4/FanController_DataSend.c **** * Function Name: FanController_DataSend_Interrupt
 141:Generated_Source\PSoC4/FanController_DataSend.c **** ********************************************************************************
 142:Generated_Source\PSoC4/FanController_DataSend.c **** *
 143:Generated_Source\PSoC4/FanController_DataSend.c **** * Summary:
 144:Generated_Source\PSoC4/FanController_DataSend.c **** *   The default Interrupt Service Routine for FanController_DataSend.
ARM GAS  C:\Users\VIDEOH~1\AppData\Local\Temp\cc3LHdap.s 			page 4


 145:Generated_Source\PSoC4/FanController_DataSend.c **** *
 146:Generated_Source\PSoC4/FanController_DataSend.c **** *   Add custom code between the START and END comments to keep the next version
 147:Generated_Source\PSoC4/FanController_DataSend.c **** *   of this file from over-writing your code.
 148:Generated_Source\PSoC4/FanController_DataSend.c **** *
 149:Generated_Source\PSoC4/FanController_DataSend.c **** *   Note You may use either the default ISR by using this API, or you may define
 150:Generated_Source\PSoC4/FanController_DataSend.c **** *   your own separate ISR through ISR_StartEx().
 151:Generated_Source\PSoC4/FanController_DataSend.c **** *
 152:Generated_Source\PSoC4/FanController_DataSend.c **** * Parameters:  
 153:Generated_Source\PSoC4/FanController_DataSend.c **** *   None
 154:Generated_Source\PSoC4/FanController_DataSend.c **** *
 155:Generated_Source\PSoC4/FanController_DataSend.c **** * Return:
 156:Generated_Source\PSoC4/FanController_DataSend.c **** *   None
 157:Generated_Source\PSoC4/FanController_DataSend.c **** *
 158:Generated_Source\PSoC4/FanController_DataSend.c **** *******************************************************************************/
 159:Generated_Source\PSoC4/FanController_DataSend.c **** CY_ISR(FanController_DataSend_Interrupt)
 160:Generated_Source\PSoC4/FanController_DataSend.c **** {
  28              		.loc 1 160 0
  29              		.cfi_startproc
  30              		@ args = 0, pretend = 0, frame = 0
  31              		@ frame_needed = 0, uses_anonymous_args = 0
  32              		@ link register save eliminated.
 161:Generated_Source\PSoC4/FanController_DataSend.c ****     #ifdef FanController_DataSend_INTERRUPT_INTERRUPT_CALLBACK
 162:Generated_Source\PSoC4/FanController_DataSend.c ****         FanController_DataSend_Interrupt_InterruptCallback();
 163:Generated_Source\PSoC4/FanController_DataSend.c ****     #endif /* FanController_DataSend_INTERRUPT_INTERRUPT_CALLBACK */ 
 164:Generated_Source\PSoC4/FanController_DataSend.c **** 
 165:Generated_Source\PSoC4/FanController_DataSend.c ****     /*  Place your Interrupt code here. */
 166:Generated_Source\PSoC4/FanController_DataSend.c ****     /* `#START FanController_DataSend_Interrupt` */
 167:Generated_Source\PSoC4/FanController_DataSend.c **** 
 168:Generated_Source\PSoC4/FanController_DataSend.c ****     /* `#END` */
 169:Generated_Source\PSoC4/FanController_DataSend.c **** }
  33              		.loc 1 169 0
  34              		@ sp needed
  35 0000 7047     		bx	lr
  36              		.cfi_endproc
  37              	.LFE3:
  38              		.size	FanController_DataSend_Interrupt, .-FanController_DataSend_Interrupt
  39              		.section	.text.FanController_DataSend_Stop,"ax",%progbits
  40              		.align	1
  41              		.global	FanController_DataSend_Stop
  42              		.code	16
  43              		.thumb_func
  44              		.type	FanController_DataSend_Stop, %function
  45              	FanController_DataSend_Stop:
  46              	.LFB2:
 130:Generated_Source\PSoC4/FanController_DataSend.c ****     /* Disable this interrupt. */
  47              		.loc 1 130 0
  48              		.cfi_startproc
  49              		@ args = 0, pretend = 0, frame = 0
  50              		@ frame_needed = 0, uses_anonymous_args = 0
  51              		@ link register save eliminated.
  52              	.LBB18:
  53              	.LBB19:
 170:Generated_Source\PSoC4/FanController_DataSend.c **** 
 171:Generated_Source\PSoC4/FanController_DataSend.c **** 
 172:Generated_Source\PSoC4/FanController_DataSend.c **** /*******************************************************************************
 173:Generated_Source\PSoC4/FanController_DataSend.c **** * Function Name: FanController_DataSend_SetVector
 174:Generated_Source\PSoC4/FanController_DataSend.c **** ********************************************************************************
ARM GAS  C:\Users\VIDEOH~1\AppData\Local\Temp\cc3LHdap.s 			page 5


 175:Generated_Source\PSoC4/FanController_DataSend.c **** *
 176:Generated_Source\PSoC4/FanController_DataSend.c **** * Summary:
 177:Generated_Source\PSoC4/FanController_DataSend.c **** *   Change the ISR vector for the Interrupt. Note calling FanController_DataSend_Start
 178:Generated_Source\PSoC4/FanController_DataSend.c **** *   will override any effect this method would have had. To set the vector 
 179:Generated_Source\PSoC4/FanController_DataSend.c **** *   before the component has been started use FanController_DataSend_StartEx instead.
 180:Generated_Source\PSoC4/FanController_DataSend.c **** * 
 181:Generated_Source\PSoC4/FanController_DataSend.c **** *   When defining ISR functions, the CY_ISR and CY_ISR_PROTO macros should be 
 182:Generated_Source\PSoC4/FanController_DataSend.c **** *   used to provide consistent definition across compilers:
 183:Generated_Source\PSoC4/FanController_DataSend.c **** *
 184:Generated_Source\PSoC4/FanController_DataSend.c **** *   Function definition example:
 185:Generated_Source\PSoC4/FanController_DataSend.c **** *   CY_ISR(MyISR)
 186:Generated_Source\PSoC4/FanController_DataSend.c **** *   {
 187:Generated_Source\PSoC4/FanController_DataSend.c **** *   }
 188:Generated_Source\PSoC4/FanController_DataSend.c **** *
 189:Generated_Source\PSoC4/FanController_DataSend.c **** *   Function prototype example:
 190:Generated_Source\PSoC4/FanController_DataSend.c **** *     CY_ISR_PROTO(MyISR);
 191:Generated_Source\PSoC4/FanController_DataSend.c **** *
 192:Generated_Source\PSoC4/FanController_DataSend.c **** * Parameters:
 193:Generated_Source\PSoC4/FanController_DataSend.c **** *   address: Address of the ISR to set in the interrupt vector table.
 194:Generated_Source\PSoC4/FanController_DataSend.c **** *
 195:Generated_Source\PSoC4/FanController_DataSend.c **** * Return:
 196:Generated_Source\PSoC4/FanController_DataSend.c **** *   None
 197:Generated_Source\PSoC4/FanController_DataSend.c **** *
 198:Generated_Source\PSoC4/FanController_DataSend.c **** *******************************************************************************/
 199:Generated_Source\PSoC4/FanController_DataSend.c **** void FanController_DataSend_SetVector(cyisraddress address)
 200:Generated_Source\PSoC4/FanController_DataSend.c **** {
 201:Generated_Source\PSoC4/FanController_DataSend.c ****     CyRamVectors[CYINT_IRQ_BASE + FanController_DataSend__INTC_NUMBER] = address;
 202:Generated_Source\PSoC4/FanController_DataSend.c **** }
 203:Generated_Source\PSoC4/FanController_DataSend.c **** 
 204:Generated_Source\PSoC4/FanController_DataSend.c **** 
 205:Generated_Source\PSoC4/FanController_DataSend.c **** /*******************************************************************************
 206:Generated_Source\PSoC4/FanController_DataSend.c **** * Function Name: FanController_DataSend_GetVector
 207:Generated_Source\PSoC4/FanController_DataSend.c **** ********************************************************************************
 208:Generated_Source\PSoC4/FanController_DataSend.c **** *
 209:Generated_Source\PSoC4/FanController_DataSend.c **** * Summary:
 210:Generated_Source\PSoC4/FanController_DataSend.c **** *   Gets the "address" of the current ISR vector for the Interrupt.
 211:Generated_Source\PSoC4/FanController_DataSend.c **** *
 212:Generated_Source\PSoC4/FanController_DataSend.c **** * Parameters:
 213:Generated_Source\PSoC4/FanController_DataSend.c **** *   None
 214:Generated_Source\PSoC4/FanController_DataSend.c **** *
 215:Generated_Source\PSoC4/FanController_DataSend.c **** * Return:
 216:Generated_Source\PSoC4/FanController_DataSend.c **** *   Address of the ISR in the interrupt vector table.
 217:Generated_Source\PSoC4/FanController_DataSend.c **** *
 218:Generated_Source\PSoC4/FanController_DataSend.c **** *******************************************************************************/
 219:Generated_Source\PSoC4/FanController_DataSend.c **** cyisraddress FanController_DataSend_GetVector(void)
 220:Generated_Source\PSoC4/FanController_DataSend.c **** {
 221:Generated_Source\PSoC4/FanController_DataSend.c ****     return CyRamVectors[CYINT_IRQ_BASE + FanController_DataSend__INTC_NUMBER];
 222:Generated_Source\PSoC4/FanController_DataSend.c **** }
 223:Generated_Source\PSoC4/FanController_DataSend.c **** 
 224:Generated_Source\PSoC4/FanController_DataSend.c **** 
 225:Generated_Source\PSoC4/FanController_DataSend.c **** /*******************************************************************************
 226:Generated_Source\PSoC4/FanController_DataSend.c **** * Function Name: FanController_DataSend_SetPriority
 227:Generated_Source\PSoC4/FanController_DataSend.c **** ********************************************************************************
 228:Generated_Source\PSoC4/FanController_DataSend.c **** *
 229:Generated_Source\PSoC4/FanController_DataSend.c **** * Summary:
 230:Generated_Source\PSoC4/FanController_DataSend.c **** *   Sets the Priority of the Interrupt. 
 231:Generated_Source\PSoC4/FanController_DataSend.c **** *
ARM GAS  C:\Users\VIDEOH~1\AppData\Local\Temp\cc3LHdap.s 			page 6


 232:Generated_Source\PSoC4/FanController_DataSend.c **** *   Note calling FanController_DataSend_Start or FanController_DataSend_StartEx will 
 233:Generated_Source\PSoC4/FanController_DataSend.c **** *   override any effect this API would have had. This API should only be called
 234:Generated_Source\PSoC4/FanController_DataSend.c **** *   after FanController_DataSend_Start or FanController_DataSend_StartEx has been called. 
 235:Generated_Source\PSoC4/FanController_DataSend.c **** *   To set the initial priority for the component, use the Design-Wide Resources
 236:Generated_Source\PSoC4/FanController_DataSend.c **** *   Interrupt Editor.
 237:Generated_Source\PSoC4/FanController_DataSend.c **** *
 238:Generated_Source\PSoC4/FanController_DataSend.c **** *   Note This API has no effect on Non-maskable interrupt NMI).
 239:Generated_Source\PSoC4/FanController_DataSend.c **** *
 240:Generated_Source\PSoC4/FanController_DataSend.c **** * Parameters:
 241:Generated_Source\PSoC4/FanController_DataSend.c **** *   priority: Priority of the interrupt, 0 being the highest priority
 242:Generated_Source\PSoC4/FanController_DataSend.c **** *             PSoC 3 and PSoC 5LP: Priority is from 0 to 7.
 243:Generated_Source\PSoC4/FanController_DataSend.c **** *             PSoC 4: Priority is from 0 to 3.
 244:Generated_Source\PSoC4/FanController_DataSend.c **** *
 245:Generated_Source\PSoC4/FanController_DataSend.c **** * Return:
 246:Generated_Source\PSoC4/FanController_DataSend.c **** *   None
 247:Generated_Source\PSoC4/FanController_DataSend.c **** *
 248:Generated_Source\PSoC4/FanController_DataSend.c **** *******************************************************************************/
 249:Generated_Source\PSoC4/FanController_DataSend.c **** void FanController_DataSend_SetPriority(uint8 priority)
 250:Generated_Source\PSoC4/FanController_DataSend.c **** {
 251:Generated_Source\PSoC4/FanController_DataSend.c **** 	uint8 interruptState;
 252:Generated_Source\PSoC4/FanController_DataSend.c ****     uint32 priorityOffset = ((FanController_DataSend__INTC_NUMBER % 4u) * 8u) + 6u;
 253:Generated_Source\PSoC4/FanController_DataSend.c ****     
 254:Generated_Source\PSoC4/FanController_DataSend.c **** 	interruptState = CyEnterCriticalSection();
 255:Generated_Source\PSoC4/FanController_DataSend.c ****     *FanController_DataSend_INTC_PRIOR = (*FanController_DataSend_INTC_PRIOR & (uint32)(~FanControl
 256:Generated_Source\PSoC4/FanController_DataSend.c ****                                     ((uint32)priority << priorityOffset);
 257:Generated_Source\PSoC4/FanController_DataSend.c **** 	CyExitCriticalSection(interruptState);
 258:Generated_Source\PSoC4/FanController_DataSend.c **** }
 259:Generated_Source\PSoC4/FanController_DataSend.c **** 
 260:Generated_Source\PSoC4/FanController_DataSend.c **** 
 261:Generated_Source\PSoC4/FanController_DataSend.c **** /*******************************************************************************
 262:Generated_Source\PSoC4/FanController_DataSend.c **** * Function Name: FanController_DataSend_GetPriority
 263:Generated_Source\PSoC4/FanController_DataSend.c **** ********************************************************************************
 264:Generated_Source\PSoC4/FanController_DataSend.c **** *
 265:Generated_Source\PSoC4/FanController_DataSend.c **** * Summary:
 266:Generated_Source\PSoC4/FanController_DataSend.c **** *   Gets the Priority of the Interrupt.
 267:Generated_Source\PSoC4/FanController_DataSend.c **** *
 268:Generated_Source\PSoC4/FanController_DataSend.c **** * Parameters:
 269:Generated_Source\PSoC4/FanController_DataSend.c **** *   None
 270:Generated_Source\PSoC4/FanController_DataSend.c **** *
 271:Generated_Source\PSoC4/FanController_DataSend.c **** * Return:
 272:Generated_Source\PSoC4/FanController_DataSend.c **** *   Priority of the interrupt, 0 being the highest priority
 273:Generated_Source\PSoC4/FanController_DataSend.c **** *    PSoC 3 and PSoC 5LP: Priority is from 0 to 7.
 274:Generated_Source\PSoC4/FanController_DataSend.c **** *    PSoC 4: Priority is from 0 to 3.
 275:Generated_Source\PSoC4/FanController_DataSend.c **** *
 276:Generated_Source\PSoC4/FanController_DataSend.c **** *******************************************************************************/
 277:Generated_Source\PSoC4/FanController_DataSend.c **** uint8 FanController_DataSend_GetPriority(void)
 278:Generated_Source\PSoC4/FanController_DataSend.c **** {
 279:Generated_Source\PSoC4/FanController_DataSend.c ****     uint32 priority;
 280:Generated_Source\PSoC4/FanController_DataSend.c **** 	uint32 priorityOffset = ((FanController_DataSend__INTC_NUMBER % 4u) * 8u) + 6u;
 281:Generated_Source\PSoC4/FanController_DataSend.c **** 
 282:Generated_Source\PSoC4/FanController_DataSend.c ****     priority = (*FanController_DataSend_INTC_PRIOR & FanController_DataSend__INTC_PRIOR_MASK) >> pr
 283:Generated_Source\PSoC4/FanController_DataSend.c **** 
 284:Generated_Source\PSoC4/FanController_DataSend.c ****     return (uint8)priority;
 285:Generated_Source\PSoC4/FanController_DataSend.c **** }
 286:Generated_Source\PSoC4/FanController_DataSend.c **** 
 287:Generated_Source\PSoC4/FanController_DataSend.c **** 
 288:Generated_Source\PSoC4/FanController_DataSend.c **** /*******************************************************************************
ARM GAS  C:\Users\VIDEOH~1\AppData\Local\Temp\cc3LHdap.s 			page 7


 289:Generated_Source\PSoC4/FanController_DataSend.c **** * Function Name: FanController_DataSend_Enable
 290:Generated_Source\PSoC4/FanController_DataSend.c **** ********************************************************************************
 291:Generated_Source\PSoC4/FanController_DataSend.c **** *
 292:Generated_Source\PSoC4/FanController_DataSend.c **** * Summary:
 293:Generated_Source\PSoC4/FanController_DataSend.c **** *   Enables the interrupt to the interrupt controller. Do not call this function
 294:Generated_Source\PSoC4/FanController_DataSend.c **** *   unless ISR_Start() has been called or the functionality of the ISR_Start() 
 295:Generated_Source\PSoC4/FanController_DataSend.c **** *   function, which sets the vector and the priority, has been called.
 296:Generated_Source\PSoC4/FanController_DataSend.c **** *
 297:Generated_Source\PSoC4/FanController_DataSend.c **** * Parameters:
 298:Generated_Source\PSoC4/FanController_DataSend.c **** *   None
 299:Generated_Source\PSoC4/FanController_DataSend.c **** *
 300:Generated_Source\PSoC4/FanController_DataSend.c **** * Return:
 301:Generated_Source\PSoC4/FanController_DataSend.c **** *   None
 302:Generated_Source\PSoC4/FanController_DataSend.c **** *
 303:Generated_Source\PSoC4/FanController_DataSend.c **** *******************************************************************************/
 304:Generated_Source\PSoC4/FanController_DataSend.c **** void FanController_DataSend_Enable(void)
 305:Generated_Source\PSoC4/FanController_DataSend.c **** {
 306:Generated_Source\PSoC4/FanController_DataSend.c ****     /* Enable the general interrupt. */
 307:Generated_Source\PSoC4/FanController_DataSend.c ****     *FanController_DataSend_INTC_SET_EN = FanController_DataSend__INTC_MASK;
 308:Generated_Source\PSoC4/FanController_DataSend.c **** }
 309:Generated_Source\PSoC4/FanController_DataSend.c **** 
 310:Generated_Source\PSoC4/FanController_DataSend.c **** 
 311:Generated_Source\PSoC4/FanController_DataSend.c **** /*******************************************************************************
 312:Generated_Source\PSoC4/FanController_DataSend.c **** * Function Name: FanController_DataSend_GetState
 313:Generated_Source\PSoC4/FanController_DataSend.c **** ********************************************************************************
 314:Generated_Source\PSoC4/FanController_DataSend.c **** *
 315:Generated_Source\PSoC4/FanController_DataSend.c **** * Summary:
 316:Generated_Source\PSoC4/FanController_DataSend.c **** *   Gets the state (enabled, disabled) of the Interrupt.
 317:Generated_Source\PSoC4/FanController_DataSend.c **** *
 318:Generated_Source\PSoC4/FanController_DataSend.c **** * Parameters:
 319:Generated_Source\PSoC4/FanController_DataSend.c **** *   None
 320:Generated_Source\PSoC4/FanController_DataSend.c **** *
 321:Generated_Source\PSoC4/FanController_DataSend.c **** * Return:
 322:Generated_Source\PSoC4/FanController_DataSend.c **** *   1 if enabled, 0 if disabled.
 323:Generated_Source\PSoC4/FanController_DataSend.c **** *
 324:Generated_Source\PSoC4/FanController_DataSend.c **** *******************************************************************************/
 325:Generated_Source\PSoC4/FanController_DataSend.c **** uint8 FanController_DataSend_GetState(void)
 326:Generated_Source\PSoC4/FanController_DataSend.c **** {
 327:Generated_Source\PSoC4/FanController_DataSend.c ****     /* Get the state of the general interrupt. */
 328:Generated_Source\PSoC4/FanController_DataSend.c ****     return ((*FanController_DataSend_INTC_SET_EN & (uint32)FanController_DataSend__INTC_MASK) != 0u
 329:Generated_Source\PSoC4/FanController_DataSend.c **** }
 330:Generated_Source\PSoC4/FanController_DataSend.c **** 
 331:Generated_Source\PSoC4/FanController_DataSend.c **** 
 332:Generated_Source\PSoC4/FanController_DataSend.c **** /*******************************************************************************
 333:Generated_Source\PSoC4/FanController_DataSend.c **** * Function Name: FanController_DataSend_Disable
 334:Generated_Source\PSoC4/FanController_DataSend.c **** ********************************************************************************
 335:Generated_Source\PSoC4/FanController_DataSend.c **** *
 336:Generated_Source\PSoC4/FanController_DataSend.c **** * Summary:
 337:Generated_Source\PSoC4/FanController_DataSend.c **** *   Disables the Interrupt in the interrupt controller.
 338:Generated_Source\PSoC4/FanController_DataSend.c **** *
 339:Generated_Source\PSoC4/FanController_DataSend.c **** * Parameters:
 340:Generated_Source\PSoC4/FanController_DataSend.c **** *   None
 341:Generated_Source\PSoC4/FanController_DataSend.c **** *
 342:Generated_Source\PSoC4/FanController_DataSend.c **** * Return:
 343:Generated_Source\PSoC4/FanController_DataSend.c **** *   None
 344:Generated_Source\PSoC4/FanController_DataSend.c **** *
 345:Generated_Source\PSoC4/FanController_DataSend.c **** *******************************************************************************/
ARM GAS  C:\Users\VIDEOH~1\AppData\Local\Temp\cc3LHdap.s 			page 8


 346:Generated_Source\PSoC4/FanController_DataSend.c **** void FanController_DataSend_Disable(void)
 347:Generated_Source\PSoC4/FanController_DataSend.c **** {
 348:Generated_Source\PSoC4/FanController_DataSend.c ****     /* Disable the general interrupt. */
 349:Generated_Source\PSoC4/FanController_DataSend.c ****     *FanController_DataSend_INTC_CLR_EN = FanController_DataSend__INTC_MASK;
  54              		.loc 1 349 0
  55 0000 0222     		movs	r2, #2
  56 0002 034B     		ldr	r3, .L3
  57              	.LBE19:
  58              	.LBE18:
 136:Generated_Source\PSoC4/FanController_DataSend.c **** 
  59              		.loc 1 136 0
  60              		@ sp needed
  61              	.LBB21:
  62              	.LBB20:
  63              		.loc 1 349 0
  64 0004 1A60     		str	r2, [r3]
  65              	.LVL0:
  66              	.LBE20:
  67              	.LBE21:
  68              	.LBB22:
  69              	.LBB23:
 201:Generated_Source\PSoC4/FanController_DataSend.c **** }
  70              		.loc 1 201 0
  71 0006 034A     		ldr	r2, .L3+4
  72 0008 034B     		ldr	r3, .L3+8
  73 000a 5A64     		str	r2, [r3, #68]
  74              	.LVL1:
  75              	.LBE23:
  76              	.LBE22:
 136:Generated_Source\PSoC4/FanController_DataSend.c **** 
  77              		.loc 1 136 0
  78 000c 7047     		bx	lr
  79              	.L4:
  80 000e C046     		.align	2
  81              	.L3:
  82 0010 80E100E0 		.word	-536813184
  83 0014 00000000 		.word	IntDefaultHandler
  84 0018 00000000 		.word	CyRamVectors
  85              		.cfi_endproc
  86              	.LFE2:
  87              		.size	FanController_DataSend_Stop, .-FanController_DataSend_Stop
  88              		.section	.text.FanController_DataSend_SetVector,"ax",%progbits
  89              		.align	1
  90              		.global	FanController_DataSend_SetVector
  91              		.code	16
  92              		.thumb_func
  93              		.type	FanController_DataSend_SetVector, %function
  94              	FanController_DataSend_SetVector:
  95              	.LFB4:
 200:Generated_Source\PSoC4/FanController_DataSend.c ****     CyRamVectors[CYINT_IRQ_BASE + FanController_DataSend__INTC_NUMBER] = address;
  96              		.loc 1 200 0
  97              		.cfi_startproc
  98              		@ args = 0, pretend = 0, frame = 0
  99              		@ frame_needed = 0, uses_anonymous_args = 0
 100              		@ link register save eliminated.
 101              	.LVL2:
 201:Generated_Source\PSoC4/FanController_DataSend.c **** }
ARM GAS  C:\Users\VIDEOH~1\AppData\Local\Temp\cc3LHdap.s 			page 9


 102              		.loc 1 201 0
 103 0000 014B     		ldr	r3, .L6
 202:Generated_Source\PSoC4/FanController_DataSend.c **** 
 104              		.loc 1 202 0
 105              		@ sp needed
 201:Generated_Source\PSoC4/FanController_DataSend.c **** }
 106              		.loc 1 201 0
 107 0002 5864     		str	r0, [r3, #68]
 202:Generated_Source\PSoC4/FanController_DataSend.c **** 
 108              		.loc 1 202 0
 109 0004 7047     		bx	lr
 110              	.L7:
 111 0006 C046     		.align	2
 112              	.L6:
 113 0008 00000000 		.word	CyRamVectors
 114              		.cfi_endproc
 115              	.LFE4:
 116              		.size	FanController_DataSend_SetVector, .-FanController_DataSend_SetVector
 117              		.section	.text.FanController_DataSend_GetVector,"ax",%progbits
 118              		.align	1
 119              		.global	FanController_DataSend_GetVector
 120              		.code	16
 121              		.thumb_func
 122              		.type	FanController_DataSend_GetVector, %function
 123              	FanController_DataSend_GetVector:
 124              	.LFB5:
 220:Generated_Source\PSoC4/FanController_DataSend.c ****     return CyRamVectors[CYINT_IRQ_BASE + FanController_DataSend__INTC_NUMBER];
 125              		.loc 1 220 0
 126              		.cfi_startproc
 127              		@ args = 0, pretend = 0, frame = 0
 128              		@ frame_needed = 0, uses_anonymous_args = 0
 129              		@ link register save eliminated.
 221:Generated_Source\PSoC4/FanController_DataSend.c **** }
 130              		.loc 1 221 0
 131 0000 014B     		ldr	r3, .L9
 222:Generated_Source\PSoC4/FanController_DataSend.c **** 
 132              		.loc 1 222 0
 133              		@ sp needed
 221:Generated_Source\PSoC4/FanController_DataSend.c **** }
 134              		.loc 1 221 0
 135 0002 586C     		ldr	r0, [r3, #68]
 222:Generated_Source\PSoC4/FanController_DataSend.c **** 
 136              		.loc 1 222 0
 137 0004 7047     		bx	lr
 138              	.L10:
 139 0006 C046     		.align	2
 140              	.L9:
 141 0008 00000000 		.word	CyRamVectors
 142              		.cfi_endproc
 143              	.LFE5:
 144              		.size	FanController_DataSend_GetVector, .-FanController_DataSend_GetVector
 145              		.section	.text.FanController_DataSend_SetPriority,"ax",%progbits
 146              		.align	1
 147              		.global	FanController_DataSend_SetPriority
 148              		.code	16
 149              		.thumb_func
 150              		.type	FanController_DataSend_SetPriority, %function
ARM GAS  C:\Users\VIDEOH~1\AppData\Local\Temp\cc3LHdap.s 			page 10


 151              	FanController_DataSend_SetPriority:
 152              	.LFB6:
 250:Generated_Source\PSoC4/FanController_DataSend.c **** 	uint8 interruptState;
 153              		.loc 1 250 0
 154              		.cfi_startproc
 155              		@ args = 0, pretend = 0, frame = 0
 156              		@ frame_needed = 0, uses_anonymous_args = 0
 157              	.LVL3:
 158 0000 10B5     		push	{r4, lr}
 159              		.cfi_def_cfa_offset 8
 160              		.cfi_offset 4, -8
 161              		.cfi_offset 14, -4
 250:Generated_Source\PSoC4/FanController_DataSend.c **** 	uint8 interruptState;
 162              		.loc 1 250 0
 163 0002 0400     		movs	r4, r0
 254:Generated_Source\PSoC4/FanController_DataSend.c ****     *FanController_DataSend_INTC_PRIOR = (*FanController_DataSend_INTC_PRIOR & (uint32)(~FanControl
 164              		.loc 1 254 0
 165 0004 FFF7FEFF 		bl	CyEnterCriticalSection
 166              	.LVL4:
 255:Generated_Source\PSoC4/FanController_DataSend.c ****                                     ((uint32)priority << priorityOffset);
 167              		.loc 1 255 0
 168 0008 044A     		ldr	r2, .L12
 169 000a 054B     		ldr	r3, .L12+4
 170 000c 1168     		ldr	r1, [r2]
 171 000e A403     		lsls	r4, r4, #14
 172 0010 0B40     		ands	r3, r1
 173 0012 1C43     		orrs	r4, r3
 174 0014 1460     		str	r4, [r2]
 257:Generated_Source\PSoC4/FanController_DataSend.c **** }
 175              		.loc 1 257 0
 176 0016 FFF7FEFF 		bl	CyExitCriticalSection
 177              	.LVL5:
 258:Generated_Source\PSoC4/FanController_DataSend.c **** 
 178              		.loc 1 258 0
 179              		@ sp needed
 180 001a 10BD     		pop	{r4, pc}
 181              	.L13:
 182              		.align	2
 183              	.L12:
 184 001c 00E400E0 		.word	-536812544
 185 0020 FF3FFFFF 		.word	-49153
 186              		.cfi_endproc
 187              	.LFE6:
 188              		.size	FanController_DataSend_SetPriority, .-FanController_DataSend_SetPriority
 189              		.section	.text.FanController_DataSend_Start,"ax",%progbits
 190              		.align	1
 191              		.global	FanController_DataSend_Start
 192              		.code	16
 193              		.thumb_func
 194              		.type	FanController_DataSend_Start, %function
 195              	FanController_DataSend_Start:
 196              	.LFB0:
  57:Generated_Source\PSoC4/FanController_DataSend.c ****     /* For all we know the interrupt is active. */
 197              		.loc 1 57 0
 198              		.cfi_startproc
 199              		@ args = 0, pretend = 0, frame = 0
 200              		@ frame_needed = 0, uses_anonymous_args = 0
ARM GAS  C:\Users\VIDEOH~1\AppData\Local\Temp\cc3LHdap.s 			page 11


 201 0000 10B5     		push	{r4, lr}
 202              		.cfi_def_cfa_offset 8
 203              		.cfi_offset 4, -8
 204              		.cfi_offset 14, -4
 205              	.LBB24:
 206              	.LBB25:
 207              		.loc 1 349 0
 208 0002 0224     		movs	r4, #2
 209 0004 054B     		ldr	r3, .L15
 210              	.LBE25:
 211              	.LBE24:
 212              	.LBB27:
 213              	.LBB28:
 201:Generated_Source\PSoC4/FanController_DataSend.c **** }
 214              		.loc 1 201 0
 215 0006 064A     		ldr	r2, .L15+4
 216              	.LBE28:
 217              	.LBE27:
 218              	.LBB31:
 219              	.LBB26:
 220              		.loc 1 349 0
 221 0008 1C60     		str	r4, [r3]
 222              	.LVL6:
 223              	.LBE26:
 224              	.LBE31:
 225              	.LBB32:
 226              	.LBB29:
 201:Generated_Source\PSoC4/FanController_DataSend.c **** }
 227              		.loc 1 201 0
 228 000a 064B     		ldr	r3, .L15+8
 229              	.LBE29:
 230              	.LBE32:
  65:Generated_Source\PSoC4/FanController_DataSend.c **** 
 231              		.loc 1 65 0
 232 000c 0320     		movs	r0, #3
 233              	.LBB33:
 234              	.LBB30:
 201:Generated_Source\PSoC4/FanController_DataSend.c **** }
 235              		.loc 1 201 0
 236 000e 5A64     		str	r2, [r3, #68]
 237              	.LVL7:
 238              	.LBE30:
 239              	.LBE33:
  65:Generated_Source\PSoC4/FanController_DataSend.c **** 
 240              		.loc 1 65 0
 241 0010 FFF7FEFF 		bl	FanController_DataSend_SetPriority
 242              	.LVL8:
 243              	.LBB34:
 244              	.LBB35:
 307:Generated_Source\PSoC4/FanController_DataSend.c **** }
 245              		.loc 1 307 0
 246 0014 044B     		ldr	r3, .L15+12
 247              	.LBE35:
 248              	.LBE34:
  69:Generated_Source\PSoC4/FanController_DataSend.c **** 
 249              		.loc 1 69 0
 250              		@ sp needed
ARM GAS  C:\Users\VIDEOH~1\AppData\Local\Temp\cc3LHdap.s 			page 12


 251              	.LBB37:
 252              	.LBB36:
 307:Generated_Source\PSoC4/FanController_DataSend.c **** }
 253              		.loc 1 307 0
 254 0016 1C60     		str	r4, [r3]
 255              	.LBE36:
 256              	.LBE37:
  69:Generated_Source\PSoC4/FanController_DataSend.c **** 
 257              		.loc 1 69 0
 258 0018 10BD     		pop	{r4, pc}
 259              	.L16:
 260 001a C046     		.align	2
 261              	.L15:
 262 001c 80E100E0 		.word	-536813184
 263 0020 00000000 		.word	FanController_DataSend_Interrupt
 264 0024 00000000 		.word	CyRamVectors
 265 0028 00E100E0 		.word	-536813312
 266              		.cfi_endproc
 267              	.LFE0:
 268              		.size	FanController_DataSend_Start, .-FanController_DataSend_Start
 269              		.section	.text.FanController_DataSend_StartEx,"ax",%progbits
 270              		.align	1
 271              		.global	FanController_DataSend_StartEx
 272              		.code	16
 273              		.thumb_func
 274              		.type	FanController_DataSend_StartEx, %function
 275              	FanController_DataSend_StartEx:
 276              	.LFB1:
 100:Generated_Source\PSoC4/FanController_DataSend.c ****     /* For all we know the interrupt is active. */
 277              		.loc 1 100 0
 278              		.cfi_startproc
 279              		@ args = 0, pretend = 0, frame = 0
 280              		@ frame_needed = 0, uses_anonymous_args = 0
 281              	.LVL9:
 282 0000 10B5     		push	{r4, lr}
 283              		.cfi_def_cfa_offset 8
 284              		.cfi_offset 4, -8
 285              		.cfi_offset 14, -4
 286              	.LBB38:
 287              	.LBB39:
 288              		.loc 1 349 0
 289 0002 0224     		movs	r4, #2
 290 0004 044B     		ldr	r3, .L18
 291              	.LBE39:
 292              	.LBE38:
 112:Generated_Source\PSoC4/FanController_DataSend.c **** 
 293              		.loc 1 112 0
 294              		@ sp needed
 295              	.LBB41:
 296              	.LBB40:
 297              		.loc 1 349 0
 298 0006 1C60     		str	r4, [r3]
 299              	.LVL10:
 300              	.LBE40:
 301              	.LBE41:
 302              	.LBB42:
 303              	.LBB43:
ARM GAS  C:\Users\VIDEOH~1\AppData\Local\Temp\cc3LHdap.s 			page 13


 201:Generated_Source\PSoC4/FanController_DataSend.c **** }
 304              		.loc 1 201 0
 305 0008 044B     		ldr	r3, .L18+4
 306 000a 5864     		str	r0, [r3, #68]
 307              	.LVL11:
 308              	.LBE43:
 309              	.LBE42:
 108:Generated_Source\PSoC4/FanController_DataSend.c **** 
 310              		.loc 1 108 0
 311 000c 0320     		movs	r0, #3
 312              	.LVL12:
 313 000e FFF7FEFF 		bl	FanController_DataSend_SetPriority
 314              	.LVL13:
 315              	.LBB44:
 316              	.LBB45:
 307:Generated_Source\PSoC4/FanController_DataSend.c **** }
 317              		.loc 1 307 0
 318 0012 034B     		ldr	r3, .L18+8
 319 0014 1C60     		str	r4, [r3]
 320              	.LBE45:
 321              	.LBE44:
 112:Generated_Source\PSoC4/FanController_DataSend.c **** 
 322              		.loc 1 112 0
 323 0016 10BD     		pop	{r4, pc}
 324              	.L19:
 325              		.align	2
 326              	.L18:
 327 0018 80E100E0 		.word	-536813184
 328 001c 00000000 		.word	CyRamVectors
 329 0020 00E100E0 		.word	-536813312
 330              		.cfi_endproc
 331              	.LFE1:
 332              		.size	FanController_DataSend_StartEx, .-FanController_DataSend_StartEx
 333              		.section	.text.FanController_DataSend_GetPriority,"ax",%progbits
 334              		.align	1
 335              		.global	FanController_DataSend_GetPriority
 336              		.code	16
 337              		.thumb_func
 338              		.type	FanController_DataSend_GetPriority, %function
 339              	FanController_DataSend_GetPriority:
 340              	.LFB7:
 278:Generated_Source\PSoC4/FanController_DataSend.c ****     uint32 priority;
 341              		.loc 1 278 0
 342              		.cfi_startproc
 343              		@ args = 0, pretend = 0, frame = 0
 344              		@ frame_needed = 0, uses_anonymous_args = 0
 345              		@ link register save eliminated.
 346              	.LVL14:
 282:Generated_Source\PSoC4/FanController_DataSend.c **** 
 347              		.loc 1 282 0
 348 0000 024B     		ldr	r3, .L21
 285:Generated_Source\PSoC4/FanController_DataSend.c **** 
 349              		.loc 1 285 0
 350              		@ sp needed
 282:Generated_Source\PSoC4/FanController_DataSend.c **** 
 351              		.loc 1 282 0
 352 0002 1868     		ldr	r0, [r3]
ARM GAS  C:\Users\VIDEOH~1\AppData\Local\Temp\cc3LHdap.s 			page 14


 353              	.LVL15:
 284:Generated_Source\PSoC4/FanController_DataSend.c **** }
 354              		.loc 1 284 0
 355 0004 0004     		lsls	r0, r0, #16
 356              	.LVL16:
 357 0006 800F     		lsrs	r0, r0, #30
 285:Generated_Source\PSoC4/FanController_DataSend.c **** 
 358              		.loc 1 285 0
 359 0008 7047     		bx	lr
 360              	.L22:
 361 000a C046     		.align	2
 362              	.L21:
 363 000c 00E400E0 		.word	-536812544
 364              		.cfi_endproc
 365              	.LFE7:
 366              		.size	FanController_DataSend_GetPriority, .-FanController_DataSend_GetPriority
 367              		.section	.text.FanController_DataSend_Enable,"ax",%progbits
 368              		.align	1
 369              		.global	FanController_DataSend_Enable
 370              		.code	16
 371              		.thumb_func
 372              		.type	FanController_DataSend_Enable, %function
 373              	FanController_DataSend_Enable:
 374              	.LFB8:
 305:Generated_Source\PSoC4/FanController_DataSend.c ****     /* Enable the general interrupt. */
 375              		.loc 1 305 0
 376              		.cfi_startproc
 377              		@ args = 0, pretend = 0, frame = 0
 378              		@ frame_needed = 0, uses_anonymous_args = 0
 379              		@ link register save eliminated.
 307:Generated_Source\PSoC4/FanController_DataSend.c **** }
 380              		.loc 1 307 0
 381 0000 0222     		movs	r2, #2
 382 0002 014B     		ldr	r3, .L24
 308:Generated_Source\PSoC4/FanController_DataSend.c **** 
 383              		.loc 1 308 0
 384              		@ sp needed
 307:Generated_Source\PSoC4/FanController_DataSend.c **** }
 385              		.loc 1 307 0
 386 0004 1A60     		str	r2, [r3]
 308:Generated_Source\PSoC4/FanController_DataSend.c **** 
 387              		.loc 1 308 0
 388 0006 7047     		bx	lr
 389              	.L25:
 390              		.align	2
 391              	.L24:
 392 0008 00E100E0 		.word	-536813312
 393              		.cfi_endproc
 394              	.LFE8:
 395              		.size	FanController_DataSend_Enable, .-FanController_DataSend_Enable
 396              		.section	.text.FanController_DataSend_GetState,"ax",%progbits
 397              		.align	1
 398              		.global	FanController_DataSend_GetState
 399              		.code	16
 400              		.thumb_func
 401              		.type	FanController_DataSend_GetState, %function
 402              	FanController_DataSend_GetState:
ARM GAS  C:\Users\VIDEOH~1\AppData\Local\Temp\cc3LHdap.s 			page 15


 403              	.LFB9:
 326:Generated_Source\PSoC4/FanController_DataSend.c ****     /* Get the state of the general interrupt. */
 404              		.loc 1 326 0
 405              		.cfi_startproc
 406              		@ args = 0, pretend = 0, frame = 0
 407              		@ frame_needed = 0, uses_anonymous_args = 0
 408              		@ link register save eliminated.
 328:Generated_Source\PSoC4/FanController_DataSend.c **** }
 409              		.loc 1 328 0
 410 0000 024B     		ldr	r3, .L27
 329:Generated_Source\PSoC4/FanController_DataSend.c **** 
 411              		.loc 1 329 0
 412              		@ sp needed
 328:Generated_Source\PSoC4/FanController_DataSend.c **** }
 413              		.loc 1 328 0
 414 0002 1868     		ldr	r0, [r3]
 415 0004 8007     		lsls	r0, r0, #30
 416 0006 C00F     		lsrs	r0, r0, #31
 329:Generated_Source\PSoC4/FanController_DataSend.c **** 
 417              		.loc 1 329 0
 418 0008 7047     		bx	lr
 419              	.L28:
 420 000a C046     		.align	2
 421              	.L27:
 422 000c 00E100E0 		.word	-536813312
 423              		.cfi_endproc
 424              	.LFE9:
 425              		.size	FanController_DataSend_GetState, .-FanController_DataSend_GetState
 426              		.section	.text.FanController_DataSend_Disable,"ax",%progbits
 427              		.align	1
 428              		.global	FanController_DataSend_Disable
 429              		.code	16
 430              		.thumb_func
 431              		.type	FanController_DataSend_Disable, %function
 432              	FanController_DataSend_Disable:
 433              	.LFB10:
 347:Generated_Source\PSoC4/FanController_DataSend.c ****     /* Disable the general interrupt. */
 434              		.loc 1 347 0
 435              		.cfi_startproc
 436              		@ args = 0, pretend = 0, frame = 0
 437              		@ frame_needed = 0, uses_anonymous_args = 0
 438              		@ link register save eliminated.
 439              		.loc 1 349 0
 440 0000 0222     		movs	r2, #2
 441 0002 014B     		ldr	r3, .L30
 350:Generated_Source\PSoC4/FanController_DataSend.c **** }
 442              		.loc 1 350 0
 443              		@ sp needed
 349:Generated_Source\PSoC4/FanController_DataSend.c **** }
 444              		.loc 1 349 0
 445 0004 1A60     		str	r2, [r3]
 446              		.loc 1 350 0
 447 0006 7047     		bx	lr
 448              	.L31:
 449              		.align	2
 450              	.L30:
 451 0008 80E100E0 		.word	-536813184
ARM GAS  C:\Users\VIDEOH~1\AppData\Local\Temp\cc3LHdap.s 			page 16


 452              		.cfi_endproc
 453              	.LFE10:
 454              		.size	FanController_DataSend_Disable, .-FanController_DataSend_Disable
 455              		.section	.text.FanController_DataSend_SetPending,"ax",%progbits
 456              		.align	1
 457              		.global	FanController_DataSend_SetPending
 458              		.code	16
 459              		.thumb_func
 460              		.type	FanController_DataSend_SetPending, %function
 461              	FanController_DataSend_SetPending:
 462              	.LFB11:
 351:Generated_Source\PSoC4/FanController_DataSend.c **** 
 352:Generated_Source\PSoC4/FanController_DataSend.c **** 
 353:Generated_Source\PSoC4/FanController_DataSend.c **** /*******************************************************************************
 354:Generated_Source\PSoC4/FanController_DataSend.c **** * Function Name: FanController_DataSend_SetPending
 355:Generated_Source\PSoC4/FanController_DataSend.c **** ********************************************************************************
 356:Generated_Source\PSoC4/FanController_DataSend.c **** *
 357:Generated_Source\PSoC4/FanController_DataSend.c **** * Summary:
 358:Generated_Source\PSoC4/FanController_DataSend.c **** *   Causes the Interrupt to enter the pending state, a software method of
 359:Generated_Source\PSoC4/FanController_DataSend.c **** *   generating the interrupt.
 360:Generated_Source\PSoC4/FanController_DataSend.c **** *
 361:Generated_Source\PSoC4/FanController_DataSend.c **** * Parameters:
 362:Generated_Source\PSoC4/FanController_DataSend.c **** *   None
 363:Generated_Source\PSoC4/FanController_DataSend.c **** *
 364:Generated_Source\PSoC4/FanController_DataSend.c **** * Return:
 365:Generated_Source\PSoC4/FanController_DataSend.c **** *   None
 366:Generated_Source\PSoC4/FanController_DataSend.c **** *
 367:Generated_Source\PSoC4/FanController_DataSend.c **** * Side Effects:
 368:Generated_Source\PSoC4/FanController_DataSend.c **** *   If interrupts are enabled and the interrupt is set up properly, the ISR is
 369:Generated_Source\PSoC4/FanController_DataSend.c **** *   entered (depending on the priority of this interrupt and other pending 
 370:Generated_Source\PSoC4/FanController_DataSend.c **** *   interrupts).
 371:Generated_Source\PSoC4/FanController_DataSend.c **** *
 372:Generated_Source\PSoC4/FanController_DataSend.c **** *******************************************************************************/
 373:Generated_Source\PSoC4/FanController_DataSend.c **** void FanController_DataSend_SetPending(void)
 374:Generated_Source\PSoC4/FanController_DataSend.c **** {
 463              		.loc 1 374 0
 464              		.cfi_startproc
 465              		@ args = 0, pretend = 0, frame = 0
 466              		@ frame_needed = 0, uses_anonymous_args = 0
 467              		@ link register save eliminated.
 375:Generated_Source\PSoC4/FanController_DataSend.c ****     *FanController_DataSend_INTC_SET_PD = FanController_DataSend__INTC_MASK;
 468              		.loc 1 375 0
 469 0000 0222     		movs	r2, #2
 470 0002 014B     		ldr	r3, .L33
 376:Generated_Source\PSoC4/FanController_DataSend.c **** }
 471              		.loc 1 376 0
 472              		@ sp needed
 375:Generated_Source\PSoC4/FanController_DataSend.c ****     *FanController_DataSend_INTC_SET_PD = FanController_DataSend__INTC_MASK;
 473              		.loc 1 375 0
 474 0004 1A60     		str	r2, [r3]
 475              		.loc 1 376 0
 476 0006 7047     		bx	lr
 477              	.L34:
 478              		.align	2
 479              	.L33:
 480 0008 00E200E0 		.word	-536813056
 481              		.cfi_endproc
ARM GAS  C:\Users\VIDEOH~1\AppData\Local\Temp\cc3LHdap.s 			page 17


 482              	.LFE11:
 483              		.size	FanController_DataSend_SetPending, .-FanController_DataSend_SetPending
 484              		.section	.text.FanController_DataSend_ClearPending,"ax",%progbits
 485              		.align	1
 486              		.global	FanController_DataSend_ClearPending
 487              		.code	16
 488              		.thumb_func
 489              		.type	FanController_DataSend_ClearPending, %function
 490              	FanController_DataSend_ClearPending:
 491              	.LFB12:
 377:Generated_Source\PSoC4/FanController_DataSend.c **** 
 378:Generated_Source\PSoC4/FanController_DataSend.c **** 
 379:Generated_Source\PSoC4/FanController_DataSend.c **** /*******************************************************************************
 380:Generated_Source\PSoC4/FanController_DataSend.c **** * Function Name: FanController_DataSend_ClearPending
 381:Generated_Source\PSoC4/FanController_DataSend.c **** ********************************************************************************
 382:Generated_Source\PSoC4/FanController_DataSend.c **** *
 383:Generated_Source\PSoC4/FanController_DataSend.c **** * Summary:
 384:Generated_Source\PSoC4/FanController_DataSend.c **** *   Clears a pending interrupt in the interrupt controller.
 385:Generated_Source\PSoC4/FanController_DataSend.c **** *
 386:Generated_Source\PSoC4/FanController_DataSend.c **** *   Note Some interrupt sources are clear-on-read and require the block 
 387:Generated_Source\PSoC4/FanController_DataSend.c **** *   interrupt/status register to be read/cleared with the appropriate block API 
 388:Generated_Source\PSoC4/FanController_DataSend.c **** *   (GPIO, UART, and so on). Otherwise the ISR will continue to remain in 
 389:Generated_Source\PSoC4/FanController_DataSend.c **** *   pending state even though the interrupt itself is cleared using this API.
 390:Generated_Source\PSoC4/FanController_DataSend.c **** *
 391:Generated_Source\PSoC4/FanController_DataSend.c **** * Parameters:
 392:Generated_Source\PSoC4/FanController_DataSend.c **** *   None
 393:Generated_Source\PSoC4/FanController_DataSend.c **** *
 394:Generated_Source\PSoC4/FanController_DataSend.c **** * Return:
 395:Generated_Source\PSoC4/FanController_DataSend.c **** *   None
 396:Generated_Source\PSoC4/FanController_DataSend.c **** *
 397:Generated_Source\PSoC4/FanController_DataSend.c **** *******************************************************************************/
 398:Generated_Source\PSoC4/FanController_DataSend.c **** void FanController_DataSend_ClearPending(void)
 399:Generated_Source\PSoC4/FanController_DataSend.c **** {
 492              		.loc 1 399 0
 493              		.cfi_startproc
 494              		@ args = 0, pretend = 0, frame = 0
 495              		@ frame_needed = 0, uses_anonymous_args = 0
 496              		@ link register save eliminated.
 400:Generated_Source\PSoC4/FanController_DataSend.c ****     *FanController_DataSend_INTC_CLR_PD = FanController_DataSend__INTC_MASK;
 497              		.loc 1 400 0
 498 0000 0222     		movs	r2, #2
 499 0002 014B     		ldr	r3, .L36
 401:Generated_Source\PSoC4/FanController_DataSend.c **** }
 500              		.loc 1 401 0
 501              		@ sp needed
 400:Generated_Source\PSoC4/FanController_DataSend.c ****     *FanController_DataSend_INTC_CLR_PD = FanController_DataSend__INTC_MASK;
 502              		.loc 1 400 0
 503 0004 1A60     		str	r2, [r3]
 504              		.loc 1 401 0
 505 0006 7047     		bx	lr
 506              	.L37:
 507              		.align	2
 508              	.L36:
 509 0008 80E200E0 		.word	-536812928
 510              		.cfi_endproc
 511              	.LFE12:
 512              		.size	FanController_DataSend_ClearPending, .-FanController_DataSend_ClearPending
ARM GAS  C:\Users\VIDEOH~1\AppData\Local\Temp\cc3LHdap.s 			page 18


 513              		.text
 514              	.Letext0:
 515              		.file 2 "Generated_Source\\PSoC4/cytypes.h"
 516              		.file 3 "Generated_Source\\PSoC4/CyLib.h"