ARM GAS  C:\Users\VIDEOH~1\AppData\Local\Temp\ccTBS2km.s 			page 1


   1              		.syntax unified
   2              		.cpu cortex-m0
   3              		.fpu softvfp
   4              		.eabi_attribute 20, 1
   5              		.eabi_attribute 21, 1
   6              		.eabi_attribute 23, 3
   7              		.eabi_attribute 24, 1
   8              		.eabi_attribute 25, 1
   9              		.eabi_attribute 26, 1
  10              		.eabi_attribute 30, 4
  11              		.eabi_attribute 34, 0
  12              		.eabi_attribute 18, 4
  13              		.thumb
  14              		.syntax unified
  15              		.file	"IDAC_Low.c"
  16              		.text
  17              	.Ltext0:
  18              		.cfi_sections	.debug_frame
  19              		.section	.text.IDAC_Low_Init,"ax",%progbits
  20              		.align	1
  21              		.global	IDAC_Low_Init
  22              		.code	16
  23              		.thumb_func
  24              		.type	IDAC_Low_Init, %function
  25              	IDAC_Low_Init:
  26              	.LFB0:
  27              		.file 1 "Generated_Source\\PSoC4\\IDAC_Low.c"
   1:Generated_Source\PSoC4/IDAC_Low.c **** /*******************************************************************************
   2:Generated_Source\PSoC4/IDAC_Low.c **** * File Name: IDAC_Low.c
   3:Generated_Source\PSoC4/IDAC_Low.c **** * Version 1.10
   4:Generated_Source\PSoC4/IDAC_Low.c **** *
   5:Generated_Source\PSoC4/IDAC_Low.c **** * Description:
   6:Generated_Source\PSoC4/IDAC_Low.c **** *  This file provides the source code of APIs for the IDAC_P4 component.
   7:Generated_Source\PSoC4/IDAC_Low.c **** *
   8:Generated_Source\PSoC4/IDAC_Low.c **** *******************************************************************************
   9:Generated_Source\PSoC4/IDAC_Low.c **** * Copyright 2013-2015, Cypress Semiconductor Corporation.  All rights reserved.
  10:Generated_Source\PSoC4/IDAC_Low.c **** * You may use this file only in accordance with the license, terms, conditions,
  11:Generated_Source\PSoC4/IDAC_Low.c **** * disclaimers, and limitations in the end user license agreement accompanying
  12:Generated_Source\PSoC4/IDAC_Low.c **** * the software package with which this file was provided.
  13:Generated_Source\PSoC4/IDAC_Low.c **** *******************************************************************************/
  14:Generated_Source\PSoC4/IDAC_Low.c **** 
  15:Generated_Source\PSoC4/IDAC_Low.c **** #include "IDAC_Low.h"
  16:Generated_Source\PSoC4/IDAC_Low.c **** 
  17:Generated_Source\PSoC4/IDAC_Low.c **** uint32 IDAC_Low_initVar = 0u;
  18:Generated_Source\PSoC4/IDAC_Low.c **** 
  19:Generated_Source\PSoC4/IDAC_Low.c **** 
  20:Generated_Source\PSoC4/IDAC_Low.c **** /*******************************************************************************
  21:Generated_Source\PSoC4/IDAC_Low.c **** * Function Name: IDAC_Low_Init
  22:Generated_Source\PSoC4/IDAC_Low.c **** ********************************************************************************
  23:Generated_Source\PSoC4/IDAC_Low.c **** *
  24:Generated_Source\PSoC4/IDAC_Low.c **** * Summary:
  25:Generated_Source\PSoC4/IDAC_Low.c **** *  Initializes IDAC registers with initial values provided from customizer.
  26:Generated_Source\PSoC4/IDAC_Low.c **** *
  27:Generated_Source\PSoC4/IDAC_Low.c **** * Parameters:
  28:Generated_Source\PSoC4/IDAC_Low.c **** *  None
  29:Generated_Source\PSoC4/IDAC_Low.c **** *
  30:Generated_Source\PSoC4/IDAC_Low.c **** * Return:
ARM GAS  C:\Users\VIDEOH~1\AppData\Local\Temp\ccTBS2km.s 			page 2


  31:Generated_Source\PSoC4/IDAC_Low.c **** *  None
  32:Generated_Source\PSoC4/IDAC_Low.c **** *
  33:Generated_Source\PSoC4/IDAC_Low.c **** * Global variables:
  34:Generated_Source\PSoC4/IDAC_Low.c **** *  None
  35:Generated_Source\PSoC4/IDAC_Low.c **** *
  36:Generated_Source\PSoC4/IDAC_Low.c **** *******************************************************************************/
  37:Generated_Source\PSoC4/IDAC_Low.c **** void IDAC_Low_Init(void)
  38:Generated_Source\PSoC4/IDAC_Low.c **** {
  28              		.loc 1 38 0
  29              		.cfi_startproc
  30              		@ args = 0, pretend = 0, frame = 0
  31              		@ frame_needed = 0, uses_anonymous_args = 0
  32 0000 10B5     		push	{r4, lr}
  33              		.cfi_def_cfa_offset 8
  34              		.cfi_offset 4, -8
  35              		.cfi_offset 14, -4
  39:Generated_Source\PSoC4/IDAC_Low.c ****     uint32 regVal;
  40:Generated_Source\PSoC4/IDAC_Low.c ****     uint8 enableInterrupts;
  41:Generated_Source\PSoC4/IDAC_Low.c **** 
  42:Generated_Source\PSoC4/IDAC_Low.c ****     /* Set initial configuration */
  43:Generated_Source\PSoC4/IDAC_Low.c ****     enableInterrupts = CyEnterCriticalSection();
  36              		.loc 1 43 0
  37 0002 FFF7FEFF 		bl	CyEnterCriticalSection
  38              	.LVL0:
  44:Generated_Source\PSoC4/IDAC_Low.c ****     
  45:Generated_Source\PSoC4/IDAC_Low.c ****     #if(IDAC_Low_MODE_SOURCE == IDAC_Low_IDAC_POLARITY)
  46:Generated_Source\PSoC4/IDAC_Low.c ****         regVal  = IDAC_Low_CSD_TRIM1_REG & ~(IDAC_Low_CSD_IDAC_TRIM1_MASK);
  39              		.loc 1 46 0
  40 0006 F022     		movs	r2, #240
  41 0008 0D49     		ldr	r1, .L2
  47:Generated_Source\PSoC4/IDAC_Low.c ****         regVal |=  (IDAC_Low_SFLASH_TRIM1_REG & IDAC_Low_CSD_IDAC_TRIM1_MASK);
  42              		.loc 1 47 0
  43 000a 0F24     		movs	r4, #15
  46:Generated_Source\PSoC4/IDAC_Low.c ****         regVal |=  (IDAC_Low_SFLASH_TRIM1_REG & IDAC_Low_CSD_IDAC_TRIM1_MASK);
  44              		.loc 1 46 0
  45 000c 0B68     		ldr	r3, [r1]
  48:Generated_Source\PSoC4/IDAC_Low.c ****         IDAC_Low_CSD_TRIM1_REG = regVal;
  49:Generated_Source\PSoC4/IDAC_Low.c ****     #else
  50:Generated_Source\PSoC4/IDAC_Low.c ****         regVal  = IDAC_Low_CSD_TRIM2_REG & ~(IDAC_Low_CSD_IDAC_TRIM2_MASK);
  51:Generated_Source\PSoC4/IDAC_Low.c ****         regVal |=  (IDAC_Low_SFLASH_TRIM2_REG & IDAC_Low_CSD_IDAC_TRIM2_MASK);
  52:Generated_Source\PSoC4/IDAC_Low.c ****         IDAC_Low_CSD_TRIM2_REG = regVal;
  53:Generated_Source\PSoC4/IDAC_Low.c ****     #endif /* (IDAC_Low_MODE_SOURCE == IDAC_Low_IDAC_POLARITY) */
  54:Generated_Source\PSoC4/IDAC_Low.c **** 
  55:Generated_Source\PSoC4/IDAC_Low.c ****     /* clear previous values */
  56:Generated_Source\PSoC4/IDAC_Low.c ****     IDAC_Low_IDAC_CONTROL_REG &= ((uint32)~((uint32)IDAC_Low_IDAC_VALUE_MASK <<
  57:Generated_Source\PSoC4/IDAC_Low.c ****         IDAC_Low_IDAC_VALUE_POSITION)) | ((uint32)~((uint32)IDAC_Low_IDAC_MODE_MASK <<
  58:Generated_Source\PSoC4/IDAC_Low.c ****         IDAC_Low_IDAC_MODE_POSITION))  | ((uint32)~((uint32)IDAC_Low_IDAC_RANGE_MASK  <<
  59:Generated_Source\PSoC4/IDAC_Low.c ****         IDAC_Low_IDAC_RANGE_POSITION));
  60:Generated_Source\PSoC4/IDAC_Low.c **** 
  61:Generated_Source\PSoC4/IDAC_Low.c ****     IDAC_Low_IDAC_POLARITY_CONTROL_REG &= (~(uint32)((uint32)IDAC_Low_IDAC_POLARITY_MASK <<
  62:Generated_Source\PSoC4/IDAC_Low.c ****         IDAC_Low_IDAC_POLARITY_POSITION));
  63:Generated_Source\PSoC4/IDAC_Low.c **** 
  64:Generated_Source\PSoC4/IDAC_Low.c ****     /* set new configuration */
  65:Generated_Source\PSoC4/IDAC_Low.c ****     IDAC_Low_IDAC_CONTROL_REG |= (((uint32)IDAC_Low_IDAC_INIT_VALUE <<
  66:Generated_Source\PSoC4/IDAC_Low.c ****         IDAC_Low_IDAC_VALUE_POSITION) | ((uint32)IDAC_Low_IDAC_RANGE <<
  67:Generated_Source\PSoC4/IDAC_Low.c ****         IDAC_Low_IDAC_RANGE_POSITION));
  68:Generated_Source\PSoC4/IDAC_Low.c **** 
ARM GAS  C:\Users\VIDEOH~1\AppData\Local\Temp\ccTBS2km.s 			page 3


  69:Generated_Source\PSoC4/IDAC_Low.c ****     IDAC_Low_IDAC_POLARITY_CONTROL_REG |= ((uint32)IDAC_Low_IDAC_POLARITY <<
  70:Generated_Source\PSoC4/IDAC_Low.c ****                                                            IDAC_Low_IDAC_POLARITY_POSITION);
  71:Generated_Source\PSoC4/IDAC_Low.c **** 
  72:Generated_Source\PSoC4/IDAC_Low.c ****     CyExitCriticalSection(enableInterrupts);
  73:Generated_Source\PSoC4/IDAC_Low.c **** 
  74:Generated_Source\PSoC4/IDAC_Low.c **** }
  46              		.loc 1 74 0
  47              		@ sp needed
  46:Generated_Source\PSoC4/IDAC_Low.c ****         regVal |=  (IDAC_Low_SFLASH_TRIM1_REG & IDAC_Low_CSD_IDAC_TRIM1_MASK);
  48              		.loc 1 46 0
  49 000e 9343     		bics	r3, r2
  50 0010 1A00     		movs	r2, r3
  51              	.LVL1:
  47:Generated_Source\PSoC4/IDAC_Low.c ****         IDAC_Low_CSD_TRIM1_REG = regVal;
  52              		.loc 1 47 0
  53 0012 0C4B     		ldr	r3, .L2+4
  54 0014 1B78     		ldrb	r3, [r3]
  55 0016 A343     		bics	r3, r4
  56 0018 1343     		orrs	r3, r2
  57              	.LVL2:
  56:Generated_Source\PSoC4/IDAC_Low.c ****         IDAC_Low_IDAC_VALUE_POSITION)) | ((uint32)~((uint32)IDAC_Low_IDAC_MODE_MASK <<
  58              		.loc 1 56 0
  59 001a 0B4A     		ldr	r2, .L2+8
  48:Generated_Source\PSoC4/IDAC_Low.c ****         IDAC_Low_CSD_TRIM1_REG = regVal;
  60              		.loc 1 48 0
  61 001c 0B60     		str	r3, [r1]
  56:Generated_Source\PSoC4/IDAC_Low.c ****         IDAC_Low_IDAC_VALUE_POSITION)) | ((uint32)~((uint32)IDAC_Low_IDAC_MODE_MASK <<
  62              		.loc 1 56 0
  63 001e 1368     		ldr	r3, [r2]
  64              	.LVL3:
  61:Generated_Source\PSoC4/IDAC_Low.c ****         IDAC_Low_IDAC_POLARITY_POSITION));
  65              		.loc 1 61 0
  66 0020 0A49     		ldr	r1, .L2+12
  67              	.LVL4:
  56:Generated_Source\PSoC4/IDAC_Low.c ****         IDAC_Low_IDAC_VALUE_POSITION)) | ((uint32)~((uint32)IDAC_Low_IDAC_MODE_MASK <<
  68              		.loc 1 56 0
  69 0022 1360     		str	r3, [r2]
  70              	.LVL5:
  61:Generated_Source\PSoC4/IDAC_Low.c ****         IDAC_Low_IDAC_POLARITY_POSITION));
  71              		.loc 1 61 0
  72 0024 0A4B     		ldr	r3, .L2+16
  73 0026 1C68     		ldr	r4, [r3]
  74 0028 2140     		ands	r1, r4
  65:Generated_Source\PSoC4/IDAC_Low.c ****         IDAC_Low_IDAC_VALUE_POSITION) | ((uint32)IDAC_Low_IDAC_RANGE <<
  75              		.loc 1 65 0
  76 002a F024     		movs	r4, #240
  61:Generated_Source\PSoC4/IDAC_Low.c ****         IDAC_Low_IDAC_POLARITY_POSITION));
  77              		.loc 1 61 0
  78 002c 1960     		str	r1, [r3]
  65:Generated_Source\PSoC4/IDAC_Low.c ****         IDAC_Low_IDAC_VALUE_POSITION) | ((uint32)IDAC_Low_IDAC_RANGE <<
  79              		.loc 1 65 0
  80 002e 1168     		ldr	r1, [r2]
  81 0030 E403     		lsls	r4, r4, #15
  82 0032 2143     		orrs	r1, r4
  83 0034 1160     		str	r1, [r2]
  69:Generated_Source\PSoC4/IDAC_Low.c ****                                                            IDAC_Low_IDAC_POLARITY_POSITION);
  84              		.loc 1 69 0
ARM GAS  C:\Users\VIDEOH~1\AppData\Local\Temp\ccTBS2km.s 			page 4


  85 0036 1A68     		ldr	r2, [r3]
  86 0038 1A60     		str	r2, [r3]
  72:Generated_Source\PSoC4/IDAC_Low.c **** 
  87              		.loc 1 72 0
  88 003a FFF7FEFF 		bl	CyExitCriticalSection
  89              	.LVL6:
  90              		.loc 1 74 0
  91 003e 10BD     		pop	{r4, pc}
  92              	.L3:
  93              		.align	2
  94              	.L2:
  95 0040 00FF0840 		.word	1074331392
  96 0044 60F1FF0F 		.word	268431712
  97 0048 08000840 		.word	1074266120
  98 004c FFFFFDFF 		.word	-131073
  99 0050 04000840 		.word	1074266116
 100              		.cfi_endproc
 101              	.LFE0:
 102              		.size	IDAC_Low_Init, .-IDAC_Low_Init
 103              		.section	.text.IDAC_Low_Enable,"ax",%progbits
 104              		.align	1
 105              		.global	IDAC_Low_Enable
 106              		.code	16
 107              		.thumb_func
 108              		.type	IDAC_Low_Enable, %function
 109              	IDAC_Low_Enable:
 110              	.LFB1:
  75:Generated_Source\PSoC4/IDAC_Low.c **** 
  76:Generated_Source\PSoC4/IDAC_Low.c **** 
  77:Generated_Source\PSoC4/IDAC_Low.c **** /*******************************************************************************
  78:Generated_Source\PSoC4/IDAC_Low.c **** * Function Name: IDAC_Low_Enable
  79:Generated_Source\PSoC4/IDAC_Low.c **** ********************************************************************************
  80:Generated_Source\PSoC4/IDAC_Low.c **** *
  81:Generated_Source\PSoC4/IDAC_Low.c **** * Summary:
  82:Generated_Source\PSoC4/IDAC_Low.c **** *  Enables IDAC operations.
  83:Generated_Source\PSoC4/IDAC_Low.c **** *
  84:Generated_Source\PSoC4/IDAC_Low.c **** * Parameters:
  85:Generated_Source\PSoC4/IDAC_Low.c **** *  None
  86:Generated_Source\PSoC4/IDAC_Low.c **** *
  87:Generated_Source\PSoC4/IDAC_Low.c **** * Return:
  88:Generated_Source\PSoC4/IDAC_Low.c **** *  None
  89:Generated_Source\PSoC4/IDAC_Low.c **** *
  90:Generated_Source\PSoC4/IDAC_Low.c **** * Global variables:
  91:Generated_Source\PSoC4/IDAC_Low.c **** *  None
  92:Generated_Source\PSoC4/IDAC_Low.c **** *
  93:Generated_Source\PSoC4/IDAC_Low.c **** *******************************************************************************/
  94:Generated_Source\PSoC4/IDAC_Low.c **** void IDAC_Low_Enable(void)
  95:Generated_Source\PSoC4/IDAC_Low.c **** {
 111              		.loc 1 95 0
 112              		.cfi_startproc
 113              		@ args = 0, pretend = 0, frame = 0
 114              		@ frame_needed = 0, uses_anonymous_args = 0
 115 0000 10B5     		push	{r4, lr}
 116              		.cfi_def_cfa_offset 8
 117              		.cfi_offset 4, -8
 118              		.cfi_offset 14, -4
  96:Generated_Source\PSoC4/IDAC_Low.c ****     uint8 enableInterrupts;
ARM GAS  C:\Users\VIDEOH~1\AppData\Local\Temp\ccTBS2km.s 			page 5


  97:Generated_Source\PSoC4/IDAC_Low.c **** 
  98:Generated_Source\PSoC4/IDAC_Low.c ****     enableInterrupts = CyEnterCriticalSection();
 119              		.loc 1 98 0
 120 0002 FFF7FEFF 		bl	CyEnterCriticalSection
 121              	.LVL7:
  99:Generated_Source\PSoC4/IDAC_Low.c **** 
 100:Generated_Source\PSoC4/IDAC_Low.c ****     /* Enable the IDAC */
 101:Generated_Source\PSoC4/IDAC_Low.c ****     IDAC_Low_IDAC_CONTROL_REG |= ((uint32)IDAC_Low_IDAC_EN_MODE <<
 122              		.loc 1 101 0
 123 0006 C021     		movs	r1, #192
 124 0008 064A     		ldr	r2, .L5
 125 000a 8904     		lsls	r1, r1, #18
 126 000c 1368     		ldr	r3, [r2]
 102:Generated_Source\PSoC4/IDAC_Low.c ****                                                   IDAC_Low_IDAC_MODE_POSITION);
 103:Generated_Source\PSoC4/IDAC_Low.c ****     IDAC_Low_IDAC_POLARITY_CONTROL_REG |= ((uint32)IDAC_Low_IDAC_CSD_EN <<
 104:Generated_Source\PSoC4/IDAC_Low.c ****                                                            IDAC_Low_IDAC_CSD_EN_POSITION);
 105:Generated_Source\PSoC4/IDAC_Low.c ****     CyExitCriticalSection(enableInterrupts);
 106:Generated_Source\PSoC4/IDAC_Low.c **** 
 107:Generated_Source\PSoC4/IDAC_Low.c **** }
 127              		.loc 1 107 0
 128              		@ sp needed
 101:Generated_Source\PSoC4/IDAC_Low.c ****                                                   IDAC_Low_IDAC_MODE_POSITION);
 129              		.loc 1 101 0
 130 000e 0B43     		orrs	r3, r1
 103:Generated_Source\PSoC4/IDAC_Low.c ****                                                            IDAC_Low_IDAC_CSD_EN_POSITION);
 131              		.loc 1 103 0
 132 0010 8021     		movs	r1, #128
 101:Generated_Source\PSoC4/IDAC_Low.c ****                                                   IDAC_Low_IDAC_MODE_POSITION);
 133              		.loc 1 101 0
 134 0012 1360     		str	r3, [r2]
 103:Generated_Source\PSoC4/IDAC_Low.c ****                                                            IDAC_Low_IDAC_CSD_EN_POSITION);
 135              		.loc 1 103 0
 136 0014 044A     		ldr	r2, .L5+4
 137 0016 0906     		lsls	r1, r1, #24
 138 0018 1368     		ldr	r3, [r2]
 139 001a 0B43     		orrs	r3, r1
 140 001c 1360     		str	r3, [r2]
 105:Generated_Source\PSoC4/IDAC_Low.c **** 
 141              		.loc 1 105 0
 142 001e FFF7FEFF 		bl	CyExitCriticalSection
 143              	.LVL8:
 144              		.loc 1 107 0
 145 0022 10BD     		pop	{r4, pc}
 146              	.L6:
 147              		.align	2
 148              	.L5:
 149 0024 08000840 		.word	1074266120
 150 0028 04000840 		.word	1074266116
 151              		.cfi_endproc
 152              	.LFE1:
 153              		.size	IDAC_Low_Enable, .-IDAC_Low_Enable
 154              		.section	.text.IDAC_Low_Start,"ax",%progbits
 155              		.align	1
 156              		.global	IDAC_Low_Start
 157              		.code	16
 158              		.thumb_func
 159              		.type	IDAC_Low_Start, %function
ARM GAS  C:\Users\VIDEOH~1\AppData\Local\Temp\ccTBS2km.s 			page 6


 160              	IDAC_Low_Start:
 161              	.LFB2:
 108:Generated_Source\PSoC4/IDAC_Low.c **** 
 109:Generated_Source\PSoC4/IDAC_Low.c **** 
 110:Generated_Source\PSoC4/IDAC_Low.c **** /*******************************************************************************
 111:Generated_Source\PSoC4/IDAC_Low.c **** * Function Name: IDAC_Low_Start
 112:Generated_Source\PSoC4/IDAC_Low.c **** ********************************************************************************
 113:Generated_Source\PSoC4/IDAC_Low.c **** *
 114:Generated_Source\PSoC4/IDAC_Low.c **** * Summary:
 115:Generated_Source\PSoC4/IDAC_Low.c **** *  Starts the IDAC hardware.
 116:Generated_Source\PSoC4/IDAC_Low.c **** *
 117:Generated_Source\PSoC4/IDAC_Low.c **** * Parameters:
 118:Generated_Source\PSoC4/IDAC_Low.c **** *  None
 119:Generated_Source\PSoC4/IDAC_Low.c **** *
 120:Generated_Source\PSoC4/IDAC_Low.c **** * Return:
 121:Generated_Source\PSoC4/IDAC_Low.c **** *  None
 122:Generated_Source\PSoC4/IDAC_Low.c **** *
 123:Generated_Source\PSoC4/IDAC_Low.c **** * Global variables:
 124:Generated_Source\PSoC4/IDAC_Low.c **** *  IDAC_Low_initVar
 125:Generated_Source\PSoC4/IDAC_Low.c **** *
 126:Generated_Source\PSoC4/IDAC_Low.c **** *******************************************************************************/
 127:Generated_Source\PSoC4/IDAC_Low.c **** void IDAC_Low_Start(void)
 128:Generated_Source\PSoC4/IDAC_Low.c **** {
 162              		.loc 1 128 0
 163              		.cfi_startproc
 164              		@ args = 0, pretend = 0, frame = 0
 165              		@ frame_needed = 0, uses_anonymous_args = 0
 166 0000 10B5     		push	{r4, lr}
 167              		.cfi_def_cfa_offset 8
 168              		.cfi_offset 4, -8
 169              		.cfi_offset 14, -4
 129:Generated_Source\PSoC4/IDAC_Low.c ****     if(0u == IDAC_Low_initVar)
 170              		.loc 1 129 0
 171 0002 054C     		ldr	r4, .L10
 172 0004 2368     		ldr	r3, [r4]
 173 0006 002B     		cmp	r3, #0
 174 0008 03D1     		bne	.L8
 130:Generated_Source\PSoC4/IDAC_Low.c ****     {
 131:Generated_Source\PSoC4/IDAC_Low.c ****         IDAC_Low_Init();
 175              		.loc 1 131 0
 176 000a FFF7FEFF 		bl	IDAC_Low_Init
 177              	.LVL9:
 132:Generated_Source\PSoC4/IDAC_Low.c ****         IDAC_Low_initVar = 1u;
 178              		.loc 1 132 0
 179 000e 0123     		movs	r3, #1
 180 0010 2360     		str	r3, [r4]
 181              	.L8:
 133:Generated_Source\PSoC4/IDAC_Low.c ****     }
 134:Generated_Source\PSoC4/IDAC_Low.c **** 
 135:Generated_Source\PSoC4/IDAC_Low.c ****     IDAC_Low_Enable();
 182              		.loc 1 135 0
 183 0012 FFF7FEFF 		bl	IDAC_Low_Enable
 184              	.LVL10:
 136:Generated_Source\PSoC4/IDAC_Low.c **** 
 137:Generated_Source\PSoC4/IDAC_Low.c **** }
 185              		.loc 1 137 0
 186              		@ sp needed
ARM GAS  C:\Users\VIDEOH~1\AppData\Local\Temp\ccTBS2km.s 			page 7


 187 0016 10BD     		pop	{r4, pc}
 188              	.L11:
 189              		.align	2
 190              	.L10:
 191 0018 00000000 		.word	.LANCHOR0
 192              		.cfi_endproc
 193              	.LFE2:
 194              		.size	IDAC_Low_Start, .-IDAC_Low_Start
 195              		.section	.text.IDAC_Low_Stop,"ax",%progbits
 196              		.align	1
 197              		.global	IDAC_Low_Stop
 198              		.code	16
 199              		.thumb_func
 200              		.type	IDAC_Low_Stop, %function
 201              	IDAC_Low_Stop:
 202              	.LFB3:
 138:Generated_Source\PSoC4/IDAC_Low.c **** 
 139:Generated_Source\PSoC4/IDAC_Low.c **** 
 140:Generated_Source\PSoC4/IDAC_Low.c **** /*******************************************************************************
 141:Generated_Source\PSoC4/IDAC_Low.c **** * Function Name: IDAC_Low_Stop
 142:Generated_Source\PSoC4/IDAC_Low.c **** ********************************************************************************
 143:Generated_Source\PSoC4/IDAC_Low.c **** *
 144:Generated_Source\PSoC4/IDAC_Low.c **** * Summary:
 145:Generated_Source\PSoC4/IDAC_Low.c **** *  Stops the IDAC hardware.
 146:Generated_Source\PSoC4/IDAC_Low.c **** *
 147:Generated_Source\PSoC4/IDAC_Low.c **** * Parameters:
 148:Generated_Source\PSoC4/IDAC_Low.c **** *  None
 149:Generated_Source\PSoC4/IDAC_Low.c **** *
 150:Generated_Source\PSoC4/IDAC_Low.c **** * Return:
 151:Generated_Source\PSoC4/IDAC_Low.c **** *  None
 152:Generated_Source\PSoC4/IDAC_Low.c **** *
 153:Generated_Source\PSoC4/IDAC_Low.c **** * Global variables:
 154:Generated_Source\PSoC4/IDAC_Low.c **** *  None
 155:Generated_Source\PSoC4/IDAC_Low.c **** *
 156:Generated_Source\PSoC4/IDAC_Low.c **** *******************************************************************************/
 157:Generated_Source\PSoC4/IDAC_Low.c **** void IDAC_Low_Stop(void)
 158:Generated_Source\PSoC4/IDAC_Low.c **** {
 203              		.loc 1 158 0
 204              		.cfi_startproc
 205              		@ args = 0, pretend = 0, frame = 0
 206              		@ frame_needed = 0, uses_anonymous_args = 0
 207 0000 10B5     		push	{r4, lr}
 208              		.cfi_def_cfa_offset 8
 209              		.cfi_offset 4, -8
 210              		.cfi_offset 14, -4
 159:Generated_Source\PSoC4/IDAC_Low.c ****     uint8 enableInterrupts;
 160:Generated_Source\PSoC4/IDAC_Low.c **** 
 161:Generated_Source\PSoC4/IDAC_Low.c ****     enableInterrupts = CyEnterCriticalSection();
 211              		.loc 1 161 0
 212 0002 FFF7FEFF 		bl	CyEnterCriticalSection
 213              	.LVL11:
 162:Generated_Source\PSoC4/IDAC_Low.c **** 
 163:Generated_Source\PSoC4/IDAC_Low.c ****     /* Disable the IDAC */
 164:Generated_Source\PSoC4/IDAC_Low.c ****     IDAC_Low_IDAC_CONTROL_REG &= ((uint32)~((uint32)IDAC_Low_IDAC_MODE_MASK <<
 214              		.loc 1 164 0
 215 0006 044A     		ldr	r2, .L13
 216 0008 044B     		ldr	r3, .L13+4
ARM GAS  C:\Users\VIDEOH~1\AppData\Local\Temp\ccTBS2km.s 			page 8


 217 000a 1168     		ldr	r1, [r2]
 165:Generated_Source\PSoC4/IDAC_Low.c ****         IDAC_Low_IDAC_MODE_POSITION));
 166:Generated_Source\PSoC4/IDAC_Low.c ****     CyExitCriticalSection(enableInterrupts);
 167:Generated_Source\PSoC4/IDAC_Low.c **** }
 218              		.loc 1 167 0
 219              		@ sp needed
 164:Generated_Source\PSoC4/IDAC_Low.c ****         IDAC_Low_IDAC_MODE_POSITION));
 220              		.loc 1 164 0
 221 000c 0B40     		ands	r3, r1
 222 000e 1360     		str	r3, [r2]
 166:Generated_Source\PSoC4/IDAC_Low.c **** }
 223              		.loc 1 166 0
 224 0010 FFF7FEFF 		bl	CyExitCriticalSection
 225              	.LVL12:
 226              		.loc 1 167 0
 227 0014 10BD     		pop	{r4, pc}
 228              	.L14:
 229 0016 C046     		.align	2
 230              	.L13:
 231 0018 08000840 		.word	1074266120
 232 001c FFFFFFFC 		.word	-50331649
 233              		.cfi_endproc
 234              	.LFE3:
 235              		.size	IDAC_Low_Stop, .-IDAC_Low_Stop
 236              		.section	.text.IDAC_Low_SetValue,"ax",%progbits
 237              		.align	1
 238              		.global	IDAC_Low_SetValue
 239              		.code	16
 240              		.thumb_func
 241              		.type	IDAC_Low_SetValue, %function
 242              	IDAC_Low_SetValue:
 243              	.LFB4:
 168:Generated_Source\PSoC4/IDAC_Low.c **** 
 169:Generated_Source\PSoC4/IDAC_Low.c **** 
 170:Generated_Source\PSoC4/IDAC_Low.c **** /*******************************************************************************
 171:Generated_Source\PSoC4/IDAC_Low.c **** * Function Name: IDAC_Low_SetValue
 172:Generated_Source\PSoC4/IDAC_Low.c **** ********************************************************************************
 173:Generated_Source\PSoC4/IDAC_Low.c **** *
 174:Generated_Source\PSoC4/IDAC_Low.c **** * Summary:
 175:Generated_Source\PSoC4/IDAC_Low.c **** *  Sets the IDAC value.
 176:Generated_Source\PSoC4/IDAC_Low.c **** *
 177:Generated_Source\PSoC4/IDAC_Low.c **** * Parameters:
 178:Generated_Source\PSoC4/IDAC_Low.c **** *  uint32 value
 179:Generated_Source\PSoC4/IDAC_Low.c **** *
 180:Generated_Source\PSoC4/IDAC_Low.c **** * Return:
 181:Generated_Source\PSoC4/IDAC_Low.c **** *  None
 182:Generated_Source\PSoC4/IDAC_Low.c **** *
 183:Generated_Source\PSoC4/IDAC_Low.c **** * Global variables:
 184:Generated_Source\PSoC4/IDAC_Low.c **** *  None
 185:Generated_Source\PSoC4/IDAC_Low.c **** *
 186:Generated_Source\PSoC4/IDAC_Low.c **** *******************************************************************************/
 187:Generated_Source\PSoC4/IDAC_Low.c **** void IDAC_Low_SetValue(uint32 value)
 188:Generated_Source\PSoC4/IDAC_Low.c **** {
 244              		.loc 1 188 0
 245              		.cfi_startproc
 246              		@ args = 0, pretend = 0, frame = 0
 247              		@ frame_needed = 0, uses_anonymous_args = 0
ARM GAS  C:\Users\VIDEOH~1\AppData\Local\Temp\ccTBS2km.s 			page 9


 248              	.LVL13:
 249 0000 10B5     		push	{r4, lr}
 250              		.cfi_def_cfa_offset 8
 251              		.cfi_offset 4, -8
 252              		.cfi_offset 14, -4
 253              		.loc 1 188 0
 254 0002 0400     		movs	r4, r0
 189:Generated_Source\PSoC4/IDAC_Low.c ****     uint8 enableInterrupts;
 190:Generated_Source\PSoC4/IDAC_Low.c ****     uint32 newRegisterValue;
 191:Generated_Source\PSoC4/IDAC_Low.c **** 
 192:Generated_Source\PSoC4/IDAC_Low.c ****     enableInterrupts = CyEnterCriticalSection();
 255              		.loc 1 192 0
 256 0004 FFF7FEFF 		bl	CyEnterCriticalSection
 257              	.LVL14:
 193:Generated_Source\PSoC4/IDAC_Low.c **** 
 194:Generated_Source\PSoC4/IDAC_Low.c ****     #if(IDAC_Low_IDAC_VALUE_POSITION != 0u)
 195:Generated_Source\PSoC4/IDAC_Low.c ****         newRegisterValue = ((IDAC_Low_IDAC_CONTROL_REG & (~(uint32)((uint32)IDAC_Low_IDAC_VALUE_MAS
 258              		.loc 1 195 0
 259 0008 044A     		ldr	r2, .L16
 260 000a 054B     		ldr	r3, .L16+4
 261 000c 1168     		ldr	r1, [r2]
 262 000e 2404     		lsls	r4, r4, #16
 263              	.LVL15:
 264 0010 0B40     		ands	r3, r1
 265 0012 1C43     		orrs	r4, r3
 266              	.LVL16:
 196:Generated_Source\PSoC4/IDAC_Low.c ****         IDAC_Low_IDAC_VALUE_POSITION))) | (value << IDAC_Low_IDAC_VALUE_POSITION));
 197:Generated_Source\PSoC4/IDAC_Low.c ****     #else
 198:Generated_Source\PSoC4/IDAC_Low.c ****         newRegisterValue = ((IDAC_Low_IDAC_CONTROL_REG & (~(uint32)IDAC_Low_IDAC_VALUE_MASK)) | val
 199:Generated_Source\PSoC4/IDAC_Low.c ****     #endif /* IDAC_Low_IDAC_VALUE_POSITION != 0u */
 200:Generated_Source\PSoC4/IDAC_Low.c **** 
 201:Generated_Source\PSoC4/IDAC_Low.c ****     IDAC_Low_IDAC_CONTROL_REG = newRegisterValue;
 267              		.loc 1 201 0
 268 0014 1460     		str	r4, [r2]
 202:Generated_Source\PSoC4/IDAC_Low.c **** 
 203:Generated_Source\PSoC4/IDAC_Low.c ****     CyExitCriticalSection(enableInterrupts);
 269              		.loc 1 203 0
 270 0016 FFF7FEFF 		bl	CyExitCriticalSection
 271              	.LVL17:
 204:Generated_Source\PSoC4/IDAC_Low.c **** }
 272              		.loc 1 204 0
 273              		@ sp needed
 274              	.LVL18:
 275 001a 10BD     		pop	{r4, pc}
 276              	.L17:
 277              		.align	2
 278              	.L16:
 279 001c 08000840 		.word	1074266120
 280 0020 FFFF80FF 		.word	-8323073
 281              		.cfi_endproc
 282              	.LFE4:
 283              		.size	IDAC_Low_SetValue, .-IDAC_Low_SetValue
 284              		.global	IDAC_Low_initVar
 285              		.bss
 286              		.align	2
 287              		.set	.LANCHOR0,. + 0
 288              		.type	IDAC_Low_initVar, %object
ARM GAS  C:\Users\VIDEOH~1\AppData\Local\Temp\ccTBS2km.s 			page 10


 289              		.size	IDAC_Low_initVar, 4
 290              	IDAC_Low_initVar:
 291 0000 00000000 		.space	4
 292              		.text
 293              	.Letext0:
 294              		.file 2 "Generated_Source\\PSoC4\\cytypes.h"
 295              		.file 3 "Generated_Source\\PSoC4\\CyLib.h"