ARM GAS  C:\Users\VIDEOH~1\AppData\Local\Temp\ccbTS6Va.s 			page 1


   1              		.syntax unified
   2              		.cpu cortex-m0
   3              		.fpu softvfp
   4              		.eabi_attribute 20, 1
   5              		.eabi_attribute 21, 1
   6              		.eabi_attribute 23, 3
   7              		.eabi_attribute 24, 1
   8              		.eabi_attribute 25, 1
   9              		.eabi_attribute 26, 1
  10              		.eabi_attribute 30, 4
  11              		.eabi_attribute 34, 0
  12              		.eabi_attribute 18, 4
  13              		.thumb
  14              		.syntax unified
  15              		.file	"IDAC_High_PM.c"
  16              		.text
  17              	.Ltext0:
  18              		.cfi_sections	.debug_frame
  19              		.section	.text.IDAC_High_SaveConfig,"ax",%progbits
  20              		.align	1
  21              		.global	IDAC_High_SaveConfig
  22              		.code	16
  23              		.thumb_func
  24              		.type	IDAC_High_SaveConfig, %function
  25              	IDAC_High_SaveConfig:
  26              	.LFB5:
  27              		.cfi_startproc
  28              		@ args = 0, pretend = 0, frame = 0
  29              		@ frame_needed = 0, uses_anonymous_args = 0
  30              		@ link register save eliminated.
  31              		@ sp needed
  32 0000 7047     		bx	lr
  33              		.cfi_endproc
  34              	.LFE5:
  35              		.size	IDAC_High_SaveConfig, .-IDAC_High_SaveConfig
  36              		.section	.text.IDAC_High_Sleep,"ax",%progbits
  37              		.align	1
  38              		.global	IDAC_High_Sleep
  39              		.code	16
  40              		.thumb_func
  41              		.type	IDAC_High_Sleep, %function
  42              	IDAC_High_Sleep:
  43              	.LFB1:
  44              		.file 1 "Generated_Source\\PSoC4\\IDAC_High_PM.c"
   1:Generated_Source\PSoC4/IDAC_High_PM.c **** /*******************************************************************************
   2:Generated_Source\PSoC4/IDAC_High_PM.c **** * File Name: IDAC_High_PM.c
   3:Generated_Source\PSoC4/IDAC_High_PM.c **** * Version 1.10
   4:Generated_Source\PSoC4/IDAC_High_PM.c **** *
   5:Generated_Source\PSoC4/IDAC_High_PM.c **** * Description:
   6:Generated_Source\PSoC4/IDAC_High_PM.c **** *  This file provides Low power mode APIs for IDAC_P4 component.
   7:Generated_Source\PSoC4/IDAC_High_PM.c **** *
   8:Generated_Source\PSoC4/IDAC_High_PM.c **** ********************************************************************************
   9:Generated_Source\PSoC4/IDAC_High_PM.c **** * Copyright 2013-2015, Cypress Semiconductor Corporation.  All rights reserved.
  10:Generated_Source\PSoC4/IDAC_High_PM.c **** * You may use this file only in accordance with the license, terms, conditions,
  11:Generated_Source\PSoC4/IDAC_High_PM.c **** * disclaimers, and limitations in the end user license agreement accompanying
  12:Generated_Source\PSoC4/IDAC_High_PM.c **** * the software package with which this file was provided.
  13:Generated_Source\PSoC4/IDAC_High_PM.c **** *******************************************************************************/
ARM GAS  C:\Users\VIDEOH~1\AppData\Local\Temp\ccbTS6Va.s 			page 2


  14:Generated_Source\PSoC4/IDAC_High_PM.c **** 
  15:Generated_Source\PSoC4/IDAC_High_PM.c **** #include "IDAC_High.h"
  16:Generated_Source\PSoC4/IDAC_High_PM.c **** 
  17:Generated_Source\PSoC4/IDAC_High_PM.c **** 
  18:Generated_Source\PSoC4/IDAC_High_PM.c **** static IDAC_High_BACKUP_STRUCT IDAC_High_backup;
  19:Generated_Source\PSoC4/IDAC_High_PM.c **** 
  20:Generated_Source\PSoC4/IDAC_High_PM.c **** 
  21:Generated_Source\PSoC4/IDAC_High_PM.c **** /*******************************************************************************
  22:Generated_Source\PSoC4/IDAC_High_PM.c **** * Function Name: IDAC_High_SaveConfig
  23:Generated_Source\PSoC4/IDAC_High_PM.c **** ********************************************************************************
  24:Generated_Source\PSoC4/IDAC_High_PM.c **** *
  25:Generated_Source\PSoC4/IDAC_High_PM.c **** * Summary:
  26:Generated_Source\PSoC4/IDAC_High_PM.c **** *  Saves component state before sleep
  27:Generated_Source\PSoC4/IDAC_High_PM.c **** * Parameters:
  28:Generated_Source\PSoC4/IDAC_High_PM.c **** *  None
  29:Generated_Source\PSoC4/IDAC_High_PM.c **** *
  30:Generated_Source\PSoC4/IDAC_High_PM.c **** * Return:
  31:Generated_Source\PSoC4/IDAC_High_PM.c **** *  None
  32:Generated_Source\PSoC4/IDAC_High_PM.c **** *
  33:Generated_Source\PSoC4/IDAC_High_PM.c **** * Global Variables:
  34:Generated_Source\PSoC4/IDAC_High_PM.c **** *  None
  35:Generated_Source\PSoC4/IDAC_High_PM.c **** *
  36:Generated_Source\PSoC4/IDAC_High_PM.c **** *******************************************************************************/
  37:Generated_Source\PSoC4/IDAC_High_PM.c **** void IDAC_High_SaveConfig(void)
  38:Generated_Source\PSoC4/IDAC_High_PM.c **** {
  39:Generated_Source\PSoC4/IDAC_High_PM.c ****     /* All registers are retention - nothing to save */
  40:Generated_Source\PSoC4/IDAC_High_PM.c **** }
  41:Generated_Source\PSoC4/IDAC_High_PM.c **** 
  42:Generated_Source\PSoC4/IDAC_High_PM.c **** 
  43:Generated_Source\PSoC4/IDAC_High_PM.c **** /*******************************************************************************
  44:Generated_Source\PSoC4/IDAC_High_PM.c **** * Function Name: IDAC_High_Sleep
  45:Generated_Source\PSoC4/IDAC_High_PM.c **** ********************************************************************************
  46:Generated_Source\PSoC4/IDAC_High_PM.c **** *
  47:Generated_Source\PSoC4/IDAC_High_PM.c **** * Summary:
  48:Generated_Source\PSoC4/IDAC_High_PM.c **** *  Calls _SaveConfig() function
  49:Generated_Source\PSoC4/IDAC_High_PM.c **** * Parameters:
  50:Generated_Source\PSoC4/IDAC_High_PM.c **** *  None
  51:Generated_Source\PSoC4/IDAC_High_PM.c **** *
  52:Generated_Source\PSoC4/IDAC_High_PM.c **** * Return:
  53:Generated_Source\PSoC4/IDAC_High_PM.c **** *  None
  54:Generated_Source\PSoC4/IDAC_High_PM.c **** *
  55:Generated_Source\PSoC4/IDAC_High_PM.c **** *******************************************************************************/
  56:Generated_Source\PSoC4/IDAC_High_PM.c **** void IDAC_High_Sleep(void)
  57:Generated_Source\PSoC4/IDAC_High_PM.c **** {
  45              		.loc 1 57 0
  46              		.cfi_startproc
  47              		@ args = 0, pretend = 0, frame = 0
  48              		@ frame_needed = 0, uses_anonymous_args = 0
  58:Generated_Source\PSoC4/IDAC_High_PM.c ****         if(0u != (IDAC_High_IDAC_CONTROL_REG & ((uint32)IDAC_High_IDAC_MODE_MASK <<
  49              		.loc 1 58 0
  50 0000 064B     		ldr	r3, .L6
  57:Generated_Source\PSoC4/IDAC_High_PM.c ****         if(0u != (IDAC_High_IDAC_CONTROL_REG & ((uint32)IDAC_High_IDAC_MODE_MASK <<
  51              		.loc 1 57 0
  52 0002 10B5     		push	{r4, lr}
  53              		.cfi_def_cfa_offset 8
  54              		.cfi_offset 4, -8
  55              		.cfi_offset 14, -4
ARM GAS  C:\Users\VIDEOH~1\AppData\Local\Temp\ccbTS6Va.s 			page 3


  56              		.loc 1 58 0
  57 0004 1A68     		ldr	r2, [r3]
  58 0006 C023     		movs	r3, #192
  59 0008 9B00     		lsls	r3, r3, #2
  60 000a 1340     		ands	r3, r2
  61 000c 044A     		ldr	r2, .L6+4
  62 000e 00D0     		beq	.L3
  59:Generated_Source\PSoC4/IDAC_High_PM.c ****         IDAC_High_IDAC_MODE_POSITION)))
  60:Generated_Source\PSoC4/IDAC_High_PM.c ****         {
  61:Generated_Source\PSoC4/IDAC_High_PM.c ****             IDAC_High_backup.enableState = 1u;
  63              		.loc 1 61 0
  64 0010 0123     		movs	r3, #1
  65              	.L3:
  62:Generated_Source\PSoC4/IDAC_High_PM.c ****         }
  63:Generated_Source\PSoC4/IDAC_High_PM.c ****         else
  64:Generated_Source\PSoC4/IDAC_High_PM.c ****         {
  65:Generated_Source\PSoC4/IDAC_High_PM.c ****             IDAC_High_backup.enableState = 0u;
  66              		.loc 1 65 0
  67 0012 1370     		strb	r3, [r2]
  66:Generated_Source\PSoC4/IDAC_High_PM.c ****         }
  67:Generated_Source\PSoC4/IDAC_High_PM.c **** 
  68:Generated_Source\PSoC4/IDAC_High_PM.c ****     IDAC_High_Stop();
  69:Generated_Source\PSoC4/IDAC_High_PM.c ****     IDAC_High_SaveConfig();
  70:Generated_Source\PSoC4/IDAC_High_PM.c **** }
  68              		.loc 1 70 0
  69              		@ sp needed
  68:Generated_Source\PSoC4/IDAC_High_PM.c ****     IDAC_High_SaveConfig();
  70              		.loc 1 68 0
  71 0014 FFF7FEFF 		bl	IDAC_High_Stop
  72              	.LVL0:
  73              		.loc 1 70 0
  74 0018 10BD     		pop	{r4, pc}
  75              	.L7:
  76 001a C046     		.align	2
  77              	.L6:
  78 001c 08000840 		.word	1074266120
  79 0020 00000000 		.word	.LANCHOR0
  80              		.cfi_endproc
  81              	.LFE1:
  82              		.size	IDAC_High_Sleep, .-IDAC_High_Sleep
  83              		.section	.text.IDAC_High_RestoreConfig,"ax",%progbits
  84              		.align	1
  85              		.global	IDAC_High_RestoreConfig
  86              		.code	16
  87              		.thumb_func
  88              		.type	IDAC_High_RestoreConfig, %function
  89              	IDAC_High_RestoreConfig:
  90              	.LFB2:
  71:Generated_Source\PSoC4/IDAC_High_PM.c **** 
  72:Generated_Source\PSoC4/IDAC_High_PM.c **** 
  73:Generated_Source\PSoC4/IDAC_High_PM.c **** /*******************************************************************************
  74:Generated_Source\PSoC4/IDAC_High_PM.c **** * Function Name: IDAC_High_RestoreConfig
  75:Generated_Source\PSoC4/IDAC_High_PM.c **** ********************************************************************************
  76:Generated_Source\PSoC4/IDAC_High_PM.c **** *
  77:Generated_Source\PSoC4/IDAC_High_PM.c **** * Summary:
  78:Generated_Source\PSoC4/IDAC_High_PM.c **** *  Restores component state after wakeup
  79:Generated_Source\PSoC4/IDAC_High_PM.c **** * Parameters:
ARM GAS  C:\Users\VIDEOH~1\AppData\Local\Temp\ccbTS6Va.s 			page 4


  80:Generated_Source\PSoC4/IDAC_High_PM.c **** *  None
  81:Generated_Source\PSoC4/IDAC_High_PM.c **** *
  82:Generated_Source\PSoC4/IDAC_High_PM.c **** * Return:
  83:Generated_Source\PSoC4/IDAC_High_PM.c **** *  None
  84:Generated_Source\PSoC4/IDAC_High_PM.c **** *
  85:Generated_Source\PSoC4/IDAC_High_PM.c **** * Global Variables:
  86:Generated_Source\PSoC4/IDAC_High_PM.c **** *  None
  87:Generated_Source\PSoC4/IDAC_High_PM.c **** *
  88:Generated_Source\PSoC4/IDAC_High_PM.c **** *******************************************************************************/
  89:Generated_Source\PSoC4/IDAC_High_PM.c **** void IDAC_High_RestoreConfig(void)
  90:Generated_Source\PSoC4/IDAC_High_PM.c **** {
  91              		.loc 1 90 0
  92              		.cfi_startproc
  93              		@ args = 0, pretend = 0, frame = 0
  94              		@ frame_needed = 0, uses_anonymous_args = 0
  95              		@ link register save eliminated.
  91:Generated_Source\PSoC4/IDAC_High_PM.c ****     /* All registers are retention - nothing to save */
  92:Generated_Source\PSoC4/IDAC_High_PM.c **** }
  96              		.loc 1 92 0
  97              		@ sp needed
  98 0000 7047     		bx	lr
  99              		.cfi_endproc
 100              	.LFE2:
 101              		.size	IDAC_High_RestoreConfig, .-IDAC_High_RestoreConfig
 102              		.section	.text.IDAC_High_Wakeup,"ax",%progbits
 103              		.align	1
 104              		.global	IDAC_High_Wakeup
 105              		.code	16
 106              		.thumb_func
 107              		.type	IDAC_High_Wakeup, %function
 108              	IDAC_High_Wakeup:
 109              	.LFB3:
  93:Generated_Source\PSoC4/IDAC_High_PM.c **** 
  94:Generated_Source\PSoC4/IDAC_High_PM.c **** 
  95:Generated_Source\PSoC4/IDAC_High_PM.c **** /*******************************************************************************
  96:Generated_Source\PSoC4/IDAC_High_PM.c **** * Function Name: IDAC_High_Wakeup
  97:Generated_Source\PSoC4/IDAC_High_PM.c **** ********************************************************************************
  98:Generated_Source\PSoC4/IDAC_High_PM.c **** *
  99:Generated_Source\PSoC4/IDAC_High_PM.c **** * Summary:
 100:Generated_Source\PSoC4/IDAC_High_PM.c **** *  Calls _RestoreConfig() function
 101:Generated_Source\PSoC4/IDAC_High_PM.c **** * Parameters:
 102:Generated_Source\PSoC4/IDAC_High_PM.c **** *  None
 103:Generated_Source\PSoC4/IDAC_High_PM.c **** *
 104:Generated_Source\PSoC4/IDAC_High_PM.c **** * Return:
 105:Generated_Source\PSoC4/IDAC_High_PM.c **** *  None
 106:Generated_Source\PSoC4/IDAC_High_PM.c **** *
 107:Generated_Source\PSoC4/IDAC_High_PM.c **** *******************************************************************************/
 108:Generated_Source\PSoC4/IDAC_High_PM.c **** void IDAC_High_Wakeup(void)
 109:Generated_Source\PSoC4/IDAC_High_PM.c **** {
 110              		.loc 1 109 0
 111              		.cfi_startproc
 112              		@ args = 0, pretend = 0, frame = 0
 113              		@ frame_needed = 0, uses_anonymous_args = 0
 114 0000 10B5     		push	{r4, lr}
 115              		.cfi_def_cfa_offset 8
 116              		.cfi_offset 4, -8
 117              		.cfi_offset 14, -4
ARM GAS  C:\Users\VIDEOH~1\AppData\Local\Temp\ccbTS6Va.s 			page 5


 110:Generated_Source\PSoC4/IDAC_High_PM.c ****     /* Restore IDAC register settings */
 111:Generated_Source\PSoC4/IDAC_High_PM.c ****     IDAC_High_RestoreConfig();
 112:Generated_Source\PSoC4/IDAC_High_PM.c ****     if(IDAC_High_backup.enableState == 1u)
 118              		.loc 1 112 0
 119 0002 034B     		ldr	r3, .L11
 120 0004 1B78     		ldrb	r3, [r3]
 121 0006 012B     		cmp	r3, #1
 122 0008 01D1     		bne	.L9
 113:Generated_Source\PSoC4/IDAC_High_PM.c ****     {
 114:Generated_Source\PSoC4/IDAC_High_PM.c ****         /* Enable operation */
 115:Generated_Source\PSoC4/IDAC_High_PM.c ****         IDAC_High_Enable();
 123              		.loc 1 115 0
 124 000a FFF7FEFF 		bl	IDAC_High_Enable
 125              	.LVL1:
 126              	.L9:
 116:Generated_Source\PSoC4/IDAC_High_PM.c ****     } /* Do nothing if the component was disabled before */
 117:Generated_Source\PSoC4/IDAC_High_PM.c **** 
 118:Generated_Source\PSoC4/IDAC_High_PM.c **** }
 127              		.loc 1 118 0
 128              		@ sp needed
 129 000e 10BD     		pop	{r4, pc}
 130              	.L12:
 131              		.align	2
 132              	.L11:
 133 0010 00000000 		.word	.LANCHOR0
 134              		.cfi_endproc
 135              	.LFE3:
 136              		.size	IDAC_High_Wakeup, .-IDAC_High_Wakeup
 137              		.bss
 138              		.set	.LANCHOR0,. + 0
 139              		.type	IDAC_High_backup, %object
 140              		.size	IDAC_High_backup, 1
 141              	IDAC_High_backup:
 142 0000 00       		.space	1
 143              		.text
 144              	.Letext0:
 145              		.file 2 "Generated_Source\\PSoC4\\cytypes.h"
 146              		.file 3 "Generated_Source\\PSoC4\\IDAC_High.h"