ARM GAS  C:\Users\VIDEOH~1\AppData\Local\Temp\ccef6uz9.s 			page 1


   1              		.syntax unified
   2              		.cpu cortex-m0
   3              		.fpu softvfp
   4              		.eabi_attribute 20, 1
   5              		.eabi_attribute 21, 1
   6              		.eabi_attribute 23, 3
   7              		.eabi_attribute 24, 1
   8              		.eabi_attribute 25, 1
   9              		.eabi_attribute 26, 1
  10              		.eabi_attribute 30, 4
  11              		.eabi_attribute 34, 0
  12              		.eabi_attribute 18, 4
  13              		.thumb
  14              		.syntax unified
  15              		.file	"IDAC_High.c"
  16              		.text
  17              	.Ltext0:
  18              		.cfi_sections	.debug_frame
  19              		.section	.text.IDAC_High_Init,"ax",%progbits
  20              		.align	1
  21              		.global	IDAC_High_Init
  22              		.code	16
  23              		.thumb_func
  24              		.type	IDAC_High_Init, %function
  25              	IDAC_High_Init:
  26              	.LFB0:
  27              		.file 1 "Generated_Source\\PSoC4\\IDAC_High.c"
   1:Generated_Source\PSoC4/IDAC_High.c **** /*******************************************************************************
   2:Generated_Source\PSoC4/IDAC_High.c **** * File Name: IDAC_High.c
   3:Generated_Source\PSoC4/IDAC_High.c **** * Version 1.10
   4:Generated_Source\PSoC4/IDAC_High.c **** *
   5:Generated_Source\PSoC4/IDAC_High.c **** * Description:
   6:Generated_Source\PSoC4/IDAC_High.c **** *  This file provides the source code of APIs for the IDAC_P4 component.
   7:Generated_Source\PSoC4/IDAC_High.c **** *
   8:Generated_Source\PSoC4/IDAC_High.c **** *******************************************************************************
   9:Generated_Source\PSoC4/IDAC_High.c **** * Copyright 2013-2015, Cypress Semiconductor Corporation.  All rights reserved.
  10:Generated_Source\PSoC4/IDAC_High.c **** * You may use this file only in accordance with the license, terms, conditions,
  11:Generated_Source\PSoC4/IDAC_High.c **** * disclaimers, and limitations in the end user license agreement accompanying
  12:Generated_Source\PSoC4/IDAC_High.c **** * the software package with which this file was provided.
  13:Generated_Source\PSoC4/IDAC_High.c **** *******************************************************************************/
  14:Generated_Source\PSoC4/IDAC_High.c **** 
  15:Generated_Source\PSoC4/IDAC_High.c **** #include "IDAC_High.h"
  16:Generated_Source\PSoC4/IDAC_High.c **** 
  17:Generated_Source\PSoC4/IDAC_High.c **** uint32 IDAC_High_initVar = 0u;
  18:Generated_Source\PSoC4/IDAC_High.c **** 
  19:Generated_Source\PSoC4/IDAC_High.c **** 
  20:Generated_Source\PSoC4/IDAC_High.c **** /*******************************************************************************
  21:Generated_Source\PSoC4/IDAC_High.c **** * Function Name: IDAC_High_Init
  22:Generated_Source\PSoC4/IDAC_High.c **** ********************************************************************************
  23:Generated_Source\PSoC4/IDAC_High.c **** *
  24:Generated_Source\PSoC4/IDAC_High.c **** * Summary:
  25:Generated_Source\PSoC4/IDAC_High.c **** *  Initializes IDAC registers with initial values provided from customizer.
  26:Generated_Source\PSoC4/IDAC_High.c **** *
  27:Generated_Source\PSoC4/IDAC_High.c **** * Parameters:
  28:Generated_Source\PSoC4/IDAC_High.c **** *  None
  29:Generated_Source\PSoC4/IDAC_High.c **** *
  30:Generated_Source\PSoC4/IDAC_High.c **** * Return:
ARM GAS  C:\Users\VIDEOH~1\AppData\Local\Temp\ccef6uz9.s 			page 2


  31:Generated_Source\PSoC4/IDAC_High.c **** *  None
  32:Generated_Source\PSoC4/IDAC_High.c **** *
  33:Generated_Source\PSoC4/IDAC_High.c **** * Global variables:
  34:Generated_Source\PSoC4/IDAC_High.c **** *  None
  35:Generated_Source\PSoC4/IDAC_High.c **** *
  36:Generated_Source\PSoC4/IDAC_High.c **** *******************************************************************************/
  37:Generated_Source\PSoC4/IDAC_High.c **** void IDAC_High_Init(void)
  38:Generated_Source\PSoC4/IDAC_High.c **** {
  28              		.loc 1 38 0
  29              		.cfi_startproc
  30              		@ args = 0, pretend = 0, frame = 0
  31              		@ frame_needed = 0, uses_anonymous_args = 0
  32 0000 10B5     		push	{r4, lr}
  33              		.cfi_def_cfa_offset 8
  34              		.cfi_offset 4, -8
  35              		.cfi_offset 14, -4
  39:Generated_Source\PSoC4/IDAC_High.c ****     uint32 regVal;
  40:Generated_Source\PSoC4/IDAC_High.c ****     uint8 enableInterrupts;
  41:Generated_Source\PSoC4/IDAC_High.c **** 
  42:Generated_Source\PSoC4/IDAC_High.c ****     /* Set initial configuration */
  43:Generated_Source\PSoC4/IDAC_High.c ****     enableInterrupts = CyEnterCriticalSection();
  36              		.loc 1 43 0
  37 0002 FFF7FEFF 		bl	CyEnterCriticalSection
  38              	.LVL0:
  44:Generated_Source\PSoC4/IDAC_High.c ****     
  45:Generated_Source\PSoC4/IDAC_High.c ****     #if(IDAC_High_MODE_SOURCE == IDAC_High_IDAC_POLARITY)
  46:Generated_Source\PSoC4/IDAC_High.c ****         regVal  = IDAC_High_CSD_TRIM1_REG & ~(IDAC_High_CSD_IDAC_TRIM1_MASK);
  39              		.loc 1 46 0
  40 0006 0F23     		movs	r3, #15
  41 0008 0C49     		ldr	r1, .L2
  47:Generated_Source\PSoC4/IDAC_High.c ****         regVal |=  (IDAC_High_SFLASH_TRIM1_REG & IDAC_High_CSD_IDAC_TRIM1_MASK);
  42              		.loc 1 47 0
  43 000a 0D4C     		ldr	r4, .L2+4
  46:Generated_Source\PSoC4/IDAC_High.c ****         regVal |=  (IDAC_High_SFLASH_TRIM1_REG & IDAC_High_CSD_IDAC_TRIM1_MASK);
  44              		.loc 1 46 0
  45 000c 0A68     		ldr	r2, [r1]
  46              		.loc 1 47 0
  47 000e 2478     		ldrb	r4, [r4]
  46:Generated_Source\PSoC4/IDAC_High.c ****         regVal |=  (IDAC_High_SFLASH_TRIM1_REG & IDAC_High_CSD_IDAC_TRIM1_MASK);
  48              		.loc 1 46 0
  49 0010 9A43     		bics	r2, r3
  50              	.LVL1:
  51              		.loc 1 47 0
  52 0012 2340     		ands	r3, r4
  53 0014 1343     		orrs	r3, r2
  54              	.LVL2:
  48:Generated_Source\PSoC4/IDAC_High.c ****         IDAC_High_CSD_TRIM1_REG = regVal;
  49:Generated_Source\PSoC4/IDAC_High.c ****     #else
  50:Generated_Source\PSoC4/IDAC_High.c ****         regVal  = IDAC_High_CSD_TRIM2_REG & ~(IDAC_High_CSD_IDAC_TRIM2_MASK);
  51:Generated_Source\PSoC4/IDAC_High.c ****         regVal |=  (IDAC_High_SFLASH_TRIM2_REG & IDAC_High_CSD_IDAC_TRIM2_MASK);
  52:Generated_Source\PSoC4/IDAC_High.c ****         IDAC_High_CSD_TRIM2_REG = regVal;
  53:Generated_Source\PSoC4/IDAC_High.c ****     #endif /* (IDAC_High_MODE_SOURCE == IDAC_High_IDAC_POLARITY) */
  54:Generated_Source\PSoC4/IDAC_High.c **** 
  55:Generated_Source\PSoC4/IDAC_High.c ****     /* clear previous values */
  56:Generated_Source\PSoC4/IDAC_High.c ****     IDAC_High_IDAC_CONTROL_REG &= ((uint32)~((uint32)IDAC_High_IDAC_VALUE_MASK <<
  55              		.loc 1 56 0
  56 0016 0B4A     		ldr	r2, .L2+8
ARM GAS  C:\Users\VIDEOH~1\AppData\Local\Temp\ccef6uz9.s 			page 3


  48:Generated_Source\PSoC4/IDAC_High.c ****         IDAC_High_CSD_TRIM1_REG = regVal;
  57              		.loc 1 48 0
  58 0018 0B60     		str	r3, [r1]
  59              		.loc 1 56 0
  60 001a 1368     		ldr	r3, [r2]
  61              	.LVL3:
  57:Generated_Source\PSoC4/IDAC_High.c ****         IDAC_High_IDAC_VALUE_POSITION)) | ((uint32)~((uint32)IDAC_High_IDAC_MODE_MASK <<
  58:Generated_Source\PSoC4/IDAC_High.c ****         IDAC_High_IDAC_MODE_POSITION))  | ((uint32)~((uint32)IDAC_High_IDAC_RANGE_MASK  <<
  59:Generated_Source\PSoC4/IDAC_High.c ****         IDAC_High_IDAC_RANGE_POSITION));
  60:Generated_Source\PSoC4/IDAC_High.c **** 
  61:Generated_Source\PSoC4/IDAC_High.c ****     IDAC_High_IDAC_POLARITY_CONTROL_REG &= (~(uint32)((uint32)IDAC_High_IDAC_POLARITY_MASK <<
  62              		.loc 1 61 0
  63 001c 0A49     		ldr	r1, .L2+12
  64              	.LVL4:
  56:Generated_Source\PSoC4/IDAC_High.c ****         IDAC_High_IDAC_VALUE_POSITION)) | ((uint32)~((uint32)IDAC_High_IDAC_MODE_MASK <<
  65              		.loc 1 56 0
  66 001e 1360     		str	r3, [r2]
  67              	.LVL5:
  68              		.loc 1 61 0
  69 0020 0A4B     		ldr	r3, .L2+16
  62:Generated_Source\PSoC4/IDAC_High.c ****         IDAC_High_IDAC_POLARITY_POSITION));
  63:Generated_Source\PSoC4/IDAC_High.c **** 
  64:Generated_Source\PSoC4/IDAC_High.c ****     /* set new configuration */
  65:Generated_Source\PSoC4/IDAC_High.c ****     IDAC_High_IDAC_CONTROL_REG |= (((uint32)IDAC_High_IDAC_INIT_VALUE <<
  66:Generated_Source\PSoC4/IDAC_High.c ****         IDAC_High_IDAC_VALUE_POSITION) | ((uint32)IDAC_High_IDAC_RANGE <<
  67:Generated_Source\PSoC4/IDAC_High.c ****         IDAC_High_IDAC_RANGE_POSITION));
  68:Generated_Source\PSoC4/IDAC_High.c **** 
  69:Generated_Source\PSoC4/IDAC_High.c ****     IDAC_High_IDAC_POLARITY_CONTROL_REG |= ((uint32)IDAC_High_IDAC_POLARITY <<
  70:Generated_Source\PSoC4/IDAC_High.c ****                                                            IDAC_High_IDAC_POLARITY_POSITION);
  71:Generated_Source\PSoC4/IDAC_High.c **** 
  72:Generated_Source\PSoC4/IDAC_High.c ****     CyExitCriticalSection(enableInterrupts);
  73:Generated_Source\PSoC4/IDAC_High.c **** 
  74:Generated_Source\PSoC4/IDAC_High.c **** }
  70              		.loc 1 74 0
  71              		@ sp needed
  61:Generated_Source\PSoC4/IDAC_High.c ****         IDAC_High_IDAC_POLARITY_POSITION));
  72              		.loc 1 61 0
  73 0022 1C68     		ldr	r4, [r3]
  74 0024 2140     		ands	r1, r4
  65:Generated_Source\PSoC4/IDAC_High.c ****         IDAC_High_IDAC_VALUE_POSITION) | ((uint32)IDAC_High_IDAC_RANGE <<
  75              		.loc 1 65 0
  76 0026 7824     		movs	r4, #120
  61:Generated_Source\PSoC4/IDAC_High.c ****         IDAC_High_IDAC_POLARITY_POSITION));
  77              		.loc 1 61 0
  78 0028 1960     		str	r1, [r3]
  65:Generated_Source\PSoC4/IDAC_High.c ****         IDAC_High_IDAC_VALUE_POSITION) | ((uint32)IDAC_High_IDAC_RANGE <<
  79              		.loc 1 65 0
  80 002a 1168     		ldr	r1, [r2]
  81 002c 2143     		orrs	r1, r4
  82 002e 1160     		str	r1, [r2]
  69:Generated_Source\PSoC4/IDAC_High.c ****                                                            IDAC_High_IDAC_POLARITY_POSITION);
  83              		.loc 1 69 0
  84 0030 1A68     		ldr	r2, [r3]
  85 0032 1A60     		str	r2, [r3]
  72:Generated_Source\PSoC4/IDAC_High.c **** 
  86              		.loc 1 72 0
  87 0034 FFF7FEFF 		bl	CyExitCriticalSection
ARM GAS  C:\Users\VIDEOH~1\AppData\Local\Temp\ccef6uz9.s 			page 4


  88              	.LVL6:
  89              		.loc 1 74 0
  90 0038 10BD     		pop	{r4, pc}
  91              	.L3:
  92 003a C046     		.align	2
  93              	.L2:
  94 003c 00FF0840 		.word	1074331392
  95 0040 60F1FF0F 		.word	268431712
  96 0044 08000840 		.word	1074266120
  97 0048 FFFFFEFF 		.word	-65537
  98 004c 04000840 		.word	1074266116
  99              		.cfi_endproc
 100              	.LFE0:
 101              		.size	IDAC_High_Init, .-IDAC_High_Init
 102              		.section	.text.IDAC_High_Enable,"ax",%progbits
 103              		.align	1
 104              		.global	IDAC_High_Enable
 105              		.code	16
 106              		.thumb_func
 107              		.type	IDAC_High_Enable, %function
 108              	IDAC_High_Enable:
 109              	.LFB1:
  75:Generated_Source\PSoC4/IDAC_High.c **** 
  76:Generated_Source\PSoC4/IDAC_High.c **** 
  77:Generated_Source\PSoC4/IDAC_High.c **** /*******************************************************************************
  78:Generated_Source\PSoC4/IDAC_High.c **** * Function Name: IDAC_High_Enable
  79:Generated_Source\PSoC4/IDAC_High.c **** ********************************************************************************
  80:Generated_Source\PSoC4/IDAC_High.c **** *
  81:Generated_Source\PSoC4/IDAC_High.c **** * Summary:
  82:Generated_Source\PSoC4/IDAC_High.c **** *  Enables IDAC operations.
  83:Generated_Source\PSoC4/IDAC_High.c **** *
  84:Generated_Source\PSoC4/IDAC_High.c **** * Parameters:
  85:Generated_Source\PSoC4/IDAC_High.c **** *  None
  86:Generated_Source\PSoC4/IDAC_High.c **** *
  87:Generated_Source\PSoC4/IDAC_High.c **** * Return:
  88:Generated_Source\PSoC4/IDAC_High.c **** *  None
  89:Generated_Source\PSoC4/IDAC_High.c **** *
  90:Generated_Source\PSoC4/IDAC_High.c **** * Global variables:
  91:Generated_Source\PSoC4/IDAC_High.c **** *  None
  92:Generated_Source\PSoC4/IDAC_High.c **** *
  93:Generated_Source\PSoC4/IDAC_High.c **** *******************************************************************************/
  94:Generated_Source\PSoC4/IDAC_High.c **** void IDAC_High_Enable(void)
  95:Generated_Source\PSoC4/IDAC_High.c **** {
 110              		.loc 1 95 0
 111              		.cfi_startproc
 112              		@ args = 0, pretend = 0, frame = 0
 113              		@ frame_needed = 0, uses_anonymous_args = 0
 114 0000 10B5     		push	{r4, lr}
 115              		.cfi_def_cfa_offset 8
 116              		.cfi_offset 4, -8
 117              		.cfi_offset 14, -4
  96:Generated_Source\PSoC4/IDAC_High.c ****     uint8 enableInterrupts;
  97:Generated_Source\PSoC4/IDAC_High.c **** 
  98:Generated_Source\PSoC4/IDAC_High.c ****     enableInterrupts = CyEnterCriticalSection();
 118              		.loc 1 98 0
 119 0002 FFF7FEFF 		bl	CyEnterCriticalSection
 120              	.LVL7:
ARM GAS  C:\Users\VIDEOH~1\AppData\Local\Temp\ccef6uz9.s 			page 5


  99:Generated_Source\PSoC4/IDAC_High.c **** 
 100:Generated_Source\PSoC4/IDAC_High.c ****     /* Enable the IDAC */
 101:Generated_Source\PSoC4/IDAC_High.c ****     IDAC_High_IDAC_CONTROL_REG |= ((uint32)IDAC_High_IDAC_EN_MODE <<
 121              		.loc 1 101 0
 122 0006 C021     		movs	r1, #192
 123 0008 064A     		ldr	r2, .L5
 124 000a 8900     		lsls	r1, r1, #2
 125 000c 1368     		ldr	r3, [r2]
 102:Generated_Source\PSoC4/IDAC_High.c ****                                                   IDAC_High_IDAC_MODE_POSITION);
 103:Generated_Source\PSoC4/IDAC_High.c ****     IDAC_High_IDAC_POLARITY_CONTROL_REG |= ((uint32)IDAC_High_IDAC_CSD_EN <<
 104:Generated_Source\PSoC4/IDAC_High.c ****                                                            IDAC_High_IDAC_CSD_EN_POSITION);
 105:Generated_Source\PSoC4/IDAC_High.c ****     CyExitCriticalSection(enableInterrupts);
 106:Generated_Source\PSoC4/IDAC_High.c **** 
 107:Generated_Source\PSoC4/IDAC_High.c **** }
 126              		.loc 1 107 0
 127              		@ sp needed
 101:Generated_Source\PSoC4/IDAC_High.c ****                                                   IDAC_High_IDAC_MODE_POSITION);
 128              		.loc 1 101 0
 129 000e 0B43     		orrs	r3, r1
 103:Generated_Source\PSoC4/IDAC_High.c ****                                                            IDAC_High_IDAC_CSD_EN_POSITION);
 130              		.loc 1 103 0
 131 0010 8021     		movs	r1, #128
 101:Generated_Source\PSoC4/IDAC_High.c ****                                                   IDAC_High_IDAC_MODE_POSITION);
 132              		.loc 1 101 0
 133 0012 1360     		str	r3, [r2]
 103:Generated_Source\PSoC4/IDAC_High.c ****                                                            IDAC_High_IDAC_CSD_EN_POSITION);
 134              		.loc 1 103 0
 135 0014 044A     		ldr	r2, .L5+4
 136 0016 0906     		lsls	r1, r1, #24
 137 0018 1368     		ldr	r3, [r2]
 138 001a 0B43     		orrs	r3, r1
 139 001c 1360     		str	r3, [r2]
 105:Generated_Source\PSoC4/IDAC_High.c **** 
 140              		.loc 1 105 0
 141 001e FFF7FEFF 		bl	CyExitCriticalSection
 142              	.LVL8:
 143              		.loc 1 107 0
 144 0022 10BD     		pop	{r4, pc}
 145              	.L6:
 146              		.align	2
 147              	.L5:
 148 0024 08000840 		.word	1074266120
 149 0028 04000840 		.word	1074266116
 150              		.cfi_endproc
 151              	.LFE1:
 152              		.size	IDAC_High_Enable, .-IDAC_High_Enable
 153              		.section	.text.IDAC_High_Start,"ax",%progbits
 154              		.align	1
 155              		.global	IDAC_High_Start
 156              		.code	16
 157              		.thumb_func
 158              		.type	IDAC_High_Start, %function
 159              	IDAC_High_Start:
 160              	.LFB2:
 108:Generated_Source\PSoC4/IDAC_High.c **** 
 109:Generated_Source\PSoC4/IDAC_High.c **** 
 110:Generated_Source\PSoC4/IDAC_High.c **** /*******************************************************************************
ARM GAS  C:\Users\VIDEOH~1\AppData\Local\Temp\ccef6uz9.s 			page 6


 111:Generated_Source\PSoC4/IDAC_High.c **** * Function Name: IDAC_High_Start
 112:Generated_Source\PSoC4/IDAC_High.c **** ********************************************************************************
 113:Generated_Source\PSoC4/IDAC_High.c **** *
 114:Generated_Source\PSoC4/IDAC_High.c **** * Summary:
 115:Generated_Source\PSoC4/IDAC_High.c **** *  Starts the IDAC hardware.
 116:Generated_Source\PSoC4/IDAC_High.c **** *
 117:Generated_Source\PSoC4/IDAC_High.c **** * Parameters:
 118:Generated_Source\PSoC4/IDAC_High.c **** *  None
 119:Generated_Source\PSoC4/IDAC_High.c **** *
 120:Generated_Source\PSoC4/IDAC_High.c **** * Return:
 121:Generated_Source\PSoC4/IDAC_High.c **** *  None
 122:Generated_Source\PSoC4/IDAC_High.c **** *
 123:Generated_Source\PSoC4/IDAC_High.c **** * Global variables:
 124:Generated_Source\PSoC4/IDAC_High.c **** *  IDAC_High_initVar
 125:Generated_Source\PSoC4/IDAC_High.c **** *
 126:Generated_Source\PSoC4/IDAC_High.c **** *******************************************************************************/
 127:Generated_Source\PSoC4/IDAC_High.c **** void IDAC_High_Start(void)
 128:Generated_Source\PSoC4/IDAC_High.c **** {
 161              		.loc 1 128 0
 162              		.cfi_startproc
 163              		@ args = 0, pretend = 0, frame = 0
 164              		@ frame_needed = 0, uses_anonymous_args = 0
 165 0000 10B5     		push	{r4, lr}
 166              		.cfi_def_cfa_offset 8
 167              		.cfi_offset 4, -8
 168              		.cfi_offset 14, -4
 129:Generated_Source\PSoC4/IDAC_High.c ****     if(0u == IDAC_High_initVar)
 169              		.loc 1 129 0
 170 0002 054C     		ldr	r4, .L10
 171 0004 2368     		ldr	r3, [r4]
 172 0006 002B     		cmp	r3, #0
 173 0008 03D1     		bne	.L8
 130:Generated_Source\PSoC4/IDAC_High.c ****     {
 131:Generated_Source\PSoC4/IDAC_High.c ****         IDAC_High_Init();
 174              		.loc 1 131 0
 175 000a FFF7FEFF 		bl	IDAC_High_Init
 176              	.LVL9:
 132:Generated_Source\PSoC4/IDAC_High.c ****         IDAC_High_initVar = 1u;
 177              		.loc 1 132 0
 178 000e 0123     		movs	r3, #1
 179 0010 2360     		str	r3, [r4]
 180              	.L8:
 133:Generated_Source\PSoC4/IDAC_High.c ****     }
 134:Generated_Source\PSoC4/IDAC_High.c **** 
 135:Generated_Source\PSoC4/IDAC_High.c ****     IDAC_High_Enable();
 181              		.loc 1 135 0
 182 0012 FFF7FEFF 		bl	IDAC_High_Enable
 183              	.LVL10:
 136:Generated_Source\PSoC4/IDAC_High.c **** 
 137:Generated_Source\PSoC4/IDAC_High.c **** }
 184              		.loc 1 137 0
 185              		@ sp needed
 186 0016 10BD     		pop	{r4, pc}
 187              	.L11:
 188              		.align	2
 189              	.L10:
 190 0018 00000000 		.word	.LANCHOR0
ARM GAS  C:\Users\VIDEOH~1\AppData\Local\Temp\ccef6uz9.s 			page 7


 191              		.cfi_endproc
 192              	.LFE2:
 193              		.size	IDAC_High_Start, .-IDAC_High_Start
 194              		.section	.text.IDAC_High_Stop,"ax",%progbits
 195              		.align	1
 196              		.global	IDAC_High_Stop
 197              		.code	16
 198              		.thumb_func
 199              		.type	IDAC_High_Stop, %function
 200              	IDAC_High_Stop:
 201              	.LFB3:
 138:Generated_Source\PSoC4/IDAC_High.c **** 
 139:Generated_Source\PSoC4/IDAC_High.c **** 
 140:Generated_Source\PSoC4/IDAC_High.c **** /*******************************************************************************
 141:Generated_Source\PSoC4/IDAC_High.c **** * Function Name: IDAC_High_Stop
 142:Generated_Source\PSoC4/IDAC_High.c **** ********************************************************************************
 143:Generated_Source\PSoC4/IDAC_High.c **** *
 144:Generated_Source\PSoC4/IDAC_High.c **** * Summary:
 145:Generated_Source\PSoC4/IDAC_High.c **** *  Stops the IDAC hardware.
 146:Generated_Source\PSoC4/IDAC_High.c **** *
 147:Generated_Source\PSoC4/IDAC_High.c **** * Parameters:
 148:Generated_Source\PSoC4/IDAC_High.c **** *  None
 149:Generated_Source\PSoC4/IDAC_High.c **** *
 150:Generated_Source\PSoC4/IDAC_High.c **** * Return:
 151:Generated_Source\PSoC4/IDAC_High.c **** *  None
 152:Generated_Source\PSoC4/IDAC_High.c **** *
 153:Generated_Source\PSoC4/IDAC_High.c **** * Global variables:
 154:Generated_Source\PSoC4/IDAC_High.c **** *  None
 155:Generated_Source\PSoC4/IDAC_High.c **** *
 156:Generated_Source\PSoC4/IDAC_High.c **** *******************************************************************************/
 157:Generated_Source\PSoC4/IDAC_High.c **** void IDAC_High_Stop(void)
 158:Generated_Source\PSoC4/IDAC_High.c **** {
 202              		.loc 1 158 0
 203              		.cfi_startproc
 204              		@ args = 0, pretend = 0, frame = 0
 205              		@ frame_needed = 0, uses_anonymous_args = 0
 206 0000 10B5     		push	{r4, lr}
 207              		.cfi_def_cfa_offset 8
 208              		.cfi_offset 4, -8
 209              		.cfi_offset 14, -4
 159:Generated_Source\PSoC4/IDAC_High.c ****     uint8 enableInterrupts;
 160:Generated_Source\PSoC4/IDAC_High.c **** 
 161:Generated_Source\PSoC4/IDAC_High.c ****     enableInterrupts = CyEnterCriticalSection();
 210              		.loc 1 161 0
 211 0002 FFF7FEFF 		bl	CyEnterCriticalSection
 212              	.LVL11:
 162:Generated_Source\PSoC4/IDAC_High.c **** 
 163:Generated_Source\PSoC4/IDAC_High.c ****     /* Disable the IDAC */
 164:Generated_Source\PSoC4/IDAC_High.c ****     IDAC_High_IDAC_CONTROL_REG &= ((uint32)~((uint32)IDAC_High_IDAC_MODE_MASK <<
 213              		.loc 1 164 0
 214 0006 044A     		ldr	r2, .L13
 215 0008 044B     		ldr	r3, .L13+4
 216 000a 1168     		ldr	r1, [r2]
 165:Generated_Source\PSoC4/IDAC_High.c ****         IDAC_High_IDAC_MODE_POSITION));
 166:Generated_Source\PSoC4/IDAC_High.c ****     CyExitCriticalSection(enableInterrupts);
 167:Generated_Source\PSoC4/IDAC_High.c **** }
 217              		.loc 1 167 0
ARM GAS  C:\Users\VIDEOH~1\AppData\Local\Temp\ccef6uz9.s 			page 8


 218              		@ sp needed
 164:Generated_Source\PSoC4/IDAC_High.c ****         IDAC_High_IDAC_MODE_POSITION));
 219              		.loc 1 164 0
 220 000c 0B40     		ands	r3, r1
 221 000e 1360     		str	r3, [r2]
 166:Generated_Source\PSoC4/IDAC_High.c **** }
 222              		.loc 1 166 0
 223 0010 FFF7FEFF 		bl	CyExitCriticalSection
 224              	.LVL12:
 225              		.loc 1 167 0
 226 0014 10BD     		pop	{r4, pc}
 227              	.L14:
 228 0016 C046     		.align	2
 229              	.L13:
 230 0018 08000840 		.word	1074266120
 231 001c FFFCFFFF 		.word	-769
 232              		.cfi_endproc
 233              	.LFE3:
 234              		.size	IDAC_High_Stop, .-IDAC_High_Stop
 235              		.section	.text.IDAC_High_SetValue,"ax",%progbits
 236              		.align	1
 237              		.global	IDAC_High_SetValue
 238              		.code	16
 239              		.thumb_func
 240              		.type	IDAC_High_SetValue, %function
 241              	IDAC_High_SetValue:
 242              	.LFB4:
 168:Generated_Source\PSoC4/IDAC_High.c **** 
 169:Generated_Source\PSoC4/IDAC_High.c **** 
 170:Generated_Source\PSoC4/IDAC_High.c **** /*******************************************************************************
 171:Generated_Source\PSoC4/IDAC_High.c **** * Function Name: IDAC_High_SetValue
 172:Generated_Source\PSoC4/IDAC_High.c **** ********************************************************************************
 173:Generated_Source\PSoC4/IDAC_High.c **** *
 174:Generated_Source\PSoC4/IDAC_High.c **** * Summary:
 175:Generated_Source\PSoC4/IDAC_High.c **** *  Sets the IDAC value.
 176:Generated_Source\PSoC4/IDAC_High.c **** *
 177:Generated_Source\PSoC4/IDAC_High.c **** * Parameters:
 178:Generated_Source\PSoC4/IDAC_High.c **** *  uint32 value
 179:Generated_Source\PSoC4/IDAC_High.c **** *
 180:Generated_Source\PSoC4/IDAC_High.c **** * Return:
 181:Generated_Source\PSoC4/IDAC_High.c **** *  None
 182:Generated_Source\PSoC4/IDAC_High.c **** *
 183:Generated_Source\PSoC4/IDAC_High.c **** * Global variables:
 184:Generated_Source\PSoC4/IDAC_High.c **** *  None
 185:Generated_Source\PSoC4/IDAC_High.c **** *
 186:Generated_Source\PSoC4/IDAC_High.c **** *******************************************************************************/
 187:Generated_Source\PSoC4/IDAC_High.c **** void IDAC_High_SetValue(uint32 value)
 188:Generated_Source\PSoC4/IDAC_High.c **** {
 243              		.loc 1 188 0
 244              		.cfi_startproc
 245              		@ args = 0, pretend = 0, frame = 0
 246              		@ frame_needed = 0, uses_anonymous_args = 0
 247              	.LVL13:
 248 0000 10B5     		push	{r4, lr}
 249              		.cfi_def_cfa_offset 8
 250              		.cfi_offset 4, -8
 251              		.cfi_offset 14, -4
ARM GAS  C:\Users\VIDEOH~1\AppData\Local\Temp\ccef6uz9.s 			page 9


 252              		.loc 1 188 0
 253 0002 0400     		movs	r4, r0
 189:Generated_Source\PSoC4/IDAC_High.c ****     uint8 enableInterrupts;
 190:Generated_Source\PSoC4/IDAC_High.c ****     uint32 newRegisterValue;
 191:Generated_Source\PSoC4/IDAC_High.c **** 
 192:Generated_Source\PSoC4/IDAC_High.c ****     enableInterrupts = CyEnterCriticalSection();
 254              		.loc 1 192 0
 255 0004 FFF7FEFF 		bl	CyEnterCriticalSection
 256              	.LVL14:
 193:Generated_Source\PSoC4/IDAC_High.c **** 
 194:Generated_Source\PSoC4/IDAC_High.c ****     #if(IDAC_High_IDAC_VALUE_POSITION != 0u)
 195:Generated_Source\PSoC4/IDAC_High.c ****         newRegisterValue = ((IDAC_High_IDAC_CONTROL_REG & (~(uint32)((uint32)IDAC_High_IDAC_VALUE_M
 196:Generated_Source\PSoC4/IDAC_High.c ****         IDAC_High_IDAC_VALUE_POSITION))) | (value << IDAC_High_IDAC_VALUE_POSITION));
 197:Generated_Source\PSoC4/IDAC_High.c ****     #else
 198:Generated_Source\PSoC4/IDAC_High.c ****         newRegisterValue = ((IDAC_High_IDAC_CONTROL_REG & (~(uint32)IDAC_High_IDAC_VALUE_MASK)) | v
 257              		.loc 1 198 0
 258 0008 FF21     		movs	r1, #255
 259 000a 044A     		ldr	r2, .L16
 199:Generated_Source\PSoC4/IDAC_High.c ****     #endif /* IDAC_High_IDAC_VALUE_POSITION != 0u */
 200:Generated_Source\PSoC4/IDAC_High.c **** 
 201:Generated_Source\PSoC4/IDAC_High.c ****     IDAC_High_IDAC_CONTROL_REG = newRegisterValue;
 202:Generated_Source\PSoC4/IDAC_High.c **** 
 203:Generated_Source\PSoC4/IDAC_High.c ****     CyExitCriticalSection(enableInterrupts);
 204:Generated_Source\PSoC4/IDAC_High.c **** }
 260              		.loc 1 204 0
 261              		@ sp needed
 198:Generated_Source\PSoC4/IDAC_High.c ****     #endif /* IDAC_High_IDAC_VALUE_POSITION != 0u */
 262              		.loc 1 198 0
 263 000c 1368     		ldr	r3, [r2]
 264 000e 8B43     		bics	r3, r1
 265 0010 1C43     		orrs	r4, r3
 266              	.LVL15:
 201:Generated_Source\PSoC4/IDAC_High.c **** 
 267              		.loc 1 201 0
 268 0012 1460     		str	r4, [r2]
 203:Generated_Source\PSoC4/IDAC_High.c **** }
 269              		.loc 1 203 0
 270 0014 FFF7FEFF 		bl	CyExitCriticalSection
 271              	.LVL16:
 272              	.LVL17:
 273              		.loc 1 204 0
 274 0018 10BD     		pop	{r4, pc}
 275              	.L17:
 276 001a C046     		.align	2
 277              	.L16:
 278 001c 08000840 		.word	1074266120
 279              		.cfi_endproc
 280              	.LFE4:
 281              		.size	IDAC_High_SetValue, .-IDAC_High_SetValue
 282              		.global	IDAC_High_initVar
 283              		.bss
 284              		.align	2
 285              		.set	.LANCHOR0,. + 0
 286              		.type	IDAC_High_initVar, %object
 287              		.size	IDAC_High_initVar, 4
 288              	IDAC_High_initVar:
 289 0000 00000000 		.space	4
ARM GAS  C:\Users\VIDEOH~1\AppData\Local\Temp\ccef6uz9.s 			page 10


 290              		.text
 291              	.Letext0:
 292              		.file 2 "Generated_Source\\PSoC4\\cytypes.h"
 293              		.file 3 "Generated_Source\\PSoC4\\CyLib.h"