ARM GAS  C:\Users\VIDEOH~1\AppData\Local\Temp\cceSQHMC.s 			page 1


   1              		.syntax unified
   2              		.cpu cortex-m0
   3              		.fpu softvfp
   4              		.eabi_attribute 20, 1
   5              		.eabi_attribute 21, 1
   6              		.eabi_attribute 23, 3
   7              		.eabi_attribute 24, 1
   8              		.eabi_attribute 25, 1
   9              		.eabi_attribute 26, 1
  10              		.eabi_attribute 30, 4
  11              		.eabi_attribute 34, 0
  12              		.eabi_attribute 18, 4
  13              		.thumb
  14              		.syntax unified
  15              		.file	"list.c"
  16              		.text
  17              	.Ltext0:
  18              		.cfi_sections	.debug_frame
  19              		.section	.text.vListInitialise,"ax",%progbits
  20              		.align	1
  21              		.global	vListInitialise
  22              		.code	16
  23              		.thumb_func
  24              		.type	vListInitialise, %function
  25              	vListInitialise:
  26              	.LFB32:
  27              		.file 1 "freertos\\src\\list.c"
   1:freertos\src/list.c **** /*
   2:freertos\src/list.c ****     FreeRTOS V7.6.0 - Copyright (C) 2013 Real Time Engineers Ltd. 
   3:freertos\src/list.c ****     All rights reserved
   4:freertos\src/list.c **** 
   5:freertos\src/list.c ****     VISIT http://www.FreeRTOS.org TO ENSURE YOU ARE USING THE LATEST VERSION.
   6:freertos\src/list.c **** 
   7:freertos\src/list.c ****     ***************************************************************************
   8:freertos\src/list.c ****      *                                                                       *
   9:freertos\src/list.c ****      *    FreeRTOS provides completely free yet professionally developed,    *
  10:freertos\src/list.c ****      *    robust, strictly quality controlled, supported, and cross          *
  11:freertos\src/list.c ****      *    platform software that has become a de facto standard.             *
  12:freertos\src/list.c ****      *                                                                       *
  13:freertos\src/list.c ****      *    Help yourself get started quickly and support the FreeRTOS         *
  14:freertos\src/list.c ****      *    project by purchasing a FreeRTOS tutorial book, reference          *
  15:freertos\src/list.c ****      *    manual, or both from: http://www.FreeRTOS.org/Documentation        *
  16:freertos\src/list.c ****      *                                                                       *
  17:freertos\src/list.c ****      *    Thank you!                                                         *
  18:freertos\src/list.c ****      *                                                                       *
  19:freertos\src/list.c ****     ***************************************************************************
  20:freertos\src/list.c **** 
  21:freertos\src/list.c ****     This file is part of the FreeRTOS distribution.
  22:freertos\src/list.c **** 
  23:freertos\src/list.c ****     FreeRTOS is free software; you can redistribute it and/or modify it under
  24:freertos\src/list.c ****     the terms of the GNU General Public License (version 2) as published by the
  25:freertos\src/list.c ****     Free Software Foundation >>!AND MODIFIED BY!<< the FreeRTOS exception.
  26:freertos\src/list.c **** 
  27:freertos\src/list.c ****     >>! NOTE: The modification to the GPL is included to allow you to distribute
  28:freertos\src/list.c ****     >>! a combined work that includes FreeRTOS without being obliged to provide
  29:freertos\src/list.c ****     >>! the source code for proprietary components outside of the FreeRTOS
  30:freertos\src/list.c ****     >>! kernel.
ARM GAS  C:\Users\VIDEOH~1\AppData\Local\Temp\cceSQHMC.s 			page 2


  31:freertos\src/list.c **** 
  32:freertos\src/list.c ****     FreeRTOS is distributed in the hope that it will be useful, but WITHOUT ANY
  33:freertos\src/list.c ****     WARRANTY; without even the implied warranty of MERCHANTABILITY or FITNESS
  34:freertos\src/list.c ****     FOR A PARTICULAR PURPOSE.  Full license text is available from the following
  35:freertos\src/list.c ****     link: http://www.freertos.org/a00114.html
  36:freertos\src/list.c **** 
  37:freertos\src/list.c ****     1 tab == 4 spaces!
  38:freertos\src/list.c **** 
  39:freertos\src/list.c ****     ***************************************************************************
  40:freertos\src/list.c ****      *                                                                       *
  41:freertos\src/list.c ****      *    Having a problem?  Start by reading the FAQ "My application does   *
  42:freertos\src/list.c ****      *    not run, what could be wrong?"                                     *
  43:freertos\src/list.c ****      *                                                                       *
  44:freertos\src/list.c ****      *    http://www.FreeRTOS.org/FAQHelp.html                               *
  45:freertos\src/list.c ****      *                                                                       *
  46:freertos\src/list.c ****     ***************************************************************************
  47:freertos\src/list.c **** 
  48:freertos\src/list.c ****     http://www.FreeRTOS.org - Documentation, books, training, latest versions,
  49:freertos\src/list.c ****     license and Real Time Engineers Ltd. contact details.
  50:freertos\src/list.c **** 
  51:freertos\src/list.c ****     http://www.FreeRTOS.org/plus - A selection of FreeRTOS ecosystem products,
  52:freertos\src/list.c ****     including FreeRTOS+Trace - an indispensable productivity tool, a DOS
  53:freertos\src/list.c ****     compatible FAT file system, and our tiny thread aware UDP/IP stack.
  54:freertos\src/list.c **** 
  55:freertos\src/list.c ****     http://www.OpenRTOS.com - Real Time Engineers ltd license FreeRTOS to High
  56:freertos\src/list.c ****     Integrity Systems to sell under the OpenRTOS brand.  Low cost OpenRTOS
  57:freertos\src/list.c ****     licenses offer ticketed support, indemnification and middleware.
  58:freertos\src/list.c **** 
  59:freertos\src/list.c ****     http://www.SafeRTOS.com - High Integrity Systems also provide a safety
  60:freertos\src/list.c ****     engineered and independently SIL3 certified version for use in safety and
  61:freertos\src/list.c ****     mission critical applications that require provable dependability.
  62:freertos\src/list.c **** 
  63:freertos\src/list.c ****     1 tab == 4 spaces!
  64:freertos\src/list.c **** */
  65:freertos\src/list.c **** 
  66:freertos\src/list.c **** 
  67:freertos\src/list.c **** #include <stdlib.h>
  68:freertos\src/list.c **** #include "FreeRTOS.h"
  69:freertos\src/list.c **** #include "list.h"
  70:freertos\src/list.c **** 
  71:freertos\src/list.c **** /*-----------------------------------------------------------
  72:freertos\src/list.c ****  * PUBLIC LIST API documented in list.h
  73:freertos\src/list.c ****  *----------------------------------------------------------*/
  74:freertos\src/list.c **** 
  75:freertos\src/list.c **** void vListInitialise( xList * const pxList )
  76:freertos\src/list.c **** {
  28              		.loc 1 76 0
  29              		.cfi_startproc
  30              		@ args = 0, pretend = 0, frame = 0
  31              		@ frame_needed = 0, uses_anonymous_args = 0
  32              		@ link register save eliminated.
  33              	.LVL0:
  77:freertos\src/list.c **** 	/* The list structure contains a list item which is used to mark the
  78:freertos\src/list.c **** 	end of the list.  To initialise the list the list end is inserted
  79:freertos\src/list.c **** 	as the only list entry. */
  80:freertos\src/list.c **** 	pxList->pxIndex = ( xListItem * ) &( pxList->xListEnd );			/*lint !e826 !e740 The mini list struct
  34              		.loc 1 80 0
ARM GAS  C:\Users\VIDEOH~1\AppData\Local\Temp\cceSQHMC.s 			page 3


  35 0000 0300     		movs	r3, r0
  81:freertos\src/list.c **** 
  82:freertos\src/list.c **** 	/* The list end value is the highest possible value in the list to
  83:freertos\src/list.c **** 	ensure it remains at the end of the list. */
  84:freertos\src/list.c **** 	pxList->xListEnd.xItemValue = portMAX_DELAY;
  36              		.loc 1 84 0
  37 0002 0122     		movs	r2, #1
  80:freertos\src/list.c **** 
  38              		.loc 1 80 0
  39 0004 0833     		adds	r3, r3, #8
  40 0006 4360     		str	r3, [r0, #4]
  85:freertos\src/list.c **** 
  86:freertos\src/list.c **** 	/* The list end next and previous pointers point to itself so we know
  87:freertos\src/list.c **** 	when the list is empty. */
  88:freertos\src/list.c **** 	pxList->xListEnd.pxNext = ( xListItem * ) &( pxList->xListEnd );	/*lint !e826 !e740 The mini list 
  41              		.loc 1 88 0
  42 0008 C360     		str	r3, [r0, #12]
  89:freertos\src/list.c **** 	pxList->xListEnd.pxPrevious = ( xListItem * ) &( pxList->xListEnd );/*lint !e826 !e740 The mini li
  43              		.loc 1 89 0
  44 000a 0361     		str	r3, [r0, #16]
  90:freertos\src/list.c **** 
  91:freertos\src/list.c **** 	pxList->uxNumberOfItems = ( unsigned portBASE_TYPE ) 0U;
  45              		.loc 1 91 0
  46 000c 0023     		movs	r3, #0
  84:freertos\src/list.c **** 
  47              		.loc 1 84 0
  48 000e 5242     		rsbs	r2, r2, #0
  49 0010 8260     		str	r2, [r0, #8]
  50              		.loc 1 91 0
  51 0012 0360     		str	r3, [r0]
  92:freertos\src/list.c **** }
  52              		.loc 1 92 0
  53              		@ sp needed
  54 0014 7047     		bx	lr
  55              		.cfi_endproc
  56              	.LFE32:
  57              		.size	vListInitialise, .-vListInitialise
  58              		.section	.text.vListInitialiseItem,"ax",%progbits
  59              		.align	1
  60              		.global	vListInitialiseItem
  61              		.code	16
  62              		.thumb_func
  63              		.type	vListInitialiseItem, %function
  64              	vListInitialiseItem:
  65              	.LFB33:
  93:freertos\src/list.c **** /*-----------------------------------------------------------*/
  94:freertos\src/list.c **** 
  95:freertos\src/list.c **** void vListInitialiseItem( xListItem * const pxItem )
  96:freertos\src/list.c **** {
  66              		.loc 1 96 0
  67              		.cfi_startproc
  68              		@ args = 0, pretend = 0, frame = 0
  69              		@ frame_needed = 0, uses_anonymous_args = 0
  70              		@ link register save eliminated.
  71              	.LVL1:
  97:freertos\src/list.c **** 	/* Make sure the list item is not recorded as being on a list. */
  98:freertos\src/list.c **** 	pxItem->pvContainer = NULL;
ARM GAS  C:\Users\VIDEOH~1\AppData\Local\Temp\cceSQHMC.s 			page 4


  72              		.loc 1 98 0
  73 0000 0023     		movs	r3, #0
  99:freertos\src/list.c **** }
  74              		.loc 1 99 0
  75              		@ sp needed
  98:freertos\src/list.c **** }
  76              		.loc 1 98 0
  77 0002 0361     		str	r3, [r0, #16]
  78              		.loc 1 99 0
  79 0004 7047     		bx	lr
  80              		.cfi_endproc
  81              	.LFE33:
  82              		.size	vListInitialiseItem, .-vListInitialiseItem
  83              		.section	.text.vListInsertEnd,"ax",%progbits
  84              		.align	1
  85              		.global	vListInsertEnd
  86              		.code	16
  87              		.thumb_func
  88              		.type	vListInsertEnd, %function
  89              	vListInsertEnd:
  90              	.LFB34:
 100:freertos\src/list.c **** /*-----------------------------------------------------------*/
 101:freertos\src/list.c **** 
 102:freertos\src/list.c **** void vListInsertEnd( xList * const pxList, xListItem * const pxNewListItem )
 103:freertos\src/list.c **** {
  91              		.loc 1 103 0
  92              		.cfi_startproc
  93              		@ args = 0, pretend = 0, frame = 0
  94              		@ frame_needed = 0, uses_anonymous_args = 0
  95              		@ link register save eliminated.
  96              	.LVL2:
 104:freertos\src/list.c **** xListItem * pxIndex;
 105:freertos\src/list.c **** 
 106:freertos\src/list.c **** 	/* Insert a new list item into pxList, but rather than sort the list,
 107:freertos\src/list.c **** 	makes the new list item the last item to be removed by a call to
 108:freertos\src/list.c **** 	pvListGetOwnerOfNextEntry. */
 109:freertos\src/list.c **** 	pxIndex = pxList->pxIndex;
  97              		.loc 1 109 0
  98 0000 4368     		ldr	r3, [r0, #4]
  99              	.LVL3:
 110:freertos\src/list.c **** 
 111:freertos\src/list.c **** 	pxNewListItem->pxNext = pxIndex;
 112:freertos\src/list.c **** 	pxNewListItem->pxPrevious = pxIndex->pxPrevious;
 113:freertos\src/list.c **** 	pxIndex->pxPrevious->pxNext = pxNewListItem;
 114:freertos\src/list.c **** 	pxIndex->pxPrevious = pxNewListItem;
 115:freertos\src/list.c **** 
 116:freertos\src/list.c **** 	/* Remember which list the item is in. */
 117:freertos\src/list.c **** 	pxNewListItem->pvContainer = ( void * ) pxList;
 118:freertos\src/list.c **** 
 119:freertos\src/list.c **** 	( pxList->uxNumberOfItems )++;
 120:freertos\src/list.c **** }
 100              		.loc 1 120 0
 101              		@ sp needed
 112:freertos\src/list.c **** 	pxIndex->pxPrevious->pxNext = pxNewListItem;
 102              		.loc 1 112 0
 103 0002 9A68     		ldr	r2, [r3, #8]
 111:freertos\src/list.c **** 	pxNewListItem->pxPrevious = pxIndex->pxPrevious;
ARM GAS  C:\Users\VIDEOH~1\AppData\Local\Temp\cceSQHMC.s 			page 5


 104              		.loc 1 111 0
 105 0004 4B60     		str	r3, [r1, #4]
 112:freertos\src/list.c **** 	pxIndex->pxPrevious->pxNext = pxNewListItem;
 106              		.loc 1 112 0
 107 0006 8A60     		str	r2, [r1, #8]
 113:freertos\src/list.c **** 	pxIndex->pxPrevious = pxNewListItem;
 108              		.loc 1 113 0
 109 0008 9A68     		ldr	r2, [r3, #8]
 110 000a 5160     		str	r1, [r2, #4]
 114:freertos\src/list.c **** 
 111              		.loc 1 114 0
 112 000c 9960     		str	r1, [r3, #8]
 119:freertos\src/list.c **** }
 113              		.loc 1 119 0
 114 000e 0368     		ldr	r3, [r0]
 115              	.LVL4:
 117:freertos\src/list.c **** 
 116              		.loc 1 117 0
 117 0010 0861     		str	r0, [r1, #16]
 119:freertos\src/list.c **** }
 118              		.loc 1 119 0
 119 0012 0133     		adds	r3, r3, #1
 120 0014 0360     		str	r3, [r0]
 121              		.loc 1 120 0
 122 0016 7047     		bx	lr
 123              		.cfi_endproc
 124              	.LFE34:
 125              		.size	vListInsertEnd, .-vListInsertEnd
 126              		.section	.text.vListInsert,"ax",%progbits
 127              		.align	1
 128              		.global	vListInsert
 129              		.code	16
 130              		.thumb_func
 131              		.type	vListInsert, %function
 132              	vListInsert:
 133              	.LFB35:
 121:freertos\src/list.c **** /*-----------------------------------------------------------*/
 122:freertos\src/list.c **** 
 123:freertos\src/list.c **** void vListInsert( xList * const pxList, xListItem * const pxNewListItem )
 124:freertos\src/list.c **** {
 134              		.loc 1 124 0
 135              		.cfi_startproc
 136              		@ args = 0, pretend = 0, frame = 0
 137              		@ frame_needed = 0, uses_anonymous_args = 0
 138              	.LVL5:
 125:freertos\src/list.c **** xListItem *pxIterator;
 126:freertos\src/list.c **** portTickType xValueOfInsertion;
 127:freertos\src/list.c **** 
 128:freertos\src/list.c **** 	/* Insert the new list item into the list, sorted in ulListItem order. */
 129:freertos\src/list.c **** 	xValueOfInsertion = pxNewListItem->xItemValue;
 130:freertos\src/list.c **** 
 131:freertos\src/list.c **** 	/* If the list already contains a list item with the same item value then
 132:freertos\src/list.c **** 	the new list item should be placed after it.  This ensures that TCB's which
 133:freertos\src/list.c **** 	are stored in ready lists (all of which have the same ulListItem value)
 134:freertos\src/list.c **** 	get an equal share of the CPU.  However, if the xItemValue is the same as
 135:freertos\src/list.c **** 	the back marker the iteration loop below will not end.  This means we need
 136:freertos\src/list.c **** 	to guard against this by checking the value first and modifying the
ARM GAS  C:\Users\VIDEOH~1\AppData\Local\Temp\cceSQHMC.s 			page 6


 137:freertos\src/list.c **** 	algorithm slightly if necessary. */
 138:freertos\src/list.c **** 	if( xValueOfInsertion == portMAX_DELAY )
 139:freertos\src/list.c **** 	{
 140:freertos\src/list.c **** 		pxIterator = pxList->xListEnd.pxPrevious;
 141:freertos\src/list.c **** 	}
 142:freertos\src/list.c **** 	else
 143:freertos\src/list.c **** 	{
 144:freertos\src/list.c **** 		/* *** NOTE ***********************************************************
 145:freertos\src/list.c **** 		If you find your application is crashing here then likely causes are:
 146:freertos\src/list.c **** 			1) Stack overflow -
 147:freertos\src/list.c **** 			   see http://www.freertos.org/Stacks-and-stack-overflow-checking.html
 148:freertos\src/list.c **** 			2) Incorrect interrupt priority assignment, especially on Cortex-M3
 149:freertos\src/list.c **** 			   parts where numerically high priority values denote low actual
 150:freertos\src/list.c **** 			   interrupt priories, which can seem counter intuitive.  See
 151:freertos\src/list.c **** 			   configMAX_SYSCALL_INTERRUPT_PRIORITY on http://www.freertos.org/a00110.html
 152:freertos\src/list.c **** 			3) Calling an API function from within a critical section or when
 153:freertos\src/list.c **** 			   the scheduler is suspended, or calling an API function that does
 154:freertos\src/list.c **** 			   not end in "FromISR" from an interrupt.
 155:freertos\src/list.c **** 			4) Using a queue or semaphore before it has been initialised or
 156:freertos\src/list.c **** 			   before the scheduler has been started (are interrupts firing
 157:freertos\src/list.c **** 			   before vTaskStartScheduler() has been called?).
 158:freertos\src/list.c **** 		See http://www.freertos.org/FAQHelp.html for more tips.
 159:freertos\src/list.c **** 		**********************************************************************/
 160:freertos\src/list.c **** 
 161:freertos\src/list.c **** 		for( pxIterator = ( xListItem * ) &( pxList->xListEnd ); pxIterator->pxNext->xItemValue <= xValue
 139              		.loc 1 161 0
 140 0000 0300     		movs	r3, r0
 129:freertos\src/list.c **** 
 141              		.loc 1 129 0
 142 0002 0A68     		ldr	r2, [r1]
 143              	.LVL6:
 124:freertos\src/list.c **** xListItem *pxIterator;
 144              		.loc 1 124 0
 145 0004 30B5     		push	{r4, r5, lr}
 146              		.cfi_def_cfa_offset 12
 147              		.cfi_offset 4, -12
 148              		.cfi_offset 5, -8
 149              		.cfi_offset 14, -4
 150              		.loc 1 161 0
 151 0006 0833     		adds	r3, r3, #8
 138:freertos\src/list.c **** 	{
 152              		.loc 1 138 0
 153 0008 541C     		adds	r4, r2, #1
 154 000a 01D1     		bne	.L9
 140:freertos\src/list.c **** 	}
 155              		.loc 1 140 0
 156 000c 0369     		ldr	r3, [r0, #16]
 157              	.LVL7:
 158 000e 05E0     		b	.L6
 159              	.LVL8:
 160              	.L9:
 161              		.loc 1 161 0 discriminator 1
 162 0010 5C68     		ldr	r4, [r3, #4]
 163 0012 2568     		ldr	r5, [r4]
 164 0014 AA42     		cmp	r2, r5
 165 0016 01D3     		bcc	.L6
 166 0018 2300     		movs	r3, r4
ARM GAS  C:\Users\VIDEOH~1\AppData\Local\Temp\cceSQHMC.s 			page 7


 167              	.LVL9:
 168 001a F9E7     		b	.L9
 169              	.LVL10:
 170              	.L6:
 162:freertos\src/list.c **** 		{
 163:freertos\src/list.c **** 			/* There is nothing to do here, we are just iterating to the
 164:freertos\src/list.c **** 			wanted insertion position. */
 165:freertos\src/list.c **** 		}
 166:freertos\src/list.c **** 	}
 167:freertos\src/list.c **** 
 168:freertos\src/list.c **** 	pxNewListItem->pxNext = pxIterator->pxNext;
 171              		.loc 1 168 0
 172 001c 5A68     		ldr	r2, [r3, #4]
 173              	.LVL11:
 169:freertos\src/list.c **** 	pxNewListItem->pxNext->pxPrevious = pxNewListItem;
 170:freertos\src/list.c **** 	pxNewListItem->pxPrevious = pxIterator;
 171:freertos\src/list.c **** 	pxIterator->pxNext = pxNewListItem;
 172:freertos\src/list.c **** 
 173:freertos\src/list.c **** 	/* Remember which list the item is in.  This allows fast removal of the
 174:freertos\src/list.c **** 	item later. */
 175:freertos\src/list.c **** 	pxNewListItem->pvContainer = ( void * ) pxList;
 176:freertos\src/list.c **** 
 177:freertos\src/list.c **** 	( pxList->uxNumberOfItems )++;
 178:freertos\src/list.c **** }
 174              		.loc 1 178 0
 175              		@ sp needed
 168:freertos\src/list.c **** 	pxNewListItem->pxNext->pxPrevious = pxNewListItem;
 176              		.loc 1 168 0
 177 001e 4A60     		str	r2, [r1, #4]
 169:freertos\src/list.c **** 	pxNewListItem->pxNext->pxPrevious = pxNewListItem;
 178              		.loc 1 169 0
 179 0020 9160     		str	r1, [r2, #8]
 170:freertos\src/list.c **** 	pxIterator->pxNext = pxNewListItem;
 180              		.loc 1 170 0
 181 0022 8B60     		str	r3, [r1, #8]
 171:freertos\src/list.c **** 
 182              		.loc 1 171 0
 183 0024 5960     		str	r1, [r3, #4]
 177:freertos\src/list.c **** }
 184              		.loc 1 177 0
 185 0026 0368     		ldr	r3, [r0]
 186              	.LVL12:
 175:freertos\src/list.c **** 
 187              		.loc 1 175 0
 188 0028 0861     		str	r0, [r1, #16]
 177:freertos\src/list.c **** }
 189              		.loc 1 177 0
 190 002a 0133     		adds	r3, r3, #1
 191 002c 0360     		str	r3, [r0]
 192              		.loc 1 178 0
 193 002e 30BD     		pop	{r4, r5, pc}
 194              		.cfi_endproc
 195              	.LFE35:
 196              		.size	vListInsert, .-vListInsert
 197              		.section	.text.uxListRemove,"ax",%progbits
 198              		.align	1
 199              		.global	uxListRemove
ARM GAS  C:\Users\VIDEOH~1\AppData\Local\Temp\cceSQHMC.s 			page 8


 200              		.code	16
 201              		.thumb_func
 202              		.type	uxListRemove, %function
 203              	uxListRemove:
 204              	.LFB36:
 179:freertos\src/list.c **** /*-----------------------------------------------------------*/
 180:freertos\src/list.c **** 
 181:freertos\src/list.c **** unsigned portBASE_TYPE uxListRemove( xListItem * const pxItemToRemove )
 182:freertos\src/list.c **** {
 205              		.loc 1 182 0
 206              		.cfi_startproc
 207              		@ args = 0, pretend = 0, frame = 0
 208              		@ frame_needed = 0, uses_anonymous_args = 0
 209              		@ link register save eliminated.
 210              	.LVL13:
 183:freertos\src/list.c **** xList * pxList;
 184:freertos\src/list.c **** 
 185:freertos\src/list.c **** 	pxItemToRemove->pxNext->pxPrevious = pxItemToRemove->pxPrevious;
 211              		.loc 1 185 0
 212 0000 4368     		ldr	r3, [r0, #4]
 213 0002 8268     		ldr	r2, [r0, #8]
 214 0004 9A60     		str	r2, [r3, #8]
 186:freertos\src/list.c **** 	pxItemToRemove->pxPrevious->pxNext = pxItemToRemove->pxNext;
 215              		.loc 1 186 0
 216 0006 8268     		ldr	r2, [r0, #8]
 217 0008 5360     		str	r3, [r2, #4]
 187:freertos\src/list.c **** 
 188:freertos\src/list.c **** 	/* The list item knows which list it is in.  Obtain the list from the list
 189:freertos\src/list.c **** 	item. */
 190:freertos\src/list.c **** 	pxList = ( xList * ) pxItemToRemove->pvContainer;
 218              		.loc 1 190 0
 219 000a 0369     		ldr	r3, [r0, #16]
 220              	.LVL14:
 191:freertos\src/list.c **** 
 192:freertos\src/list.c **** 	/* Make sure the index is left pointing to a valid item. */
 193:freertos\src/list.c **** 	if( pxList->pxIndex == pxItemToRemove )
 221              		.loc 1 193 0
 222 000c 5968     		ldr	r1, [r3, #4]
 223 000e 8842     		cmp	r0, r1
 224 0010 00D1     		bne	.L12
 194:freertos\src/list.c **** 	{
 195:freertos\src/list.c **** 		pxList->pxIndex = pxItemToRemove->pxPrevious;
 225              		.loc 1 195 0
 226 0012 5A60     		str	r2, [r3, #4]
 227              	.L12:
 196:freertos\src/list.c **** 	}
 197:freertos\src/list.c **** 
 198:freertos\src/list.c **** 	pxItemToRemove->pvContainer = NULL;
 228              		.loc 1 198 0
 229 0014 0022     		movs	r2, #0
 230 0016 0261     		str	r2, [r0, #16]
 199:freertos\src/list.c **** 	( pxList->uxNumberOfItems )--;
 231              		.loc 1 199 0
 232 0018 1A68     		ldr	r2, [r3]
 200:freertos\src/list.c **** 
 201:freertos\src/list.c **** 	return pxList->uxNumberOfItems;
 202:freertos\src/list.c **** }
ARM GAS  C:\Users\VIDEOH~1\AppData\Local\Temp\cceSQHMC.s 			page 9


 233              		.loc 1 202 0
 234              		@ sp needed
 199:freertos\src/list.c **** 	( pxList->uxNumberOfItems )--;
 235              		.loc 1 199 0
 236 001a 501E     		subs	r0, r2, #1
 237              	.LVL15:
 238 001c 1860     		str	r0, [r3]
 239              		.loc 1 202 0
 240 001e 7047     		bx	lr
 241              		.cfi_endproc
 242              	.LFE36:
 243              		.size	uxListRemove, .-uxListRemove
 244              		.text
 245              	.Letext0:
 246              		.file 2 ".\\freertos\\include/list.h"
 247              		.file 3 ".\\freertos\\include/portmacro.h"