ARM GAS  C:\Users\VIDEOH~1\AppData\Local\Temp\ccYJtf1S.s 			page 1


   1              		.syntax unified
   2              		.cpu cortex-m0
   3              		.fpu softvfp
   4              		.eabi_attribute 20, 1
   5              		.eabi_attribute 21, 1
   6              		.eabi_attribute 23, 3
   7              		.eabi_attribute 24, 1
   8              		.eabi_attribute 25, 1
   9              		.eabi_attribute 26, 1
  10              		.eabi_attribute 30, 4
  11              		.eabi_attribute 34, 0
  12              		.eabi_attribute 18, 4
  13              		.thumb
  14              		.syntax unified
  15              		.file	"main.c"
  16              		.text
  17              	.Ltext0:
  18              		.cfi_sections	.debug_frame
  19              		.section	.text.factory_reset,"ax",%progbits
  20              		.align	1
  21              		.global	factory_reset
  22              		.code	16
  23              		.thumb_func
  24              		.type	factory_reset, %function
  25              	factory_reset:
  26              	.LFB33:
  27              		.file 1 "main.c"
   1:main.c        **** #include <project.h>
   2:main.c        **** #include <FreeRTOS.h>
   3:main.c        **** #include <task.h>
   4:main.c        **** #include <stdio.h>
   5:main.c        **** #include "tasks.h"
   6:main.c        **** #include "config.h"
   7:main.c        **** 
   8:main.c        **** 
   9:main.c        **** state_t state;
  10:main.c        **** //xTaskHandle adc_task;
  11:main.c        **** xTaskHandle comms_task;
  12:main.c        **** xTaskHandle ui_task;
  13:main.c        **** 
  14:main.c        **** //const uint8 EEsettings[EEPROM_PHYSICAL_SIZE] __ALIGNED(CY_FLASH_SIZEOF_ROW) = {0u}; 
  15:main.c        **** const uint8 EEsettings[EEPROM_PHYSICAL_SIZE] CY_SECTION(".cy_checksum_exclude") __ALIGNED(CY_FLASH_
  16:main.c        **** settings_t settings;
  17:main.c        **** 
  18:main.c        **** const settings_t default_settings = {
  19:main.c        ****     .settings_version = 0x20,    
  20:main.c        **** 	.lcd_contrast = CONTRAST_DEF,
  21:main.c        ****     .cooler_on_temperature=50,
  22:main.c        ****     .cooler_on_adc_data=1507,
  23:main.c        ****     .cooler_off_adc_data=1476,
  24:main.c        ****     .display_settings = {
  25:main.c        ****         .named = {
  26:main.c        ****             .cc = {
  27:main.c        **** 		        .readouts = {READOUT_CURRENT_SETPOINT, READOUT_CURRENT_USAGE, READOUT_VOLTAGE},
  28:main.c        **** 	        },
  29:main.c        ****         },
  30:main.c        ****     },	
ARM GAS  C:\Users\VIDEOH~1\AppData\Local\Temp\ccYJtf1S.s 			page 2


  31:main.c        **** 	.calibration_settings = {
  32:main.c        **** 		.dac_low_gain = DEFAULT_DAC_LOW_GAIN,
  33:main.c        **** 		.dac_high_gain = DEFAULT_DAC_HIGH_GAIN,
  34:main.c        **** 		.dac_offset = DEFAULT_DAC_OFFSET,
  35:main.c        **** 		.opamp_offset_trim = DEFAULT_OPAMP_OFFSET_TRIM,
  36:main.c        **** 		
  37:main.c        **** 		.adc_current_offset = DEFAULT_ADC_CURRENT_OFFSET,
  38:main.c        **** 		.adc_current_gain = DEFAULT_ADC_CURRENT_GAIN,
  39:main.c        **** 		
  40:main.c        **** 		.adc_voltage_offset = DEFAULT_ADC_VOLTAGE_OFFSET,
  41:main.c        **** 		.adc_voltage_gain = DEFAULT_ADC_VOLTAGE_GAIN,
  42:main.c        **** 
  43:main.c        **** 		.voltage_correction_ratio = DEFAULT_VOLTAGE_CORRECTION_RATIO,
  44:main.c        **** 	},
  45:main.c        **** };
  46:main.c        **** void factory_reset() {
  28              		.loc 1 46 0
  29              		.cfi_startproc
  30              		@ args = 0, pretend = 0, frame = 0
  31              		@ frame_needed = 0, uses_anonymous_args = 0
  32 0000 10B5     		push	{r4, lr}
  33              		.cfi_def_cfa_offset 8
  34              		.cfi_offset 4, -8
  35              		.cfi_offset 14, -4
  47:main.c        ****     EEPROM_Write(0,(void*)&default_settings, sizeof(settings_t));
  36              		.loc 1 47 0
  37 0002 074C     		ldr	r4, .L2
  38 0004 3822     		movs	r2, #56
  39 0006 2300     		movs	r3, r4
  40 0008 0649     		ldr	r1, .L2+4
  41 000a 0020     		movs	r0, #0
  42 000c FFF7FEFF 		bl	Cy_Em_EEPROM_Write
  43              	.LVL0:
  48:main.c        ****     EEPROM_Read(0,(void*)&settings,sizeof(settings_t));
  44              		.loc 1 48 0
  45 0010 2300     		movs	r3, r4
  46 0012 3822     		movs	r2, #56
  47 0014 0449     		ldr	r1, .L2+8
  48 0016 0020     		movs	r0, #0
  49 0018 FFF7FEFF 		bl	Cy_Em_EEPROM_Read
  50              	.LVL1:
  49:main.c        **** }
  51              		.loc 1 49 0
  52              		@ sp needed
  53 001c 10BD     		pop	{r4, pc}
  54              	.L3:
  55 001e C046     		.align	2
  56              	.L2:
  57 0020 00000000 		.word	EEPROM_context
  58 0024 00000000 		.word	.LANCHOR0
  59 0028 00000000 		.word	settings
  60              		.cfi_endproc
  61              	.LFE33:
  62              		.size	factory_reset, .-factory_reset
  63              		.section	.text.prvHardwareSetup,"ax",%progbits
  64              		.align	1
  65              		.global	prvHardwareSetup
ARM GAS  C:\Users\VIDEOH~1\AppData\Local\Temp\ccYJtf1S.s 			page 3


  66              		.code	16
  67              		.thumb_func
  68              		.type	prvHardwareSetup, %function
  69              	prvHardwareSetup:
  70              	.LFB35:
  50:main.c        **** void prvHardwareSetup();
  51:main.c        **** 
  52:main.c        **** int main()
  53:main.c        **** {
  54:main.c        ****     uint8 res=0;
  55:main.c        ****     uint32 ee_status;
  56:main.c        ****     CyGlobalIntEnable;
  57:main.c        **** 
  58:main.c        **** #if USE_WATCHDOG
  59:main.c        ****     // Enable watchdog timer for every 2 seconds
  60:main.c        ****     CySysWdtWriteMode(0, CY_SYS_WDT_MODE_RESET);
  61:main.c        ****     CySysWdtWriteMatch(0, 0xFFFF);
  62:main.c        ****     CySysWdtEnable(CY_SYS_WDT_COUNTER0_MASK);
  63:main.c        **** #endif
  64:main.c        ****     EEPROM_Init((uint32)EEsettings);
  65:main.c        ****     ee_status=EEPROM_Read(0,(void*)&settings,sizeof(settings_t));
  66:main.c        ****     if(ee_status||(settings.settings_version < default_settings.settings_version)) 
  67:main.c        ****     {
  68:main.c        ****         factory_reset();
  69:main.c        ****         res=1;
  70:main.c        ****     }
  71:main.c        ****     Backlight_Write(1);	
  72:main.c        **** 	disp_reset_Write(0);
  73:main.c        **** 	CyDelayUs(10);
  74:main.c        **** 	disp_reset_Write(1);
  75:main.c        **** 	CyDelayUs(10);
  76:main.c        **** 	Display_Start();
  77:main.c        ****     Display_SetContrast(settings.lcd_contrast);
  78:main.c        ****     if(res)
  79:main.c        ****     {
  80:main.c        ****         Display_Clear(0,0,7,127,0xFF);
  81:main.c        ****         Display_DrawText(5,10,"!Factory!",1);
  82:main.c        ****         Display_DrawText(3,18,"!Reset!",1);
  83:main.c        ****         CyDelay(2000);
  84:main.c        ****         Display_ClearAll();
  85:main.c        ****     }
  86:main.c        **** 	IDAC_High_Start();
  87:main.c        **** 	IDAC_Low_Start();
  88:main.c        ****     state.calibrating = 0;
  89:main.c        ****     set_current(0);
  90:main.c        **** 	set_output_mode(OUTPUT_MODE_FEEDBACK);		
  91:main.c        **** 	start_adc();
  92:main.c        ****     Opamp_Start();
  93:main.c        ****     Opamp_REF_Start();
  94:main.c        **** 	setup();
  95:main.c        ****     CoolerWarning_period_reg=200;
  96:main.c        ****     CoolerWarning_bounce_reg=2;
  97:main.c        **** 	//Create the two tasks
  98:main.c        **** 	xTaskCreate(vTaskUI, (signed portCHAR *) "UI", 178, NULL, tskIDLE_PRIORITY + 2, &ui_task);
  99:main.c        **** 	xTaskCreate(vTaskComms, (signed portCHAR *) "UART", 180, NULL, tskIDLE_PRIORITY + 2, &comms_task);
 100:main.c        **** 	
 101:main.c        **** 	prvHardwareSetup();
ARM GAS  C:\Users\VIDEOH~1\AppData\Local\Temp\ccYJtf1S.s 			page 4


 102:main.c        **** 	vTaskStartScheduler();
 103:main.c        **** }
 104:main.c        **** 
 105:main.c        **** /* ---------------------------------------------------------------------------
 106:main.c        ****  * FreeRTOS support and configuration functions
 107:main.c        ****  * --------------------------------------------------------------------------- */
 108:main.c        **** 
 109:main.c        **** void prvHardwareSetup( void )
 110:main.c        **** {
  71              		.loc 1 110 0
  72              		.cfi_startproc
  73              		@ args = 0, pretend = 0, frame = 0
  74              		@ frame_needed = 0, uses_anonymous_args = 0
  75              		@ link register save eliminated.
 111:main.c        **** 	/* Port layer functions that need to be copied into the vector table. */
 112:main.c        **** 	extern void xPortPendSVHandler( void );
 113:main.c        **** 	extern void xPortSysTickHandler( void );
 114:main.c        **** 	extern void vPortSVCHandler( void );
 115:main.c        **** 	extern cyisraddress CyRamVectors[];
 116:main.c        **** 
 117:main.c        **** 	/* Install the OS Interrupt Handlers. */
 118:main.c        **** 	CyRamVectors[ 11 ] = ( cyisraddress ) vPortSVCHandler;
  76              		.loc 1 118 0
  77 0000 034B     		ldr	r3, .L5
  78 0002 044A     		ldr	r2, .L5+4
 119:main.c        **** 	CyRamVectors[ 14 ] = ( cyisraddress ) xPortPendSVHandler;
 120:main.c        **** 	CyRamVectors[ 15 ] = ( cyisraddress ) xPortSysTickHandler;
 121:main.c        **** }
  79              		.loc 1 121 0
  80              		@ sp needed
 118:main.c        **** 	CyRamVectors[ 14 ] = ( cyisraddress ) xPortPendSVHandler;
  81              		.loc 1 118 0
  82 0004 DA62     		str	r2, [r3, #44]
 119:main.c        **** 	CyRamVectors[ 14 ] = ( cyisraddress ) xPortPendSVHandler;
  83              		.loc 1 119 0
  84 0006 044A     		ldr	r2, .L5+8
  85 0008 9A63     		str	r2, [r3, #56]
 120:main.c        **** }
  86              		.loc 1 120 0
  87 000a 044A     		ldr	r2, .L5+12
  88 000c DA63     		str	r2, [r3, #60]
  89              		.loc 1 121 0
  90 000e 7047     		bx	lr
  91              	.L6:
  92              		.align	2
  93              	.L5:
  94 0010 00000000 		.word	CyRamVectors
  95 0014 00000000 		.word	vPortSVCHandler
  96 0018 00000000 		.word	xPortPendSVHandler
  97 001c 00000000 		.word	xPortSysTickHandler
  98              		.cfi_endproc
  99              	.LFE35:
 100              		.size	prvHardwareSetup, .-prvHardwareSetup
 101              		.section	.text.startup.main,"ax",%progbits
 102              		.align	1
 103              		.global	main
 104              		.code	16
ARM GAS  C:\Users\VIDEOH~1\AppData\Local\Temp\ccYJtf1S.s 			page 5


 105              		.thumb_func
 106              		.type	main, %function
 107              	main:
 108              	.LFB34:
  53:main.c        ****     uint8 res=0;
 109              		.loc 1 53 0
 110              		.cfi_startproc
 111              		@ args = 0, pretend = 0, frame = 0
 112              		@ frame_needed = 0, uses_anonymous_args = 0
 113              	.LVL2:
 114 0000 30B5     		push	{r4, r5, lr}
 115              		.cfi_def_cfa_offset 12
 116              		.cfi_offset 4, -12
 117              		.cfi_offset 5, -8
 118              		.cfi_offset 14, -4
 119 0002 85B0     		sub	sp, sp, #20
 120              		.cfi_def_cfa_offset 32
  56:main.c        **** 
 121              		.loc 1 56 0
 122              		.syntax divided
 123              	@ 56 "main.c" 1
 124 0004 62B6     		CPSIE   i
 125              	@ 0 "" 2
  64:main.c        ****     ee_status=EEPROM_Read(0,(void*)&settings,sizeof(settings_t));
 126              		.loc 1 64 0
 127              		.thumb
 128              		.syntax unified
 129 0006 3E48     		ldr	r0, .L16
 130 0008 FFF7FEFF 		bl	EEPROM_Init
 131              	.LVL3:
  65:main.c        ****     if(ee_status||(settings.settings_version < default_settings.settings_version)) 
 132              		.loc 1 65 0
 133 000c 3D4D     		ldr	r5, .L16+4
 134 000e 3E4B     		ldr	r3, .L16+8
 135 0010 3822     		movs	r2, #56
 136 0012 2900     		movs	r1, r5
 137 0014 0020     		movs	r0, #0
 138 0016 FFF7FEFF 		bl	Cy_Em_EEPROM_Read
 139              	.LVL4:
  66:main.c        ****     {
 140              		.loc 1 66 0
 141 001a 0028     		cmp	r0, #0
 142 001c 03D1     		bne	.L8
  66:main.c        ****     {
 143              		.loc 1 66 0 is_stmt 0 discriminator 1
 144 001e 2B78     		ldrb	r3, [r5]
  54:main.c        ****     uint32 ee_status;
 145              		.loc 1 54 0 is_stmt 1 discriminator 1
 146 0020 0400     		movs	r4, r0
  66:main.c        ****     {
 147              		.loc 1 66 0 discriminator 1
 148 0022 1F2B     		cmp	r3, #31
 149 0024 02D8     		bhi	.L9
 150              	.L8:
  68:main.c        ****         res=1;
 151              		.loc 1 68 0
 152 0026 FFF7FEFF 		bl	factory_reset
ARM GAS  C:\Users\VIDEOH~1\AppData\Local\Temp\ccYJtf1S.s 			page 6


 153              	.LVL5:
  69:main.c        ****     }
 154              		.loc 1 69 0
 155 002a 0124     		movs	r4, #1
 156              	.LVL6:
 157              	.L9:
  71:main.c        **** 	disp_reset_Write(0);
 158              		.loc 1 71 0
 159 002c 0120     		movs	r0, #1
 160 002e FFF7FEFF 		bl	Backlight_Write
 161              	.LVL7:
  72:main.c        **** 	CyDelayUs(10);
 162              		.loc 1 72 0
 163 0032 0020     		movs	r0, #0
 164 0034 FFF7FEFF 		bl	disp_reset_Write
 165              	.LVL8:
  73:main.c        **** 	disp_reset_Write(1);
 166              		.loc 1 73 0
 167 0038 0A20     		movs	r0, #10
 168 003a FFF7FEFF 		bl	CyDelayUs
 169              	.LVL9:
  74:main.c        **** 	CyDelayUs(10);
 170              		.loc 1 74 0
 171 003e 0120     		movs	r0, #1
 172 0040 FFF7FEFF 		bl	disp_reset_Write
 173              	.LVL10:
  75:main.c        **** 	Display_Start();
 174              		.loc 1 75 0
 175 0044 0A20     		movs	r0, #10
 176 0046 FFF7FEFF 		bl	CyDelayUs
 177              	.LVL11:
  76:main.c        ****     Display_SetContrast(settings.lcd_contrast);
 178              		.loc 1 76 0
 179 004a FFF7FEFF 		bl	Display_Start
 180              	.LVL12:
  77:main.c        ****     if(res)
 181              		.loc 1 77 0
 182 004e 6868     		ldr	r0, [r5, #4]
 183 0050 C0B2     		uxtb	r0, r0
 184 0052 FFF7FEFF 		bl	Display_SetContrast
 185              	.LVL13:
  78:main.c        ****     {
 186              		.loc 1 78 0
 187 0056 002C     		cmp	r4, #0
 188 0058 19D0     		beq	.L10
  80:main.c        ****         Display_DrawText(5,10,"!Factory!",1);
 189              		.loc 1 80 0
 190 005a 0021     		movs	r1, #0
 191 005c FF23     		movs	r3, #255
 192 005e 0800     		movs	r0, r1
 193 0060 0093     		str	r3, [sp]
 194 0062 0722     		movs	r2, #7
 195 0064 803B     		subs	r3, r3, #128
 196 0066 FFF7FEFF 		bl	Display_Clear
 197              	.LVL14:
  81:main.c        ****         Display_DrawText(3,18,"!Reset!",1);
 198              		.loc 1 81 0
ARM GAS  C:\Users\VIDEOH~1\AppData\Local\Temp\ccYJtf1S.s 			page 7


 199 006a 0123     		movs	r3, #1
 200 006c 274A     		ldr	r2, .L16+12
 201 006e 0A21     		movs	r1, #10
 202 0070 0520     		movs	r0, #5
 203 0072 FFF7FEFF 		bl	Display_DrawText
 204              	.LVL15:
  82:main.c        ****         CyDelay(2000);
 205              		.loc 1 82 0
 206 0076 0123     		movs	r3, #1
 207 0078 254A     		ldr	r2, .L16+16
 208 007a 1221     		movs	r1, #18
 209 007c 0320     		movs	r0, #3
 210 007e FFF7FEFF 		bl	Display_DrawText
 211              	.LVL16:
  83:main.c        ****         Display_ClearAll();
 212              		.loc 1 83 0
 213 0082 FA20     		movs	r0, #250
 214 0084 C000     		lsls	r0, r0, #3
 215 0086 FFF7FEFF 		bl	CyDelay
 216              	.LVL17:
  84:main.c        ****     }
 217              		.loc 1 84 0
 218 008a FFF7FEFF 		bl	Display_ClearAll
 219              	.LVL18:
 220              	.L10:
  88:main.c        ****     set_current(0);
 221              		.loc 1 88 0
 222 008e 0024     		movs	r4, #0
  86:main.c        **** 	IDAC_Low_Start();
 223              		.loc 1 86 0
 224 0090 FFF7FEFF 		bl	IDAC_High_Start
 225              	.LVL19:
  87:main.c        ****     state.calibrating = 0;
 226              		.loc 1 87 0
 227 0094 FFF7FEFF 		bl	IDAC_Low_Start
 228              	.LVL20:
  88:main.c        ****     set_current(0);
 229              		.loc 1 88 0
 230 0098 1E4B     		ldr	r3, .L16+20
  89:main.c        **** 	set_output_mode(OUTPUT_MODE_FEEDBACK);		
 231              		.loc 1 89 0
 232 009a 2000     		movs	r0, r4
  88:main.c        ****     set_current(0);
 233              		.loc 1 88 0
 234 009c 1C72     		strb	r4, [r3, #8]
  89:main.c        **** 	set_output_mode(OUTPUT_MODE_FEEDBACK);		
 235              		.loc 1 89 0
 236 009e FFF7FEFF 		bl	set_current
 237              	.LVL21:
  90:main.c        **** 	start_adc();
 238              		.loc 1 90 0
 239 00a2 0220     		movs	r0, #2
 240 00a4 FFF7FEFF 		bl	set_output_mode
 241              	.LVL22:
  91:main.c        ****     Opamp_Start();
 242              		.loc 1 91 0
 243 00a8 FFF7FEFF 		bl	start_adc
ARM GAS  C:\Users\VIDEOH~1\AppData\Local\Temp\ccYJtf1S.s 			page 8


 244              	.LVL23:
  92:main.c        ****     Opamp_REF_Start();
 245              		.loc 1 92 0
 246 00ac FFF7FEFF 		bl	Opamp_Start
 247              	.LVL24:
  93:main.c        **** 	setup();
 248              		.loc 1 93 0
 249 00b0 FFF7FEFF 		bl	Opamp_REF_Start
 250              	.LVL25:
  94:main.c        ****     CoolerWarning_period_reg=200;
 251              		.loc 1 94 0
 252 00b4 FFF7FEFF 		bl	setup
 253              	.LVL26:
  95:main.c        ****     CoolerWarning_bounce_reg=2;
 254              		.loc 1 95 0
 255 00b8 C822     		movs	r2, #200
  96:main.c        **** 	//Create the two tasks
 256              		.loc 1 96 0
 257 00ba 0225     		movs	r5, #2
  95:main.c        ****     CoolerWarning_bounce_reg=2;
 258              		.loc 1 95 0
 259 00bc 164B     		ldr	r3, .L16+24
  98:main.c        **** 	xTaskCreate(vTaskComms, (signed portCHAR *) "UART", 180, NULL, tskIDLE_PRIORITY + 2, &comms_task);
 260              		.loc 1 98 0
 261 00be 1749     		ldr	r1, .L16+28
  95:main.c        ****     CoolerWarning_bounce_reg=2;
 262              		.loc 1 95 0
 263 00c0 1A70     		strb	r2, [r3]
  96:main.c        **** 	//Create the two tasks
 264              		.loc 1 96 0
 265 00c2 174B     		ldr	r3, .L16+32
  98:main.c        **** 	xTaskCreate(vTaskComms, (signed portCHAR *) "UART", 180, NULL, tskIDLE_PRIORITY + 2, &comms_task);
 266              		.loc 1 98 0
 267 00c4 163A     		subs	r2, r2, #22
  96:main.c        **** 	//Create the two tasks
 268              		.loc 1 96 0
 269 00c6 1D70     		strb	r5, [r3]
  98:main.c        **** 	xTaskCreate(vTaskComms, (signed portCHAR *) "UART", 180, NULL, tskIDLE_PRIORITY + 2, &comms_task);
 270              		.loc 1 98 0
 271 00c8 164B     		ldr	r3, .L16+36
 272 00ca 0394     		str	r4, [sp, #12]
 273 00cc 0193     		str	r3, [sp, #4]
 274 00ce 0294     		str	r4, [sp, #8]
 275 00d0 2300     		movs	r3, r4
 276 00d2 0095     		str	r5, [sp]
 277 00d4 1448     		ldr	r0, .L16+40
 278 00d6 FFF7FEFF 		bl	xTaskGenericCreate
 279              	.LVL27:
  99:main.c        **** 	
 280              		.loc 1 99 0
 281 00da 144B     		ldr	r3, .L16+44
 282 00dc B422     		movs	r2, #180
 283 00de 1449     		ldr	r1, .L16+48
 284 00e0 0193     		str	r3, [sp, #4]
 285 00e2 0394     		str	r4, [sp, #12]
 286 00e4 2300     		movs	r3, r4
 287 00e6 0294     		str	r4, [sp, #8]
ARM GAS  C:\Users\VIDEOH~1\AppData\Local\Temp\ccYJtf1S.s 			page 9


 288 00e8 0095     		str	r5, [sp]
 289 00ea 1248     		ldr	r0, .L16+52
 290 00ec FFF7FEFF 		bl	xTaskGenericCreate
 291              	.LVL28:
 101:main.c        **** 	vTaskStartScheduler();
 292              		.loc 1 101 0
 293 00f0 FFF7FEFF 		bl	prvHardwareSetup
 294              	.LVL29:
 102:main.c        **** }
 295              		.loc 1 102 0
 296 00f4 FFF7FEFF 		bl	vTaskStartScheduler
 297              	.LVL30:
 103:main.c        **** 
 298              		.loc 1 103 0
 299 00f8 2000     		movs	r0, r4
 300 00fa 05B0     		add	sp, sp, #20
 301              		@ sp needed
 302 00fc 30BD     		pop	{r4, r5, pc}
 303              	.L17:
 304 00fe C046     		.align	2
 305              	.L16:
 306 0100 00000000 		.word	.LANCHOR1
 307 0104 00000000 		.word	settings
 308 0108 00000000 		.word	EEPROM_context
 309 010c 00000000 		.word	.LC10
 310 0110 0A000000 		.word	.LC12
 311 0114 00000000 		.word	state
 312 0118 21000F40 		.word	1074724897
 313 011c 12000000 		.word	.LC15
 314 0120 31000F40 		.word	1074724913
 315 0124 00000000 		.word	ui_task
 316 0128 00000000 		.word	vTaskUI
 317 012c 00000000 		.word	comms_task
 318 0130 15000000 		.word	.LC19
 319 0134 00000000 		.word	vTaskComms
 320              		.cfi_endproc
 321              	.LFE34:
 322              		.size	main, .-main
 323              		.section	.text.vApplicationStackOverflowHook,"ax",%progbits
 324              		.align	1
 325              		.global	vApplicationStackOverflowHook
 326              		.code	16
 327              		.thumb_func
 328              		.type	vApplicationStackOverflowHook, %function
 329              	vApplicationStackOverflowHook:
 330              	.LFB36:
 122:main.c        **** 
 123:main.c        **** void vApplicationStackOverflowHook( xTaskHandle pxTask, signed char *pcTaskName )
 124:main.c        **** {
 331              		.loc 1 124 0
 332              		.cfi_startproc
 333              		@ Volatile: function does not return.
 334              		@ args = 0, pretend = 0, frame = 0
 335              		@ frame_needed = 0, uses_anonymous_args = 0
 336              	.LVL31:
 337 0000 10B5     		push	{r4, lr}
 338              		.cfi_def_cfa_offset 8
ARM GAS  C:\Users\VIDEOH~1\AppData\Local\Temp\ccYJtf1S.s 			page 10


 339              		.cfi_offset 4, -8
 340              		.cfi_offset 14, -4
 125:main.c        **** 	/* The stack space has been execeeded for a task, considering allocating more. */
 126:main.c        **** 	taskDISABLE_INTERRUPTS();
 341              		.loc 1 126 0
 342              		.syntax divided
 343              	@ 126 "main.c" 1
 344 0002 72B6     		 cpsid i 
 345              	@ 0 "" 2
 346              	.LVL32:
 347              		.thumb
 348              		.syntax unified
 349              	.L19:
 127:main.c        **** 	for( ;; ) {
 128:main.c        ****         Backlight_Write(0);
 350              		.loc 1 128 0 discriminator 1
 351 0004 0020     		movs	r0, #0
 352 0006 FFF7FEFF 		bl	Backlight_Write
 353              	.LVL33:
 129:main.c        ****         CyDelay(500);
 354              		.loc 1 129 0 discriminator 1
 355 000a FA20     		movs	r0, #250
 356 000c 4000     		lsls	r0, r0, #1
 357 000e FFF7FEFF 		bl	CyDelay
 358              	.LVL34:
 130:main.c        ****         Backlight_Write(1);
 359              		.loc 1 130 0 discriminator 1
 360 0012 0120     		movs	r0, #1
 361 0014 FFF7FEFF 		bl	Backlight_Write
 362              	.LVL35:
 131:main.c        ****         CyDelay(500);
 363              		.loc 1 131 0 discriminator 1
 364 0018 FA20     		movs	r0, #250
 365 001a 4000     		lsls	r0, r0, #1
 366 001c FFF7FEFF 		bl	CyDelay
 367              	.LVL36:
 368 0020 F0E7     		b	.L19
 369              		.cfi_endproc
 370              	.LFE36:
 371              		.size	vApplicationStackOverflowHook, .-vApplicationStackOverflowHook
 372              		.section	.text.vApplicationMallocFailedHook,"ax",%progbits
 373              		.align	1
 374              		.global	vApplicationMallocFailedHook
 375              		.code	16
 376              		.thumb_func
 377              		.type	vApplicationMallocFailedHook, %function
 378              	vApplicationMallocFailedHook:
 379              	.LFB37:
 132:main.c        ****     }
 133:main.c        **** }
 134:main.c        **** 
 135:main.c        **** void vApplicationMallocFailedHook( void )
 136:main.c        **** {
 380              		.loc 1 136 0
 381              		.cfi_startproc
 382              		@ Volatile: function does not return.
 383              		@ args = 0, pretend = 0, frame = 0
ARM GAS  C:\Users\VIDEOH~1\AppData\Local\Temp\ccYJtf1S.s 			page 11


 384              		@ frame_needed = 0, uses_anonymous_args = 0
 385 0000 10B5     		push	{r4, lr}
 386              		.cfi_def_cfa_offset 8
 387              		.cfi_offset 4, -8
 388              		.cfi_offset 14, -4
 137:main.c        **** 	/* The heap space has been execeeded. */
 138:main.c        **** 	taskDISABLE_INTERRUPTS();
 389              		.loc 1 138 0
 390              		.syntax divided
 391              	@ 138 "main.c" 1
 392 0002 72B6     		 cpsid i 
 393              	@ 0 "" 2
 394              		.thumb
 395              		.syntax unified
 396              	.L21:
 139:main.c        **** 	for( ;; ){
 140:main.c        ****         Backlight_Write(0);
 397              		.loc 1 140 0 discriminator 1
 398 0004 0020     		movs	r0, #0
 399 0006 FFF7FEFF 		bl	Backlight_Write
 400              	.LVL37:
 141:main.c        ****         CyDelay(2000);
 401              		.loc 1 141 0 discriminator 1
 402 000a FA20     		movs	r0, #250
 403 000c C000     		lsls	r0, r0, #3
 404 000e FFF7FEFF 		bl	CyDelay
 405              	.LVL38:
 142:main.c        ****         Backlight_Write(1);
 406              		.loc 1 142 0 discriminator 1
 407 0012 0120     		movs	r0, #1
 408 0014 FFF7FEFF 		bl	Backlight_Write
 409              	.LVL39:
 143:main.c        ****         CyDelay(2000);
 410              		.loc 1 143 0 discriminator 1
 411 0018 FA20     		movs	r0, #250
 412 001a C000     		lsls	r0, r0, #3
 413 001c FFF7FEFF 		bl	CyDelay
 414              	.LVL40:
 415 0020 F0E7     		b	.L21
 416              		.cfi_endproc
 417              	.LFE37:
 418              		.size	vApplicationMallocFailedHook, .-vApplicationMallocFailedHook
 419              		.global	default_settings
 420              		.comm	settings,56,4
 421              		.global	EEsettings
 422              		.comm	ui_task,4,4
 423              		.comm	comms_task,4,4
 424              		.comm	state,12,4
 425              		.section	.rodata
 426              		.align	2
 427              		.set	.LANCHOR0,. + 0
 428              		.type	default_settings, %object
 429              		.size	default_settings, 56
 430              	default_settings:
 431 0000 20       		.byte	32
 432 0001 000000   		.space	3
 433 0004 60000000 		.word	96
ARM GAS  C:\Users\VIDEOH~1\AppData\Local\Temp\ccYJtf1S.s 			page 12


 434 0008 3200     		.short	50
 435 000a E305     		.short	1507
 436 000c C405     		.short	1476
 437 000e 01       		.byte	1
 438 000f 02       		.byte	2
 439 0010 03       		.byte	3
 440 0011 000000   		.space	3
 441 0014 BA000000 		.word	186
 442 0018 A5520000 		.word	21157
 443 001c 00000000 		.word	0
 444 0020 24000000 		.word	36
 445 0024 00000000 		.word	0
 446 0028 57020000 		.word	599
 447 002c 00000000 		.word	0
 448 0030 D8070000 		.word	2008
 449 0034 28000000 		.word	40
 450              		.section	.rodata.str1.1,"aMS",%progbits,1
 451              	.LC10:
 452 0000 21466163 		.ascii	"!Factory!\000"
 452      746F7279 
 452      2100
 453              	.LC12:
 454 000a 21526573 		.ascii	"!Reset!\000"
 454      65742100 
 455              	.LC15:
 456 0012 554900   		.ascii	"UI\000"
 457              	.LC19:
 458 0015 55415254 		.ascii	"UART\000"
 458      00
 459              		.section	.cy_checksum_exclude,"a",%progbits
 460              		.align	7
 461              		.set	.LANCHOR1,. + 0
 462              		.type	EEsettings, %object
 463              		.size	EEsettings, 128
 464              	EEsettings:
 465 0000 00000000 		.space	128
 465      00000000 
 465      00000000 
 465      00000000 
 465      00000000 
 466              		.text
 467              	.Letext0:
 468              		.file 2 "c:\\program files (x86)\\cypress\\psoc creator\\4.2\\psoc creator\\import\\gnu\\arm\\5.4.
 469              		.file 3 "c:\\program files (x86)\\cypress\\psoc creator\\4.2\\psoc creator\\import\\gnu\\arm\\5.4.
 470              		.file 4 "Generated_Source\\PSoC4/cytypes.h"
 471              		.file 5 "Generated_Source\\PSoC4/cy_em_eeprom.h"
 472              		.file 6 ".\\freertos\\include/task.h"
 473              		.file 7 "config.h"
 474              		.file 8 "Generated_Source\\PSoC4/EEPROM.h"
 475              		.file 9 "Generated_Source\\PSoC4/Backlight.h"
 476              		.file 10 "Generated_Source\\PSoC4/disp_reset.h"
 477              		.file 11 "Generated_Source\\PSoC4/CyLib.h"
 478              		.file 12 "Generated_Source\\PSoC4/Display.h"
 479              		.file 13 "Generated_Source\\PSoC4/IDAC_High.h"
 480              		.file 14 "Generated_Source\\PSoC4/IDAC_Low.h"
 481              		.file 15 "tasks.h"
 482              		.file 16 "Generated_Source\\PSoC4/Opamp.h"
ARM GAS  C:\Users\VIDEOH~1\AppData\Local\Temp\ccYJtf1S.s 			page 13


 483              		.file 17 "Generated_Source\\PSoC4/Opamp_REF.h"