ARM GAS  C:\Users\VIDEOH~1\AppData\Local\Temp\cc0uiU0o.s 			page 1


   1              		.syntax unified
   2              		.cpu cortex-m0
   3              		.fpu softvfp
   4              		.eabi_attribute 20, 1
   5              		.eabi_attribute 21, 1
   6              		.eabi_attribute 23, 3
   7              		.eabi_attribute 24, 1
   8              		.eabi_attribute 25, 1
   9              		.eabi_attribute 26, 1
  10              		.eabi_attribute 30, 4
  11              		.eabi_attribute 34, 0
  12              		.eabi_attribute 18, 4
  13              		.thumb
  14              		.syntax unified
  15              		.file	"Opamp_T.c"
  16              		.text
  17              	.Ltext0:
  18              		.cfi_sections	.debug_frame
  19              		.section	.text.Opamp_T_Init,"ax",%progbits
  20              		.align	1
  21              		.global	Opamp_T_Init
  22              		.code	16
  23              		.thumb_func
  24              		.type	Opamp_T_Init, %function
  25              	Opamp_T_Init:
  26              	.LFB0:
  27              		.file 1 "Generated_Source\\PSoC4\\Opamp_T.c"
   1:Generated_Source\PSoC4/Opamp_T.c **** /*******************************************************************************
   2:Generated_Source\PSoC4/Opamp_T.c **** * File Name: Opamp_T.c
   3:Generated_Source\PSoC4/Opamp_T.c **** * Version 1.20
   4:Generated_Source\PSoC4/Opamp_T.c **** *
   5:Generated_Source\PSoC4/Opamp_T.c **** * Description:
   6:Generated_Source\PSoC4/Opamp_T.c **** *  This file provides the source code to the API for the Opamp (Analog Buffer)
   7:Generated_Source\PSoC4/Opamp_T.c **** *  Component.
   8:Generated_Source\PSoC4/Opamp_T.c **** *
   9:Generated_Source\PSoC4/Opamp_T.c **** *
  10:Generated_Source\PSoC4/Opamp_T.c **** ********************************************************************************
  11:Generated_Source\PSoC4/Opamp_T.c **** * Copyright 2013-2015, Cypress Semiconductor Corporation.  All rights reserved.
  12:Generated_Source\PSoC4/Opamp_T.c **** * You may use this file only in accordance with the license, terms, conditions,
  13:Generated_Source\PSoC4/Opamp_T.c **** * disclaimers, and limitations in the end user license agreement accompanying
  14:Generated_Source\PSoC4/Opamp_T.c **** * the software package with which this file was provided.
  15:Generated_Source\PSoC4/Opamp_T.c **** *******************************************************************************/
  16:Generated_Source\PSoC4/Opamp_T.c **** 
  17:Generated_Source\PSoC4/Opamp_T.c **** #include "Opamp_T.h"
  18:Generated_Source\PSoC4/Opamp_T.c **** 
  19:Generated_Source\PSoC4/Opamp_T.c **** uint8 Opamp_T_initVar = 0u; /* Defines if component was initialized */
  20:Generated_Source\PSoC4/Opamp_T.c **** static uint32 Opamp_T_internalPower = 0u; /* Defines component Power value */
  21:Generated_Source\PSoC4/Opamp_T.c **** 
  22:Generated_Source\PSoC4/Opamp_T.c **** 
  23:Generated_Source\PSoC4/Opamp_T.c **** /*******************************************************************************
  24:Generated_Source\PSoC4/Opamp_T.c **** * Function Name: Opamp_T_Init
  25:Generated_Source\PSoC4/Opamp_T.c **** ********************************************************************************
  26:Generated_Source\PSoC4/Opamp_T.c **** *
  27:Generated_Source\PSoC4/Opamp_T.c **** * Summary:
  28:Generated_Source\PSoC4/Opamp_T.c **** *  Initializes or restores the component according to the customizer Configure 
  29:Generated_Source\PSoC4/Opamp_T.c **** *  dialog settings. It is not necessary to call Init() because the Start() API 
  30:Generated_Source\PSoC4/Opamp_T.c **** *  calls this function and is the preferred method to begin the component operation.
ARM GAS  C:\Users\VIDEOH~1\AppData\Local\Temp\cc0uiU0o.s 			page 2


  31:Generated_Source\PSoC4/Opamp_T.c **** *
  32:Generated_Source\PSoC4/Opamp_T.c **** * Parameters:
  33:Generated_Source\PSoC4/Opamp_T.c **** *  None
  34:Generated_Source\PSoC4/Opamp_T.c **** *
  35:Generated_Source\PSoC4/Opamp_T.c **** * Return:
  36:Generated_Source\PSoC4/Opamp_T.c **** *  None
  37:Generated_Source\PSoC4/Opamp_T.c **** *
  38:Generated_Source\PSoC4/Opamp_T.c **** *******************************************************************************/
  39:Generated_Source\PSoC4/Opamp_T.c **** void Opamp_T_Init(void)
  40:Generated_Source\PSoC4/Opamp_T.c **** {
  28              		.loc 1 40 0
  29              		.cfi_startproc
  30              		@ args = 0, pretend = 0, frame = 0
  31              		@ frame_needed = 0, uses_anonymous_args = 0
  32              		@ link register save eliminated.
  41:Generated_Source\PSoC4/Opamp_T.c ****     Opamp_T_internalPower = Opamp_T_POWER;
  33              		.loc 1 41 0
  34 0000 0223     		movs	r3, #2
  42:Generated_Source\PSoC4/Opamp_T.c ****     Opamp_T_CTB_CTRL_REG = Opamp_T_DEFAULT_CTB_CTRL;
  35              		.loc 1 42 0
  36 0002 8021     		movs	r1, #128
  41:Generated_Source\PSoC4/Opamp_T.c ****     Opamp_T_internalPower = Opamp_T_POWER;
  37              		.loc 1 41 0
  38 0004 054A     		ldr	r2, .L2
  39              		.loc 1 42 0
  40 0006 0906     		lsls	r1, r1, #24
  41:Generated_Source\PSoC4/Opamp_T.c ****     Opamp_T_internalPower = Opamp_T_POWER;
  41              		.loc 1 41 0
  42 0008 1360     		str	r3, [r2]
  43              		.loc 1 42 0
  44 000a 054A     		ldr	r2, .L2+4
  43:Generated_Source\PSoC4/Opamp_T.c ****     Opamp_T_OA_RES_CTRL_REG = Opamp_T_DEFAULT_OA_RES_CTRL;
  44:Generated_Source\PSoC4/Opamp_T.c ****     Opamp_T_OA_COMP_TRIM_REG = Opamp_T_DEFAULT_OA_COMP_TRIM_REG;
  45:Generated_Source\PSoC4/Opamp_T.c **** }
  45              		.loc 1 45 0
  46              		@ sp needed
  42:Generated_Source\PSoC4/Opamp_T.c ****     Opamp_T_CTB_CTRL_REG = Opamp_T_DEFAULT_CTB_CTRL;
  47              		.loc 1 42 0
  48 000c 1160     		str	r1, [r2]
  43:Generated_Source\PSoC4/Opamp_T.c ****     Opamp_T_OA_RES_CTRL_REG = Opamp_T_DEFAULT_OA_RES_CTRL;
  49              		.loc 1 43 0
  50 000e 0021     		movs	r1, #0
  51 0010 044A     		ldr	r2, .L2+8
  52 0012 1160     		str	r1, [r2]
  44:Generated_Source\PSoC4/Opamp_T.c **** }
  53              		.loc 1 44 0
  54 0014 044A     		ldr	r2, .L2+12
  55 0016 1360     		str	r3, [r2]
  56              		.loc 1 45 0
  57 0018 7047     		bx	lr
  58              	.L3:
  59 001a C046     		.align	2
  60              	.L2:
  61 001c 00000000 		.word	.LANCHOR0
  62 0020 00001040 		.word	1074790400
  63 0024 08001040 		.word	1074790408
  64 0028 140F1040 		.word	1074794260
ARM GAS  C:\Users\VIDEOH~1\AppData\Local\Temp\cc0uiU0o.s 			page 3


  65              		.cfi_endproc
  66              	.LFE0:
  67              		.size	Opamp_T_Init, .-Opamp_T_Init
  68              		.section	.text.Opamp_T_Enable,"ax",%progbits
  69              		.align	1
  70              		.global	Opamp_T_Enable
  71              		.code	16
  72              		.thumb_func
  73              		.type	Opamp_T_Enable, %function
  74              	Opamp_T_Enable:
  75              	.LFB1:
  46:Generated_Source\PSoC4/Opamp_T.c **** 
  47:Generated_Source\PSoC4/Opamp_T.c **** 
  48:Generated_Source\PSoC4/Opamp_T.c **** /*******************************************************************************
  49:Generated_Source\PSoC4/Opamp_T.c **** * Function Name: Opamp_T_Enable
  50:Generated_Source\PSoC4/Opamp_T.c **** ********************************************************************************
  51:Generated_Source\PSoC4/Opamp_T.c **** *
  52:Generated_Source\PSoC4/Opamp_T.c **** * Summary:
  53:Generated_Source\PSoC4/Opamp_T.c **** *  Activates the hardware and begins the component operation. It is not necessary to 
  54:Generated_Source\PSoC4/Opamp_T.c **** *  call Enable() because the Start() API calls this function, which is the 
  55:Generated_Source\PSoC4/Opamp_T.c **** *  preferred method to begin the component operation.
  56:Generated_Source\PSoC4/Opamp_T.c **** *
  57:Generated_Source\PSoC4/Opamp_T.c **** * Parameters:
  58:Generated_Source\PSoC4/Opamp_T.c **** *  None
  59:Generated_Source\PSoC4/Opamp_T.c **** *
  60:Generated_Source\PSoC4/Opamp_T.c **** * Return:
  61:Generated_Source\PSoC4/Opamp_T.c **** *  None
  62:Generated_Source\PSoC4/Opamp_T.c **** *
  63:Generated_Source\PSoC4/Opamp_T.c **** *******************************************************************************/
  64:Generated_Source\PSoC4/Opamp_T.c **** void Opamp_T_Enable(void)
  65:Generated_Source\PSoC4/Opamp_T.c **** {
  76              		.loc 1 65 0
  77              		.cfi_startproc
  78              		@ args = 0, pretend = 0, frame = 0
  79              		@ frame_needed = 0, uses_anonymous_args = 0
  80              		@ link register save eliminated.
  66:Generated_Source\PSoC4/Opamp_T.c ****     Opamp_T_OA_RES_CTRL_REG |= Opamp_T_internalPower | \
  81              		.loc 1 66 0
  82 0000 044A     		ldr	r2, .L5
  83 0002 054B     		ldr	r3, .L5+4
  84 0004 1168     		ldr	r1, [r2]
  85 0006 1B68     		ldr	r3, [r3]
  67:Generated_Source\PSoC4/Opamp_T.c ****                                         Opamp_T_OA_PUMP_EN;
  68:Generated_Source\PSoC4/Opamp_T.c **** }
  86              		.loc 1 68 0
  87              		@ sp needed
  66:Generated_Source\PSoC4/Opamp_T.c ****     Opamp_T_OA_RES_CTRL_REG |= Opamp_T_internalPower | \
  88              		.loc 1 66 0
  89 0008 0B43     		orrs	r3, r1
  90 000a 8021     		movs	r1, #128
  91 000c 0901     		lsls	r1, r1, #4
  92 000e 0B43     		orrs	r3, r1
  93 0010 1360     		str	r3, [r2]
  94              		.loc 1 68 0
  95 0012 7047     		bx	lr
  96              	.L6:
  97              		.align	2
ARM GAS  C:\Users\VIDEOH~1\AppData\Local\Temp\cc0uiU0o.s 			page 4


  98              	.L5:
  99 0014 08001040 		.word	1074790408
 100 0018 00000000 		.word	.LANCHOR0
 101              		.cfi_endproc
 102              	.LFE1:
 103              		.size	Opamp_T_Enable, .-Opamp_T_Enable
 104              		.section	.text.Opamp_T_Start,"ax",%progbits
 105              		.align	1
 106              		.global	Opamp_T_Start
 107              		.code	16
 108              		.thumb_func
 109              		.type	Opamp_T_Start, %function
 110              	Opamp_T_Start:
 111              	.LFB2:
  69:Generated_Source\PSoC4/Opamp_T.c **** 
  70:Generated_Source\PSoC4/Opamp_T.c **** 
  71:Generated_Source\PSoC4/Opamp_T.c **** /*******************************************************************************
  72:Generated_Source\PSoC4/Opamp_T.c **** * Function Name: Opamp_T_Start
  73:Generated_Source\PSoC4/Opamp_T.c **** ********************************************************************************
  74:Generated_Source\PSoC4/Opamp_T.c **** *
  75:Generated_Source\PSoC4/Opamp_T.c **** * Summary:
  76:Generated_Source\PSoC4/Opamp_T.c **** *  Performs all of the required initialization for the component and enables power 
  77:Generated_Source\PSoC4/Opamp_T.c **** *  to the block. The first time the routine is executed, the Power level, Mode, 
  78:Generated_Source\PSoC4/Opamp_T.c **** *  and Output mode are set. When called to restart the Opamp following a Stop() call, 
  79:Generated_Source\PSoC4/Opamp_T.c **** *  the current component parameter settings are retained.
  80:Generated_Source\PSoC4/Opamp_T.c **** *
  81:Generated_Source\PSoC4/Opamp_T.c **** * Parameters:
  82:Generated_Source\PSoC4/Opamp_T.c **** *  None
  83:Generated_Source\PSoC4/Opamp_T.c **** *
  84:Generated_Source\PSoC4/Opamp_T.c **** * Return:
  85:Generated_Source\PSoC4/Opamp_T.c **** *  None
  86:Generated_Source\PSoC4/Opamp_T.c **** *
  87:Generated_Source\PSoC4/Opamp_T.c **** * Global variables:
  88:Generated_Source\PSoC4/Opamp_T.c **** *  Opamp_T_initVar: Used to check the initial configuration, modified
  89:Generated_Source\PSoC4/Opamp_T.c **** *  when this function is called for the first time.
  90:Generated_Source\PSoC4/Opamp_T.c **** *
  91:Generated_Source\PSoC4/Opamp_T.c **** *******************************************************************************/
  92:Generated_Source\PSoC4/Opamp_T.c **** void Opamp_T_Start(void)
  93:Generated_Source\PSoC4/Opamp_T.c **** {
 112              		.loc 1 93 0
 113              		.cfi_startproc
 114              		@ args = 0, pretend = 0, frame = 0
 115              		@ frame_needed = 0, uses_anonymous_args = 0
 116 0000 10B5     		push	{r4, lr}
 117              		.cfi_def_cfa_offset 8
 118              		.cfi_offset 4, -8
 119              		.cfi_offset 14, -4
  94:Generated_Source\PSoC4/Opamp_T.c ****     if( 0u == Opamp_T_initVar)
 120              		.loc 1 94 0
 121 0002 054C     		ldr	r4, .L10
 122 0004 2379     		ldrb	r3, [r4, #4]
 123 0006 002B     		cmp	r3, #0
 124 0008 03D1     		bne	.L8
  95:Generated_Source\PSoC4/Opamp_T.c ****     {
  96:Generated_Source\PSoC4/Opamp_T.c ****         Opamp_T_Init();
 125              		.loc 1 96 0
 126 000a FFF7FEFF 		bl	Opamp_T_Init
ARM GAS  C:\Users\VIDEOH~1\AppData\Local\Temp\cc0uiU0o.s 			page 5


 127              	.LVL0:
  97:Generated_Source\PSoC4/Opamp_T.c ****         Opamp_T_initVar = 1u;
 128              		.loc 1 97 0
 129 000e 0123     		movs	r3, #1
 130 0010 2371     		strb	r3, [r4, #4]
 131              	.L8:
  98:Generated_Source\PSoC4/Opamp_T.c ****     }
  99:Generated_Source\PSoC4/Opamp_T.c ****     Opamp_T_Enable();
 132              		.loc 1 99 0
 133 0012 FFF7FEFF 		bl	Opamp_T_Enable
 134              	.LVL1:
 100:Generated_Source\PSoC4/Opamp_T.c **** }
 135              		.loc 1 100 0
 136              		@ sp needed
 137 0016 10BD     		pop	{r4, pc}
 138              	.L11:
 139              		.align	2
 140              	.L10:
 141 0018 00000000 		.word	.LANCHOR0
 142              		.cfi_endproc
 143              	.LFE2:
 144              		.size	Opamp_T_Start, .-Opamp_T_Start
 145              		.section	.text.Opamp_T_Stop,"ax",%progbits
 146              		.align	1
 147              		.global	Opamp_T_Stop
 148              		.code	16
 149              		.thumb_func
 150              		.type	Opamp_T_Stop, %function
 151              	Opamp_T_Stop:
 152              	.LFB3:
 101:Generated_Source\PSoC4/Opamp_T.c **** 
 102:Generated_Source\PSoC4/Opamp_T.c **** 
 103:Generated_Source\PSoC4/Opamp_T.c **** /*******************************************************************************
 104:Generated_Source\PSoC4/Opamp_T.c **** * Function Name: Opamp_T_Stop
 105:Generated_Source\PSoC4/Opamp_T.c **** ********************************************************************************
 106:Generated_Source\PSoC4/Opamp_T.c **** *
 107:Generated_Source\PSoC4/Opamp_T.c **** * Summary:
 108:Generated_Source\PSoC4/Opamp_T.c **** *  Turn off the Opamp block.
 109:Generated_Source\PSoC4/Opamp_T.c **** *
 110:Generated_Source\PSoC4/Opamp_T.c **** * Parameters:
 111:Generated_Source\PSoC4/Opamp_T.c **** *  None
 112:Generated_Source\PSoC4/Opamp_T.c **** *
 113:Generated_Source\PSoC4/Opamp_T.c **** * Return:
 114:Generated_Source\PSoC4/Opamp_T.c **** *  None
 115:Generated_Source\PSoC4/Opamp_T.c **** *
 116:Generated_Source\PSoC4/Opamp_T.c **** *******************************************************************************/
 117:Generated_Source\PSoC4/Opamp_T.c **** void Opamp_T_Stop(void)
 118:Generated_Source\PSoC4/Opamp_T.c **** {
 153              		.loc 1 118 0
 154              		.cfi_startproc
 155              		@ args = 0, pretend = 0, frame = 0
 156              		@ frame_needed = 0, uses_anonymous_args = 0
 157              		@ link register save eliminated.
 119:Generated_Source\PSoC4/Opamp_T.c ****     Opamp_T_OA_RES_CTRL_REG &= ((uint32)~(Opamp_T_OA_PWR_MODE_MASK | \
 158              		.loc 1 119 0
 159 0000 024A     		ldr	r2, .L13
 160 0002 034B     		ldr	r3, .L13+4
ARM GAS  C:\Users\VIDEOH~1\AppData\Local\Temp\cc0uiU0o.s 			page 6


 161 0004 1168     		ldr	r1, [r2]
 120:Generated_Source\PSoC4/Opamp_T.c ****                                                    Opamp_T_OA_PUMP_EN));
 121:Generated_Source\PSoC4/Opamp_T.c **** }
 162              		.loc 1 121 0
 163              		@ sp needed
 119:Generated_Source\PSoC4/Opamp_T.c ****     Opamp_T_OA_RES_CTRL_REG &= ((uint32)~(Opamp_T_OA_PWR_MODE_MASK | \
 164              		.loc 1 119 0
 165 0006 0B40     		ands	r3, r1
 166 0008 1360     		str	r3, [r2]
 167              		.loc 1 121 0
 168 000a 7047     		bx	lr
 169              	.L14:
 170              		.align	2
 171              	.L13:
 172 000c 08001040 		.word	1074790408
 173 0010 FCF7FFFF 		.word	-2052
 174              		.cfi_endproc
 175              	.LFE3:
 176              		.size	Opamp_T_Stop, .-Opamp_T_Stop
 177              		.section	.text.Opamp_T_SetPower,"ax",%progbits
 178              		.align	1
 179              		.global	Opamp_T_SetPower
 180              		.code	16
 181              		.thumb_func
 182              		.type	Opamp_T_SetPower, %function
 183              	Opamp_T_SetPower:
 184              	.LFB4:
 122:Generated_Source\PSoC4/Opamp_T.c **** 
 123:Generated_Source\PSoC4/Opamp_T.c **** 
 124:Generated_Source\PSoC4/Opamp_T.c **** /*******************************************************************************
 125:Generated_Source\PSoC4/Opamp_T.c **** * Function Name: Opamp_T_SetPower
 126:Generated_Source\PSoC4/Opamp_T.c **** ********************************************************************************
 127:Generated_Source\PSoC4/Opamp_T.c **** *
 128:Generated_Source\PSoC4/Opamp_T.c **** * Summary:
 129:Generated_Source\PSoC4/Opamp_T.c **** *  Sets the Opamp to one of the three power levels.
 130:Generated_Source\PSoC4/Opamp_T.c **** *
 131:Generated_Source\PSoC4/Opamp_T.c **** * Parameters:
 132:Generated_Source\PSoC4/Opamp_T.c **** *  power: power levels.
 133:Generated_Source\PSoC4/Opamp_T.c **** *   Opamp_T_LOW_POWER - Lowest active power
 134:Generated_Source\PSoC4/Opamp_T.c **** *   Opamp_T_MED_POWER - Medium power
 135:Generated_Source\PSoC4/Opamp_T.c **** *   Opamp_T_HIGH_POWER - Highest active power
 136:Generated_Source\PSoC4/Opamp_T.c **** *
 137:Generated_Source\PSoC4/Opamp_T.c **** * Return:
 138:Generated_Source\PSoC4/Opamp_T.c **** *  None
 139:Generated_Source\PSoC4/Opamp_T.c **** *
 140:Generated_Source\PSoC4/Opamp_T.c **** **********************************************************************************/
 141:Generated_Source\PSoC4/Opamp_T.c **** void Opamp_T_SetPower(uint32 power)
 142:Generated_Source\PSoC4/Opamp_T.c **** {
 185              		.loc 1 142 0
 186              		.cfi_startproc
 187              		@ args = 0, pretend = 0, frame = 0
 188              		@ frame_needed = 0, uses_anonymous_args = 0
 189              		@ link register save eliminated.
 190              	.LVL2:
 143:Generated_Source\PSoC4/Opamp_T.c ****     uint32 tmp;
 144:Generated_Source\PSoC4/Opamp_T.c ****     
 145:Generated_Source\PSoC4/Opamp_T.c ****     Opamp_T_internalPower = Opamp_T_GET_OA_PWR_MODE(power);
ARM GAS  C:\Users\VIDEOH~1\AppData\Local\Temp\cc0uiU0o.s 			page 7


 191              		.loc 1 145 0
 192 0000 0321     		movs	r1, #3
 193 0002 044B     		ldr	r3, .L16
 194 0004 0840     		ands	r0, r1
 195              	.LVL3:
 146:Generated_Source\PSoC4/Opamp_T.c ****     tmp = Opamp_T_OA_RES_CTRL_REG & \
 196              		.loc 1 146 0
 197 0006 044A     		ldr	r2, .L16+4
 145:Generated_Source\PSoC4/Opamp_T.c ****     tmp = Opamp_T_OA_RES_CTRL_REG & \
 198              		.loc 1 145 0
 199 0008 1860     		str	r0, [r3]
 200              		.loc 1 146 0
 201 000a 1368     		ldr	r3, [r2]
 202              	.LVL4:
 147:Generated_Source\PSoC4/Opamp_T.c ****            (uint32)~Opamp_T_OA_PWR_MODE_MASK;
 148:Generated_Source\PSoC4/Opamp_T.c ****     Opamp_T_OA_RES_CTRL_REG = tmp | Opamp_T_internalPower;
 149:Generated_Source\PSoC4/Opamp_T.c **** }
 203              		.loc 1 149 0
 204              		@ sp needed
 148:Generated_Source\PSoC4/Opamp_T.c **** }
 205              		.loc 1 148 0
 206 000c 8B43     		bics	r3, r1
 207              	.LVL5:
 208 000e 1843     		orrs	r0, r3
 209 0010 1060     		str	r0, [r2]
 210              		.loc 1 149 0
 211 0012 7047     		bx	lr
 212              	.L17:
 213              		.align	2
 214              	.L16:
 215 0014 00000000 		.word	.LANCHOR0
 216 0018 08001040 		.word	1074790408
 217              		.cfi_endproc
 218              	.LFE4:
 219              		.size	Opamp_T_SetPower, .-Opamp_T_SetPower
 220              		.section	.text.Opamp_T_PumpControl,"ax",%progbits
 221              		.align	1
 222              		.global	Opamp_T_PumpControl
 223              		.code	16
 224              		.thumb_func
 225              		.type	Opamp_T_PumpControl, %function
 226              	Opamp_T_PumpControl:
 227              	.LFB5:
 150:Generated_Source\PSoC4/Opamp_T.c **** 
 151:Generated_Source\PSoC4/Opamp_T.c **** 
 152:Generated_Source\PSoC4/Opamp_T.c **** /*******************************************************************************
 153:Generated_Source\PSoC4/Opamp_T.c **** * Function Name: Opamp_T_PumpControl
 154:Generated_Source\PSoC4/Opamp_T.c **** ********************************************************************************
 155:Generated_Source\PSoC4/Opamp_T.c **** *
 156:Generated_Source\PSoC4/Opamp_T.c **** * Summary:
 157:Generated_Source\PSoC4/Opamp_T.c **** *  Allows the user to turn the Opamp's boost pump on or off. By Default the Start() 
 158:Generated_Source\PSoC4/Opamp_T.c **** *  function turns on the pump. Use this API to turn it off. The boost must be 
 159:Generated_Source\PSoC4/Opamp_T.c **** *  turned on when the supply is less than 2.7 volts and off if the supply is more 
 160:Generated_Source\PSoC4/Opamp_T.c **** *  than 4 volts.
 161:Generated_Source\PSoC4/Opamp_T.c **** *
 162:Generated_Source\PSoC4/Opamp_T.c **** * Parameters:
 163:Generated_Source\PSoC4/Opamp_T.c **** *  onOff: Control the pump.
ARM GAS  C:\Users\VIDEOH~1\AppData\Local\Temp\cc0uiU0o.s 			page 8


 164:Generated_Source\PSoC4/Opamp_T.c **** *   Opamp_T_PUMP_OFF - Turn off the pump
 165:Generated_Source\PSoC4/Opamp_T.c **** *   Opamp_T_PUMP_ON - Turn on the pump
 166:Generated_Source\PSoC4/Opamp_T.c **** *
 167:Generated_Source\PSoC4/Opamp_T.c **** * Return:
 168:Generated_Source\PSoC4/Opamp_T.c **** *  None
 169:Generated_Source\PSoC4/Opamp_T.c **** *
 170:Generated_Source\PSoC4/Opamp_T.c **** **********************************************************************************/
 171:Generated_Source\PSoC4/Opamp_T.c **** void Opamp_T_PumpControl(uint32 onOff)
 172:Generated_Source\PSoC4/Opamp_T.c **** {
 228              		.loc 1 172 0
 229              		.cfi_startproc
 230              		@ args = 0, pretend = 0, frame = 0
 231              		@ frame_needed = 0, uses_anonymous_args = 0
 232              		@ link register save eliminated.
 233              	.LVL6:
 234 0000 064B     		ldr	r3, .L22
 173:Generated_Source\PSoC4/Opamp_T.c ****     
 174:Generated_Source\PSoC4/Opamp_T.c ****     if(0u != onOff)
 235              		.loc 1 174 0
 236 0002 0028     		cmp	r0, #0
 237 0004 04D0     		beq	.L19
 175:Generated_Source\PSoC4/Opamp_T.c ****     {
 176:Generated_Source\PSoC4/Opamp_T.c ****         Opamp_T_OA_RES_CTRL |= Opamp_T_OA_PUMP_EN;    
 238              		.loc 1 176 0
 239 0006 8021     		movs	r1, #128
 240 0008 1A68     		ldr	r2, [r3]
 241 000a 0901     		lsls	r1, r1, #4
 242 000c 0A43     		orrs	r2, r1
 243 000e 02E0     		b	.L21
 244              	.L19:
 177:Generated_Source\PSoC4/Opamp_T.c ****     }
 178:Generated_Source\PSoC4/Opamp_T.c ****     else
 179:Generated_Source\PSoC4/Opamp_T.c ****     {
 180:Generated_Source\PSoC4/Opamp_T.c ****         Opamp_T_OA_RES_CTRL &= (uint32)~Opamp_T_OA_PUMP_EN;
 245              		.loc 1 180 0
 246 0010 1968     		ldr	r1, [r3]
 247 0012 034A     		ldr	r2, .L22+4
 248 0014 0A40     		ands	r2, r1
 249              	.L21:
 250 0016 1A60     		str	r2, [r3]
 181:Generated_Source\PSoC4/Opamp_T.c ****     }
 182:Generated_Source\PSoC4/Opamp_T.c **** }
 251              		.loc 1 182 0
 252              		@ sp needed
 253 0018 7047     		bx	lr
 254              	.L23:
 255 001a C046     		.align	2
 256              	.L22:
 257 001c 08001040 		.word	1074790408
 258 0020 FFF7FFFF 		.word	-2049
 259              		.cfi_endproc
 260              	.LFE5:
 261              		.size	Opamp_T_PumpControl, .-Opamp_T_PumpControl
 262              		.global	Opamp_T_initVar
 263              		.bss
 264              		.align	2
 265              		.set	.LANCHOR0,. + 0
ARM GAS  C:\Users\VIDEOH~1\AppData\Local\Temp\cc0uiU0o.s 			page 9


 266              		.type	Opamp_T_internalPower, %object
 267              		.size	Opamp_T_internalPower, 4
 268              	Opamp_T_internalPower:
 269 0000 00000000 		.space	4
 270              		.type	Opamp_T_initVar, %object
 271              		.size	Opamp_T_initVar, 1
 272              	Opamp_T_initVar:
 273 0004 00       		.space	1
 274              		.text
 275              	.Letext0:
 276              		.file 2 "Generated_Source\\PSoC4\\cytypes.h"