ARM GAS  C:\Users\VIDEOH~1\AppData\Local\Temp\ccWkaXIB.s 			page 1


   1              		.syntax unified
   2              		.cpu cortex-m0
   3              		.fpu softvfp
   4              		.eabi_attribute 20, 1
   5              		.eabi_attribute 21, 1
   6              		.eabi_attribute 23, 3
   7              		.eabi_attribute 24, 1
   8              		.eabi_attribute 25, 1
   9              		.eabi_attribute 26, 1
  10              		.eabi_attribute 30, 4
  11              		.eabi_attribute 34, 0
  12              		.eabi_attribute 18, 4
  13              		.thumb
  14              		.syntax unified
  15              		.file	"Opamp_T_PM.c"
  16              		.text
  17              	.Ltext0:
  18              		.cfi_sections	.debug_frame
  19              		.section	.text.Opamp_T_SaveConfig,"ax",%progbits
  20              		.align	1
  21              		.global	Opamp_T_SaveConfig
  22              		.code	16
  23              		.thumb_func
  24              		.type	Opamp_T_SaveConfig, %function
  25              	Opamp_T_SaveConfig:
  26              	.LFB5:
  27              		.cfi_startproc
  28              		@ args = 0, pretend = 0, frame = 0
  29              		@ frame_needed = 0, uses_anonymous_args = 0
  30              		@ link register save eliminated.
  31              		@ sp needed
  32 0000 7047     		bx	lr
  33              		.cfi_endproc
  34              	.LFE5:
  35              		.size	Opamp_T_SaveConfig, .-Opamp_T_SaveConfig
  36              		.section	.text.Opamp_T_RestoreConfig,"ax",%progbits
  37              		.align	1
  38              		.global	Opamp_T_RestoreConfig
  39              		.code	16
  40              		.thumb_func
  41              		.type	Opamp_T_RestoreConfig, %function
  42              	Opamp_T_RestoreConfig:
  43              	.LFB1:
  44              		.file 1 "Generated_Source\\PSoC4\\Opamp_T_PM.c"
   1:Generated_Source\PSoC4/Opamp_T_PM.c **** /*******************************************************************************
   2:Generated_Source\PSoC4/Opamp_T_PM.c **** * File Name: Opamp_T_PM.c
   3:Generated_Source\PSoC4/Opamp_T_PM.c **** * Version 1.20
   4:Generated_Source\PSoC4/Opamp_T_PM.c **** *
   5:Generated_Source\PSoC4/Opamp_T_PM.c **** * Description:
   6:Generated_Source\PSoC4/Opamp_T_PM.c **** *  This file provides the power management source code to the API for the
   7:Generated_Source\PSoC4/Opamp_T_PM.c **** *  Opamp (Analog Buffer) component.
   8:Generated_Source\PSoC4/Opamp_T_PM.c **** *
   9:Generated_Source\PSoC4/Opamp_T_PM.c **** *
  10:Generated_Source\PSoC4/Opamp_T_PM.c **** ********************************************************************************
  11:Generated_Source\PSoC4/Opamp_T_PM.c **** * Copyright 2013-2015, Cypress Semiconductor Corporation.  All rights reserved.
  12:Generated_Source\PSoC4/Opamp_T_PM.c **** * You may use this file only in accordance with the license, terms, conditions,
  13:Generated_Source\PSoC4/Opamp_T_PM.c **** * disclaimers, and limitations in the end user license agreement accompanying
ARM GAS  C:\Users\VIDEOH~1\AppData\Local\Temp\ccWkaXIB.s 			page 2


  14:Generated_Source\PSoC4/Opamp_T_PM.c **** * the software package with which this file was provided.
  15:Generated_Source\PSoC4/Opamp_T_PM.c **** *******************************************************************************/
  16:Generated_Source\PSoC4/Opamp_T_PM.c **** 
  17:Generated_Source\PSoC4/Opamp_T_PM.c **** #include "Opamp_T.h"
  18:Generated_Source\PSoC4/Opamp_T_PM.c **** 
  19:Generated_Source\PSoC4/Opamp_T_PM.c **** #if(!Opamp_T_CHECK_DEEPSLEEP_SUPPORT)
  20:Generated_Source\PSoC4/Opamp_T_PM.c ****     static Opamp_T_BACKUP_STRUCT Opamp_T_backup =
  21:Generated_Source\PSoC4/Opamp_T_PM.c ****     {
  22:Generated_Source\PSoC4/Opamp_T_PM.c ****         0u, /* enableState */
  23:Generated_Source\PSoC4/Opamp_T_PM.c ****     };
  24:Generated_Source\PSoC4/Opamp_T_PM.c **** #endif /* (Opamp_T_CHECK_DEEPSLEEP_SUPPORT) */
  25:Generated_Source\PSoC4/Opamp_T_PM.c **** 
  26:Generated_Source\PSoC4/Opamp_T_PM.c **** 
  27:Generated_Source\PSoC4/Opamp_T_PM.c **** /*******************************************************************************
  28:Generated_Source\PSoC4/Opamp_T_PM.c **** * Function Name: Opamp_T_SaveConfig
  29:Generated_Source\PSoC4/Opamp_T_PM.c **** ********************************************************************************
  30:Generated_Source\PSoC4/Opamp_T_PM.c **** *
  31:Generated_Source\PSoC4/Opamp_T_PM.c **** * Summary:
  32:Generated_Source\PSoC4/Opamp_T_PM.c **** *  Empty function. Included for consistency with other components.
  33:Generated_Source\PSoC4/Opamp_T_PM.c **** *
  34:Generated_Source\PSoC4/Opamp_T_PM.c **** * Parameters:
  35:Generated_Source\PSoC4/Opamp_T_PM.c **** *  None
  36:Generated_Source\PSoC4/Opamp_T_PM.c **** *
  37:Generated_Source\PSoC4/Opamp_T_PM.c **** * Return:
  38:Generated_Source\PSoC4/Opamp_T_PM.c **** *  None
  39:Generated_Source\PSoC4/Opamp_T_PM.c **** *
  40:Generated_Source\PSoC4/Opamp_T_PM.c **** *******************************************************************************/
  41:Generated_Source\PSoC4/Opamp_T_PM.c **** void Opamp_T_SaveConfig(void)
  42:Generated_Source\PSoC4/Opamp_T_PM.c **** {
  43:Generated_Source\PSoC4/Opamp_T_PM.c **** 
  44:Generated_Source\PSoC4/Opamp_T_PM.c **** }
  45:Generated_Source\PSoC4/Opamp_T_PM.c **** 
  46:Generated_Source\PSoC4/Opamp_T_PM.c **** 
  47:Generated_Source\PSoC4/Opamp_T_PM.c **** /*******************************************************************************
  48:Generated_Source\PSoC4/Opamp_T_PM.c **** * Function Name: Opamp_T_RestoreConfig
  49:Generated_Source\PSoC4/Opamp_T_PM.c **** ********************************************************************************
  50:Generated_Source\PSoC4/Opamp_T_PM.c **** *
  51:Generated_Source\PSoC4/Opamp_T_PM.c **** * Summary:
  52:Generated_Source\PSoC4/Opamp_T_PM.c **** *  Empty function. Included for consistency with other components.
  53:Generated_Source\PSoC4/Opamp_T_PM.c **** *
  54:Generated_Source\PSoC4/Opamp_T_PM.c **** * Parameters:
  55:Generated_Source\PSoC4/Opamp_T_PM.c **** *  None
  56:Generated_Source\PSoC4/Opamp_T_PM.c **** *
  57:Generated_Source\PSoC4/Opamp_T_PM.c **** * Return:
  58:Generated_Source\PSoC4/Opamp_T_PM.c **** *  None
  59:Generated_Source\PSoC4/Opamp_T_PM.c **** *
  60:Generated_Source\PSoC4/Opamp_T_PM.c **** *******************************************************************************/
  61:Generated_Source\PSoC4/Opamp_T_PM.c **** void Opamp_T_RestoreConfig(void)
  62:Generated_Source\PSoC4/Opamp_T_PM.c **** {
  45              		.loc 1 62 0
  46              		.cfi_startproc
  47              		@ args = 0, pretend = 0, frame = 0
  48              		@ frame_needed = 0, uses_anonymous_args = 0
  49              		@ link register save eliminated.
  63:Generated_Source\PSoC4/Opamp_T_PM.c ****     
  64:Generated_Source\PSoC4/Opamp_T_PM.c **** }
  50              		.loc 1 64 0
ARM GAS  C:\Users\VIDEOH~1\AppData\Local\Temp\ccWkaXIB.s 			page 3


  51              		@ sp needed
  52 0000 7047     		bx	lr
  53              		.cfi_endproc
  54              	.LFE1:
  55              		.size	Opamp_T_RestoreConfig, .-Opamp_T_RestoreConfig
  56              		.section	.text.Opamp_T_Sleep,"ax",%progbits
  57              		.align	1
  58              		.global	Opamp_T_Sleep
  59              		.code	16
  60              		.thumb_func
  61              		.type	Opamp_T_Sleep, %function
  62              	Opamp_T_Sleep:
  63              	.LFB2:
  65:Generated_Source\PSoC4/Opamp_T_PM.c **** 
  66:Generated_Source\PSoC4/Opamp_T_PM.c **** 
  67:Generated_Source\PSoC4/Opamp_T_PM.c **** /*******************************************************************************
  68:Generated_Source\PSoC4/Opamp_T_PM.c **** * Function Name: Opamp_T_Sleep
  69:Generated_Source\PSoC4/Opamp_T_PM.c **** ********************************************************************************
  70:Generated_Source\PSoC4/Opamp_T_PM.c **** *
  71:Generated_Source\PSoC4/Opamp_T_PM.c **** * Summary:
  72:Generated_Source\PSoC4/Opamp_T_PM.c **** *  This is the preferred API to prepare the component for sleep. The Sleep() API 
  73:Generated_Source\PSoC4/Opamp_T_PM.c **** *  saves the current component state. Call the Sleep() function before calling the 
  74:Generated_Source\PSoC4/Opamp_T_PM.c **** *  CySysPmDeepSleep() or the CySysPmHibernate() functions. The "Deep sleep operation" 
  75:Generated_Source\PSoC4/Opamp_T_PM.c **** *  option has an influence on this function implementation.
  76:Generated_Source\PSoC4/Opamp_T_PM.c **** *
  77:Generated_Source\PSoC4/Opamp_T_PM.c **** * Parameters:
  78:Generated_Source\PSoC4/Opamp_T_PM.c **** *  None
  79:Generated_Source\PSoC4/Opamp_T_PM.c **** *
  80:Generated_Source\PSoC4/Opamp_T_PM.c **** * Return:
  81:Generated_Source\PSoC4/Opamp_T_PM.c **** *  None
  82:Generated_Source\PSoC4/Opamp_T_PM.c **** *
  83:Generated_Source\PSoC4/Opamp_T_PM.c **** * Global variables:
  84:Generated_Source\PSoC4/Opamp_T_PM.c **** *  Opamp_T_backup: The structure field 'enableState' is modified
  85:Generated_Source\PSoC4/Opamp_T_PM.c **** *  depending on the enable state of the block before entering the sleep mode.
  86:Generated_Source\PSoC4/Opamp_T_PM.c **** *
  87:Generated_Source\PSoC4/Opamp_T_PM.c **** *******************************************************************************/
  88:Generated_Source\PSoC4/Opamp_T_PM.c **** void Opamp_T_Sleep(void)
  89:Generated_Source\PSoC4/Opamp_T_PM.c **** {
  64              		.loc 1 89 0
  65              		.cfi_startproc
  66              		@ args = 0, pretend = 0, frame = 0
  67              		@ frame_needed = 0, uses_anonymous_args = 0
  90:Generated_Source\PSoC4/Opamp_T_PM.c **** #if(!Opamp_T_CHECK_DEEPSLEEP_SUPPORT)
  91:Generated_Source\PSoC4/Opamp_T_PM.c ****     if(Opamp_T_CHECK_PWR_MODE_OFF)
  68              		.loc 1 91 0
  69 0000 064B     		ldr	r3, .L7
  89:Generated_Source\PSoC4/Opamp_T_PM.c **** #if(!Opamp_T_CHECK_DEEPSLEEP_SUPPORT)
  70              		.loc 1 89 0
  71 0002 10B5     		push	{r4, lr}
  72              		.cfi_def_cfa_offset 8
  73              		.cfi_offset 4, -8
  74              		.cfi_offset 14, -4
  75              		.loc 1 91 0
  76 0004 1A68     		ldr	r2, [r3]
  77 0006 0323     		movs	r3, #3
  78 0008 1340     		ands	r3, r2
  79 000a 054A     		ldr	r2, .L7+4
ARM GAS  C:\Users\VIDEOH~1\AppData\Local\Temp\ccWkaXIB.s 			page 4


  80 000c 04D0     		beq	.L4
  92:Generated_Source\PSoC4/Opamp_T_PM.c ****     {
  93:Generated_Source\PSoC4/Opamp_T_PM.c ****         Opamp_T_backup.enableState = 1u;
  81              		.loc 1 93 0
  82 000e 0123     		movs	r3, #1
  83 0010 1370     		strb	r3, [r2]
  94:Generated_Source\PSoC4/Opamp_T_PM.c ****         Opamp_T_Stop();
  84              		.loc 1 94 0
  85 0012 FFF7FEFF 		bl	Opamp_T_Stop
  86              	.LVL0:
  87 0016 00E0     		b	.L3
  88              	.L4:
  95:Generated_Source\PSoC4/Opamp_T_PM.c ****     }
  96:Generated_Source\PSoC4/Opamp_T_PM.c ****     else /* The component is disabled */
  97:Generated_Source\PSoC4/Opamp_T_PM.c ****     {
  98:Generated_Source\PSoC4/Opamp_T_PM.c ****         Opamp_T_backup.enableState = 0u;
  89              		.loc 1 98 0
  90 0018 1370     		strb	r3, [r2]
  91              	.L3:
  99:Generated_Source\PSoC4/Opamp_T_PM.c ****     }
 100:Generated_Source\PSoC4/Opamp_T_PM.c **** #endif /* (Opamp_T_CHECK_DEEPSLEEP_SUPPORT) */
 101:Generated_Source\PSoC4/Opamp_T_PM.c **** }
  92              		.loc 1 101 0
  93              		@ sp needed
  94 001a 10BD     		pop	{r4, pc}
  95              	.L8:
  96              		.align	2
  97              	.L7:
  98 001c 08001040 		.word	1074790408
  99 0020 00000000 		.word	.LANCHOR0
 100              		.cfi_endproc
 101              	.LFE2:
 102              		.size	Opamp_T_Sleep, .-Opamp_T_Sleep
 103              		.section	.text.Opamp_T_Wakeup,"ax",%progbits
 104              		.align	1
 105              		.global	Opamp_T_Wakeup
 106              		.code	16
 107              		.thumb_func
 108              		.type	Opamp_T_Wakeup, %function
 109              	Opamp_T_Wakeup:
 110              	.LFB3:
 102:Generated_Source\PSoC4/Opamp_T_PM.c **** 
 103:Generated_Source\PSoC4/Opamp_T_PM.c **** 
 104:Generated_Source\PSoC4/Opamp_T_PM.c **** /*******************************************************************************
 105:Generated_Source\PSoC4/Opamp_T_PM.c **** * Function Name: Opamp_T_Wakeup
 106:Generated_Source\PSoC4/Opamp_T_PM.c **** ********************************************************************************
 107:Generated_Source\PSoC4/Opamp_T_PM.c **** *
 108:Generated_Source\PSoC4/Opamp_T_PM.c **** * Summary:
 109:Generated_Source\PSoC4/Opamp_T_PM.c **** *  This is the preferred API to restore the component to the state when Sleep() 
 110:Generated_Source\PSoC4/Opamp_T_PM.c **** *  is called. If the component has been enabled before the Sleep() function is 
 111:Generated_Source\PSoC4/Opamp_T_PM.c **** *  called, the Wakeup() function will also re-enable the component.
 112:Generated_Source\PSoC4/Opamp_T_PM.c **** *  The "Deep sleep operation" option has an influence on this function
 113:Generated_Source\PSoC4/Opamp_T_PM.c **** *  implementation.
 114:Generated_Source\PSoC4/Opamp_T_PM.c **** *
 115:Generated_Source\PSoC4/Opamp_T_PM.c **** * Parameters:
 116:Generated_Source\PSoC4/Opamp_T_PM.c **** *  None
 117:Generated_Source\PSoC4/Opamp_T_PM.c **** *
ARM GAS  C:\Users\VIDEOH~1\AppData\Local\Temp\ccWkaXIB.s 			page 5


 118:Generated_Source\PSoC4/Opamp_T_PM.c **** * Return:
 119:Generated_Source\PSoC4/Opamp_T_PM.c **** *  None
 120:Generated_Source\PSoC4/Opamp_T_PM.c **** *
 121:Generated_Source\PSoC4/Opamp_T_PM.c **** * Global variables:
 122:Generated_Source\PSoC4/Opamp_T_PM.c **** *  Opamp_T_backup: The structure field 'enableState' is used to
 123:Generated_Source\PSoC4/Opamp_T_PM.c **** *  restore the enable state of block after wakeup from sleep mode.
 124:Generated_Source\PSoC4/Opamp_T_PM.c **** *
 125:Generated_Source\PSoC4/Opamp_T_PM.c **** *******************************************************************************/
 126:Generated_Source\PSoC4/Opamp_T_PM.c **** void Opamp_T_Wakeup(void)
 127:Generated_Source\PSoC4/Opamp_T_PM.c **** {
 111              		.loc 1 127 0
 112              		.cfi_startproc
 113              		@ args = 0, pretend = 0, frame = 0
 114              		@ frame_needed = 0, uses_anonymous_args = 0
 115 0000 10B5     		push	{r4, lr}
 116              		.cfi_def_cfa_offset 8
 117              		.cfi_offset 4, -8
 118              		.cfi_offset 14, -4
 128:Generated_Source\PSoC4/Opamp_T_PM.c **** #if(!Opamp_T_CHECK_DEEPSLEEP_SUPPORT)
 129:Generated_Source\PSoC4/Opamp_T_PM.c ****     if(0u != Opamp_T_backup.enableState)
 119              		.loc 1 129 0
 120 0002 034B     		ldr	r3, .L14
 121 0004 1B78     		ldrb	r3, [r3]
 122 0006 002B     		cmp	r3, #0
 123 0008 01D0     		beq	.L9
 130:Generated_Source\PSoC4/Opamp_T_PM.c ****     {
 131:Generated_Source\PSoC4/Opamp_T_PM.c ****         /* Enable Opamp's operation */
 132:Generated_Source\PSoC4/Opamp_T_PM.c ****         Opamp_T_Enable();
 124              		.loc 1 132 0
 125 000a FFF7FEFF 		bl	Opamp_T_Enable
 126              	.LVL1:
 127              	.L9:
 133:Generated_Source\PSoC4/Opamp_T_PM.c ****     } /* Do nothing if Opamp was disabled before */
 134:Generated_Source\PSoC4/Opamp_T_PM.c **** #endif /* (Opamp_T_CHECK_DEEPSLEEP_SUPPORT) */
 135:Generated_Source\PSoC4/Opamp_T_PM.c **** }
 128              		.loc 1 135 0
 129              		@ sp needed
 130 000e 10BD     		pop	{r4, pc}
 131              	.L15:
 132              		.align	2
 133              	.L14:
 134 0010 00000000 		.word	.LANCHOR0
 135              		.cfi_endproc
 136              	.LFE3:
 137              		.size	Opamp_T_Wakeup, .-Opamp_T_Wakeup
 138              		.bss
 139              		.set	.LANCHOR0,. + 0
 140              		.type	Opamp_T_backup, %object
 141              		.size	Opamp_T_backup, 1
 142              	Opamp_T_backup:
 143 0000 00       		.space	1
 144              		.text
 145              	.Letext0:
 146              		.file 2 "Generated_Source\\PSoC4\\cytypes.h"
 147              		.file 3 "Generated_Source\\PSoC4\\Opamp_T.h"