ARM GAS  C:\Users\VIDEOH~1\AppData\Local\Temp\ccyqH2sL.s 			page 1


   1              		.syntax unified
   2              		.cpu cortex-m0
   3              		.fpu softvfp
   4              		.eabi_attribute 20, 1
   5              		.eabi_attribute 21, 1
   6              		.eabi_attribute 23, 3
   7              		.eabi_attribute 24, 1
   8              		.eabi_attribute 25, 1
   9              		.eabi_attribute 26, 1
  10              		.eabi_attribute 30, 4
  11              		.eabi_attribute 34, 0
  12              		.eabi_attribute 18, 4
  13              		.thumb
  14              		.syntax unified
  15              		.file	"Quadrature.c"
  16              		.text
  17              	.Ltext0:
  18              		.cfi_sections	.debug_frame
  19              		.section	.text.Quadrature_SetDriveMode,"ax",%progbits
  20              		.align	1
  21              		.global	Quadrature_SetDriveMode
  22              		.code	16
  23              		.thumb_func
  24              		.type	Quadrature_SetDriveMode, %function
  25              	Quadrature_SetDriveMode:
  26              	.LFB0:
  27              		.file 1 "Generated_Source\\PSoC4\\Quadrature.c"
   1:Generated_Source\PSoC4/Quadrature.c **** /*******************************************************************************
   2:Generated_Source\PSoC4/Quadrature.c **** * File Name: Quadrature.c  
   3:Generated_Source\PSoC4/Quadrature.c **** * Version 2.20
   4:Generated_Source\PSoC4/Quadrature.c **** *
   5:Generated_Source\PSoC4/Quadrature.c **** * Description:
   6:Generated_Source\PSoC4/Quadrature.c **** *  This file contains API to enable firmware control of a Pins component.
   7:Generated_Source\PSoC4/Quadrature.c **** *
   8:Generated_Source\PSoC4/Quadrature.c **** ********************************************************************************
   9:Generated_Source\PSoC4/Quadrature.c **** * Copyright 2008-2015, Cypress Semiconductor Corporation.  All rights reserved.
  10:Generated_Source\PSoC4/Quadrature.c **** * You may use this file only in accordance with the license, terms, conditions, 
  11:Generated_Source\PSoC4/Quadrature.c **** * disclaimers, and limitations in the end user license agreement accompanying 
  12:Generated_Source\PSoC4/Quadrature.c **** * the software package with which this file was provided.
  13:Generated_Source\PSoC4/Quadrature.c **** *******************************************************************************/
  14:Generated_Source\PSoC4/Quadrature.c **** 
  15:Generated_Source\PSoC4/Quadrature.c **** #include "cytypes.h"
  16:Generated_Source\PSoC4/Quadrature.c **** #include "Quadrature.h"
  17:Generated_Source\PSoC4/Quadrature.c **** 
  18:Generated_Source\PSoC4/Quadrature.c **** 
  19:Generated_Source\PSoC4/Quadrature.c **** #if defined(Quadrature__PC)
  20:Generated_Source\PSoC4/Quadrature.c ****     #define Quadrature_SetP4PinDriveMode(shift, mode)  \
  21:Generated_Source\PSoC4/Quadrature.c ****     do { \
  22:Generated_Source\PSoC4/Quadrature.c ****         Quadrature_PC =   (Quadrature_PC & \
  23:Generated_Source\PSoC4/Quadrature.c ****                                 (uint32)(~(uint32)(Quadrature_DRIVE_MODE_IND_MASK << \
  24:Generated_Source\PSoC4/Quadrature.c ****                                 (Quadrature_DRIVE_MODE_BITS * (shift))))) | \
  25:Generated_Source\PSoC4/Quadrature.c ****                                 (uint32)((uint32)(mode) << \
  26:Generated_Source\PSoC4/Quadrature.c ****                                 (Quadrature_DRIVE_MODE_BITS * (shift))); \
  27:Generated_Source\PSoC4/Quadrature.c ****     } while (0)
  28:Generated_Source\PSoC4/Quadrature.c **** #else
  29:Generated_Source\PSoC4/Quadrature.c ****     #if (CY_PSOC4_4200L)
  30:Generated_Source\PSoC4/Quadrature.c ****         #define Quadrature_SetP4PinDriveMode(shift, mode)  \
ARM GAS  C:\Users\VIDEOH~1\AppData\Local\Temp\ccyqH2sL.s 			page 2


  31:Generated_Source\PSoC4/Quadrature.c ****         do { \
  32:Generated_Source\PSoC4/Quadrature.c ****             Quadrature_USBIO_CTRL_REG = (Quadrature_USBIO_CTRL_REG & \
  33:Generated_Source\PSoC4/Quadrature.c ****                                     (uint32)(~(uint32)(Quadrature_DRIVE_MODE_IND_MASK << \
  34:Generated_Source\PSoC4/Quadrature.c ****                                     (Quadrature_DRIVE_MODE_BITS * (shift))))) | \
  35:Generated_Source\PSoC4/Quadrature.c ****                                     (uint32)((uint32)(mode) << \
  36:Generated_Source\PSoC4/Quadrature.c ****                                     (Quadrature_DRIVE_MODE_BITS * (shift))); \
  37:Generated_Source\PSoC4/Quadrature.c ****         } while (0)
  38:Generated_Source\PSoC4/Quadrature.c ****     #endif
  39:Generated_Source\PSoC4/Quadrature.c **** #endif
  40:Generated_Source\PSoC4/Quadrature.c ****   
  41:Generated_Source\PSoC4/Quadrature.c **** 
  42:Generated_Source\PSoC4/Quadrature.c **** #if defined(Quadrature__PC) || (CY_PSOC4_4200L) 
  43:Generated_Source\PSoC4/Quadrature.c ****     /*******************************************************************************
  44:Generated_Source\PSoC4/Quadrature.c ****     * Function Name: Quadrature_SetDriveMode
  45:Generated_Source\PSoC4/Quadrature.c ****     ****************************************************************************//**
  46:Generated_Source\PSoC4/Quadrature.c ****     *
  47:Generated_Source\PSoC4/Quadrature.c ****     * \brief Sets the drive mode for each of the Pins component's pins.
  48:Generated_Source\PSoC4/Quadrature.c ****     * 
  49:Generated_Source\PSoC4/Quadrature.c ****     * <b>Note</b> This affects all pins in the Pins component instance. Use the
  50:Generated_Source\PSoC4/Quadrature.c ****     * Per-Pin APIs if you wish to control individual pin's drive modes.
  51:Generated_Source\PSoC4/Quadrature.c ****     *
  52:Generated_Source\PSoC4/Quadrature.c ****     * <b>Note</b> USBIOs have limited drive functionality. Refer to the Drive Mode
  53:Generated_Source\PSoC4/Quadrature.c ****     * parameter for more information.
  54:Generated_Source\PSoC4/Quadrature.c ****     *
  55:Generated_Source\PSoC4/Quadrature.c ****     * \param mode
  56:Generated_Source\PSoC4/Quadrature.c ****     *  Mode for the selected signals. Valid options are documented in 
  57:Generated_Source\PSoC4/Quadrature.c ****     *  \ref driveMode.
  58:Generated_Source\PSoC4/Quadrature.c ****     *
  59:Generated_Source\PSoC4/Quadrature.c ****     * \return
  60:Generated_Source\PSoC4/Quadrature.c ****     *  None
  61:Generated_Source\PSoC4/Quadrature.c ****     *
  62:Generated_Source\PSoC4/Quadrature.c ****     * \sideeffect
  63:Generated_Source\PSoC4/Quadrature.c ****     *  If you use read-modify-write operations that are not atomic, the ISR can
  64:Generated_Source\PSoC4/Quadrature.c ****     *  cause corruption of this function. An ISR that interrupts this function 
  65:Generated_Source\PSoC4/Quadrature.c ****     *  and performs writes to the Pins component Drive Mode registers can cause 
  66:Generated_Source\PSoC4/Quadrature.c ****     *  corrupted port data. To avoid this issue, you should either use the Per-Pin
  67:Generated_Source\PSoC4/Quadrature.c ****     *  APIs (primary method) or disable interrupts around this function.
  68:Generated_Source\PSoC4/Quadrature.c ****     *
  69:Generated_Source\PSoC4/Quadrature.c ****     * \funcusage
  70:Generated_Source\PSoC4/Quadrature.c ****     *  \snippet Quadrature_SUT.c usage_Quadrature_SetDriveMode
  71:Generated_Source\PSoC4/Quadrature.c ****     *******************************************************************************/
  72:Generated_Source\PSoC4/Quadrature.c ****     void Quadrature_SetDriveMode(uint8 mode)
  73:Generated_Source\PSoC4/Quadrature.c ****     {
  28              		.loc 1 73 0
  29              		.cfi_startproc
  30              		@ args = 0, pretend = 0, frame = 0
  31              		@ frame_needed = 0, uses_anonymous_args = 0
  32              		@ link register save eliminated.
  33              	.LVL0:
  74:Generated_Source\PSoC4/Quadrature.c **** 		Quadrature_SetP4PinDriveMode(Quadrature__0__SHIFT, mode);
  34              		.loc 1 74 0
  35 0000 0721     		movs	r1, #7
  36 0002 064A     		ldr	r2, .L2
  75:Generated_Source\PSoC4/Quadrature.c **** 		Quadrature_SetP4PinDriveMode(Quadrature__1__SHIFT, mode);
  76:Generated_Source\PSoC4/Quadrature.c ****     }
  37              		.loc 1 76 0
  38              		@ sp needed
ARM GAS  C:\Users\VIDEOH~1\AppData\Local\Temp\ccyqH2sL.s 			page 3


  74:Generated_Source\PSoC4/Quadrature.c **** 		Quadrature_SetP4PinDriveMode(Quadrature__0__SHIFT, mode);
  39              		.loc 1 74 0
  40 0004 1368     		ldr	r3, [r2]
  41 0006 8B43     		bics	r3, r1
  42 0008 0343     		orrs	r3, r0
  43 000a 1360     		str	r3, [r2]
  75:Generated_Source\PSoC4/Quadrature.c **** 		Quadrature_SetP4PinDriveMode(Quadrature__1__SHIFT, mode);
  44              		.loc 1 75 0
  45 000c 1368     		ldr	r3, [r2]
  46 000e 3131     		adds	r1, r1, #49
  47 0010 8B43     		bics	r3, r1
  48 0012 C000     		lsls	r0, r0, #3
  49              	.LVL1:
  50 0014 1843     		orrs	r0, r3
  51 0016 1060     		str	r0, [r2]
  52              		.loc 1 76 0
  53 0018 7047     		bx	lr
  54              	.L3:
  55 001a C046     		.align	2
  56              	.L2:
  57 001c 08000440 		.word	1074003976
  58              		.cfi_endproc
  59              	.LFE0:
  60              		.size	Quadrature_SetDriveMode, .-Quadrature_SetDriveMode
  61              		.section	.text.Quadrature_Write,"ax",%progbits
  62              		.align	1
  63              		.global	Quadrature_Write
  64              		.code	16
  65              		.thumb_func
  66              		.type	Quadrature_Write, %function
  67              	Quadrature_Write:
  68              	.LFB1:
  77:Generated_Source\PSoC4/Quadrature.c **** #endif
  78:Generated_Source\PSoC4/Quadrature.c **** 
  79:Generated_Source\PSoC4/Quadrature.c **** 
  80:Generated_Source\PSoC4/Quadrature.c **** /*******************************************************************************
  81:Generated_Source\PSoC4/Quadrature.c **** * Function Name: Quadrature_Write
  82:Generated_Source\PSoC4/Quadrature.c **** ****************************************************************************//**
  83:Generated_Source\PSoC4/Quadrature.c **** *
  84:Generated_Source\PSoC4/Quadrature.c **** * \brief Writes the value to the physical port (data output register), masking
  85:Generated_Source\PSoC4/Quadrature.c **** *  and shifting the bits appropriately. 
  86:Generated_Source\PSoC4/Quadrature.c **** *
  87:Generated_Source\PSoC4/Quadrature.c **** * The data output register controls the signal applied to the physical pin in 
  88:Generated_Source\PSoC4/Quadrature.c **** * conjunction with the drive mode parameter. This function avoids changing 
  89:Generated_Source\PSoC4/Quadrature.c **** * other bits in the port by using the appropriate method (read-modify-write or
  90:Generated_Source\PSoC4/Quadrature.c **** * bit banding).
  91:Generated_Source\PSoC4/Quadrature.c **** *
  92:Generated_Source\PSoC4/Quadrature.c **** * <b>Note</b> This function should not be used on a hardware digital output pin 
  93:Generated_Source\PSoC4/Quadrature.c **** * as it is driven by the hardware signal attached to it.
  94:Generated_Source\PSoC4/Quadrature.c **** *
  95:Generated_Source\PSoC4/Quadrature.c **** * \param value
  96:Generated_Source\PSoC4/Quadrature.c **** *  Value to write to the component instance.
  97:Generated_Source\PSoC4/Quadrature.c **** *
  98:Generated_Source\PSoC4/Quadrature.c **** * \return 
  99:Generated_Source\PSoC4/Quadrature.c **** *  None 
 100:Generated_Source\PSoC4/Quadrature.c **** *
 101:Generated_Source\PSoC4/Quadrature.c **** * \sideeffect
ARM GAS  C:\Users\VIDEOH~1\AppData\Local\Temp\ccyqH2sL.s 			page 4


 102:Generated_Source\PSoC4/Quadrature.c **** *  If you use read-modify-write operations that are not atomic; the Interrupt 
 103:Generated_Source\PSoC4/Quadrature.c **** *  Service Routines (ISR) can cause corruption of this function. An ISR that 
 104:Generated_Source\PSoC4/Quadrature.c **** *  interrupts this function and performs writes to the Pins component data 
 105:Generated_Source\PSoC4/Quadrature.c **** *  register can cause corrupted port data. To avoid this issue, you should 
 106:Generated_Source\PSoC4/Quadrature.c **** *  either use the Per-Pin APIs (primary method) or disable interrupts around 
 107:Generated_Source\PSoC4/Quadrature.c **** *  this function.
 108:Generated_Source\PSoC4/Quadrature.c **** *
 109:Generated_Source\PSoC4/Quadrature.c **** * \funcusage
 110:Generated_Source\PSoC4/Quadrature.c **** *  \snippet Quadrature_SUT.c usage_Quadrature_Write
 111:Generated_Source\PSoC4/Quadrature.c **** *******************************************************************************/
 112:Generated_Source\PSoC4/Quadrature.c **** void Quadrature_Write(uint8 value)
 113:Generated_Source\PSoC4/Quadrature.c **** {
  69              		.loc 1 113 0
  70              		.cfi_startproc
  71              		@ args = 0, pretend = 0, frame = 0
  72              		@ frame_needed = 0, uses_anonymous_args = 0
  73              		@ link register save eliminated.
  74              	.LVL2:
 114:Generated_Source\PSoC4/Quadrature.c ****     uint8 drVal = (uint8)(Quadrature_DR & (uint8)(~Quadrature_MASK));
  75              		.loc 1 114 0
  76 0000 0323     		movs	r3, #3
  77 0002 0449     		ldr	r1, .L5
 115:Generated_Source\PSoC4/Quadrature.c ****     drVal = (drVal | ((uint8)(value << Quadrature_SHIFT) & Quadrature_MASK));
 116:Generated_Source\PSoC4/Quadrature.c ****     Quadrature_DR = (uint32)drVal;
 117:Generated_Source\PSoC4/Quadrature.c **** }
  78              		.loc 1 117 0
  79              		@ sp needed
 114:Generated_Source\PSoC4/Quadrature.c ****     uint8 drVal = (uint8)(Quadrature_DR & (uint8)(~Quadrature_MASK));
  80              		.loc 1 114 0
  81 0004 0A68     		ldr	r2, [r1]
  82 0006 9A43     		bics	r2, r3
  83 0008 D2B2     		uxtb	r2, r2
  84              	.LVL3:
 116:Generated_Source\PSoC4/Quadrature.c **** }
  85              		.loc 1 116 0
  86 000a 0340     		ands	r3, r0
  87 000c 1343     		orrs	r3, r2
  88 000e 0B60     		str	r3, [r1]
  89              		.loc 1 117 0
  90 0010 7047     		bx	lr
  91              	.L6:
  92 0012 C046     		.align	2
  93              	.L5:
  94 0014 00000440 		.word	1074003968
  95              		.cfi_endproc
  96              	.LFE1:
  97              		.size	Quadrature_Write, .-Quadrature_Write
  98              		.section	.text.Quadrature_Read,"ax",%progbits
  99              		.align	1
 100              		.global	Quadrature_Read
 101              		.code	16
 102              		.thumb_func
 103              		.type	Quadrature_Read, %function
 104              	Quadrature_Read:
 105              	.LFB2:
 118:Generated_Source\PSoC4/Quadrature.c **** 
 119:Generated_Source\PSoC4/Quadrature.c **** 
ARM GAS  C:\Users\VIDEOH~1\AppData\Local\Temp\ccyqH2sL.s 			page 5


 120:Generated_Source\PSoC4/Quadrature.c **** /*******************************************************************************
 121:Generated_Source\PSoC4/Quadrature.c **** * Function Name: Quadrature_Read
 122:Generated_Source\PSoC4/Quadrature.c **** ****************************************************************************//**
 123:Generated_Source\PSoC4/Quadrature.c **** *
 124:Generated_Source\PSoC4/Quadrature.c **** * \brief Reads the associated physical port (pin status register) and masks 
 125:Generated_Source\PSoC4/Quadrature.c **** *  the required bits according to the width and bit position of the component
 126:Generated_Source\PSoC4/Quadrature.c **** *  instance. 
 127:Generated_Source\PSoC4/Quadrature.c **** *
 128:Generated_Source\PSoC4/Quadrature.c **** * The pin's status register returns the current logic level present on the 
 129:Generated_Source\PSoC4/Quadrature.c **** * physical pin.
 130:Generated_Source\PSoC4/Quadrature.c **** *
 131:Generated_Source\PSoC4/Quadrature.c **** * \return 
 132:Generated_Source\PSoC4/Quadrature.c **** *  The current value for the pins in the component as a right justified number.
 133:Generated_Source\PSoC4/Quadrature.c **** *
 134:Generated_Source\PSoC4/Quadrature.c **** * \funcusage
 135:Generated_Source\PSoC4/Quadrature.c **** *  \snippet Quadrature_SUT.c usage_Quadrature_Read  
 136:Generated_Source\PSoC4/Quadrature.c **** *******************************************************************************/
 137:Generated_Source\PSoC4/Quadrature.c **** uint8 Quadrature_Read(void)
 138:Generated_Source\PSoC4/Quadrature.c **** {
 106              		.loc 1 138 0
 107              		.cfi_startproc
 108              		@ args = 0, pretend = 0, frame = 0
 109              		@ frame_needed = 0, uses_anonymous_args = 0
 110              		@ link register save eliminated.
 139:Generated_Source\PSoC4/Quadrature.c ****     return (uint8)((Quadrature_PS & Quadrature_MASK) >> Quadrature_SHIFT);
 111              		.loc 1 139 0
 112 0000 024B     		ldr	r3, .L8
 140:Generated_Source\PSoC4/Quadrature.c **** }
 113              		.loc 1 140 0
 114              		@ sp needed
 139:Generated_Source\PSoC4/Quadrature.c ****     return (uint8)((Quadrature_PS & Quadrature_MASK) >> Quadrature_SHIFT);
 115              		.loc 1 139 0
 116 0002 1868     		ldr	r0, [r3]
 117 0004 0323     		movs	r3, #3
 118 0006 1840     		ands	r0, r3
 119              		.loc 1 140 0
 120 0008 7047     		bx	lr
 121              	.L9:
 122 000a C046     		.align	2
 123              	.L8:
 124 000c 04000440 		.word	1074003972
 125              		.cfi_endproc
 126              	.LFE2:
 127              		.size	Quadrature_Read, .-Quadrature_Read
 128              		.section	.text.Quadrature_ReadDataReg,"ax",%progbits
 129              		.align	1
 130              		.global	Quadrature_ReadDataReg
 131              		.code	16
 132              		.thumb_func
 133              		.type	Quadrature_ReadDataReg, %function
 134              	Quadrature_ReadDataReg:
 135              	.LFB3:
 141:Generated_Source\PSoC4/Quadrature.c **** 
 142:Generated_Source\PSoC4/Quadrature.c **** 
 143:Generated_Source\PSoC4/Quadrature.c **** /*******************************************************************************
 144:Generated_Source\PSoC4/Quadrature.c **** * Function Name: Quadrature_ReadDataReg
 145:Generated_Source\PSoC4/Quadrature.c **** ****************************************************************************//**
ARM GAS  C:\Users\VIDEOH~1\AppData\Local\Temp\ccyqH2sL.s 			page 6


 146:Generated_Source\PSoC4/Quadrature.c **** *
 147:Generated_Source\PSoC4/Quadrature.c **** * \brief Reads the associated physical port's data output register and masks 
 148:Generated_Source\PSoC4/Quadrature.c **** *  the correct bits according to the width and bit position of the component 
 149:Generated_Source\PSoC4/Quadrature.c **** *  instance. 
 150:Generated_Source\PSoC4/Quadrature.c **** *
 151:Generated_Source\PSoC4/Quadrature.c **** * The data output register controls the signal applied to the physical pin in 
 152:Generated_Source\PSoC4/Quadrature.c **** * conjunction with the drive mode parameter. This is not the same as the 
 153:Generated_Source\PSoC4/Quadrature.c **** * preferred Quadrature_Read() API because the 
 154:Generated_Source\PSoC4/Quadrature.c **** * Quadrature_ReadDataReg() reads the data register instead of the status 
 155:Generated_Source\PSoC4/Quadrature.c **** * register. For output pins this is a useful function to determine the value 
 156:Generated_Source\PSoC4/Quadrature.c **** * just written to the pin.
 157:Generated_Source\PSoC4/Quadrature.c **** *
 158:Generated_Source\PSoC4/Quadrature.c **** * \return 
 159:Generated_Source\PSoC4/Quadrature.c **** *  The current value of the data register masked and shifted into a right 
 160:Generated_Source\PSoC4/Quadrature.c **** *  justified number for the component instance.
 161:Generated_Source\PSoC4/Quadrature.c **** *
 162:Generated_Source\PSoC4/Quadrature.c **** * \funcusage
 163:Generated_Source\PSoC4/Quadrature.c **** *  \snippet Quadrature_SUT.c usage_Quadrature_ReadDataReg 
 164:Generated_Source\PSoC4/Quadrature.c **** *******************************************************************************/
 165:Generated_Source\PSoC4/Quadrature.c **** uint8 Quadrature_ReadDataReg(void)
 166:Generated_Source\PSoC4/Quadrature.c **** {
 136              		.loc 1 166 0
 137              		.cfi_startproc
 138              		@ args = 0, pretend = 0, frame = 0
 139              		@ frame_needed = 0, uses_anonymous_args = 0
 140              		@ link register save eliminated.
 167:Generated_Source\PSoC4/Quadrature.c ****     return (uint8)((Quadrature_DR & Quadrature_MASK) >> Quadrature_SHIFT);
 141              		.loc 1 167 0
 142 0000 024B     		ldr	r3, .L11
 168:Generated_Source\PSoC4/Quadrature.c **** }
 143              		.loc 1 168 0
 144              		@ sp needed
 167:Generated_Source\PSoC4/Quadrature.c ****     return (uint8)((Quadrature_DR & Quadrature_MASK) >> Quadrature_SHIFT);
 145              		.loc 1 167 0
 146 0002 1868     		ldr	r0, [r3]
 147 0004 0323     		movs	r3, #3
 148 0006 1840     		ands	r0, r3
 149              		.loc 1 168 0
 150 0008 7047     		bx	lr
 151              	.L12:
 152 000a C046     		.align	2
 153              	.L11:
 154 000c 00000440 		.word	1074003968
 155              		.cfi_endproc
 156              	.LFE3:
 157              		.size	Quadrature_ReadDataReg, .-Quadrature_ReadDataReg
 158              		.section	.text.Quadrature_SetInterruptMode,"ax",%progbits
 159              		.align	1
 160              		.global	Quadrature_SetInterruptMode
 161              		.code	16
 162              		.thumb_func
 163              		.type	Quadrature_SetInterruptMode, %function
 164              	Quadrature_SetInterruptMode:
 165              	.LFB4:
 169:Generated_Source\PSoC4/Quadrature.c **** 
 170:Generated_Source\PSoC4/Quadrature.c **** 
 171:Generated_Source\PSoC4/Quadrature.c **** /*******************************************************************************
ARM GAS  C:\Users\VIDEOH~1\AppData\Local\Temp\ccyqH2sL.s 			page 7


 172:Generated_Source\PSoC4/Quadrature.c **** * Function Name: Quadrature_SetInterruptMode
 173:Generated_Source\PSoC4/Quadrature.c **** ****************************************************************************//**
 174:Generated_Source\PSoC4/Quadrature.c **** *
 175:Generated_Source\PSoC4/Quadrature.c **** * \brief Configures the interrupt mode for each of the Pins component's
 176:Generated_Source\PSoC4/Quadrature.c **** *  pins. Alternatively you may set the interrupt mode for all the pins
 177:Generated_Source\PSoC4/Quadrature.c **** *  specified in the Pins component.
 178:Generated_Source\PSoC4/Quadrature.c **** *
 179:Generated_Source\PSoC4/Quadrature.c **** *  <b>Note</b> The interrupt is port-wide and therefore any enabled pin
 180:Generated_Source\PSoC4/Quadrature.c **** *  interrupt may trigger it.
 181:Generated_Source\PSoC4/Quadrature.c **** *
 182:Generated_Source\PSoC4/Quadrature.c **** * \param position
 183:Generated_Source\PSoC4/Quadrature.c **** *  The pin position as listed in the Pins component. You may OR these to be 
 184:Generated_Source\PSoC4/Quadrature.c **** *  able to configure the interrupt mode of multiple pins within a Pins 
 185:Generated_Source\PSoC4/Quadrature.c **** *  component. Or you may use Quadrature_INTR_ALL to configure the
 186:Generated_Source\PSoC4/Quadrature.c **** *  interrupt mode of all the pins in the Pins component.       
 187:Generated_Source\PSoC4/Quadrature.c **** *  - Quadrature_0_INTR       (First pin in the list)
 188:Generated_Source\PSoC4/Quadrature.c **** *  - Quadrature_1_INTR       (Second pin in the list)
 189:Generated_Source\PSoC4/Quadrature.c **** *  - ...
 190:Generated_Source\PSoC4/Quadrature.c **** *  - Quadrature_INTR_ALL     (All pins in Pins component)
 191:Generated_Source\PSoC4/Quadrature.c **** *
 192:Generated_Source\PSoC4/Quadrature.c **** * \param mode
 193:Generated_Source\PSoC4/Quadrature.c **** *  Interrupt mode for the selected pins. Valid options are documented in
 194:Generated_Source\PSoC4/Quadrature.c **** *  \ref intrMode.
 195:Generated_Source\PSoC4/Quadrature.c **** *
 196:Generated_Source\PSoC4/Quadrature.c **** * \return 
 197:Generated_Source\PSoC4/Quadrature.c **** *  None
 198:Generated_Source\PSoC4/Quadrature.c **** *  
 199:Generated_Source\PSoC4/Quadrature.c **** * \sideeffect
 200:Generated_Source\PSoC4/Quadrature.c **** *  It is recommended that the interrupt be disabled before calling this 
 201:Generated_Source\PSoC4/Quadrature.c **** *  function to avoid unintended interrupt requests. Note that the interrupt
 202:Generated_Source\PSoC4/Quadrature.c **** *  type is port wide, and therefore will trigger for any enabled pin on the 
 203:Generated_Source\PSoC4/Quadrature.c **** *  port.
 204:Generated_Source\PSoC4/Quadrature.c **** *
 205:Generated_Source\PSoC4/Quadrature.c **** * \funcusage
 206:Generated_Source\PSoC4/Quadrature.c **** *  \snippet Quadrature_SUT.c usage_Quadrature_SetInterruptMode
 207:Generated_Source\PSoC4/Quadrature.c **** *******************************************************************************/
 208:Generated_Source\PSoC4/Quadrature.c **** void Quadrature_SetInterruptMode(uint16 position, uint16 mode)
 209:Generated_Source\PSoC4/Quadrature.c **** {
 166              		.loc 1 209 0
 167              		.cfi_startproc
 168              		@ args = 0, pretend = 0, frame = 0
 169              		@ frame_needed = 0, uses_anonymous_args = 0
 170              		@ link register save eliminated.
 171              	.LVL4:
 210:Generated_Source\PSoC4/Quadrature.c ****     uint32 intrCfg;
 211:Generated_Source\PSoC4/Quadrature.c ****     
 212:Generated_Source\PSoC4/Quadrature.c ****     intrCfg =  Quadrature_INTCFG & (uint32)(~(uint32)position);
 172              		.loc 1 212 0
 173 0000 034A     		ldr	r2, .L14
 213:Generated_Source\PSoC4/Quadrature.c ****     Quadrature_INTCFG = intrCfg | ((uint32)position & (uint32)mode);
 214:Generated_Source\PSoC4/Quadrature.c **** }
 174              		.loc 1 214 0
 175              		@ sp needed
 212:Generated_Source\PSoC4/Quadrature.c ****     Quadrature_INTCFG = intrCfg | ((uint32)position & (uint32)mode);
 176              		.loc 1 212 0
 177 0002 1368     		ldr	r3, [r2]
 178              	.LVL5:
ARM GAS  C:\Users\VIDEOH~1\AppData\Local\Temp\ccyqH2sL.s 			page 8


 213:Generated_Source\PSoC4/Quadrature.c ****     Quadrature_INTCFG = intrCfg | ((uint32)position & (uint32)mode);
 179              		.loc 1 213 0
 180 0004 8343     		bics	r3, r0
 181              	.LVL6:
 182 0006 0840     		ands	r0, r1
 183              	.LVL7:
 184 0008 1843     		orrs	r0, r3
 185 000a 1060     		str	r0, [r2]
 186              		.loc 1 214 0
 187 000c 7047     		bx	lr
 188              	.L15:
 189 000e C046     		.align	2
 190              	.L14:
 191 0010 0C000440 		.word	1074003980
 192              		.cfi_endproc
 193              	.LFE4:
 194              		.size	Quadrature_SetInterruptMode, .-Quadrature_SetInterruptMode
 195              		.section	.text.Quadrature_ClearInterrupt,"ax",%progbits
 196              		.align	1
 197              		.global	Quadrature_ClearInterrupt
 198              		.code	16
 199              		.thumb_func
 200              		.type	Quadrature_ClearInterrupt, %function
 201              	Quadrature_ClearInterrupt:
 202              	.LFB5:
 215:Generated_Source\PSoC4/Quadrature.c **** 
 216:Generated_Source\PSoC4/Quadrature.c **** 
 217:Generated_Source\PSoC4/Quadrature.c **** /*******************************************************************************
 218:Generated_Source\PSoC4/Quadrature.c **** * Function Name: Quadrature_ClearInterrupt
 219:Generated_Source\PSoC4/Quadrature.c **** ****************************************************************************//**
 220:Generated_Source\PSoC4/Quadrature.c **** *
 221:Generated_Source\PSoC4/Quadrature.c **** * \brief Clears any active interrupts attached with the component and returns 
 222:Generated_Source\PSoC4/Quadrature.c **** *  the value of the interrupt status register allowing determination of which
 223:Generated_Source\PSoC4/Quadrature.c **** *  pins generated an interrupt event.
 224:Generated_Source\PSoC4/Quadrature.c **** *
 225:Generated_Source\PSoC4/Quadrature.c **** * \return 
 226:Generated_Source\PSoC4/Quadrature.c **** *  The right-shifted current value of the interrupt status register. Each pin 
 227:Generated_Source\PSoC4/Quadrature.c **** *  has one bit set if it generated an interrupt event. For example, bit 0 is 
 228:Generated_Source\PSoC4/Quadrature.c **** *  for pin 0 and bit 1 is for pin 1 of the Pins component.
 229:Generated_Source\PSoC4/Quadrature.c **** *  
 230:Generated_Source\PSoC4/Quadrature.c **** * \sideeffect
 231:Generated_Source\PSoC4/Quadrature.c **** *  Clears all bits of the physical port's interrupt status register, not just
 232:Generated_Source\PSoC4/Quadrature.c **** *  those associated with the Pins component.
 233:Generated_Source\PSoC4/Quadrature.c **** *
 234:Generated_Source\PSoC4/Quadrature.c **** * \funcusage
 235:Generated_Source\PSoC4/Quadrature.c **** *  \snippet Quadrature_SUT.c usage_Quadrature_ClearInterrupt
 236:Generated_Source\PSoC4/Quadrature.c **** *******************************************************************************/
 237:Generated_Source\PSoC4/Quadrature.c **** uint8 Quadrature_ClearInterrupt(void)
 238:Generated_Source\PSoC4/Quadrature.c **** {
 203              		.loc 1 238 0
 204              		.cfi_startproc
 205              		@ args = 0, pretend = 0, frame = 0
 206              		@ frame_needed = 0, uses_anonymous_args = 0
 207              		@ link register save eliminated.
 239:Generated_Source\PSoC4/Quadrature.c **** 	uint8 maskedStatus = (uint8)(Quadrature_INTSTAT & Quadrature_MASK);
 208              		.loc 1 239 0
 209 0000 0323     		movs	r3, #3
ARM GAS  C:\Users\VIDEOH~1\AppData\Local\Temp\ccyqH2sL.s 			page 9


 210 0002 024A     		ldr	r2, .L17
 240:Generated_Source\PSoC4/Quadrature.c **** 	Quadrature_INTSTAT = maskedStatus;
 241:Generated_Source\PSoC4/Quadrature.c ****     return maskedStatus >> Quadrature_SHIFT;
 242:Generated_Source\PSoC4/Quadrature.c **** }
 211              		.loc 1 242 0
 212              		@ sp needed
 239:Generated_Source\PSoC4/Quadrature.c **** 	uint8 maskedStatus = (uint8)(Quadrature_INTSTAT & Quadrature_MASK);
 213              		.loc 1 239 0
 214 0004 1068     		ldr	r0, [r2]
 215 0006 1840     		ands	r0, r3
 216              	.LVL8:
 240:Generated_Source\PSoC4/Quadrature.c **** 	Quadrature_INTSTAT = maskedStatus;
 217              		.loc 1 240 0
 218 0008 1060     		str	r0, [r2]
 219              		.loc 1 242 0
 220 000a 7047     		bx	lr
 221              	.L18:
 222              		.align	2
 223              	.L17:
 224 000c 10000440 		.word	1074003984
 225              		.cfi_endproc
 226              	.LFE5:
 227              		.size	Quadrature_ClearInterrupt, .-Quadrature_ClearInterrupt
 228              		.text
 229              	.Letext0:
 230              		.file 2 "Generated_Source\\PSoC4\\cytypes.h"