ARM GAS  C:\Users\VIDEOH~1\AppData\Local\Temp\cc6V5Gdt.s 			page 1


   1              		.syntax unified
   2              		.cpu cortex-m0
   3              		.fpu softvfp
   4              		.eabi_attribute 20, 1
   5              		.eabi_attribute 21, 1
   6              		.eabi_attribute 23, 3
   7              		.eabi_attribute 24, 1
   8              		.eabi_attribute 25, 1
   9              		.eabi_attribute 26, 1
  10              		.eabi_attribute 30, 4
  11              		.eabi_attribute 34, 0
  12              		.eabi_attribute 18, 4
  13              		.thumb
  14              		.syntax unified
  15              		.file	"QuadratureISR.c"
  16              		.text
  17              	.Ltext0:
  18              		.cfi_sections	.debug_frame
  19              		.section	.text.QuadratureISR_Interrupt,"ax",%progbits
  20              		.align	1
  21              		.global	QuadratureISR_Interrupt
  22              		.code	16
  23              		.thumb_func
  24              		.type	QuadratureISR_Interrupt, %function
  25              	QuadratureISR_Interrupt:
  26              	.LFB3:
  27              		.file 1 "Generated_Source\\PSoC4\\QuadratureISR.c"
   1:Generated_Source\PSoC4/QuadratureISR.c **** /*******************************************************************************
   2:Generated_Source\PSoC4/QuadratureISR.c **** * File Name: QuadratureISR.c  
   3:Generated_Source\PSoC4/QuadratureISR.c **** * Version 1.70
   4:Generated_Source\PSoC4/QuadratureISR.c **** *
   5:Generated_Source\PSoC4/QuadratureISR.c **** *  Description:
   6:Generated_Source\PSoC4/QuadratureISR.c **** *   API for controlling the state of an interrupt.
   7:Generated_Source\PSoC4/QuadratureISR.c **** *
   8:Generated_Source\PSoC4/QuadratureISR.c **** *
   9:Generated_Source\PSoC4/QuadratureISR.c **** *  Note:
  10:Generated_Source\PSoC4/QuadratureISR.c **** *
  11:Generated_Source\PSoC4/QuadratureISR.c **** ********************************************************************************
  12:Generated_Source\PSoC4/QuadratureISR.c **** * Copyright 2008-2015, Cypress Semiconductor Corporation.  All rights reserved.
  13:Generated_Source\PSoC4/QuadratureISR.c **** * You may use this file only in accordance with the license, terms, conditions, 
  14:Generated_Source\PSoC4/QuadratureISR.c **** * disclaimers, and limitations in the end user license agreement accompanying 
  15:Generated_Source\PSoC4/QuadratureISR.c **** * the software package with which this file was provided.
  16:Generated_Source\PSoC4/QuadratureISR.c **** *******************************************************************************/
  17:Generated_Source\PSoC4/QuadratureISR.c **** 
  18:Generated_Source\PSoC4/QuadratureISR.c **** 
  19:Generated_Source\PSoC4/QuadratureISR.c **** #include <cydevice_trm.h>
  20:Generated_Source\PSoC4/QuadratureISR.c **** #include <CyLib.h>
  21:Generated_Source\PSoC4/QuadratureISR.c **** #include <QuadratureISR.h>
  22:Generated_Source\PSoC4/QuadratureISR.c **** 
  23:Generated_Source\PSoC4/QuadratureISR.c **** 
  24:Generated_Source\PSoC4/QuadratureISR.c **** #if !defined(QuadratureISR__REMOVED) /* Check for removal by optimization */
  25:Generated_Source\PSoC4/QuadratureISR.c **** 
  26:Generated_Source\PSoC4/QuadratureISR.c **** /*******************************************************************************
  27:Generated_Source\PSoC4/QuadratureISR.c **** *  Place your includes, defines and code here 
  28:Generated_Source\PSoC4/QuadratureISR.c **** ********************************************************************************/
  29:Generated_Source\PSoC4/QuadratureISR.c **** /* `#START QuadratureISR_intc` */
  30:Generated_Source\PSoC4/QuadratureISR.c **** 
ARM GAS  C:\Users\VIDEOH~1\AppData\Local\Temp\cc6V5Gdt.s 			page 2


  31:Generated_Source\PSoC4/QuadratureISR.c **** /* `#END` */
  32:Generated_Source\PSoC4/QuadratureISR.c **** 
  33:Generated_Source\PSoC4/QuadratureISR.c **** extern cyisraddress CyRamVectors[CYINT_IRQ_BASE + CY_NUM_INTERRUPTS];
  34:Generated_Source\PSoC4/QuadratureISR.c **** 
  35:Generated_Source\PSoC4/QuadratureISR.c **** /* Declared in startup, used to set unused interrupts to. */
  36:Generated_Source\PSoC4/QuadratureISR.c **** CY_ISR_PROTO(IntDefaultHandler);
  37:Generated_Source\PSoC4/QuadratureISR.c **** 
  38:Generated_Source\PSoC4/QuadratureISR.c **** 
  39:Generated_Source\PSoC4/QuadratureISR.c **** /*******************************************************************************
  40:Generated_Source\PSoC4/QuadratureISR.c **** * Function Name: QuadratureISR_Start
  41:Generated_Source\PSoC4/QuadratureISR.c **** ********************************************************************************
  42:Generated_Source\PSoC4/QuadratureISR.c **** *
  43:Generated_Source\PSoC4/QuadratureISR.c **** * Summary:
  44:Generated_Source\PSoC4/QuadratureISR.c **** *  Set up the interrupt and enable it. This function disables the interrupt, 
  45:Generated_Source\PSoC4/QuadratureISR.c **** *  sets the default interrupt vector, sets the priority from the value in the
  46:Generated_Source\PSoC4/QuadratureISR.c **** *  Design Wide Resources Interrupt Editor, then enables the interrupt to the 
  47:Generated_Source\PSoC4/QuadratureISR.c **** *  interrupt controller.
  48:Generated_Source\PSoC4/QuadratureISR.c **** *
  49:Generated_Source\PSoC4/QuadratureISR.c **** * Parameters:  
  50:Generated_Source\PSoC4/QuadratureISR.c **** *   None
  51:Generated_Source\PSoC4/QuadratureISR.c **** *
  52:Generated_Source\PSoC4/QuadratureISR.c **** * Return:
  53:Generated_Source\PSoC4/QuadratureISR.c **** *   None
  54:Generated_Source\PSoC4/QuadratureISR.c **** *
  55:Generated_Source\PSoC4/QuadratureISR.c **** *******************************************************************************/
  56:Generated_Source\PSoC4/QuadratureISR.c **** void QuadratureISR_Start(void)
  57:Generated_Source\PSoC4/QuadratureISR.c **** {
  58:Generated_Source\PSoC4/QuadratureISR.c ****     /* For all we know the interrupt is active. */
  59:Generated_Source\PSoC4/QuadratureISR.c ****     QuadratureISR_Disable();
  60:Generated_Source\PSoC4/QuadratureISR.c **** 
  61:Generated_Source\PSoC4/QuadratureISR.c ****     /* Set the ISR to point to the QuadratureISR Interrupt. */
  62:Generated_Source\PSoC4/QuadratureISR.c ****     QuadratureISR_SetVector(&QuadratureISR_Interrupt);
  63:Generated_Source\PSoC4/QuadratureISR.c **** 
  64:Generated_Source\PSoC4/QuadratureISR.c ****     /* Set the priority. */
  65:Generated_Source\PSoC4/QuadratureISR.c ****     QuadratureISR_SetPriority((uint8)QuadratureISR_INTC_PRIOR_NUMBER);
  66:Generated_Source\PSoC4/QuadratureISR.c **** 
  67:Generated_Source\PSoC4/QuadratureISR.c ****     /* Enable it. */
  68:Generated_Source\PSoC4/QuadratureISR.c ****     QuadratureISR_Enable();
  69:Generated_Source\PSoC4/QuadratureISR.c **** }
  70:Generated_Source\PSoC4/QuadratureISR.c **** 
  71:Generated_Source\PSoC4/QuadratureISR.c **** 
  72:Generated_Source\PSoC4/QuadratureISR.c **** /*******************************************************************************
  73:Generated_Source\PSoC4/QuadratureISR.c **** * Function Name: QuadratureISR_StartEx
  74:Generated_Source\PSoC4/QuadratureISR.c **** ********************************************************************************
  75:Generated_Source\PSoC4/QuadratureISR.c **** *
  76:Generated_Source\PSoC4/QuadratureISR.c **** * Summary:
  77:Generated_Source\PSoC4/QuadratureISR.c **** *  Sets up the interrupt and enables it. This function disables the interrupt,
  78:Generated_Source\PSoC4/QuadratureISR.c **** *  sets the interrupt vector based on the address passed in, sets the priority 
  79:Generated_Source\PSoC4/QuadratureISR.c **** *  from the value in the Design Wide Resources Interrupt Editor, then enables 
  80:Generated_Source\PSoC4/QuadratureISR.c **** *  the interrupt to the interrupt controller.
  81:Generated_Source\PSoC4/QuadratureISR.c **** *  
  82:Generated_Source\PSoC4/QuadratureISR.c **** *  When defining ISR functions, the CY_ISR and CY_ISR_PROTO macros should be 
  83:Generated_Source\PSoC4/QuadratureISR.c **** *  used to provide consistent definition across compilers:
  84:Generated_Source\PSoC4/QuadratureISR.c **** *  
  85:Generated_Source\PSoC4/QuadratureISR.c **** *  Function definition example:
  86:Generated_Source\PSoC4/QuadratureISR.c **** *   CY_ISR(MyISR)
  87:Generated_Source\PSoC4/QuadratureISR.c **** *   {
ARM GAS  C:\Users\VIDEOH~1\AppData\Local\Temp\cc6V5Gdt.s 			page 3


  88:Generated_Source\PSoC4/QuadratureISR.c **** *   }
  89:Generated_Source\PSoC4/QuadratureISR.c **** *   Function prototype example:
  90:Generated_Source\PSoC4/QuadratureISR.c **** *   CY_ISR_PROTO(MyISR);
  91:Generated_Source\PSoC4/QuadratureISR.c **** *
  92:Generated_Source\PSoC4/QuadratureISR.c **** * Parameters:  
  93:Generated_Source\PSoC4/QuadratureISR.c **** *   address: Address of the ISR to set in the interrupt vector table.
  94:Generated_Source\PSoC4/QuadratureISR.c **** *
  95:Generated_Source\PSoC4/QuadratureISR.c **** * Return:
  96:Generated_Source\PSoC4/QuadratureISR.c **** *   None
  97:Generated_Source\PSoC4/QuadratureISR.c **** *
  98:Generated_Source\PSoC4/QuadratureISR.c **** *******************************************************************************/
  99:Generated_Source\PSoC4/QuadratureISR.c **** void QuadratureISR_StartEx(cyisraddress address)
 100:Generated_Source\PSoC4/QuadratureISR.c **** {
 101:Generated_Source\PSoC4/QuadratureISR.c ****     /* For all we know the interrupt is active. */
 102:Generated_Source\PSoC4/QuadratureISR.c ****     QuadratureISR_Disable();
 103:Generated_Source\PSoC4/QuadratureISR.c **** 
 104:Generated_Source\PSoC4/QuadratureISR.c ****     /* Set the ISR to point to the QuadratureISR Interrupt. */
 105:Generated_Source\PSoC4/QuadratureISR.c ****     QuadratureISR_SetVector(address);
 106:Generated_Source\PSoC4/QuadratureISR.c **** 
 107:Generated_Source\PSoC4/QuadratureISR.c ****     /* Set the priority. */
 108:Generated_Source\PSoC4/QuadratureISR.c ****     QuadratureISR_SetPriority((uint8)QuadratureISR_INTC_PRIOR_NUMBER);
 109:Generated_Source\PSoC4/QuadratureISR.c **** 
 110:Generated_Source\PSoC4/QuadratureISR.c ****     /* Enable it. */
 111:Generated_Source\PSoC4/QuadratureISR.c ****     QuadratureISR_Enable();
 112:Generated_Source\PSoC4/QuadratureISR.c **** }
 113:Generated_Source\PSoC4/QuadratureISR.c **** 
 114:Generated_Source\PSoC4/QuadratureISR.c **** 
 115:Generated_Source\PSoC4/QuadratureISR.c **** /*******************************************************************************
 116:Generated_Source\PSoC4/QuadratureISR.c **** * Function Name: QuadratureISR_Stop
 117:Generated_Source\PSoC4/QuadratureISR.c **** ********************************************************************************
 118:Generated_Source\PSoC4/QuadratureISR.c **** *
 119:Generated_Source\PSoC4/QuadratureISR.c **** * Summary:
 120:Generated_Source\PSoC4/QuadratureISR.c **** *   Disables and removes the interrupt.
 121:Generated_Source\PSoC4/QuadratureISR.c **** *
 122:Generated_Source\PSoC4/QuadratureISR.c **** * Parameters:  
 123:Generated_Source\PSoC4/QuadratureISR.c **** *   None
 124:Generated_Source\PSoC4/QuadratureISR.c **** *
 125:Generated_Source\PSoC4/QuadratureISR.c **** * Return:
 126:Generated_Source\PSoC4/QuadratureISR.c **** *   None
 127:Generated_Source\PSoC4/QuadratureISR.c **** *
 128:Generated_Source\PSoC4/QuadratureISR.c **** *******************************************************************************/
 129:Generated_Source\PSoC4/QuadratureISR.c **** void QuadratureISR_Stop(void)
 130:Generated_Source\PSoC4/QuadratureISR.c **** {
 131:Generated_Source\PSoC4/QuadratureISR.c ****     /* Disable this interrupt. */
 132:Generated_Source\PSoC4/QuadratureISR.c ****     QuadratureISR_Disable();
 133:Generated_Source\PSoC4/QuadratureISR.c **** 
 134:Generated_Source\PSoC4/QuadratureISR.c ****     /* Set the ISR to point to the passive one. */
 135:Generated_Source\PSoC4/QuadratureISR.c ****     QuadratureISR_SetVector(&IntDefaultHandler);
 136:Generated_Source\PSoC4/QuadratureISR.c **** }
 137:Generated_Source\PSoC4/QuadratureISR.c **** 
 138:Generated_Source\PSoC4/QuadratureISR.c **** 
 139:Generated_Source\PSoC4/QuadratureISR.c **** /*******************************************************************************
 140:Generated_Source\PSoC4/QuadratureISR.c **** * Function Name: QuadratureISR_Interrupt
 141:Generated_Source\PSoC4/QuadratureISR.c **** ********************************************************************************
 142:Generated_Source\PSoC4/QuadratureISR.c **** *
 143:Generated_Source\PSoC4/QuadratureISR.c **** * Summary:
 144:Generated_Source\PSoC4/QuadratureISR.c **** *   The default Interrupt Service Routine for QuadratureISR.
ARM GAS  C:\Users\VIDEOH~1\AppData\Local\Temp\cc6V5Gdt.s 			page 4


 145:Generated_Source\PSoC4/QuadratureISR.c **** *
 146:Generated_Source\PSoC4/QuadratureISR.c **** *   Add custom code between the START and END comments to keep the next version
 147:Generated_Source\PSoC4/QuadratureISR.c **** *   of this file from over-writing your code.
 148:Generated_Source\PSoC4/QuadratureISR.c **** *
 149:Generated_Source\PSoC4/QuadratureISR.c **** *   Note You may use either the default ISR by using this API, or you may define
 150:Generated_Source\PSoC4/QuadratureISR.c **** *   your own separate ISR through ISR_StartEx().
 151:Generated_Source\PSoC4/QuadratureISR.c **** *
 152:Generated_Source\PSoC4/QuadratureISR.c **** * Parameters:  
 153:Generated_Source\PSoC4/QuadratureISR.c **** *   None
 154:Generated_Source\PSoC4/QuadratureISR.c **** *
 155:Generated_Source\PSoC4/QuadratureISR.c **** * Return:
 156:Generated_Source\PSoC4/QuadratureISR.c **** *   None
 157:Generated_Source\PSoC4/QuadratureISR.c **** *
 158:Generated_Source\PSoC4/QuadratureISR.c **** *******************************************************************************/
 159:Generated_Source\PSoC4/QuadratureISR.c **** CY_ISR(QuadratureISR_Interrupt)
 160:Generated_Source\PSoC4/QuadratureISR.c **** {
  28              		.loc 1 160 0
  29              		.cfi_startproc
  30              		@ args = 0, pretend = 0, frame = 0
  31              		@ frame_needed = 0, uses_anonymous_args = 0
  32              		@ link register save eliminated.
 161:Generated_Source\PSoC4/QuadratureISR.c ****     #ifdef QuadratureISR_INTERRUPT_INTERRUPT_CALLBACK
 162:Generated_Source\PSoC4/QuadratureISR.c ****         QuadratureISR_Interrupt_InterruptCallback();
 163:Generated_Source\PSoC4/QuadratureISR.c ****     #endif /* QuadratureISR_INTERRUPT_INTERRUPT_CALLBACK */ 
 164:Generated_Source\PSoC4/QuadratureISR.c **** 
 165:Generated_Source\PSoC4/QuadratureISR.c ****     /*  Place your Interrupt code here. */
 166:Generated_Source\PSoC4/QuadratureISR.c ****     /* `#START QuadratureISR_Interrupt` */
 167:Generated_Source\PSoC4/QuadratureISR.c **** 
 168:Generated_Source\PSoC4/QuadratureISR.c ****     /* `#END` */
 169:Generated_Source\PSoC4/QuadratureISR.c **** }
  33              		.loc 1 169 0
  34              		@ sp needed
  35 0000 7047     		bx	lr
  36              		.cfi_endproc
  37              	.LFE3:
  38              		.size	QuadratureISR_Interrupt, .-QuadratureISR_Interrupt
  39              		.section	.text.QuadratureISR_Stop,"ax",%progbits
  40              		.align	1
  41              		.global	QuadratureISR_Stop
  42              		.code	16
  43              		.thumb_func
  44              		.type	QuadratureISR_Stop, %function
  45              	QuadratureISR_Stop:
  46              	.LFB2:
 130:Generated_Source\PSoC4/QuadratureISR.c ****     /* Disable this interrupt. */
  47              		.loc 1 130 0
  48              		.cfi_startproc
  49              		@ args = 0, pretend = 0, frame = 0
  50              		@ frame_needed = 0, uses_anonymous_args = 0
  51              		@ link register save eliminated.
  52              	.LBB18:
  53              	.LBB19:
 170:Generated_Source\PSoC4/QuadratureISR.c **** 
 171:Generated_Source\PSoC4/QuadratureISR.c **** 
 172:Generated_Source\PSoC4/QuadratureISR.c **** /*******************************************************************************
 173:Generated_Source\PSoC4/QuadratureISR.c **** * Function Name: QuadratureISR_SetVector
 174:Generated_Source\PSoC4/QuadratureISR.c **** ********************************************************************************
ARM GAS  C:\Users\VIDEOH~1\AppData\Local\Temp\cc6V5Gdt.s 			page 5


 175:Generated_Source\PSoC4/QuadratureISR.c **** *
 176:Generated_Source\PSoC4/QuadratureISR.c **** * Summary:
 177:Generated_Source\PSoC4/QuadratureISR.c **** *   Change the ISR vector for the Interrupt. Note calling QuadratureISR_Start
 178:Generated_Source\PSoC4/QuadratureISR.c **** *   will override any effect this method would have had. To set the vector 
 179:Generated_Source\PSoC4/QuadratureISR.c **** *   before the component has been started use QuadratureISR_StartEx instead.
 180:Generated_Source\PSoC4/QuadratureISR.c **** * 
 181:Generated_Source\PSoC4/QuadratureISR.c **** *   When defining ISR functions, the CY_ISR and CY_ISR_PROTO macros should be 
 182:Generated_Source\PSoC4/QuadratureISR.c **** *   used to provide consistent definition across compilers:
 183:Generated_Source\PSoC4/QuadratureISR.c **** *
 184:Generated_Source\PSoC4/QuadratureISR.c **** *   Function definition example:
 185:Generated_Source\PSoC4/QuadratureISR.c **** *   CY_ISR(MyISR)
 186:Generated_Source\PSoC4/QuadratureISR.c **** *   {
 187:Generated_Source\PSoC4/QuadratureISR.c **** *   }
 188:Generated_Source\PSoC4/QuadratureISR.c **** *
 189:Generated_Source\PSoC4/QuadratureISR.c **** *   Function prototype example:
 190:Generated_Source\PSoC4/QuadratureISR.c **** *     CY_ISR_PROTO(MyISR);
 191:Generated_Source\PSoC4/QuadratureISR.c **** *
 192:Generated_Source\PSoC4/QuadratureISR.c **** * Parameters:
 193:Generated_Source\PSoC4/QuadratureISR.c **** *   address: Address of the ISR to set in the interrupt vector table.
 194:Generated_Source\PSoC4/QuadratureISR.c **** *
 195:Generated_Source\PSoC4/QuadratureISR.c **** * Return:
 196:Generated_Source\PSoC4/QuadratureISR.c **** *   None
 197:Generated_Source\PSoC4/QuadratureISR.c **** *
 198:Generated_Source\PSoC4/QuadratureISR.c **** *******************************************************************************/
 199:Generated_Source\PSoC4/QuadratureISR.c **** void QuadratureISR_SetVector(cyisraddress address)
 200:Generated_Source\PSoC4/QuadratureISR.c **** {
 201:Generated_Source\PSoC4/QuadratureISR.c ****     CyRamVectors[CYINT_IRQ_BASE + QuadratureISR__INTC_NUMBER] = address;
 202:Generated_Source\PSoC4/QuadratureISR.c **** }
 203:Generated_Source\PSoC4/QuadratureISR.c **** 
 204:Generated_Source\PSoC4/QuadratureISR.c **** 
 205:Generated_Source\PSoC4/QuadratureISR.c **** /*******************************************************************************
 206:Generated_Source\PSoC4/QuadratureISR.c **** * Function Name: QuadratureISR_GetVector
 207:Generated_Source\PSoC4/QuadratureISR.c **** ********************************************************************************
 208:Generated_Source\PSoC4/QuadratureISR.c **** *
 209:Generated_Source\PSoC4/QuadratureISR.c **** * Summary:
 210:Generated_Source\PSoC4/QuadratureISR.c **** *   Gets the "address" of the current ISR vector for the Interrupt.
 211:Generated_Source\PSoC4/QuadratureISR.c **** *
 212:Generated_Source\PSoC4/QuadratureISR.c **** * Parameters:
 213:Generated_Source\PSoC4/QuadratureISR.c **** *   None
 214:Generated_Source\PSoC4/QuadratureISR.c **** *
 215:Generated_Source\PSoC4/QuadratureISR.c **** * Return:
 216:Generated_Source\PSoC4/QuadratureISR.c **** *   Address of the ISR in the interrupt vector table.
 217:Generated_Source\PSoC4/QuadratureISR.c **** *
 218:Generated_Source\PSoC4/QuadratureISR.c **** *******************************************************************************/
 219:Generated_Source\PSoC4/QuadratureISR.c **** cyisraddress QuadratureISR_GetVector(void)
 220:Generated_Source\PSoC4/QuadratureISR.c **** {
 221:Generated_Source\PSoC4/QuadratureISR.c ****     return CyRamVectors[CYINT_IRQ_BASE + QuadratureISR__INTC_NUMBER];
 222:Generated_Source\PSoC4/QuadratureISR.c **** }
 223:Generated_Source\PSoC4/QuadratureISR.c **** 
 224:Generated_Source\PSoC4/QuadratureISR.c **** 
 225:Generated_Source\PSoC4/QuadratureISR.c **** /*******************************************************************************
 226:Generated_Source\PSoC4/QuadratureISR.c **** * Function Name: QuadratureISR_SetPriority
 227:Generated_Source\PSoC4/QuadratureISR.c **** ********************************************************************************
 228:Generated_Source\PSoC4/QuadratureISR.c **** *
 229:Generated_Source\PSoC4/QuadratureISR.c **** * Summary:
 230:Generated_Source\PSoC4/QuadratureISR.c **** *   Sets the Priority of the Interrupt. 
 231:Generated_Source\PSoC4/QuadratureISR.c **** *
ARM GAS  C:\Users\VIDEOH~1\AppData\Local\Temp\cc6V5Gdt.s 			page 6


 232:Generated_Source\PSoC4/QuadratureISR.c **** *   Note calling QuadratureISR_Start or QuadratureISR_StartEx will 
 233:Generated_Source\PSoC4/QuadratureISR.c **** *   override any effect this API would have had. This API should only be called
 234:Generated_Source\PSoC4/QuadratureISR.c **** *   after QuadratureISR_Start or QuadratureISR_StartEx has been called. 
 235:Generated_Source\PSoC4/QuadratureISR.c **** *   To set the initial priority for the component, use the Design-Wide Resources
 236:Generated_Source\PSoC4/QuadratureISR.c **** *   Interrupt Editor.
 237:Generated_Source\PSoC4/QuadratureISR.c **** *
 238:Generated_Source\PSoC4/QuadratureISR.c **** *   Note This API has no effect on Non-maskable interrupt NMI).
 239:Generated_Source\PSoC4/QuadratureISR.c **** *
 240:Generated_Source\PSoC4/QuadratureISR.c **** * Parameters:
 241:Generated_Source\PSoC4/QuadratureISR.c **** *   priority: Priority of the interrupt, 0 being the highest priority
 242:Generated_Source\PSoC4/QuadratureISR.c **** *             PSoC 3 and PSoC 5LP: Priority is from 0 to 7.
 243:Generated_Source\PSoC4/QuadratureISR.c **** *             PSoC 4: Priority is from 0 to 3.
 244:Generated_Source\PSoC4/QuadratureISR.c **** *
 245:Generated_Source\PSoC4/QuadratureISR.c **** * Return:
 246:Generated_Source\PSoC4/QuadratureISR.c **** *   None
 247:Generated_Source\PSoC4/QuadratureISR.c **** *
 248:Generated_Source\PSoC4/QuadratureISR.c **** *******************************************************************************/
 249:Generated_Source\PSoC4/QuadratureISR.c **** void QuadratureISR_SetPriority(uint8 priority)
 250:Generated_Source\PSoC4/QuadratureISR.c **** {
 251:Generated_Source\PSoC4/QuadratureISR.c **** 	uint8 interruptState;
 252:Generated_Source\PSoC4/QuadratureISR.c ****     uint32 priorityOffset = ((QuadratureISR__INTC_NUMBER % 4u) * 8u) + 6u;
 253:Generated_Source\PSoC4/QuadratureISR.c ****     
 254:Generated_Source\PSoC4/QuadratureISR.c **** 	interruptState = CyEnterCriticalSection();
 255:Generated_Source\PSoC4/QuadratureISR.c ****     *QuadratureISR_INTC_PRIOR = (*QuadratureISR_INTC_PRIOR & (uint32)(~QuadratureISR__INTC_PRIOR_MA
 256:Generated_Source\PSoC4/QuadratureISR.c ****                                     ((uint32)priority << priorityOffset);
 257:Generated_Source\PSoC4/QuadratureISR.c **** 	CyExitCriticalSection(interruptState);
 258:Generated_Source\PSoC4/QuadratureISR.c **** }
 259:Generated_Source\PSoC4/QuadratureISR.c **** 
 260:Generated_Source\PSoC4/QuadratureISR.c **** 
 261:Generated_Source\PSoC4/QuadratureISR.c **** /*******************************************************************************
 262:Generated_Source\PSoC4/QuadratureISR.c **** * Function Name: QuadratureISR_GetPriority
 263:Generated_Source\PSoC4/QuadratureISR.c **** ********************************************************************************
 264:Generated_Source\PSoC4/QuadratureISR.c **** *
 265:Generated_Source\PSoC4/QuadratureISR.c **** * Summary:
 266:Generated_Source\PSoC4/QuadratureISR.c **** *   Gets the Priority of the Interrupt.
 267:Generated_Source\PSoC4/QuadratureISR.c **** *
 268:Generated_Source\PSoC4/QuadratureISR.c **** * Parameters:
 269:Generated_Source\PSoC4/QuadratureISR.c **** *   None
 270:Generated_Source\PSoC4/QuadratureISR.c **** *
 271:Generated_Source\PSoC4/QuadratureISR.c **** * Return:
 272:Generated_Source\PSoC4/QuadratureISR.c **** *   Priority of the interrupt, 0 being the highest priority
 273:Generated_Source\PSoC4/QuadratureISR.c **** *    PSoC 3 and PSoC 5LP: Priority is from 0 to 7.
 274:Generated_Source\PSoC4/QuadratureISR.c **** *    PSoC 4: Priority is from 0 to 3.
 275:Generated_Source\PSoC4/QuadratureISR.c **** *
 276:Generated_Source\PSoC4/QuadratureISR.c **** *******************************************************************************/
 277:Generated_Source\PSoC4/QuadratureISR.c **** uint8 QuadratureISR_GetPriority(void)
 278:Generated_Source\PSoC4/QuadratureISR.c **** {
 279:Generated_Source\PSoC4/QuadratureISR.c ****     uint32 priority;
 280:Generated_Source\PSoC4/QuadratureISR.c **** 	uint32 priorityOffset = ((QuadratureISR__INTC_NUMBER % 4u) * 8u) + 6u;
 281:Generated_Source\PSoC4/QuadratureISR.c **** 
 282:Generated_Source\PSoC4/QuadratureISR.c ****     priority = (*QuadratureISR_INTC_PRIOR & QuadratureISR__INTC_PRIOR_MASK) >> priorityOffset;
 283:Generated_Source\PSoC4/QuadratureISR.c **** 
 284:Generated_Source\PSoC4/QuadratureISR.c ****     return (uint8)priority;
 285:Generated_Source\PSoC4/QuadratureISR.c **** }
 286:Generated_Source\PSoC4/QuadratureISR.c **** 
 287:Generated_Source\PSoC4/QuadratureISR.c **** 
 288:Generated_Source\PSoC4/QuadratureISR.c **** /*******************************************************************************
ARM GAS  C:\Users\VIDEOH~1\AppData\Local\Temp\cc6V5Gdt.s 			page 7


 289:Generated_Source\PSoC4/QuadratureISR.c **** * Function Name: QuadratureISR_Enable
 290:Generated_Source\PSoC4/QuadratureISR.c **** ********************************************************************************
 291:Generated_Source\PSoC4/QuadratureISR.c **** *
 292:Generated_Source\PSoC4/QuadratureISR.c **** * Summary:
 293:Generated_Source\PSoC4/QuadratureISR.c **** *   Enables the interrupt to the interrupt controller. Do not call this function
 294:Generated_Source\PSoC4/QuadratureISR.c **** *   unless ISR_Start() has been called or the functionality of the ISR_Start() 
 295:Generated_Source\PSoC4/QuadratureISR.c **** *   function, which sets the vector and the priority, has been called.
 296:Generated_Source\PSoC4/QuadratureISR.c **** *
 297:Generated_Source\PSoC4/QuadratureISR.c **** * Parameters:
 298:Generated_Source\PSoC4/QuadratureISR.c **** *   None
 299:Generated_Source\PSoC4/QuadratureISR.c **** *
 300:Generated_Source\PSoC4/QuadratureISR.c **** * Return:
 301:Generated_Source\PSoC4/QuadratureISR.c **** *   None
 302:Generated_Source\PSoC4/QuadratureISR.c **** *
 303:Generated_Source\PSoC4/QuadratureISR.c **** *******************************************************************************/
 304:Generated_Source\PSoC4/QuadratureISR.c **** void QuadratureISR_Enable(void)
 305:Generated_Source\PSoC4/QuadratureISR.c **** {
 306:Generated_Source\PSoC4/QuadratureISR.c ****     /* Enable the general interrupt. */
 307:Generated_Source\PSoC4/QuadratureISR.c ****     *QuadratureISR_INTC_SET_EN = QuadratureISR__INTC_MASK;
 308:Generated_Source\PSoC4/QuadratureISR.c **** }
 309:Generated_Source\PSoC4/QuadratureISR.c **** 
 310:Generated_Source\PSoC4/QuadratureISR.c **** 
 311:Generated_Source\PSoC4/QuadratureISR.c **** /*******************************************************************************
 312:Generated_Source\PSoC4/QuadratureISR.c **** * Function Name: QuadratureISR_GetState
 313:Generated_Source\PSoC4/QuadratureISR.c **** ********************************************************************************
 314:Generated_Source\PSoC4/QuadratureISR.c **** *
 315:Generated_Source\PSoC4/QuadratureISR.c **** * Summary:
 316:Generated_Source\PSoC4/QuadratureISR.c **** *   Gets the state (enabled, disabled) of the Interrupt.
 317:Generated_Source\PSoC4/QuadratureISR.c **** *
 318:Generated_Source\PSoC4/QuadratureISR.c **** * Parameters:
 319:Generated_Source\PSoC4/QuadratureISR.c **** *   None
 320:Generated_Source\PSoC4/QuadratureISR.c **** *
 321:Generated_Source\PSoC4/QuadratureISR.c **** * Return:
 322:Generated_Source\PSoC4/QuadratureISR.c **** *   1 if enabled, 0 if disabled.
 323:Generated_Source\PSoC4/QuadratureISR.c **** *
 324:Generated_Source\PSoC4/QuadratureISR.c **** *******************************************************************************/
 325:Generated_Source\PSoC4/QuadratureISR.c **** uint8 QuadratureISR_GetState(void)
 326:Generated_Source\PSoC4/QuadratureISR.c **** {
 327:Generated_Source\PSoC4/QuadratureISR.c ****     /* Get the state of the general interrupt. */
 328:Generated_Source\PSoC4/QuadratureISR.c ****     return ((*QuadratureISR_INTC_SET_EN & (uint32)QuadratureISR__INTC_MASK) != 0u) ? 1u:0u;
 329:Generated_Source\PSoC4/QuadratureISR.c **** }
 330:Generated_Source\PSoC4/QuadratureISR.c **** 
 331:Generated_Source\PSoC4/QuadratureISR.c **** 
 332:Generated_Source\PSoC4/QuadratureISR.c **** /*******************************************************************************
 333:Generated_Source\PSoC4/QuadratureISR.c **** * Function Name: QuadratureISR_Disable
 334:Generated_Source\PSoC4/QuadratureISR.c **** ********************************************************************************
 335:Generated_Source\PSoC4/QuadratureISR.c **** *
 336:Generated_Source\PSoC4/QuadratureISR.c **** * Summary:
 337:Generated_Source\PSoC4/QuadratureISR.c **** *   Disables the Interrupt in the interrupt controller.
 338:Generated_Source\PSoC4/QuadratureISR.c **** *
 339:Generated_Source\PSoC4/QuadratureISR.c **** * Parameters:
 340:Generated_Source\PSoC4/QuadratureISR.c **** *   None
 341:Generated_Source\PSoC4/QuadratureISR.c **** *
 342:Generated_Source\PSoC4/QuadratureISR.c **** * Return:
 343:Generated_Source\PSoC4/QuadratureISR.c **** *   None
 344:Generated_Source\PSoC4/QuadratureISR.c **** *
 345:Generated_Source\PSoC4/QuadratureISR.c **** *******************************************************************************/
ARM GAS  C:\Users\VIDEOH~1\AppData\Local\Temp\cc6V5Gdt.s 			page 8


 346:Generated_Source\PSoC4/QuadratureISR.c **** void QuadratureISR_Disable(void)
 347:Generated_Source\PSoC4/QuadratureISR.c **** {
 348:Generated_Source\PSoC4/QuadratureISR.c ****     /* Disable the general interrupt. */
 349:Generated_Source\PSoC4/QuadratureISR.c ****     *QuadratureISR_INTC_CLR_EN = QuadratureISR__INTC_MASK;
  54              		.loc 1 349 0
  55 0000 0122     		movs	r2, #1
  56 0002 034B     		ldr	r3, .L3
  57              	.LBE19:
  58              	.LBE18:
 136:Generated_Source\PSoC4/QuadratureISR.c **** 
  59              		.loc 1 136 0
  60              		@ sp needed
  61              	.LBB21:
  62              	.LBB20:
  63              		.loc 1 349 0
  64 0004 1A60     		str	r2, [r3]
  65              	.LVL0:
  66              	.LBE20:
  67              	.LBE21:
  68              	.LBB22:
  69              	.LBB23:
 201:Generated_Source\PSoC4/QuadratureISR.c **** }
  70              		.loc 1 201 0
  71 0006 034A     		ldr	r2, .L3+4
  72 0008 034B     		ldr	r3, .L3+8
  73 000a 1A64     		str	r2, [r3, #64]
  74              	.LVL1:
  75              	.LBE23:
  76              	.LBE22:
 136:Generated_Source\PSoC4/QuadratureISR.c **** 
  77              		.loc 1 136 0
  78 000c 7047     		bx	lr
  79              	.L4:
  80 000e C046     		.align	2
  81              	.L3:
  82 0010 80E100E0 		.word	-536813184
  83 0014 00000000 		.word	IntDefaultHandler
  84 0018 00000000 		.word	CyRamVectors
  85              		.cfi_endproc
  86              	.LFE2:
  87              		.size	QuadratureISR_Stop, .-QuadratureISR_Stop
  88              		.section	.text.QuadratureISR_SetVector,"ax",%progbits
  89              		.align	1
  90              		.global	QuadratureISR_SetVector
  91              		.code	16
  92              		.thumb_func
  93              		.type	QuadratureISR_SetVector, %function
  94              	QuadratureISR_SetVector:
  95              	.LFB4:
 200:Generated_Source\PSoC4/QuadratureISR.c ****     CyRamVectors[CYINT_IRQ_BASE + QuadratureISR__INTC_NUMBER] = address;
  96              		.loc 1 200 0
  97              		.cfi_startproc
  98              		@ args = 0, pretend = 0, frame = 0
  99              		@ frame_needed = 0, uses_anonymous_args = 0
 100              		@ link register save eliminated.
 101              	.LVL2:
 201:Generated_Source\PSoC4/QuadratureISR.c **** }
ARM GAS  C:\Users\VIDEOH~1\AppData\Local\Temp\cc6V5Gdt.s 			page 9


 102              		.loc 1 201 0
 103 0000 014B     		ldr	r3, .L6
 202:Generated_Source\PSoC4/QuadratureISR.c **** 
 104              		.loc 1 202 0
 105              		@ sp needed
 201:Generated_Source\PSoC4/QuadratureISR.c **** }
 106              		.loc 1 201 0
 107 0002 1864     		str	r0, [r3, #64]
 202:Generated_Source\PSoC4/QuadratureISR.c **** 
 108              		.loc 1 202 0
 109 0004 7047     		bx	lr
 110              	.L7:
 111 0006 C046     		.align	2
 112              	.L6:
 113 0008 00000000 		.word	CyRamVectors
 114              		.cfi_endproc
 115              	.LFE4:
 116              		.size	QuadratureISR_SetVector, .-QuadratureISR_SetVector
 117              		.section	.text.QuadratureISR_GetVector,"ax",%progbits
 118              		.align	1
 119              		.global	QuadratureISR_GetVector
 120              		.code	16
 121              		.thumb_func
 122              		.type	QuadratureISR_GetVector, %function
 123              	QuadratureISR_GetVector:
 124              	.LFB5:
 220:Generated_Source\PSoC4/QuadratureISR.c ****     return CyRamVectors[CYINT_IRQ_BASE + QuadratureISR__INTC_NUMBER];
 125              		.loc 1 220 0
 126              		.cfi_startproc
 127              		@ args = 0, pretend = 0, frame = 0
 128              		@ frame_needed = 0, uses_anonymous_args = 0
 129              		@ link register save eliminated.
 221:Generated_Source\PSoC4/QuadratureISR.c **** }
 130              		.loc 1 221 0
 131 0000 014B     		ldr	r3, .L9
 222:Generated_Source\PSoC4/QuadratureISR.c **** 
 132              		.loc 1 222 0
 133              		@ sp needed
 221:Generated_Source\PSoC4/QuadratureISR.c **** }
 134              		.loc 1 221 0
 135 0002 186C     		ldr	r0, [r3, #64]
 222:Generated_Source\PSoC4/QuadratureISR.c **** 
 136              		.loc 1 222 0
 137 0004 7047     		bx	lr
 138              	.L10:
 139 0006 C046     		.align	2
 140              	.L9:
 141 0008 00000000 		.word	CyRamVectors
 142              		.cfi_endproc
 143              	.LFE5:
 144              		.size	QuadratureISR_GetVector, .-QuadratureISR_GetVector
 145              		.section	.text.QuadratureISR_SetPriority,"ax",%progbits
 146              		.align	1
 147              		.global	QuadratureISR_SetPriority
 148              		.code	16
 149              		.thumb_func
 150              		.type	QuadratureISR_SetPriority, %function
ARM GAS  C:\Users\VIDEOH~1\AppData\Local\Temp\cc6V5Gdt.s 			page 10


 151              	QuadratureISR_SetPriority:
 152              	.LFB6:
 250:Generated_Source\PSoC4/QuadratureISR.c **** 	uint8 interruptState;
 153              		.loc 1 250 0
 154              		.cfi_startproc
 155              		@ args = 0, pretend = 0, frame = 0
 156              		@ frame_needed = 0, uses_anonymous_args = 0
 157              	.LVL3:
 158 0000 10B5     		push	{r4, lr}
 159              		.cfi_def_cfa_offset 8
 160              		.cfi_offset 4, -8
 161              		.cfi_offset 14, -4
 250:Generated_Source\PSoC4/QuadratureISR.c **** 	uint8 interruptState;
 162              		.loc 1 250 0
 163 0002 0400     		movs	r4, r0
 254:Generated_Source\PSoC4/QuadratureISR.c ****     *QuadratureISR_INTC_PRIOR = (*QuadratureISR_INTC_PRIOR & (uint32)(~QuadratureISR__INTC_PRIOR_MA
 164              		.loc 1 254 0
 165 0004 FFF7FEFF 		bl	CyEnterCriticalSection
 166              	.LVL4:
 255:Generated_Source\PSoC4/QuadratureISR.c ****                                     ((uint32)priority << priorityOffset);
 167              		.loc 1 255 0
 168 0008 C021     		movs	r1, #192
 169 000a 044A     		ldr	r2, .L12
 170 000c A401     		lsls	r4, r4, #6
 171 000e 1368     		ldr	r3, [r2]
 258:Generated_Source\PSoC4/QuadratureISR.c **** 
 172              		.loc 1 258 0
 173              		@ sp needed
 255:Generated_Source\PSoC4/QuadratureISR.c ****                                     ((uint32)priority << priorityOffset);
 174              		.loc 1 255 0
 175 0010 8B43     		bics	r3, r1
 176 0012 1C43     		orrs	r4, r3
 177 0014 1460     		str	r4, [r2]
 257:Generated_Source\PSoC4/QuadratureISR.c **** }
 178              		.loc 1 257 0
 179 0016 FFF7FEFF 		bl	CyExitCriticalSection
 180              	.LVL5:
 258:Generated_Source\PSoC4/QuadratureISR.c **** 
 181              		.loc 1 258 0
 182 001a 10BD     		pop	{r4, pc}
 183              	.L13:
 184              		.align	2
 185              	.L12:
 186 001c 00E400E0 		.word	-536812544
 187              		.cfi_endproc
 188              	.LFE6:
 189              		.size	QuadratureISR_SetPriority, .-QuadratureISR_SetPriority
 190              		.section	.text.QuadratureISR_Start,"ax",%progbits
 191              		.align	1
 192              		.global	QuadratureISR_Start
 193              		.code	16
 194              		.thumb_func
 195              		.type	QuadratureISR_Start, %function
 196              	QuadratureISR_Start:
 197              	.LFB0:
  57:Generated_Source\PSoC4/QuadratureISR.c ****     /* For all we know the interrupt is active. */
 198              		.loc 1 57 0
ARM GAS  C:\Users\VIDEOH~1\AppData\Local\Temp\cc6V5Gdt.s 			page 11


 199              		.cfi_startproc
 200              		@ args = 0, pretend = 0, frame = 0
 201              		@ frame_needed = 0, uses_anonymous_args = 0
 202 0000 10B5     		push	{r4, lr}
 203              		.cfi_def_cfa_offset 8
 204              		.cfi_offset 4, -8
 205              		.cfi_offset 14, -4
 206              	.LBB24:
 207              	.LBB25:
 208              		.loc 1 349 0
 209 0002 0124     		movs	r4, #1
 210 0004 054B     		ldr	r3, .L15
 211              	.LBE25:
 212              	.LBE24:
 213              	.LBB27:
 214              	.LBB28:
 201:Generated_Source\PSoC4/QuadratureISR.c **** }
 215              		.loc 1 201 0
 216 0006 064A     		ldr	r2, .L15+4
 217              	.LBE28:
 218              	.LBE27:
 219              	.LBB31:
 220              	.LBB26:
 221              		.loc 1 349 0
 222 0008 1C60     		str	r4, [r3]
 223              	.LVL6:
 224              	.LBE26:
 225              	.LBE31:
 226              	.LBB32:
 227              	.LBB29:
 201:Generated_Source\PSoC4/QuadratureISR.c **** }
 228              		.loc 1 201 0
 229 000a 064B     		ldr	r3, .L15+8
 230              	.LBE29:
 231              	.LBE32:
  65:Generated_Source\PSoC4/QuadratureISR.c **** 
 232              		.loc 1 65 0
 233 000c 0320     		movs	r0, #3
 234              	.LBB33:
 235              	.LBB30:
 201:Generated_Source\PSoC4/QuadratureISR.c **** }
 236              		.loc 1 201 0
 237 000e 1A64     		str	r2, [r3, #64]
 238              	.LVL7:
 239              	.LBE30:
 240              	.LBE33:
  65:Generated_Source\PSoC4/QuadratureISR.c **** 
 241              		.loc 1 65 0
 242 0010 FFF7FEFF 		bl	QuadratureISR_SetPriority
 243              	.LVL8:
 244              	.LBB34:
 245              	.LBB35:
 307:Generated_Source\PSoC4/QuadratureISR.c **** }
 246              		.loc 1 307 0
 247 0014 044B     		ldr	r3, .L15+12
 248              	.LBE35:
 249              	.LBE34:
ARM GAS  C:\Users\VIDEOH~1\AppData\Local\Temp\cc6V5Gdt.s 			page 12


  69:Generated_Source\PSoC4/QuadratureISR.c **** 
 250              		.loc 1 69 0
 251              		@ sp needed
 252              	.LBB37:
 253              	.LBB36:
 307:Generated_Source\PSoC4/QuadratureISR.c **** }
 254              		.loc 1 307 0
 255 0016 1C60     		str	r4, [r3]
 256              	.LBE36:
 257              	.LBE37:
  69:Generated_Source\PSoC4/QuadratureISR.c **** 
 258              		.loc 1 69 0
 259 0018 10BD     		pop	{r4, pc}
 260              	.L16:
 261 001a C046     		.align	2
 262              	.L15:
 263 001c 80E100E0 		.word	-536813184
 264 0020 00000000 		.word	QuadratureISR_Interrupt
 265 0024 00000000 		.word	CyRamVectors
 266 0028 00E100E0 		.word	-536813312
 267              		.cfi_endproc
 268              	.LFE0:
 269              		.size	QuadratureISR_Start, .-QuadratureISR_Start
 270              		.section	.text.QuadratureISR_StartEx,"ax",%progbits
 271              		.align	1
 272              		.global	QuadratureISR_StartEx
 273              		.code	16
 274              		.thumb_func
 275              		.type	QuadratureISR_StartEx, %function
 276              	QuadratureISR_StartEx:
 277              	.LFB1:
 100:Generated_Source\PSoC4/QuadratureISR.c ****     /* For all we know the interrupt is active. */
 278              		.loc 1 100 0
 279              		.cfi_startproc
 280              		@ args = 0, pretend = 0, frame = 0
 281              		@ frame_needed = 0, uses_anonymous_args = 0
 282              	.LVL9:
 283 0000 10B5     		push	{r4, lr}
 284              		.cfi_def_cfa_offset 8
 285              		.cfi_offset 4, -8
 286              		.cfi_offset 14, -4
 287              	.LBB38:
 288              	.LBB39:
 289              		.loc 1 349 0
 290 0002 0124     		movs	r4, #1
 291 0004 044B     		ldr	r3, .L18
 292              	.LBE39:
 293              	.LBE38:
 112:Generated_Source\PSoC4/QuadratureISR.c **** 
 294              		.loc 1 112 0
 295              		@ sp needed
 296              	.LBB41:
 297              	.LBB40:
 298              		.loc 1 349 0
 299 0006 1C60     		str	r4, [r3]
 300              	.LVL10:
 301              	.LBE40:
ARM GAS  C:\Users\VIDEOH~1\AppData\Local\Temp\cc6V5Gdt.s 			page 13


 302              	.LBE41:
 303              	.LBB42:
 304              	.LBB43:
 201:Generated_Source\PSoC4/QuadratureISR.c **** }
 305              		.loc 1 201 0
 306 0008 044B     		ldr	r3, .L18+4
 307 000a 1864     		str	r0, [r3, #64]
 308              	.LVL11:
 309              	.LBE43:
 310              	.LBE42:
 108:Generated_Source\PSoC4/QuadratureISR.c **** 
 311              		.loc 1 108 0
 312 000c 0320     		movs	r0, #3
 313              	.LVL12:
 314 000e FFF7FEFF 		bl	QuadratureISR_SetPriority
 315              	.LVL13:
 316              	.LBB44:
 317              	.LBB45:
 307:Generated_Source\PSoC4/QuadratureISR.c **** }
 318              		.loc 1 307 0
 319 0012 034B     		ldr	r3, .L18+8
 320 0014 1C60     		str	r4, [r3]
 321              	.LBE45:
 322              	.LBE44:
 112:Generated_Source\PSoC4/QuadratureISR.c **** 
 323              		.loc 1 112 0
 324 0016 10BD     		pop	{r4, pc}
 325              	.L19:
 326              		.align	2
 327              	.L18:
 328 0018 80E100E0 		.word	-536813184
 329 001c 00000000 		.word	CyRamVectors
 330 0020 00E100E0 		.word	-536813312
 331              		.cfi_endproc
 332              	.LFE1:
 333              		.size	QuadratureISR_StartEx, .-QuadratureISR_StartEx
 334              		.section	.text.QuadratureISR_GetPriority,"ax",%progbits
 335              		.align	1
 336              		.global	QuadratureISR_GetPriority
 337              		.code	16
 338              		.thumb_func
 339              		.type	QuadratureISR_GetPriority, %function
 340              	QuadratureISR_GetPriority:
 341              	.LFB7:
 278:Generated_Source\PSoC4/QuadratureISR.c ****     uint32 priority;
 342              		.loc 1 278 0
 343              		.cfi_startproc
 344              		@ args = 0, pretend = 0, frame = 0
 345              		@ frame_needed = 0, uses_anonymous_args = 0
 346              		@ link register save eliminated.
 347              	.LVL14:
 282:Generated_Source\PSoC4/QuadratureISR.c **** 
 348              		.loc 1 282 0
 349 0000 024B     		ldr	r3, .L21
 285:Generated_Source\PSoC4/QuadratureISR.c **** 
 350              		.loc 1 285 0
 351              		@ sp needed
ARM GAS  C:\Users\VIDEOH~1\AppData\Local\Temp\cc6V5Gdt.s 			page 14


 282:Generated_Source\PSoC4/QuadratureISR.c **** 
 352              		.loc 1 282 0
 353 0002 1868     		ldr	r0, [r3]
 354              	.LVL15:
 284:Generated_Source\PSoC4/QuadratureISR.c **** }
 355              		.loc 1 284 0
 356 0004 0006     		lsls	r0, r0, #24
 357              	.LVL16:
 358 0006 800F     		lsrs	r0, r0, #30
 285:Generated_Source\PSoC4/QuadratureISR.c **** 
 359              		.loc 1 285 0
 360 0008 7047     		bx	lr
 361              	.L22:
 362 000a C046     		.align	2
 363              	.L21:
 364 000c 00E400E0 		.word	-536812544
 365              		.cfi_endproc
 366              	.LFE7:
 367              		.size	QuadratureISR_GetPriority, .-QuadratureISR_GetPriority
 368              		.section	.text.QuadratureISR_Enable,"ax",%progbits
 369              		.align	1
 370              		.global	QuadratureISR_Enable
 371              		.code	16
 372              		.thumb_func
 373              		.type	QuadratureISR_Enable, %function
 374              	QuadratureISR_Enable:
 375              	.LFB8:
 305:Generated_Source\PSoC4/QuadratureISR.c ****     /* Enable the general interrupt. */
 376              		.loc 1 305 0
 377              		.cfi_startproc
 378              		@ args = 0, pretend = 0, frame = 0
 379              		@ frame_needed = 0, uses_anonymous_args = 0
 380              		@ link register save eliminated.
 307:Generated_Source\PSoC4/QuadratureISR.c **** }
 381              		.loc 1 307 0
 382 0000 0122     		movs	r2, #1
 383 0002 014B     		ldr	r3, .L24
 308:Generated_Source\PSoC4/QuadratureISR.c **** 
 384              		.loc 1 308 0
 385              		@ sp needed
 307:Generated_Source\PSoC4/QuadratureISR.c **** }
 386              		.loc 1 307 0
 387 0004 1A60     		str	r2, [r3]
 308:Generated_Source\PSoC4/QuadratureISR.c **** 
 388              		.loc 1 308 0
 389 0006 7047     		bx	lr
 390              	.L25:
 391              		.align	2
 392              	.L24:
 393 0008 00E100E0 		.word	-536813312
 394              		.cfi_endproc
 395              	.LFE8:
 396              		.size	QuadratureISR_Enable, .-QuadratureISR_Enable
 397              		.section	.text.QuadratureISR_GetState,"ax",%progbits
 398              		.align	1
 399              		.global	QuadratureISR_GetState
 400              		.code	16
ARM GAS  C:\Users\VIDEOH~1\AppData\Local\Temp\cc6V5Gdt.s 			page 15


 401              		.thumb_func
 402              		.type	QuadratureISR_GetState, %function
 403              	QuadratureISR_GetState:
 404              	.LFB9:
 326:Generated_Source\PSoC4/QuadratureISR.c ****     /* Get the state of the general interrupt. */
 405              		.loc 1 326 0
 406              		.cfi_startproc
 407              		@ args = 0, pretend = 0, frame = 0
 408              		@ frame_needed = 0, uses_anonymous_args = 0
 409              		@ link register save eliminated.
 328:Generated_Source\PSoC4/QuadratureISR.c **** }
 410              		.loc 1 328 0
 411 0000 024B     		ldr	r3, .L27
 329:Generated_Source\PSoC4/QuadratureISR.c **** 
 412              		.loc 1 329 0
 413              		@ sp needed
 328:Generated_Source\PSoC4/QuadratureISR.c **** }
 414              		.loc 1 328 0
 415 0002 1868     		ldr	r0, [r3]
 416 0004 0123     		movs	r3, #1
 417 0006 1840     		ands	r0, r3
 329:Generated_Source\PSoC4/QuadratureISR.c **** 
 418              		.loc 1 329 0
 419 0008 7047     		bx	lr
 420              	.L28:
 421 000a C046     		.align	2
 422              	.L27:
 423 000c 00E100E0 		.word	-536813312
 424              		.cfi_endproc
 425              	.LFE9:
 426              		.size	QuadratureISR_GetState, .-QuadratureISR_GetState
 427              		.section	.text.QuadratureISR_Disable,"ax",%progbits
 428              		.align	1
 429              		.global	QuadratureISR_Disable
 430              		.code	16
 431              		.thumb_func
 432              		.type	QuadratureISR_Disable, %function
 433              	QuadratureISR_Disable:
 434              	.LFB10:
 347:Generated_Source\PSoC4/QuadratureISR.c ****     /* Disable the general interrupt. */
 435              		.loc 1 347 0
 436              		.cfi_startproc
 437              		@ args = 0, pretend = 0, frame = 0
 438              		@ frame_needed = 0, uses_anonymous_args = 0
 439              		@ link register save eliminated.
 440              		.loc 1 349 0
 441 0000 0122     		movs	r2, #1
 442 0002 014B     		ldr	r3, .L30
 350:Generated_Source\PSoC4/QuadratureISR.c **** }
 443              		.loc 1 350 0
 444              		@ sp needed
 349:Generated_Source\PSoC4/QuadratureISR.c **** }
 445              		.loc 1 349 0
 446 0004 1A60     		str	r2, [r3]
 447              		.loc 1 350 0
 448 0006 7047     		bx	lr
 449              	.L31:
ARM GAS  C:\Users\VIDEOH~1\AppData\Local\Temp\cc6V5Gdt.s 			page 16


 450              		.align	2
 451              	.L30:
 452 0008 80E100E0 		.word	-536813184
 453              		.cfi_endproc
 454              	.LFE10:
 455              		.size	QuadratureISR_Disable, .-QuadratureISR_Disable
 456              		.section	.text.QuadratureISR_SetPending,"ax",%progbits
 457              		.align	1
 458              		.global	QuadratureISR_SetPending
 459              		.code	16
 460              		.thumb_func
 461              		.type	QuadratureISR_SetPending, %function
 462              	QuadratureISR_SetPending:
 463              	.LFB11:
 351:Generated_Source\PSoC4/QuadratureISR.c **** 
 352:Generated_Source\PSoC4/QuadratureISR.c **** 
 353:Generated_Source\PSoC4/QuadratureISR.c **** /*******************************************************************************
 354:Generated_Source\PSoC4/QuadratureISR.c **** * Function Name: QuadratureISR_SetPending
 355:Generated_Source\PSoC4/QuadratureISR.c **** ********************************************************************************
 356:Generated_Source\PSoC4/QuadratureISR.c **** *
 357:Generated_Source\PSoC4/QuadratureISR.c **** * Summary:
 358:Generated_Source\PSoC4/QuadratureISR.c **** *   Causes the Interrupt to enter the pending state, a software method of
 359:Generated_Source\PSoC4/QuadratureISR.c **** *   generating the interrupt.
 360:Generated_Source\PSoC4/QuadratureISR.c **** *
 361:Generated_Source\PSoC4/QuadratureISR.c **** * Parameters:
 362:Generated_Source\PSoC4/QuadratureISR.c **** *   None
 363:Generated_Source\PSoC4/QuadratureISR.c **** *
 364:Generated_Source\PSoC4/QuadratureISR.c **** * Return:
 365:Generated_Source\PSoC4/QuadratureISR.c **** *   None
 366:Generated_Source\PSoC4/QuadratureISR.c **** *
 367:Generated_Source\PSoC4/QuadratureISR.c **** * Side Effects:
 368:Generated_Source\PSoC4/QuadratureISR.c **** *   If interrupts are enabled and the interrupt is set up properly, the ISR is
 369:Generated_Source\PSoC4/QuadratureISR.c **** *   entered (depending on the priority of this interrupt and other pending 
 370:Generated_Source\PSoC4/QuadratureISR.c **** *   interrupts).
 371:Generated_Source\PSoC4/QuadratureISR.c **** *
 372:Generated_Source\PSoC4/QuadratureISR.c **** *******************************************************************************/
 373:Generated_Source\PSoC4/QuadratureISR.c **** void QuadratureISR_SetPending(void)
 374:Generated_Source\PSoC4/QuadratureISR.c **** {
 464              		.loc 1 374 0
 465              		.cfi_startproc
 466              		@ args = 0, pretend = 0, frame = 0
 467              		@ frame_needed = 0, uses_anonymous_args = 0
 468              		@ link register save eliminated.
 375:Generated_Source\PSoC4/QuadratureISR.c ****     *QuadratureISR_INTC_SET_PD = QuadratureISR__INTC_MASK;
 469              		.loc 1 375 0
 470 0000 0122     		movs	r2, #1
 471 0002 014B     		ldr	r3, .L33
 376:Generated_Source\PSoC4/QuadratureISR.c **** }
 472              		.loc 1 376 0
 473              		@ sp needed
 375:Generated_Source\PSoC4/QuadratureISR.c ****     *QuadratureISR_INTC_SET_PD = QuadratureISR__INTC_MASK;
 474              		.loc 1 375 0
 475 0004 1A60     		str	r2, [r3]
 476              		.loc 1 376 0
 477 0006 7047     		bx	lr
 478              	.L34:
 479              		.align	2
ARM GAS  C:\Users\VIDEOH~1\AppData\Local\Temp\cc6V5Gdt.s 			page 17


 480              	.L33:
 481 0008 00E200E0 		.word	-536813056
 482              		.cfi_endproc
 483              	.LFE11:
 484              		.size	QuadratureISR_SetPending, .-QuadratureISR_SetPending
 485              		.section	.text.QuadratureISR_ClearPending,"ax",%progbits
 486              		.align	1
 487              		.global	QuadratureISR_ClearPending
 488              		.code	16
 489              		.thumb_func
 490              		.type	QuadratureISR_ClearPending, %function
 491              	QuadratureISR_ClearPending:
 492              	.LFB12:
 377:Generated_Source\PSoC4/QuadratureISR.c **** 
 378:Generated_Source\PSoC4/QuadratureISR.c **** 
 379:Generated_Source\PSoC4/QuadratureISR.c **** /*******************************************************************************
 380:Generated_Source\PSoC4/QuadratureISR.c **** * Function Name: QuadratureISR_ClearPending
 381:Generated_Source\PSoC4/QuadratureISR.c **** ********************************************************************************
 382:Generated_Source\PSoC4/QuadratureISR.c **** *
 383:Generated_Source\PSoC4/QuadratureISR.c **** * Summary:
 384:Generated_Source\PSoC4/QuadratureISR.c **** *   Clears a pending interrupt in the interrupt controller.
 385:Generated_Source\PSoC4/QuadratureISR.c **** *
 386:Generated_Source\PSoC4/QuadratureISR.c **** *   Note Some interrupt sources are clear-on-read and require the block 
 387:Generated_Source\PSoC4/QuadratureISR.c **** *   interrupt/status register to be read/cleared with the appropriate block API 
 388:Generated_Source\PSoC4/QuadratureISR.c **** *   (GPIO, UART, and so on). Otherwise the ISR will continue to remain in 
 389:Generated_Source\PSoC4/QuadratureISR.c **** *   pending state even though the interrupt itself is cleared using this API.
 390:Generated_Source\PSoC4/QuadratureISR.c **** *
 391:Generated_Source\PSoC4/QuadratureISR.c **** * Parameters:
 392:Generated_Source\PSoC4/QuadratureISR.c **** *   None
 393:Generated_Source\PSoC4/QuadratureISR.c **** *
 394:Generated_Source\PSoC4/QuadratureISR.c **** * Return:
 395:Generated_Source\PSoC4/QuadratureISR.c **** *   None
 396:Generated_Source\PSoC4/QuadratureISR.c **** *
 397:Generated_Source\PSoC4/QuadratureISR.c **** *******************************************************************************/
 398:Generated_Source\PSoC4/QuadratureISR.c **** void QuadratureISR_ClearPending(void)
 399:Generated_Source\PSoC4/QuadratureISR.c **** {
 493              		.loc 1 399 0
 494              		.cfi_startproc
 495              		@ args = 0, pretend = 0, frame = 0
 496              		@ frame_needed = 0, uses_anonymous_args = 0
 497              		@ link register save eliminated.
 400:Generated_Source\PSoC4/QuadratureISR.c ****     *QuadratureISR_INTC_CLR_PD = QuadratureISR__INTC_MASK;
 498              		.loc 1 400 0
 499 0000 0122     		movs	r2, #1
 500 0002 014B     		ldr	r3, .L36
 401:Generated_Source\PSoC4/QuadratureISR.c **** }
 501              		.loc 1 401 0
 502              		@ sp needed
 400:Generated_Source\PSoC4/QuadratureISR.c ****     *QuadratureISR_INTC_CLR_PD = QuadratureISR__INTC_MASK;
 503              		.loc 1 400 0
 504 0004 1A60     		str	r2, [r3]
 505              		.loc 1 401 0
 506 0006 7047     		bx	lr
 507              	.L37:
 508              		.align	2
 509              	.L36:
 510 0008 80E200E0 		.word	-536812928
ARM GAS  C:\Users\VIDEOH~1\AppData\Local\Temp\cc6V5Gdt.s 			page 18


 511              		.cfi_endproc
 512              	.LFE12:
 513              		.size	QuadratureISR_ClearPending, .-QuadratureISR_ClearPending
 514              		.text
 515              	.Letext0:
 516              		.file 2 "Generated_Source\\PSoC4/cytypes.h"
 517              		.file 3 "Generated_Source\\PSoC4/CyLib.h"