ARM GAS  C:\Users\VIDEOH~1\AppData\Local\Temp\ccuqpBu7.s 			page 1


   1              		.syntax unified
   2              		.cpu cortex-m0
   3              		.fpu softvfp
   4              		.eabi_attribute 20, 1
   5              		.eabi_attribute 21, 1
   6              		.eabi_attribute 23, 3
   7              		.eabi_attribute 24, 1
   8              		.eabi_attribute 25, 1
   9              		.eabi_attribute 26, 1
  10              		.eabi_attribute 30, 4
  11              		.eabi_attribute 34, 0
  12              		.eabi_attribute 18, 4
  13              		.thumb
  14              		.syntax unified
  15              		.file	"Thermistor.c"
  16              		.text
  17              	.Ltext0:
  18              		.cfi_sections	.debug_frame
  19              		.global	__aeabi_idiv
  20              		.section	.text.Thermistor_GetResistance,"ax",%progbits
  21              		.align	1
  22              		.global	Thermistor_GetResistance
  23              		.code	16
  24              		.thumb_func
  25              		.type	Thermistor_GetResistance, %function
  26              	Thermistor_GetResistance:
  27              	.LFB0:
  28              		.file 1 "Generated_Source\\PSoC4\\Thermistor.c"
   1:Generated_Source\PSoC4/Thermistor.c **** /*******************************************************************************
   2:Generated_Source\PSoC4/Thermistor.c **** * File Name: Thermistor.c
   3:Generated_Source\PSoC4/Thermistor.c **** * Version 1.20
   4:Generated_Source\PSoC4/Thermistor.c **** *
   5:Generated_Source\PSoC4/Thermistor.c **** * Description:
   6:Generated_Source\PSoC4/Thermistor.c **** *  This file provides the source code to the API for the ThermistorCalc
   7:Generated_Source\PSoC4/Thermistor.c **** *  Component.
   8:Generated_Source\PSoC4/Thermistor.c **** *
   9:Generated_Source\PSoC4/Thermistor.c **** * Note:
  10:Generated_Source\PSoC4/Thermistor.c **** *  None.
  11:Generated_Source\PSoC4/Thermistor.c **** *
  12:Generated_Source\PSoC4/Thermistor.c **** ********************************************************************************
  13:Generated_Source\PSoC4/Thermistor.c **** * Copyright 2013, Cypress Semiconductor Corporation.  All rights reserved.
  14:Generated_Source\PSoC4/Thermistor.c **** * You may use this file only in accordance with the license, terms, conditions,
  15:Generated_Source\PSoC4/Thermistor.c **** * disclaimers, and limitations in the end user license agreement accompanying
  16:Generated_Source\PSoC4/Thermistor.c **** * the software package with which this file was provided.
  17:Generated_Source\PSoC4/Thermistor.c **** *******************************************************************************/
  18:Generated_Source\PSoC4/Thermistor.c **** 
  19:Generated_Source\PSoC4/Thermistor.c **** #include "Thermistor.h"
  20:Generated_Source\PSoC4/Thermistor.c **** 
  21:Generated_Source\PSoC4/Thermistor.c **** 
  22:Generated_Source\PSoC4/Thermistor.c **** /*******************************************************************************
  23:Generated_Source\PSoC4/Thermistor.c **** * Function Name: Thermistor_GetResistance
  24:Generated_Source\PSoC4/Thermistor.c **** ********************************************************************************
  25:Generated_Source\PSoC4/Thermistor.c **** *
  26:Generated_Source\PSoC4/Thermistor.c **** * Summary:
  27:Generated_Source\PSoC4/Thermistor.c **** *  The digital values of the voltages across the reference resistor and the
  28:Generated_Source\PSoC4/Thermistor.c **** *  thermistor are passed to this function as parameters. The function returns
  29:Generated_Source\PSoC4/Thermistor.c **** *  the resistance, based on the voltage values.
ARM GAS  C:\Users\VIDEOH~1\AppData\Local\Temp\ccuqpBu7.s 			page 2


  30:Generated_Source\PSoC4/Thermistor.c **** *
  31:Generated_Source\PSoC4/Thermistor.c **** * Parameters:
  32:Generated_Source\PSoC4/Thermistor.c **** *  vReference: the voltage across the reference resistor;
  33:Generated_Source\PSoC4/Thermistor.c **** *  vThermistor: the voltage across the thermistor.
  34:Generated_Source\PSoC4/Thermistor.c **** *  The ratio of these two voltages is used by this function. Therefore, the
  35:Generated_Source\PSoC4/Thermistor.c **** *  units for both parameters must be the same.
  36:Generated_Source\PSoC4/Thermistor.c **** *
  37:Generated_Source\PSoC4/Thermistor.c **** * Return:
  38:Generated_Source\PSoC4/Thermistor.c **** *  The return value is the resistance across the thermistor. The value returned
  39:Generated_Source\PSoC4/Thermistor.c **** *  is the resistance in Ohms.
  40:Generated_Source\PSoC4/Thermistor.c **** *
  41:Generated_Source\PSoC4/Thermistor.c **** *******************************************************************************/
  42:Generated_Source\PSoC4/Thermistor.c **** uint32 Thermistor_GetResistance(int16 vReference, int16 vThermistor)
  43:Generated_Source\PSoC4/Thermistor.c ****                                       
  44:Generated_Source\PSoC4/Thermistor.c **** {
  29              		.loc 1 44 0
  30              		.cfi_startproc
  31              		@ args = 0, pretend = 0, frame = 0
  32              		@ frame_needed = 0, uses_anonymous_args = 0
  33              	.LVL0:
  45:Generated_Source\PSoC4/Thermistor.c ****     int32 resT;
  46:Generated_Source\PSoC4/Thermistor.c ****     int16 temp;
  47:Generated_Source\PSoC4/Thermistor.c **** 
  48:Generated_Source\PSoC4/Thermistor.c ****     /* Calculate thermistor resistance from the voltages */
  49:Generated_Source\PSoC4/Thermistor.c ****     resT = Thermistor_REF_RESISTOR * ((int32)vThermistor);
  34              		.loc 1 49 0
  35 0000 094B     		ldr	r3, .L5
  44:Generated_Source\PSoC4/Thermistor.c ****     int32 resT;
  36              		.loc 1 44 0
  37 0002 10B5     		push	{r4, lr}
  38              		.cfi_def_cfa_offset 8
  39              		.cfi_offset 4, -8
  40              		.cfi_offset 14, -4
  41              		.loc 1 49 0
  42 0004 5943     		muls	r1, r3
  43              	.LVL1:
  50:Generated_Source\PSoC4/Thermistor.c ****     if (vReference < 0)
  44              		.loc 1 50 0
  45 0006 0028     		cmp	r0, #0
  46 0008 05DA     		bge	.L2
  47              	.LVL2:
  51:Generated_Source\PSoC4/Thermistor.c ****     {
  52:Generated_Source\PSoC4/Thermistor.c ****         temp = -vReference;
  53:Generated_Source\PSoC4/Thermistor.c ****         temp = (int16)((uint16)((uint16)temp >> 1u));
  54:Generated_Source\PSoC4/Thermistor.c ****         temp = -temp;
  48              		.loc 1 54 0
  49 000a 4242     		rsbs	r2, r0, #0
  50 000c 92B2     		uxth	r2, r2
  51 000e 5208     		lsrs	r2, r2, #1
  52 0010 5242     		rsbs	r2, r2, #0
  53 0012 13B2     		sxth	r3, r2
  54              	.LVL3:
  55 0014 01E0     		b	.L3
  56              	.LVL4:
  57              	.L2:
  55:Generated_Source\PSoC4/Thermistor.c ****     }
  56:Generated_Source\PSoC4/Thermistor.c ****     else
ARM GAS  C:\Users\VIDEOH~1\AppData\Local\Temp\ccuqpBu7.s 			page 3


  57:Generated_Source\PSoC4/Thermistor.c ****     {
  58:Generated_Source\PSoC4/Thermistor.c ****         temp = (int16)((uint16)((uint16)vReference >> 1u));
  58              		.loc 1 58 0
  59 0016 83B2     		uxth	r3, r0
  60 0018 5B08     		lsrs	r3, r3, #1
  61              	.LVL5:
  62              	.L3:
  59:Generated_Source\PSoC4/Thermistor.c ****     }
  60:Generated_Source\PSoC4/Thermistor.c ****     resT += temp;
  63              		.loc 1 60 0
  64 001a 5B18     		adds	r3, r3, r1
  65              	.LVL6:
  61:Generated_Source\PSoC4/Thermistor.c ****     resT /= vReference;
  62:Generated_Source\PSoC4/Thermistor.c **** 
  63:Generated_Source\PSoC4/Thermistor.c ****     /* The ordering of Reference resistor value is specifically designed to keep the result from ov
  64:Generated_Source\PSoC4/Thermistor.c ****     return ((uint32)((uint32)resT << Thermistor_REF_RES_SHIFT));
  66              		.loc 1 64 0
  67 001c 0100     		movs	r1, r0
  68 001e 1800     		movs	r0, r3
  69              	.LVL7:
  70 0020 FFF7FEFF 		bl	__aeabi_idiv
  71              	.LVL8:
  65:Generated_Source\PSoC4/Thermistor.c **** }
  72              		.loc 1 65 0
  73              		@ sp needed
  74 0024 10BD     		pop	{r4, pc}
  75              	.L6:
  76 0026 C046     		.align	2
  77              	.L5:
  78 0028 10270000 		.word	10000
  79              		.cfi_endproc
  80              	.LFE0:
  81              		.size	Thermistor_GetResistance, .-Thermistor_GetResistance
  82              		.global	__aeabi_ui2d
  83              		.global	__aeabi_d2f
  84              		.global	__aeabi_f2d
  85              		.global	__aeabi_dmul
  86              		.global	__aeabi_dadd
  87              		.global	__aeabi_ddiv
  88              		.global	__aeabi_dsub
  89              		.global	__aeabi_f2iz
  90              		.section	.text.Thermistor_GetTemperature,"ax",%progbits
  91              		.align	1
  92              		.global	Thermistor_GetTemperature
  93              		.code	16
  94              		.thumb_func
  95              		.type	Thermistor_GetTemperature, %function
  96              	Thermistor_GetTemperature:
  97              	.LFB1:
  66:Generated_Source\PSoC4/Thermistor.c **** 
  67:Generated_Source\PSoC4/Thermistor.c **** 
  68:Generated_Source\PSoC4/Thermistor.c **** /*******************************************************************************
  69:Generated_Source\PSoC4/Thermistor.c **** * Function Name: Thermistor_GetTemperature
  70:Generated_Source\PSoC4/Thermistor.c **** ********************************************************************************
  71:Generated_Source\PSoC4/Thermistor.c **** *
  72:Generated_Source\PSoC4/Thermistor.c **** * Summary:
  73:Generated_Source\PSoC4/Thermistor.c **** *  The value of the thermistor resistance is passed to this function as a
ARM GAS  C:\Users\VIDEOH~1\AppData\Local\Temp\ccuqpBu7.s 			page 4


  74:Generated_Source\PSoC4/Thermistor.c **** *  parameter. The function returns the temperature, based on the resistance
  75:Generated_Source\PSoC4/Thermistor.c **** *  value. The method used to calculate the temperature is dependent on whether
  76:Generated_Source\PSoC4/Thermistor.c **** *  Equation or LUT was selected in the Customizer.
  77:Generated_Source\PSoC4/Thermistor.c **** *
  78:Generated_Source\PSoC4/Thermistor.c **** * Parameters:
  79:Generated_Source\PSoC4/Thermistor.c **** *  resT: the resistance across the thermistor in Ohms.
  80:Generated_Source\PSoC4/Thermistor.c **** *
  81:Generated_Source\PSoC4/Thermistor.c **** * Return:
  82:Generated_Source\PSoC4/Thermistor.c **** *  The return value is the temperature in 1/100ths of degrees C. For example,
  83:Generated_Source\PSoC4/Thermistor.c **** *  the return value is 2345, when the actual temperature is 23.45 degrees C.
  84:Generated_Source\PSoC4/Thermistor.c **** *
  85:Generated_Source\PSoC4/Thermistor.c **** *******************************************************************************/
  86:Generated_Source\PSoC4/Thermistor.c **** int16 Thermistor_GetTemperature(uint32 resT) 
  87:Generated_Source\PSoC4/Thermistor.c **** {
  98              		.loc 1 87 0
  99              		.cfi_startproc
 100              		@ args = 0, pretend = 0, frame = 0
 101              		@ frame_needed = 0, uses_anonymous_args = 0
 102              	.LVL9:
 103 0000 F8B5     		push	{r3, r4, r5, r6, r7, lr}
 104              		.cfi_def_cfa_offset 24
 105              		.cfi_offset 3, -24
 106              		.cfi_offset 4, -20
 107              		.cfi_offset 5, -16
 108              		.cfi_offset 6, -12
 109              		.cfi_offset 7, -8
 110              		.cfi_offset 14, -4
  88:Generated_Source\PSoC4/Thermistor.c ****     int16 tempTR;
  89:Generated_Source\PSoC4/Thermistor.c ****     
  90:Generated_Source\PSoC4/Thermistor.c ****     #if (Thermistor_IMPLEMENTATION == Thermistor_EQUATION_METHOD)
  91:Generated_Source\PSoC4/Thermistor.c **** 
  92:Generated_Source\PSoC4/Thermistor.c ****         float32 stEqn;
  93:Generated_Source\PSoC4/Thermistor.c ****         float32 logrT;
  94:Generated_Source\PSoC4/Thermistor.c **** 
  95:Generated_Source\PSoC4/Thermistor.c ****         /* Calculate thermistor resistance from the voltages */
  96:Generated_Source\PSoC4/Thermistor.c ****         #if(!CY_PSOC3)
  97:Generated_Source\PSoC4/Thermistor.c ****             logrT = (float32)log((float64)resT);
 111              		.loc 1 97 0
 112 0002 FFF7FEFF 		bl	__aeabi_ui2d
 113              	.LVL10:
 114 0006 FFF7FEFF 		bl	log
 115              	.LVL11:
  98:Generated_Source\PSoC4/Thermistor.c ****         #else
  99:Generated_Source\PSoC4/Thermistor.c ****             logrT = log((float32)resT);
 100:Generated_Source\PSoC4/Thermistor.c ****         #endif  /* (!CY_PSOC3) */
 101:Generated_Source\PSoC4/Thermistor.c **** 
 102:Generated_Source\PSoC4/Thermistor.c ****         /* Calculate temperature from the resistance of thermistor using Steinhart-Hart Equation */
 103:Generated_Source\PSoC4/Thermistor.c ****         #if(!CY_PSOC3)
 104:Generated_Source\PSoC4/Thermistor.c ****             stEqn = (float32)(Thermistor_THA + (Thermistor_THB * logrT) + 
 116              		.loc 1 104 0
 117 000a FFF7FEFF 		bl	__aeabi_d2f
 118              	.LVL12:
 119 000e FFF7FEFF 		bl	__aeabi_f2d
 120              	.LVL13:
 105:Generated_Source\PSoC4/Thermistor.c ****                              (Thermistor_THC * pow((float64)logrT, (float32)3)));
 121              		.loc 1 105 0
 122 0012 0022     		movs	r2, #0
ARM GAS  C:\Users\VIDEOH~1\AppData\Local\Temp\ccuqpBu7.s 			page 5


 123 0014 1D4B     		ldr	r3, .L8
 104:Generated_Source\PSoC4/Thermistor.c ****                              (Thermistor_THC * pow((float64)logrT, (float32)3)));
 124              		.loc 1 104 0
 125 0016 0400     		movs	r4, r0
 126 0018 0D00     		movs	r5, r1
 127              		.loc 1 105 0
 128 001a FFF7FEFF 		bl	pow
 129              	.LVL14:
 106:Generated_Source\PSoC4/Thermistor.c ****         #else
 107:Generated_Source\PSoC4/Thermistor.c ****             stEqn = (float32)(Thermistor_THA + (Thermistor_THB * logrT) + 
 108:Generated_Source\PSoC4/Thermistor.c ****                              (Thermistor_THC * pow(logrT, (float32)3)));
 109:Generated_Source\PSoC4/Thermistor.c ****         #endif  /* (!CY_PSOC3) */
 110:Generated_Source\PSoC4/Thermistor.c **** 
 111:Generated_Source\PSoC4/Thermistor.c ****         tempTR = (int16)((float32)((((1.0 / stEqn) - Thermistor_K2C) * (float32)Thermistor_SCALE) +
 112:Generated_Source\PSoC4/Thermistor.c **** 
 113:Generated_Source\PSoC4/Thermistor.c ****     #else /* Thermistor_IMPLEMENTATION == Thermistor_LUT_METHOD */
 114:Generated_Source\PSoC4/Thermistor.c **** 
 115:Generated_Source\PSoC4/Thermistor.c ****         uint16 mid;
 116:Generated_Source\PSoC4/Thermistor.c ****         uint16 first = 0u;
 117:Generated_Source\PSoC4/Thermistor.c ****         uint16 last = Thermistor_LUT_SIZE - 1u;
 118:Generated_Source\PSoC4/Thermistor.c **** 
 119:Generated_Source\PSoC4/Thermistor.c ****         /* Calculate temperature from the resistance of thermistor by using the LUT */
 120:Generated_Source\PSoC4/Thermistor.c ****         while (first < last)
 121:Generated_Source\PSoC4/Thermistor.c ****         {
 122:Generated_Source\PSoC4/Thermistor.c ****             mid = (first + last) >> 1u;
 123:Generated_Source\PSoC4/Thermistor.c **** 
 124:Generated_Source\PSoC4/Thermistor.c ****             if ((0u == mid) || ((Thermistor_LUT_SIZE - 1u) == mid) || (resT == Thermistor_LUT[mid])
 125:Generated_Source\PSoC4/Thermistor.c ****             {
 126:Generated_Source\PSoC4/Thermistor.c ****                 last = mid;
 127:Generated_Source\PSoC4/Thermistor.c ****                 break;
 128:Generated_Source\PSoC4/Thermistor.c ****             }
 129:Generated_Source\PSoC4/Thermistor.c ****             else if (Thermistor_LUT[mid] > resT)
 130:Generated_Source\PSoC4/Thermistor.c ****             {
 131:Generated_Source\PSoC4/Thermistor.c ****                 first = mid + 1u;
 132:Generated_Source\PSoC4/Thermistor.c ****             }
 133:Generated_Source\PSoC4/Thermistor.c ****             else /* (Thermistor_LUT[mid] < resT) */
 134:Generated_Source\PSoC4/Thermistor.c ****             {
 135:Generated_Source\PSoC4/Thermistor.c ****                 last = mid - 1u;
 136:Generated_Source\PSoC4/Thermistor.c ****             }
 137:Generated_Source\PSoC4/Thermistor.c ****         }
 138:Generated_Source\PSoC4/Thermistor.c **** 
 139:Generated_Source\PSoC4/Thermistor.c ****         /* Calculation the closest entry in the LUT */
 140:Generated_Source\PSoC4/Thermistor.c ****         if ((Thermistor_LUT[last] > resT) && (last < (Thermistor_LUT_SIZE - 1u)) &&
 141:Generated_Source\PSoC4/Thermistor.c ****            ((Thermistor_LUT[last] - resT) > (resT - Thermistor_LUT[last + 1u])))
 142:Generated_Source\PSoC4/Thermistor.c ****         {
 143:Generated_Source\PSoC4/Thermistor.c ****             last++;
 144:Generated_Source\PSoC4/Thermistor.c ****         }
 145:Generated_Source\PSoC4/Thermistor.c ****         else if ((Thermistor_LUT[last] < resT) && (last > 0u) &&
 146:Generated_Source\PSoC4/Thermistor.c ****                 ((Thermistor_LUT[last - 1u] - resT) < (resT - Thermistor_LUT[last])))
 147:Generated_Source\PSoC4/Thermistor.c ****         {
 148:Generated_Source\PSoC4/Thermistor.c ****             last--;
 149:Generated_Source\PSoC4/Thermistor.c ****         }
 150:Generated_Source\PSoC4/Thermistor.c ****         else
 151:Generated_Source\PSoC4/Thermistor.c ****         {
 152:Generated_Source\PSoC4/Thermistor.c ****             /* Closest entry in the LUT already found */
 153:Generated_Source\PSoC4/Thermistor.c ****         }
 154:Generated_Source\PSoC4/Thermistor.c **** 
ARM GAS  C:\Users\VIDEOH~1\AppData\Local\Temp\ccuqpBu7.s 			page 6


 155:Generated_Source\PSoC4/Thermistor.c ****         tempTR = Thermistor_MIN_TEMP + (int16)((uint16)(last * Thermistor_ACCURACY));
 156:Generated_Source\PSoC4/Thermistor.c **** 
 157:Generated_Source\PSoC4/Thermistor.c ****     #endif /* (Thermistor_IMPLEMENTATION == Thermistor_EQUATION_METHOD) */
 158:Generated_Source\PSoC4/Thermistor.c **** 
 159:Generated_Source\PSoC4/Thermistor.c ****     return (tempTR);
 130              		.loc 1 159 0
 131 001e 1C4A     		ldr	r2, .L8+4
 105:Generated_Source\PSoC4/Thermistor.c ****         #else
 132              		.loc 1 105 0
 133 0020 0600     		movs	r6, r0
 134 0022 0F00     		movs	r7, r1
 135              	.LVL15:
 136              		.loc 1 159 0
 137 0024 1B4B     		ldr	r3, .L8+8
 138 0026 2000     		movs	r0, r4
 139 0028 2900     		movs	r1, r5
 140 002a FFF7FEFF 		bl	__aeabi_dmul
 141              	.LVL16:
 142 002e 1A4A     		ldr	r2, .L8+12
 143 0030 1A4B     		ldr	r3, .L8+16
 144 0032 FFF7FEFF 		bl	__aeabi_dadd
 145              	.LVL17:
 146 0036 1A4A     		ldr	r2, .L8+20
 147 0038 0D00     		movs	r5, r1
 148 003a 0400     		movs	r4, r0
 149              	.LVL18:
 150 003c 3900     		movs	r1, r7
 151 003e 3000     		movs	r0, r6
 152 0040 184B     		ldr	r3, .L8+24
 153 0042 FFF7FEFF 		bl	__aeabi_dmul
 154              	.LVL19:
 155 0046 0200     		movs	r2, r0
 156 0048 0B00     		movs	r3, r1
 157 004a 2000     		movs	r0, r4
 158 004c 2900     		movs	r1, r5
 159 004e FFF7FEFF 		bl	__aeabi_dadd
 160              	.LVL20:
 161 0052 FFF7FEFF 		bl	__aeabi_d2f
 162              	.LVL21:
 163 0056 FFF7FEFF 		bl	__aeabi_f2d
 164              	.LVL22:
 165 005a 0200     		movs	r2, r0
 166 005c 0B00     		movs	r3, r1
 167 005e 0020     		movs	r0, #0
 168 0060 1149     		ldr	r1, .L8+28
 169 0062 FFF7FEFF 		bl	__aeabi_ddiv
 170              	.LVL23:
 171 0066 114A     		ldr	r2, .L8+32
 172 0068 114B     		ldr	r3, .L8+36
 173 006a FFF7FEFF 		bl	__aeabi_dsub
 174              	.LVL24:
 175 006e 0022     		movs	r2, #0
 176 0070 104B     		ldr	r3, .L8+40
 177 0072 FFF7FEFF 		bl	__aeabi_dmul
 178              	.LVL25:
 179 0076 0022     		movs	r2, #0
 180 0078 0F4B     		ldr	r3, .L8+44
ARM GAS  C:\Users\VIDEOH~1\AppData\Local\Temp\ccuqpBu7.s 			page 7


 181 007a FFF7FEFF 		bl	__aeabi_dadd
 182              	.LVL26:
 183 007e FFF7FEFF 		bl	__aeabi_d2f
 184              	.LVL27:
 185 0082 FFF7FEFF 		bl	__aeabi_f2iz
 186              	.LVL28:
 160:Generated_Source\PSoC4/Thermistor.c **** }
 187              		.loc 1 160 0
 188              		@ sp needed
 159:Generated_Source\PSoC4/Thermistor.c **** }
 189              		.loc 1 159 0
 190 0086 00B2     		sxth	r0, r0
 191              		.loc 1 160 0
 192 0088 F8BD     		pop	{r3, r4, r5, r6, r7, pc}
 193              	.L9:
 194 008a C046     		.align	2
 195              	.L8:
 196 008c 00000840 		.word	1074266112
 197 0090 32AB2B2A 		.word	707504946
 198 0094 D8022F3F 		.word	1060045528
 199 0098 046B115B 		.word	1527868164
 200 009c BE51523F 		.word	1062359486
 201 00a0 F7468F9C 		.word	-1668331785
 202 00a4 9D80733E 		.word	1047756957
 203 00a8 0000F03F 		.word	1072693248
 204 00ac 66666666 		.word	1717986918
 205 00b0 66127140 		.word	1081152102
 206 00b4 00005940 		.word	1079574528
 207 00b8 0000E03F 		.word	1071644672
 208              		.cfi_endproc
 209              	.LFE1:
 210              		.size	Thermistor_GetTemperature, .-Thermistor_GetTemperature
 211              		.text
 212              	.Letext0:
 213              		.file 2 "Generated_Source\\PSoC4\\cytypes.h"
 214              		.file 3 "c:\\program files (x86)\\cypress\\psoc creator\\4.2\\psoc creator\\import\\gnu\\arm\\5.4.