ARM GAS  C:\Users\VIDEOH~1\AppData\Local\Temp\cczEvYY1.s 			page 1


   1              		.syntax unified
   2              		.cpu cortex-m0
   3              		.fpu softvfp
   4              		.eabi_attribute 20, 1
   5              		.eabi_attribute 21, 1
   6              		.eabi_attribute 23, 3
   7              		.eabi_attribute 24, 1
   8              		.eabi_attribute 25, 1
   9              		.eabi_attribute 26, 1
  10              		.eabi_attribute 30, 4
  11              		.eabi_attribute 34, 0
  12              		.eabi_attribute 18, 4
  13              		.thumb
  14              		.syntax unified
  15              		.file	"UART_Clock.c"
  16              		.text
  17              	.Ltext0:
  18              		.cfi_sections	.debug_frame
  19              		.section	.text.UART_Clock_Start,"ax",%progbits
  20              		.align	1
  21              		.global	UART_Clock_Start
  22              		.code	16
  23              		.thumb_func
  24              		.type	UART_Clock_Start, %function
  25              	UART_Clock_Start:
  26              	.LFB0:
  27              		.file 1 "Generated_Source\\PSoC4\\UART_Clock.c"
   1:Generated_Source\PSoC4/UART_Clock.c **** /*******************************************************************************
   2:Generated_Source\PSoC4/UART_Clock.c **** * File Name: UART_Clock.c
   3:Generated_Source\PSoC4/UART_Clock.c **** * Version 2.20
   4:Generated_Source\PSoC4/UART_Clock.c **** *
   5:Generated_Source\PSoC4/UART_Clock.c **** *  Description:
   6:Generated_Source\PSoC4/UART_Clock.c **** *   Provides system API for the clocking, interrupts and watchdog timer.
   7:Generated_Source\PSoC4/UART_Clock.c **** *
   8:Generated_Source\PSoC4/UART_Clock.c **** *  Note:
   9:Generated_Source\PSoC4/UART_Clock.c **** *   Documentation of the API's in this file is located in the
  10:Generated_Source\PSoC4/UART_Clock.c **** *   System Reference Guide provided with PSoC Creator.
  11:Generated_Source\PSoC4/UART_Clock.c **** *
  12:Generated_Source\PSoC4/UART_Clock.c **** ********************************************************************************
  13:Generated_Source\PSoC4/UART_Clock.c **** * Copyright 2008-2012, Cypress Semiconductor Corporation.  All rights reserved.
  14:Generated_Source\PSoC4/UART_Clock.c **** * You may use this file only in accordance with the license, terms, conditions,
  15:Generated_Source\PSoC4/UART_Clock.c **** * disclaimers, and limitations in the end user license agreement accompanying
  16:Generated_Source\PSoC4/UART_Clock.c **** * the software package with which this file was provided.
  17:Generated_Source\PSoC4/UART_Clock.c **** *******************************************************************************/
  18:Generated_Source\PSoC4/UART_Clock.c **** 
  19:Generated_Source\PSoC4/UART_Clock.c **** #include <cydevice_trm.h>
  20:Generated_Source\PSoC4/UART_Clock.c **** #include "UART_Clock.h"
  21:Generated_Source\PSoC4/UART_Clock.c **** 
  22:Generated_Source\PSoC4/UART_Clock.c **** #if defined CYREG_PERI_DIV_CMD
  23:Generated_Source\PSoC4/UART_Clock.c **** 
  24:Generated_Source\PSoC4/UART_Clock.c **** /*******************************************************************************
  25:Generated_Source\PSoC4/UART_Clock.c **** * Function Name: UART_Clock_StartEx
  26:Generated_Source\PSoC4/UART_Clock.c **** ********************************************************************************
  27:Generated_Source\PSoC4/UART_Clock.c **** *
  28:Generated_Source\PSoC4/UART_Clock.c **** * Summary:
  29:Generated_Source\PSoC4/UART_Clock.c **** *  Starts the clock, aligned to the specified running clock.
  30:Generated_Source\PSoC4/UART_Clock.c **** *
ARM GAS  C:\Users\VIDEOH~1\AppData\Local\Temp\cczEvYY1.s 			page 2


  31:Generated_Source\PSoC4/UART_Clock.c **** * Parameters:
  32:Generated_Source\PSoC4/UART_Clock.c **** *  alignClkDiv:  The divider to which phase alignment is performed when the
  33:Generated_Source\PSoC4/UART_Clock.c **** *    clock is started.
  34:Generated_Source\PSoC4/UART_Clock.c **** *
  35:Generated_Source\PSoC4/UART_Clock.c **** * Returns:
  36:Generated_Source\PSoC4/UART_Clock.c **** *  None
  37:Generated_Source\PSoC4/UART_Clock.c **** *
  38:Generated_Source\PSoC4/UART_Clock.c **** *******************************************************************************/
  39:Generated_Source\PSoC4/UART_Clock.c **** void UART_Clock_StartEx(uint32 alignClkDiv)
  40:Generated_Source\PSoC4/UART_Clock.c **** {
  41:Generated_Source\PSoC4/UART_Clock.c ****     /* Make sure any previous start command has finished. */
  42:Generated_Source\PSoC4/UART_Clock.c ****     while((UART_Clock_CMD_REG & UART_Clock_CMD_ENABLE_MASK) != 0u)
  43:Generated_Source\PSoC4/UART_Clock.c ****     {
  44:Generated_Source\PSoC4/UART_Clock.c ****     }
  45:Generated_Source\PSoC4/UART_Clock.c ****     
  46:Generated_Source\PSoC4/UART_Clock.c ****     /* Specify the target divider and it's alignment divider, and enable. */
  47:Generated_Source\PSoC4/UART_Clock.c ****     UART_Clock_CMD_REG =
  48:Generated_Source\PSoC4/UART_Clock.c ****         ((uint32)UART_Clock__DIV_ID << UART_Clock_CMD_DIV_SHIFT)|
  49:Generated_Source\PSoC4/UART_Clock.c ****         (alignClkDiv << UART_Clock_CMD_PA_DIV_SHIFT) |
  50:Generated_Source\PSoC4/UART_Clock.c ****         (uint32)UART_Clock_CMD_ENABLE_MASK;
  51:Generated_Source\PSoC4/UART_Clock.c **** }
  52:Generated_Source\PSoC4/UART_Clock.c **** 
  53:Generated_Source\PSoC4/UART_Clock.c **** #else
  54:Generated_Source\PSoC4/UART_Clock.c **** 
  55:Generated_Source\PSoC4/UART_Clock.c **** /*******************************************************************************
  56:Generated_Source\PSoC4/UART_Clock.c **** * Function Name: UART_Clock_Start
  57:Generated_Source\PSoC4/UART_Clock.c **** ********************************************************************************
  58:Generated_Source\PSoC4/UART_Clock.c **** *
  59:Generated_Source\PSoC4/UART_Clock.c **** * Summary:
  60:Generated_Source\PSoC4/UART_Clock.c **** *  Starts the clock.
  61:Generated_Source\PSoC4/UART_Clock.c **** *
  62:Generated_Source\PSoC4/UART_Clock.c **** * Parameters:
  63:Generated_Source\PSoC4/UART_Clock.c **** *  None
  64:Generated_Source\PSoC4/UART_Clock.c **** *
  65:Generated_Source\PSoC4/UART_Clock.c **** * Returns:
  66:Generated_Source\PSoC4/UART_Clock.c **** *  None
  67:Generated_Source\PSoC4/UART_Clock.c **** *
  68:Generated_Source\PSoC4/UART_Clock.c **** *******************************************************************************/
  69:Generated_Source\PSoC4/UART_Clock.c **** 
  70:Generated_Source\PSoC4/UART_Clock.c **** void UART_Clock_Start(void)
  71:Generated_Source\PSoC4/UART_Clock.c **** {
  28              		.loc 1 71 0
  29              		.cfi_startproc
  30              		@ args = 0, pretend = 0, frame = 0
  31              		@ frame_needed = 0, uses_anonymous_args = 0
  32              		@ link register save eliminated.
  72:Generated_Source\PSoC4/UART_Clock.c ****     /* Set the bit to enable the clock. */
  73:Generated_Source\PSoC4/UART_Clock.c ****     UART_Clock_ENABLE_REG |= UART_Clock__ENABLE_MASK;
  33              		.loc 1 73 0
  34 0000 8021     		movs	r1, #128
  35 0002 034A     		ldr	r2, .L2
  36 0004 0906     		lsls	r1, r1, #24
  37 0006 1368     		ldr	r3, [r2]
  74:Generated_Source\PSoC4/UART_Clock.c **** }
  38              		.loc 1 74 0
  39              		@ sp needed
  73:Generated_Source\PSoC4/UART_Clock.c **** }
ARM GAS  C:\Users\VIDEOH~1\AppData\Local\Temp\cczEvYY1.s 			page 3


  40              		.loc 1 73 0
  41 0008 0B43     		orrs	r3, r1
  42 000a 1360     		str	r3, [r2]
  43              		.loc 1 74 0
  44 000c 7047     		bx	lr
  45              	.L3:
  46 000e C046     		.align	2
  47              	.L2:
  48 0010 00010240 		.word	1073873152
  49              		.cfi_endproc
  50              	.LFE0:
  51              		.size	UART_Clock_Start, .-UART_Clock_Start
  52              		.section	.text.UART_Clock_Stop,"ax",%progbits
  53              		.align	1
  54              		.global	UART_Clock_Stop
  55              		.code	16
  56              		.thumb_func
  57              		.type	UART_Clock_Stop, %function
  58              	UART_Clock_Stop:
  59              	.LFB1:
  75:Generated_Source\PSoC4/UART_Clock.c **** 
  76:Generated_Source\PSoC4/UART_Clock.c **** #endif /* CYREG_PERI_DIV_CMD */
  77:Generated_Source\PSoC4/UART_Clock.c **** 
  78:Generated_Source\PSoC4/UART_Clock.c **** 
  79:Generated_Source\PSoC4/UART_Clock.c **** /*******************************************************************************
  80:Generated_Source\PSoC4/UART_Clock.c **** * Function Name: UART_Clock_Stop
  81:Generated_Source\PSoC4/UART_Clock.c **** ********************************************************************************
  82:Generated_Source\PSoC4/UART_Clock.c **** *
  83:Generated_Source\PSoC4/UART_Clock.c **** * Summary:
  84:Generated_Source\PSoC4/UART_Clock.c **** *  Stops the clock and returns immediately. This API does not require the
  85:Generated_Source\PSoC4/UART_Clock.c **** *  source clock to be running but may return before the hardware is actually
  86:Generated_Source\PSoC4/UART_Clock.c **** *  disabled.
  87:Generated_Source\PSoC4/UART_Clock.c **** *
  88:Generated_Source\PSoC4/UART_Clock.c **** * Parameters:
  89:Generated_Source\PSoC4/UART_Clock.c **** *  None
  90:Generated_Source\PSoC4/UART_Clock.c **** *
  91:Generated_Source\PSoC4/UART_Clock.c **** * Returns:
  92:Generated_Source\PSoC4/UART_Clock.c **** *  None
  93:Generated_Source\PSoC4/UART_Clock.c **** *
  94:Generated_Source\PSoC4/UART_Clock.c **** *******************************************************************************/
  95:Generated_Source\PSoC4/UART_Clock.c **** void UART_Clock_Stop(void)
  96:Generated_Source\PSoC4/UART_Clock.c **** {
  60              		.loc 1 96 0
  61              		.cfi_startproc
  62              		@ args = 0, pretend = 0, frame = 0
  63              		@ frame_needed = 0, uses_anonymous_args = 0
  64              		@ link register save eliminated.
  97:Generated_Source\PSoC4/UART_Clock.c **** #if defined CYREG_PERI_DIV_CMD
  98:Generated_Source\PSoC4/UART_Clock.c **** 
  99:Generated_Source\PSoC4/UART_Clock.c ****     /* Make sure any previous start command has finished. */
 100:Generated_Source\PSoC4/UART_Clock.c ****     while((UART_Clock_CMD_REG & UART_Clock_CMD_ENABLE_MASK) != 0u)
 101:Generated_Source\PSoC4/UART_Clock.c ****     {
 102:Generated_Source\PSoC4/UART_Clock.c ****     }
 103:Generated_Source\PSoC4/UART_Clock.c ****     
 104:Generated_Source\PSoC4/UART_Clock.c ****     /* Specify the target divider and it's alignment divider, and disable. */
 105:Generated_Source\PSoC4/UART_Clock.c ****     UART_Clock_CMD_REG =
 106:Generated_Source\PSoC4/UART_Clock.c ****         ((uint32)UART_Clock__DIV_ID << UART_Clock_CMD_DIV_SHIFT)|
ARM GAS  C:\Users\VIDEOH~1\AppData\Local\Temp\cczEvYY1.s 			page 4


 107:Generated_Source\PSoC4/UART_Clock.c ****         ((uint32)UART_Clock_CMD_DISABLE_MASK);
 108:Generated_Source\PSoC4/UART_Clock.c **** 
 109:Generated_Source\PSoC4/UART_Clock.c **** #else
 110:Generated_Source\PSoC4/UART_Clock.c **** 
 111:Generated_Source\PSoC4/UART_Clock.c ****     /* Clear the bit to disable the clock. */
 112:Generated_Source\PSoC4/UART_Clock.c ****     UART_Clock_ENABLE_REG &= (uint32)(~UART_Clock__ENABLE_MASK);
  65              		.loc 1 112 0
  66 0000 024A     		ldr	r2, .L5
 113:Generated_Source\PSoC4/UART_Clock.c ****     
 114:Generated_Source\PSoC4/UART_Clock.c **** #endif /* CYREG_PERI_DIV_CMD */
 115:Generated_Source\PSoC4/UART_Clock.c **** }
  67              		.loc 1 115 0
  68              		@ sp needed
 112:Generated_Source\PSoC4/UART_Clock.c ****     
  69              		.loc 1 112 0
  70 0002 1368     		ldr	r3, [r2]
  71 0004 5B00     		lsls	r3, r3, #1
  72 0006 5B08     		lsrs	r3, r3, #1
  73 0008 1360     		str	r3, [r2]
  74              		.loc 1 115 0
  75 000a 7047     		bx	lr
  76              	.L6:
  77              		.align	2
  78              	.L5:
  79 000c 00010240 		.word	1073873152
  80              		.cfi_endproc
  81              	.LFE1:
  82              		.size	UART_Clock_Stop, .-UART_Clock_Stop
  83              		.section	.text.UART_Clock_SetFractionalDividerRegister,"ax",%progbits
  84              		.align	1
  85              		.global	UART_Clock_SetFractionalDividerRegister
  86              		.code	16
  87              		.thumb_func
  88              		.type	UART_Clock_SetFractionalDividerRegister, %function
  89              	UART_Clock_SetFractionalDividerRegister:
  90              	.LFB2:
 116:Generated_Source\PSoC4/UART_Clock.c **** 
 117:Generated_Source\PSoC4/UART_Clock.c **** 
 118:Generated_Source\PSoC4/UART_Clock.c **** /*******************************************************************************
 119:Generated_Source\PSoC4/UART_Clock.c **** * Function Name: UART_Clock_SetFractionalDividerRegister
 120:Generated_Source\PSoC4/UART_Clock.c **** ********************************************************************************
 121:Generated_Source\PSoC4/UART_Clock.c **** *
 122:Generated_Source\PSoC4/UART_Clock.c **** * Summary:
 123:Generated_Source\PSoC4/UART_Clock.c **** *  Modifies the clock divider and the fractional divider.
 124:Generated_Source\PSoC4/UART_Clock.c **** *
 125:Generated_Source\PSoC4/UART_Clock.c **** * Parameters:
 126:Generated_Source\PSoC4/UART_Clock.c **** *  clkDivider:  Divider register value (0-65535). This value is NOT the
 127:Generated_Source\PSoC4/UART_Clock.c **** *    divider; the clock hardware divides by clkDivider plus one. For example,
 128:Generated_Source\PSoC4/UART_Clock.c **** *    to divide the clock by 2, this parameter should be set to 1.
 129:Generated_Source\PSoC4/UART_Clock.c **** *  fracDivider:  Fractional Divider register value (0-31).
 130:Generated_Source\PSoC4/UART_Clock.c **** * Returns:
 131:Generated_Source\PSoC4/UART_Clock.c **** *  None
 132:Generated_Source\PSoC4/UART_Clock.c **** *
 133:Generated_Source\PSoC4/UART_Clock.c **** *******************************************************************************/
 134:Generated_Source\PSoC4/UART_Clock.c **** void UART_Clock_SetFractionalDividerRegister(uint16 clkDivider, uint8 clkFractional)
 135:Generated_Source\PSoC4/UART_Clock.c **** {
  91              		.loc 1 135 0
ARM GAS  C:\Users\VIDEOH~1\AppData\Local\Temp\cczEvYY1.s 			page 5


  92              		.cfi_startproc
  93              		@ args = 0, pretend = 0, frame = 0
  94              		@ frame_needed = 0, uses_anonymous_args = 0
  95              		@ link register save eliminated.
  96              	.LVL0:
 136:Generated_Source\PSoC4/UART_Clock.c ****     uint32 maskVal;
 137:Generated_Source\PSoC4/UART_Clock.c ****     uint32 regVal;
 138:Generated_Source\PSoC4/UART_Clock.c ****     
 139:Generated_Source\PSoC4/UART_Clock.c **** #if defined (UART_Clock__FRAC_MASK) || defined (CYREG_PERI_DIV_CMD)
 140:Generated_Source\PSoC4/UART_Clock.c ****     
 141:Generated_Source\PSoC4/UART_Clock.c **** 	/* get all but divider bits */
 142:Generated_Source\PSoC4/UART_Clock.c ****     maskVal = UART_Clock_DIV_REG & 
  97              		.loc 1 142 0
  98 0000 054A     		ldr	r2, .L8
 143:Generated_Source\PSoC4/UART_Clock.c ****                     (uint32)(~(uint32)(UART_Clock_DIV_INT_MASK | UART_Clock_DIV_FRAC_MASK)); 
 144:Generated_Source\PSoC4/UART_Clock.c **** 	/* combine mask and new divider vals into 32-bit value */
 145:Generated_Source\PSoC4/UART_Clock.c ****     regVal = maskVal |
  99              		.loc 1 145 0
 100 0002 0904     		lsls	r1, r1, #16
 101              	.LVL1:
 142:Generated_Source\PSoC4/UART_Clock.c ****                     (uint32)(~(uint32)(UART_Clock_DIV_INT_MASK | UART_Clock_DIV_FRAC_MASK)); 
 102              		.loc 1 142 0
 103 0004 1368     		ldr	r3, [r2]
 104              	.LVL2:
 146:Generated_Source\PSoC4/UART_Clock.c ****         ((uint32)((uint32)clkDivider <<  UART_Clock_DIV_INT_SHIFT) & UART_Clock_DIV_INT_MASK) |
 147:Generated_Source\PSoC4/UART_Clock.c ****         ((uint32)((uint32)clkFractional << UART_Clock_DIV_FRAC_SHIFT) & UART_Clock_DIV_FRAC_MASK);
 148:Generated_Source\PSoC4/UART_Clock.c ****     
 149:Generated_Source\PSoC4/UART_Clock.c **** #else
 150:Generated_Source\PSoC4/UART_Clock.c ****     /* get all but integer divider bits */
 151:Generated_Source\PSoC4/UART_Clock.c ****     maskVal = UART_Clock_DIV_REG & (uint32)(~(uint32)UART_Clock__DIVIDER_MASK);
 152:Generated_Source\PSoC4/UART_Clock.c ****     /* combine mask and new divider val into 32-bit value */
 153:Generated_Source\PSoC4/UART_Clock.c ****     regVal = clkDivider | maskVal;
 154:Generated_Source\PSoC4/UART_Clock.c ****     
 155:Generated_Source\PSoC4/UART_Clock.c **** #endif /* UART_Clock__FRAC_MASK || CYREG_PERI_DIV_CMD */
 156:Generated_Source\PSoC4/UART_Clock.c **** 
 157:Generated_Source\PSoC4/UART_Clock.c ****     UART_Clock_DIV_REG = regVal;
 158:Generated_Source\PSoC4/UART_Clock.c **** }
 105              		.loc 1 158 0
 106              		@ sp needed
 145:Generated_Source\PSoC4/UART_Clock.c ****         ((uint32)((uint32)clkDivider <<  UART_Clock_DIV_INT_SHIFT) & UART_Clock_DIV_INT_MASK) |
 107              		.loc 1 145 0
 108 0006 5B0D     		lsrs	r3, r3, #21
 109              	.LVL3:
 110 0008 5B05     		lsls	r3, r3, #21
 111 000a 1843     		orrs	r0, r3
 112              	.LVL4:
 113 000c F823     		movs	r3, #248
 114 000e 5B03     		lsls	r3, r3, #13
 115 0010 1940     		ands	r1, r3
 116 0012 0843     		orrs	r0, r1
 117              	.LVL5:
 157:Generated_Source\PSoC4/UART_Clock.c **** }
 118              		.loc 1 157 0
 119 0014 1060     		str	r0, [r2]
 120              		.loc 1 158 0
 121 0016 7047     		bx	lr
 122              	.L9:
ARM GAS  C:\Users\VIDEOH~1\AppData\Local\Temp\cczEvYY1.s 			page 6


 123              		.align	2
 124              	.L8:
 125 0018 00010240 		.word	1073873152
 126              		.cfi_endproc
 127              	.LFE2:
 128              		.size	UART_Clock_SetFractionalDividerRegister, .-UART_Clock_SetFractionalDividerRegister
 129              		.section	.text.UART_Clock_GetDividerRegister,"ax",%progbits
 130              		.align	1
 131              		.global	UART_Clock_GetDividerRegister
 132              		.code	16
 133              		.thumb_func
 134              		.type	UART_Clock_GetDividerRegister, %function
 135              	UART_Clock_GetDividerRegister:
 136              	.LFB3:
 159:Generated_Source\PSoC4/UART_Clock.c **** 
 160:Generated_Source\PSoC4/UART_Clock.c **** 
 161:Generated_Source\PSoC4/UART_Clock.c **** /*******************************************************************************
 162:Generated_Source\PSoC4/UART_Clock.c **** * Function Name: UART_Clock_GetDividerRegister
 163:Generated_Source\PSoC4/UART_Clock.c **** ********************************************************************************
 164:Generated_Source\PSoC4/UART_Clock.c **** *
 165:Generated_Source\PSoC4/UART_Clock.c **** * Summary:
 166:Generated_Source\PSoC4/UART_Clock.c **** *  Gets the clock divider register value.
 167:Generated_Source\PSoC4/UART_Clock.c **** *
 168:Generated_Source\PSoC4/UART_Clock.c **** * Parameters:
 169:Generated_Source\PSoC4/UART_Clock.c **** *  None
 170:Generated_Source\PSoC4/UART_Clock.c **** *
 171:Generated_Source\PSoC4/UART_Clock.c **** * Returns:
 172:Generated_Source\PSoC4/UART_Clock.c **** *  Divide value of the clock minus 1. For example, if the clock is set to
 173:Generated_Source\PSoC4/UART_Clock.c **** *  divide by 2, the return value will be 1.
 174:Generated_Source\PSoC4/UART_Clock.c **** *
 175:Generated_Source\PSoC4/UART_Clock.c **** *******************************************************************************/
 176:Generated_Source\PSoC4/UART_Clock.c **** uint16 UART_Clock_GetDividerRegister(void)
 177:Generated_Source\PSoC4/UART_Clock.c **** {
 137              		.loc 1 177 0
 138              		.cfi_startproc
 139              		@ args = 0, pretend = 0, frame = 0
 140              		@ frame_needed = 0, uses_anonymous_args = 0
 141              		@ link register save eliminated.
 178:Generated_Source\PSoC4/UART_Clock.c ****     return (uint16)((UART_Clock_DIV_REG & UART_Clock_DIV_INT_MASK)
 142              		.loc 1 178 0
 143 0000 014B     		ldr	r3, .L11
 179:Generated_Source\PSoC4/UART_Clock.c ****         >> UART_Clock_DIV_INT_SHIFT);
 180:Generated_Source\PSoC4/UART_Clock.c **** }
 144              		.loc 1 180 0
 145              		@ sp needed
 178:Generated_Source\PSoC4/UART_Clock.c ****     return (uint16)((UART_Clock_DIV_REG & UART_Clock_DIV_INT_MASK)
 146              		.loc 1 178 0
 147 0002 1868     		ldr	r0, [r3]
 148 0004 80B2     		uxth	r0, r0
 149              		.loc 1 180 0
 150 0006 7047     		bx	lr
 151              	.L12:
 152              		.align	2
 153              	.L11:
 154 0008 00010240 		.word	1073873152
 155              		.cfi_endproc
 156              	.LFE3:
ARM GAS  C:\Users\VIDEOH~1\AppData\Local\Temp\cczEvYY1.s 			page 7


 157              		.size	UART_Clock_GetDividerRegister, .-UART_Clock_GetDividerRegister
 158              		.section	.text.UART_Clock_GetFractionalDividerRegister,"ax",%progbits
 159              		.align	1
 160              		.global	UART_Clock_GetFractionalDividerRegister
 161              		.code	16
 162              		.thumb_func
 163              		.type	UART_Clock_GetFractionalDividerRegister, %function
 164              	UART_Clock_GetFractionalDividerRegister:
 165              	.LFB4:
 181:Generated_Source\PSoC4/UART_Clock.c **** 
 182:Generated_Source\PSoC4/UART_Clock.c **** 
 183:Generated_Source\PSoC4/UART_Clock.c **** /*******************************************************************************
 184:Generated_Source\PSoC4/UART_Clock.c **** * Function Name: UART_Clock_GetFractionalDividerRegister
 185:Generated_Source\PSoC4/UART_Clock.c **** ********************************************************************************
 186:Generated_Source\PSoC4/UART_Clock.c **** *
 187:Generated_Source\PSoC4/UART_Clock.c **** * Summary:
 188:Generated_Source\PSoC4/UART_Clock.c **** *  Gets the clock fractional divider register value.
 189:Generated_Source\PSoC4/UART_Clock.c **** *
 190:Generated_Source\PSoC4/UART_Clock.c **** * Parameters:
 191:Generated_Source\PSoC4/UART_Clock.c **** *  None
 192:Generated_Source\PSoC4/UART_Clock.c **** *
 193:Generated_Source\PSoC4/UART_Clock.c **** * Returns:
 194:Generated_Source\PSoC4/UART_Clock.c **** *  Fractional Divide value of the clock
 195:Generated_Source\PSoC4/UART_Clock.c **** *  0 if the fractional divider is not in use.
 196:Generated_Source\PSoC4/UART_Clock.c **** *
 197:Generated_Source\PSoC4/UART_Clock.c **** *******************************************************************************/
 198:Generated_Source\PSoC4/UART_Clock.c **** uint8 UART_Clock_GetFractionalDividerRegister(void)
 199:Generated_Source\PSoC4/UART_Clock.c **** {
 166              		.loc 1 199 0
 167              		.cfi_startproc
 168              		@ args = 0, pretend = 0, frame = 0
 169              		@ frame_needed = 0, uses_anonymous_args = 0
 170              		@ link register save eliminated.
 200:Generated_Source\PSoC4/UART_Clock.c **** #if defined (UART_Clock__FRAC_MASK)
 201:Generated_Source\PSoC4/UART_Clock.c ****     /* return fractional divider bits */
 202:Generated_Source\PSoC4/UART_Clock.c ****     return (uint8)((UART_Clock_DIV_REG & UART_Clock_DIV_FRAC_MASK)
 171              		.loc 1 202 0
 172 0000 024B     		ldr	r3, .L14
 203:Generated_Source\PSoC4/UART_Clock.c ****         >> UART_Clock_DIV_FRAC_SHIFT);
 204:Generated_Source\PSoC4/UART_Clock.c **** #else
 205:Generated_Source\PSoC4/UART_Clock.c ****     return 0u;
 206:Generated_Source\PSoC4/UART_Clock.c **** #endif /* UART_Clock__FRAC_MASK */
 207:Generated_Source\PSoC4/UART_Clock.c **** }
 173              		.loc 1 207 0
 174              		@ sp needed
 202:Generated_Source\PSoC4/UART_Clock.c ****         >> UART_Clock_DIV_FRAC_SHIFT);
 175              		.loc 1 202 0
 176 0002 1868     		ldr	r0, [r3]
 177 0004 C002     		lsls	r0, r0, #11
 178 0006 C00E     		lsrs	r0, r0, #27
 179              		.loc 1 207 0
 180 0008 7047     		bx	lr
 181              	.L15:
 182 000a C046     		.align	2
 183              	.L14:
 184 000c 00010240 		.word	1073873152
 185              		.cfi_endproc
ARM GAS  C:\Users\VIDEOH~1\AppData\Local\Temp\cczEvYY1.s 			page 8


 186              	.LFE4:
 187              		.size	UART_Clock_GetFractionalDividerRegister, .-UART_Clock_GetFractionalDividerRegister
 188              		.text
 189              	.Letext0:
 190              		.file 2 "Generated_Source\\PSoC4/cytypes.h"