ARM GAS  C:\Users\VIDEOH~1\AppData\Local\Temp\ccpdN5tN.s 			page 1


   1              		.syntax unified
   2              		.cpu cortex-m0
   3              		.fpu softvfp
   4              		.eabi_attribute 20, 1
   5              		.eabi_attribute 21, 1
   6              		.eabi_attribute 23, 3
   7              		.eabi_attribute 24, 1
   8              		.eabi_attribute 25, 1
   9              		.eabi_attribute 26, 1
  10              		.eabi_attribute 30, 4
  11              		.eabi_attribute 34, 0
  12              		.eabi_attribute 18, 4
  13              		.thumb
  14              		.syntax unified
  15              		.file	"ui.c"
  16              		.text
  17              	.Ltext0:
  18              		.cfi_sections	.debug_frame
  19              		.section	.text.call_void_func,"ax",%progbits
  20              		.align	1
  21              		.code	16
  22              		.thumb_func
  23              		.type	call_void_func, %function
  24              	call_void_func:
  25              	.LFB54:
  26              		.file 1 "ui.c"
   1:ui.c          **** /* ========================================
   2:ui.c          ****  *
   3:ui.c          ****  * Copyright Arachnid Labs, 2013
   4:ui.c          ****  * All Rights Reserved
   5:ui.c          ****  * UNPUBLISHED, LICENSED SOFTWARE.
   6:ui.c          ****  *
   7:ui.c          ****  * CONFIDENTIAL AND PROPRIETARY INFORMATION
   8:ui.c          ****  * WHICH IS THE PROPERTY OF your company.
   9:ui.c          ****  *
  10:ui.c          ****  * ========================================
  11:ui.c          **** */
  12:ui.c          **** 
  13:ui.c          **** #include "comms.h"
  14:ui.c          **** #include "calibrate.h"
  15:ui.c          **** #include "tasks.h"
  16:ui.c          **** #include "Display_font.h"
  17:ui.c          **** #include "config.h"
  18:ui.c          **** #include <FreeRTOS.h>
  19:ui.c          **** #include <task.h>
  20:ui.c          **** #include <queue.h>
  21:ui.c          **** #include <stdio.h>
  22:ui.c          **** #include <stdlib.h>
  23:ui.c          **** 
  24:ui.c          **** const uint16 termistor_tbl[166]={71,75,79,83,88,92,98,103,109,116,122,130,137,145,153,162,171,180,\
  25:ui.c          ****     190,200,210,221,232,243,254,266,278,291,304,318,331,345,360,375,390,406,422,439,455,473,490,\
  26:ui.c          ****     509,528,547,566,586,606,627,648,669,690,712,733,755,777,799,822,844,867,889,911,934,957,979,\
  27:ui.c          ****     1001,1024,1046,1068,1090,1112,1134,1155,1176,1197,1218,1238,1259,1278,1298,1317,1336,1355,\
  28:ui.c          ****     1373,1391,1409,1426,1443,1459,1476,1491,1507,1522,1537,1551,1565,1579,1592,1605,1618,1630,\
  29:ui.c          ****     1642,1654,1665,1676,1687,1697,1708,1717,1727,1736,1745,1754,1762,1771,1779,1786,1794,1801,1808,
  30:ui.c          ****     1815,1822,1828,1834,1840,1846,1852,1857,1863,1868,1873,1877,1882,1887,1891,1895,1900,1904,1907,
  31:ui.c          ****     1911,1915,1919,1922,1925,1928,1932,1935,1938,1941,1943,1946,1949,1952,1954,1957,1959,1961,1964,
ARM GAS  C:\Users\VIDEOH~1\AppData\Local\Temp\ccpdN5tN.s 			page 2


  32:ui.c          ****     1966,1968,1970,1972,1974,1976,1978,1980,1982};
  33:ui.c          **** 
  34:ui.c          **** 
  35:ui.c          **** static int8 get_temperature_calc(void);
  36:ui.c          **** static void show_temperature(uint8 page,uint8 col,int8 t);
  37:ui.c          **** 
  38:ui.c          **** xQueueHandle ui_queue;
  39:ui.c          **** 
  40:ui.c          **** typedef struct {
  41:ui.c          **** 	void (*func)(char *);
  42:ui.c          **** 	char *label;
  43:ui.c          **** } readout_function_impl;
  44:ui.c          **** 
  45:ui.c          **** typedef struct state_func_t {
  46:ui.c          **** 	struct state_func_t (*func)(const void*);
  47:ui.c          **** 	const void *arg;
  48:ui.c          **** 	const int8 is_main_state;
  49:ui.c          **** } state_func;
  50:ui.c          **** 
  51:ui.c          **** typedef enum {
  52:ui.c          **** 	VALUE_TYPE_CURRENT_RANGE,
  53:ui.c          **** } value_type;
  54:ui.c          **** 
  55:ui.c          **** typedef struct {
  56:ui.c          **** 	const char *caption;
  57:ui.c          **** 	const state_func new_state;
  58:ui.c          **** } menuitem;
  59:ui.c          **** 
  60:ui.c          **** typedef struct {
  61:ui.c          **** 	const char *title;
  62:ui.c          **** 	const menuitem items[];
  63:ui.c          **** } menudata;
  64:ui.c          **** 
  65:ui.c          **** typedef struct {
  66:ui.c          **** 	const value_type type;
  67:ui.c          **** 	const void *target;
  68:ui.c          **** 	const int value;
  69:ui.c          **** } valueconfig;
  70:ui.c          **** 
  71:ui.c          **** typedef void (*void_func)();
  72:ui.c          **** 
  73:ui.c          **** static state_func cc_load(const void*);
  74:ui.c          **** static state_func menu(const void*);
  75:ui.c          **** static state_func ui_set_min_voltage(const void*);
  76:ui.c          **** static state_func ui_calibrate(const void*);
  77:ui.c          **** static state_func display_config(const void*);
  78:ui.c          **** static state_func set_contrast(const void *);
  79:ui.c          **** static state_func overlimit(const void*);
  80:ui.c          **** static state_func call_void_func(const void*);
  81:ui.c          **** static state_func upgrade(const void*);
  82:ui.c          **** static state_func set_cooler(const void *arg);
  83:ui.c          **** static void measure_Battery_ISR();
  84:ui.c          **** 
  85:ui.c          **** #define STATE_MAIN_MENU {menu, &main_menu, 0}/*Initally we start on this menu entry*/
  86:ui.c          **** #define STATE_TOOLS_MENU {menu,&tools_menu,0}/*Tools menu*/
  87:ui.c          **** /*Following are all the details for the menu items*/
  88:ui.c          **** #define STATE_MAIN                  {NULL, NULL, 0}
ARM GAS  C:\Users\VIDEOH~1\AppData\Local\Temp\ccpdN5tN.s 			page 3


  89:ui.c          **** #define STATE_CC_LOAD               {cc_load, NULL, 1}
  90:ui.c          **** #define STATE_MIN_VOLTAGE           {ui_set_min_voltage, NULL, 0}
  91:ui.c          **** #define STATE_CALIBRATE             {ui_calibrate, NULL, 0}
  92:ui.c          **** #define STATE_CONFIGURE_CC_DISPLAY  {display_config, 0, 0}
  93:ui.c          **** #define STATE_SET_CONTRAST          {set_contrast, NULL, 0}
  94:ui.c          **** #define STATE_SET_COOLER            {set_cooler, NULL, 0}
  95:ui.c          **** #define STATE_LIMIT                 {overlimit, NULL, 0}
  96:ui.c          **** #define STATE_RESET_TOTALS          {call_void_func, (void_func)reset_running_totals, 0}
  97:ui.c          **** #define STATE_UPGRADE               {upgrade, NULL, 0}
  98:ui.c          **** #define STATE_BATTERY_ISR           {"Batt ISR", {call_void_func,measure_Battery_ISR , 0}}
  99:ui.c          **** 
 100:ui.c          **** const menudata set_readout_menu = {
 101:ui.c          **** 	"SETTINGS",
 102:ui.c          **** 	{
 103:ui.c          **** 		{"SetCur", {NULL, (void*)READOUT_CURRENT_SETPOINT, 0}},
 104:ui.c          **** 		{"ActualCur", {NULL, (void*)READOUT_CURRENT_USAGE, 0}},
 105:ui.c          **** 		{"Voltage", {NULL, (void*)READOUT_VOLTAGE, 0}},
 106:ui.c          **** 		{"Power", {NULL, (void*)READOUT_POWER, 0}},
 107:ui.c          **** 		{"Resist", {NULL, (void*)READOUT_RESISTANCE, 0}},
 108:ui.c          **** 		{"TotalCur", {NULL, (void*)READOUT_TOTAL_CURRENT, 0}},
 109:ui.c          **** 		{"TotalPwr", {NULL, (void*)READOUT_TOTAL_POWER, 0}},
 110:ui.c          **** 		{"None", {NULL, (void*)READOUT_NONE, 0}},
 111:ui.c          ****         {"EXIT", STATE_MAIN},
 112:ui.c          **** 		{NULL, {NULL, NULL, 0}},
 113:ui.c          **** 	}
 114:ui.c          **** };
 115:ui.c          **** 
 116:ui.c          **** const menudata choose_readout_menu = {
 117:ui.c          **** 	"Readouts",
 118:ui.c          **** 	{
 119:ui.c          **** 		{"MainDisp", {NULL, (void*)1, 0}},
 120:ui.c          **** 		{"UpDisp", {NULL, (void*)2, 0}},
 121:ui.c          **** 		{"DownDisp", {NULL, (void*)3, 0}},
 122:ui.c          ****         {"EXIT", STATE_MAIN},
 123:ui.c          **** 		{NULL, {NULL, NULL, 0}},
 124:ui.c          **** 	}
 125:ui.c          **** };
 126:ui.c          **** 
 127:ui.c          **** const menudata tools_menu = {
 128:ui.c          **** 	NULL,
 129:ui.c          **** 	{
 130:ui.c          **** 		STATE_BATTERY_ISR,
 131:ui.c          ****         {"EXIT", STATE_MAIN},
 132:ui.c          **** 		{NULL, {NULL, NULL, 0}},
 133:ui.c          **** 	}
 134:ui.c          **** };
 135:ui.c          **** 
 136:ui.c          **** 
 137:ui.c          **** const menudata main_menu = {
 138:ui.c          **** 	NULL,
 139:ui.c          **** 	{
 140:ui.c          **** 		{"C/C Load", STATE_CC_LOAD},
 141:ui.c          **** 		{"Readouts", STATE_CONFIGURE_CC_DISPLAY},
 142:ui.c          ****         {"MinVolt", STATE_MIN_VOLTAGE},
 143:ui.c          **** 		{"Reset", STATE_RESET_TOTALS},
 144:ui.c          ****         {"Tools",STATE_TOOLS_MENU},
 145:ui.c          **** 		{"Contrast", STATE_SET_CONTRAST},
ARM GAS  C:\Users\VIDEOH~1\AppData\Local\Temp\ccpdN5tN.s 			page 4


 146:ui.c          **** 		{"Cooler", STATE_SET_COOLER},
 147:ui.c          **** 		{"Calibrate", STATE_CALIBRATE},
 148:ui.c          **** 		{"UpgrMode", STATE_UPGRADE},
 149:ui.c          ****         {"EXIT", STATE_MAIN},
 150:ui.c          **** 		{NULL, {NULL, NULL, 0}},
 151:ui.c          **** 	}
 152:ui.c          **** };
 153:ui.c          **** 
 154:ui.c          **** 
 155:ui.c          **** 
 156:ui.c          **** volatile portTickType long_button_press_tick_count = portMAX_DELAY;
 157:ui.c          **** 
 158:ui.c          **** void vApplicationTickHook( void )
 159:ui.c          **** {
 160:ui.c          **** 	static ui_event event = {.type = UI_EVENT_BUTTONPRESS, .when = 0};
 161:ui.c          ****     static portTickType before = 0;
 162:ui.c          **** 
 163:ui.c          ****     int button_now = QuadButton_Read();
 164:ui.c          ****     if (button_now != event.int_arg)
 165:ui.c          ****     {
 166:ui.c          ****         before = event.when;
 167:ui.c          ****         event.when = xTaskGetTickCountFromISR();
 168:ui.c          **** 
 169:ui.c          ****     	event.int_arg = button_now;
 170:ui.c          **** 
 171:ui.c          ****         // it is suggested to have debounce timer of 5-30 ms in different sources, so going with co
 172:ui.c          ****     	if(event.int_arg) {
 173:ui.c          ****             long_button_press_tick_count = portMAX_DELAY;
 174:ui.c          ****             if(event.when - before >= (30 * configTICK_RATE_HZ / 1000)) {
 175:ui.c          ****     		    xQueueSendToBackFromISR(ui_queue, &event, NULL);
 176:ui.c          ****             }
 177:ui.c          ****     	} else {
 178:ui.c          ****             long_button_press_tick_count = event.when + configTICK_RATE_HZ;
 179:ui.c          ****         }
 180:ui.c          ****     }
 181:ui.c          **** }
 182:ui.c          **** 
 183:ui.c          **** // Maps current state (index) to next state for a forward transition.
 184:ui.c          **** const int8 quadrature_states[] = {0x1, 0x3, 0x0, 0x2};
 185:ui.c          **** 
 186:ui.c          **** CY_ISR(quadrature_event_isr) {
 187:ui.c          **** 	static ui_event event = {.type = UI_EVENT_UPDOWN, .when = 0, .int_arg = 0};
 188:ui.c          ****     static int8 last_levels = 3;
 189:ui.c          **** 	static int8 count = 0;
 190:ui.c          ****     static portTickType before = 0;
 191:ui.c          **** 
 192:ui.c          **** 	int levels = Quadrature_Read();
 193:ui.c          **** 	Quadrature_ClearInterrupt();
 194:ui.c          **** 
 195:ui.c          **** 	if(quadrature_states[last_levels] == levels) {
 196:ui.c          **** 		count += 1;
 197:ui.c          **** 		last_levels = levels;
 198:ui.c          **** 	} else if(quadrature_states[levels] == last_levels) {
 199:ui.c          **** 		count -= 1;
 200:ui.c          **** 		last_levels = levels;
 201:ui.c          **** 	}
 202:ui.c          **** 
ARM GAS  C:\Users\VIDEOH~1\AppData\Local\Temp\ccpdN5tN.s 			page 5


 203:ui.c          **** 	if(abs(count) >= 4) {
 204:ui.c          ****         before = event.when;
 205:ui.c          ****         event.when = xTaskGetTickCountFromISR();
 206:ui.c          **** 
 207:ui.c          ****         // calculate step size that is inversely proportional to the time that has passed since las
 208:ui.c          ****         event.duration = event.when - before;
 209:ui.c          ****         if(event.duration < 1)
 210:ui.c          ****             event.duration = 1;
 211:ui.c          **** 
 212:ui.c          ****         event.int_arg = count / 4;
 213:ui.c          **** 		xQueueSendToBackFromISR(ui_queue, &event, NULL);
 214:ui.c          **** 		count = count % 4;
 215:ui.c          **** 	}
 216:ui.c          **** }
 217:ui.c          **** 
 218:ui.c          **** static void format_number(int num, const char *suffix, char *out) {
 219:ui.c          **** 	if(num < 0)
 220:ui.c          **** 		num = 0;
 221:ui.c          **** 
 222:ui.c          **** 	int magnitude = 1;
 223:ui.c          **** 	while(num >= 1000000) {
 224:ui.c          **** 		num /= 1000;
 225:ui.c          **** 		magnitude++;
 226:ui.c          **** 	}
 227:ui.c          **** 
 228:ui.c          **** 	int whole = num / 1000, remainder = num % 1000;
 229:ui.c          **** 	if(whole < 10) {
 230:ui.c          **** 		// Format: x.xx
 231:ui.c          **** 		sprintf(out, "%1d.%02d", whole, remainder / 10);
 232:ui.c          **** 	} else if(whole < 100) {
 233:ui.c          **** 		// Format: xx.x
 234:ui.c          **** 		sprintf(out, "%02d.%1d", whole, remainder / 100);
 235:ui.c          **** 	} else {
 236:ui.c          **** 		// Format: xxx
 237:ui.c          **** 		sprintf(out, "%03d", whole);
 238:ui.c          **** 	}
 239:ui.c          **** 
 240:ui.c          **** 	if(magnitude == 1) strcat(out, "m");
 241:ui.c          ****     strcat(out, suffix);
 242:ui.c          **** }
 243:ui.c          **** 
 244:ui.c          **** static void format_number_simple(int num, const char *suffix, char *out) {
 245:ui.c          **** 	if(num < 0) num = 0;
 246:ui.c          **** 	num /= 1000;
 247:ui.c          **** 	int whole = num / 1000, remainder = num % 1000;
 248:ui.c          **** 	sprintf(out, "%3d.%03d%s", whole, remainder, suffix);
 249:ui.c          **** }
 250:ui.c          **** 
 251:ui.c          **** static void adjust_current_setpoint(int delta, portTickType duration) {
 252:ui.c          ****     // Implement encoder acceleration
 253:ui.c          ****     int step = (((ENCODER_ACCEL_CONSTANT * configTICK_RATE_HZ) / 1000) / duration);
 254:ui.c          ****     if(step < 1)
 255:ui.c          ****         step = 1;
 256:ui.c          **** 	set_current(state.current_setpoint + delta * step * CURRENT_STEP);
 257:ui.c          ****     uart_printf("set %d\r\n", state.current_setpoint / 1000);
 258:ui.c          **** }
 259:ui.c          **** 
ARM GAS  C:\Users\VIDEOH~1\AppData\Local\Temp\ccpdN5tN.s 			page 6


 260:ui.c          **** static void next_event(ui_event *event) {
 261:ui.c          **** 	static portTickType last_tick = 0;
 262:ui.c          ****     static uint8 long_press_sent = 0;
 263:ui.c          **** 
 264:ui.c          ****     portTickType now = xTaskGetTickCount();
 265:ui.c          **** 
 266:ui.c          ****     if(now > long_button_press_tick_count && !long_press_sent) {
 267:ui.c          ****         event->type = UI_EVENT_LONG_BUTTONPRESS;
 268:ui.c          ****         event->when = now;
 269:ui.c          ****         event->int_arg = 0;
 270:ui.c          ****         long_press_sent = 1;
 271:ui.c          ****     } else if(now - last_tick >  configTICK_RATE_HZ / UI_TASK_FREQUENCY
 272:ui.c          ****         || !xQueueReceive(ui_queue, event, configTICK_RATE_HZ / UI_TASK_FREQUENCY - (now - last_tic
 273:ui.c          **** 		event->type = UI_EVENT_TICK;
 274:ui.c          **** 		event->when = now;
 275:ui.c          **** 		last_tick = now;
 276:ui.c          **** #ifdef USE_WATCHDOG
 277:ui.c          ****         CySysWdtResetCounters(CY_SYS_WDT_COUNTER0_RESET);
 278:ui.c          **** #endif
 279:ui.c          **** 	} else if(event->type == UI_EVENT_BOOTLOAD) {
 280:ui.c          ****         // Bootloading overrides everything
 281:ui.c          ****         upgrade(NULL); // Never returns
 282:ui.c          ****     } else if(event->type == UI_EVENT_BUTTONPRESS && long_press_sent) {
 283:ui.c          ****         long_press_sent = 0;
 284:ui.c          **** 		event->type = UI_EVENT_TICK;
 285:ui.c          **** 		event->when = now;
 286:ui.c          **** 		last_tick = now;
 287:ui.c          **** #ifdef USE_WATCHDOG
 288:ui.c          ****         CySysWdtResetCounters(CY_SYS_WDT_COUNTER0_RESET);
 289:ui.c          **** #endif
 290:ui.c          ****     }
 291:ui.c          **** }
 292:ui.c          **** 
 293:ui.c          **** static void draw_menu(const menudata *menu, int selected) {
 294:ui.c          **** 	int start_row = 7;
 295:ui.c          **** 	int height = 4;
 296:ui.c          **** 
 297:ui.c          **** 	if(menu->title) {
 298:ui.c          **** 		int8 padding = (127 - strlen(menu->title) * 12) / 2;
 299:ui.c          **** 		Display_Clear(6, 2, 7, padding + 1, 0xFF);
 300:ui.c          **** 		Display_DrawText(7, padding + 1, menu->title, 1);
 301:ui.c          **** 		Display_Clear(6, 127 - padding - 1, 7, 127, 0xFF);
 302:ui.c          **** 		start_row-=2;
 303:ui.c          **** 		height--;
 304:ui.c          **** 	}
 305:ui.c          **** 
 306:ui.c          **** 	Display_DrawText(start_row, 115, ((selected / height) > 0)?FONT_GLYPH_UARR:" ", 0);
 307:ui.c          **** 
 308:ui.c          **** 	// Find the block of items the selected element is in
 309:ui.c          **** 	const menuitem *current = &menu->items[selected - selected % height];
 310:ui.c          **** 	selected %= height;
 311:ui.c          **** 
 312:ui.c          **** 	for(int i = 0; i < height; i++) {
 313:ui.c          **** 		if(current->caption != NULL) {
 314:ui.c          **** 			Display_DrawText(start_row-i*2, 2, current->caption, i == selected);
 315:ui.c          **** 			Display_Clear(start_row-i*2-1, strlen(current->caption) * 12 + 1,  start_row -i*2, 114, (i == se
 316:ui.c          **** 			current++;
ARM GAS  C:\Users\VIDEOH~1\AppData\Local\Temp\ccpdN5tN.s 			page 7


 317:ui.c          **** 		} else {
 318:ui.c          **** 			Display_Clear(start_row-i*2-1, 0, start_row -i*2, 127, 0);
 319:ui.c          **** 		}
 320:ui.c          **** 	}
 321:ui.c          **** 
 322:ui.c          **** 	if(current->caption != NULL) {
 323:ui.c          **** 		Display_DrawText(1, 115, FONT_GLYPH_DARR, 0);
 324:ui.c          **** 	} else {
 325:ui.c          **** 		Display_DrawText(1, 115, " ", 0);
 326:ui.c          **** 	}
 327:ui.c          **** }
 328:ui.c          **** 
 329:ui.c          **** void print_nothing(char *buf) {
 330:ui.c          **** 	strcpy(buf, "      ");
 331:ui.c          **** }
 332:ui.c          **** 
 333:ui.c          **** void print_setpoint(char *buf) {
 334:ui.c          **** 	format_number(get_current_setpoint(), "A", buf);
 335:ui.c          **** }
 336:ui.c          **** 
 337:ui.c          **** void print_current_usage(char *buf) {
 338:ui.c          **** 	format_number(get_current_usage(), "A", buf);
 339:ui.c          **** }
 340:ui.c          **** 
 341:ui.c          **** void print_voltage(char *buf) {
 342:ui.c          **** 	format_number(get_voltage(), "V", buf);
 343:ui.c          **** }
 344:ui.c          **** 
 345:ui.c          **** void print_power(char *buf) {
 346:ui.c          **** 	int power = (get_current_usage() / 1000) * (get_voltage() / 1000);
 347:ui.c          **** 	format_number(power, "W", buf);
 348:ui.c          **** }
 349:ui.c          **** 
 350:ui.c          **** void print_resistance(char *buf) {
 351:ui.c          **** 	int current = get_current_usage();
 352:ui.c          **** 	if(current > 0) {
 353:ui.c          **** 		format_number(((get_voltage() * 10) / (current / 100000)), FONT_GLYPH_OHM, buf);
 354:ui.c          **** 	} else {
 355:ui.c          **** 		strcpy(buf, "----" FONT_GLYPH_OHM);
 356:ui.c          **** 	}
 357:ui.c          **** }
 358:ui.c          **** 
 359:ui.c          **** 
 360:ui.c          **** void print_amp_hours(char *buf) {
 361:ui.c          **** 	format_number(get_microamp_hours(), "Ah", buf);
 362:ui.c          **** }
 363:ui.c          **** 
 364:ui.c          **** void print_watt_hours(char *buf) {
 365:ui.c          **** 	format_number(get_microwatt_hours(), "Wh", buf);
 366:ui.c          **** }
 367:ui.c          **** 
 368:ui.c          **** const readout_function_impl readout_functions[] = {
 369:ui.c          **** 	{print_nothing, ""},
 370:ui.c          **** 	{print_setpoint, "SET"},
 371:ui.c          **** 	{print_current_usage, "ACT"},
 372:ui.c          **** 	{print_voltage, ""},
 373:ui.c          **** 	{print_power, ""},
ARM GAS  C:\Users\VIDEOH~1\AppData\Local\Temp\ccpdN5tN.s 			page 8


 374:ui.c          **** 	{print_resistance, ""},
 375:ui.c          **** 	{print_amp_hours, ""},
 376:ui.c          **** 	{print_watt_hours, ""},
 377:ui.c          **** 	{print_nothing, ""}
 378:ui.c          **** };
 379:ui.c          **** 
 380:ui.c          **** static void draw_status(const display_config_t *config, uint8 force_current_setpoint_readout) {
 381:ui.c          **** 	char buf[8];
 382:ui.c          **** 	// Draw the main info
 383:ui.c          **** 	const readout_function_impl *readout = &readout_functions[force_current_setpoint_readout?READOUT_C
 384:ui.c          **** 	if(readout->func != print_nothing) {
 385:ui.c          **** 		readout->func(buf);
 386:ui.c          ****     	Display_Clear(4, 72, 7, 77, 0);
 387:ui.c          **** 		Display_Clear(4, 77, 5, 114, 0);
 388:ui.c          **** 		Display_DrawBigNumbers(7, 0, buf);
 389:ui.c          **** 	} else {
 390:ui.c          **** 		Display_Clear(4, 0, 7, 77, 0);
 391:ui.c          **** 		Display_Clear(4, 77, 5, 114, 0);
 392:ui.c          **** 	}
 393:ui.c          **** 
 394:ui.c          **** 	// Draw the type in the top right
 395:ui.c          **** 	uint8 labelsize = strlen(readout->label) * 12;
 396:ui.c          **** 	Display_DrawText(7, 127 - labelsize, readout->label, 1);
 397:ui.c          **** 	if(labelsize < 36) Display_Clear(6, 91, 7, 127 - labelsize, 0);
 398:ui.c          **** 
 399:ui.c          ****     // Draw the state in the middle right
 400:ui.c          ****     if(get_output_mode() == OUTPUT_MODE_OFF) {
 401:ui.c          ****     	Display_DrawText(1, 91, "OFF", 1);
 402:ui.c          ****     } else {
 403:ui.c          ****         Display_Clear(0, 91, 1, 127, 0);
 404:ui.c          ****     }
 405:ui.c          **** 
 406:ui.c          **** 	// Draw the two smaller displays
 407:ui.c          **** 	for(int i = 0; i < 2; i++) {
 408:ui.c          **** 		readout = &readout_functions[config->readouts[i + 1]];
 409:ui.c          **** 		readout->func(buf);
 410:ui.c          **** 		Display_Clear(2-i*2,48,3-i*2,79,0);
 411:ui.c          **** 		Display_DrawText(3-i*2, 0, buf, 0);
 412:ui.c          **** 	}
 413:ui.c          ****     //COOLER
 414:ui.c          ****     if(get_cooler_state()) 
 415:ui.c          ****     {   if(CoolerStatusReg_Read()&1)
 416:ui.c          ****             Display_DrawText(5, 115,FONT_GLYPH_GOOD_COOLER, 0);
 417:ui.c          ****         else
 418:ui.c          ****             Display_DrawText(5, 115,FONT_GLYPH_BAD_COOLER, 0);
 419:ui.c          ****     }
 420:ui.c          ****     else Display_Clear(4,115,5,127,0);
 421:ui.c          ****     show_temperature(3,79,get_temperature_calc());
 422:ui.c          **** }
 423:ui.c          **** 
 424:ui.c          **** static int8 get_temperature_calc(void)
 425:ui.c          **** {
 426:ui.c          ****     uint8 low_i=0;
 427:ui.c          ****     uint8 high_i=TEMPERATURE_MAX-TEMPERATURE_MIN;
 428:ui.c          ****     uint8 median_i=high_i>>1;
 429:ui.c          ****     uint16 term=get_termistor();
 430:ui.c          ****     do
ARM GAS  C:\Users\VIDEOH~1\AppData\Local\Temp\ccpdN5tN.s 			page 9


 431:ui.c          ****     {
 432:ui.c          ****         median_i+=low_i;
 433:ui.c          ****         if(term>termistor_tbl[median_i]) low_i=median_i;
 434:ui.c          ****         else 
 435:ui.c          ****         {
 436:ui.c          ****             high_i=median_i;
 437:ui.c          ****             if(term==termistor_tbl[median_i]) break;
 438:ui.c          ****         }
 439:ui.c          ****         median_i=(high_i-low_i)>>1;
 440:ui.c          ****     }while(median_i);
 441:ui.c          ****     return (int16)high_i+TEMPERATURE_MIN;
 442:ui.c          **** }
 443:ui.c          **** 
 444:ui.c          **** void show_temperature(uint8 page,uint8 col,int8 t)
 445:ui.c          **** {
 446:ui.c          ****     char out[8];
 447:ui.c          ****     sprintf(out,"%3d",t);
 448:ui.c          ****     strcat(out,FONT_GLYPH_CELSIUS);
 449:ui.c          ****     //Display_Clear(page-1,col,page,col+48,0);
 450:ui.c          ****     Display_DrawText(page, col,out, 0);
 451:ui.c          **** }
 452:ui.c          **** 
 453:ui.c          **** static state_func display_config(const void *arg) {
 454:ui.c          **** 	const display_config_t *config = &settings.display_settings.numbered[(int)arg];
 455:ui.c          **** 
 456:ui.c          **** 	state_func display = menu(&choose_readout_menu);
 457:ui.c          **** 	if(display.arg == NULL)
 458:ui.c          **** 		return display;
 459:ui.c          **** 
 460:ui.c          **** 	state_func readout = menu(&set_readout_menu);
 461:ui.c          **** 	if(readout.arg == NULL)
 462:ui.c          **** 		return readout;
 463:ui.c          **** 
 464:ui.c          ****     memcpy((uint8*)&(config->readouts[(int)display.arg - 1]),(uint8*)&((readout_function){(readout_
 465:ui.c          **** 	EEPROM_Write(0,(void*)&settings,sizeof(settings_t));
 466:ui.c          **** 
 467:ui.c          **** 	return (state_func)STATE_MAIN;
 468:ui.c          **** }
 469:ui.c          **** 
 470:ui.c          **** //Delay and resets the watchdog every second
 471:ui.c          **** static void delayWithWatchDog(uint8_t seconds)
 472:ui.c          **** {
 473:ui.c          ****     CySysWdtResetCounters(CY_SYS_WDT_COUNTER0_RESET);
 474:ui.c          ****      for(uint8_t i=0;i<seconds;i++)
 475:ui.c          ****     {
 476:ui.c          ****         CyDelay(1000);
 477:ui.c          ****         #if USE_WATCHDOG
 478:ui.c          ****         CySysWdtResetCounters(CY_SYS_WDT_COUNTER0_RESET);
 479:ui.c          ****         #endif
 480:ui.c          ****     }
 481:ui.c          **** }
 482:ui.c          **** // Handles measuring the battery ISR with two current steps
 483:ui.c          **** static void measure_Battery_ISR()
 484:ui.c          **** {
 485:ui.c          ****     Display_ClearAll();
 486:ui.c          ****     Display_DrawText(7, 0, "BATT TEST", 1);
 487:ui.c          ****     //This is based roughly on what i can find of the  IEC 61951-1:2005 online
ARM GAS  C:\Users\VIDEOH~1\AppData\Local\Temp\ccpdN5tN.s 			page 10


 488:ui.c          ****     //We use a current of 1A for testing.
 489:ui.c          ****     //First we measure light load
 490:ui.c          ****     Display_DrawText(5, 0, "L Load RUN", 0);
 491:ui.c          ****     set_current(100000);//100mA
 492:ui.c          ****     delayWithWatchDog(10);//light load for 10 seconds
 493:ui.c          ****     uint32_t halfLoadVoltage = get_voltage()*10; //measure in the middle (in 10x vuV)
 494:ui.c          ****     Display_DrawText(5, 76, "PASS", 1);
 495:ui.c          ****     Display_DrawText(3, 0, "F Load RUN", 0);
 496:ui.c          ****     set_current(1000000);//1A
 497:ui.c          ****     delayWithWatchDog(3);//full load for 3 seconds
 498:ui.c          ****     uint32_t fullLoadVoltage = get_voltage()*10;
 499:ui.c          ****     set_current(0);//stop pulling current
 500:ui.c          ****     //Test done
 501:ui.c          ****     //Compute results
 502:ui.c          ****     //Ohms = V/A => We compute two values using the low current
 503:ui.c          ****     //Using Rdc = (V1-V2)/(I2-I1)
 504:ui.c          ****     int Rdc = (halfLoadVoltage-fullLoadVoltage)/(9);
 505:ui.c          ****     //would be divide by 900*100, but we want to shift into milli ohms by 1000*1000
 506:ui.c          ****     //so we move the divisor by 100 and shift the top by 10 previously
 507:ui.c          ****     //Basically we avoid doing the divide as we need to multiple to get the answer scaled correctly
 508:ui.c          ****     //So we basically just remove 1000 from that multiple ^ and then the other part is avoid as we 
 509:ui.c          ****     //So we want an answer that is 10^3 larger than 'correct'
 510:ui.c          ****     Display_DrawText(3, 76, "PASS", 1);
 511:ui.c          ****     char buf[16];
 512:ui.c          ****     format_number(Rdc, FONT_GLYPH_OHM " " FONT_GLYPH_ENTER "Back", buf);//draw it in with the right
 513:ui.c          ****     Display_DrawText(1, 0, buf, 0);
 514:ui.c          ****     //wait for user to acknowledge
 515:ui.c          ****     ui_event event;
 516:ui.c          **** 	event.type = UI_EVENT_NONE;
 517:ui.c          **** 	while(event.type != UI_EVENT_BUTTONPRESS || event.int_arg != 1) {
 518:ui.c          **** 		next_event(&event);
 519:ui.c          **** 	}
 520:ui.c          ****      //were done :)
 521:ui.c          **** }
 522:ui.c          **** 
 523:ui.c          **** static state_func call_void_func(const void *arg) {
  27              		.loc 1 523 0
  28              		.cfi_startproc
  29              		@ args = 0, pretend = 0, frame = 0
  30              		@ frame_needed = 0, uses_anonymous_args = 0
  31              	.LVL0:
  32 0000 10B5     		push	{r4, lr}
  33              		.cfi_def_cfa_offset 8
  34              		.cfi_offset 4, -8
  35              		.cfi_offset 14, -4
  36              		.loc 1 523 0
  37 0002 0400     		movs	r4, r0
 524:ui.c          **** 	((void_func)arg)();
  38              		.loc 1 524 0
  39 0004 8847     		blx	r1
  40              	.LVL1:
 525:ui.c          **** 	return (state_func)STATE_MAIN;
  41              		.loc 1 525 0
  42 0006 0023     		movs	r3, #0
 526:ui.c          **** }
  43              		.loc 1 526 0
  44 0008 2000     		movs	r0, r4
ARM GAS  C:\Users\VIDEOH~1\AppData\Local\Temp\ccpdN5tN.s 			page 11


 525:ui.c          **** 	return (state_func)STATE_MAIN;
  45              		.loc 1 525 0
  46 000a 2360     		str	r3, [r4]
  47 000c 6360     		str	r3, [r4, #4]
  48 000e 2372     		strb	r3, [r4, #8]
  49              		.loc 1 526 0
  50              		@ sp needed
  51              	.LVL2:
  52 0010 10BD     		pop	{r4, pc}
  53              		.cfi_endproc
  54              	.LFE54:
  55              		.size	call_void_func, .-call_void_func
  56              		.global	__aeabi_idiv
  57              		.global	__aeabi_idivmod
  58              		.section	.text.format_number_simple,"ax",%progbits
  59              		.align	1
  60              		.code	16
  61              		.thumb_func
  62              		.type	format_number_simple, %function
  63              	format_number_simple:
  64              	.LFB36:
 244:ui.c          **** 	if(num < 0) num = 0;
  65              		.loc 1 244 0
  66              		.cfi_startproc
  67              		@ args = 0, pretend = 0, frame = 0
  68              		@ frame_needed = 0, uses_anonymous_args = 0
  69              	.LVL3:
  70 0000 F7B5     		push	{r0, r1, r2, r4, r5, r6, r7, lr}
  71              		.cfi_def_cfa_offset 32
  72              		.cfi_offset 0, -32
  73              		.cfi_offset 1, -28
  74              		.cfi_offset 2, -24
  75              		.cfi_offset 4, -20
  76              		.cfi_offset 5, -16
  77              		.cfi_offset 6, -12
  78              		.cfi_offset 7, -8
  79              		.cfi_offset 14, -4
  80 0002 C443     		mvns	r4, r0
 244:ui.c          **** 	if(num < 0) num = 0;
  81              		.loc 1 244 0
  82 0004 0E00     		movs	r6, r1
 248:ui.c          **** }
  83              		.loc 1 248 0
  84 0006 FA21     		movs	r1, #250
  85              	.LVL4:
  86 0008 E417     		asrs	r4, r4, #31
  87 000a 0440     		ands	r4, r0
  88              	.LVL5:
  89 000c 8900     		lsls	r1, r1, #2
  90 000e 2000     		movs	r0, r4
 244:ui.c          **** 	if(num < 0) num = 0;
  91              		.loc 1 244 0
  92 0010 1500     		movs	r5, r2
 248:ui.c          **** }
  93              		.loc 1 248 0
  94 0012 FFF7FEFF 		bl	__aeabi_idiv
  95              	.LVL6:
ARM GAS  C:\Users\VIDEOH~1\AppData\Local\Temp\ccpdN5tN.s 			page 12


  96 0016 FA21     		movs	r1, #250
  97 0018 8900     		lsls	r1, r1, #2
  98 001a FFF7FEFF 		bl	__aeabi_idivmod
  99              	.LVL7:
 100 001e 2000     		movs	r0, r4
 101 0020 0F00     		movs	r7, r1
 102 0022 0549     		ldr	r1, .L4
 103 0024 FFF7FEFF 		bl	__aeabi_idiv
 104              	.LVL8:
 105 0028 0096     		str	r6, [sp]
 106 002a 0200     		movs	r2, r0
 107 002c 3B00     		movs	r3, r7
 108 002e 2800     		movs	r0, r5
 109 0030 0249     		ldr	r1, .L4+4
 110 0032 FFF7FEFF 		bl	sprintf
 111              	.LVL9:
 249:ui.c          **** 
 112              		.loc 1 249 0
 113              		@ sp needed
 114              	.LVL10:
 115              	.LVL11:
 116              	.LVL12:
 117 0036 F7BD     		pop	{r0, r1, r2, r4, r5, r6, r7, pc}
 118              	.L5:
 119              		.align	2
 120              	.L4:
 121 0038 40420F00 		.word	1000000
 122 003c 00000000 		.word	.LC2
 123              		.cfi_endproc
 124              	.LFE36:
 125              		.size	format_number_simple, .-format_number_simple
 126              		.section	.text.format_number,"ax",%progbits
 127              		.align	1
 128              		.code	16
 129              		.thumb_func
 130              		.type	format_number, %function
 131              	format_number:
 132              	.LFB35:
 218:ui.c          **** 	if(num < 0)
 133              		.loc 1 218 0
 134              		.cfi_startproc
 135              		@ args = 0, pretend = 0, frame = 8
 136              		@ frame_needed = 0, uses_anonymous_args = 0
 137              	.LVL13:
 138 0000 F7B5     		push	{r0, r1, r2, r4, r5, r6, r7, lr}
 139              		.cfi_def_cfa_offset 32
 140              		.cfi_offset 0, -32
 141              		.cfi_offset 1, -28
 142              		.cfi_offset 2, -24
 143              		.cfi_offset 4, -20
 144              		.cfi_offset 5, -16
 145              		.cfi_offset 6, -12
 146              		.cfi_offset 7, -8
 147              		.cfi_offset 14, -4
 218:ui.c          **** 	if(num < 0)
 148              		.loc 1 218 0
 149 0002 0400     		movs	r4, r0
ARM GAS  C:\Users\VIDEOH~1\AppData\Local\Temp\ccpdN5tN.s 			page 13


 150 0004 0191     		str	r1, [sp, #4]
 151 0006 1500     		movs	r5, r2
 152 0008 0127     		movs	r7, #1
 219:ui.c          **** 		num = 0;
 153              		.loc 1 219 0
 154 000a 0028     		cmp	r0, #0
 155 000c 0ADB     		blt	.L14
 223:ui.c          **** 		num /= 1000;
 156              		.loc 1 223 0
 157 000e 1E4E     		ldr	r6, .L17
 158              	.LVL14:
 159              	.L8:
 160 0010 B442     		cmp	r4, r6
 161 0012 08DD     		ble	.L7
 224:ui.c          **** 		magnitude++;
 162              		.loc 1 224 0
 163 0014 FA21     		movs	r1, #250
 164 0016 2000     		movs	r0, r4
 165 0018 8900     		lsls	r1, r1, #2
 166 001a FFF7FEFF 		bl	__aeabi_idiv
 167              	.LVL15:
 225:ui.c          **** 	}
 168              		.loc 1 225 0
 169 001e 0137     		adds	r7, r7, #1
 170              	.LVL16:
 224:ui.c          **** 		magnitude++;
 171              		.loc 1 224 0
 172 0020 0400     		movs	r4, r0
 173              	.LVL17:
 174 0022 F5E7     		b	.L8
 175              	.LVL18:
 176              	.L14:
 220:ui.c          **** 
 177              		.loc 1 220 0
 178 0024 0024     		movs	r4, #0
 179              	.LVL19:
 180              	.L7:
 228:ui.c          **** 	if(whole < 10) {
 181              		.loc 1 228 0
 182 0026 FA21     		movs	r1, #250
 183 0028 2000     		movs	r0, r4
 184 002a 8900     		lsls	r1, r1, #2
 185 002c FFF7FEFF 		bl	__aeabi_idiv
 186              	.LVL20:
 187 0030 FA21     		movs	r1, #250
 188 0032 0600     		movs	r6, r0
 189              	.LVL21:
 190 0034 8900     		lsls	r1, r1, #2
 191 0036 2000     		movs	r0, r4
 192              	.LVL22:
 193 0038 FFF7FEFF 		bl	__aeabi_idivmod
 194              	.LVL23:
 195 003c 0800     		movs	r0, r1
 196              	.LVL24:
 229:ui.c          **** 		// Format: x.xx
 197              		.loc 1 229 0
 198 003e 092E     		cmp	r6, #9
ARM GAS  C:\Users\VIDEOH~1\AppData\Local\Temp\ccpdN5tN.s 			page 14


 199 0040 06DC     		bgt	.L10
 231:ui.c          **** 	} else if(whole < 100) {
 200              		.loc 1 231 0
 201 0042 0A21     		movs	r1, #10
 202 0044 FFF7FEFF 		bl	__aeabi_idiv
 203              	.LVL25:
 204 0048 3200     		movs	r2, r6
 205 004a 0300     		movs	r3, r0
 206 004c 0F49     		ldr	r1, .L17+4
 207 004e 07E0     		b	.L15
 208              	.LVL26:
 209              	.L10:
 232:ui.c          **** 		// Format: xx.x
 210              		.loc 1 232 0
 211 0050 632E     		cmp	r6, #99
 212 0052 09DC     		bgt	.L12
 234:ui.c          **** 	} else {
 213              		.loc 1 234 0
 214 0054 6421     		movs	r1, #100
 215 0056 FFF7FEFF 		bl	__aeabi_idiv
 216              	.LVL27:
 217 005a 3200     		movs	r2, r6
 218 005c 0300     		movs	r3, r0
 219 005e 0C49     		ldr	r1, .L17+8
 220              	.LVL28:
 221              	.L15:
 222 0060 2800     		movs	r0, r5
 223 0062 FFF7FEFF 		bl	sprintf
 224              	.LVL29:
 225 0066 04E0     		b	.L11
 226              	.LVL30:
 227              	.L12:
 237:ui.c          **** 	}
 228              		.loc 1 237 0
 229 0068 3200     		movs	r2, r6
 230 006a 0A49     		ldr	r1, .L17+12
 231 006c 2800     		movs	r0, r5
 232              	.LVL31:
 233 006e FFF7FEFF 		bl	sprintf
 234              	.LVL32:
 235              	.L11:
 240:ui.c          ****     strcat(out, suffix);
 236              		.loc 1 240 0
 237 0072 012F     		cmp	r7, #1
 238 0074 03D1     		bne	.L13
 240:ui.c          ****     strcat(out, suffix);
 239              		.loc 1 240 0 is_stmt 0 discriminator 1
 240 0076 0849     		ldr	r1, .L17+16
 241 0078 2800     		movs	r0, r5
 242 007a FFF7FEFF 		bl	strcat
 243              	.LVL33:
 244              	.L13:
 241:ui.c          **** }
 245              		.loc 1 241 0 is_stmt 1
 246 007e 2800     		movs	r0, r5
 247 0080 0199     		ldr	r1, [sp, #4]
 248 0082 FFF7FEFF 		bl	strcat
ARM GAS  C:\Users\VIDEOH~1\AppData\Local\Temp\ccpdN5tN.s 			page 15


 249              	.LVL34:
 242:ui.c          **** 
 250              		.loc 1 242 0
 251              		@ sp needed
 252              	.LVL35:
 253              	.LVL36:
 254 0086 F7BD     		pop	{r0, r1, r2, r4, r5, r6, r7, pc}
 255              	.L18:
 256              		.align	2
 257              	.L17:
 258 0088 3F420F00 		.word	999999
 259 008c 0B000000 		.word	.LC4
 260 0090 14000000 		.word	.LC6
 261 0094 1D000000 		.word	.LC8
 262 0098 22000000 		.word	.LC10
 263              		.cfi_endproc
 264              	.LFE35:
 265              		.size	format_number, .-format_number
 266              		.section	.text.print_voltage,"ax",%progbits
 267              		.align	1
 268              		.global	print_voltage
 269              		.code	16
 270              		.thumb_func
 271              		.type	print_voltage, %function
 272              	print_voltage:
 273              	.LFB43:
 341:ui.c          **** 	format_number(get_voltage(), "V", buf);
 274              		.loc 1 341 0
 275              		.cfi_startproc
 276              		@ args = 0, pretend = 0, frame = 0
 277              		@ frame_needed = 0, uses_anonymous_args = 0
 278              	.LVL37:
 279 0000 10B5     		push	{r4, lr}
 280              		.cfi_def_cfa_offset 8
 281              		.cfi_offset 4, -8
 282              		.cfi_offset 14, -4
 341:ui.c          **** 	format_number(get_voltage(), "V", buf);
 283              		.loc 1 341 0
 284 0002 0400     		movs	r4, r0
 342:ui.c          **** }
 285              		.loc 1 342 0
 286 0004 FFF7FEFF 		bl	get_voltage
 287              	.LVL38:
 288 0008 2200     		movs	r2, r4
 289 000a 0249     		ldr	r1, .L20
 290 000c FFF7FEFF 		bl	format_number
 291              	.LVL39:
 343:ui.c          **** 
 292              		.loc 1 343 0
 293              		@ sp needed
 294              	.LVL40:
 295 0010 10BD     		pop	{r4, pc}
 296              	.L21:
 297 0012 C046     		.align	2
 298              	.L20:
 299 0014 24000000 		.word	.LC12
 300              		.cfi_endproc
ARM GAS  C:\Users\VIDEOH~1\AppData\Local\Temp\ccpdN5tN.s 			page 16


 301              	.LFE43:
 302              		.size	print_voltage, .-print_voltage
 303              		.section	.text.upgrade,"ax",%progbits
 304              		.align	1
 305              		.code	16
 306              		.thumb_func
 307              		.type	upgrade, %function
 308              	upgrade:
 309              	.LFB68:
 527:ui.c          **** //Set the LCD contrast
 528:ui.c          **** static state_func set_contrast(const void *arg) {
 529:ui.c          **** 	Display_ClearAll();
 530:ui.c          **** 	Display_Clear(6, 2, 7, 127, 0xFF);
 531:ui.c          **** 	Display_DrawText(7, 16, "Contrast", 1);
 532:ui.c          **** 	Display_DrawText(1, 28, FONT_GLYPH_ENTER ": Done", 0);
 533:ui.c          **** 
 534:ui.c          **** 	// Left and right ends of the bar
 535:ui.c          ****     Display_DrawText(4,20,FONT_GLYPH_MENU_LARR,0);
 536:ui.c          ****     Display_DrawText(4,96,FONT_GLYPH_MENU_RARR,0);
 537:ui.c          **** 
 538:ui.c          ****     int contrast = settings.lcd_contrast;
 539:ui.c          **** 	ui_event event;
 540:ui.c          **** 	while(1) {
 541:ui.c          **** 		Display_Clear(3, 32, 4,contrast - CONTRAST_MIN+32, 0xFF);
 542:ui.c          ****         if(contrast!=CONTRAST_MAX)
 543:ui.c          **** 		    Display_Clear(3, contrast - CONTRAST_MIN+32+1, 4, 95, 0x81);
 544:ui.c          **** 
 545:ui.c          **** 		next_event(&event);
 546:ui.c          **** 		switch(event.type) {
 547:ui.c          **** 		case UI_EVENT_UPDOWN:
 548:ui.c          **** 			contrast += event.int_arg;
 549:ui.c          **** 			if(contrast > CONTRAST_MAX) {
 550:ui.c          **** 				contrast = CONTRAST_MAX;
 551:ui.c          **** 			} else if(contrast < CONTRAST_MIN) {
 552:ui.c          **** 				contrast = CONTRAST_MIN;
 553:ui.c          **** 			}
 554:ui.c          **** 			Display_SetContrast(contrast);
 555:ui.c          **** 			break;
 556:ui.c          **** 		case UI_EVENT_BUTTONPRESS:
 557:ui.c          **** 			if(event.int_arg == 1) {
 558:ui.c          ****                 settings.lcd_contrast=contrast;
 559:ui.c          **** 				EEPROM_Write(0,(void*)&settings, sizeof(settings_t));
 560:ui.c          **** 				return (state_func)STATE_MAIN;
 561:ui.c          **** 			}
 562:ui.c          **** 			break;
 563:ui.c          **** 		case UI_EVENT_LIMIT:
 564:ui.c          **** 			return (state_func){overlimit, (void *)event.int_arg, 0};
 565:ui.c          **** 		default:
 566:ui.c          **** 			break;
 567:ui.c          **** 		}
 568:ui.c          **** 	}
 569:ui.c          **** }
 570:ui.c          **** static state_func set_cooler(const void *arg) {
 571:ui.c          **** 	Display_ClearAll();
 572:ui.c          **** 	Display_Clear(6, 2, 7, 127, 0xFF);
 573:ui.c          **** 	Display_DrawText(7, 28, "Cooler", 1);
 574:ui.c          **** 	Display_DrawText(1, 28, FONT_GLYPH_ENTER ": Done", 0);
ARM GAS  C:\Users\VIDEOH~1\AppData\Local\Temp\ccpdN5tN.s 			page 17


 575:ui.c          **** 
 576:ui.c          **** 
 577:ui.c          ****     int16 cooler_tmp = settings.cooler_on_temperature;
 578:ui.c          ****     int16 cooler_tmp_show=-32767;
 579:ui.c          **** 	ui_event event;
 580:ui.c          ****     Display_DrawText(5, 16, "SET TEMP", 0);
 581:ui.c          **** 	while(1) {
 582:ui.c          ****         if(cooler_tmp!=cooler_tmp_show)
 583:ui.c          ****         {
 584:ui.c          ****             cooler_tmp_show=cooler_tmp;
 585:ui.c          ****             show_temperature(3,30,cooler_tmp);
 586:ui.c          ****         }
 587:ui.c          **** 
 588:ui.c          **** 		next_event(&event);
 589:ui.c          **** 		switch(event.type) {
 590:ui.c          **** 		case UI_EVENT_UPDOWN:
 591:ui.c          **** 			cooler_tmp += event.int_arg;
 592:ui.c          **** 			if(cooler_tmp > TEMPERATURE_MAX) {
 593:ui.c          **** 				cooler_tmp = TEMPERATURE_MAX;
 594:ui.c          **** 			} else if(cooler_tmp < TEMPERATURE_MIN) {
 595:ui.c          **** 				cooler_tmp = TEMPERATURE_MIN;
 596:ui.c          **** 			}
 597:ui.c          **** 			break;
 598:ui.c          **** 		case UI_EVENT_BUTTONPRESS:
 599:ui.c          **** 			if(event.int_arg == 1) {
 600:ui.c          ****                 settings.cooler_on_temperature=cooler_tmp;
 601:ui.c          ****                 settings.cooler_on_adc_data=termistor_tbl[cooler_tmp+40];
 602:ui.c          ****                 settings.cooler_off_adc_data=termistor_tbl[cooler_tmp+40-COOLER_OFF_DELTA];
 603:ui.c          **** 				EEPROM_Write(0,(void*)&settings, sizeof(settings_t));
 604:ui.c          **** 				return (state_func)STATE_MAIN;
 605:ui.c          **** 			}
 606:ui.c          **** 			break;
 607:ui.c          **** 		case UI_EVENT_LIMIT:
 608:ui.c          **** 			return (state_func){overlimit, (void *)event.int_arg, 0};
 609:ui.c          **** 		default:
 610:ui.c          **** 			break;
 611:ui.c          **** 		}
 612:ui.c          **** 	}
 613:ui.c          **** }
 614:ui.c          **** 
 615:ui.c          **** static state_func ui_set_min_voltage(const void *arg) {
 616:ui.c          ****     Display_ClearAll();
 617:ui.c          **** 	//Display_Clear(5, 2, 7, 127, 0xFF);
 618:ui.c          **** 	Display_DrawText(7, 0, "MinVoltage", 1);
 619:ui.c          **** 
 620:ui.c          ****     ui_event event;
 621:ui.c          ****     uint8_t on = state.lower_voltage_limit != -1;
 622:ui.c          ****     int vlim = on?state.lower_voltage_limit:get_voltage();
 623:ui.c          ****     vlim -= vlim % 100000;
 624:ui.c          ****     uint8_t stage = 0;
 625:ui.c          ****     char buf[8];
 626:ui.c          **** 
 627:ui.c          ****     while(stage == 0) {
 628:ui.c          ****         Display_DrawText(4, 17, "ON", on);
 629:ui.c          ****         Display_DrawText(4, 77, "OFF", !on);
 630:ui.c          ****         format_number(vlim, "V", buf);
 631:ui.c          ****         Display_DrawText(1, 40, buf, 0);
ARM GAS  C:\Users\VIDEOH~1\AppData\Local\Temp\ccpdN5tN.s 			page 18


 632:ui.c          **** 
 633:ui.c          ****         next_event(&event);
 634:ui.c          ****         switch(event.type) {
 635:ui.c          ****         case UI_EVENT_UPDOWN:
 636:ui.c          ****             on ^= event.int_arg & 1;
 637:ui.c          ****             break;
 638:ui.c          ****         case UI_EVENT_BUTTONPRESS:
 639:ui.c          ****             if(event.int_arg != 1)
 640:ui.c          ****                 break;
 641:ui.c          ****             if(on) {
 642:ui.c          ****                 stage = 1;
 643:ui.c          ****             } else {
 644:ui.c          ****                 state.lower_voltage_limit = -1;
 645:ui.c          ****                 return (state_func)STATE_MAIN;
 646:ui.c          ****             }
 647:ui.c          ****             break;
 648:ui.c          ****         case UI_EVENT_LIMIT:
 649:ui.c          ****             return (state_func){overlimit, (void *)event.int_arg, 0};
 650:ui.c          ****         default:
 651:ui.c          ****             break;
 652:ui.c          ****         }
 653:ui.c          ****     }
 654:ui.c          **** 
 655:ui.c          ****     while(1) {
 656:ui.c          ****         format_number(vlim, "V", buf);
 657:ui.c          **** 	    Display_Clear(0, 80, 1, 114, 0);
 658:ui.c          ****         Display_DrawText(1, 40, buf, 1);
 659:ui.c          **** 
 660:ui.c          ****         next_event(&event);
 661:ui.c          ****         switch(event.type) {
 662:ui.c          ****         case UI_EVENT_UPDOWN:
 663:ui.c          ****             vlim += 100000 * event.int_arg;
 664:ui.c          ****             if(vlim<0) vlim=0;
 665:ui.c          ****             break;
 666:ui.c          ****         case UI_EVENT_BUTTONPRESS:
 667:ui.c          ****             if(event.int_arg != 1)
 668:ui.c          ****                 break;
 669:ui.c          ****             state.lower_voltage_limit = vlim;
 670:ui.c          ****             return (state_func)STATE_MAIN;
 671:ui.c          ****         case UI_EVENT_LIMIT:
 672:ui.c          ****             return (state_func){overlimit, (void *)event.int_arg, 0};
 673:ui.c          ****         default:
 674:ui.c          ****             break;
 675:ui.c          ****         }
 676:ui.c          ****     }
 677:ui.c          **** }
 678:ui.c          **** 
 679:ui.c          **** static state_func overlimit(const void *arg) {
 680:ui.c          **** 	Display_Clear(0, 0, 7, 127, 0xFF);
 681:ui.c          ****     switch((limit_type)arg) {
 682:ui.c          ****     case LIMIT_TYPE_OVERTEMP:
 683:ui.c          ****     	Display_DrawText(5, 0, "!OVERTEMP!", 1);
 684:ui.c          ****         break;
 685:ui.c          ****     case LIMIT_TYPE_UNDERVOLT:
 686:ui.c          ****         Display_DrawText(5, 0, "!UNDERVOLT!", 1);
 687:ui.c          ****         break;
 688:ui.c          ****     }
ARM GAS  C:\Users\VIDEOH~1\AppData\Local\Temp\ccpdN5tN.s 			page 19


 689:ui.c          **** 	Display_DrawText(1, 16, FONT_GLYPH_ENTER ":Reset", 1);
 690:ui.c          **** 
 691:ui.c          **** 	ui_event event;
 692:ui.c          **** 	event.type = UI_EVENT_NONE;
 693:ui.c          **** 	while(event.type != UI_EVENT_BUTTONPRESS || event.int_arg != 1) {
 694:ui.c          **** 		next_event(&event);
 695:ui.c          **** 		if(get_output_mode() == OUTPUT_MODE_FEEDBACK)
 696:ui.c          **** 			return (state_func)STATE_MAIN;
 697:ui.c          **** 	}
 698:ui.c          **** 
 699:ui.c          **** 	set_current(0);
 700:ui.c          **** 	set_output_mode(OUTPUT_MODE_FEEDBACK);
 701:ui.c          **** 	return (state_func)STATE_MAIN;
 702:ui.c          ****     CyDelay(1000);
 703:ui.c          **** }
 704:ui.c          **** 
 705:ui.c          **** static state_func menu(const void *arg) {
 706:ui.c          **** 	const menudata *menu = (const menudata *)arg;
 707:ui.c          **** 
 708:ui.c          **** 	Display_ClearAll();
 709:ui.c          **** 	int selected = 0;
 710:ui.c          **** 	ui_event event;
 711:ui.c          **** 	event.type = UI_EVENT_NONE;
 712:ui.c          **** 	while(event.type != UI_EVENT_BUTTONPRESS || event.int_arg != 1) {
 713:ui.c          **** 		draw_menu(menu, selected);
 714:ui.c          **** 		next_event(&event);
 715:ui.c          **** 		switch(event.type) {
 716:ui.c          **** 		case UI_EVENT_UPDOWN:
 717:ui.c          **** 			if(event.int_arg < 0) {
 718:ui.c          **** 				// Move up the menu
 719:ui.c          **** 				if(selected + event.int_arg >= 0) {
 720:ui.c          **** 					selected += event.int_arg;
 721:ui.c          **** 				} else {
 722:ui.c          **** 					selected = 0;
 723:ui.c          **** 				}
 724:ui.c          **** 			} else {
 725:ui.c          **** 				// Move down the menu (but not past the end)
 726:ui.c          **** 				for(int i = 0; i < event.int_arg; i++) {
 727:ui.c          **** 					if(menu->items[selected + 1].caption == NULL)
 728:ui.c          **** 						break;
 729:ui.c          **** 					selected++;
 730:ui.c          **** 				}
 731:ui.c          **** 			}
 732:ui.c          **** 			break;
 733:ui.c          **** 		case UI_EVENT_LIMIT:
 734:ui.c          **** 			return (state_func){overlimit, (void *)event.int_arg, 0};
 735:ui.c          **** 		default:
 736:ui.c          **** 			break;
 737:ui.c          **** 		}
 738:ui.c          **** 	}
 739:ui.c          ****     
 740:ui.c          **** 	return menu->items[selected].new_state;
 741:ui.c          **** }
 742:ui.c          **** 
 743:ui.c          **** 
 744:ui.c          **** static state_func cc_load(const void *arg) {
 745:ui.c          **** 	static portTickType last_adjust_current_setpoint = 0;
ARM GAS  C:\Users\VIDEOH~1\AppData\Local\Temp\ccpdN5tN.s 			page 20


 746:ui.c          **** 
 747:ui.c          **** 	Display_ClearAll();
 748:ui.c          **** 
 749:ui.c          **** 	ui_event event;
 750:ui.c          **** 	while(1) {
 751:ui.c          **** 		next_event(&event);
 752:ui.c          **** 		switch(event.type) {
 753:ui.c          **** 		case UI_EVENT_BUTTONPRESS:
 754:ui.c          **** 			if(event.int_arg == 1)
 755:ui.c          **** 				return (state_func)STATE_MAIN_MENU;
 756:ui.c          ****             break;
 757:ui.c          ****         case UI_EVENT_LONG_BUTTONPRESS:
 758:ui.c          ****             if(get_output_mode() != OUTPUT_MODE_FEEDBACK) {
 759:ui.c          ****                 set_output_mode(OUTPUT_MODE_FEEDBACK);
 760:ui.c          ****             } else {
 761:ui.c          ****                 set_output_mode(OUTPUT_MODE_OFF);
 762:ui.c          ****             }
 763:ui.c          ****             break;
 764:ui.c          **** 		case UI_EVENT_UPDOWN:
 765:ui.c          **** 			last_adjust_current_setpoint = xTaskGetTickCount();
 766:ui.c          **** 			adjust_current_setpoint(event.int_arg, event.duration);
 767:ui.c          **** 			break;
 768:ui.c          **** 		case UI_EVENT_LIMIT:
 769:ui.c          **** 			return (state_func){overlimit, (void *)event.int_arg, 0};
 770:ui.c          **** 		default:
 771:ui.c          **** 			break;
 772:ui.c          **** 		}
 773:ui.c          **** 		draw_status(&settings.display_settings.named.cc, (xTaskGetTickCount() - last_adjust_current_setpo
 774:ui.c          **** 		//CyDelay(200);
 775:ui.c          **** 	}
 776:ui.c          **** }
 777:ui.c          **** 
 778:ui.c          **** #define CALIBRATION_CURRENT 2000000
 779:ui.c          **** 
 780:ui.c          **** // Calibrates the ADC voltage and current offsets.
 781:ui.c          **** // Run with nothing attached to the terminals.
 782:ui.c          **** static void ui_calibrate_offsets(settings_t *new_settings) {
 783:ui.c          ****     state.calibrating = 1;
 784:ui.c          **** 
 785:ui.c          ****     IDAC_Low_SetValue(0);
 786:ui.c          ****     IDAC_High_SetValue(0);
 787:ui.c          **** 
 788:ui.c          **** 	Display_DrawText(5, 26, "Remove", 0);
 789:ui.c          **** 	Display_DrawText(3, 32, "Leads", 0);
 790:ui.c          **** 	Display_DrawText(1, 26, FONT_GLYPH_ENTER ": Next", 0);
 791:ui.c          **** 
 792:ui.c          **** 	// Wait for a button press
 793:ui.c          **** 	ui_event event;
 794:ui.c          **** 	event.type = UI_EVENT_NONE;
 795:ui.c          **** 	while(event.type != UI_EVENT_BUTTONPRESS || event.int_arg != 1)
 796:ui.c          **** 		next_event(&event);
 797:ui.c          **** 
 798:ui.c          **** 	calibrate_offsets(new_settings);
 799:ui.c          ****     state.calibrating = 0;
 800:ui.c          **** }
 801:ui.c          **** 
 802:ui.c          **** // Calibrate the ADC voltage gain.
ARM GAS  C:\Users\VIDEOH~1\AppData\Local\Temp\ccpdN5tN.s 			page 21


 803:ui.c          **** // Run with a known voltage across the terminals
 804:ui.c          **** static void ui_calibrate_voltage(settings_t *new_settings) {
 805:ui.c          ****     state.calibrating = 1;
 806:ui.c          **** 
 807:ui.c          ****     IDAC_Low_SetValue(0);
 808:ui.c          ****     IDAC_High_SetValue(0);
 809:ui.c          **** 
 810:ui.c          **** 	Display_DrawText(5, 20, "Adj Volt", 0);
 811:ui.c          **** 
 812:ui.c          **** 	ui_event event;
 813:ui.c          **** 	char buf[16];
 814:ui.c          **** 	event.type = UI_EVENT_NONE;
 815:ui.c          **** 	while(event.type != UI_EVENT_BUTTONPRESS || event.int_arg != 1) {
 816:ui.c          **** 		next_event(&event);
 817:ui.c          **** 
 818:ui.c          **** 		int voltage = (get_raw_voltage() - new_settings->calibration_settings.adc_voltage_offset) * new_s
 819:ui.c          **** 		format_number_simple(voltage, "V", buf);
 820:ui.c          **** 		strcat(buf, " ");
 821:ui.c          **** 		Display_DrawText(3, 14, buf, 0);
 822:ui.c          **** 
 823:ui.c          **** 		switch(event.type) {
 824:ui.c          **** 		case UI_EVENT_UPDOWN:
 825:ui.c          **** 			new_settings->calibration_settings.adc_voltage_gain += event.int_arg;
 826:ui.c          **** 			break;
 827:ui.c          **** 		default:
 828:ui.c          **** 			break;
 829:ui.c          **** 		}
 830:ui.c          **** 	}
 831:ui.c          ****     state.calibrating = 0;
 832:ui.c          **** }
 833:ui.c          **** 
 834:ui.c          **** static void ui_calibrate_current(settings_t *new_settings) {
 835:ui.c          ****     state.calibrating = 1;
 836:ui.c          **** 
 837:ui.c          ****     IDAC_Low_SetValue(0);
 838:ui.c          ****     IDAC_High_SetValue((CALIBRATION_CURRENT - new_settings->calibration_settings.dac_offset) / new_
 839:ui.c          **** 
 840:ui.c          ****     Display_Clear(0, 0, 5, 127, 0);
 841:ui.c          **** 	Display_DrawText(5, 20, "Adj Cur", 0);
 842:ui.c          **** 	Display_DrawText(1, 26, FONT_GLYPH_ENTER ": Next", 0);
 843:ui.c          **** 
 844:ui.c          **** 	ui_event event;
 845:ui.c          **** 	char buf[16];
 846:ui.c          **** 	int current;
 847:ui.c          **** 
 848:ui.c          **** 	event.type = UI_EVENT_NONE;
 849:ui.c          **** 	while(event.type != UI_EVENT_BUTTONPRESS || event.int_arg != 1) {
 850:ui.c          **** 		next_event(&event);
 851:ui.c          **** 
 852:ui.c          **** 		current = (get_raw_current_usage() - new_settings->calibration_settings.adc_current_offset) * new
 853:ui.c          **** 		format_number_simple(current, "A", buf);
 854:ui.c          **** 		strcat(buf, " ");
 855:ui.c          **** 		Display_DrawText(3, 14, buf, 0);
 856:ui.c          **** 
 857:ui.c          **** 		switch(event.type) {
 858:ui.c          **** 		case UI_EVENT_UPDOWN:
 859:ui.c          **** 			new_settings->calibration_settings.adc_current_gain += event.int_arg;
ARM GAS  C:\Users\VIDEOH~1\AppData\Local\Temp\ccpdN5tN.s 			page 22


 860:ui.c          **** 			break;
 861:ui.c          **** 		default:
 862:ui.c          **** 			break;
 863:ui.c          **** 		}
 864:ui.c          **** 	}
 865:ui.c          ****     state.calibrating = 0;
 866:ui.c          **** }
 867:ui.c          **** 
 868:ui.c          **** static void ui_calibrate_voltage_correction(settings_t *new_settings) {
 869:ui.c          **** 	state.calibrating = 1;
 870:ui.c          **** 
 871:ui.c          **** 	IDAC_Low_SetValue(0);
 872:ui.c          **** 	IDAC_High_SetValue((CALIBRATION_CURRENT - new_settings->calibration_settings.dac_offset) / new_set
 873:ui.c          **** 
 874:ui.c          **** 	Display_Clear(0, 0, 5, 127, 0);
 875:ui.c          **** 	Display_DrawText(5, 20, "Adj Volt", 0);
 876:ui.c          **** 	Display_DrawText(1, 26, FONT_GLYPH_ENTER ": Next", 0);
 877:ui.c          **** 
 878:ui.c          **** 	ui_event event;
 879:ui.c          **** 	char buf[16];
 880:ui.c          **** 	int current, voltage;
 881:ui.c          **** 
 882:ui.c          **** 	event.type = UI_EVENT_NONE;
 883:ui.c          **** 	while(event.type != UI_EVENT_BUTTONPRESS || event.int_arg != 1) {
 884:ui.c          **** 		next_event(&event);
 885:ui.c          **** 
 886:ui.c          **** 		current = (get_raw_current_usage() - new_settings->calibration_settings.adc_current_offset) * new
 887:ui.c          **** 		voltage = (get_raw_voltage() - new_settings->calibration_settings.adc_voltage_offset) * new_setti
 888:ui.c          **** 		voltage += (current / 1024) * new_settings->calibration_settings.voltage_correction_ratio;
 889:ui.c          **** 		format_number_simple(voltage, "V", buf);
 890:ui.c          **** 		strcat(buf, " ");
 891:ui.c          **** 		Display_DrawText(3, 14, buf, 0);
 892:ui.c          **** 
 893:ui.c          **** 		switch(event.type) {
 894:ui.c          **** 		case UI_EVENT_UPDOWN:
 895:ui.c          **** 			new_settings->calibration_settings.voltage_correction_ratio += event.int_arg;
 896:ui.c          **** 			break;
 897:ui.c          **** 		default:
 898:ui.c          **** 			break;
 899:ui.c          **** 		}
 900:ui.c          **** 	}
 901:ui.c          **** 	state.calibrating = 0;
 902:ui.c          **** }
 903:ui.c          **** 
 904:ui.c          **** // Calibrates the opamp and current DAC offsets.
 905:ui.c          **** // Run with a voltage source attached
 906:ui.c          **** 
 907:ui.c          **** void ui_calibration_progress(int current, int all) {
 908:ui.c          **** 	Display_Clear(0, 2, 1, 128 * current / all, 0xFF);
 909:ui.c          **** }
 910:ui.c          **** 
 911:ui.c          **** static void ui_calibrate_dacs(settings_t *new_settings) {
 912:ui.c          **** 	Display_Clear(0, 0, 5, 127, 0);
 913:ui.c          **** 	Display_DrawText(4, 40, "Wait", 0);
 914:ui.c          **** 
 915:ui.c          ****     // Draw a progress bar
 916:ui.c          ****     Display_Clear(0, 0, 1, 1, 0xFF);
ARM GAS  C:\Users\VIDEOH~1\AppData\Local\Temp\ccpdN5tN.s 			page 23


 917:ui.c          **** 	Display_Clear(0, 126, 1, 127, 0xFF);
 918:ui.c          ****     Display_Clear(0, 2, 1, 125, 0x81);
 919:ui.c          ****     calibrate_opamp_offset_trim(new_settings, CALIBRATION_CURRENT,ui_calibration_progress);
 920:ui.c          **** 	calibrate_dacs(new_settings, CALIBRATION_CURRENT);
 921:ui.c          **** }
 922:ui.c          **** 
 923:ui.c          **** static state_func ui_calibrate(const void *arg) {
 924:ui.c          **** 	set_current(0);
 925:ui.c          **** 	set_output_mode(OUTPUT_MODE_FEEDBACK);
 926:ui.c          **** 
 927:ui.c          **** 	settings_t new_settings;
 928:ui.c          **** 	memcpy(&new_settings, &settings, sizeof(settings_t));
 929:ui.c          **** 	memcpy(&new_settings.calibration_settings, &default_settings.calibration_settings, sizeof(calibrat
 930:ui.c          **** 
 931:ui.c          **** 	Display_ClearAll();
 932:ui.c          **** 	Display_DrawText(7, 8, "CALIBRATE", 1);
 933:ui.c          **** 
 934:ui.c          **** 	ui_calibrate_offsets(&new_settings);
 935:ui.c          **** 	ui_calibrate_voltage(&new_settings);
 936:ui.c          **** 	ui_calibrate_current(&new_settings);
 937:ui.c          **** 	ui_calibrate_voltage_correction(&new_settings);
 938:ui.c          **** 	ui_calibrate_dacs(&new_settings);
 939:ui.c          ****     memcpy((uint8*)&settings,(uint8*)&new_settings, sizeof(settings_t));
 940:ui.c          **** 	EEPROM_Write(0,(uint8*)&settings, sizeof(settings_t));
 941:ui.c          **** 
 942:ui.c          **** 	return (state_func){NULL, NULL, 0};
 943:ui.c          **** }
 944:ui.c          **** 
 945:ui.c          **** static state_func upgrade(const void *arg) {
 310              		.loc 1 945 0
 311              		.cfi_startproc
 312              		@ args = 0, pretend = 0, frame = 0
 313              		@ frame_needed = 0, uses_anonymous_args = 0
 314              	.LVL41:
 315 0000 10B5     		push	{r4, lr}
 316              		.cfi_def_cfa_offset 8
 317              		.cfi_offset 4, -8
 318              		.cfi_offset 14, -4
 319              		.loc 1 945 0
 320 0002 0400     		movs	r4, r0
 946:ui.c          **** #ifdef Bootloadable_START_BTLDR
 947:ui.c          ****     Display_ClearAll();
 321              		.loc 1 947 0
 322 0004 FFF7FEFF 		bl	Display_ClearAll
 323              	.LVL42:
 948:ui.c          ****     Display_DrawText(7, 10, "!UPGRADE!", 1);
 324              		.loc 1 948 0
 325 0008 0123     		movs	r3, #1
 326 000a 0F4A     		ldr	r2, .L23
 327 000c 0A21     		movs	r1, #10
 328 000e 0720     		movs	r0, #7
 329 0010 FFF7FEFF 		bl	Display_DrawText
 330              	.LVL43:
 949:ui.c          ****     Display_DrawText(5, 20, "READY TO", 0);
 331              		.loc 1 949 0
 332 0014 0023     		movs	r3, #0
 333 0016 0D4A     		ldr	r2, .L23+4
ARM GAS  C:\Users\VIDEOH~1\AppData\Local\Temp\ccpdN5tN.s 			page 24


 334 0018 1421     		movs	r1, #20
 335 001a 0520     		movs	r0, #5
 336 001c FFF7FEFF 		bl	Display_DrawText
 337              	.LVL44:
 950:ui.c          ****     Display_DrawText(3, 20, "FIRMWARE", 0);
 338              		.loc 1 950 0
 339 0020 0023     		movs	r3, #0
 340 0022 0B4A     		ldr	r2, .L23+8
 341 0024 1421     		movs	r1, #20
 342 0026 0320     		movs	r0, #3
 343 0028 FFF7FEFF 		bl	Display_DrawText
 344              	.LVL45:
 951:ui.c          ****     Display_DrawText(1, 20, "DOWNLOAD", 0);
 345              		.loc 1 951 0
 346 002c 0023     		movs	r3, #0
 347 002e 094A     		ldr	r2, .L23+12
 348 0030 1421     		movs	r1, #20
 349 0032 0120     		movs	r0, #1
 350 0034 FFF7FEFF 		bl	Display_DrawText
 351              	.LVL46:
 952:ui.c          ****     Bootloadable_Load();  // Never returns...
 352              		.loc 1 952 0
 353 0038 FFF7FEFF 		bl	Bootloadable_Load
 354              	.LVL47:
 953:ui.c          **** #endif
 954:ui.c          ****     return (state_func){NULL, NULL, 0}; // ...yet, we should make compiler happy
 355              		.loc 1 954 0
 356 003c 0023     		movs	r3, #0
 955:ui.c          **** }
 357              		.loc 1 955 0
 358 003e 2000     		movs	r0, r4
 954:ui.c          **** }
 359              		.loc 1 954 0
 360 0040 2360     		str	r3, [r4]
 361 0042 6360     		str	r3, [r4, #4]
 362 0044 2372     		strb	r3, [r4, #8]
 363              		.loc 1 955 0
 364              		@ sp needed
 365              	.LVL48:
 366 0046 10BD     		pop	{r4, pc}
 367              	.L24:
 368              		.align	2
 369              	.L23:
 370 0048 26000000 		.word	.LC14
 371 004c 30000000 		.word	.LC16
 372 0050 39000000 		.word	.LC18
 373 0054 42000000 		.word	.LC20
 374              		.cfi_endproc
 375              	.LFE68:
 376              		.size	upgrade, .-upgrade
 377              		.section	.text.next_event,"ax",%progbits
 378              		.align	1
 379              		.code	16
 380              		.thumb_func
 381              		.type	next_event, %function
 382              	next_event:
 383              	.LFB38:
ARM GAS  C:\Users\VIDEOH~1\AppData\Local\Temp\ccpdN5tN.s 			page 25


 260:ui.c          **** 	static portTickType last_tick = 0;
 384              		.loc 1 260 0
 385              		.cfi_startproc
 386              		@ args = 0, pretend = 0, frame = 16
 387              		@ frame_needed = 0, uses_anonymous_args = 0
 388              	.LVL49:
 389 0000 7FB5     		push	{r0, r1, r2, r3, r4, r5, r6, lr}
 390              		.cfi_def_cfa_offset 32
 391              		.cfi_offset 0, -32
 392              		.cfi_offset 1, -28
 393              		.cfi_offset 2, -24
 394              		.cfi_offset 3, -20
 395              		.cfi_offset 4, -16
 396              		.cfi_offset 5, -12
 397              		.cfi_offset 6, -8
 398              		.cfi_offset 14, -4
 260:ui.c          **** 	static portTickType last_tick = 0;
 399              		.loc 1 260 0
 400 0002 0400     		movs	r4, r0
 264:ui.c          **** 
 401              		.loc 1 264 0
 402 0004 FFF7FEFF 		bl	xTaskGetTickCount
 403              	.LVL50:
 266:ui.c          ****         event->type = UI_EVENT_LONG_BUTTONPRESS;
 404              		.loc 1 266 0
 405 0008 1B4B     		ldr	r3, .L38
 264:ui.c          **** 
 406              		.loc 1 264 0
 407 000a 0500     		movs	r5, r0
 408              	.LVL51:
 266:ui.c          ****         event->type = UI_EVENT_LONG_BUTTONPRESS;
 409              		.loc 1 266 0
 410 000c 1B68     		ldr	r3, [r3]
 411 000e 1B4E     		ldr	r6, .L38+4
 412 0010 9842     		cmp	r0, r3
 413 0012 09D9     		bls	.L26
 266:ui.c          ****         event->type = UI_EVENT_LONG_BUTTONPRESS;
 414              		.loc 1 266 0 is_stmt 0 discriminator 1
 415 0014 3378     		ldrb	r3, [r6]
 416 0016 002B     		cmp	r3, #0
 417 0018 06D1     		bne	.L26
 267:ui.c          ****         event->when = now;
 418              		.loc 1 267 0 is_stmt 1
 419 001a 0222     		movs	r2, #2
 269:ui.c          ****         long_press_sent = 1;
 420              		.loc 1 269 0
 421 001c 6360     		str	r3, [r4, #4]
 270:ui.c          ****     } else if(now - last_tick >  configTICK_RATE_HZ / UI_TASK_FREQUENCY
 422              		.loc 1 270 0
 423 001e 0133     		adds	r3, r3, #1
 267:ui.c          ****         event->when = now;
 424              		.loc 1 267 0
 425 0020 2270     		strb	r2, [r4]
 268:ui.c          ****         event->int_arg = 0;
 426              		.loc 1 268 0
 427 0022 E060     		str	r0, [r4, #12]
 270:ui.c          ****     } else if(now - last_tick >  configTICK_RATE_HZ / UI_TASK_FREQUENCY
ARM GAS  C:\Users\VIDEOH~1\AppData\Local\Temp\ccpdN5tN.s 			page 26


 428              		.loc 1 270 0
 429 0024 3370     		strb	r3, [r6]
 430 0026 25E0     		b	.L25
 431              	.L26:
 271:ui.c          ****         || !xQueueReceive(ui_queue, event, configTICK_RATE_HZ / UI_TASK_FREQUENCY - (now - last_tic
 432              		.loc 1 271 0
 433 0028 7268     		ldr	r2, [r6, #4]
 434 002a AB1A     		subs	r3, r5, r2
 435 002c 322B     		cmp	r3, #50
 436 002e 01D9     		bls	.L28
 437              	.LVL52:
 438              	.L29:
 273:ui.c          **** 		event->when = now;
 439              		.loc 1 273 0
 440 0030 0423     		movs	r3, #4
 441 0032 19E0     		b	.L37
 442              	.LVL53:
 443              	.L28:
 272:ui.c          **** 		event->type = UI_EVENT_TICK;
 444              		.loc 1 272 0
 445 0034 1248     		ldr	r0, .L38+8
 446              	.LVL54:
 447 0036 3232     		adds	r2, r2, #50
 448 0038 521B     		subs	r2, r2, r5
 449 003a 0023     		movs	r3, #0
 450 003c 2100     		movs	r1, r4
 451 003e 0068     		ldr	r0, [r0]
 452 0040 FFF7FEFF 		bl	xQueueGenericReceive
 453              	.LVL55:
 454 0044 0028     		cmp	r0, #0
 455 0046 F3D0     		beq	.L29
 279:ui.c          ****         // Bootloading overrides everything
 456              		.loc 1 279 0
 457 0048 2378     		ldrb	r3, [r4]
 458 004a 062B     		cmp	r3, #6
 459 004c 04D1     		bne	.L30
 281:ui.c          ****     } else if(event->type == UI_EVENT_BUTTONPRESS && long_press_sent) {
 460              		.loc 1 281 0
 461 004e 0021     		movs	r1, #0
 462 0050 6846     		mov	r0, sp
 463 0052 FFF7FEFF 		bl	upgrade
 464              	.LVL56:
 465 0056 0DE0     		b	.L25
 466              	.L30:
 282:ui.c          ****         long_press_sent = 0;
 467              		.loc 1 282 0
 468 0058 012B     		cmp	r3, #1
 469 005a 0BD1     		bne	.L25
 282:ui.c          ****         long_press_sent = 0;
 470              		.loc 1 282 0 is_stmt 0 discriminator 1
 471 005c 3378     		ldrb	r3, [r6]
 472 005e 002B     		cmp	r3, #0
 473 0060 08D0     		beq	.L25
 283:ui.c          **** 		event->type = UI_EVENT_TICK;
 474              		.loc 1 283 0 is_stmt 1
 475 0062 0023     		movs	r3, #0
 476 0064 3370     		strb	r3, [r6]
ARM GAS  C:\Users\VIDEOH~1\AppData\Local\Temp\ccpdN5tN.s 			page 27


 284:ui.c          **** 		event->when = now;
 477              		.loc 1 284 0
 478 0066 0433     		adds	r3, r3, #4
 479              	.L37:
 480 0068 2370     		strb	r3, [r4]
 285:ui.c          **** 		last_tick = now;
 481              		.loc 1 285 0
 482 006a E560     		str	r5, [r4, #12]
 288:ui.c          **** #endif
 483              		.loc 1 288 0
 484 006c 0820     		movs	r0, #8
 286:ui.c          **** #ifdef USE_WATCHDOG
 485              		.loc 1 286 0
 486 006e 7560     		str	r5, [r6, #4]
 288:ui.c          **** #endif
 487              		.loc 1 288 0
 488 0070 FFF7FEFF 		bl	CySysWdtResetCounters
 489              	.LVL57:
 490              	.L25:
 291:ui.c          **** 
 491              		.loc 1 291 0
 492              		@ sp needed
 493              	.LVL58:
 494              	.LVL59:
 495 0074 7FBD     		pop	{r0, r1, r2, r3, r4, r5, r6, pc}
 496              	.L39:
 497 0076 C046     		.align	2
 498              	.L38:
 499 0078 00000000 		.word	.LANCHOR0
 500 007c 00000000 		.word	.LANCHOR1
 501 0080 00000000 		.word	ui_queue
 502              		.cfi_endproc
 503              	.LFE38:
 504              		.size	next_event, .-next_event
 505              		.section	.text.ui_set_min_voltage,"ax",%progbits
 506              		.align	1
 507              		.code	16
 508              		.thumb_func
 509              		.type	ui_set_min_voltage, %function
 510              	ui_set_min_voltage:
 511              	.LFB57:
 615:ui.c          ****     Display_ClearAll();
 512              		.loc 1 615 0
 513              		.cfi_startproc
 514              		@ args = 0, pretend = 0, frame = 32
 515              		@ frame_needed = 0, uses_anonymous_args = 0
 516              	.LVL60:
 517 0000 F0B5     		push	{r4, r5, r6, r7, lr}
 518              		.cfi_def_cfa_offset 20
 519              		.cfi_offset 4, -20
 520              		.cfi_offset 5, -16
 521              		.cfi_offset 6, -12
 522              		.cfi_offset 7, -8
 523              		.cfi_offset 14, -4
 524 0002 8BB0     		sub	sp, sp, #44
 525              		.cfi_def_cfa_offset 64
 615:ui.c          ****     Display_ClearAll();
ARM GAS  C:\Users\VIDEOH~1\AppData\Local\Temp\ccpdN5tN.s 			page 28


 526              		.loc 1 615 0
 527 0004 0500     		movs	r5, r0
 616:ui.c          **** 	//Display_Clear(5, 2, 7, 127, 0xFF);
 528              		.loc 1 616 0
 529 0006 FFF7FEFF 		bl	Display_ClearAll
 530              	.LVL61:
 618:ui.c          **** 
 531              		.loc 1 618 0
 532 000a 0123     		movs	r3, #1
 533 000c 424A     		ldr	r2, .L61
 534 000e 0021     		movs	r1, #0
 535 0010 0720     		movs	r0, #7
 536 0012 FFF7FEFF 		bl	Display_DrawText
 537              	.LVL62:
 621:ui.c          ****     int vlim = on?state.lower_voltage_limit:get_voltage();
 538              		.loc 1 621 0
 539 0016 414B     		ldr	r3, .L61+4
 540 0018 5C68     		ldr	r4, [r3, #4]
 541 001a 0393     		str	r3, [sp, #12]
 542 001c 661C     		adds	r6, r4, #1
 543 001e 721E     		subs	r2, r6, #1
 544 0020 9641     		sbcs	r6, r6, r2
 545 0022 F6B2     		uxtb	r6, r6
 546              	.LVL63:
 622:ui.c          ****     vlim -= vlim % 100000;
 547              		.loc 1 622 0
 548 0024 631C     		adds	r3, r4, #1
 549 0026 02D1     		bne	.L41
 622:ui.c          ****     vlim -= vlim % 100000;
 550              		.loc 1 622 0 is_stmt 0 discriminator 2
 551 0028 FFF7FEFF 		bl	get_voltage
 552              	.LVL64:
 553 002c 0400     		movs	r4, r0
 554              	.L41:
 555              	.LVL65:
 623:ui.c          ****     uint8_t stage = 0;
 556              		.loc 1 623 0 is_stmt 1 discriminator 4
 557 002e 2000     		movs	r0, r4
 558 0030 3B49     		ldr	r1, .L61+8
 559 0032 FFF7FEFF 		bl	__aeabi_idivmod
 560              	.LVL66:
 561 0036 641A     		subs	r4, r4, r1
 562              	.LVL67:
 563              	.L42:
 628:ui.c          ****         Display_DrawText(4, 77, "OFF", !on);
 564              		.loc 1 628 0
 565 0038 3300     		movs	r3, r6
 566 003a 3A4A     		ldr	r2, .L61+12
 567 003c 1121     		movs	r1, #17
 568 003e 0420     		movs	r0, #4
 569 0040 FFF7FEFF 		bl	Display_DrawText
 570              	.LVL68:
 629:ui.c          ****         format_number(vlim, "V", buf);
 571              		.loc 1 629 0
 572 0044 0123     		movs	r3, #1
 573 0046 384A     		ldr	r2, .L61+16
 574 0048 7340     		eors	r3, r6
ARM GAS  C:\Users\VIDEOH~1\AppData\Local\Temp\ccpdN5tN.s 			page 29


 575 004a 4D21     		movs	r1, #77
 576 004c 0420     		movs	r0, #4
 577 004e FFF7FEFF 		bl	Display_DrawText
 578              	.LVL69:
 630:ui.c          ****         Display_DrawText(1, 40, buf, 0);
 579              		.loc 1 630 0
 580 0052 04AA     		add	r2, sp, #16
 581 0054 3549     		ldr	r1, .L61+20
 582 0056 2000     		movs	r0, r4
 583 0058 FFF7FEFF 		bl	format_number
 584              	.LVL70:
 633:ui.c          ****         switch(event.type) {
 585              		.loc 1 633 0
 586 005c 06AF     		add	r7, sp, #24
 631:ui.c          **** 
 587              		.loc 1 631 0
 588 005e 0023     		movs	r3, #0
 589 0060 04AA     		add	r2, sp, #16
 590 0062 2821     		movs	r1, #40
 591 0064 0120     		movs	r0, #1
 592 0066 FFF7FEFF 		bl	Display_DrawText
 593              	.LVL71:
 633:ui.c          ****         switch(event.type) {
 594              		.loc 1 633 0
 595 006a 3800     		movs	r0, r7
 596 006c FFF7FEFF 		bl	next_event
 597              	.LVL72:
 634:ui.c          ****         case UI_EVENT_UPDOWN:
 598              		.loc 1 634 0
 599 0070 3B78     		ldrb	r3, [r7]
 600 0072 032B     		cmp	r3, #3
 601 0074 04D0     		beq	.L44
 602 0076 052B     		cmp	r3, #5
 603 0078 10D0     		beq	.L45
 604 007a 012B     		cmp	r3, #1
 605 007c DCD1     		bne	.L42
 606 007e 04E0     		b	.L58
 607              	.L44:
 636:ui.c          ****             break;
 608              		.loc 1 636 0
 609 0080 0122     		movs	r2, #1
 610 0082 7B68     		ldr	r3, [r7, #4]
 611 0084 1340     		ands	r3, r2
 612 0086 5E40     		eors	r6, r3
 613              	.LVL73:
 637:ui.c          ****         case UI_EVENT_BUTTONPRESS:
 614              		.loc 1 637 0
 615 0088 D6E7     		b	.L42
 616              	.L58:
 639:ui.c          ****                 break;
 617              		.loc 1 639 0
 618 008a 7B68     		ldr	r3, [r7, #4]
 619 008c 012B     		cmp	r3, #1
 620 008e D3D1     		bne	.L42
 641:ui.c          ****                 stage = 1;
 621              		.loc 1 641 0
 622 0090 002E     		cmp	r6, #0
ARM GAS  C:\Users\VIDEOH~1\AppData\Local\Temp\ccpdN5tN.s 			page 30


 623 0092 0ED1     		bne	.L49
 644:ui.c          ****                 return (state_func)STATE_MAIN;
 624              		.loc 1 644 0
 625 0094 039A     		ldr	r2, [sp, #12]
 626 0096 023B     		subs	r3, r3, #2
 627 0098 5360     		str	r3, [r2, #4]
 628 009a 31E0     		b	.L57
 629              	.L45:
 649:ui.c          ****         default:
 630              		.loc 1 649 0
 631 009c 7B68     		ldr	r3, [r7, #4]
 632 009e 6B60     		str	r3, [r5, #4]
 633 00a0 234B     		ldr	r3, .L61+24
 634 00a2 2B60     		str	r3, [r5]
 635 00a4 0023     		movs	r3, #0
 636 00a6 2B72     		strb	r3, [r5, #8]
 637 00a8 32E0     		b	.L40
 638              	.LVL74:
 639              	.L60:
 661:ui.c          ****         case UI_EVENT_UPDOWN:
 640              		.loc 1 661 0
 641 00aa 052B     		cmp	r3, #5
 642 00ac 2BD0     		beq	.L53
 643 00ae 012B     		cmp	r3, #1
 644 00b0 21D0     		beq	.L59
 645              	.LVL75:
 646              	.L49:
 657:ui.c          ****         Display_DrawText(1, 40, buf, 1);
 647              		.loc 1 657 0
 648 00b2 0026     		movs	r6, #0
 656:ui.c          **** 	    Display_Clear(0, 80, 1, 114, 0);
 649              		.loc 1 656 0
 650 00b4 04AA     		add	r2, sp, #16
 651 00b6 1D49     		ldr	r1, .L61+20
 652 00b8 2000     		movs	r0, r4
 653 00ba FFF7FEFF 		bl	format_number
 654              	.LVL76:
 657:ui.c          ****         Display_DrawText(1, 40, buf, 1);
 655              		.loc 1 657 0
 656 00be 7223     		movs	r3, #114
 657 00c0 0122     		movs	r2, #1
 658 00c2 5021     		movs	r1, #80
 659 00c4 3000     		movs	r0, r6
 660 00c6 0096     		str	r6, [sp]
 661 00c8 FFF7FEFF 		bl	Display_Clear
 662              	.LVL77:
 658:ui.c          **** 
 663              		.loc 1 658 0
 664 00cc 0123     		movs	r3, #1
 665 00ce 04AA     		add	r2, sp, #16
 666 00d0 1800     		movs	r0, r3
 667 00d2 2821     		movs	r1, #40
 660:ui.c          ****         switch(event.type) {
 668              		.loc 1 660 0
 669 00d4 06AF     		add	r7, sp, #24
 658:ui.c          **** 
 670              		.loc 1 658 0
ARM GAS  C:\Users\VIDEOH~1\AppData\Local\Temp\ccpdN5tN.s 			page 31


 671 00d6 FFF7FEFF 		bl	Display_DrawText
 672              	.LVL78:
 660:ui.c          ****         switch(event.type) {
 673              		.loc 1 660 0
 674 00da 3800     		movs	r0, r7
 675 00dc FFF7FEFF 		bl	next_event
 676              	.LVL79:
 661:ui.c          ****         case UI_EVENT_UPDOWN:
 677              		.loc 1 661 0
 678 00e0 3B78     		ldrb	r3, [r7]
 679 00e2 032B     		cmp	r3, #3
 680 00e4 E1D1     		bne	.L60
 663:ui.c          ****             if(vlim<0) vlim=0;
 681              		.loc 1 663 0
 682 00e6 7A68     		ldr	r2, [r7, #4]
 683 00e8 0D4B     		ldr	r3, .L61+8
 684 00ea 5343     		muls	r3, r2
 685 00ec 1C19     		adds	r4, r3, r4
 686              	.LVL80:
 687 00ee E343     		mvns	r3, r4
 688 00f0 DB17     		asrs	r3, r3, #31
 689 00f2 1C40     		ands	r4, r3
 690 00f4 DDE7     		b	.L49
 691              	.LVL81:
 692              	.L59:
 667:ui.c          ****                 break;
 693              		.loc 1 667 0
 694 00f6 7B68     		ldr	r3, [r7, #4]
 695 00f8 012B     		cmp	r3, #1
 696 00fa DAD1     		bne	.L49
 669:ui.c          ****             return (state_func)STATE_MAIN;
 697              		.loc 1 669 0
 698 00fc 039B     		ldr	r3, [sp, #12]
 699 00fe 5C60     		str	r4, [r3, #4]
 700              	.L57:
 670:ui.c          ****         case UI_EVENT_LIMIT:
 701              		.loc 1 670 0
 702 0100 2E60     		str	r6, [r5]
 703 0102 6E60     		str	r6, [r5, #4]
 704 0104 03E0     		b	.L56
 705              	.L53:
 672:ui.c          ****         default:
 706              		.loc 1 672 0
 707 0106 7B68     		ldr	r3, [r7, #4]
 708 0108 6B60     		str	r3, [r5, #4]
 709 010a 094B     		ldr	r3, .L61+24
 710 010c 2B60     		str	r3, [r5]
 711              	.L56:
 712 010e 2E72     		strb	r6, [r5, #8]
 713              	.L40:
 677:ui.c          **** 
 714              		.loc 1 677 0
 715 0110 2800     		movs	r0, r5
 716 0112 0BB0     		add	sp, sp, #44
 717              		@ sp needed
 718              	.LVL82:
 719              	.LVL83:
ARM GAS  C:\Users\VIDEOH~1\AppData\Local\Temp\ccpdN5tN.s 			page 32


 720 0114 F0BD     		pop	{r4, r5, r6, r7, pc}
 721              	.L62:
 722 0116 C046     		.align	2
 723              	.L61:
 724 0118 4B000000 		.word	.LC26
 725 011c 00000000 		.word	state
 726 0120 A0860100 		.word	100000
 727 0124 56000000 		.word	.LC29
 728 0128 59000000 		.word	.LC31
 729 012c 24000000 		.word	.LC12
 730 0130 00000000 		.word	overlimit
 731              		.cfi_endproc
 732              	.LFE57:
 733              		.size	ui_set_min_voltage, .-ui_set_min_voltage
 734              		.section	.text.ui_calibration_progress,"ax",%progbits
 735              		.align	1
 736              		.global	ui_calibration_progress
 737              		.code	16
 738              		.thumb_func
 739              		.type	ui_calibration_progress, %function
 740              	ui_calibration_progress:
 741              	.LFB65:
 907:ui.c          **** 	Display_Clear(0, 2, 1, 128 * current / all, 0xFF);
 742              		.loc 1 907 0
 743              		.cfi_startproc
 744              		@ args = 0, pretend = 0, frame = 0
 745              		@ frame_needed = 0, uses_anonymous_args = 0
 746              	.LVL84:
 747 0000 07B5     		push	{r0, r1, r2, lr}
 748              		.cfi_def_cfa_offset 16
 749              		.cfi_offset 0, -16
 750              		.cfi_offset 1, -12
 751              		.cfi_offset 2, -8
 752              		.cfi_offset 14, -4
 908:ui.c          **** }
 753              		.loc 1 908 0
 754 0002 C001     		lsls	r0, r0, #7
 755              	.LVL85:
 756 0004 FFF7FEFF 		bl	__aeabi_idiv
 757              	.LVL86:
 758 0008 FF22     		movs	r2, #255
 759 000a C3B2     		uxtb	r3, r0
 760 000c 0092     		str	r2, [sp]
 761 000e 0221     		movs	r1, #2
 762 0010 FE3A     		subs	r2, r2, #254
 763 0012 0020     		movs	r0, #0
 764 0014 FFF7FEFF 		bl	Display_Clear
 765              	.LVL87:
 909:ui.c          **** 
 766              		.loc 1 909 0
 767              		@ sp needed
 768 0018 07BD     		pop	{r0, r1, r2, pc}
 769              		.cfi_endproc
 770              	.LFE65:
 771              		.size	ui_calibration_progress, .-ui_calibration_progress
 772              		.section	.text.ui_calibrate,"ax",%progbits
 773              		.align	1
ARM GAS  C:\Users\VIDEOH~1\AppData\Local\Temp\ccpdN5tN.s 			page 33


 774              		.code	16
 775              		.thumb_func
 776              		.type	ui_calibrate, %function
 777              	ui_calibrate:
 778              	.LFB67:
 923:ui.c          **** 	set_current(0);
 779              		.loc 1 923 0
 780              		.cfi_startproc
 781              		@ args = 0, pretend = 0, frame = 96
 782              		@ frame_needed = 0, uses_anonymous_args = 0
 783              	.LVL88:
 784 0000 F0B5     		push	{r4, r5, r6, r7, lr}
 785              		.cfi_def_cfa_offset 20
 786              		.cfi_offset 4, -20
 787              		.cfi_offset 5, -16
 788              		.cfi_offset 6, -12
 789              		.cfi_offset 7, -8
 790              		.cfi_offset 14, -4
 791 0002 0600     		movs	r6, r0
 792 0004 9BB0     		sub	sp, sp, #108
 793              		.cfi_def_cfa_offset 128
 924:ui.c          **** 	set_output_mode(OUTPUT_MODE_FEEDBACK);
 794              		.loc 1 924 0
 795 0006 0020     		movs	r0, #0
 796              	.LVL89:
 797 0008 FFF7FEFF 		bl	set_current
 798              	.LVL90:
 925:ui.c          **** 
 799              		.loc 1 925 0
 800 000c 0220     		movs	r0, #2
 801 000e FFF7FEFF 		bl	set_output_mode
 802              	.LVL91:
 928:ui.c          **** 	memcpy(&new_settings.calibration_settings, &default_settings.calibration_settings, sizeof(calibrat
 803              		.loc 1 928 0
 804 0012 B349     		ldr	r1, .L83
 805 0014 3822     		movs	r2, #56
 806 0016 0CA8     		add	r0, sp, #48
 807 0018 FFF7FEFF 		bl	memcpy
 808              	.LVL92:
 929:ui.c          **** 
 809              		.loc 1 929 0
 810 001c B14B     		ldr	r3, .L83+4
 811 001e 11AA     		add	r2, sp, #68
 812 0020 1433     		adds	r3, r3, #20
 813 0022 13CB     		ldmia	r3!, {r0, r1, r4}
 814 0024 13C2     		stmia	r2!, {r0, r1, r4}
 815 0026 13CB     		ldmia	r3!, {r0, r1, r4}
 816 0028 13C2     		stmia	r2!, {r0, r1, r4}
 817 002a 13CB     		ldmia	r3!, {r0, r1, r4}
 818 002c 13C2     		stmia	r2!, {r0, r1, r4}
 819              	.LBB14:
 820              	.LBB15:
 783:ui.c          **** 
 821              		.loc 1 783 0
 822 002e 0124     		movs	r4, #1
 823              	.LBE15:
 824              	.LBE14:
ARM GAS  C:\Users\VIDEOH~1\AppData\Local\Temp\ccpdN5tN.s 			page 34


 931:ui.c          **** 	Display_DrawText(7, 8, "CALIBRATE", 1);
 825              		.loc 1 931 0
 826 0030 FFF7FEFF 		bl	Display_ClearAll
 827              	.LVL93:
 932:ui.c          **** 
 828              		.loc 1 932 0
 829 0034 0123     		movs	r3, #1
 830 0036 AC4A     		ldr	r2, .L83+8
 831 0038 0821     		movs	r1, #8
 832 003a 0720     		movs	r0, #7
 833 003c FFF7FEFF 		bl	Display_DrawText
 834              	.LVL94:
 835              	.LBB17:
 836              	.LBB16:
 783:ui.c          **** 
 837              		.loc 1 783 0
 838 0040 AA4D     		ldr	r5, .L83+12
 785:ui.c          ****     IDAC_High_SetValue(0);
 839              		.loc 1 785 0
 840 0042 0020     		movs	r0, #0
 783:ui.c          **** 
 841              		.loc 1 783 0
 842 0044 2C72     		strb	r4, [r5, #8]
 785:ui.c          ****     IDAC_High_SetValue(0);
 843              		.loc 1 785 0
 844 0046 FFF7FEFF 		bl	IDAC_Low_SetValue
 845              	.LVL95:
 786:ui.c          **** 
 846              		.loc 1 786 0
 847 004a 0020     		movs	r0, #0
 848 004c FFF7FEFF 		bl	IDAC_High_SetValue
 849              	.LVL96:
 788:ui.c          **** 	Display_DrawText(3, 32, "Leads", 0);
 850              		.loc 1 788 0
 851 0050 0023     		movs	r3, #0
 852 0052 A74A     		ldr	r2, .L83+16
 853 0054 1A21     		movs	r1, #26
 854 0056 0520     		movs	r0, #5
 855 0058 FFF7FEFF 		bl	Display_DrawText
 856              	.LVL97:
 789:ui.c          **** 	Display_DrawText(1, 26, FONT_GLYPH_ENTER ": Next", 0);
 857              		.loc 1 789 0
 858 005c 0023     		movs	r3, #0
 859 005e A54A     		ldr	r2, .L83+20
 860 0060 2021     		movs	r1, #32
 861 0062 0320     		movs	r0, #3
 862 0064 FFF7FEFF 		bl	Display_DrawText
 863              	.LVL98:
 790:ui.c          **** 
 864              		.loc 1 790 0
 865 0068 0023     		movs	r3, #0
 866 006a 2000     		movs	r0, r4
 867 006c A24A     		ldr	r2, .L83+24
 868 006e 1A21     		movs	r1, #26
 869 0070 FFF7FEFF 		bl	Display_DrawText
 870              	.LVL99:
 794:ui.c          **** 	while(event.type != UI_EVENT_BUTTONPRESS || event.int_arg != 1)
ARM GAS  C:\Users\VIDEOH~1\AppData\Local\Temp\ccpdN5tN.s 			page 35


 871              		.loc 1 794 0
 872 0074 0023     		movs	r3, #0
 873 0076 08AC     		add	r4, sp, #32
 874 0078 2370     		strb	r3, [r4]
 875 007a 0295     		str	r5, [sp, #8]
 876              	.L65:
 795:ui.c          **** 		next_event(&event);
 877              		.loc 1 795 0
 878 007c 2378     		ldrb	r3, [r4]
 879 007e 012B     		cmp	r3, #1
 880 0080 03D0     		beq	.L79
 881              	.L66:
 796:ui.c          **** 
 882              		.loc 1 796 0
 883 0082 2000     		movs	r0, r4
 884 0084 FFF7FEFF 		bl	next_event
 885              	.LVL100:
 886 0088 F8E7     		b	.L65
 887              	.L79:
 795:ui.c          **** 		next_event(&event);
 888              		.loc 1 795 0
 889 008a 6568     		ldr	r5, [r4, #4]
 890 008c 012D     		cmp	r5, #1
 891 008e F8D1     		bne	.L66
 798:ui.c          ****     state.calibrating = 0;
 892              		.loc 1 798 0
 893 0090 0CA8     		add	r0, sp, #48
 894              	.LVL101:
 895 0092 FFF7FEFF 		bl	calibrate_offsets
 896              	.LVL102:
 897              	.LBE16:
 898              	.LBE17:
 899              	.LBB18:
 900              	.LBB19:
 805:ui.c          **** 
 901              		.loc 1 805 0
 902 0096 029B     		ldr	r3, [sp, #8]
 807:ui.c          ****     IDAC_High_SetValue(0);
 903              		.loc 1 807 0
 904 0098 0020     		movs	r0, #0
 805:ui.c          **** 
 905              		.loc 1 805 0
 906 009a 1D72     		strb	r5, [r3, #8]
 807:ui.c          ****     IDAC_High_SetValue(0);
 907              		.loc 1 807 0
 908 009c FFF7FEFF 		bl	IDAC_Low_SetValue
 909              	.LVL103:
 808:ui.c          **** 
 910              		.loc 1 808 0
 911 00a0 0020     		movs	r0, #0
 912 00a2 FFF7FEFF 		bl	IDAC_High_SetValue
 913              	.LVL104:
 810:ui.c          **** 
 914              		.loc 1 810 0
 915 00a6 0023     		movs	r3, #0
 916 00a8 944A     		ldr	r2, .L83+28
 917 00aa 1421     		movs	r1, #20
ARM GAS  C:\Users\VIDEOH~1\AppData\Local\Temp\ccpdN5tN.s 			page 36


 918 00ac 0520     		movs	r0, #5
 919 00ae FFF7FEFF 		bl	Display_DrawText
 920              	.LVL105:
 814:ui.c          **** 	while(event.type != UI_EVENT_BUTTONPRESS || event.int_arg != 1) {
 921              		.loc 1 814 0
 922 00b2 0022     		movs	r2, #0
 923 00b4 04AB     		add	r3, sp, #16
 924 00b6 1A70     		strb	r2, [r3]
 925              	.L68:
 815:ui.c          **** 		next_event(&event);
 926              		.loc 1 815 0
 927 00b8 04AC     		add	r4, sp, #16
 928 00ba 2378     		ldrb	r3, [r4]
 929 00bc 012B     		cmp	r3, #1
 930 00be 21D0     		beq	.L80
 931              	.L70:
 932              	.LBB20:
 816:ui.c          **** 
 933              		.loc 1 816 0
 934 00c0 2000     		movs	r0, r4
 935 00c2 FFF7FEFF 		bl	next_event
 936              	.LVL106:
 818:ui.c          **** 		format_number_simple(voltage, "V", buf);
 937              		.loc 1 818 0
 938 00c6 FFF7FEFF 		bl	get_raw_voltage
 939              	.LVL107:
 819:ui.c          **** 		strcat(buf, " ");
 940              		.loc 1 819 0
 941 00ca 179B     		ldr	r3, [sp, #92]
 942 00cc 08AA     		add	r2, sp, #32
 943 00ce C01A     		subs	r0, r0, r3
 944              	.LVL108:
 945 00d0 189B     		ldr	r3, [sp, #96]
 946 00d2 8B49     		ldr	r1, .L83+32
 947 00d4 5843     		muls	r0, r3
 948 00d6 0393     		str	r3, [sp, #12]
 949 00d8 FFF7FEFF 		bl	format_number_simple
 950              	.LVL109:
 820:ui.c          **** 		Display_DrawText(3, 14, buf, 0);
 951              		.loc 1 820 0
 952 00dc 8949     		ldr	r1, .L83+36
 953 00de 08A8     		add	r0, sp, #32
 954 00e0 FFF7FEFF 		bl	strcat
 955              	.LVL110:
 821:ui.c          **** 
 956              		.loc 1 821 0
 957 00e4 0023     		movs	r3, #0
 958 00e6 08AA     		add	r2, sp, #32
 959 00e8 0E21     		movs	r1, #14
 960 00ea 0320     		movs	r0, #3
 961 00ec FFF7FEFF 		bl	Display_DrawText
 962              	.LVL111:
 823:ui.c          **** 		case UI_EVENT_UPDOWN:
 963              		.loc 1 823 0
 964 00f0 2378     		ldrb	r3, [r4]
 965 00f2 032B     		cmp	r3, #3
 966 00f4 E0D1     		bne	.L68
ARM GAS  C:\Users\VIDEOH~1\AppData\Local\Temp\ccpdN5tN.s 			page 37


 825:ui.c          **** 			break;
 967              		.loc 1 825 0
 968 00f6 189B     		ldr	r3, [sp, #96]
 969 00f8 0393     		str	r3, [sp, #12]
 970 00fa 039A     		ldr	r2, [sp, #12]
 971 00fc 6368     		ldr	r3, [r4, #4]
 972 00fe D318     		adds	r3, r2, r3
 973 0100 1893     		str	r3, [sp, #96]
 974 0102 D9E7     		b	.L68
 975              	.L80:
 976              	.LBE20:
 815:ui.c          **** 		next_event(&event);
 977              		.loc 1 815 0
 978 0104 6768     		ldr	r7, [r4, #4]
 979 0106 012F     		cmp	r7, #1
 980 0108 DAD1     		bne	.L70
 981              	.LVL112:
 982              	.LBE19:
 983              	.LBE18:
 984              	.LBB21:
 985              	.LBB22:
 840:ui.c          **** 	Display_DrawText(5, 20, "Adj Cur", 0);
 986              		.loc 1 840 0
 987 010a 0025     		movs	r5, #0
 835:ui.c          **** 
 988              		.loc 1 835 0
 989 010c 029B     		ldr	r3, [sp, #8]
 837:ui.c          ****     IDAC_High_SetValue((CALIBRATION_CURRENT - new_settings->calibration_settings.dac_offset) / new_
 990              		.loc 1 837 0
 991 010e 0020     		movs	r0, #0
 835:ui.c          **** 
 992              		.loc 1 835 0
 993 0110 1F72     		strb	r7, [r3, #8]
 837:ui.c          ****     IDAC_High_SetValue((CALIBRATION_CURRENT - new_settings->calibration_settings.dac_offset) / new_
 994              		.loc 1 837 0
 995 0112 FFF7FEFF 		bl	IDAC_Low_SetValue
 996              	.LVL113:
 838:ui.c          **** 
 997              		.loc 1 838 0
 998 0116 139B     		ldr	r3, [sp, #76]
 999 0118 1299     		ldr	r1, [sp, #72]
 1000 011a 0393     		str	r3, [sp, #12]
 1001 011c 039A     		ldr	r2, [sp, #12]
 1002 011e 7A4B     		ldr	r3, .L83+40
 1003 0120 981A     		subs	r0, r3, r2
 1004 0122 FFF7FEFF 		bl	__aeabi_idiv
 1005              	.LVL114:
 1006 0126 FFF7FEFF 		bl	IDAC_High_SetValue
 1007              	.LVL115:
 840:ui.c          **** 	Display_DrawText(5, 20, "Adj Cur", 0);
 1008              		.loc 1 840 0
 1009 012a 2900     		movs	r1, r5
 1010 012c 2800     		movs	r0, r5
 1011 012e 0095     		str	r5, [sp]
 1012 0130 7F23     		movs	r3, #127
 1013 0132 0522     		movs	r2, #5
 1014 0134 FFF7FEFF 		bl	Display_Clear
ARM GAS  C:\Users\VIDEOH~1\AppData\Local\Temp\ccpdN5tN.s 			page 38


 1015              	.LVL116:
 841:ui.c          **** 	Display_DrawText(1, 26, FONT_GLYPH_ENTER ": Next", 0);
 1016              		.loc 1 841 0
 1017 0138 2B00     		movs	r3, r5
 1018 013a 744A     		ldr	r2, .L83+44
 1019 013c 1421     		movs	r1, #20
 1020 013e 0520     		movs	r0, #5
 1021 0140 FFF7FEFF 		bl	Display_DrawText
 1022              	.LVL117:
 842:ui.c          **** 
 1023              		.loc 1 842 0
 1024 0144 2B00     		movs	r3, r5
 1025 0146 6C4A     		ldr	r2, .L83+24
 1026 0148 1A21     		movs	r1, #26
 1027 014a 3800     		movs	r0, r7
 1028 014c FFF7FEFF 		bl	Display_DrawText
 1029              	.LVL118:
 848:ui.c          **** 	while(event.type != UI_EVENT_BUTTONPRESS || event.int_arg != 1) {
 1030              		.loc 1 848 0
 1031 0150 2570     		strb	r5, [r4]
 1032 0152 6D4D     		ldr	r5, .L83+40
 1033              	.L72:
 849:ui.c          **** 		next_event(&event);
 1034              		.loc 1 849 0
 1035 0154 04AC     		add	r4, sp, #16
 1036 0156 2378     		ldrb	r3, [r4]
 1037 0158 012B     		cmp	r3, #1
 1038 015a 21D0     		beq	.L81
 1039              	.L74:
 850:ui.c          **** 
 1040              		.loc 1 850 0
 1041 015c 2000     		movs	r0, r4
 1042 015e FFF7FEFF 		bl	next_event
 1043              	.LVL119:
 852:ui.c          **** 		format_number_simple(current, "A", buf);
 1044              		.loc 1 852 0
 1045 0162 FFF7FEFF 		bl	get_raw_current_usage
 1046              	.LVL120:
 853:ui.c          **** 		strcat(buf, " ");
 1047              		.loc 1 853 0
 1048 0166 159B     		ldr	r3, [sp, #84]
 1049 0168 08AA     		add	r2, sp, #32
 1050 016a C01A     		subs	r0, r0, r3
 1051              	.LVL121:
 1052 016c 169B     		ldr	r3, [sp, #88]
 1053 016e 6849     		ldr	r1, .L83+48
 1054 0170 5843     		muls	r0, r3
 1055 0172 0393     		str	r3, [sp, #12]
 1056 0174 FFF7FEFF 		bl	format_number_simple
 1057              	.LVL122:
 854:ui.c          **** 		Display_DrawText(3, 14, buf, 0);
 1058              		.loc 1 854 0
 1059 0178 6249     		ldr	r1, .L83+36
 1060 017a 08A8     		add	r0, sp, #32
 1061 017c FFF7FEFF 		bl	strcat
 1062              	.LVL123:
 855:ui.c          **** 
ARM GAS  C:\Users\VIDEOH~1\AppData\Local\Temp\ccpdN5tN.s 			page 39


 1063              		.loc 1 855 0
 1064 0180 0023     		movs	r3, #0
 1065 0182 08AA     		add	r2, sp, #32
 1066 0184 0E21     		movs	r1, #14
 1067 0186 0320     		movs	r0, #3
 1068 0188 FFF7FEFF 		bl	Display_DrawText
 1069              	.LVL124:
 857:ui.c          **** 		case UI_EVENT_UPDOWN:
 1070              		.loc 1 857 0
 1071 018c 2378     		ldrb	r3, [r4]
 1072 018e 032B     		cmp	r3, #3
 1073 0190 E0D1     		bne	.L72
 859:ui.c          **** 			break;
 1074              		.loc 1 859 0
 1075 0192 169B     		ldr	r3, [sp, #88]
 1076 0194 0393     		str	r3, [sp, #12]
 1077 0196 039A     		ldr	r2, [sp, #12]
 1078 0198 6368     		ldr	r3, [r4, #4]
 1079 019a D318     		adds	r3, r2, r3
 1080 019c 1693     		str	r3, [sp, #88]
 1081 019e D9E7     		b	.L72
 1082              	.L81:
 849:ui.c          **** 		next_event(&event);
 1083              		.loc 1 849 0
 1084 01a0 6768     		ldr	r7, [r4, #4]
 1085 01a2 012F     		cmp	r7, #1
 1086 01a4 DAD1     		bne	.L74
 1087              	.LVL125:
 1088              	.LBE22:
 1089              	.LBE21:
 1090              	.LBB23:
 1091              	.LBB24:
 869:ui.c          **** 
 1092              		.loc 1 869 0
 1093 01a6 029B     		ldr	r3, [sp, #8]
 871:ui.c          **** 	IDAC_High_SetValue((CALIBRATION_CURRENT - new_settings->calibration_settings.dac_offset) / new_set
 1094              		.loc 1 871 0
 1095 01a8 0020     		movs	r0, #0
 869:ui.c          **** 
 1096              		.loc 1 869 0
 1097 01aa 1F72     		strb	r7, [r3, #8]
 871:ui.c          **** 	IDAC_High_SetValue((CALIBRATION_CURRENT - new_settings->calibration_settings.dac_offset) / new_set
 1098              		.loc 1 871 0
 1099 01ac FFF7FEFF 		bl	IDAC_Low_SetValue
 1100              	.LVL126:
 872:ui.c          **** 
 1101              		.loc 1 872 0
 1102 01b0 139B     		ldr	r3, [sp, #76]
 1103 01b2 1299     		ldr	r1, [sp, #72]
 1104 01b4 E81A     		subs	r0, r5, r3
 874:ui.c          **** 	Display_DrawText(5, 20, "Adj Volt", 0);
 1105              		.loc 1 874 0
 1106 01b6 0025     		movs	r5, #0
 872:ui.c          **** 
 1107              		.loc 1 872 0
 1108 01b8 0393     		str	r3, [sp, #12]
 1109 01ba FFF7FEFF 		bl	__aeabi_idiv
ARM GAS  C:\Users\VIDEOH~1\AppData\Local\Temp\ccpdN5tN.s 			page 40


 1110              	.LVL127:
 1111 01be FFF7FEFF 		bl	IDAC_High_SetValue
 1112              	.LVL128:
 874:ui.c          **** 	Display_DrawText(5, 20, "Adj Volt", 0);
 1113              		.loc 1 874 0
 1114 01c2 7F23     		movs	r3, #127
 1115 01c4 0522     		movs	r2, #5
 1116 01c6 2900     		movs	r1, r5
 1117 01c8 2800     		movs	r0, r5
 1118 01ca 0095     		str	r5, [sp]
 1119 01cc FFF7FEFF 		bl	Display_Clear
 1120              	.LVL129:
 875:ui.c          **** 	Display_DrawText(1, 26, FONT_GLYPH_ENTER ": Next", 0);
 1121              		.loc 1 875 0
 1122 01d0 2B00     		movs	r3, r5
 1123 01d2 4A4A     		ldr	r2, .L83+28
 1124 01d4 1421     		movs	r1, #20
 1125 01d6 0520     		movs	r0, #5
 1126 01d8 FFF7FEFF 		bl	Display_DrawText
 1127              	.LVL130:
 876:ui.c          **** 
 1128              		.loc 1 876 0
 1129 01dc 2B00     		movs	r3, r5
 1130 01de 464A     		ldr	r2, .L83+24
 1131 01e0 1A21     		movs	r1, #26
 1132 01e2 3800     		movs	r0, r7
 1133 01e4 FFF7FEFF 		bl	Display_DrawText
 1134              	.LVL131:
 882:ui.c          **** 	while(event.type != UI_EVENT_BUTTONPRESS || event.int_arg != 1) {
 1135              		.loc 1 882 0
 1136 01e8 2570     		strb	r5, [r4]
 1137              	.L76:
 883:ui.c          **** 		next_event(&event);
 1138              		.loc 1 883 0
 1139 01ea 04AC     		add	r4, sp, #16
 1140 01ec 2378     		ldrb	r3, [r4]
 1141 01ee 012B     		cmp	r3, #1
 1142 01f0 30D0     		beq	.L82
 1143              	.L78:
 884:ui.c          **** 
 1144              		.loc 1 884 0
 1145 01f2 2000     		movs	r0, r4
 1146 01f4 FFF7FEFF 		bl	next_event
 1147              	.LVL132:
 886:ui.c          **** 		voltage = (get_raw_voltage() - new_settings->calibration_settings.adc_voltage_offset) * new_setti
 1148              		.loc 1 886 0
 1149 01f8 FFF7FEFF 		bl	get_raw_current_usage
 1150              	.LVL133:
 1151 01fc 159B     		ldr	r3, [sp, #84]
 1152 01fe C51A     		subs	r5, r0, r3
 1153 0200 169B     		ldr	r3, [sp, #88]
 1154 0202 5D43     		muls	r5, r3
 1155              	.LVL134:
 1156 0204 0393     		str	r3, [sp, #12]
 887:ui.c          **** 		voltage += (current / 1024) * new_settings->calibration_settings.voltage_correction_ratio;
 1157              		.loc 1 887 0
 1158 0206 FFF7FEFF 		bl	get_raw_voltage
ARM GAS  C:\Users\VIDEOH~1\AppData\Local\Temp\ccpdN5tN.s 			page 41


 1159              	.LVL135:
 1160 020a 179B     		ldr	r3, [sp, #92]
 1161 020c 189A     		ldr	r2, [sp, #96]
 1162 020e C31A     		subs	r3, r0, r3
 889:ui.c          **** 		strcat(buf, " ");
 1163              		.loc 1 889 0
 1164 0210 E817     		asrs	r0, r5, #31
 1165 0212 8005     		lsls	r0, r0, #22
 1166 0214 800D     		lsrs	r0, r0, #22
 887:ui.c          **** 		voltage += (current / 1024) * new_settings->calibration_settings.voltage_correction_ratio;
 1167              		.loc 1 887 0
 1168 0216 5343     		muls	r3, r2
 1169              	.LVL136:
 889:ui.c          **** 		strcat(buf, " ");
 1170              		.loc 1 889 0
 1171 0218 4519     		adds	r5, r0, r5
 1172              	.LVL137:
 1173 021a 199A     		ldr	r2, [sp, #100]
 1174 021c AD12     		asrs	r5, r5, #10
 1175 021e 5543     		muls	r5, r2
 1176 0220 0392     		str	r2, [sp, #12]
 1177 0222 E818     		adds	r0, r5, r3
 1178 0224 08AA     		add	r2, sp, #32
 1179 0226 3649     		ldr	r1, .L83+32
 1180 0228 FFF7FEFF 		bl	format_number_simple
 1181              	.LVL138:
 890:ui.c          **** 		Display_DrawText(3, 14, buf, 0);
 1182              		.loc 1 890 0
 1183 022c 3549     		ldr	r1, .L83+36
 1184 022e 08A8     		add	r0, sp, #32
 1185 0230 FFF7FEFF 		bl	strcat
 1186              	.LVL139:
 891:ui.c          **** 
 1187              		.loc 1 891 0
 1188 0234 0023     		movs	r3, #0
 1189 0236 08AA     		add	r2, sp, #32
 1190 0238 0E21     		movs	r1, #14
 1191 023a 0320     		movs	r0, #3
 1192 023c FFF7FEFF 		bl	Display_DrawText
 1193              	.LVL140:
 893:ui.c          **** 		case UI_EVENT_UPDOWN:
 1194              		.loc 1 893 0
 1195 0240 2378     		ldrb	r3, [r4]
 1196 0242 032B     		cmp	r3, #3
 1197 0244 D1D1     		bne	.L76
 895:ui.c          **** 			break;
 1198              		.loc 1 895 0
 1199 0246 199B     		ldr	r3, [sp, #100]
 1200 0248 0393     		str	r3, [sp, #12]
 1201 024a 039A     		ldr	r2, [sp, #12]
 1202 024c 6368     		ldr	r3, [r4, #4]
 1203 024e D318     		adds	r3, r2, r3
 1204 0250 1993     		str	r3, [sp, #100]
 1205 0252 CAE7     		b	.L76
 1206              	.L82:
 883:ui.c          **** 		next_event(&event);
 1207              		.loc 1 883 0
ARM GAS  C:\Users\VIDEOH~1\AppData\Local\Temp\ccpdN5tN.s 			page 42


 1208 0254 6568     		ldr	r5, [r4, #4]
 1209 0256 012D     		cmp	r5, #1
 1210 0258 CBD1     		bne	.L78
 901:ui.c          **** }
 1211              		.loc 1 901 0
 1212 025a 0024     		movs	r4, #0
 1213              	.LBE24:
 1214              	.LBE23:
 1215              	.LBB27:
 1216              	.LBB28:
 916:ui.c          **** 	Display_Clear(0, 126, 1, 127, 0xFF);
 1217              		.loc 1 916 0
 1218 025c FF27     		movs	r7, #255
 1219              	.LBE28:
 1220              	.LBE27:
 1221              	.LBB31:
 1222              	.LBB25:
 901:ui.c          **** }
 1223              		.loc 1 901 0
 1224 025e 029B     		ldr	r3, [sp, #8]
 1225              	.LBE25:
 1226              	.LBE31:
 1227              	.LBB32:
 1228              	.LBB29:
 912:ui.c          **** 	Display_DrawText(4, 40, "Wait", 0);
 1229              		.loc 1 912 0
 1230 0260 2100     		movs	r1, r4
 1231              	.LBE29:
 1232              	.LBE32:
 1233              	.LBB33:
 1234              	.LBB26:
 901:ui.c          **** }
 1235              		.loc 1 901 0
 1236 0262 1C72     		strb	r4, [r3, #8]
 1237              	.LVL141:
 1238              	.LBE26:
 1239              	.LBE33:
 1240              	.LBB34:
 1241              	.LBB30:
 912:ui.c          **** 	Display_DrawText(4, 40, "Wait", 0);
 1242              		.loc 1 912 0
 1243 0264 2000     		movs	r0, r4
 1244 0266 0094     		str	r4, [sp]
 1245 0268 7F23     		movs	r3, #127
 1246 026a 0522     		movs	r2, #5
 1247 026c FFF7FEFF 		bl	Display_Clear
 1248              	.LVL142:
 913:ui.c          **** 
 1249              		.loc 1 913 0
 1250 0270 2300     		movs	r3, r4
 1251 0272 284A     		ldr	r2, .L83+52
 1252 0274 2821     		movs	r1, #40
 1253 0276 0420     		movs	r0, #4
 1254 0278 FFF7FEFF 		bl	Display_DrawText
 1255              	.LVL143:
 916:ui.c          **** 	Display_Clear(0, 126, 1, 127, 0xFF);
 1256              		.loc 1 916 0
ARM GAS  C:\Users\VIDEOH~1\AppData\Local\Temp\ccpdN5tN.s 			page 43


 1257 027c 2B00     		movs	r3, r5
 1258 027e 2A00     		movs	r2, r5
 1259 0280 2100     		movs	r1, r4
 1260 0282 2000     		movs	r0, r4
 1261 0284 0097     		str	r7, [sp]
 1262 0286 FFF7FEFF 		bl	Display_Clear
 1263              	.LVL144:
 917:ui.c          ****     Display_Clear(0, 2, 1, 125, 0x81);
 1264              		.loc 1 917 0
 1265 028a 2A00     		movs	r2, r5
 1266 028c 2000     		movs	r0, r4
 1267 028e 0097     		str	r7, [sp]
 1268 0290 7F23     		movs	r3, #127
 1269 0292 7E21     		movs	r1, #126
 1270 0294 FFF7FEFF 		bl	Display_Clear
 1271              	.LVL145:
 918:ui.c          ****     calibrate_opamp_offset_trim(new_settings, CALIBRATION_CURRENT,ui_calibration_progress);
 1272              		.loc 1 918 0
 1273 0298 8123     		movs	r3, #129
 1274 029a 2A00     		movs	r2, r5
 1275 029c 0093     		str	r3, [sp]
 1276 029e 2000     		movs	r0, r4
 1277 02a0 043B     		subs	r3, r3, #4
 1278 02a2 0221     		movs	r1, #2
 1279 02a4 FFF7FEFF 		bl	Display_Clear
 1280              	.LVL146:
 919:ui.c          **** 	calibrate_dacs(new_settings, CALIBRATION_CURRENT);
 1281              		.loc 1 919 0
 1282 02a8 1B4A     		ldr	r2, .L83+56
 1283 02aa 0CA8     		add	r0, sp, #48
 1284              	.LVL147:
 1285 02ac 1649     		ldr	r1, .L83+40
 1286 02ae FFF7FEFF 		bl	calibrate_opamp_offset_trim
 1287              	.LVL148:
 920:ui.c          **** }
 1288              		.loc 1 920 0
 1289 02b2 0CA8     		add	r0, sp, #48
 1290              	.LVL149:
 1291 02b4 1449     		ldr	r1, .L83+40
 1292 02b6 FFF7FEFF 		bl	calibrate_dacs
 1293              	.LVL150:
 1294              	.LBE30:
 1295              	.LBE34:
 939:ui.c          **** 	EEPROM_Write(0,(uint8*)&settings, sizeof(settings_t));
 1296              		.loc 1 939 0
 1297 02ba 094D     		ldr	r5, .L83
 1298 02bc 0CA9     		add	r1, sp, #48
 1299 02be 3822     		movs	r2, #56
 1300 02c0 2800     		movs	r0, r5
 1301 02c2 FFF7FEFF 		bl	memcpy
 1302              	.LVL151:
 940:ui.c          **** 
 1303              		.loc 1 940 0
 1304 02c6 154B     		ldr	r3, .L83+60
 1305 02c8 3822     		movs	r2, #56
 1306 02ca 2900     		movs	r1, r5
 1307 02cc 2000     		movs	r0, r4
ARM GAS  C:\Users\VIDEOH~1\AppData\Local\Temp\ccpdN5tN.s 			page 44


 1308 02ce FFF7FEFF 		bl	Cy_Em_EEPROM_Write
 1309              	.LVL152:
 943:ui.c          **** 
 1310              		.loc 1 943 0
 1311 02d2 3000     		movs	r0, r6
 942:ui.c          **** }
 1312              		.loc 1 942 0
 1313 02d4 3460     		str	r4, [r6]
 1314 02d6 7460     		str	r4, [r6, #4]
 1315 02d8 3472     		strb	r4, [r6, #8]
 943:ui.c          **** 
 1316              		.loc 1 943 0
 1317 02da 1BB0     		add	sp, sp, #108
 1318              		@ sp needed
 1319              	.LVL153:
 1320 02dc F0BD     		pop	{r4, r5, r6, r7, pc}
 1321              	.L84:
 1322 02de C046     		.align	2
 1323              	.L83:
 1324 02e0 00000000 		.word	settings
 1325 02e4 00000000 		.word	default_settings
 1326 02e8 5D000000 		.word	.LC38
 1327 02ec 00000000 		.word	state
 1328 02f0 67000000 		.word	.LC41
 1329 02f4 6E000000 		.word	.LC43
 1330 02f8 74000000 		.word	.LC45
 1331 02fc 7C000000 		.word	.LC47
 1332 0300 24000000 		.word	.LC12
 1333 0304 85000000 		.word	.LC50
 1334 0308 80841E00 		.word	2000000
 1335 030c 87000000 		.word	.LC52
 1336 0310 8F000000 		.word	.LC54
 1337 0314 91000000 		.word	.LC56
 1338 0318 00000000 		.word	ui_calibration_progress
 1339 031c 00000000 		.word	EEPROM_context
 1340              		.cfi_endproc
 1341              	.LFE67:
 1342              		.size	ui_calibrate, .-ui_calibrate
 1343              		.section	.text.overlimit,"ax",%progbits
 1344              		.align	1
 1345              		.code	16
 1346              		.thumb_func
 1347              		.type	overlimit, %function
 1348              	overlimit:
 1349              	.LFB58:
 679:ui.c          **** 	Display_Clear(0, 0, 7, 127, 0xFF);
 1350              		.loc 1 679 0
 1351              		.cfi_startproc
 1352              		@ args = 0, pretend = 0, frame = 16
 1353              		@ frame_needed = 0, uses_anonymous_args = 0
 1354              	.LVL154:
 1355 0000 70B5     		push	{r4, r5, r6, lr}
 1356              		.cfi_def_cfa_offset 16
 1357              		.cfi_offset 4, -16
 1358              		.cfi_offset 5, -12
 1359              		.cfi_offset 6, -8
 1360              		.cfi_offset 14, -4
ARM GAS  C:\Users\VIDEOH~1\AppData\Local\Temp\ccpdN5tN.s 			page 45


 1361 0002 0E00     		movs	r6, r1
 680:ui.c          ****     switch((limit_type)arg) {
 1362              		.loc 1 680 0
 1363 0004 FF25     		movs	r5, #255
 1364 0006 0021     		movs	r1, #0
 1365              	.LVL155:
 679:ui.c          **** 	Display_Clear(0, 0, 7, 127, 0xFF);
 1366              		.loc 1 679 0
 1367 0008 86B0     		sub	sp, sp, #24
 1368              		.cfi_def_cfa_offset 40
 679:ui.c          **** 	Display_Clear(0, 0, 7, 127, 0xFF);
 1369              		.loc 1 679 0
 1370 000a 0400     		movs	r4, r0
 680:ui.c          ****     switch((limit_type)arg) {
 1371              		.loc 1 680 0
 1372 000c 0095     		str	r5, [sp]
 1373 000e 0800     		movs	r0, r1
 1374              	.LVL156:
 1375 0010 7F23     		movs	r3, #127
 1376 0012 0722     		movs	r2, #7
 1377 0014 FFF7FEFF 		bl	Display_Clear
 1378              	.LVL157:
 681:ui.c          ****     case LIMIT_TYPE_OVERTEMP:
 1379              		.loc 1 681 0
 1380 0018 3100     		movs	r1, r6
 1381 001a 2940     		ands	r1, r5
 1382 001c 05D0     		beq	.L87
 1383 001e 0129     		cmp	r1, #1
 1384 0020 08D1     		bne	.L86
 686:ui.c          ****         break;
 1385              		.loc 1 686 0
 1386 0022 0B00     		movs	r3, r1
 1387 0024 154A     		ldr	r2, .L96
 1388 0026 0021     		movs	r1, #0
 1389 0028 01E0     		b	.L93
 1390              	.L87:
 683:ui.c          ****         break;
 1391              		.loc 1 683 0
 1392 002a 0123     		movs	r3, #1
 1393 002c 144A     		ldr	r2, .L96+4
 1394              	.L93:
 686:ui.c          ****         break;
 1395              		.loc 1 686 0
 1396 002e 0520     		movs	r0, #5
 1397 0030 FFF7FEFF 		bl	Display_DrawText
 1398              	.LVL158:
 1399              	.L86:
 689:ui.c          **** 
 1400              		.loc 1 689 0
 1401 0034 0123     		movs	r3, #1
 1402 0036 134A     		ldr	r2, .L96+8
 1403 0038 1800     		movs	r0, r3
 1404 003a 1021     		movs	r1, #16
 1405 003c FFF7FEFF 		bl	Display_DrawText
 1406              	.LVL159:
 692:ui.c          **** 	while(event.type != UI_EVENT_BUTTONPRESS || event.int_arg != 1) {
 1407              		.loc 1 692 0
ARM GAS  C:\Users\VIDEOH~1\AppData\Local\Temp\ccpdN5tN.s 			page 46


 1408 0040 0023     		movs	r3, #0
 1409 0042 02AD     		add	r5, sp, #8
 1410 0044 2B70     		strb	r3, [r5]
 1411              	.L89:
 693:ui.c          **** 		next_event(&event);
 1412              		.loc 1 693 0
 1413 0046 2B78     		ldrb	r3, [r5]
 1414 0048 012B     		cmp	r3, #1
 1415 004a 07D0     		beq	.L95
 1416              	.L91:
 694:ui.c          **** 		if(get_output_mode() == OUTPUT_MODE_FEEDBACK)
 1417              		.loc 1 694 0
 1418 004c 2800     		movs	r0, r5
 1419 004e FFF7FEFF 		bl	next_event
 1420              	.LVL160:
 695:ui.c          **** 			return (state_func)STATE_MAIN;
 1421              		.loc 1 695 0
 1422 0052 FFF7FEFF 		bl	get_output_mode
 1423              	.LVL161:
 1424 0056 0228     		cmp	r0, #2
 1425 0058 F5D1     		bne	.L89
 1426 005a 08E0     		b	.L94
 1427              	.L95:
 693:ui.c          **** 		next_event(&event);
 1428              		.loc 1 693 0 discriminator 1
 1429 005c 6B68     		ldr	r3, [r5, #4]
 1430 005e 012B     		cmp	r3, #1
 1431 0060 F4D1     		bne	.L91
 699:ui.c          **** 	set_output_mode(OUTPUT_MODE_FEEDBACK);
 1432              		.loc 1 699 0
 1433 0062 0020     		movs	r0, #0
 1434 0064 FFF7FEFF 		bl	set_current
 1435              	.LVL162:
 700:ui.c          **** 	return (state_func)STATE_MAIN;
 1436              		.loc 1 700 0
 1437 0068 0220     		movs	r0, #2
 1438 006a FFF7FEFF 		bl	set_output_mode
 1439              	.LVL163:
 1440              	.L94:
 701:ui.c          ****     CyDelay(1000);
 1441              		.loc 1 701 0
 1442 006e 0023     		movs	r3, #0
 703:ui.c          **** 
 1443              		.loc 1 703 0
 1444 0070 2000     		movs	r0, r4
 701:ui.c          ****     CyDelay(1000);
 1445              		.loc 1 701 0
 1446 0072 2360     		str	r3, [r4]
 1447 0074 6360     		str	r3, [r4, #4]
 1448 0076 2372     		strb	r3, [r4, #8]
 703:ui.c          **** 
 1449              		.loc 1 703 0
 1450 0078 06B0     		add	sp, sp, #24
 1451              		@ sp needed
 1452              	.LVL164:
 1453              	.LVL165:
 1454 007a 70BD     		pop	{r4, r5, r6, pc}
ARM GAS  C:\Users\VIDEOH~1\AppData\Local\Temp\ccpdN5tN.s 			page 47


 1455              	.L97:
 1456              		.align	2
 1457              	.L96:
 1458 007c A1000000 		.word	.LC63
 1459 0080 96000000 		.word	.LC61
 1460 0084 AD000000 		.word	.LC65
 1461              		.cfi_endproc
 1462              	.LFE58:
 1463              		.size	overlimit, .-overlimit
 1464              		.section	.text.set_contrast,"ax",%progbits
 1465              		.align	1
 1466              		.code	16
 1467              		.thumb_func
 1468              		.type	set_contrast, %function
 1469              	set_contrast:
 1470              	.LFB55:
 528:ui.c          **** 	Display_ClearAll();
 1471              		.loc 1 528 0
 1472              		.cfi_startproc
 1473              		@ args = 0, pretend = 0, frame = 24
 1474              		@ frame_needed = 0, uses_anonymous_args = 0
 1475              	.LVL166:
 1476 0000 F0B5     		push	{r4, r5, r6, r7, lr}
 1477              		.cfi_def_cfa_offset 20
 1478              		.cfi_offset 4, -20
 1479              		.cfi_offset 5, -16
 1480              		.cfi_offset 6, -12
 1481              		.cfi_offset 7, -8
 1482              		.cfi_offset 14, -4
 530:ui.c          **** 	Display_DrawText(7, 16, "Contrast", 1);
 1483              		.loc 1 530 0
 1484 0002 FF26     		movs	r6, #255
 528:ui.c          **** 	Display_ClearAll();
 1485              		.loc 1 528 0
 1486 0004 89B0     		sub	sp, sp, #36
 1487              		.cfi_def_cfa_offset 56
 528:ui.c          **** 	Display_ClearAll();
 1488              		.loc 1 528 0
 1489 0006 0500     		movs	r5, r0
 529:ui.c          **** 	Display_Clear(6, 2, 7, 127, 0xFF);
 1490              		.loc 1 529 0
 1491 0008 FFF7FEFF 		bl	Display_ClearAll
 1492              	.LVL167:
 530:ui.c          **** 	Display_DrawText(7, 16, "Contrast", 1);
 1493              		.loc 1 530 0
 1494 000c 7F23     		movs	r3, #127
 1495 000e 0722     		movs	r2, #7
 1496 0010 0221     		movs	r1, #2
 1497 0012 0620     		movs	r0, #6
 1498 0014 0096     		str	r6, [sp]
 1499 0016 FFF7FEFF 		bl	Display_Clear
 1500              	.LVL168:
 531:ui.c          **** 	Display_DrawText(1, 28, FONT_GLYPH_ENTER ": Done", 0);
 1501              		.loc 1 531 0
 1502 001a 0123     		movs	r3, #1
 1503 001c 2F4A     		ldr	r2, .L113
 1504 001e 1021     		movs	r1, #16
ARM GAS  C:\Users\VIDEOH~1\AppData\Local\Temp\ccpdN5tN.s 			page 48


 1505 0020 0720     		movs	r0, #7
 1506 0022 FFF7FEFF 		bl	Display_DrawText
 1507              	.LVL169:
 532:ui.c          **** 
 1508              		.loc 1 532 0
 1509 0026 0023     		movs	r3, #0
 1510 0028 2D4A     		ldr	r2, .L113+4
 1511 002a 1C21     		movs	r1, #28
 1512 002c 0120     		movs	r0, #1
 1513 002e FFF7FEFF 		bl	Display_DrawText
 1514              	.LVL170:
 535:ui.c          ****     Display_DrawText(4,96,FONT_GLYPH_MENU_RARR,0);
 1515              		.loc 1 535 0
 1516 0032 0023     		movs	r3, #0
 1517 0034 2B4A     		ldr	r2, .L113+8
 1518 0036 1421     		movs	r1, #20
 1519 0038 0420     		movs	r0, #4
 1520 003a FFF7FEFF 		bl	Display_DrawText
 1521              	.LVL171:
 536:ui.c          **** 
 1522              		.loc 1 536 0
 1523 003e 0023     		movs	r3, #0
 1524 0040 294A     		ldr	r2, .L113+12
 1525 0042 6021     		movs	r1, #96
 1526 0044 0420     		movs	r0, #4
 1527 0046 FFF7FEFF 		bl	Display_DrawText
 1528              	.LVL172:
 538:ui.c          **** 	ui_event event;
 1529              		.loc 1 538 0
 1530 004a 284F     		ldr	r7, .L113+16
 541:ui.c          ****         if(contrast!=CONTRAST_MAX)
 1531              		.loc 1 541 0
 1532 004c 0396     		str	r6, [sp, #12]
 538:ui.c          **** 	ui_event event;
 1533              		.loc 1 538 0
 1534 004e 7C68     		ldr	r4, [r7, #4]
 1535              	.LVL173:
 1536              	.L99:
 541:ui.c          ****         if(contrast!=CONTRAST_MAX)
 1537              		.loc 1 541 0
 1538 0050 E6B2     		uxtb	r6, r4
 1539 0052 3300     		movs	r3, r6
 1540 0054 039A     		ldr	r2, [sp, #12]
 1541 0056 203B     		subs	r3, r3, #32
 1542 0058 0092     		str	r2, [sp]
 1543 005a DBB2     		uxtb	r3, r3
 1544 005c 0422     		movs	r2, #4
 1545 005e 2021     		movs	r1, #32
 1546 0060 0320     		movs	r0, #3
 1547 0062 FFF7FEFF 		bl	Display_Clear
 1548              	.LVL174:
 542:ui.c          **** 		    Display_Clear(3, contrast - CONTRAST_MIN+32+1, 4, 95, 0x81);
 1549              		.loc 1 542 0
 1550 0066 7F2C     		cmp	r4, #127
 1551 0068 08D0     		beq	.L101
 543:ui.c          **** 
 1552              		.loc 1 543 0
ARM GAS  C:\Users\VIDEOH~1\AppData\Local\Temp\ccpdN5tN.s 			page 49


 1553 006a 8123     		movs	r3, #129
 1554 006c 1F3E     		subs	r6, r6, #31
 1555 006e 0093     		str	r3, [sp]
 1556 0070 F1B2     		uxtb	r1, r6
 1557 0072 223B     		subs	r3, r3, #34
 1558 0074 0422     		movs	r2, #4
 1559 0076 0320     		movs	r0, #3
 1560 0078 FFF7FEFF 		bl	Display_Clear
 1561              	.LVL175:
 1562              	.L101:
 545:ui.c          **** 		switch(event.type) {
 1563              		.loc 1 545 0
 1564 007c 04AE     		add	r6, sp, #16
 1565 007e 3000     		movs	r0, r6
 1566 0080 FFF7FEFF 		bl	next_event
 1567              	.LVL176:
 546:ui.c          **** 		case UI_EVENT_UPDOWN:
 1568              		.loc 1 546 0
 1569 0084 3378     		ldrb	r3, [r6]
 1570 0086 032B     		cmp	r3, #3
 1571 0088 04D0     		beq	.L102
 1572 008a 052B     		cmp	r3, #5
 1573 008c 1DD0     		beq	.L103
 1574 008e 012B     		cmp	r3, #1
 1575 0090 DED1     		bne	.L99
 1576 0092 0CE0     		b	.L112
 1577              	.L102:
 548:ui.c          **** 			if(contrast > CONTRAST_MAX) {
 1578              		.loc 1 548 0
 1579 0094 7368     		ldr	r3, [r6, #4]
 1580 0096 E418     		adds	r4, r4, r3
 1581              	.LVL177:
 549:ui.c          **** 				contrast = CONTRAST_MAX;
 1582              		.loc 1 549 0
 1583 0098 7F2C     		cmp	r4, #127
 1584 009a 03DC     		bgt	.L107
 551:ui.c          **** 				contrast = CONTRAST_MIN;
 1585              		.loc 1 551 0
 1586 009c 3F2C     		cmp	r4, #63
 1587 009e 02DC     		bgt	.L105
 552:ui.c          **** 			}
 1588              		.loc 1 552 0
 1589 00a0 4024     		movs	r4, #64
 1590              	.LVL178:
 1591 00a2 00E0     		b	.L105
 1592              	.LVL179:
 1593              	.L107:
 550:ui.c          **** 			} else if(contrast < CONTRAST_MIN) {
 1594              		.loc 1 550 0
 1595 00a4 7F24     		movs	r4, #127
 1596              	.LVL180:
 1597              	.L105:
 554:ui.c          **** 			break;
 1598              		.loc 1 554 0
 1599 00a6 E0B2     		uxtb	r0, r4
 1600 00a8 FFF7FEFF 		bl	Display_SetContrast
 1601              	.LVL181:
ARM GAS  C:\Users\VIDEOH~1\AppData\Local\Temp\ccpdN5tN.s 			page 50


 555:ui.c          **** 		case UI_EVENT_BUTTONPRESS:
 1602              		.loc 1 555 0
 1603 00ac D0E7     		b	.L99
 1604              	.L112:
 557:ui.c          ****                 settings.lcd_contrast=contrast;
 1605              		.loc 1 557 0
 1606 00ae 7368     		ldr	r3, [r6, #4]
 1607 00b0 012B     		cmp	r3, #1
 1608 00b2 CDD1     		bne	.L99
 559:ui.c          **** 				return (state_func)STATE_MAIN;
 1609              		.loc 1 559 0
 1610 00b4 0E4B     		ldr	r3, .L113+20
 1611 00b6 3822     		movs	r2, #56
 1612 00b8 3900     		movs	r1, r7
 1613 00ba 0020     		movs	r0, #0
 558:ui.c          **** 				EEPROM_Write(0,(void*)&settings, sizeof(settings_t));
 1614              		.loc 1 558 0
 1615 00bc 7C60     		str	r4, [r7, #4]
 559:ui.c          **** 				return (state_func)STATE_MAIN;
 1616              		.loc 1 559 0
 1617 00be FFF7FEFF 		bl	Cy_Em_EEPROM_Write
 1618              	.LVL182:
 560:ui.c          **** 			}
 1619              		.loc 1 560 0
 1620 00c2 0023     		movs	r3, #0
 1621 00c4 2B60     		str	r3, [r5]
 1622 00c6 6B60     		str	r3, [r5, #4]
 1623 00c8 04E0     		b	.L111
 1624              	.L103:
 564:ui.c          **** 		default:
 1625              		.loc 1 564 0
 1626 00ca 7368     		ldr	r3, [r6, #4]
 1627 00cc 6B60     		str	r3, [r5, #4]
 1628 00ce 094B     		ldr	r3, .L113+24
 1629 00d0 2B60     		str	r3, [r5]
 1630 00d2 0023     		movs	r3, #0
 1631              	.L111:
 569:ui.c          **** static state_func set_cooler(const void *arg) {
 1632              		.loc 1 569 0
 1633 00d4 2800     		movs	r0, r5
 564:ui.c          **** 		default:
 1634              		.loc 1 564 0
 1635 00d6 2B72     		strb	r3, [r5, #8]
 569:ui.c          **** static state_func set_cooler(const void *arg) {
 1636              		.loc 1 569 0
 1637 00d8 09B0     		add	sp, sp, #36
 1638              		@ sp needed
 1639              	.LVL183:
 1640              	.LVL184:
 1641 00da F0BD     		pop	{r4, r5, r6, r7, pc}
 1642              	.L114:
 1643              		.align	2
 1644              	.L113:
 1645 00dc B5000000 		.word	.LC67
 1646 00e0 BE000000 		.word	.LC69
 1647 00e4 C6000000 		.word	.LC71
 1648 00e8 C8000000 		.word	.LC73
ARM GAS  C:\Users\VIDEOH~1\AppData\Local\Temp\ccpdN5tN.s 			page 51


 1649 00ec 00000000 		.word	settings
 1650 00f0 00000000 		.word	EEPROM_context
 1651 00f4 00000000 		.word	overlimit
 1652              		.cfi_endproc
 1653              	.LFE55:
 1654              		.size	set_contrast, .-set_contrast
 1655              		.section	.text.menu,"ax",%progbits
 1656              		.align	1
 1657              		.code	16
 1658              		.thumb_func
 1659              		.type	menu, %function
 1660              	menu:
 1661              	.LFB59:
 705:ui.c          **** 	const menudata *menu = (const menudata *)arg;
 1662              		.loc 1 705 0
 1663              		.cfi_startproc
 1664              		@ args = 0, pretend = 0, frame = 40
 1665              		@ frame_needed = 0, uses_anonymous_args = 0
 1666              	.LVL185:
 1667 0000 F0B5     		push	{r4, r5, r6, r7, lr}
 1668              		.cfi_def_cfa_offset 20
 1669              		.cfi_offset 4, -20
 1670              		.cfi_offset 5, -16
 1671              		.cfi_offset 6, -12
 1672              		.cfi_offset 7, -8
 1673              		.cfi_offset 14, -4
 1674 0002 8DB0     		sub	sp, sp, #52
 1675              		.cfi_def_cfa_offset 72
 1676              	.LVL186:
 705:ui.c          **** 	const menudata *menu = (const menudata *)arg;
 1677              		.loc 1 705 0
 1678 0004 0390     		str	r0, [sp, #12]
 1679 0006 0491     		str	r1, [sp, #16]
 1680              	.LVL187:
 708:ui.c          **** 	int selected = 0;
 1681              		.loc 1 708 0
 1682 0008 FFF7FEFF 		bl	Display_ClearAll
 1683              	.LVL188:
 711:ui.c          **** 	while(event.type != UI_EVENT_BUTTONPRESS || event.int_arg != 1) {
 1684              		.loc 1 711 0
 1685 000c 0023     		movs	r3, #0
 709:ui.c          **** 	ui_event event;
 1686              		.loc 1 709 0
 1687 000e 1F00     		movs	r7, r3
 711:ui.c          **** 	while(event.type != UI_EVENT_BUTTONPRESS || event.int_arg != 1) {
 1688              		.loc 1 711 0
 1689 0010 08AA     		add	r2, sp, #32
 1690 0012 1370     		strb	r3, [r2]
 1691              	.LVL189:
 1692              	.L116:
 712:ui.c          **** 		draw_menu(menu, selected);
 1693              		.loc 1 712 0
 1694 0014 08AB     		add	r3, sp, #32
 1695 0016 1A78     		ldrb	r2, [r3]
 1696 0018 012A     		cmp	r2, #1
 1697 001a 00D1     		bne	.LCB1586
 1698 001c B2E0     		b	.L140	@long jump
ARM GAS  C:\Users\VIDEOH~1\AppData\Local\Temp\ccpdN5tN.s 			page 52


 1699              	.LCB1586:
 1700              	.L132:
 1701              	.LVL190:
 1702              	.LBB40:
 1703              	.LBB41:
 297:ui.c          **** 		int8 padding = (127 - strlen(menu->title) * 12) / 2;
 1704              		.loc 1 297 0
 1705 001e 049B     		ldr	r3, [sp, #16]
 1706 0020 1868     		ldr	r0, [r3]
 1707 0022 0028     		cmp	r0, #0
 1708 0024 26D0     		beq	.L133
 1709              	.LBB42:
 298:ui.c          **** 		Display_Clear(6, 2, 7, padding + 1, 0xFF);
 1710              		.loc 1 298 0
 1711 0026 FFF7FEFF 		bl	strlen
 1712              	.LVL191:
 299:ui.c          **** 		Display_DrawText(7, padding + 1, menu->title, 1);
 1713              		.loc 1 299 0
 1714 002a 0C23     		movs	r3, #12
 1715 002c 7F26     		movs	r6, #127
 1716 002e 5843     		muls	r0, r3
 1717              	.LVL192:
 1718 0030 341A     		subs	r4, r6, r0
 1719 0032 6408     		lsrs	r4, r4, #1
 1720 0034 E4B2     		uxtb	r4, r4
 1721 0036 651C     		adds	r5, r4, #1
 1722 0038 EDB2     		uxtb	r5, r5
 1723 003a F333     		adds	r3, r3, #243
 1724 003c 0093     		str	r3, [sp]
 1725 003e 0722     		movs	r2, #7
 1726 0040 2B00     		movs	r3, r5
 1727 0042 0221     		movs	r1, #2
 1728 0044 0620     		movs	r0, #6
 1729 0046 FFF7FEFF 		bl	Display_Clear
 1730              	.LVL193:
 300:ui.c          **** 		Display_Clear(6, 127 - padding - 1, 7, 127, 0xFF);
 1731              		.loc 1 300 0
 1732 004a 049A     		ldr	r2, [sp, #16]
 1733 004c 0123     		movs	r3, #1
 1734 004e 1268     		ldr	r2, [r2]
 1735 0050 2900     		movs	r1, r5
 1736 0052 0720     		movs	r0, #7
 1737 0054 FFF7FEFF 		bl	Display_DrawText
 1738              	.LVL194:
 301:ui.c          **** 		start_row-=2;
 1739              		.loc 1 301 0
 1740 0058 7E21     		movs	r1, #126
 1741 005a FF23     		movs	r3, #255
 1742 005c 091B     		subs	r1, r1, r4
 1743 005e 0093     		str	r3, [sp]
 1744 0060 C9B2     		uxtb	r1, r1
 1745 0062 3300     		movs	r3, r6
 1746 0064 0722     		movs	r2, #7
 1747 0066 0620     		movs	r0, #6
 1748 0068 FFF7FEFF 		bl	Display_Clear
 1749              	.LVL195:
 303:ui.c          **** 	}
ARM GAS  C:\Users\VIDEOH~1\AppData\Local\Temp\ccpdN5tN.s 			page 53


 1750              		.loc 1 303 0
 1751 006c 0323     		movs	r3, #3
 302:ui.c          **** 		height--;
 1752              		.loc 1 302 0
 1753 006e 0524     		movs	r4, #5
 303:ui.c          **** 	}
 1754              		.loc 1 303 0
 1755 0070 0593     		str	r3, [sp, #20]
 1756 0072 02E0     		b	.L117
 1757              	.LVL196:
 1758              	.L133:
 1759              	.LBE42:
 295:ui.c          **** 
 1760              		.loc 1 295 0
 1761 0074 0423     		movs	r3, #4
 1762              	.LVL197:
 294:ui.c          **** 	int height = 4;
 1763              		.loc 1 294 0
 1764 0076 0724     		movs	r4, #7
 295:ui.c          **** 
 1765              		.loc 1 295 0
 1766 0078 0593     		str	r3, [sp, #20]
 1767              	.LVL198:
 1768              	.L117:
 306:ui.c          **** 
 1769              		.loc 1 306 0
 1770 007a 0599     		ldr	r1, [sp, #20]
 1771 007c 3800     		movs	r0, r7
 1772 007e FFF7FEFF 		bl	__aeabi_idiv
 1773              	.LVL199:
 1774 0082 E4B2     		uxtb	r4, r4
 1775              	.LVL200:
 1776 0084 464A     		ldr	r2, .L141
 1777 0086 0028     		cmp	r0, #0
 1778 0088 00D1     		bne	.L118
 1779 008a 464A     		ldr	r2, .L141+4
 1780              	.L118:
 1781 008c 0023     		movs	r3, #0
 1782 008e 7321     		movs	r1, #115
 1783 0090 2000     		movs	r0, r4
 1784 0092 FFF7FEFF 		bl	Display_DrawText
 1785              	.LVL201:
 309:ui.c          **** 	selected %= height;
 1786              		.loc 1 309 0
 1787 0096 0599     		ldr	r1, [sp, #20]
 1788 0098 3800     		movs	r0, r7
 1789 009a FFF7FEFF 		bl	__aeabi_idivmod
 1790              	.LVL202:
 1791 009e 049B     		ldr	r3, [sp, #16]
 1792 00a0 7D1A     		subs	r5, r7, r1
 1793 00a2 2D01     		lsls	r5, r5, #4
 1794 00a4 5D19     		adds	r5, r3, r5
 1795              	.LBB43:
 312:ui.c          **** 		if(current->caption != NULL) {
 1796              		.loc 1 312 0
 1797 00a6 0023     		movs	r3, #0
 1798              	.LBE43:
ARM GAS  C:\Users\VIDEOH~1\AppData\Local\Temp\ccpdN5tN.s 			page 54


 309:ui.c          **** 	selected %= height;
 1799              		.loc 1 309 0
 1800 00a8 0791     		str	r1, [sp, #28]
 1801 00aa 0435     		adds	r5, r5, #4
 1802              	.LVL203:
 1803              	.LBB44:
 312:ui.c          **** 		if(current->caption != NULL) {
 1804              		.loc 1 312 0
 1805 00ac 0693     		str	r3, [sp, #24]
 1806              	.LVL204:
 1807              	.L121:
 313:ui.c          **** 			Display_DrawText(start_row-i*2, 2, current->caption, i == selected);
 1808              		.loc 1 313 0
 1809 00ae 2968     		ldr	r1, [r5]
 1810 00b0 0029     		cmp	r1, #0
 1811 00b2 1DD0     		beq	.L119
 314:ui.c          **** 			Display_Clear(start_row-i*2-1, strlen(current->caption) * 12 + 1,  start_row -i*2, 114, (i == se
 1812              		.loc 1 314 0
 1813 00b4 079B     		ldr	r3, [sp, #28]
 1814 00b6 069A     		ldr	r2, [sp, #24]
 1815 00b8 2000     		movs	r0, r4
 1816 00ba 9E1A     		subs	r6, r3, r2
 1817 00bc 7342     		rsbs	r3, r6, #0
 1818 00be 5E41     		adcs	r6, r6, r3
 1819 00c0 F6B2     		uxtb	r6, r6
 1820 00c2 3300     		movs	r3, r6
 1821 00c4 0A00     		movs	r2, r1
 1822 00c6 0221     		movs	r1, #2
 1823 00c8 FFF7FEFF 		bl	Display_DrawText
 1824              	.LVL205:
 315:ui.c          **** 			current++;
 1825              		.loc 1 315 0
 1826 00cc 2868     		ldr	r0, [r5]
 1827 00ce FFF7FEFF 		bl	strlen
 1828              	.LVL206:
 1829 00d2 0C21     		movs	r1, #12
 1830 00d4 4143     		muls	r1, r0
 1831 00d6 7642     		rsbs	r6, r6, #0
 1832 00d8 0131     		adds	r1, r1, #1
 1833 00da 601E     		subs	r0, r4, #1
 1834 00dc F6B2     		uxtb	r6, r6
 1835 00de C9B2     		uxtb	r1, r1
 1836 00e0 C0B2     		uxtb	r0, r0
 1837 00e2 0096     		str	r6, [sp]
 1838 00e4 7223     		movs	r3, #114
 1839 00e6 2200     		movs	r2, r4
 1840 00e8 FFF7FEFF 		bl	Display_Clear
 1841              	.LVL207:
 316:ui.c          **** 		} else {
 1842              		.loc 1 316 0
 1843 00ec 1035     		adds	r5, r5, #16
 1844              	.LVL208:
 1845 00ee 06E0     		b	.L120
 1846              	.L119:
 318:ui.c          **** 		}
 1847              		.loc 1 318 0
 1848 00f0 601E     		subs	r0, r4, #1
ARM GAS  C:\Users\VIDEOH~1\AppData\Local\Temp\ccpdN5tN.s 			page 55


 1849 00f2 C0B2     		uxtb	r0, r0
 1850 00f4 0091     		str	r1, [sp]
 1851 00f6 7F23     		movs	r3, #127
 1852 00f8 2200     		movs	r2, r4
 1853 00fa FFF7FEFF 		bl	Display_Clear
 1854              	.LVL209:
 1855              	.L120:
 312:ui.c          **** 		if(current->caption != NULL) {
 1856              		.loc 1 312 0
 1857 00fe 069B     		ldr	r3, [sp, #24]
 1858 0100 023C     		subs	r4, r4, #2
 1859 0102 0133     		adds	r3, r3, #1
 1860 0104 0693     		str	r3, [sp, #24]
 1861              	.LVL210:
 1862 0106 069A     		ldr	r2, [sp, #24]
 1863 0108 059B     		ldr	r3, [sp, #20]
 1864              	.LVL211:
 1865 010a E4B2     		uxtb	r4, r4
 1866 010c 9342     		cmp	r3, r2
 1867 010e CED1     		bne	.L121
 1868              	.LBE44:
 322:ui.c          **** 		Display_DrawText(1, 115, FONT_GLYPH_DARR, 0);
 1869              		.loc 1 322 0
 1870 0110 2B68     		ldr	r3, [r5]
 325:ui.c          **** 	}
 1871              		.loc 1 325 0
 1872 0112 244A     		ldr	r2, .L141+4
 1873              	.LVL212:
 322:ui.c          **** 		Display_DrawText(1, 115, FONT_GLYPH_DARR, 0);
 1874              		.loc 1 322 0
 1875 0114 002B     		cmp	r3, #0
 1876 0116 01D0     		beq	.L139
 323:ui.c          **** 	} else {
 1877              		.loc 1 323 0
 1878 0118 0023     		movs	r3, #0
 1879 011a 234A     		ldr	r2, .L141+8
 1880              	.L139:
 325:ui.c          **** 	}
 1881              		.loc 1 325 0
 1882 011c 7321     		movs	r1, #115
 1883 011e 0120     		movs	r0, #1
 1884              	.LBE41:
 1885              	.LBE40:
 714:ui.c          **** 		switch(event.type) {
 1886              		.loc 1 714 0
 1887 0120 08AC     		add	r4, sp, #32
 1888              	.LBB46:
 1889              	.LBB45:
 325:ui.c          **** 	}
 1890              		.loc 1 325 0
 1891 0122 FFF7FEFF 		bl	Display_DrawText
 1892              	.LVL213:
 1893              	.LBE45:
 1894              	.LBE46:
 714:ui.c          **** 		switch(event.type) {
 1895              		.loc 1 714 0
 1896 0126 2000     		movs	r0, r4
ARM GAS  C:\Users\VIDEOH~1\AppData\Local\Temp\ccpdN5tN.s 			page 56


 1897 0128 FFF7FEFF 		bl	next_event
 1898              	.LVL214:
 715:ui.c          **** 		case UI_EVENT_UPDOWN:
 1899              		.loc 1 715 0
 1900 012c 2378     		ldrb	r3, [r4]
 1901 012e 032B     		cmp	r3, #3
 1902 0130 0ED0     		beq	.L125
 1903 0132 052B     		cmp	r3, #5
 1904 0134 00D0     		beq	.LCB1804
 1905 0136 6DE7     		b	.L116	@long jump
 1906              	.LCB1804:
 734:ui.c          **** 		default:
 1907              		.loc 1 734 0
 1908 0138 6368     		ldr	r3, [r4, #4]
 1909 013a 039A     		ldr	r2, [sp, #12]
 1910 013c 0493     		str	r3, [sp, #16]
 1911              	.LVL215:
 1912 013e 1B4B     		ldr	r3, .L141+12
 1913 0140 1360     		str	r3, [r2]
 1914 0142 1300     		movs	r3, r2
 1915 0144 049A     		ldr	r2, [sp, #16]
 1916 0146 5A60     		str	r2, [r3, #4]
 1917 0148 0023     		movs	r3, #0
 1918 014a 039A     		ldr	r2, [sp, #12]
 1919 014c 1372     		strb	r3, [r2, #8]
 1920 014e 24E0     		b	.L115
 1921              	.LVL216:
 1922              	.L125:
 717:ui.c          **** 				// Move up the menu
 1923              		.loc 1 717 0
 1924 0150 6368     		ldr	r3, [r4, #4]
 1925 0152 DA19     		adds	r2, r3, r7
 1926 0154 002B     		cmp	r3, #0
 1927 0156 04DB     		blt	.L127
 1928 0158 3B01     		lsls	r3, r7, #4
 1929 015a 0499     		ldr	r1, [sp, #16]
 1930 015c 1433     		adds	r3, r3, #20
 1931 015e CB18     		adds	r3, r1, r3
 1932 0160 0DE0     		b	.L128
 1933              	.L127:
 1934 0162 D343     		mvns	r3, r2
 1935 0164 DB17     		asrs	r3, r3, #31
 1936 0166 1A40     		ands	r2, r3
 1937 0168 1700     		movs	r7, r2
 1938              	.LVL217:
 1939 016a 53E7     		b	.L116
 1940              	.LVL218:
 1941              	.L130:
 1942 016c 1033     		adds	r3, r3, #16
 1943              	.LBB47:
 727:ui.c          **** 						break;
 1944              		.loc 1 727 0
 1945 016e 1800     		movs	r0, r3
 1946 0170 1038     		subs	r0, r0, #16
 1947 0172 0068     		ldr	r0, [r0]
 1948 0174 791C     		adds	r1, r7, #1
 1949 0176 0028     		cmp	r0, #0
ARM GAS  C:\Users\VIDEOH~1\AppData\Local\Temp\ccpdN5tN.s 			page 57


 1950 0178 00D1     		bne	.LCB1852
 1951 017a 4BE7     		b	.L116	@long jump
 1952              	.LCB1852:
 729:ui.c          **** 				}
 1953              		.loc 1 729 0
 1954 017c 0F00     		movs	r7, r1
 1955              	.LVL219:
 1956              	.L128:
 726:ui.c          **** 					if(menu->items[selected + 1].caption == NULL)
 1957              		.loc 1 726 0 discriminator 1
 1958 017e 9742     		cmp	r7, r2
 1959 0180 F4D1     		bne	.L130
 1960 0182 47E7     		b	.L116
 1961              	.LVL220:
 1962              	.L140:
 1963              	.LBE47:
 712:ui.c          **** 		draw_menu(menu, selected);
 1964              		.loc 1 712 0 discriminator 1
 1965 0184 099B     		ldr	r3, [sp, #36]
 1966 0186 012B     		cmp	r3, #1
 1967 0188 00D0     		beq	.LCB1873
 1968 018a 48E7     		b	.L132	@long jump
 1969              	.LCB1873:
 740:ui.c          **** }
 1970              		.loc 1 740 0
 1971 018c 049A     		ldr	r2, [sp, #16]
 1972 018e 3B01     		lsls	r3, r7, #4
 1973 0190 D318     		adds	r3, r2, r3
 1974 0192 039A     		ldr	r2, [sp, #12]
 1975 0194 0833     		adds	r3, r3, #8
 1976 0196 13CB     		ldmia	r3!, {r0, r1, r4}
 1977 0198 13C2     		stmia	r2!, {r0, r1, r4}
 1978              	.LVL221:
 1979              	.L115:
 741:ui.c          **** 
 1980              		.loc 1 741 0
 1981 019a 0398     		ldr	r0, [sp, #12]
 1982 019c 0DB0     		add	sp, sp, #52
 1983              		@ sp needed
 1984              	.LVL222:
 1985 019e F0BD     		pop	{r4, r5, r6, r7, pc}
 1986              	.L142:
 1987              		.align	2
 1988              	.L141:
 1989 01a0 CA000000 		.word	.LC81
 1990 01a4 85000000 		.word	.LC50
 1991 01a8 CC000000 		.word	.LC84
 1992 01ac 00000000 		.word	overlimit
 1993              		.cfi_endproc
 1994              	.LFE59:
 1995              		.size	menu, .-menu
 1996              		.section	.text.display_config,"ax",%progbits
 1997              		.align	1
 1998              		.code	16
 1999              		.thumb_func
 2000              		.type	display_config, %function
 2001              	display_config:
ARM GAS  C:\Users\VIDEOH~1\AppData\Local\Temp\ccpdN5tN.s 			page 58


 2002              	.LFB51:
 453:ui.c          **** 	const display_config_t *config = &settings.display_settings.numbered[(int)arg];
 2003              		.loc 1 453 0
 2004              		.cfi_startproc
 2005              		@ args = 0, pretend = 0, frame = 32
 2006              		@ frame_needed = 0, uses_anonymous_args = 0
 2007              	.LVL223:
 2008 0000 F0B5     		push	{r4, r5, r6, r7, lr}
 2009              		.cfi_def_cfa_offset 20
 2010              		.cfi_offset 4, -20
 2011              		.cfi_offset 5, -16
 2012              		.cfi_offset 6, -12
 2013              		.cfi_offset 7, -8
 2014              		.cfi_offset 14, -4
 456:ui.c          **** 	if(display.arg == NULL)
 2015              		.loc 1 456 0
 2016 0002 164E     		ldr	r6, .L148
 453:ui.c          **** 	const display_config_t *config = &settings.display_settings.numbered[(int)arg];
 2017              		.loc 1 453 0
 2018 0004 89B0     		sub	sp, sp, #36
 2019              		.cfi_def_cfa_offset 56
 456:ui.c          **** 	if(display.arg == NULL)
 2020              		.loc 1 456 0
 2021 0006 02AD     		add	r5, sp, #8
 453:ui.c          **** 	const display_config_t *config = &settings.display_settings.numbered[(int)arg];
 2022              		.loc 1 453 0
 2023 0008 0400     		movs	r4, r0
 2024 000a 0F00     		movs	r7, r1
 2025              	.LVL224:
 456:ui.c          **** 	if(display.arg == NULL)
 2026              		.loc 1 456 0
 2027 000c 2800     		movs	r0, r5
 2028              	.LVL225:
 2029 000e 3100     		movs	r1, r6
 2030              	.LVL226:
 2031 0010 FFF7FEFF 		bl	menu
 2032              	.LVL227:
 2033 0014 039B     		ldr	r3, [sp, #12]
 2034 0016 0193     		str	r3, [sp, #4]
 2035              	.LVL228:
 457:ui.c          **** 		return display;
 2036              		.loc 1 457 0
 2037 0018 002B     		cmp	r3, #0
 2038 001a 08D0     		beq	.L147
 460:ui.c          **** 	if(readout.arg == NULL)
 2039              		.loc 1 460 0
 2040 001c 3100     		movs	r1, r6
 2041 001e 05AD     		add	r5, sp, #20
 2042 0020 5431     		adds	r1, r1, #84
 2043 0022 2800     		movs	r0, r5
 2044 0024 FFF7FEFF 		bl	menu
 2045              	.LVL229:
 2046 0028 069B     		ldr	r3, [sp, #24]
 2047              	.LVL230:
 461:ui.c          **** 		return readout;
 2048              		.loc 1 461 0
 2049 002a 002B     		cmp	r3, #0
ARM GAS  C:\Users\VIDEOH~1\AppData\Local\Temp\ccpdN5tN.s 			page 59


 2050 002c 03D1     		bne	.L146
 2051              	.LVL231:
 2052              	.L147:
 462:ui.c          **** 
 2053              		.loc 1 462 0
 2054 002e 2300     		movs	r3, r4
 2055 0030 07CD     		ldmia	r5!, {r0, r1, r2}
 2056 0032 07C3     		stmia	r3!, {r0, r1, r2}
 2057              	.LVL232:
 2058 0034 0FE0     		b	.L143
 2059              	.LVL233:
 2060              	.L146:
 464:ui.c          **** 	EEPROM_Write(0,(void*)&settings,sizeof(settings_t));
 2061              		.loc 1 464 0
 2062 0036 0322     		movs	r2, #3
 2063 0038 5743     		muls	r7, r2
 2064              	.LVL234:
 2065 003a 019A     		ldr	r2, [sp, #4]
 2066 003c 0849     		ldr	r1, .L148+4
 2067 003e D719     		adds	r7, r2, r7
 2068 0040 CF19     		adds	r7, r1, r7
 2069 0042 7B73     		strb	r3, [r7, #13]
 465:ui.c          **** 
 2070              		.loc 1 465 0
 2071 0044 3822     		movs	r2, #56
 2072 0046 074B     		ldr	r3, .L148+8
 2073              	.LVL235:
 2074 0048 0020     		movs	r0, #0
 2075 004a FFF7FEFF 		bl	Cy_Em_EEPROM_Write
 2076              	.LVL236:
 467:ui.c          **** }
 2077              		.loc 1 467 0
 2078 004e 0023     		movs	r3, #0
 2079 0050 2360     		str	r3, [r4]
 2080 0052 6360     		str	r3, [r4, #4]
 2081 0054 2372     		strb	r3, [r4, #8]
 2082              	.LVL237:
 2083              	.L143:
 468:ui.c          **** 
 2084              		.loc 1 468 0
 2085 0056 2000     		movs	r0, r4
 2086 0058 09B0     		add	sp, sp, #36
 2087              		@ sp needed
 2088              	.LVL238:
 2089 005a F0BD     		pop	{r4, r5, r6, r7, pc}
 2090              	.L149:
 2091              		.align	2
 2092              	.L148:
 2093 005c 00000000 		.word	.LANCHOR2
 2094 0060 00000000 		.word	settings
 2095 0064 00000000 		.word	EEPROM_context
 2096              		.cfi_endproc
 2097              	.LFE51:
 2098              		.size	display_config, .-display_config
 2099              		.section	.text.print_nothing,"ax",%progbits
 2100              		.align	1
 2101              		.global	print_nothing
ARM GAS  C:\Users\VIDEOH~1\AppData\Local\Temp\ccpdN5tN.s 			page 60


 2102              		.code	16
 2103              		.thumb_func
 2104              		.type	print_nothing, %function
 2105              	print_nothing:
 2106              	.LFB40:
 329:ui.c          **** 	strcpy(buf, "      ");
 2107              		.loc 1 329 0
 2108              		.cfi_startproc
 2109              		@ args = 0, pretend = 0, frame = 0
 2110              		@ frame_needed = 0, uses_anonymous_args = 0
 2111              	.LVL239:
 2112 0000 10B5     		push	{r4, lr}
 2113              		.cfi_def_cfa_offset 8
 2114              		.cfi_offset 4, -8
 2115              		.cfi_offset 14, -4
 330:ui.c          **** }
 2116              		.loc 1 330 0
 2117 0002 0249     		ldr	r1, .L151
 2118 0004 FFF7FEFF 		bl	strcpy
 2119              	.LVL240:
 331:ui.c          **** 
 2120              		.loc 1 331 0
 2121              		@ sp needed
 2122 0008 10BD     		pop	{r4, pc}
 2123              	.L152:
 2124 000a C046     		.align	2
 2125              	.L151:
 2126 000c CE000000 		.word	.LC91
 2127              		.cfi_endproc
 2128              	.LFE40:
 2129              		.size	print_nothing, .-print_nothing
 2130              		.section	.text.print_setpoint,"ax",%progbits
 2131              		.align	1
 2132              		.global	print_setpoint
 2133              		.code	16
 2134              		.thumb_func
 2135              		.type	print_setpoint, %function
 2136              	print_setpoint:
 2137              	.LFB41:
 333:ui.c          **** 	format_number(get_current_setpoint(), "A", buf);
 2138              		.loc 1 333 0
 2139              		.cfi_startproc
 2140              		@ args = 0, pretend = 0, frame = 0
 2141              		@ frame_needed = 0, uses_anonymous_args = 0
 2142              	.LVL241:
 2143 0000 10B5     		push	{r4, lr}
 2144              		.cfi_def_cfa_offset 8
 2145              		.cfi_offset 4, -8
 2146              		.cfi_offset 14, -4
 333:ui.c          **** 	format_number(get_current_setpoint(), "A", buf);
 2147              		.loc 1 333 0
 2148 0002 0400     		movs	r4, r0
 334:ui.c          **** }
 2149              		.loc 1 334 0
 2150 0004 FFF7FEFF 		bl	get_current_setpoint
 2151              	.LVL242:
 2152 0008 2200     		movs	r2, r4
ARM GAS  C:\Users\VIDEOH~1\AppData\Local\Temp\ccpdN5tN.s 			page 61


 2153 000a 0249     		ldr	r1, .L154
 2154 000c FFF7FEFF 		bl	format_number
 2155              	.LVL243:
 335:ui.c          **** 
 2156              		.loc 1 335 0
 2157              		@ sp needed
 2158              	.LVL244:
 2159 0010 10BD     		pop	{r4, pc}
 2160              	.L155:
 2161 0012 C046     		.align	2
 2162              	.L154:
 2163 0014 8F000000 		.word	.LC54
 2164              		.cfi_endproc
 2165              	.LFE41:
 2166              		.size	print_setpoint, .-print_setpoint
 2167              		.section	.text.print_current_usage,"ax",%progbits
 2168              		.align	1
 2169              		.global	print_current_usage
 2170              		.code	16
 2171              		.thumb_func
 2172              		.type	print_current_usage, %function
 2173              	print_current_usage:
 2174              	.LFB42:
 337:ui.c          **** 	format_number(get_current_usage(), "A", buf);
 2175              		.loc 1 337 0
 2176              		.cfi_startproc
 2177              		@ args = 0, pretend = 0, frame = 0
 2178              		@ frame_needed = 0, uses_anonymous_args = 0
 2179              	.LVL245:
 2180 0000 10B5     		push	{r4, lr}
 2181              		.cfi_def_cfa_offset 8
 2182              		.cfi_offset 4, -8
 2183              		.cfi_offset 14, -4
 337:ui.c          **** 	format_number(get_current_usage(), "A", buf);
 2184              		.loc 1 337 0
 2185 0002 0400     		movs	r4, r0
 338:ui.c          **** }
 2186              		.loc 1 338 0
 2187 0004 FFF7FEFF 		bl	get_current_usage
 2188              	.LVL246:
 2189 0008 2200     		movs	r2, r4
 2190 000a 0249     		ldr	r1, .L157
 2191 000c FFF7FEFF 		bl	format_number
 2192              	.LVL247:
 339:ui.c          **** 
 2193              		.loc 1 339 0
 2194              		@ sp needed
 2195              	.LVL248:
 2196 0010 10BD     		pop	{r4, pc}
 2197              	.L158:
 2198 0012 C046     		.align	2
 2199              	.L157:
 2200 0014 8F000000 		.word	.LC54
 2201              		.cfi_endproc
 2202              	.LFE42:
 2203              		.size	print_current_usage, .-print_current_usage
 2204              		.section	.text.print_power,"ax",%progbits
ARM GAS  C:\Users\VIDEOH~1\AppData\Local\Temp\ccpdN5tN.s 			page 62


 2205              		.align	1
 2206              		.global	print_power
 2207              		.code	16
 2208              		.thumb_func
 2209              		.type	print_power, %function
 2210              	print_power:
 2211              	.LFB44:
 345:ui.c          **** 	int power = (get_current_usage() / 1000) * (get_voltage() / 1000);
 2212              		.loc 1 345 0
 2213              		.cfi_startproc
 2214              		@ args = 0, pretend = 0, frame = 0
 2215              		@ frame_needed = 0, uses_anonymous_args = 0
 2216              	.LVL249:
 2217 0000 70B5     		push	{r4, r5, r6, lr}
 2218              		.cfi_def_cfa_offset 16
 2219              		.cfi_offset 4, -16
 2220              		.cfi_offset 5, -12
 2221              		.cfi_offset 6, -8
 2222              		.cfi_offset 14, -4
 345:ui.c          **** 	int power = (get_current_usage() / 1000) * (get_voltage() / 1000);
 2223              		.loc 1 345 0
 2224 0002 0400     		movs	r4, r0
 346:ui.c          **** 	format_number(power, "W", buf);
 2225              		.loc 1 346 0
 2226 0004 FFF7FEFF 		bl	get_current_usage
 2227              	.LVL250:
 2228 0008 0500     		movs	r5, r0
 2229 000a FFF7FEFF 		bl	get_voltage
 2230              	.LVL251:
 347:ui.c          **** }
 2231              		.loc 1 347 0
 2232 000e FA21     		movs	r1, #250
 346:ui.c          **** 	format_number(power, "W", buf);
 2233              		.loc 1 346 0
 2234 0010 0600     		movs	r6, r0
 2235              	.LVL252:
 347:ui.c          **** }
 2236              		.loc 1 347 0
 2237 0012 8900     		lsls	r1, r1, #2
 2238 0014 2800     		movs	r0, r5
 2239              	.LVL253:
 2240 0016 FFF7FEFF 		bl	__aeabi_idiv
 2241              	.LVL254:
 2242 001a FA21     		movs	r1, #250
 2243 001c 0500     		movs	r5, r0
 2244              	.LVL255:
 2245 001e 8900     		lsls	r1, r1, #2
 2246 0020 3000     		movs	r0, r6
 2247 0022 FFF7FEFF 		bl	__aeabi_idiv
 2248              	.LVL256:
 2249 0026 2200     		movs	r2, r4
 2250 0028 6843     		muls	r0, r5
 2251 002a 0249     		ldr	r1, .L160
 2252 002c FFF7FEFF 		bl	format_number
 2253              	.LVL257:
 348:ui.c          **** 
 2254              		.loc 1 348 0
ARM GAS  C:\Users\VIDEOH~1\AppData\Local\Temp\ccpdN5tN.s 			page 63


 2255              		@ sp needed
 2256              	.LVL258:
 2257 0030 70BD     		pop	{r4, r5, r6, pc}
 2258              	.L161:
 2259 0032 C046     		.align	2
 2260              	.L160:
 2261 0034 D5000000 		.word	.LC95
 2262              		.cfi_endproc
 2263              	.LFE44:
 2264              		.size	print_power, .-print_power
 2265              		.section	.text.print_resistance,"ax",%progbits
 2266              		.align	1
 2267              		.global	print_resistance
 2268              		.code	16
 2269              		.thumb_func
 2270              		.type	print_resistance, %function
 2271              	print_resistance:
 2272              	.LFB45:
 350:ui.c          **** 	int current = get_current_usage();
 2273              		.loc 1 350 0
 2274              		.cfi_startproc
 2275              		@ args = 0, pretend = 0, frame = 0
 2276              		@ frame_needed = 0, uses_anonymous_args = 0
 2277              	.LVL259:
 2278 0000 70B5     		push	{r4, r5, r6, lr}
 2279              		.cfi_def_cfa_offset 16
 2280              		.cfi_offset 4, -16
 2281              		.cfi_offset 5, -12
 2282              		.cfi_offset 6, -8
 2283              		.cfi_offset 14, -4
 350:ui.c          **** 	int current = get_current_usage();
 2284              		.loc 1 350 0
 2285 0002 0500     		movs	r5, r0
 351:ui.c          **** 	if(current > 0) {
 2286              		.loc 1 351 0
 2287 0004 FFF7FEFF 		bl	get_current_usage
 2288              	.LVL260:
 2289 0008 061E     		subs	r6, r0, #0
 2290              	.LVL261:
 352:ui.c          **** 		format_number(((get_voltage() * 10) / (current / 100000)), FONT_GLYPH_OHM, buf);
 2291              		.loc 1 352 0
 2292 000a 11DD     		ble	.L163
 353:ui.c          **** 	} else {
 2293              		.loc 1 353 0
 2294 000c FFF7FEFF 		bl	get_voltage
 2295              	.LVL262:
 2296 0010 0A23     		movs	r3, #10
 2297 0012 4343     		muls	r3, r0
 2298 0014 0949     		ldr	r1, .L165
 2299 0016 3000     		movs	r0, r6
 2300 0018 1C00     		movs	r4, r3
 2301 001a FFF7FEFF 		bl	__aeabi_idiv
 2302              	.LVL263:
 2303 001e 0100     		movs	r1, r0
 2304 0020 2000     		movs	r0, r4
 2305 0022 FFF7FEFF 		bl	__aeabi_idiv
 2306              	.LVL264:
ARM GAS  C:\Users\VIDEOH~1\AppData\Local\Temp\ccpdN5tN.s 			page 64


 2307 0026 2A00     		movs	r2, r5
 2308 0028 0549     		ldr	r1, .L165+4
 2309 002a FFF7FEFF 		bl	format_number
 2310              	.LVL265:
 2311 002e 03E0     		b	.L162
 2312              	.LVL266:
 2313              	.L163:
 355:ui.c          **** 	}
 2314              		.loc 1 355 0
 2315 0030 0449     		ldr	r1, .L165+8
 2316 0032 2800     		movs	r0, r5
 2317              	.LVL267:
 2318 0034 FFF7FEFF 		bl	strcpy
 2319              	.LVL268:
 2320              	.L162:
 357:ui.c          **** 
 2321              		.loc 1 357 0
 2322              		@ sp needed
 2323              	.LVL269:
 2324              	.LVL270:
 2325 0038 70BD     		pop	{r4, r5, r6, pc}
 2326              	.L166:
 2327 003a C046     		.align	2
 2328              	.L165:
 2329 003c A0860100 		.word	100000
 2330 0040 D7000000 		.word	.LC97
 2331 0044 D9000000 		.word	.LC99
 2332              		.cfi_endproc
 2333              	.LFE45:
 2334              		.size	print_resistance, .-print_resistance
 2335              		.section	.text.print_amp_hours,"ax",%progbits
 2336              		.align	1
 2337              		.global	print_amp_hours
 2338              		.code	16
 2339              		.thumb_func
 2340              		.type	print_amp_hours, %function
 2341              	print_amp_hours:
 2342              	.LFB46:
 360:ui.c          **** 	format_number(get_microamp_hours(), "Ah", buf);
 2343              		.loc 1 360 0
 2344              		.cfi_startproc
 2345              		@ args = 0, pretend = 0, frame = 0
 2346              		@ frame_needed = 0, uses_anonymous_args = 0
 2347              	.LVL271:
 2348 0000 10B5     		push	{r4, lr}
 2349              		.cfi_def_cfa_offset 8
 2350              		.cfi_offset 4, -8
 2351              		.cfi_offset 14, -4
 360:ui.c          **** 	format_number(get_microamp_hours(), "Ah", buf);
 2352              		.loc 1 360 0
 2353 0002 0400     		movs	r4, r0
 361:ui.c          **** }
 2354              		.loc 1 361 0
 2355 0004 FFF7FEFF 		bl	get_microamp_hours
 2356              	.LVL272:
 2357 0008 2200     		movs	r2, r4
 2358 000a 0249     		ldr	r1, .L168
ARM GAS  C:\Users\VIDEOH~1\AppData\Local\Temp\ccpdN5tN.s 			page 65


 2359 000c FFF7FEFF 		bl	format_number
 2360              	.LVL273:
 362:ui.c          **** 
 2361              		.loc 1 362 0
 2362              		@ sp needed
 2363              	.LVL274:
 2364 0010 10BD     		pop	{r4, pc}
 2365              	.L169:
 2366 0012 C046     		.align	2
 2367              	.L168:
 2368 0014 DF000000 		.word	.LC101
 2369              		.cfi_endproc
 2370              	.LFE46:
 2371              		.size	print_amp_hours, .-print_amp_hours
 2372              		.section	.text.print_watt_hours,"ax",%progbits
 2373              		.align	1
 2374              		.global	print_watt_hours
 2375              		.code	16
 2376              		.thumb_func
 2377              		.type	print_watt_hours, %function
 2378              	print_watt_hours:
 2379              	.LFB47:
 364:ui.c          **** 	format_number(get_microwatt_hours(), "Wh", buf);
 2380              		.loc 1 364 0
 2381              		.cfi_startproc
 2382              		@ args = 0, pretend = 0, frame = 0
 2383              		@ frame_needed = 0, uses_anonymous_args = 0
 2384              	.LVL275:
 2385 0000 10B5     		push	{r4, lr}
 2386              		.cfi_def_cfa_offset 8
 2387              		.cfi_offset 4, -8
 2388              		.cfi_offset 14, -4
 364:ui.c          **** 	format_number(get_microwatt_hours(), "Wh", buf);
 2389              		.loc 1 364 0
 2390 0002 0400     		movs	r4, r0
 365:ui.c          **** }
 2391              		.loc 1 365 0
 2392 0004 FFF7FEFF 		bl	get_microwatt_hours
 2393              	.LVL276:
 2394 0008 2200     		movs	r2, r4
 2395 000a 0249     		ldr	r1, .L171
 2396 000c FFF7FEFF 		bl	format_number
 2397              	.LVL277:
 366:ui.c          **** 
 2398              		.loc 1 366 0
 2399              		@ sp needed
 2400              	.LVL278:
 2401 0010 10BD     		pop	{r4, pc}
 2402              	.L172:
 2403 0012 C046     		.align	2
 2404              	.L171:
 2405 0014 E2000000 		.word	.LC103
 2406              		.cfi_endproc
 2407              	.LFE47:
 2408              		.size	print_watt_hours, .-print_watt_hours
 2409              		.section	.text.quadrature_event_isr,"ax",%progbits
 2410              		.align	1
ARM GAS  C:\Users\VIDEOH~1\AppData\Local\Temp\ccpdN5tN.s 			page 66


 2411              		.global	quadrature_event_isr
 2412              		.code	16
 2413              		.thumb_func
 2414              		.type	quadrature_event_isr, %function
 2415              	quadrature_event_isr:
 2416              	.LFB34:
 186:ui.c          **** 	static ui_event event = {.type = UI_EVENT_UPDOWN, .when = 0, .int_arg = 0};
 2417              		.loc 1 186 0
 2418              		.cfi_startproc
 2419              		@ args = 0, pretend = 0, frame = 0
 2420              		@ frame_needed = 0, uses_anonymous_args = 0
 2421 0000 70B5     		push	{r4, r5, r6, lr}
 2422              		.cfi_def_cfa_offset 16
 2423              		.cfi_offset 4, -16
 2424              		.cfi_offset 5, -12
 2425              		.cfi_offset 6, -8
 2426              		.cfi_offset 14, -4
 192:ui.c          **** 	Quadrature_ClearInterrupt();
 2427              		.loc 1 192 0
 2428 0002 FFF7FEFF 		bl	Quadrature_Read
 2429              	.LVL279:
 2430 0006 0600     		movs	r6, r0
 2431              	.LVL280:
 193:ui.c          **** 
 2432              		.loc 1 193 0
 2433 0008 FFF7FEFF 		bl	Quadrature_ClearInterrupt
 2434              	.LVL281:
 195:ui.c          **** 		count += 1;
 2435              		.loc 1 195 0
 2436 000c 0422     		movs	r2, #4
 2437 000e 204C     		ldr	r4, .L181
 2438 0010 204B     		ldr	r3, .L181+4
 2439 0012 A256     		ldrsb	r2, [r4, r2]
 2440 0014 7833     		adds	r3, r3, #120
 2441 0016 9956     		ldrsb	r1, [r3, r2]
 2442 0018 1F4D     		ldr	r5, .L181+8
 2443 001a 8E42     		cmp	r6, r1
 2444 001c 02D1     		bne	.L174
 196:ui.c          **** 		last_levels = levels;
 2445              		.loc 1 196 0
 2446 001e 2B7A     		ldrb	r3, [r5, #8]
 2447 0020 0133     		adds	r3, r3, #1
 2448 0022 04E0     		b	.L180
 2449              	.L174:
 198:ui.c          **** 		count -= 1;
 2450              		.loc 1 198 0
 2451 0024 9B57     		ldrsb	r3, [r3, r6]
 2452 0026 9342     		cmp	r3, r2
 2453 0028 03D1     		bne	.L175
 199:ui.c          **** 		last_levels = levels;
 2454              		.loc 1 199 0
 2455 002a 2B7A     		ldrb	r3, [r5, #8]
 2456 002c 013B     		subs	r3, r3, #1
 2457              	.L180:
 2458 002e 2B72     		strb	r3, [r5, #8]
 200:ui.c          **** 	}
 2459              		.loc 1 200 0
ARM GAS  C:\Users\VIDEOH~1\AppData\Local\Temp\ccpdN5tN.s 			page 67


 2460 0030 2671     		strb	r6, [r4, #4]
 2461              	.L175:
 203:ui.c          ****         before = event.when;
 2462              		.loc 1 203 0
 2463 0032 0823     		movs	r3, #8
 2464 0034 EB56     		ldrsb	r3, [r5, r3]
 2465 0036 DA17     		asrs	r2, r3, #31
 2466 0038 9B18     		adds	r3, r3, r2
 2467 003a 5340     		eors	r3, r2
 2468 003c 032B     		cmp	r3, #3
 2469 003e 26DD     		ble	.L173
 2470              	.LBB50:
 2471              	.LBB51:
 204:ui.c          ****         event.when = xTaskGetTickCountFromISR();
 2472              		.loc 1 204 0
 2473 0040 6369     		ldr	r3, [r4, #20]
 2474 0042 EB60     		str	r3, [r5, #12]
 205:ui.c          **** 
 2475              		.loc 1 205 0
 2476 0044 FFF7FEFF 		bl	xTaskGetTickCountFromISR
 2477              	.LVL282:
 208:ui.c          ****         if(event.duration < 1)
 2478              		.loc 1 208 0
 2479 0048 EB68     		ldr	r3, [r5, #12]
 205:ui.c          **** 
 2480              		.loc 1 205 0
 2481 004a 6061     		str	r0, [r4, #20]
 208:ui.c          ****         if(event.duration < 1)
 2482              		.loc 1 208 0
 2483 004c C01A     		subs	r0, r0, r3
 209:ui.c          ****             event.duration = 1;
 2484              		.loc 1 209 0
 2485 004e 01D0     		beq	.L177
 208:ui.c          ****         if(event.duration < 1)
 2486              		.loc 1 208 0
 2487 0050 2061     		str	r0, [r4, #16]
 2488 0052 01E0     		b	.L178
 2489              	.L177:
 210:ui.c          **** 
 2490              		.loc 1 210 0
 2491 0054 0123     		movs	r3, #1
 2492 0056 2361     		str	r3, [r4, #16]
 2493              	.L178:
 212:ui.c          **** 		xQueueSendToBackFromISR(ui_queue, &event, NULL);
 2494              		.loc 1 212 0
 2495 0058 0823     		movs	r3, #8
 2496 005a 0322     		movs	r2, #3
 2497 005c EB56     		ldrsb	r3, [r5, r3]
 213:ui.c          **** 		count = count % 4;
 2498              		.loc 1 213 0
 2499 005e 0F48     		ldr	r0, .L181+12
 212:ui.c          **** 		xQueueSendToBackFromISR(ui_queue, &event, NULL);
 2500              		.loc 1 212 0
 2501 0060 D917     		asrs	r1, r3, #31
 2502 0062 0A40     		ands	r2, r1
 2503 0064 D318     		adds	r3, r2, r3
 2504 0066 9B10     		asrs	r3, r3, #2
ARM GAS  C:\Users\VIDEOH~1\AppData\Local\Temp\ccpdN5tN.s 			page 68


 2505 0068 E360     		str	r3, [r4, #12]
 213:ui.c          **** 		count = count % 4;
 2506              		.loc 1 213 0
 2507 006a 2100     		movs	r1, r4
 2508 006c 0023     		movs	r3, #0
 2509 006e 0831     		adds	r1, r1, #8
 2510 0070 1A00     		movs	r2, r3
 2511 0072 0068     		ldr	r0, [r0]
 2512 0074 FFF7FEFF 		bl	xQueueGenericSendFromISR
 2513              	.LVL283:
 214:ui.c          **** 	}
 2514              		.loc 1 214 0
 2515 0078 0822     		movs	r2, #8
 2516 007a 094B     		ldr	r3, .L181+16
 2517 007c AA56     		ldrsb	r2, [r5, r2]
 2518 007e 1340     		ands	r3, r2
 2519 0080 04D5     		bpl	.L179
 2520 0082 0422     		movs	r2, #4
 2521 0084 013B     		subs	r3, r3, #1
 2522 0086 5242     		rsbs	r2, r2, #0
 2523 0088 1343     		orrs	r3, r2
 2524 008a 0133     		adds	r3, r3, #1
 2525              	.L179:
 2526 008c 2B72     		strb	r3, [r5, #8]
 2527              	.L173:
 2528              	.LBE51:
 2529              	.LBE50:
 216:ui.c          **** 
 2530              		.loc 1 216 0
 2531              		@ sp needed
 2532              	.LVL284:
 2533 008e 70BD     		pop	{r4, r5, r6, pc}
 2534              	.L182:
 2535              		.align	2
 2536              	.L181:
 2537 0090 00000000 		.word	.LANCHOR0
 2538 0094 80000000 		.word	.LANCHOR3
 2539 0098 00000000 		.word	.LANCHOR1
 2540 009c 00000000 		.word	ui_queue
 2541 00a0 03000080 		.word	-2147483645
 2542              		.cfi_endproc
 2543              	.LFE34:
 2544              		.size	quadrature_event_isr, .-quadrature_event_isr
 2545              		.section	.text.show_temperature.constprop.2,"ax",%progbits
 2546              		.align	1
 2547              		.code	16
 2548              		.thumb_func
 2549              		.type	show_temperature.constprop.2, %function
 2550              	show_temperature.constprop.2:
 2551              	.LFB71:
 444:ui.c          **** {
 2552              		.loc 1 444 0
 2553              		.cfi_startproc
 2554              		@ args = 0, pretend = 0, frame = 8
 2555              		@ frame_needed = 0, uses_anonymous_args = 0
 2556              	.LVL285:
 2557 0000 13B5     		push	{r0, r1, r4, lr}
ARM GAS  C:\Users\VIDEOH~1\AppData\Local\Temp\ccpdN5tN.s 			page 69


 2558              		.cfi_def_cfa_offset 16
 2559              		.cfi_offset 0, -16
 2560              		.cfi_offset 1, -12
 2561              		.cfi_offset 4, -8
 2562              		.cfi_offset 14, -4
 444:ui.c          **** {
 2563              		.loc 1 444 0
 2564 0002 0400     		movs	r4, r0
 2565 0004 0A00     		movs	r2, r1
 447:ui.c          ****     strcat(out,FONT_GLYPH_CELSIUS);
 2566              		.loc 1 447 0
 2567 0006 6846     		mov	r0, sp
 2568              	.LVL286:
 2569 0008 0649     		ldr	r1, .L184
 2570              	.LVL287:
 2571 000a FFF7FEFF 		bl	sprintf
 2572              	.LVL288:
 448:ui.c          ****     //Display_Clear(page-1,col,page,col+48,0);
 2573              		.loc 1 448 0
 2574 000e 0649     		ldr	r1, .L184+4
 2575 0010 6846     		mov	r0, sp
 2576 0012 FFF7FEFF 		bl	strcat
 2577              	.LVL289:
 450:ui.c          **** }
 2578              		.loc 1 450 0
 2579 0016 0023     		movs	r3, #0
 2580 0018 6A46     		mov	r2, sp
 2581 001a 2100     		movs	r1, r4
 2582 001c 0320     		movs	r0, #3
 2583 001e FFF7FEFF 		bl	Display_DrawText
 2584              	.LVL290:
 451:ui.c          **** 
 2585              		.loc 1 451 0
 2586              		@ sp needed
 2587 0022 13BD     		pop	{r0, r1, r4, pc}
 2588              	.L185:
 2589              		.align	2
 2590              	.L184:
 2591 0024 E5000000 		.word	.LC116
 2592 0028 E9000000 		.word	.LC118
 2593              		.cfi_endproc
 2594              	.LFE71:
 2595              		.size	show_temperature.constprop.2, .-show_temperature.constprop.2
 2596              		.global	__aeabi_uidiv
 2597              		.section	.text.cc_load,"ax",%progbits
 2598              		.align	1
 2599              		.code	16
 2600              		.thumb_func
 2601              		.type	cc_load, %function
 2602              	cc_load:
 2603              	.LFB60:
 744:ui.c          **** 	static portTickType last_adjust_current_setpoint = 0;
 2604              		.loc 1 744 0
 2605              		.cfi_startproc
 2606              		@ args = 0, pretend = 0, frame = 24
 2607              		@ frame_needed = 0, uses_anonymous_args = 0
 2608              	.LVL291:
ARM GAS  C:\Users\VIDEOH~1\AppData\Local\Temp\ccpdN5tN.s 			page 70


 2609 0000 F0B5     		push	{r4, r5, r6, r7, lr}
 2610              		.cfi_def_cfa_offset 20
 2611              		.cfi_offset 4, -20
 2612              		.cfi_offset 5, -16
 2613              		.cfi_offset 6, -12
 2614              		.cfi_offset 7, -8
 2615              		.cfi_offset 14, -4
 2616 0002 89B0     		sub	sp, sp, #36
 2617              		.cfi_def_cfa_offset 56
 744:ui.c          **** 	static portTickType last_adjust_current_setpoint = 0;
 2618              		.loc 1 744 0
 2619 0004 0400     		movs	r4, r0
 747:ui.c          **** 
 2620              		.loc 1 747 0
 2621 0006 FFF7FEFF 		bl	Display_ClearAll
 2622              	.LVL292:
 2623              	.L209:
 751:ui.c          **** 		switch(event.type) {
 2624              		.loc 1 751 0
 2625 000a 04AD     		add	r5, sp, #16
 2626 000c 2800     		movs	r0, r5
 2627 000e FFF7FEFF 		bl	next_event
 2628              	.LVL293:
 752:ui.c          **** 		case UI_EVENT_BUTTONPRESS:
 2629              		.loc 1 752 0
 2630 0012 2878     		ldrb	r0, [r5]
 2631 0014 0138     		subs	r0, r0, #1
 2632 0016 0428     		cmp	r0, #4
 2633 0018 3CD8     		bhi	.L187
 2634 001a FFF7FEFF 		bl	__gnu_thumb1_case_uqi
 2635              	.L189:
 2636 001e 03       		.byte	(.L188-.L189)/2
 2637 001f 0C       		.byte	(.L190-.L189)/2
 2638 0020 16       		.byte	(.L191-.L189)/2
 2639 0021 3B       		.byte	(.L187-.L189)/2
 2640 0022 34       		.byte	(.L192-.L189)/2
 2641 0023 00       		.p2align 1
 2642              	.L188:
 754:ui.c          **** 				return (state_func)STATE_MAIN_MENU;
 2643              		.loc 1 754 0
 2644 0024 6B68     		ldr	r3, [r5, #4]
 2645 0026 012B     		cmp	r3, #1
 2646 0028 34D1     		bne	.L187
 755:ui.c          ****             break;
 2647              		.loc 1 755 0
 2648 002a 2200     		movs	r2, r4
 2649 002c 7C4B     		ldr	r3, .L217
 2650 002e 7C33     		adds	r3, r3, #124
 2651 0030 23CB     		ldmia	r3!, {r0, r1, r5}
 2652 0032 23C2     		stmia	r2!, {r0, r1, r5}
 2653 0034 F1E0     		b	.L186
 2654              	.L190:
 758:ui.c          ****                 set_output_mode(OUTPUT_MODE_FEEDBACK);
 2655              		.loc 1 758 0
 2656 0036 FFF7FEFF 		bl	get_output_mode
 2657              	.LVL294:
 2658 003a 0228     		cmp	r0, #2
ARM GAS  C:\Users\VIDEOH~1\AppData\Local\Temp\ccpdN5tN.s 			page 71


 2659 003c 01D0     		beq	.L194
 759:ui.c          ****             } else {
 2660              		.loc 1 759 0
 2661 003e 0220     		movs	r0, #2
 2662 0040 00E0     		b	.L214
 2663              	.L194:
 761:ui.c          ****             }
 2664              		.loc 1 761 0
 2665 0042 0020     		movs	r0, #0
 2666              	.L214:
 2667 0044 FFF7FEFF 		bl	set_output_mode
 2668              	.LVL295:
 2669 0048 24E0     		b	.L187
 2670              	.L191:
 765:ui.c          **** 			adjust_current_setpoint(event.int_arg, event.duration);
 2671              		.loc 1 765 0
 2672 004a FFF7FEFF 		bl	xTaskGetTickCount
 2673              	.LVL296:
 2674 004e 754B     		ldr	r3, .L217+4
 2675              	.LBB59:
 2676              	.LBB60:
 253:ui.c          ****     if(step < 1)
 2677              		.loc 1 253 0
 2678 0050 A968     		ldr	r1, [r5, #8]
 2679              	.LBE60:
 2680              	.LBE59:
 765:ui.c          **** 			adjust_current_setpoint(event.int_arg, event.duration);
 2681              		.loc 1 765 0
 2682 0052 1861     		str	r0, [r3, #16]
 2683              	.LBB63:
 2684              	.LBB61:
 253:ui.c          ****     if(step < 1)
 2685              		.loc 1 253 0
 2686 0054 2820     		movs	r0, #40
 2687              	.LBE61:
 2688              	.LBE63:
 766:ui.c          **** 			break;
 2689              		.loc 1 766 0
 2690 0056 6E68     		ldr	r6, [r5, #4]
 2691              	.LVL297:
 2692              	.LBB64:
 2693              	.LBB62:
 253:ui.c          ****     if(step < 1)
 2694              		.loc 1 253 0
 2695 0058 FFF7FEFF 		bl	__aeabi_uidiv
 2696              	.LVL298:
 254:ui.c          ****         step = 1;
 2697              		.loc 1 254 0
 2698 005c 0028     		cmp	r0, #0
 2699 005e 00D1     		bne	.L195
 255:ui.c          **** 	set_current(state.current_setpoint + delta * step * CURRENT_STEP);
 2700              		.loc 1 255 0
 2701 0060 0130     		adds	r0, r0, #1
 2702              	.LVL299:
 2703              	.L195:
 256:ui.c          ****     uart_printf("set %d\r\n", state.current_setpoint / 1000);
 2704              		.loc 1 256 0
ARM GAS  C:\Users\VIDEOH~1\AppData\Local\Temp\ccpdN5tN.s 			page 72


 2705 0062 7043     		muls	r0, r6
 2706              	.LVL300:
 2707 0064 704E     		ldr	r6, .L217+8
 2708              	.LVL301:
 2709 0066 714D     		ldr	r5, .L217+12
 2710 0068 7043     		muls	r0, r6
 2711 006a 2B68     		ldr	r3, [r5]
 2712 006c C018     		adds	r0, r0, r3
 2713 006e FFF7FEFF 		bl	set_current
 2714              	.LVL302:
 257:ui.c          **** }
 2715              		.loc 1 257 0
 2716 0072 FA21     		movs	r1, #250
 2717 0074 2868     		ldr	r0, [r5]
 2718 0076 8900     		lsls	r1, r1, #2
 2719 0078 FFF7FEFF 		bl	__aeabi_idiv
 2720              	.LVL303:
 2721 007c 0100     		movs	r1, r0
 2722 007e 6C48     		ldr	r0, .L217+16
 2723 0080 FFF7FEFF 		bl	uart_printf
 2724              	.LVL304:
 2725 0084 06E0     		b	.L187
 2726              	.L192:
 2727              	.LBE62:
 2728              	.LBE64:
 769:ui.c          **** 		default:
 2729              		.loc 1 769 0
 2730 0086 6B68     		ldr	r3, [r5, #4]
 2731 0088 6360     		str	r3, [r4, #4]
 2732 008a 6A4B     		ldr	r3, .L217+20
 2733 008c 2360     		str	r3, [r4]
 2734 008e 0023     		movs	r3, #0
 2735 0090 2372     		strb	r3, [r4, #8]
 2736 0092 C2E0     		b	.L186
 2737              	.L187:
 773:ui.c          **** 		//CyDelay(200);
 2738              		.loc 1 773 0
 2739 0094 FFF7FEFF 		bl	xTaskGetTickCount
 2740              	.LVL305:
 2741 0098 624B     		ldr	r3, .L217+4
 2742              	.LBB65:
 2743              	.LBB66:
 383:ui.c          **** 	if(readout->func != print_nothing) {
 2744              		.loc 1 383 0
 2745 009a 0125     		movs	r5, #1
 2746 009c 1B69     		ldr	r3, [r3, #16]
 2747 009e C01A     		subs	r0, r0, r3
 2748              	.LVL306:
 2749 00a0 6328     		cmp	r0, #99
 2750 00a2 01D9     		bls	.L196
 2751 00a4 644B     		ldr	r3, .L217+24
 2752 00a6 9D7B     		ldrb	r5, [r3, #14]
 2753              	.L196:
 2754              	.LVL307:
 384:ui.c          **** 		readout->func(buf);
 2755              		.loc 1 384 0
 2756 00a8 644F     		ldr	r7, .L217+28
ARM GAS  C:\Users\VIDEOH~1\AppData\Local\Temp\ccpdN5tN.s 			page 73


 2757 00aa ED00     		lsls	r5, r5, #3
 2758              	.LVL308:
 2759 00ac 7B19     		adds	r3, r7, r5
 2760 00ae 9B68     		ldr	r3, [r3, #8]
 2761 00b0 634A     		ldr	r2, .L217+32
 2762 00b2 0026     		movs	r6, #0
 2763 00b4 9342     		cmp	r3, r2
 2764 00b6 15D0     		beq	.L197
 385:ui.c          ****     	Display_Clear(4, 72, 7, 77, 0);
 2765              		.loc 1 385 0
 2766 00b8 02A8     		add	r0, sp, #8
 2767 00ba 9847     		blx	r3
 2768              	.LVL309:
 386:ui.c          **** 		Display_Clear(4, 77, 5, 114, 0);
 2769              		.loc 1 386 0
 2770 00bc 0096     		str	r6, [sp]
 2771 00be 4D23     		movs	r3, #77
 2772 00c0 0722     		movs	r2, #7
 2773 00c2 4821     		movs	r1, #72
 2774 00c4 0420     		movs	r0, #4
 2775 00c6 FFF7FEFF 		bl	Display_Clear
 2776              	.LVL310:
 387:ui.c          **** 		Display_DrawBigNumbers(7, 0, buf);
 2777              		.loc 1 387 0
 2778 00ca 0096     		str	r6, [sp]
 2779 00cc 7223     		movs	r3, #114
 2780 00ce 0522     		movs	r2, #5
 2781 00d0 4D21     		movs	r1, #77
 2782 00d2 0420     		movs	r0, #4
 2783 00d4 FFF7FEFF 		bl	Display_Clear
 2784              	.LVL311:
 388:ui.c          **** 	} else {
 2785              		.loc 1 388 0
 2786 00d8 02AA     		add	r2, sp, #8
 2787 00da 3100     		movs	r1, r6
 2788 00dc 0720     		movs	r0, #7
 2789 00de FFF7FEFF 		bl	Display_DrawBigNumbers
 2790              	.LVL312:
 2791 00e2 0DE0     		b	.L198
 2792              	.L197:
 390:ui.c          **** 		Display_Clear(4, 77, 5, 114, 0);
 2793              		.loc 1 390 0
 2794 00e4 4D23     		movs	r3, #77
 2795 00e6 0722     		movs	r2, #7
 2796 00e8 3100     		movs	r1, r6
 2797 00ea 0420     		movs	r0, #4
 2798 00ec 0096     		str	r6, [sp]
 2799 00ee FFF7FEFF 		bl	Display_Clear
 2800              	.LVL313:
 391:ui.c          **** 	}
 2801              		.loc 1 391 0
 2802 00f2 0096     		str	r6, [sp]
 2803 00f4 7223     		movs	r3, #114
 2804 00f6 0522     		movs	r2, #5
 2805 00f8 4D21     		movs	r1, #77
 2806 00fa 0420     		movs	r0, #4
 2807 00fc FFF7FEFF 		bl	Display_Clear
ARM GAS  C:\Users\VIDEOH~1\AppData\Local\Temp\ccpdN5tN.s 			page 74


 2808              	.LVL314:
 2809              	.L198:
 395:ui.c          **** 	Display_DrawText(7, 127 - labelsize, readout->label, 1);
 2810              		.loc 1 395 0
 2811 0100 7D19     		adds	r5, r7, r5
 2812 0102 EF68     		ldr	r7, [r5, #12]
 396:ui.c          **** 	if(labelsize < 36) Display_Clear(6, 91, 7, 127 - labelsize, 0);
 2813              		.loc 1 396 0
 2814 0104 7F25     		movs	r5, #127
 395:ui.c          **** 	Display_DrawText(7, 127 - labelsize, readout->label, 1);
 2815              		.loc 1 395 0
 2816 0106 3800     		movs	r0, r7
 2817 0108 FFF7FEFF 		bl	strlen
 2818              	.LVL315:
 2819 010c 0C23     		movs	r3, #12
 2820 010e 5843     		muls	r0, r3
 2821 0110 C6B2     		uxtb	r6, r0
 2822              	.LVL316:
 396:ui.c          **** 	if(labelsize < 36) Display_Clear(6, 91, 7, 127 - labelsize, 0);
 2823              		.loc 1 396 0
 2824 0112 AD1B     		subs	r5, r5, r6
 2825 0114 EDB2     		uxtb	r5, r5
 2826 0116 0B3B     		subs	r3, r3, #11
 2827 0118 3A00     		movs	r2, r7
 2828 011a 2900     		movs	r1, r5
 2829 011c 0720     		movs	r0, #7
 2830 011e FFF7FEFF 		bl	Display_DrawText
 2831              	.LVL317:
 397:ui.c          **** 
 2832              		.loc 1 397 0
 2833 0122 232E     		cmp	r6, #35
 2834 0124 07D8     		bhi	.L199
 2835 0126 0023     		movs	r3, #0
 2836 0128 0722     		movs	r2, #7
 2837 012a 0093     		str	r3, [sp]
 2838 012c 5B21     		movs	r1, #91
 2839 012e 2B00     		movs	r3, r5
 2840 0130 0620     		movs	r0, #6
 2841 0132 FFF7FEFF 		bl	Display_Clear
 2842              	.LVL318:
 2843              	.L199:
 400:ui.c          ****     	Display_DrawText(1, 91, "OFF", 1);
 2844              		.loc 1 400 0
 2845 0136 FFF7FEFF 		bl	get_output_mode
 2846              	.LVL319:
 2847 013a 0028     		cmp	r0, #0
 2848 013c 34D1     		bne	.L200
 401:ui.c          ****     } else {
 2849              		.loc 1 401 0
 2850 013e 0123     		movs	r3, #1
 2851 0140 404A     		ldr	r2, .L217+36
 2852 0142 5B21     		movs	r1, #91
 2853 0144 1800     		movs	r0, r3
 2854 0146 FFF7FEFF 		bl	Display_DrawText
 2855              	.LVL320:
 2856              	.L203:
 2857              	.LBB67:
ARM GAS  C:\Users\VIDEOH~1\AppData\Local\Temp\ccpdN5tN.s 			page 75


 410:ui.c          **** 		Display_DrawText(3-i*2, 0, buf, 0);
 2858              		.loc 1 410 0
 2859 014a 0025     		movs	r5, #0
 409:ui.c          **** 		Display_Clear(2-i*2,48,3-i*2,79,0);
 2860              		.loc 1 409 0
 2861 014c 3A4B     		ldr	r3, .L217+24
 2862 014e 3B4E     		ldr	r6, .L217+28
 2863              	.LVL321:
 2864 0150 DB7B     		ldrb	r3, [r3, #15]
 2865 0152 02A8     		add	r0, sp, #8
 2866 0154 DB00     		lsls	r3, r3, #3
 2867 0156 F318     		adds	r3, r6, r3
 2868 0158 9B68     		ldr	r3, [r3, #8]
 2869 015a 9847     		blx	r3
 2870              	.LVL322:
 410:ui.c          **** 		Display_DrawText(3-i*2, 0, buf, 0);
 2871              		.loc 1 410 0
 2872 015c 4F23     		movs	r3, #79
 2873 015e 0322     		movs	r2, #3
 2874 0160 3021     		movs	r1, #48
 2875 0162 0220     		movs	r0, #2
 2876 0164 0095     		str	r5, [sp]
 2877 0166 FFF7FEFF 		bl	Display_Clear
 2878              	.LVL323:
 411:ui.c          **** 	}
 2879              		.loc 1 411 0
 2880 016a 02AA     		add	r2, sp, #8
 2881 016c 2900     		movs	r1, r5
 2882 016e 2B00     		movs	r3, r5
 2883 0170 0320     		movs	r0, #3
 2884 0172 FFF7FEFF 		bl	Display_DrawText
 2885              	.LVL324:
 409:ui.c          **** 		Display_Clear(2-i*2,48,3-i*2,79,0);
 2886              		.loc 1 409 0
 2887 0176 304B     		ldr	r3, .L217+24
 2888 0178 02A8     		add	r0, sp, #8
 2889 017a 1B7C     		ldrb	r3, [r3, #16]
 2890 017c DB00     		lsls	r3, r3, #3
 2891 017e F318     		adds	r3, r6, r3
 2892 0180 9B68     		ldr	r3, [r3, #8]
 2893 0182 9847     		blx	r3
 2894              	.LVL325:
 410:ui.c          **** 		Display_DrawText(3-i*2, 0, buf, 0);
 2895              		.loc 1 410 0
 2896 0184 4F23     		movs	r3, #79
 2897 0186 0122     		movs	r2, #1
 2898 0188 3021     		movs	r1, #48
 2899 018a 2800     		movs	r0, r5
 2900 018c 0095     		str	r5, [sp]
 2901 018e FFF7FEFF 		bl	Display_Clear
 2902              	.LVL326:
 411:ui.c          **** 	}
 2903              		.loc 1 411 0
 2904 0192 2B00     		movs	r3, r5
 2905 0194 02AA     		add	r2, sp, #8
 2906 0196 2900     		movs	r1, r5
 2907 0198 0120     		movs	r0, #1
ARM GAS  C:\Users\VIDEOH~1\AppData\Local\Temp\ccpdN5tN.s 			page 76


 2908 019a FFF7FEFF 		bl	Display_DrawText
 2909              	.LVL327:
 2910              	.LBE67:
 414:ui.c          ****     {   if(CoolerStatusReg_Read()&1)
 2911              		.loc 1 414 0
 2912 019e FFF7FEFF 		bl	get_cooler_state
 2913              	.LVL328:
 2914 01a2 A842     		cmp	r0, r5
 2915 01a4 08D1     		bne	.L201
 2916 01a6 14E0     		b	.L216
 2917              	.LVL329:
 2918              	.L200:
 403:ui.c          ****     }
 2919              		.loc 1 403 0
 2920 01a8 0020     		movs	r0, #0
 2921 01aa 7F23     		movs	r3, #127
 2922 01ac 0090     		str	r0, [sp]
 2923 01ae 0122     		movs	r2, #1
 2924 01b0 5B21     		movs	r1, #91
 2925 01b2 FFF7FEFF 		bl	Display_Clear
 2926              	.LVL330:
 2927 01b6 C8E7     		b	.L203
 2928              	.LVL331:
 2929              	.L201:
 415:ui.c          ****             Display_DrawText(5, 115,FONT_GLYPH_GOOD_COOLER, 0);
 2930              		.loc 1 415 0
 2931 01b8 FFF7FEFF 		bl	CoolerStatusReg_Read
 2932              	.LVL332:
 2933 01bc 0123     		movs	r3, #1
 418:ui.c          ****     }
 2934              		.loc 1 418 0
 2935 01be 224A     		ldr	r2, .L217+40
 415:ui.c          ****             Display_DrawText(5, 115,FONT_GLYPH_GOOD_COOLER, 0);
 2936              		.loc 1 415 0
 2937 01c0 0340     		ands	r3, r0
 2938 01c2 01D0     		beq	.L215
 416:ui.c          ****         else
 2939              		.loc 1 416 0
 2940 01c4 2B00     		movs	r3, r5
 2941 01c6 214A     		ldr	r2, .L217+44
 2942              	.L215:
 418:ui.c          ****     }
 2943              		.loc 1 418 0
 2944 01c8 7321     		movs	r1, #115
 2945 01ca 0520     		movs	r0, #5
 2946 01cc FFF7FEFF 		bl	Display_DrawText
 2947              	.LVL333:
 2948 01d0 06E0     		b	.L205
 2949              	.L216:
 420:ui.c          ****     show_temperature(3,79,get_temperature_calc());
 2950              		.loc 1 420 0
 2951 01d2 0090     		str	r0, [sp]
 2952 01d4 7F23     		movs	r3, #127
 2953 01d6 0522     		movs	r2, #5
 2954 01d8 7321     		movs	r1, #115
 2955 01da 0420     		movs	r0, #4
 2956 01dc FFF7FEFF 		bl	Display_Clear
ARM GAS  C:\Users\VIDEOH~1\AppData\Local\Temp\ccpdN5tN.s 			page 77


 2957              	.LVL334:
 2958              	.L205:
 2959              	.LBB68:
 2960              	.LBB69:
 429:ui.c          ****     do
 2961              		.loc 1 429 0
 2962 01e0 FFF7FEFF 		bl	get_termistor
 2963              	.LVL335:
 428:ui.c          ****     uint16 term=get_termistor();
 2964              		.loc 1 428 0
 2965 01e4 5221     		movs	r1, #82
 427:ui.c          ****     uint8 median_i=high_i>>1;
 2966              		.loc 1 427 0
 2967 01e6 A523     		movs	r3, #165
 426:ui.c          ****     uint8 high_i=TEMPERATURE_MAX-TEMPERATURE_MIN;
 2968              		.loc 1 426 0
 2969 01e8 0022     		movs	r2, #0
 2970              	.LVL336:
 2971              	.L208:
 433:ui.c          ****         else 
 2972              		.loc 1 433 0
 2973 01ea 3500     		movs	r5, r6
 432:ui.c          ****         if(term>termistor_tbl[median_i]) low_i=median_i;
 2974              		.loc 1 432 0
 2975 01ec 5118     		adds	r1, r2, r1
 2976              	.LVL337:
 2977 01ee C9B2     		uxtb	r1, r1
 2978              	.LVL338:
 433:ui.c          ****         else 
 2979              		.loc 1 433 0
 2980 01f0 5035     		adds	r5, r5, #80
 2981 01f2 4F00     		lsls	r7, r1, #1
 2982 01f4 7D5B     		ldrh	r5, [r7, r5]
 2983 01f6 A842     		cmp	r0, r5
 2984 01f8 02D8     		bhi	.L211
 2985              	.LVL339:
 437:ui.c          ****         }
 2986              		.loc 1 437 0
 2987 01fa 08D0     		beq	.L207
 432:ui.c          ****         if(term>termistor_tbl[median_i]) low_i=median_i;
 2988              		.loc 1 432 0
 2989 01fc 0B00     		movs	r3, r1
 2990 01fe 00E0     		b	.L206
 2991              	.LVL340:
 2992              	.L211:
 2993 0200 0A00     		movs	r2, r1
 2994              	.LVL341:
 2995              	.L206:
 439:ui.c          ****     }while(median_i);
 2996              		.loc 1 439 0
 2997 0202 991A     		subs	r1, r3, r2
 2998              	.LVL342:
 2999 0204 4910     		asrs	r1, r1, #1
 3000 0206 C9B2     		uxtb	r1, r1
 3001              	.LVL343:
 440:ui.c          ****     return (int16)high_i+TEMPERATURE_MIN;
 3002              		.loc 1 440 0
ARM GAS  C:\Users\VIDEOH~1\AppData\Local\Temp\ccpdN5tN.s 			page 78


 3003 0208 0029     		cmp	r1, #0
 3004 020a EED1     		bne	.L208
 3005 020c 1900     		movs	r1, r3
 3006              	.LVL344:
 3007              	.L207:
 3008              	.LBE69:
 3009              	.LBE68:
 421:ui.c          **** }
 3010              		.loc 1 421 0
 3011 020e 2839     		subs	r1, r1, #40
 3012 0210 49B2     		sxtb	r1, r1
 3013 0212 4F20     		movs	r0, #79
 3014 0214 FFF7FEFF 		bl	show_temperature.constprop.2
 3015              	.LVL345:
 3016 0218 F7E6     		b	.L209
 3017              	.LVL346:
 3018              	.L186:
 3019              	.LBE66:
 3020              	.LBE65:
 776:ui.c          **** 
 3021              		.loc 1 776 0
 3022 021a 2000     		movs	r0, r4
 3023 021c 09B0     		add	sp, sp, #36
 3024              		@ sp needed
 3025              	.LVL347:
 3026 021e F0BD     		pop	{r4, r5, r6, r7, pc}
 3027              	.L218:
 3028              		.align	2
 3029              	.L217:
 3030 0220 80000000 		.word	.LANCHOR3
 3031 0224 00000000 		.word	.LANCHOR1
 3032 0228 10270000 		.word	10000
 3033 022c 00000000 		.word	state
 3034 0230 EB000000 		.word	.LC124
 3035 0234 00000000 		.word	overlimit
 3036 0238 00000000 		.word	settings
 3037 023c 00010000 		.word	.LANCHOR4
 3038 0240 00000000 		.word	print_nothing
 3039 0244 59000000 		.word	.LC31
 3040 0248 F6000000 		.word	.LC133
 3041 024c F4000000 		.word	.LC131
 3042              		.cfi_endproc
 3043              	.LFE60:
 3044              		.size	cc_load, .-cc_load
 3045              		.section	.rodata.cst2,"aM",%progbits,2
 3046              		.align	1
 3047              	.LC149:
 3048 0000 D8FF     		.short	-40
 3049              		.section	.text.set_cooler,"ax",%progbits
 3050              		.align	1
 3051              		.code	16
 3052              		.thumb_func
 3053              		.type	set_cooler, %function
 3054              	set_cooler:
 3055              	.LFB56:
 570:ui.c          **** 	Display_ClearAll();
 3056              		.loc 1 570 0
ARM GAS  C:\Users\VIDEOH~1\AppData\Local\Temp\ccpdN5tN.s 			page 79


 3057              		.cfi_startproc
 3058              		@ args = 0, pretend = 0, frame = 16
 3059              		@ frame_needed = 0, uses_anonymous_args = 0
 3060              	.LVL348:
 3061 0000 F0B5     		push	{r4, r5, r6, r7, lr}
 3062              		.cfi_def_cfa_offset 20
 3063              		.cfi_offset 4, -20
 3064              		.cfi_offset 5, -16
 3065              		.cfi_offset 6, -12
 3066              		.cfi_offset 7, -8
 3067              		.cfi_offset 14, -4
 3068 0002 87B0     		sub	sp, sp, #28
 3069              		.cfi_def_cfa_offset 48
 570:ui.c          **** 	Display_ClearAll();
 3070              		.loc 1 570 0
 3071 0004 0500     		movs	r5, r0
 571:ui.c          **** 	Display_Clear(6, 2, 7, 127, 0xFF);
 3072              		.loc 1 571 0
 3073 0006 FFF7FEFF 		bl	Display_ClearAll
 3074              	.LVL349:
 572:ui.c          **** 	Display_DrawText(7, 28, "Cooler", 1);
 3075              		.loc 1 572 0
 3076 000a FF23     		movs	r3, #255
 3077 000c 0722     		movs	r2, #7
 3078 000e 0093     		str	r3, [sp]
 3079 0010 0221     		movs	r1, #2
 3080 0012 803B     		subs	r3, r3, #128
 3081 0014 0620     		movs	r0, #6
 3082 0016 FFF7FEFF 		bl	Display_Clear
 3083              	.LVL350:
 573:ui.c          **** 	Display_DrawText(1, 28, FONT_GLYPH_ENTER ": Done", 0);
 3084              		.loc 1 573 0
 3085 001a 0123     		movs	r3, #1
 3086 001c 2C4A     		ldr	r2, .L234
 3087 001e 1C21     		movs	r1, #28
 3088 0020 0720     		movs	r0, #7
 3089 0022 FFF7FEFF 		bl	Display_DrawText
 3090              	.LVL351:
 574:ui.c          **** 
 3091              		.loc 1 574 0
 3092 0026 0023     		movs	r3, #0
 3093 0028 2A4A     		ldr	r2, .L234+4
 3094 002a 1C21     		movs	r1, #28
 3095 002c 0120     		movs	r0, #1
 3096 002e FFF7FEFF 		bl	Display_DrawText
 3097              	.LVL352:
 577:ui.c          ****     int16 cooler_tmp_show=-32767;
 3098              		.loc 1 577 0
 3099 0032 294E     		ldr	r6, .L234+8
 580:ui.c          **** 	while(1) {
 3100              		.loc 1 580 0
 3101 0034 294A     		ldr	r2, .L234+12
 577:ui.c          ****     int16 cooler_tmp_show=-32767;
 3102              		.loc 1 577 0
 3103 0036 0823     		movs	r3, #8
 3104 0038 F45E     		ldrsh	r4, [r6, r3]
 3105              	.LVL353:
ARM GAS  C:\Users\VIDEOH~1\AppData\Local\Temp\ccpdN5tN.s 			page 80


 580:ui.c          **** 	while(1) {
 3106              		.loc 1 580 0
 3107 003a 1021     		movs	r1, #16
 3108 003c 0023     		movs	r3, #0
 3109 003e 0520     		movs	r0, #5
 3110 0040 FFF7FEFF 		bl	Display_DrawText
 3111              	.LVL354:
 578:ui.c          **** 	ui_event event;
 3112              		.loc 1 578 0
 3113 0044 264A     		ldr	r2, .L234+16
 3114              	.LVL355:
 3115              	.L220:
 582:ui.c          ****         {
 3116              		.loc 1 582 0
 3117 0046 9442     		cmp	r4, r2
 3118 0048 03D0     		beq	.L222
 3119              	.LVL356:
 585:ui.c          ****         }
 3120              		.loc 1 585 0
 3121 004a 61B2     		sxtb	r1, r4
 3122 004c 1E20     		movs	r0, #30
 3123 004e FFF7FEFF 		bl	show_temperature.constprop.2
 3124              	.LVL357:
 3125              	.L222:
 588:ui.c          **** 		switch(event.type) {
 3126              		.loc 1 588 0
 3127 0052 02AF     		add	r7, sp, #8
 3128 0054 3800     		movs	r0, r7
 3129 0056 FFF7FEFF 		bl	next_event
 3130              	.LVL358:
 589:ui.c          **** 		case UI_EVENT_UPDOWN:
 3131              		.loc 1 589 0
 3132 005a 3B78     		ldrb	r3, [r7]
 3133 005c 032B     		cmp	r3, #3
 3134 005e 07D0     		beq	.L223
 3135 0060 052B     		cmp	r3, #5
 3136 0062 2CD0     		beq	.L224
 3137 0064 012B     		cmp	r3, #1
 3138 0066 11D0     		beq	.L233
 3139              	.L230:
 3140 0068 2300     		movs	r3, r4
 3141              	.LVL359:
 3142              	.L221:
 3143 006a 2200     		movs	r2, r4
 3144 006c 1C00     		movs	r4, r3
 3145 006e EAE7     		b	.L220
 3146              	.LVL360:
 3147              	.L223:
 591:ui.c          **** 			if(cooler_tmp > TEMPERATURE_MAX) {
 3148              		.loc 1 591 0
 3149 0070 7A68     		ldr	r2, [r7, #4]
 3150 0072 1219     		adds	r2, r2, r4
 3151 0074 12B2     		sxth	r2, r2
 3152              	.LVL361:
 3153 0076 131C     		adds	r3, r2, #0
 3154 0078 2832     		adds	r2, r2, #40
 3155 007a 01DA     		bge	.L226
ARM GAS  C:\Users\VIDEOH~1\AppData\Local\Temp\ccpdN5tN.s 			page 81


 3156              	.LVL362:
 3157 007c 194B     		ldr	r3, .L234+20
 3158              	.LVL363:
 3159 007e 1B88     		ldrh	r3, [r3]
 3160              	.L226:
 3161 0080 1AB2     		sxth	r2, r3
 3162 0082 7D2A     		cmp	r2, #125
 3163 0084 00DD     		ble	.L227
 3164 0086 7D23     		movs	r3, #125
 3165              	.L227:
 3166 0088 1BB2     		sxth	r3, r3
 3167 008a EEE7     		b	.L221
 3168              	.LVL364:
 3169              	.L233:
 599:ui.c          ****                 settings.cooler_on_temperature=cooler_tmp;
 3170              		.loc 1 599 0
 3171 008c 7B68     		ldr	r3, [r7, #4]
 3172 008e 012B     		cmp	r3, #1
 3173 0090 EAD1     		bne	.L230
 601:ui.c          ****                 settings.cooler_off_adc_data=termistor_tbl[cooler_tmp+40-COOLER_OFF_DELTA];
 3174              		.loc 1 601 0
 3175 0092 2200     		movs	r2, r4
 3176 0094 144B     		ldr	r3, .L234+24
 600:ui.c          ****                 settings.cooler_on_adc_data=termistor_tbl[cooler_tmp+40];
 3177              		.loc 1 600 0
 3178 0096 3481     		strh	r4, [r6, #8]
 601:ui.c          ****                 settings.cooler_off_adc_data=termistor_tbl[cooler_tmp+40-COOLER_OFF_DELTA];
 3179              		.loc 1 601 0
 3180 0098 2832     		adds	r2, r2, #40
 602:ui.c          **** 				EEPROM_Write(0,(void*)&settings, sizeof(settings_t));
 3181              		.loc 1 602 0
 3182 009a 2634     		adds	r4, r4, #38
 3183              	.LVL365:
 601:ui.c          ****                 settings.cooler_off_adc_data=termistor_tbl[cooler_tmp+40-COOLER_OFF_DELTA];
 3184              		.loc 1 601 0
 3185 009c 5033     		adds	r3, r3, #80
 3186 009e 5200     		lsls	r2, r2, #1
 602:ui.c          **** 				EEPROM_Write(0,(void*)&settings, sizeof(settings_t));
 3187              		.loc 1 602 0
 3188 00a0 6400     		lsls	r4, r4, #1
 601:ui.c          ****                 settings.cooler_off_adc_data=termistor_tbl[cooler_tmp+40-COOLER_OFF_DELTA];
 3189              		.loc 1 601 0
 3190 00a2 D25A     		ldrh	r2, [r2, r3]
 602:ui.c          **** 				EEPROM_Write(0,(void*)&settings, sizeof(settings_t));
 3191              		.loc 1 602 0
 3192 00a4 E35A     		ldrh	r3, [r4, r3]
 601:ui.c          ****                 settings.cooler_off_adc_data=termistor_tbl[cooler_tmp+40-COOLER_OFF_DELTA];
 3193              		.loc 1 601 0
 3194 00a6 7281     		strh	r2, [r6, #10]
 602:ui.c          **** 				EEPROM_Write(0,(void*)&settings, sizeof(settings_t));
 3195              		.loc 1 602 0
 3196 00a8 B381     		strh	r3, [r6, #12]
 603:ui.c          **** 				return (state_func)STATE_MAIN;
 3197              		.loc 1 603 0
 3198 00aa 3822     		movs	r2, #56
 3199 00ac 0F4B     		ldr	r3, .L234+28
 3200 00ae 3100     		movs	r1, r6
ARM GAS  C:\Users\VIDEOH~1\AppData\Local\Temp\ccpdN5tN.s 			page 82


 3201 00b0 0020     		movs	r0, #0
 3202 00b2 FFF7FEFF 		bl	Cy_Em_EEPROM_Write
 3203              	.LVL366:
 604:ui.c          **** 			}
 3204              		.loc 1 604 0
 3205 00b6 0023     		movs	r3, #0
 3206 00b8 2B60     		str	r3, [r5]
 3207 00ba 6B60     		str	r3, [r5, #4]
 3208 00bc 04E0     		b	.L232
 3209              	.LVL367:
 3210              	.L224:
 608:ui.c          **** 		default:
 3211              		.loc 1 608 0
 3212 00be 7B68     		ldr	r3, [r7, #4]
 3213 00c0 6B60     		str	r3, [r5, #4]
 3214 00c2 0B4B     		ldr	r3, .L234+32
 3215 00c4 2B60     		str	r3, [r5]
 3216 00c6 0023     		movs	r3, #0
 3217              	.LVL368:
 3218              	.L232:
 613:ui.c          **** 
 3219              		.loc 1 613 0
 3220 00c8 2800     		movs	r0, r5
 608:ui.c          **** 		default:
 3221              		.loc 1 608 0
 3222 00ca 2B72     		strb	r3, [r5, #8]
 613:ui.c          **** 
 3223              		.loc 1 613 0
 3224 00cc 07B0     		add	sp, sp, #28
 3225              		@ sp needed
 3226              	.LVL369:
 3227 00ce F0BD     		pop	{r4, r5, r6, r7, pc}
 3228              	.L235:
 3229              		.align	2
 3230              	.L234:
 3231 00d0 F8000000 		.word	.LC136
 3232 00d4 BE000000 		.word	.LC69
 3233 00d8 00000000 		.word	settings
 3234 00dc FF000000 		.word	.LC140
 3235 00e0 0180FFFF 		.word	-32767
 3236 00e4 00000000 		.word	.LC149
 3237 00e8 00010000 		.word	.LANCHOR4
 3238 00ec 00000000 		.word	EEPROM_context
 3239 00f0 00000000 		.word	overlimit
 3240              		.cfi_endproc
 3241              	.LFE56:
 3242              		.size	set_cooler, .-set_cooler
 3243              		.section	.text.measure_Battery_ISR,"ax",%progbits
 3244              		.align	1
 3245              		.code	16
 3246              		.thumb_func
 3247              		.type	measure_Battery_ISR, %function
 3248              	measure_Battery_ISR:
 3249              	.LFB53:
 484:ui.c          ****     Display_ClearAll();
 3250              		.loc 1 484 0
 3251              		.cfi_startproc
ARM GAS  C:\Users\VIDEOH~1\AppData\Local\Temp\ccpdN5tN.s 			page 83


 3252              		@ args = 0, pretend = 0, frame = 32
 3253              		@ frame_needed = 0, uses_anonymous_args = 0
 3254 0000 F0B5     		push	{r4, r5, r6, r7, lr}
 3255              		.cfi_def_cfa_offset 20
 3256              		.cfi_offset 4, -20
 3257              		.cfi_offset 5, -16
 3258              		.cfi_offset 6, -12
 3259              		.cfi_offset 7, -8
 3260              		.cfi_offset 14, -4
 3261 0002 89B0     		sub	sp, sp, #36
 3262              		.cfi_def_cfa_offset 56
 485:ui.c          ****     Display_DrawText(7, 0, "BATT TEST", 1);
 3263              		.loc 1 485 0
 3264 0004 FFF7FEFF 		bl	Display_ClearAll
 3265              	.LVL370:
 486:ui.c          ****     //This is based roughly on what i can find of the  IEC 61951-1:2005 online
 3266              		.loc 1 486 0
 3267 0008 0123     		movs	r3, #1
 3268 000a 334A     		ldr	r2, .L242
 3269 000c 0021     		movs	r1, #0
 3270 000e 0720     		movs	r0, #7
 3271 0010 FFF7FEFF 		bl	Display_DrawText
 3272              	.LVL371:
 490:ui.c          ****     set_current(100000);//100mA
 3273              		.loc 1 490 0
 3274 0014 0023     		movs	r3, #0
 3275 0016 314A     		ldr	r2, .L242+4
 3276 0018 1900     		movs	r1, r3
 3277 001a 0520     		movs	r0, #5
 3278 001c FFF7FEFF 		bl	Display_DrawText
 3279              	.LVL372:
 491:ui.c          ****     delayWithWatchDog(10);//light load for 10 seconds
 3280              		.loc 1 491 0
 3281 0020 2F48     		ldr	r0, .L242+8
 3282 0022 FFF7FEFF 		bl	set_current
 3283              	.LVL373:
 3284              	.LBB76:
 3285              	.LBB77:
 473:ui.c          ****      for(uint8_t i=0;i<seconds;i++)
 3286              		.loc 1 473 0
 3287 0026 0820     		movs	r0, #8
 3288 0028 FFF7FEFF 		bl	CySysWdtResetCounters
 3289              	.LVL374:
 3290 002c 0A24     		movs	r4, #10
 3291              	.LVL375:
 3292              	.L237:
 3293              	.LBB78:
 476:ui.c          ****         #if USE_WATCHDOG
 3294              		.loc 1 476 0
 3295 002e FA20     		movs	r0, #250
 3296 0030 013C     		subs	r4, r4, #1
 3297              	.LVL376:
 3298 0032 8000     		lsls	r0, r0, #2
 3299 0034 E4B2     		uxtb	r4, r4
 3300 0036 FFF7FEFF 		bl	CyDelay
 3301              	.LVL377:
 474:ui.c          ****     {
ARM GAS  C:\Users\VIDEOH~1\AppData\Local\Temp\ccpdN5tN.s 			page 84


 3302              		.loc 1 474 0
 3303 003a 002C     		cmp	r4, #0
 3304 003c F7D1     		bne	.L237
 3305              	.LVL378:
 3306              	.LBE78:
 3307              	.LBE77:
 3308              	.LBE76:
 493:ui.c          ****     Display_DrawText(5, 76, "PASS", 1);
 3309              		.loc 1 493 0
 3310 003e FFF7FEFF 		bl	get_voltage
 3311              	.LVL379:
 494:ui.c          ****     Display_DrawText(3, 0, "F Load RUN", 0);
 3312              		.loc 1 494 0
 3313 0042 284E     		ldr	r6, .L242+12
 493:ui.c          ****     Display_DrawText(5, 76, "PASS", 1);
 3314              		.loc 1 493 0
 3315 0044 0500     		movs	r5, r0
 3316              	.LVL380:
 494:ui.c          ****     Display_DrawText(3, 0, "F Load RUN", 0);
 3317              		.loc 1 494 0
 3318 0046 0123     		movs	r3, #1
 3319 0048 3200     		movs	r2, r6
 3320 004a 4C21     		movs	r1, #76
 3321 004c 0520     		movs	r0, #5
 3322              	.LVL381:
 3323 004e FFF7FEFF 		bl	Display_DrawText
 3324              	.LVL382:
 495:ui.c          ****     set_current(1000000);//1A
 3325              		.loc 1 495 0
 3326 0052 2300     		movs	r3, r4
 3327 0054 244A     		ldr	r2, .L242+16
 3328 0056 2100     		movs	r1, r4
 3329 0058 0320     		movs	r0, #3
 3330 005a FFF7FEFF 		bl	Display_DrawText
 3331              	.LVL383:
 496:ui.c          ****     delayWithWatchDog(3);//full load for 3 seconds
 3332              		.loc 1 496 0
 3333 005e 2348     		ldr	r0, .L242+20
 3334 0060 FFF7FEFF 		bl	set_current
 3335              	.LVL384:
 3336              	.LBB79:
 3337              	.LBB80:
 473:ui.c          ****      for(uint8_t i=0;i<seconds;i++)
 3338              		.loc 1 473 0
 3339 0064 0820     		movs	r0, #8
 3340 0066 FFF7FEFF 		bl	CySysWdtResetCounters
 3341              	.LVL385:
 3342              	.LBB81:
 476:ui.c          ****         #if USE_WATCHDOG
 3343              		.loc 1 476 0
 3344 006a FA20     		movs	r0, #250
 3345 006c 8000     		lsls	r0, r0, #2
 3346 006e FFF7FEFF 		bl	CyDelay
 3347              	.LVL386:
 3348 0072 FA20     		movs	r0, #250
 3349 0074 8000     		lsls	r0, r0, #2
 3350 0076 FFF7FEFF 		bl	CyDelay
ARM GAS  C:\Users\VIDEOH~1\AppData\Local\Temp\ccpdN5tN.s 			page 85


 3351              	.LVL387:
 3352 007a FA20     		movs	r0, #250
 3353 007c 8000     		lsls	r0, r0, #2
 3354 007e FFF7FEFF 		bl	CyDelay
 3355              	.LVL388:
 3356              	.LBE81:
 3357              	.LBE80:
 3358              	.LBE79:
 498:ui.c          ****     set_current(0);//stop pulling current
 3359              		.loc 1 498 0
 3360 0082 FFF7FEFF 		bl	get_voltage
 3361              	.LVL389:
 3362 0086 0700     		movs	r7, r0
 3363              	.LVL390:
 499:ui.c          ****     //Test done
 3364              		.loc 1 499 0
 3365 0088 2000     		movs	r0, r4
 3366              	.LVL391:
 3367 008a FFF7FEFF 		bl	set_current
 3368              	.LVL392:
 510:ui.c          ****     char buf[16];
 3369              		.loc 1 510 0
 3370 008e 0123     		movs	r3, #1
 3371 0090 3200     		movs	r2, r6
 3372 0092 4C21     		movs	r1, #76
 3373 0094 0320     		movs	r0, #3
 3374 0096 FFF7FEFF 		bl	Display_DrawText
 3375              	.LVL393:
 512:ui.c          ****     Display_DrawText(1, 0, buf, 0);
 3376              		.loc 1 512 0
 3377 009a 0A20     		movs	r0, #10
 3378 009c ED1B     		subs	r5, r5, r7
 3379              	.LVL394:
 3380 009e 6843     		muls	r0, r5
 3381 00a0 0921     		movs	r1, #9
 3382 00a2 FFF7FEFF 		bl	__aeabi_uidiv
 3383              	.LVL395:
 3384 00a6 6A46     		mov	r2, sp
 3385 00a8 1149     		ldr	r1, .L242+24
 3386 00aa FFF7FEFF 		bl	format_number
 3387              	.LVL396:
 516:ui.c          **** 	while(event.type != UI_EVENT_BUTTONPRESS || event.int_arg != 1) {
 3388              		.loc 1 516 0
 3389 00ae 04AD     		add	r5, sp, #16
 513:ui.c          ****     //wait for user to acknowledge
 3390              		.loc 1 513 0
 3391 00b0 2300     		movs	r3, r4
 3392 00b2 6A46     		mov	r2, sp
 3393 00b4 2100     		movs	r1, r4
 3394 00b6 0120     		movs	r0, #1
 3395 00b8 FFF7FEFF 		bl	Display_DrawText
 3396              	.LVL397:
 516:ui.c          **** 	while(event.type != UI_EVENT_BUTTONPRESS || event.int_arg != 1) {
 3397              		.loc 1 516 0
 3398 00bc 2C70     		strb	r4, [r5]
 3399              	.L238:
 517:ui.c          **** 		next_event(&event);
ARM GAS  C:\Users\VIDEOH~1\AppData\Local\Temp\ccpdN5tN.s 			page 86


 3400              		.loc 1 517 0
 3401 00be 2B78     		ldrb	r3, [r5]
 3402 00c0 012B     		cmp	r3, #1
 3403 00c2 03D0     		beq	.L241
 3404              	.L239:
 518:ui.c          **** 	}
 3405              		.loc 1 518 0
 3406 00c4 2800     		movs	r0, r5
 3407 00c6 FFF7FEFF 		bl	next_event
 3408              	.LVL398:
 3409 00ca F8E7     		b	.L238
 3410              	.L241:
 517:ui.c          **** 		next_event(&event);
 3411              		.loc 1 517 0 discriminator 1
 3412 00cc 6B68     		ldr	r3, [r5, #4]
 3413 00ce 012B     		cmp	r3, #1
 3414 00d0 F8D1     		bne	.L239
 521:ui.c          **** 
 3415              		.loc 1 521 0
 3416 00d2 09B0     		add	sp, sp, #36
 3417              		@ sp needed
 3418              	.LVL399:
 3419 00d4 F0BD     		pop	{r4, r5, r6, r7, pc}
 3420              	.L243:
 3421 00d6 C046     		.align	2
 3422              	.L242:
 3423 00d8 08010000 		.word	.LC150
 3424 00dc 12010000 		.word	.LC152
 3425 00e0 A0860100 		.word	100000
 3426 00e4 1D010000 		.word	.LC154
 3427 00e8 22010000 		.word	.LC156
 3428 00ec 40420F00 		.word	1000000
 3429 00f0 2D010000 		.word	.LC158
 3430              		.cfi_endproc
 3431              	.LFE53:
 3432              		.size	measure_Battery_ISR, .-measure_Battery_ISR
 3433              		.section	.text.vApplicationTickHook,"ax",%progbits
 3434              		.align	1
 3435              		.global	vApplicationTickHook
 3436              		.code	16
 3437              		.thumb_func
 3438              		.type	vApplicationTickHook, %function
 3439              	vApplicationTickHook:
 3440              	.LFB33:
 159:ui.c          **** 	static ui_event event = {.type = UI_EVENT_BUTTONPRESS, .when = 0};
 3441              		.loc 1 159 0
 3442              		.cfi_startproc
 3443              		@ args = 0, pretend = 0, frame = 0
 3444              		@ frame_needed = 0, uses_anonymous_args = 0
 3445 0000 70B5     		push	{r4, r5, r6, lr}
 3446              		.cfi_def_cfa_offset 16
 3447              		.cfi_offset 4, -16
 3448              		.cfi_offset 5, -12
 3449              		.cfi_offset 6, -8
 3450              		.cfi_offset 14, -4
 163:ui.c          ****     if (button_now != event.int_arg)
 3451              		.loc 1 163 0
ARM GAS  C:\Users\VIDEOH~1\AppData\Local\Temp\ccpdN5tN.s 			page 87


 3452 0002 FFF7FEFF 		bl	QuadButton_Read
 3453              	.LVL400:
 164:ui.c          ****     {
 3454              		.loc 1 164 0
 3455 0006 104C     		ldr	r4, .L249
 163:ui.c          ****     if (button_now != event.int_arg)
 3456              		.loc 1 163 0
 3457 0008 0500     		movs	r5, r0
 3458              	.LVL401:
 164:ui.c          ****     {
 3459              		.loc 1 164 0
 3460 000a E369     		ldr	r3, [r4, #28]
 3461 000c 9842     		cmp	r0, r3
 3462 000e 1AD0     		beq	.L244
 166:ui.c          ****         event.when = xTaskGetTickCountFromISR();
 3463              		.loc 1 166 0
 3464 0010 0E4E     		ldr	r6, .L249+4
 3465 0012 636A     		ldr	r3, [r4, #36]
 3466 0014 7361     		str	r3, [r6, #20]
 167:ui.c          **** 
 3467              		.loc 1 167 0
 3468 0016 FFF7FEFF 		bl	xTaskGetTickCountFromISR
 3469              	.LVL402:
 169:ui.c          **** 
 3470              		.loc 1 169 0
 3471 001a E561     		str	r5, [r4, #28]
 167:ui.c          **** 
 3472              		.loc 1 167 0
 3473 001c 6062     		str	r0, [r4, #36]
 172:ui.c          ****             long_button_press_tick_count = portMAX_DELAY;
 3474              		.loc 1 172 0
 3475 001e 002D     		cmp	r5, #0
 3476 0020 0FD0     		beq	.L247
 173:ui.c          ****             if(event.when - before >= (30 * configTICK_RATE_HZ / 1000)) {
 3477              		.loc 1 173 0
 3478 0022 0123     		movs	r3, #1
 3479 0024 5B42     		rsbs	r3, r3, #0
 3480 0026 2360     		str	r3, [r4]
 174:ui.c          ****     		    xQueueSendToBackFromISR(ui_queue, &event, NULL);
 3481              		.loc 1 174 0
 3482 0028 7369     		ldr	r3, [r6, #20]
 3483 002a C01A     		subs	r0, r0, r3
 3484 002c 0228     		cmp	r0, #2
 3485 002e 0AD9     		bls	.L244
 175:ui.c          ****             }
 3486              		.loc 1 175 0
 3487 0030 2100     		movs	r1, r4
 3488 0032 0023     		movs	r3, #0
 3489 0034 0648     		ldr	r0, .L249+8
 3490 0036 1831     		adds	r1, r1, #24
 3491 0038 1A00     		movs	r2, r3
 3492 003a 0068     		ldr	r0, [r0]
 3493 003c FFF7FEFF 		bl	xQueueGenericSendFromISR
 3494              	.LVL403:
 3495 0040 01E0     		b	.L244
 3496              	.L247:
 178:ui.c          ****         }
ARM GAS  C:\Users\VIDEOH~1\AppData\Local\Temp\ccpdN5tN.s 			page 88


 3497              		.loc 1 178 0
 3498 0042 6430     		adds	r0, r0, #100
 3499 0044 2060     		str	r0, [r4]
 3500              	.L244:
 181:ui.c          **** 
 3501              		.loc 1 181 0
 3502              		@ sp needed
 3503              	.LVL404:
 3504 0046 70BD     		pop	{r4, r5, r6, pc}
 3505              	.L250:
 3506              		.align	2
 3507              	.L249:
 3508 0048 00000000 		.word	.LANCHOR0
 3509 004c 00000000 		.word	.LANCHOR1
 3510 0050 00000000 		.word	ui_queue
 3511              		.cfi_endproc
 3512              	.LFE33:
 3513              		.size	vApplicationTickHook, .-vApplicationTickHook
 3514              		.section	.text.vTaskUI,"ax",%progbits
 3515              		.align	1
 3516              		.global	vTaskUI
 3517              		.code	16
 3518              		.thumb_func
 3519              		.type	vTaskUI, %function
 3520              	vTaskUI:
 3521              	.LFB69:
 956:ui.c          **** 
 957:ui.c          **** void vTaskUI( void *pvParameters ) {
 3522              		.loc 1 957 0
 3523              		.cfi_startproc
 3524              		@ args = 0, pretend = 0, frame = 16
 3525              		@ frame_needed = 0, uses_anonymous_args = 0
 3526              	.LVL405:
 3527 0000 7FB5     		push	{r0, r1, r2, r3, r4, r5, r6, lr}
 3528              		.cfi_def_cfa_offset 32
 3529              		.cfi_offset 0, -32
 3530              		.cfi_offset 1, -28
 3531              		.cfi_offset 2, -24
 3532              		.cfi_offset 3, -20
 3533              		.cfi_offset 4, -16
 3534              		.cfi_offset 5, -12
 3535              		.cfi_offset 6, -8
 3536              		.cfi_offset 14, -4
 958:ui.c          **** 	ui_queue = xQueueCreate(2, sizeof(ui_event));
 3537              		.loc 1 958 0
 3538 0002 1021     		movs	r1, #16
 3539 0004 0022     		movs	r2, #0
 3540 0006 0220     		movs	r0, #2
 3541              	.LVL406:
 3542 0008 FFF7FEFF 		bl	xQueueGenericCreate
 3543              	.LVL407:
 3544 000c 0B4B     		ldr	r3, .L257
 3545 000e 1860     		str	r0, [r3]
 959:ui.c          **** 
 960:ui.c          **** 	QuadratureISR_StartEx(quadrature_event_isr);
 3546              		.loc 1 960 0
 3547 0010 0B48     		ldr	r0, .L257+4
ARM GAS  C:\Users\VIDEOH~1\AppData\Local\Temp\ccpdN5tN.s 			page 89


 3548 0012 FFF7FEFF 		bl	QuadratureISR_StartEx
 3549              	.LVL408:
 961:ui.c          **** 
 962:ui.c          **** 	state_func main_state = STATE_CC_LOAD;
 963:ui.c          **** 	state_func state = STATE_CC_LOAD;
 3550              		.loc 1 963 0
 3551 0016 0021     		movs	r1, #0
 3552 0018 0A4B     		ldr	r3, .L257+8
 3553              	.LVL409:
 3554              	.L256:
 962:ui.c          **** 	state_func state = STATE_CC_LOAD;
 3555              		.loc 1 962 0
 3556 001a 0D00     		movs	r5, r1
 3557 001c 1C00     		movs	r4, r3
 3558              	.L253:
 3559              	.LVL410:
 3560              	.LBB82:
 964:ui.c          **** 
 965:ui.c          **** 	while(1) {
 966:ui.c          **** 		state_func new_state = state.func(state.arg);
 3561              		.loc 1 966 0
 3562 001e 01AE     		add	r6, sp, #4
 3563 0020 3000     		movs	r0, r6
 3564 0022 9847     		blx	r3
 3565              	.LVL411:
 3566 0024 019B     		ldr	r3, [sp, #4]
 3567              	.LVL412:
 967:ui.c          **** 		if(new_state.func == NULL) {
 3568              		.loc 1 967 0
 3569 0026 002B     		cmp	r3, #0
 3570 0028 05D0     		beq	.L254
 3571              	.LVL413:
 968:ui.c          **** 			memcpy(&state, &main_state, sizeof(state_func));
 969:ui.c          **** 		} else {
 970:ui.c          **** 			memcpy(&state, &new_state, sizeof(state_func));
 971:ui.c          **** 		}
 972:ui.c          **** 
 973:ui.c          **** 		if(state.is_main_state) {
 3572              		.loc 1 973 0
 3573 002a 0822     		movs	r2, #8
 3574 002c B256     		ldrsb	r2, [r6, r2]
 970:ui.c          **** 		}
 3575              		.loc 1 970 0
 3576 002e 0299     		ldr	r1, [sp, #8]
 3577              	.LVL414:
 3578              		.loc 1 973 0
 3579 0030 002A     		cmp	r2, #0
 3580 0032 F4D0     		beq	.L253
 3581 0034 F1E7     		b	.L256
 3582              	.LVL415:
 3583              	.L254:
 968:ui.c          **** 			memcpy(&state, &main_state, sizeof(state_func));
 3584              		.loc 1 968 0
 3585 0036 2900     		movs	r1, r5
 3586 0038 2300     		movs	r3, r4
 3587              	.LVL416:
 3588 003a F0E7     		b	.L253
ARM GAS  C:\Users\VIDEOH~1\AppData\Local\Temp\ccpdN5tN.s 			page 90


 3589              	.L258:
 3590              		.align	2
 3591              	.L257:
 3592 003c 00000000 		.word	ui_queue
 3593 0040 00000000 		.word	quadrature_event_isr
 3594 0044 00000000 		.word	cc_load
 3595              	.LBE82:
 3596              		.cfi_endproc
 3597              	.LFE69:
 3598              		.size	vTaskUI, .-vTaskUI
 3599              		.global	readout_functions
 3600              		.global	quadrature_states
 3601              		.global	long_button_press_tick_count
 3602              		.global	main_menu
 3603              		.global	tools_menu
 3604              		.global	choose_readout_menu
 3605              		.global	set_readout_menu
 3606              		.comm	ui_queue,4,4
 3607              		.global	termistor_tbl
 3608              		.section	.rodata
 3609              		.align	2
 3610              		.set	.LANCHOR2,. + 0
 3611              		.set	.LANCHOR3,. + 128
 3612              		.set	.LANCHOR4,. + 256
 3613              		.type	choose_readout_menu, %object
 3614              		.size	choose_readout_menu, 84
 3615              	choose_readout_menu:
 3616 0000 47010000 		.word	.LC171
 3617 0004 85010000 		.word	.LC179
 3618 0008 00000000 		.word	0
 3619 000c 01000000 		.word	1
 3620 0010 00       		.byte	0
 3621 0011 000000   		.space	3
 3622 0014 8E010000 		.word	.LC180
 3623 0018 00000000 		.word	0
 3624 001c 02000000 		.word	2
 3625 0020 00       		.byte	0
 3626 0021 000000   		.space	3
 3627 0024 95010000 		.word	.LC181
 3628 0028 00000000 		.word	0
 3629 002c 03000000 		.word	3
 3630 0030 00       		.byte	0
 3631 0031 000000   		.space	3
 3632 0034 77010000 		.word	.LC177
 3633 0038 00000000 		.word	0
 3634 003c 00000000 		.word	0
 3635 0040 00       		.byte	0
 3636 0041 000000   		.space	3
 3637 0044 00000000 		.word	0
 3638 0048 00000000 		.word	0
 3639 004c 00000000 		.word	0
 3640 0050 00       		.byte	0
 3641 0051 000000   		.space	3
 3642              		.type	set_readout_menu, %object
 3643              		.size	set_readout_menu, 164
 3644              	set_readout_menu:
 3645 0054 9E010000 		.word	.LC182
ARM GAS  C:\Users\VIDEOH~1\AppData\Local\Temp\ccpdN5tN.s 			page 91


 3646 0058 A7010000 		.word	.LC183
 3647 005c 00000000 		.word	0
 3648 0060 01000000 		.word	1
 3649 0064 00       		.byte	0
 3650 0065 000000   		.space	3
 3651 0068 AE010000 		.word	.LC184
 3652 006c 00000000 		.word	0
 3653 0070 02000000 		.word	2
 3654 0074 00       		.byte	0
 3655 0075 000000   		.space	3
 3656 0078 B8010000 		.word	.LC185
 3657 007c 00000000 		.word	0
 3658 0080 03000000 		.word	3
 3659 0084 00       		.byte	0
 3660 0085 000000   		.space	3
 3661 0088 C0010000 		.word	.LC186
 3662 008c 00000000 		.word	0
 3663 0090 04000000 		.word	4
 3664 0094 00       		.byte	0
 3665 0095 000000   		.space	3
 3666 0098 C6010000 		.word	.LC187
 3667 009c 00000000 		.word	0
 3668 00a0 05000000 		.word	5
 3669 00a4 00       		.byte	0
 3670 00a5 000000   		.space	3
 3671 00a8 CD010000 		.word	.LC188
 3672 00ac 00000000 		.word	0
 3673 00b0 06000000 		.word	6
 3674 00b4 00       		.byte	0
 3675 00b5 000000   		.space	3
 3676 00b8 D6010000 		.word	.LC189
 3677 00bc 00000000 		.word	0
 3678 00c0 07000000 		.word	7
 3679 00c4 00       		.byte	0
 3680 00c5 000000   		.space	3
 3681 00c8 DF010000 		.word	.LC190
 3682 00cc 00000000 		.word	0
 3683 00d0 08000000 		.word	8
 3684 00d4 00       		.byte	0
 3685 00d5 000000   		.space	3
 3686 00d8 77010000 		.word	.LC177
 3687 00dc 00000000 		.word	0
 3688 00e0 00000000 		.word	0
 3689 00e4 00       		.byte	0
 3690 00e5 000000   		.space	3
 3691 00e8 00000000 		.word	0
 3692 00ec 00000000 		.word	0
 3693 00f0 00000000 		.word	0
 3694 00f4 00       		.byte	0
 3695 00f5 000000   		.space	3
 3696              		.type	quadrature_states, %object
 3697              		.size	quadrature_states, 4
 3698              	quadrature_states:
 3699 00f8 01       		.byte	1
 3700 00f9 03       		.byte	3
 3701 00fa 00       		.byte	0
 3702 00fb 02       		.byte	2
ARM GAS  C:\Users\VIDEOH~1\AppData\Local\Temp\ccpdN5tN.s 			page 92


 3703              	.LC120:
 3704 00fc 00000000 		.word	menu
 3705 0100 00000000 		.word	main_menu
 3706 0104 00       		.byte	0
 3707 0105 000000   		.space	3
 3708              		.type	readout_functions, %object
 3709              		.size	readout_functions, 72
 3710              	readout_functions:
 3711 0108 00000000 		.word	print_nothing
 3712 010c 35010000 		.word	.LC167
 3713 0110 00000000 		.word	print_setpoint
 3714 0114 36010000 		.word	.LC168
 3715 0118 00000000 		.word	print_current_usage
 3716 011c 3A010000 		.word	.LC169
 3717 0120 00000000 		.word	print_voltage
 3718 0124 35010000 		.word	.LC167
 3719 0128 00000000 		.word	print_power
 3720 012c 35010000 		.word	.LC167
 3721 0130 00000000 		.word	print_resistance
 3722 0134 35010000 		.word	.LC167
 3723 0138 00000000 		.word	print_amp_hours
 3724 013c 35010000 		.word	.LC167
 3725 0140 00000000 		.word	print_watt_hours
 3726 0144 35010000 		.word	.LC167
 3727 0148 00000000 		.word	print_nothing
 3728 014c 35010000 		.word	.LC167
 3729              		.type	termistor_tbl, %object
 3730              		.size	termistor_tbl, 332
 3731              	termistor_tbl:
 3732 0150 4700     		.short	71
 3733 0152 4B00     		.short	75
 3734 0154 4F00     		.short	79
 3735 0156 5300     		.short	83
 3736 0158 5800     		.short	88
 3737 015a 5C00     		.short	92
 3738 015c 6200     		.short	98
 3739 015e 6700     		.short	103
 3740 0160 6D00     		.short	109
 3741 0162 7400     		.short	116
 3742 0164 7A00     		.short	122
 3743 0166 8200     		.short	130
 3744 0168 8900     		.short	137
 3745 016a 9100     		.short	145
 3746 016c 9900     		.short	153
 3747 016e A200     		.short	162
 3748 0170 AB00     		.short	171
 3749 0172 B400     		.short	180
 3750 0174 BE00     		.short	190
 3751 0176 C800     		.short	200
 3752 0178 D200     		.short	210
 3753 017a DD00     		.short	221
 3754 017c E800     		.short	232
 3755 017e F300     		.short	243
 3756 0180 FE00     		.short	254
 3757 0182 0A01     		.short	266
 3758 0184 1601     		.short	278
 3759 0186 2301     		.short	291
ARM GAS  C:\Users\VIDEOH~1\AppData\Local\Temp\ccpdN5tN.s 			page 93


 3760 0188 3001     		.short	304
 3761 018a 3E01     		.short	318
 3762 018c 4B01     		.short	331
 3763 018e 5901     		.short	345
 3764 0190 6801     		.short	360
 3765 0192 7701     		.short	375
 3766 0194 8601     		.short	390
 3767 0196 9601     		.short	406
 3768 0198 A601     		.short	422
 3769 019a B701     		.short	439
 3770 019c C701     		.short	455
 3771 019e D901     		.short	473
 3772 01a0 EA01     		.short	490
 3773 01a2 FD01     		.short	509
 3774 01a4 1002     		.short	528
 3775 01a6 2302     		.short	547
 3776 01a8 3602     		.short	566
 3777 01aa 4A02     		.short	586
 3778 01ac 5E02     		.short	606
 3779 01ae 7302     		.short	627
 3780 01b0 8802     		.short	648
 3781 01b2 9D02     		.short	669
 3782 01b4 B202     		.short	690
 3783 01b6 C802     		.short	712
 3784 01b8 DD02     		.short	733
 3785 01ba F302     		.short	755
 3786 01bc 0903     		.short	777
 3787 01be 1F03     		.short	799
 3788 01c0 3603     		.short	822
 3789 01c2 4C03     		.short	844
 3790 01c4 6303     		.short	867
 3791 01c6 7903     		.short	889
 3792 01c8 8F03     		.short	911
 3793 01ca A603     		.short	934
 3794 01cc BD03     		.short	957
 3795 01ce D303     		.short	979
 3796 01d0 E903     		.short	1001
 3797 01d2 0004     		.short	1024
 3798 01d4 1604     		.short	1046
 3799 01d6 2C04     		.short	1068
 3800 01d8 4204     		.short	1090
 3801 01da 5804     		.short	1112
 3802 01dc 6E04     		.short	1134
 3803 01de 8304     		.short	1155
 3804 01e0 9804     		.short	1176
 3805 01e2 AD04     		.short	1197
 3806 01e4 C204     		.short	1218
 3807 01e6 D604     		.short	1238
 3808 01e8 EB04     		.short	1259
 3809 01ea FE04     		.short	1278
 3810 01ec 1205     		.short	1298
 3811 01ee 2505     		.short	1317
 3812 01f0 3805     		.short	1336
 3813 01f2 4B05     		.short	1355
 3814 01f4 5D05     		.short	1373
 3815 01f6 6F05     		.short	1391
 3816 01f8 8105     		.short	1409
ARM GAS  C:\Users\VIDEOH~1\AppData\Local\Temp\ccpdN5tN.s 			page 94


 3817 01fa 9205     		.short	1426
 3818 01fc A305     		.short	1443
 3819 01fe B305     		.short	1459
 3820 0200 C405     		.short	1476
 3821 0202 D305     		.short	1491
 3822 0204 E305     		.short	1507
 3823 0206 F205     		.short	1522
 3824 0208 0106     		.short	1537
 3825 020a 0F06     		.short	1551
 3826 020c 1D06     		.short	1565
 3827 020e 2B06     		.short	1579
 3828 0210 3806     		.short	1592
 3829 0212 4506     		.short	1605
 3830 0214 5206     		.short	1618
 3831 0216 5E06     		.short	1630
 3832 0218 6A06     		.short	1642
 3833 021a 7606     		.short	1654
 3834 021c 8106     		.short	1665
 3835 021e 8C06     		.short	1676
 3836 0220 9706     		.short	1687
 3837 0222 A106     		.short	1697
 3838 0224 AC06     		.short	1708
 3839 0226 B506     		.short	1717
 3840 0228 BF06     		.short	1727
 3841 022a C806     		.short	1736
 3842 022c D106     		.short	1745
 3843 022e DA06     		.short	1754
 3844 0230 E206     		.short	1762
 3845 0232 EB06     		.short	1771
 3846 0234 F306     		.short	1779
 3847 0236 FA06     		.short	1786
 3848 0238 0207     		.short	1794
 3849 023a 0907     		.short	1801
 3850 023c 1007     		.short	1808
 3851 023e 1707     		.short	1815
 3852 0240 1E07     		.short	1822
 3853 0242 2407     		.short	1828
 3854 0244 2A07     		.short	1834
 3855 0246 3007     		.short	1840
 3856 0248 3607     		.short	1846
 3857 024a 3C07     		.short	1852
 3858 024c 4107     		.short	1857
 3859 024e 4707     		.short	1863
 3860 0250 4C07     		.short	1868
 3861 0252 5107     		.short	1873
 3862 0254 5507     		.short	1877
 3863 0256 5A07     		.short	1882
 3864 0258 5F07     		.short	1887
 3865 025a 6307     		.short	1891
 3866 025c 6707     		.short	1895
 3867 025e 6C07     		.short	1900
 3868 0260 7007     		.short	1904
 3869 0262 7307     		.short	1907
 3870 0264 7707     		.short	1911
 3871 0266 7B07     		.short	1915
 3872 0268 7F07     		.short	1919
 3873 026a 8207     		.short	1922
ARM GAS  C:\Users\VIDEOH~1\AppData\Local\Temp\ccpdN5tN.s 			page 95


 3874 026c 8507     		.short	1925
 3875 026e 8807     		.short	1928
 3876 0270 8C07     		.short	1932
 3877 0272 8F07     		.short	1935
 3878 0274 9207     		.short	1938
 3879 0276 9507     		.short	1941
 3880 0278 9707     		.short	1943
 3881 027a 9A07     		.short	1946
 3882 027c 9D07     		.short	1949
 3883 027e A007     		.short	1952
 3884 0280 A207     		.short	1954
 3885 0282 A507     		.short	1957
 3886 0284 A707     		.short	1959
 3887 0286 A907     		.short	1961
 3888 0288 AC07     		.short	1964
 3889 028a AE07     		.short	1966
 3890 028c B007     		.short	1968
 3891 028e B207     		.short	1970
 3892 0290 B407     		.short	1972
 3893 0292 B607     		.short	1974
 3894 0294 B807     		.short	1976
 3895 0296 BA07     		.short	1978
 3896 0298 BC07     		.short	1980
 3897 029a BE07     		.short	1982
 3898              		.type	main_menu, %object
 3899              		.size	main_menu, 180
 3900              	main_menu:
 3901 029c 00000000 		.word	0
 3902 02a0 3E010000 		.word	.LC170
 3903 02a4 00000000 		.word	cc_load
 3904 02a8 00000000 		.word	0
 3905 02ac 01       		.byte	1
 3906 02ad 000000   		.space	3
 3907 02b0 47010000 		.word	.LC171
 3908 02b4 00000000 		.word	display_config
 3909 02b8 00000000 		.word	0
 3910 02bc 00       		.byte	0
 3911 02bd 000000   		.space	3
 3912 02c0 50010000 		.word	.LC172
 3913 02c4 00000000 		.word	ui_set_min_voltage
 3914 02c8 00000000 		.word	0
 3915 02cc 00       		.byte	0
 3916 02cd 000000   		.space	3
 3917 02d0 58010000 		.word	.LC173
 3918 02d4 00000000 		.word	call_void_func
 3919 02d8 00000000 		.word	reset_running_totals
 3920 02dc 00       		.byte	0
 3921 02dd 000000   		.space	3
 3922 02e0 5E010000 		.word	.LC174
 3923 02e4 00000000 		.word	menu
 3924 02e8 00000000 		.word	tools_menu
 3925 02ec 00       		.byte	0
 3926 02ed 000000   		.space	3
 3927 02f0 B5000000 		.word	.LC67
 3928 02f4 00000000 		.word	set_contrast
 3929 02f8 00000000 		.word	0
 3930 02fc 00       		.byte	0
ARM GAS  C:\Users\VIDEOH~1\AppData\Local\Temp\ccpdN5tN.s 			page 96


 3931 02fd 000000   		.space	3
 3932 0300 F8000000 		.word	.LC136
 3933 0304 00000000 		.word	set_cooler
 3934 0308 00000000 		.word	0
 3935 030c 00       		.byte	0
 3936 030d 000000   		.space	3
 3937 0310 64010000 		.word	.LC175
 3938 0314 00000000 		.word	ui_calibrate
 3939 0318 00000000 		.word	0
 3940 031c 00       		.byte	0
 3941 031d 000000   		.space	3
 3942 0320 6E010000 		.word	.LC176
 3943 0324 00000000 		.word	upgrade
 3944 0328 00000000 		.word	0
 3945 032c 00       		.byte	0
 3946 032d 000000   		.space	3
 3947 0330 77010000 		.word	.LC177
 3948 0334 00000000 		.word	0
 3949 0338 00000000 		.word	0
 3950 033c 00       		.byte	0
 3951 033d 000000   		.space	3
 3952 0340 00000000 		.word	0
 3953 0344 00000000 		.word	0
 3954 0348 00000000 		.word	0
 3955 034c 00       		.byte	0
 3956 034d 000000   		.space	3
 3957              		.type	tools_menu, %object
 3958              		.size	tools_menu, 52
 3959              	tools_menu:
 3960 0350 00000000 		.word	0
 3961 0354 7C010000 		.word	.LC178
 3962 0358 00000000 		.word	call_void_func
 3963 035c 00000000 		.word	measure_Battery_ISR
 3964 0360 00       		.byte	0
 3965 0361 000000   		.space	3
 3966 0364 77010000 		.word	.LC177
 3967 0368 00000000 		.word	0
 3968 036c 00000000 		.word	0
 3969 0370 00       		.byte	0
 3970 0371 000000   		.space	3
 3971 0374 00000000 		.word	0
 3972 0378 00000000 		.word	0
 3973 037c 00000000 		.word	0
 3974 0380 00       		.byte	0
 3975 0381 000000   		.space	3
 3976              		.section	.rodata.str1.1,"aMS",%progbits,1
 3977              	.LC2:
 3978 0000 2533642E 		.ascii	"%3d.%03d%s\000"
 3978      25303364 
 3978      257300
 3979              	.LC4:
 3980 000b 2531642E 		.ascii	"%1d.%02d\000"
 3980      25303264 
 3980      00
 3981              	.LC6:
 3982 0014 25303264 		.ascii	"%02d.%1d\000"
 3982      2E253164 
ARM GAS  C:\Users\VIDEOH~1\AppData\Local\Temp\ccpdN5tN.s 			page 97


 3982      00
 3983              	.LC8:
 3984 001d 25303364 		.ascii	"%03d\000"
 3984      00
 3985              	.LC10:
 3986 0022 6D00     		.ascii	"m\000"
 3987              	.LC12:
 3988 0024 5600     		.ascii	"V\000"
 3989              	.LC14:
 3990 0026 21555047 		.ascii	"!UPGRADE!\000"
 3990      52414445 
 3990      2100
 3991              	.LC16:
 3992 0030 52454144 		.ascii	"READY TO\000"
 3992      5920544F 
 3992      00
 3993              	.LC18:
 3994 0039 4649524D 		.ascii	"FIRMWARE\000"
 3994      57415245 
 3994      00
 3995              	.LC20:
 3996 0042 444F574E 		.ascii	"DOWNLOAD\000"
 3996      4C4F4144 
 3996      00
 3997              	.LC26:
 3998 004b 4D696E56 		.ascii	"MinVoltage\000"
 3998      6F6C7461 
 3998      676500
 3999              	.LC29:
 4000 0056 4F4E00   		.ascii	"ON\000"
 4001              	.LC31:
 4002 0059 4F464600 		.ascii	"OFF\000"
 4003              	.LC38:
 4004 005d 43414C49 		.ascii	"CALIBRATE\000"
 4004      42524154 
 4004      4500
 4005              	.LC41:
 4006 0067 52656D6F 		.ascii	"Remove\000"
 4006      766500
 4007              	.LC43:
 4008 006e 4C656164 		.ascii	"Leads\000"
 4008      7300
 4009              	.LC45:
 4010 0074 853A204E 		.ascii	"\205: Next\000"
 4010      65787400 
 4011              	.LC47:
 4012 007c 41646A20 		.ascii	"Adj Volt\000"
 4012      566F6C74 
 4012      00
 4013              	.LC50:
 4014 0085 2000     		.ascii	" \000"
 4015              	.LC52:
 4016 0087 41646A20 		.ascii	"Adj Cur\000"
 4016      43757200 
 4017              	.LC54:
 4018 008f 4100     		.ascii	"A\000"
 4019              	.LC56:
ARM GAS  C:\Users\VIDEOH~1\AppData\Local\Temp\ccpdN5tN.s 			page 98


 4020 0091 57616974 		.ascii	"Wait\000"
 4020      00
 4021              	.LC61:
 4022 0096 214F5645 		.ascii	"!OVERTEMP!\000"
 4022      5254454D 
 4022      502100
 4023              	.LC63:
 4024 00a1 21554E44 		.ascii	"!UNDERVOLT!\000"
 4024      4552564F 
 4024      4C542100 
 4025              	.LC65:
 4026 00ad 853A5265 		.ascii	"\205:Reset\000"
 4026      73657400 
 4027              	.LC67:
 4028 00b5 436F6E74 		.ascii	"Contrast\000"
 4028      72617374 
 4028      00
 4029              	.LC69:
 4030 00be 853A2044 		.ascii	"\205: Done\000"
 4030      6F6E6500 
 4031              	.LC71:
 4032 00c6 8600     		.ascii	"\206\000"
 4033              	.LC73:
 4034 00c8 8700     		.ascii	"\207\000"
 4035              	.LC81:
 4036 00ca 8200     		.ascii	"\202\000"
 4037              	.LC84:
 4038 00cc 8300     		.ascii	"\203\000"
 4039              	.LC91:
 4040 00ce 20202020 		.ascii	"      \000"
 4040      202000
 4041              	.LC95:
 4042 00d5 5700     		.ascii	"W\000"
 4043              	.LC97:
 4044 00d7 7F00     		.ascii	"\177\000"
 4045              	.LC99:
 4046 00d9 2D2D2D2D 		.ascii	"----\177\000"
 4046      7F00
 4047              	.LC101:
 4048 00df 416800   		.ascii	"Ah\000"
 4049              	.LC103:
 4050 00e2 576800   		.ascii	"Wh\000"
 4051              	.LC116:
 4052 00e5 25336400 		.ascii	"%3d\000"
 4053              	.LC118:
 4054 00e9 8A00     		.ascii	"\212\000"
 4055              	.LC124:
 4056 00eb 73657420 		.ascii	"set %d\015\012\000"
 4056      25640D0A 
 4056      00
 4057              	.LC131:
 4058 00f4 8800     		.ascii	"\210\000"
 4059              	.LC133:
 4060 00f6 8900     		.ascii	"\211\000"
 4061              	.LC136:
 4062 00f8 436F6F6C 		.ascii	"Cooler\000"
 4062      657200
ARM GAS  C:\Users\VIDEOH~1\AppData\Local\Temp\ccpdN5tN.s 			page 99


 4063              	.LC140:
 4064 00ff 53455420 		.ascii	"SET TEMP\000"
 4064      54454D50 
 4064      00
 4065              	.LC150:
 4066 0108 42415454 		.ascii	"BATT TEST\000"
 4066      20544553 
 4066      5400
 4067              	.LC152:
 4068 0112 4C204C6F 		.ascii	"L Load RUN\000"
 4068      61642052 
 4068      554E00
 4069              	.LC154:
 4070 011d 50415353 		.ascii	"PASS\000"
 4070      00
 4071              	.LC156:
 4072 0122 46204C6F 		.ascii	"F Load RUN\000"
 4072      61642052 
 4072      554E00
 4073              	.LC158:
 4074 012d 7F208542 		.ascii	"\177 \205Back\000"
 4074      61636B00 
 4075              	.LC167:
 4076 0135 00       		.ascii	"\000"
 4077              	.LC168:
 4078 0136 53455400 		.ascii	"SET\000"
 4079              	.LC169:
 4080 013a 41435400 		.ascii	"ACT\000"
 4081              	.LC170:
 4082 013e 432F4320 		.ascii	"C/C Load\000"
 4082      4C6F6164 
 4082      00
 4083              	.LC171:
 4084 0147 52656164 		.ascii	"Readouts\000"
 4084      6F757473 
 4084      00
 4085              	.LC172:
 4086 0150 4D696E56 		.ascii	"MinVolt\000"
 4086      6F6C7400 
 4087              	.LC173:
 4088 0158 52657365 		.ascii	"Reset\000"
 4088      7400
 4089              	.LC174:
 4090 015e 546F6F6C 		.ascii	"Tools\000"
 4090      7300
 4091              	.LC175:
 4092 0164 43616C69 		.ascii	"Calibrate\000"
 4092      62726174 
 4092      6500
 4093              	.LC176:
 4094 016e 55706772 		.ascii	"UpgrMode\000"
 4094      4D6F6465 
 4094      00
 4095              	.LC177:
 4096 0177 45584954 		.ascii	"EXIT\000"
 4096      00
 4097              	.LC178:
ARM GAS  C:\Users\VIDEOH~1\AppData\Local\Temp\ccpdN5tN.s 			page 100


 4098 017c 42617474 		.ascii	"Batt ISR\000"
 4098      20495352 
 4098      00
 4099              	.LC179:
 4100 0185 4D61696E 		.ascii	"MainDisp\000"
 4100      44697370 
 4100      00
 4101              	.LC180:
 4102 018e 55704469 		.ascii	"UpDisp\000"
 4102      737000
 4103              	.LC181:
 4104 0195 446F776E 		.ascii	"DownDisp\000"
 4104      44697370 
 4104      00
 4105              	.LC182:
 4106 019e 53455454 		.ascii	"SETTINGS\000"
 4106      494E4753 
 4106      00
 4107              	.LC183:
 4108 01a7 53657443 		.ascii	"SetCur\000"
 4108      757200
 4109              	.LC184:
 4110 01ae 41637475 		.ascii	"ActualCur\000"
 4110      616C4375 
 4110      7200
 4111              	.LC185:
 4112 01b8 566F6C74 		.ascii	"Voltage\000"
 4112      61676500 
 4113              	.LC186:
 4114 01c0 506F7765 		.ascii	"Power\000"
 4114      7200
 4115              	.LC187:
 4116 01c6 52657369 		.ascii	"Resist\000"
 4116      737400
 4117              	.LC188:
 4118 01cd 546F7461 		.ascii	"TotalCur\000"
 4118      6C437572 
 4118      00
 4119              	.LC189:
 4120 01d6 546F7461 		.ascii	"TotalPwr\000"
 4120      6C507772 
 4120      00
 4121              	.LC190:
 4122 01df 4E6F6E65 		.ascii	"None\000"
 4122      00
 4123              		.data
 4124              		.align	2
 4125              		.set	.LANCHOR0,. + 0
 4126              		.type	long_button_press_tick_count, %object
 4127              		.size	long_button_press_tick_count, 4
 4128              	long_button_press_tick_count:
 4129 0000 FFFFFFFF 		.word	-1
 4130              		.type	last_levels.7865, %object
 4131              		.size	last_levels.7865, 1
 4132              	last_levels.7865:
 4133 0004 03       		.byte	3
 4134 0005 000000   		.space	3
ARM GAS  C:\Users\VIDEOH~1\AppData\Local\Temp\ccpdN5tN.s 			page 101


 4135              		.type	event.7864, %object
 4136              		.size	event.7864, 16
 4137              	event.7864:
 4138 0008 03       		.byte	3
 4139 0009 000000   		.space	3
 4140 000c 00000000 		.word	0
 4141 0010 00000000 		.space	4
 4142 0014 00000000 		.word	0
 4143              		.type	event.7857, %object
 4144              		.size	event.7857, 16
 4145              	event.7857:
 4146 0018 01       		.byte	1
 4147 0019 00000000 		.space	11
 4147      00000000 
 4147      000000
 4148 0024 00000000 		.word	0
 4149              		.bss
 4150              		.align	2
 4151              		.set	.LANCHOR1,. + 0
 4152              		.type	long_press_sent.7896, %object
 4153              		.size	long_press_sent.7896, 1
 4154              	long_press_sent.7896:
 4155 0000 00       		.space	1
 4156 0001 000000   		.space	3
 4157              		.type	last_tick.7895, %object
 4158              		.size	last_tick.7895, 4
 4159              	last_tick.7895:
 4160 0004 00000000 		.space	4
 4161              		.type	count.7866, %object
 4162              		.size	count.7866, 1
 4163              	count.7866:
 4164 0008 00       		.space	1
 4165 0009 000000   		.space	3
 4166              		.type	before.7867, %object
 4167              		.size	before.7867, 4
 4168              	before.7867:
 4169 000c 00000000 		.space	4
 4170              		.type	last_adjust_current_setpoint.8078, %object
 4171              		.size	last_adjust_current_setpoint.8078, 4
 4172              	last_adjust_current_setpoint.8078:
 4173 0010 00000000 		.space	4
 4174              		.type	before.7858, %object
 4175              		.size	before.7858, 4
 4176              	before.7858:
 4177 0014 00000000 		.space	4
 4178              		.text
 4179              	.Letext0:
 4180              		.file 2 "c:\\program files (x86)\\cypress\\psoc creator\\4.2\\psoc creator\\import\\gnu\\arm\\5.4.
 4181              		.file 3 "c:\\program files (x86)\\cypress\\psoc creator\\4.2\\psoc creator\\import\\gnu\\arm\\5.4.
 4182              		.file 4 "Generated_Source\\PSoC4/cytypes.h"
 4183              		.file 5 "Generated_Source\\PSoC4/cy_em_eeprom.h"
 4184              		.file 6 "config.h"
 4185              		.file 7 ".\\freertos\\include/portmacro.h"
 4186              		.file 8 ".\\freertos\\include/queue.h"
 4187              		.file 9 "tasks.h"
 4188              		.file 10 "Generated_Source\\PSoC4/EEPROM.h"
 4189              		.file 11 "c:\\program files (x86)\\cypress\\psoc creator\\4.2\\psoc creator\\import\\gnu\\arm\\5.4
ARM GAS  C:\Users\VIDEOH~1\AppData\Local\Temp\ccpdN5tN.s 			page 102


 4190              		.file 12 "c:\\program files (x86)\\cypress\\psoc creator\\4.2\\psoc creator\\import\\gnu\\arm\\5.4
 4191              		.file 13 "Generated_Source\\PSoC4/Display.h"
 4192              		.file 14 "Generated_Source\\PSoC4/Bootloadable.h"
 4193              		.file 15 ".\\freertos\\include/task.h"
 4194              		.file 16 "Generated_Source\\PSoC4/CyLFClk.h"
 4195              		.file 17 "Generated_Source\\PSoC4/IDAC_Low.h"
 4196              		.file 18 "Generated_Source\\PSoC4/IDAC_High.h"
 4197              		.file 19 "calibrate.h"
 4198              		.file 20 "Generated_Source\\PSoC4/Quadrature.h"
 4199              		.file 21 "comms.h"
 4200              		.file 22 "Generated_Source\\PSoC4/CoolerStatusReg.h"
 4201              		.file 23 "Generated_Source\\PSoC4/CyLib.h"
 4202              		.file 24 "Generated_Source\\PSoC4/QuadButton.h"
 4203              		.file 25 "Generated_Source\\PSoC4/QuadratureISR.h"
 4204              		.section	.debug_info,"",%progbits
 4205              	.Ldebug_info0:
 4206 0000 082A0000 		.4byte	0x2a08
 4207 0004 0400     		.2byte	0x4
 4208 0006 00000000 		.4byte	.Ldebug_abbrev0
 4209 000a 04       		.byte	0x4
 4210 000b 01       		.uleb128 0x1
 4211 000c 110A0000 		.4byte	.LASF230
 4212 0010 0C       		.byte	0xc
 4213 0011 B60A0000 		.4byte	.LASF231
 4214 0015 01010000 		.4byte	.LASF232
 4215 0019 A8000000 		.4byte	.Ldebug_ranges0+0xa8
 4216 001d 00000000 		.4byte	0
 4217 0021 00000000 		.4byte	.Ldebug_line0
 4218 0025 02       		.uleb128 0x2
 4219 0026 04       		.byte	0x4
 4220 0027 07       		.byte	0x7
 4221 0028 45010000 		.4byte	.LASF0
 4222 002c 02       		.uleb128 0x2
 4223 002d 01       		.byte	0x1
 4224 002e 06       		.byte	0x6
 4225 002f 8E0C0000 		.4byte	.LASF1
 4226 0033 03       		.uleb128 0x3
 4227 0034 E40A0000 		.4byte	.LASF6
 4228 0038 02       		.byte	0x2
 4229 0039 1D       		.byte	0x1d
 4230 003a 3E000000 		.4byte	0x3e
 4231 003e 02       		.uleb128 0x2
 4232 003f 01       		.byte	0x1
 4233 0040 08       		.byte	0x8
 4234 0041 C10B0000 		.4byte	.LASF2
 4235 0045 02       		.uleb128 0x2
 4236 0046 02       		.byte	0x2
 4237 0047 05       		.byte	0x5
 4238 0048 51090000 		.4byte	.LASF3
 4239 004c 02       		.uleb128 0x2
 4240 004d 02       		.byte	0x2
 4241 004e 07       		.byte	0x7
 4242 004f A00C0000 		.4byte	.LASF4
 4243 0053 02       		.uleb128 0x2
 4244 0054 04       		.byte	0x4
 4245 0055 05       		.byte	0x5
 4246 0056 6F090000 		.4byte	.LASF5
ARM GAS  C:\Users\VIDEOH~1\AppData\Local\Temp\ccpdN5tN.s 			page 103


 4247 005a 03       		.uleb128 0x3
 4248 005b E40B0000 		.4byte	.LASF7
 4249 005f 02       		.byte	0x2
 4250 0060 41       		.byte	0x41
 4251 0061 65000000 		.4byte	0x65
 4252 0065 02       		.uleb128 0x2
 4253 0066 04       		.byte	0x4
 4254 0067 07       		.byte	0x7
 4255 0068 360B0000 		.4byte	.LASF8
 4256 006c 02       		.uleb128 0x2
 4257 006d 08       		.byte	0x8
 4258 006e 05       		.byte	0x5
 4259 006f F2060000 		.4byte	.LASF9
 4260 0073 02       		.uleb128 0x2
 4261 0074 08       		.byte	0x8
 4262 0075 07       		.byte	0x7
 4263 0076 75030000 		.4byte	.LASF10
 4264 007a 04       		.uleb128 0x4
 4265 007b 04       		.byte	0x4
 4266 007c 05       		.byte	0x5
 4267 007d 696E7400 		.ascii	"int\000"
 4268 0081 03       		.uleb128 0x3
 4269 0082 4E060000 		.4byte	.LASF11
 4270 0086 03       		.byte	0x3
 4271 0087 18       		.byte	0x18
 4272 0088 33000000 		.4byte	0x33
 4273 008c 03       		.uleb128 0x3
 4274 008d C6020000 		.4byte	.LASF12
 4275 0091 03       		.byte	0x3
 4276 0092 30       		.byte	0x30
 4277 0093 5A000000 		.4byte	0x5a
 4278 0097 05       		.uleb128 0x5
 4279 0098 180D0000 		.4byte	.LASF13
 4280 009c 04       		.byte	0x4
 4281 009d E401     		.2byte	0x1e4
 4282 009f 3E000000 		.4byte	0x3e
 4283 00a3 05       		.uleb128 0x5
 4284 00a4 09060000 		.4byte	.LASF14
 4285 00a8 04       		.byte	0x4
 4286 00a9 E501     		.2byte	0x1e5
 4287 00ab 4C000000 		.4byte	0x4c
 4288 00af 05       		.uleb128 0x5
 4289 00b0 E4070000 		.4byte	.LASF15
 4290 00b4 04       		.byte	0x4
 4291 00b5 E601     		.2byte	0x1e6
 4292 00b7 65000000 		.4byte	0x65
 4293 00bb 05       		.uleb128 0x5
 4294 00bc 10060000 		.4byte	.LASF16
 4295 00c0 04       		.byte	0x4
 4296 00c1 E701     		.2byte	0x1e7
 4297 00c3 2C000000 		.4byte	0x2c
 4298 00c7 05       		.uleb128 0x5
 4299 00c8 8E010000 		.4byte	.LASF17
 4300 00cc 04       		.byte	0x4
 4301 00cd E801     		.2byte	0x1e8
 4302 00cf 45000000 		.4byte	0x45
 4303 00d3 02       		.uleb128 0x2
ARM GAS  C:\Users\VIDEOH~1\AppData\Local\Temp\ccpdN5tN.s 			page 104


 4304 00d4 04       		.byte	0x4
 4305 00d5 04       		.byte	0x4
 4306 00d6 F9020000 		.4byte	.LASF18
 4307 00da 02       		.uleb128 0x2
 4308 00db 08       		.byte	0x8
 4309 00dc 04       		.byte	0x4
 4310 00dd 1E0D0000 		.4byte	.LASF19
 4311 00e1 02       		.uleb128 0x2
 4312 00e2 01       		.byte	0x1
 4313 00e3 08       		.byte	0x8
 4314 00e4 E9050000 		.4byte	.LASF20
 4315 00e8 02       		.uleb128 0x2
 4316 00e9 04       		.byte	0x4
 4317 00ea 07       		.byte	0x7
 4318 00eb 2D0B0000 		.4byte	.LASF21
 4319 00ef 06       		.uleb128 0x6
 4320 00f0 04       		.byte	0x4
 4321 00f1 07       		.uleb128 0x7
 4322 00f2 04       		.byte	0x4
 4323 00f3 E1000000 		.4byte	0xe1
 4324 00f7 07       		.uleb128 0x7
 4325 00f8 04       		.byte	0x4
 4326 00f9 FD000000 		.4byte	0xfd
 4327 00fd 08       		.uleb128 0x8
 4328 00fe E1000000 		.4byte	0xe1
 4329 0102 09       		.uleb128 0x9
 4330 0103 E1000000 		.4byte	0xe1
 4331 0107 12010000 		.4byte	0x112
 4332 010b 0A       		.uleb128 0xa
 4333 010c E8000000 		.4byte	0xe8
 4334 0110 07       		.byte	0x7
 4335 0111 00       		.byte	0
 4336 0112 0B       		.uleb128 0xb
 4337 0113 1C       		.byte	0x1c
 4338 0114 05       		.byte	0x5
 4339 0115 1601     		.2byte	0x116
 4340 0117 84010000 		.4byte	0x184
 4341 011b 0C       		.uleb128 0xc
 4342 011c A8060000 		.4byte	.LASF22
 4343 0120 05       		.byte	0x5
 4344 0121 1B01     		.2byte	0x11b
 4345 0123 AF000000 		.4byte	0xaf
 4346 0127 00       		.byte	0
 4347 0128 0C       		.uleb128 0xc
 4348 0129 D6020000 		.4byte	.LASF23
 4349 012d 05       		.byte	0x5
 4350 012e 2001     		.2byte	0x120
 4351 0130 AF000000 		.4byte	0xaf
 4352 0134 04       		.byte	0x4
 4353 0135 0C       		.uleb128 0xc
 4354 0136 250D0000 		.4byte	.LASF24
 4355 013a 05       		.byte	0x5
 4356 013b 2301     		.2byte	0x123
 4357 013d AF000000 		.4byte	0xaf
 4358 0141 08       		.byte	0x8
 4359 0142 0C       		.uleb128 0xc
 4360 0143 39030000 		.4byte	.LASF25
ARM GAS  C:\Users\VIDEOH~1\AppData\Local\Temp\ccpdN5tN.s 			page 105


 4361 0147 05       		.byte	0x5
 4362 0148 2601     		.2byte	0x126
 4363 014a AF000000 		.4byte	0xaf
 4364 014e 0C       		.byte	0xc
 4365 014f 0C       		.uleb128 0xc
 4366 0150 6F0B0000 		.4byte	.LASF26
 4367 0154 05       		.byte	0x5
 4368 0155 2B01     		.2byte	0x12b
 4369 0157 AF000000 		.4byte	0xaf
 4370 015b 10       		.byte	0x10
 4371 015c 0C       		.uleb128 0xc
 4372 015d 000C0000 		.4byte	.LASF27
 4373 0161 05       		.byte	0x5
 4374 0162 2E01     		.2byte	0x12e
 4375 0164 97000000 		.4byte	0x97
 4376 0168 14       		.byte	0x14
 4377 0169 0C       		.uleb128 0xc
 4378 016a 5A040000 		.4byte	.LASF28
 4379 016e 05       		.byte	0x5
 4380 016f 3301     		.2byte	0x133
 4381 0171 97000000 		.4byte	0x97
 4382 0175 15       		.byte	0x15
 4383 0176 0C       		.uleb128 0xc
 4384 0177 EB040000 		.4byte	.LASF29
 4385 017b 05       		.byte	0x5
 4386 017c 3601     		.2byte	0x136
 4387 017e AF000000 		.4byte	0xaf
 4388 0182 18       		.byte	0x18
 4389 0183 00       		.byte	0
 4390 0184 05       		.uleb128 0x5
 4391 0185 54000000 		.4byte	.LASF30
 4392 0189 05       		.byte	0x5
 4393 018a 3701     		.2byte	0x137
 4394 018c 12010000 		.4byte	0x112
 4395 0190 0D       		.uleb128 0xd
 4396 0191 0C       		.byte	0xc
 4397 0192 06       		.byte	0x6
 4398 0193 48       		.byte	0x48
 4399 0194 BD010000 		.4byte	0x1bd
 4400 0198 0E       		.uleb128 0xe
 4401 0199 B1050000 		.4byte	.LASF31
 4402 019d 06       		.byte	0x6
 4403 019e 49       		.byte	0x49
 4404 019f 7A000000 		.4byte	0x7a
 4405 01a3 00       		.byte	0
 4406 01a4 0E       		.uleb128 0xe
 4407 01a5 55070000 		.4byte	.LASF32
 4408 01a9 06       		.byte	0x6
 4409 01aa 4A       		.byte	0x4a
 4410 01ab 7A000000 		.4byte	0x7a
 4411 01af 04       		.byte	0x4
 4412 01b0 0E       		.uleb128 0xe
 4413 01b1 96070000 		.4byte	.LASF33
 4414 01b5 06       		.byte	0x6
 4415 01b6 4B       		.byte	0x4b
 4416 01b7 81000000 		.4byte	0x81
 4417 01bb 08       		.byte	0x8
ARM GAS  C:\Users\VIDEOH~1\AppData\Local\Temp\ccpdN5tN.s 			page 106


 4418 01bc 00       		.byte	0
 4419 01bd 03       		.uleb128 0x3
 4420 01be EE050000 		.4byte	.LASF34
 4421 01c2 06       		.byte	0x6
 4422 01c3 4C       		.byte	0x4c
 4423 01c4 90010000 		.4byte	0x190
 4424 01c8 0F       		.uleb128 0xf
 4425 01c9 01       		.byte	0x1
 4426 01ca 3E000000 		.4byte	0x3e
 4427 01ce 06       		.byte	0x6
 4428 01cf 50       		.byte	0x50
 4429 01d0 05020000 		.4byte	0x205
 4430 01d4 10       		.uleb128 0x10
 4431 01d5 7F050000 		.4byte	.LASF35
 4432 01d9 08       		.byte	0x8
 4433 01da 10       		.uleb128 0x10
 4434 01db D0050000 		.4byte	.LASF36
 4435 01df 01       		.byte	0x1
 4436 01e0 10       		.uleb128 0x10
 4437 01e1 3F070000 		.4byte	.LASF37
 4438 01e5 02       		.byte	0x2
 4439 01e6 10       		.uleb128 0x10
 4440 01e7 53030000 		.4byte	.LASF38
 4441 01eb 03       		.byte	0x3
 4442 01ec 10       		.uleb128 0x10
 4443 01ed B30B0000 		.4byte	.LASF39
 4444 01f1 04       		.byte	0x4
 4445 01f2 10       		.uleb128 0x10
 4446 01f3 660C0000 		.4byte	.LASF40
 4447 01f7 05       		.byte	0x5
 4448 01f8 10       		.uleb128 0x10
 4449 01f9 AB080000 		.4byte	.LASF41
 4450 01fd 06       		.byte	0x6
 4451 01fe 10       		.uleb128 0x10
 4452 01ff 17050000 		.4byte	.LASF42
 4453 0203 07       		.byte	0x7
 4454 0204 00       		.byte	0
 4455 0205 03       		.uleb128 0x3
 4456 0206 A8090000 		.4byte	.LASF43
 4457 020a 06       		.byte	0x6
 4458 020b 59       		.byte	0x59
 4459 020c C8010000 		.4byte	0x1c8
 4460 0210 0D       		.uleb128 0xd
 4461 0211 03       		.byte	0x3
 4462 0212 06       		.byte	0x6
 4463 0213 5C       		.byte	0x5c
 4464 0214 25020000 		.4byte	0x225
 4465 0218 0E       		.uleb128 0xe
 4466 0219 98020000 		.4byte	.LASF44
 4467 021d 06       		.byte	0x6
 4468 021e 5D       		.byte	0x5d
 4469 021f 3A020000 		.4byte	0x23a
 4470 0223 00       		.byte	0
 4471 0224 00       		.byte	0
 4472 0225 09       		.uleb128 0x9
 4473 0226 35020000 		.4byte	0x235
 4474 022a 35020000 		.4byte	0x235
ARM GAS  C:\Users\VIDEOH~1\AppData\Local\Temp\ccpdN5tN.s 			page 107


 4475 022e 0A       		.uleb128 0xa
 4476 022f E8000000 		.4byte	0xe8
 4477 0233 02       		.byte	0x2
 4478 0234 00       		.byte	0
 4479 0235 08       		.uleb128 0x8
 4480 0236 05020000 		.4byte	0x205
 4481 023a 08       		.uleb128 0x8
 4482 023b 25020000 		.4byte	0x225
 4483 023f 03       		.uleb128 0x3
 4484 0240 2B090000 		.4byte	.LASF45
 4485 0244 06       		.byte	0x6
 4486 0245 5E       		.byte	0x5e
 4487 0246 10020000 		.4byte	0x210
 4488 024a 0D       		.uleb128 0xd
 4489 024b 03       		.byte	0x3
 4490 024c 06       		.byte	0x6
 4491 024d 62       		.byte	0x62
 4492 024e 5E020000 		.4byte	0x25e
 4493 0252 11       		.uleb128 0x11
 4494 0253 636300   		.ascii	"cc\000"
 4495 0256 06       		.byte	0x6
 4496 0257 63       		.byte	0x63
 4497 0258 3F020000 		.4byte	0x23f
 4498 025c 00       		.byte	0
 4499 025d 00       		.byte	0
 4500 025e 12       		.uleb128 0x12
 4501 025f 03       		.byte	0x3
 4502 0260 06       		.byte	0x6
 4503 0261 61       		.byte	0x61
 4504 0262 7D020000 		.4byte	0x27d
 4505 0266 13       		.uleb128 0x13
 4506 0267 90070000 		.4byte	.LASF46
 4507 026b 06       		.byte	0x6
 4508 026c 64       		.byte	0x64
 4509 026d 4A020000 		.4byte	0x24a
 4510 0271 13       		.uleb128 0x13
 4511 0272 8B090000 		.4byte	.LASF47
 4512 0276 06       		.byte	0x6
 4513 0277 65       		.byte	0x65
 4514 0278 7D020000 		.4byte	0x27d
 4515 027c 00       		.byte	0
 4516 027d 09       		.uleb128 0x9
 4517 027e 3F020000 		.4byte	0x23f
 4518 0282 8D020000 		.4byte	0x28d
 4519 0286 0A       		.uleb128 0xa
 4520 0287 E8000000 		.4byte	0xe8
 4521 028b 00       		.byte	0
 4522 028c 00       		.byte	0
 4523 028d 03       		.uleb128 0x3
 4524 028e 00020000 		.4byte	.LASF48
 4525 0292 06       		.byte	0x6
 4526 0293 66       		.byte	0x66
 4527 0294 5E020000 		.4byte	0x25e
 4528 0298 0D       		.uleb128 0xd
 4529 0299 24       		.byte	0x24
 4530 029a 06       		.byte	0x6
 4531 029b 68       		.byte	0x68
ARM GAS  C:\Users\VIDEOH~1\AppData\Local\Temp\ccpdN5tN.s 			page 108


 4532 029c 0D030000 		.4byte	0x30d
 4533 02a0 0E       		.uleb128 0xe
 4534 02a1 10090000 		.4byte	.LASF49
 4535 02a5 06       		.byte	0x6
 4536 02a6 69       		.byte	0x69
 4537 02a7 7A000000 		.4byte	0x7a
 4538 02ab 00       		.byte	0
 4539 02ac 0E       		.uleb128 0xe
 4540 02ad A8040000 		.4byte	.LASF50
 4541 02b1 06       		.byte	0x6
 4542 02b2 6A       		.byte	0x6a
 4543 02b3 7A000000 		.4byte	0x7a
 4544 02b7 04       		.byte	0x4
 4545 02b8 0E       		.uleb128 0xe
 4546 02b9 35080000 		.4byte	.LASF51
 4547 02bd 06       		.byte	0x6
 4548 02be 6B       		.byte	0x6b
 4549 02bf 7A000000 		.4byte	0x7a
 4550 02c3 08       		.byte	0x8
 4551 02c4 0E       		.uleb128 0xe
 4552 02c5 550B0000 		.4byte	.LASF52
 4553 02c9 06       		.byte	0x6
 4554 02ca 6C       		.byte	0x6c
 4555 02cb 7A000000 		.4byte	0x7a
 4556 02cf 0C       		.byte	0xc
 4557 02d0 0E       		.uleb128 0xe
 4558 02d1 52080000 		.4byte	.LASF53
 4559 02d5 06       		.byte	0x6
 4560 02d6 6E       		.byte	0x6e
 4561 02d7 7A000000 		.4byte	0x7a
 4562 02db 10       		.byte	0x10
 4563 02dc 0E       		.uleb128 0xe
 4564 02dd 69070000 		.4byte	.LASF54
 4565 02e1 06       		.byte	0x6
 4566 02e2 6F       		.byte	0x6f
 4567 02e3 7A000000 		.4byte	0x7a
 4568 02e7 14       		.byte	0x14
 4569 02e8 0E       		.uleb128 0xe
 4570 02e9 F6050000 		.4byte	.LASF55
 4571 02ed 06       		.byte	0x6
 4572 02ee 71       		.byte	0x71
 4573 02ef 7A000000 		.4byte	0x7a
 4574 02f3 18       		.byte	0x18
 4575 02f4 0E       		.uleb128 0xe
 4576 02f5 35000000 		.4byte	.LASF56
 4577 02f9 06       		.byte	0x6
 4578 02fa 72       		.byte	0x72
 4579 02fb 7A000000 		.4byte	0x7a
 4580 02ff 1C       		.byte	0x1c
 4581 0300 0E       		.uleb128 0xe
 4582 0301 24040000 		.4byte	.LASF57
 4583 0305 06       		.byte	0x6
 4584 0306 74       		.byte	0x74
 4585 0307 7A000000 		.4byte	0x7a
 4586 030b 20       		.byte	0x20
 4587 030c 00       		.byte	0
 4588 030d 03       		.uleb128 0x3
ARM GAS  C:\Users\VIDEOH~1\AppData\Local\Temp\ccpdN5tN.s 			page 109


 4589 030e D4040000 		.4byte	.LASF58
 4590 0312 06       		.byte	0x6
 4591 0313 75       		.byte	0x75
 4592 0314 98020000 		.4byte	0x298
 4593 0318 0D       		.uleb128 0xd
 4594 0319 38       		.byte	0x38
 4595 031a 06       		.byte	0x6
 4596 031b 77       		.byte	0x77
 4597 031c 75030000 		.4byte	0x375
 4598 0320 0E       		.uleb128 0xe
 4599 0321 E8000000 		.4byte	.LASF59
 4600 0325 06       		.byte	0x6
 4601 0326 78       		.byte	0x78
 4602 0327 81000000 		.4byte	0x81
 4603 032b 00       		.byte	0
 4604 032c 0E       		.uleb128 0xe
 4605 032d 0F0B0000 		.4byte	.LASF60
 4606 0331 06       		.byte	0x6
 4607 0332 79       		.byte	0x79
 4608 0333 7A000000 		.4byte	0x7a
 4609 0337 04       		.byte	0x4
 4610 0338 0E       		.uleb128 0xe
 4611 0339 07000000 		.4byte	.LASF61
 4612 033d 06       		.byte	0x6
 4613 033e 7A       		.byte	0x7a
 4614 033f C7000000 		.4byte	0xc7
 4615 0343 08       		.byte	0x8
 4616 0344 0E       		.uleb128 0xe
 4617 0345 6C000000 		.4byte	.LASF62
 4618 0349 06       		.byte	0x6
 4619 034a 7B       		.byte	0x7b
 4620 034b A3000000 		.4byte	0xa3
 4621 034f 0A       		.byte	0xa
 4622 0350 0E       		.uleb128 0xe
 4623 0351 99010000 		.4byte	.LASF63
 4624 0355 06       		.byte	0x6
 4625 0356 7C       		.byte	0x7c
 4626 0357 A3000000 		.4byte	0xa3
 4627 035b 0C       		.byte	0xc
 4628 035c 0E       		.uleb128 0xe
 4629 035d 330D0000 		.4byte	.LASF64
 4630 0361 06       		.byte	0x6
 4631 0362 7D       		.byte	0x7d
 4632 0363 8D020000 		.4byte	0x28d
 4633 0367 0E       		.byte	0xe
 4634 0368 0E       		.uleb128 0xe
 4635 0369 21060000 		.4byte	.LASF65
 4636 036d 06       		.byte	0x6
 4637 036e 7E       		.byte	0x7e
 4638 036f 0D030000 		.4byte	0x30d
 4639 0373 14       		.byte	0x14
 4640 0374 00       		.byte	0
 4641 0375 03       		.uleb128 0x3
 4642 0376 D40C0000 		.4byte	.LASF66
 4643 037a 06       		.byte	0x6
 4644 037b 7F       		.byte	0x7f
 4645 037c 18030000 		.4byte	0x318
ARM GAS  C:\Users\VIDEOH~1\AppData\Local\Temp\ccpdN5tN.s 			page 110


 4646 0380 0F       		.uleb128 0xf
 4647 0381 01       		.byte	0x1
 4648 0382 3E000000 		.4byte	0x3e
 4649 0386 06       		.byte	0x6
 4650 0387 95       		.byte	0x95
 4651 0388 9F030000 		.4byte	0x39f
 4652 038c 10       		.uleb128 0x10
 4653 038d FF0A0000 		.4byte	.LASF67
 4654 0391 00       		.byte	0
 4655 0392 10       		.uleb128 0x10
 4656 0393 E3020000 		.4byte	.LASF68
 4657 0397 01       		.byte	0x1
 4658 0398 10       		.uleb128 0x10
 4659 0399 E70C0000 		.4byte	.LASF69
 4660 039d 02       		.byte	0x2
 4661 039e 00       		.byte	0
 4662 039f 03       		.uleb128 0x3
 4663 03a0 DC010000 		.4byte	.LASF70
 4664 03a4 07       		.byte	0x7
 4665 03a5 61       		.byte	0x61
 4666 03a6 65000000 		.4byte	0x65
 4667 03aa 03       		.uleb128 0x3
 4668 03ab A60B0000 		.4byte	.LASF71
 4669 03af 08       		.byte	0x8
 4670 03b0 54       		.byte	0x54
 4671 03b1 EF000000 		.4byte	0xef
 4672 03b5 0F       		.uleb128 0xf
 4673 03b6 01       		.byte	0x1
 4674 03b7 3E000000 		.4byte	0x3e
 4675 03bb 09       		.byte	0x9
 4676 03bc 17       		.byte	0x17
 4677 03bd EC030000 		.4byte	0x3ec
 4678 03c1 10       		.uleb128 0x10
 4679 03c2 00070000 		.4byte	.LASF72
 4680 03c6 00       		.byte	0
 4681 03c7 10       		.uleb128 0x10
 4682 03c8 BE000000 		.4byte	.LASF73
 4683 03cc 01       		.byte	0x1
 4684 03cd 10       		.uleb128 0x10
 4685 03ce 7E020000 		.4byte	.LASF74
 4686 03d2 02       		.byte	0x2
 4687 03d3 10       		.uleb128 0x10
 4688 03d4 25000000 		.4byte	.LASF75
 4689 03d8 03       		.byte	0x3
 4690 03d9 10       		.uleb128 0x10
 4691 03da 1D0C0000 		.4byte	.LASF76
 4692 03de 04       		.byte	0x4
 4693 03df 10       		.uleb128 0x10
 4694 03e0 44030000 		.4byte	.LASF77
 4695 03e4 05       		.byte	0x5
 4696 03e5 10       		.uleb128 0x10
 4697 03e6 540C0000 		.4byte	.LASF78
 4698 03ea 06       		.byte	0x6
 4699 03eb 00       		.byte	0
 4700 03ec 03       		.uleb128 0x3
 4701 03ed 3A0C0000 		.4byte	.LASF79
 4702 03f1 09       		.byte	0x9
ARM GAS  C:\Users\VIDEOH~1\AppData\Local\Temp\ccpdN5tN.s 			page 111


 4703 03f2 1F       		.byte	0x1f
 4704 03f3 B5030000 		.4byte	0x3b5
 4705 03f7 0F       		.uleb128 0xf
 4706 03f8 01       		.byte	0x1
 4707 03f9 3E000000 		.4byte	0x3e
 4708 03fd 09       		.byte	0x9
 4709 03fe 21       		.byte	0x21
 4710 03ff 10040000 		.4byte	0x410
 4711 0403 10       		.uleb128 0x10
 4712 0404 C8010000 		.4byte	.LASF80
 4713 0408 00       		.byte	0
 4714 0409 10       		.uleb128 0x10
 4715 040a D3000000 		.4byte	.LASF81
 4716 040e 01       		.byte	0x1
 4717 040f 00       		.byte	0
 4718 0410 03       		.uleb128 0x3
 4719 0411 FB070000 		.4byte	.LASF82
 4720 0415 09       		.byte	0x9
 4721 0416 24       		.byte	0x24
 4722 0417 F7030000 		.4byte	0x3f7
 4723 041b 0D       		.uleb128 0xd
 4724 041c 10       		.byte	0x10
 4725 041d 09       		.byte	0x9
 4726 041e 26       		.byte	0x26
 4727 041f 54040000 		.4byte	0x454
 4728 0423 0E       		.uleb128 0xe
 4729 0424 56060000 		.4byte	.LASF83
 4730 0428 09       		.byte	0x9
 4731 0429 27       		.byte	0x27
 4732 042a EC030000 		.4byte	0x3ec
 4733 042e 00       		.byte	0
 4734 042f 0E       		.uleb128 0xe
 4735 0430 F9000000 		.4byte	.LASF84
 4736 0434 09       		.byte	0x9
 4737 0435 28       		.byte	0x28
 4738 0436 7A000000 		.4byte	0x7a
 4739 043a 04       		.byte	0x4
 4740 043b 0E       		.uleb128 0xe
 4741 043c 30030000 		.4byte	.LASF85
 4742 0440 09       		.byte	0x9
 4743 0441 29       		.byte	0x29
 4744 0442 9F030000 		.4byte	0x39f
 4745 0446 08       		.byte	0x8
 4746 0447 0E       		.uleb128 0xe
 4747 0448 94010000 		.4byte	.LASF86
 4748 044c 09       		.byte	0x9
 4749 044d 2A       		.byte	0x2a
 4750 044e 9F030000 		.4byte	0x39f
 4751 0452 0C       		.byte	0xc
 4752 0453 00       		.byte	0
 4753 0454 03       		.uleb128 0x3
 4754 0455 63030000 		.4byte	.LASF87
 4755 0459 09       		.byte	0x9
 4756 045a 2B       		.byte	0x2b
 4757 045b 1B040000 		.4byte	0x41b
 4758 045f 07       		.uleb128 0x7
 4759 0460 04       		.byte	0x4
ARM GAS  C:\Users\VIDEOH~1\AppData\Local\Temp\ccpdN5tN.s 			page 112


 4760 0461 65040000 		.4byte	0x465
 4761 0465 14       		.uleb128 0x14
 4762 0466 0D       		.uleb128 0xd
 4763 0467 08       		.byte	0x8
 4764 0468 01       		.byte	0x1
 4765 0469 28       		.byte	0x28
 4766 046a 87040000 		.4byte	0x487
 4767 046e 0E       		.uleb128 0xe
 4768 046f FB010000 		.4byte	.LASF88
 4769 0473 01       		.byte	0x1
 4770 0474 29       		.byte	0x29
 4771 0475 92040000 		.4byte	0x492
 4772 0479 00       		.byte	0
 4773 047a 0E       		.uleb128 0xe
 4774 047b 480C0000 		.4byte	.LASF89
 4775 047f 01       		.byte	0x1
 4776 0480 2A       		.byte	0x2a
 4777 0481 F1000000 		.4byte	0xf1
 4778 0485 04       		.byte	0x4
 4779 0486 00       		.byte	0
 4780 0487 15       		.uleb128 0x15
 4781 0488 92040000 		.4byte	0x492
 4782 048c 16       		.uleb128 0x16
 4783 048d F1000000 		.4byte	0xf1
 4784 0491 00       		.byte	0
 4785 0492 07       		.uleb128 0x7
 4786 0493 04       		.byte	0x4
 4787 0494 87040000 		.4byte	0x487
 4788 0498 03       		.uleb128 0x3
 4789 0499 5E020000 		.4byte	.LASF90
 4790 049d 01       		.byte	0x1
 4791 049e 2B       		.byte	0x2b
 4792 049f 66040000 		.4byte	0x466
 4793 04a3 17       		.uleb128 0x17
 4794 04a4 41060000 		.4byte	.LASF233
 4795 04a8 0C       		.byte	0xc
 4796 04a9 01       		.byte	0x1
 4797 04aa 2D       		.byte	0x2d
 4798 04ab D4040000 		.4byte	0x4d4
 4799 04af 0E       		.uleb128 0xe
 4800 04b0 FB010000 		.4byte	.LASF88
 4801 04b4 01       		.byte	0x1
 4802 04b5 2E       		.byte	0x2e
 4803 04b6 E3040000 		.4byte	0x4e3
 4804 04ba 00       		.byte	0
 4805 04bb 11       		.uleb128 0x11
 4806 04bc 61726700 		.ascii	"arg\000"
 4807 04c0 01       		.byte	0x1
 4808 04c1 2F       		.byte	0x2f
 4809 04c2 5F040000 		.4byte	0x45f
 4810 04c6 04       		.byte	0x4
 4811 04c7 0E       		.uleb128 0xe
 4812 04c8 D60B0000 		.4byte	.LASF91
 4813 04cc 01       		.byte	0x1
 4814 04cd 30       		.byte	0x30
 4815 04ce E9040000 		.4byte	0x4e9
 4816 04d2 08       		.byte	0x8
ARM GAS  C:\Users\VIDEOH~1\AppData\Local\Temp\ccpdN5tN.s 			page 113


 4817 04d3 00       		.byte	0
 4818 04d4 18       		.uleb128 0x18
 4819 04d5 A3040000 		.4byte	0x4a3
 4820 04d9 E3040000 		.4byte	0x4e3
 4821 04dd 16       		.uleb128 0x16
 4822 04de 5F040000 		.4byte	0x45f
 4823 04e2 00       		.byte	0
 4824 04e3 07       		.uleb128 0x7
 4825 04e4 04       		.byte	0x4
 4826 04e5 D4040000 		.4byte	0x4d4
 4827 04e9 08       		.uleb128 0x8
 4828 04ea BB000000 		.4byte	0xbb
 4829 04ee 03       		.uleb128 0x3
 4830 04ef 19040000 		.4byte	.LASF92
 4831 04f3 01       		.byte	0x1
 4832 04f4 31       		.byte	0x31
 4833 04f5 A3040000 		.4byte	0x4a3
 4834 04f9 0D       		.uleb128 0xd
 4835 04fa 10       		.byte	0x10
 4836 04fb 01       		.byte	0x1
 4837 04fc 37       		.byte	0x37
 4838 04fd 1A050000 		.4byte	0x51a
 4839 0501 0E       		.uleb128 0xe
 4840 0502 3D040000 		.4byte	.LASF93
 4841 0506 01       		.byte	0x1
 4842 0507 38       		.byte	0x38
 4843 0508 F7000000 		.4byte	0xf7
 4844 050c 00       		.byte	0
 4845 050d 0E       		.uleb128 0xe
 4846 050e 13020000 		.4byte	.LASF94
 4847 0512 01       		.byte	0x1
 4848 0513 39       		.byte	0x39
 4849 0514 1A050000 		.4byte	0x51a
 4850 0518 04       		.byte	0x4
 4851 0519 00       		.byte	0
 4852 051a 08       		.uleb128 0x8
 4853 051b EE040000 		.4byte	0x4ee
 4854 051f 03       		.uleb128 0x3
 4855 0520 2B070000 		.4byte	.LASF95
 4856 0524 01       		.byte	0x1
 4857 0525 3A       		.byte	0x3a
 4858 0526 F9040000 		.4byte	0x4f9
 4859 052a 0D       		.uleb128 0xd
 4860 052b 04       		.byte	0x4
 4861 052c 01       		.byte	0x1
 4862 052d 3C       		.byte	0x3c
 4863 052e 4B050000 		.4byte	0x54b
 4864 0532 0E       		.uleb128 0xe
 4865 0533 B6020000 		.4byte	.LASF96
 4866 0537 01       		.byte	0x1
 4867 0538 3D       		.byte	0x3d
 4868 0539 F7000000 		.4byte	0xf7
 4869 053d 00       		.byte	0
 4870 053e 0E       		.uleb128 0xe
 4871 053f 8B080000 		.4byte	.LASF97
 4872 0543 01       		.byte	0x1
 4873 0544 3E       		.byte	0x3e
ARM GAS  C:\Users\VIDEOH~1\AppData\Local\Temp\ccpdN5tN.s 			page 114


 4874 0545 5F050000 		.4byte	0x55f
 4875 0549 04       		.byte	0x4
 4876 054a 00       		.byte	0
 4877 054b 09       		.uleb128 0x9
 4878 054c 5A050000 		.4byte	0x55a
 4879 0550 5A050000 		.4byte	0x55a
 4880 0554 19       		.uleb128 0x19
 4881 0555 E8000000 		.4byte	0xe8
 4882 0559 00       		.byte	0
 4883 055a 08       		.uleb128 0x8
 4884 055b 1F050000 		.4byte	0x51f
 4885 055f 08       		.uleb128 0x8
 4886 0560 4B050000 		.4byte	0x54b
 4887 0564 03       		.uleb128 0x3
 4888 0565 3C010000 		.4byte	.LASF98
 4889 0569 01       		.byte	0x1
 4890 056a 3F       		.byte	0x3f
 4891 056b 2A050000 		.4byte	0x52a
 4892 056f 03       		.uleb128 0x3
 4893 0570 B9090000 		.4byte	.LASF99
 4894 0574 01       		.byte	0x1
 4895 0575 47       		.byte	0x47
 4896 0576 7A050000 		.4byte	0x57a
 4897 057a 07       		.uleb128 0x7
 4898 057b 04       		.byte	0x4
 4899 057c 80050000 		.4byte	0x580
 4900 0580 1A       		.uleb128 0x1a
 4901 0581 87050000 		.4byte	0x587
 4902 0585 1B       		.uleb128 0x1b
 4903 0586 00       		.byte	0
 4904 0587 1C       		.uleb128 0x1c
 4905 0588 C70D0000 		.4byte	.LASF234
 4906 058c 01       		.byte	0x1
 4907 058d BA       		.byte	0xba
 4908 058e 01       		.byte	0x1
 4909 058f CB050000 		.4byte	0x5cb
 4910 0593 1D       		.uleb128 0x1d
 4911 0594 FF020000 		.4byte	.LASF100
 4912 0598 01       		.byte	0x1
 4913 0599 BB       		.byte	0xbb
 4914 059a 54040000 		.4byte	0x454
 4915 059e 1D       		.uleb128 0x1d
 4916 059f AA0A0000 		.4byte	.LASF101
 4917 05a3 01       		.byte	0x1
 4918 05a4 BC       		.byte	0xbc
 4919 05a5 BB000000 		.4byte	0xbb
 4920 05a9 1D       		.uleb128 0x1d
 4921 05aa 15030000 		.4byte	.LASF102
 4922 05ae 01       		.byte	0x1
 4923 05af BD       		.byte	0xbd
 4924 05b0 BB000000 		.4byte	0xbb
 4925 05b4 1D       		.uleb128 0x1d
 4926 05b5 820B0000 		.4byte	.LASF103
 4927 05b9 01       		.byte	0x1
 4928 05ba BE       		.byte	0xbe
 4929 05bb 9F030000 		.4byte	0x39f
 4930 05bf 1D       		.uleb128 0x1d
ARM GAS  C:\Users\VIDEOH~1\AppData\Local\Temp\ccpdN5tN.s 			page 115


 4931 05c0 00000000 		.4byte	.LASF104
 4932 05c4 01       		.byte	0x1
 4933 05c5 C0       		.byte	0xc0
 4934 05c6 7A000000 		.4byte	0x7a
 4935 05ca 00       		.byte	0
 4936 05cb 1E       		.uleb128 0x1e
 4937 05cc EE0A0000 		.4byte	.LASF106
 4938 05d0 01       		.byte	0x1
 4939 05d1 BC01     		.2byte	0x1bc
 4940 05d3 01       		.byte	0x1
 4941 05d4 07060000 		.4byte	0x607
 4942 05d8 1F       		.uleb128 0x1f
 4943 05d9 26070000 		.4byte	.LASF105
 4944 05dd 01       		.byte	0x1
 4945 05de BC01     		.2byte	0x1bc
 4946 05e0 97000000 		.4byte	0x97
 4947 05e4 20       		.uleb128 0x20
 4948 05e5 636F6C00 		.ascii	"col\000"
 4949 05e9 01       		.byte	0x1
 4950 05ea BC01     		.2byte	0x1bc
 4951 05ec 97000000 		.4byte	0x97
 4952 05f0 20       		.uleb128 0x20
 4953 05f1 7400     		.ascii	"t\000"
 4954 05f3 01       		.byte	0x1
 4955 05f4 BC01     		.2byte	0x1bc
 4956 05f6 BB000000 		.4byte	0xbb
 4957 05fa 21       		.uleb128 0x21
 4958 05fb 6F757400 		.ascii	"out\000"
 4959 05ff 01       		.byte	0x1
 4960 0600 BE01     		.2byte	0x1be
 4961 0602 02010000 		.4byte	0x102
 4962 0606 00       		.byte	0
 4963 0607 1E       		.uleb128 0x1e
 4964 0608 15060000 		.4byte	.LASF107
 4965 060c 01       		.byte	0x1
 4966 060d 7C01     		.2byte	0x17c
 4967 060f 01       		.byte	0x1
 4968 0610 5D060000 		.4byte	0x65d
 4969 0614 1F       		.uleb128 0x1f
 4970 0615 24090000 		.4byte	.LASF108
 4971 0619 01       		.byte	0x1
 4972 061a 7C01     		.2byte	0x17c
 4973 061c 5D060000 		.4byte	0x65d
 4974 0620 1F       		.uleb128 0x1f
 4975 0621 75060000 		.4byte	.LASF109
 4976 0625 01       		.byte	0x1
 4977 0626 7C01     		.2byte	0x17c
 4978 0628 97000000 		.4byte	0x97
 4979 062c 21       		.uleb128 0x21
 4980 062d 62756600 		.ascii	"buf\000"
 4981 0631 01       		.byte	0x1
 4982 0632 7D01     		.2byte	0x17d
 4983 0634 02010000 		.4byte	0x102
 4984 0638 22       		.uleb128 0x22
 4985 0639 670B0000 		.4byte	.LASF110
 4986 063d 01       		.byte	0x1
 4987 063e 7F01     		.2byte	0x17f
ARM GAS  C:\Users\VIDEOH~1\AppData\Local\Temp\ccpdN5tN.s 			page 116


 4988 0640 68060000 		.4byte	0x668
 4989 0644 22       		.uleb128 0x22
 4990 0645 C7060000 		.4byte	.LASF111
 4991 0649 01       		.byte	0x1
 4992 064a 8B01     		.2byte	0x18b
 4993 064c 97000000 		.4byte	0x97
 4994 0650 23       		.uleb128 0x23
 4995 0651 21       		.uleb128 0x21
 4996 0652 6900     		.ascii	"i\000"
 4997 0654 01       		.byte	0x1
 4998 0655 9701     		.2byte	0x197
 4999 0657 7A000000 		.4byte	0x7a
 5000 065b 00       		.byte	0
 5001 065c 00       		.byte	0
 5002 065d 07       		.uleb128 0x7
 5003 065e 04       		.byte	0x4
 5004 065f 63060000 		.4byte	0x663
 5005 0663 08       		.uleb128 0x8
 5006 0664 3F020000 		.4byte	0x23f
 5007 0668 07       		.uleb128 0x7
 5008 0669 04       		.byte	0x4
 5009 066a 6E060000 		.4byte	0x66e
 5010 066e 08       		.uleb128 0x8
 5011 066f 98040000 		.4byte	0x498
 5012 0673 24       		.uleb128 0x24
 5013 0674 C3090000 		.4byte	.LASF118
 5014 0678 01       		.byte	0x1
 5015 0679 0B02     		.2byte	0x20b
 5016 067b EE040000 		.4byte	0x4ee
 5017 067f 00000000 		.4byte	.LFB54
 5018 0683 12000000 		.4byte	.LFE54-.LFB54
 5019 0687 01       		.uleb128 0x1
 5020 0688 9C       		.byte	0x9c
 5021 0689 A7060000 		.4byte	0x6a7
 5022 068d 25       		.uleb128 0x25
 5023 068e 61726700 		.ascii	"arg\000"
 5024 0692 01       		.byte	0x1
 5025 0693 0B02     		.2byte	0x20b
 5026 0695 5F040000 		.4byte	0x45f
 5027 0699 00000000 		.4byte	.LLST0
 5028 069d 26       		.uleb128 0x26
 5029 069e 06000000 		.4byte	.LVL1
 5030 06a2 03       		.uleb128 0x3
 5031 06a3 F3       		.byte	0xf3
 5032 06a4 01       		.uleb128 0x1
 5033 06a5 51       		.byte	0x51
 5034 06a6 00       		.byte	0
 5035 06a7 27       		.uleb128 0x27
 5036 06a8 2B050000 		.4byte	.LASF115
 5037 06ac 01       		.byte	0x1
 5038 06ad F4       		.byte	0xf4
 5039 06ae 00000000 		.4byte	.LFB36
 5040 06b2 40000000 		.4byte	.LFE36-.LFB36
 5041 06b6 01       		.uleb128 0x1
 5042 06b7 9C       		.byte	0x9c
 5043 06b8 2E070000 		.4byte	0x72e
 5044 06bc 28       		.uleb128 0x28
ARM GAS  C:\Users\VIDEOH~1\AppData\Local\Temp\ccpdN5tN.s 			page 117


 5045 06bd 6E756D00 		.ascii	"num\000"
 5046 06c1 01       		.byte	0x1
 5047 06c2 F4       		.byte	0xf4
 5048 06c3 7A000000 		.4byte	0x7a
 5049 06c7 21000000 		.4byte	.LLST1
 5050 06cb 29       		.uleb128 0x29
 5051 06cc 1D090000 		.4byte	.LASF112
 5052 06d0 01       		.byte	0x1
 5053 06d1 F4       		.byte	0xf4
 5054 06d2 F7000000 		.4byte	0xf7
 5055 06d6 5E000000 		.4byte	.LLST2
 5056 06da 28       		.uleb128 0x28
 5057 06db 6F757400 		.ascii	"out\000"
 5058 06df 01       		.byte	0x1
 5059 06e0 F4       		.byte	0xf4
 5060 06e1 F1000000 		.4byte	0xf1
 5061 06e5 8A000000 		.4byte	.LLST3
 5062 06e9 2A       		.uleb128 0x2a
 5063 06ea 28080000 		.4byte	.LASF113
 5064 06ee 01       		.byte	0x1
 5065 06ef F7       		.byte	0xf7
 5066 06f0 7A000000 		.4byte	0x7a
 5067 06f4 B6000000 		.4byte	.LLST4
 5068 06f8 2A       		.uleb128 0x2a
 5069 06f9 74020000 		.4byte	.LASF114
 5070 06fd 01       		.byte	0x1
 5071 06fe F7       		.byte	0xf7
 5072 06ff 7A000000 		.4byte	0x7a
 5073 0703 EC000000 		.4byte	.LLST5
 5074 0707 2B       		.uleb128 0x2b
 5075 0708 36000000 		.4byte	.LVL9
 5076 070c 39280000 		.4byte	0x2839
 5077 0710 2C       		.uleb128 0x2c
 5078 0711 01       		.uleb128 0x1
 5079 0712 50       		.byte	0x50
 5080 0713 02       		.uleb128 0x2
 5081 0714 75       		.byte	0x75
 5082 0715 00       		.sleb128 0
 5083 0716 2C       		.uleb128 0x2c
 5084 0717 01       		.uleb128 0x1
 5085 0718 51       		.byte	0x51
 5086 0719 05       		.uleb128 0x5
 5087 071a 03       		.byte	0x3
 5088 071b 00000000 		.4byte	.LC2
 5089 071f 2C       		.uleb128 0x2c
 5090 0720 01       		.uleb128 0x1
 5091 0721 53       		.byte	0x53
 5092 0722 02       		.uleb128 0x2
 5093 0723 77       		.byte	0x77
 5094 0724 00       		.sleb128 0
 5095 0725 2C       		.uleb128 0x2c
 5096 0726 02       		.uleb128 0x2
 5097 0727 7D       		.byte	0x7d
 5098 0728 00       		.sleb128 0
 5099 0729 02       		.uleb128 0x2
 5100 072a 76       		.byte	0x76
 5101 072b 00       		.sleb128 0
ARM GAS  C:\Users\VIDEOH~1\AppData\Local\Temp\ccpdN5tN.s 			page 118


 5102 072c 00       		.byte	0
 5103 072d 00       		.byte	0
 5104 072e 27       		.uleb128 0x27
 5105 072f 46000000 		.4byte	.LASF116
 5106 0733 01       		.byte	0x1
 5107 0734 DA       		.byte	0xda
 5108 0735 00000000 		.4byte	.LFB35
 5109 0739 9C000000 		.4byte	.LFE35-.LFB35
 5110 073d 01       		.uleb128 0x1
 5111 073e 9C       		.byte	0x9c
 5112 073f 09080000 		.4byte	0x809
 5113 0743 28       		.uleb128 0x28
 5114 0744 6E756D00 		.ascii	"num\000"
 5115 0748 01       		.byte	0x1
 5116 0749 DA       		.byte	0xda
 5117 074a 7A000000 		.4byte	0x7a
 5118 074e 2E010000 		.4byte	.LLST6
 5119 0752 29       		.uleb128 0x29
 5120 0753 1D090000 		.4byte	.LASF112
 5121 0757 01       		.byte	0x1
 5122 0758 DA       		.byte	0xda
 5123 0759 F7000000 		.4byte	0xf7
 5124 075d 57010000 		.4byte	.LLST7
 5125 0761 28       		.uleb128 0x28
 5126 0762 6F757400 		.ascii	"out\000"
 5127 0766 01       		.byte	0x1
 5128 0767 DA       		.byte	0xda
 5129 0768 F1000000 		.4byte	0xf1
 5130 076c 8D010000 		.4byte	.LLST8
 5131 0770 2A       		.uleb128 0x2a
 5132 0771 440D0000 		.4byte	.LASF117
 5133 0775 01       		.byte	0x1
 5134 0776 DE       		.byte	0xde
 5135 0777 7A000000 		.4byte	0x7a
 5136 077b CF010000 		.4byte	.LLST9
 5137 077f 2A       		.uleb128 0x2a
 5138 0780 28080000 		.4byte	.LASF113
 5139 0784 01       		.byte	0x1
 5140 0785 E4       		.byte	0xe4
 5141 0786 7A000000 		.4byte	0x7a
 5142 078a FA010000 		.4byte	.LLST10
 5143 078e 2A       		.uleb128 0x2a
 5144 078f 74020000 		.4byte	.LASF114
 5145 0793 01       		.byte	0x1
 5146 0794 E4       		.byte	0xe4
 5147 0795 7A000000 		.4byte	0x7a
 5148 0799 2E020000 		.4byte	.LLST11
 5149 079d 2D       		.uleb128 0x2d
 5150 079e 66000000 		.4byte	.LVL29
 5151 07a2 39280000 		.4byte	0x2839
 5152 07a6 B1070000 		.4byte	0x7b1
 5153 07aa 2C       		.uleb128 0x2c
 5154 07ab 01       		.uleb128 0x1
 5155 07ac 50       		.byte	0x50
 5156 07ad 02       		.uleb128 0x2
 5157 07ae 75       		.byte	0x75
 5158 07af 00       		.sleb128 0
ARM GAS  C:\Users\VIDEOH~1\AppData\Local\Temp\ccpdN5tN.s 			page 119


 5159 07b0 00       		.byte	0
 5160 07b1 2D       		.uleb128 0x2d
 5161 07b2 72000000 		.4byte	.LVL32
 5162 07b6 39280000 		.4byte	0x2839
 5163 07ba D4070000 		.4byte	0x7d4
 5164 07be 2C       		.uleb128 0x2c
 5165 07bf 01       		.uleb128 0x1
 5166 07c0 50       		.byte	0x50
 5167 07c1 02       		.uleb128 0x2
 5168 07c2 75       		.byte	0x75
 5169 07c3 00       		.sleb128 0
 5170 07c4 2C       		.uleb128 0x2c
 5171 07c5 01       		.uleb128 0x1
 5172 07c6 51       		.byte	0x51
 5173 07c7 05       		.uleb128 0x5
 5174 07c8 03       		.byte	0x3
 5175 07c9 1D000000 		.4byte	.LC8
 5176 07cd 2C       		.uleb128 0x2c
 5177 07ce 01       		.uleb128 0x1
 5178 07cf 52       		.byte	0x52
 5179 07d0 02       		.uleb128 0x2
 5180 07d1 76       		.byte	0x76
 5181 07d2 00       		.sleb128 0
 5182 07d3 00       		.byte	0
 5183 07d4 2D       		.uleb128 0x2d
 5184 07d5 7E000000 		.4byte	.LVL33
 5185 07d9 44280000 		.4byte	0x2844
 5186 07dd F1070000 		.4byte	0x7f1
 5187 07e1 2C       		.uleb128 0x2c
 5188 07e2 01       		.uleb128 0x1
 5189 07e3 50       		.byte	0x50
 5190 07e4 02       		.uleb128 0x2
 5191 07e5 75       		.byte	0x75
 5192 07e6 00       		.sleb128 0
 5193 07e7 2C       		.uleb128 0x2c
 5194 07e8 01       		.uleb128 0x1
 5195 07e9 51       		.byte	0x51
 5196 07ea 05       		.uleb128 0x5
 5197 07eb 03       		.byte	0x3
 5198 07ec 22000000 		.4byte	.LC10
 5199 07f0 00       		.byte	0
 5200 07f1 2B       		.uleb128 0x2b
 5201 07f2 86000000 		.4byte	.LVL34
 5202 07f6 44280000 		.4byte	0x2844
 5203 07fa 2C       		.uleb128 0x2c
 5204 07fb 01       		.uleb128 0x1
 5205 07fc 50       		.byte	0x50
 5206 07fd 02       		.uleb128 0x2
 5207 07fe 75       		.byte	0x75
 5208 07ff 00       		.sleb128 0
 5209 0800 2C       		.uleb128 0x2c
 5210 0801 01       		.uleb128 0x1
 5211 0802 51       		.byte	0x51
 5212 0803 03       		.uleb128 0x3
 5213 0804 91       		.byte	0x91
 5214 0805 64       		.sleb128 -28
 5215 0806 06       		.byte	0x6
ARM GAS  C:\Users\VIDEOH~1\AppData\Local\Temp\ccpdN5tN.s 			page 120


 5216 0807 00       		.byte	0
 5217 0808 00       		.byte	0
 5218 0809 2E       		.uleb128 0x2e
 5219 080a B90D0000 		.4byte	.LASF126
 5220 080e 01       		.byte	0x1
 5221 080f 5501     		.2byte	0x155
 5222 0811 00000000 		.4byte	.LFB43
 5223 0815 18000000 		.4byte	.LFE43-.LFB43
 5224 0819 01       		.uleb128 0x1
 5225 081a 9C       		.byte	0x9c
 5226 081b 52080000 		.4byte	0x852
 5227 081f 25       		.uleb128 0x25
 5228 0820 62756600 		.ascii	"buf\000"
 5229 0824 01       		.byte	0x1
 5230 0825 5501     		.2byte	0x155
 5231 0827 F1000000 		.4byte	0xf1
 5232 082b 57020000 		.4byte	.LLST12
 5233 082f 2F       		.uleb128 0x2f
 5234 0830 08000000 		.4byte	.LVL38
 5235 0834 4F280000 		.4byte	0x284f
 5236 0838 2B       		.uleb128 0x2b
 5237 0839 10000000 		.4byte	.LVL39
 5238 083d 2E070000 		.4byte	0x72e
 5239 0841 2C       		.uleb128 0x2c
 5240 0842 01       		.uleb128 0x1
 5241 0843 51       		.byte	0x51
 5242 0844 05       		.uleb128 0x5
 5243 0845 03       		.byte	0x3
 5244 0846 24000000 		.4byte	.LC12
 5245 084a 2C       		.uleb128 0x2c
 5246 084b 01       		.uleb128 0x1
 5247 084c 52       		.byte	0x52
 5248 084d 02       		.uleb128 0x2
 5249 084e 74       		.byte	0x74
 5250 084f 00       		.sleb128 0
 5251 0850 00       		.byte	0
 5252 0851 00       		.byte	0
 5253 0852 24       		.uleb128 0x24
 5254 0853 0E080000 		.4byte	.LASF119
 5255 0857 01       		.byte	0x1
 5256 0858 B103     		.2byte	0x3b1
 5257 085a EE040000 		.4byte	0x4ee
 5258 085e 00000000 		.4byte	.LFB68
 5259 0862 58000000 		.4byte	.LFE68-.LFB68
 5260 0866 01       		.uleb128 0x1
 5261 0867 9C       		.byte	0x9c
 5262 0868 27090000 		.4byte	0x927
 5263 086c 25       		.uleb128 0x25
 5264 086d 61726700 		.ascii	"arg\000"
 5265 0871 01       		.byte	0x1
 5266 0872 B103     		.2byte	0x3b1
 5267 0874 5F040000 		.4byte	0x45f
 5268 0878 83020000 		.4byte	.LLST13
 5269 087c 2F       		.uleb128 0x2f
 5270 087d 08000000 		.4byte	.LVL42
 5271 0881 5A280000 		.4byte	0x285a
 5272 0885 2D       		.uleb128 0x2d
ARM GAS  C:\Users\VIDEOH~1\AppData\Local\Temp\ccpdN5tN.s 			page 121


 5273 0886 14000000 		.4byte	.LVL43
 5274 088a 65280000 		.4byte	0x2865
 5275 088e AB080000 		.4byte	0x8ab
 5276 0892 2C       		.uleb128 0x2c
 5277 0893 01       		.uleb128 0x1
 5278 0894 50       		.byte	0x50
 5279 0895 01       		.uleb128 0x1
 5280 0896 37       		.byte	0x37
 5281 0897 2C       		.uleb128 0x2c
 5282 0898 01       		.uleb128 0x1
 5283 0899 51       		.byte	0x51
 5284 089a 01       		.uleb128 0x1
 5285 089b 3A       		.byte	0x3a
 5286 089c 2C       		.uleb128 0x2c
 5287 089d 01       		.uleb128 0x1
 5288 089e 52       		.byte	0x52
 5289 089f 05       		.uleb128 0x5
 5290 08a0 03       		.byte	0x3
 5291 08a1 26000000 		.4byte	.LC14
 5292 08a5 2C       		.uleb128 0x2c
 5293 08a6 01       		.uleb128 0x1
 5294 08a7 53       		.byte	0x53
 5295 08a8 01       		.uleb128 0x1
 5296 08a9 31       		.byte	0x31
 5297 08aa 00       		.byte	0
 5298 08ab 2D       		.uleb128 0x2d
 5299 08ac 20000000 		.4byte	.LVL44
 5300 08b0 65280000 		.4byte	0x2865
 5301 08b4 D1080000 		.4byte	0x8d1
 5302 08b8 2C       		.uleb128 0x2c
 5303 08b9 01       		.uleb128 0x1
 5304 08ba 50       		.byte	0x50
 5305 08bb 01       		.uleb128 0x1
 5306 08bc 35       		.byte	0x35
 5307 08bd 2C       		.uleb128 0x2c
 5308 08be 01       		.uleb128 0x1
 5309 08bf 51       		.byte	0x51
 5310 08c0 01       		.uleb128 0x1
 5311 08c1 44       		.byte	0x44
 5312 08c2 2C       		.uleb128 0x2c
 5313 08c3 01       		.uleb128 0x1
 5314 08c4 52       		.byte	0x52
 5315 08c5 05       		.uleb128 0x5
 5316 08c6 03       		.byte	0x3
 5317 08c7 30000000 		.4byte	.LC16
 5318 08cb 2C       		.uleb128 0x2c
 5319 08cc 01       		.uleb128 0x1
 5320 08cd 53       		.byte	0x53
 5321 08ce 01       		.uleb128 0x1
 5322 08cf 30       		.byte	0x30
 5323 08d0 00       		.byte	0
 5324 08d1 2D       		.uleb128 0x2d
 5325 08d2 2C000000 		.4byte	.LVL45
 5326 08d6 65280000 		.4byte	0x2865
 5327 08da F7080000 		.4byte	0x8f7
 5328 08de 2C       		.uleb128 0x2c
 5329 08df 01       		.uleb128 0x1
ARM GAS  C:\Users\VIDEOH~1\AppData\Local\Temp\ccpdN5tN.s 			page 122


 5330 08e0 50       		.byte	0x50
 5331 08e1 01       		.uleb128 0x1
 5332 08e2 33       		.byte	0x33
 5333 08e3 2C       		.uleb128 0x2c
 5334 08e4 01       		.uleb128 0x1
 5335 08e5 51       		.byte	0x51
 5336 08e6 01       		.uleb128 0x1
 5337 08e7 44       		.byte	0x44
 5338 08e8 2C       		.uleb128 0x2c
 5339 08e9 01       		.uleb128 0x1
 5340 08ea 52       		.byte	0x52
 5341 08eb 05       		.uleb128 0x5
 5342 08ec 03       		.byte	0x3
 5343 08ed 39000000 		.4byte	.LC18
 5344 08f1 2C       		.uleb128 0x2c
 5345 08f2 01       		.uleb128 0x1
 5346 08f3 53       		.byte	0x53
 5347 08f4 01       		.uleb128 0x1
 5348 08f5 30       		.byte	0x30
 5349 08f6 00       		.byte	0
 5350 08f7 2D       		.uleb128 0x2d
 5351 08f8 38000000 		.4byte	.LVL46
 5352 08fc 65280000 		.4byte	0x2865
 5353 0900 1D090000 		.4byte	0x91d
 5354 0904 2C       		.uleb128 0x2c
 5355 0905 01       		.uleb128 0x1
 5356 0906 50       		.byte	0x50
 5357 0907 01       		.uleb128 0x1
 5358 0908 31       		.byte	0x31
 5359 0909 2C       		.uleb128 0x2c
 5360 090a 01       		.uleb128 0x1
 5361 090b 51       		.byte	0x51
 5362 090c 01       		.uleb128 0x1
 5363 090d 44       		.byte	0x44
 5364 090e 2C       		.uleb128 0x2c
 5365 090f 01       		.uleb128 0x1
 5366 0910 52       		.byte	0x52
 5367 0911 05       		.uleb128 0x5
 5368 0912 03       		.byte	0x3
 5369 0913 42000000 		.4byte	.LC20
 5370 0917 2C       		.uleb128 0x2c
 5371 0918 01       		.uleb128 0x1
 5372 0919 53       		.byte	0x53
 5373 091a 01       		.uleb128 0x1
 5374 091b 30       		.byte	0x30
 5375 091c 00       		.byte	0
 5376 091d 2F       		.uleb128 0x2f
 5377 091e 3C000000 		.4byte	.LVL47
 5378 0922 70280000 		.4byte	0x2870
 5379 0926 00       		.byte	0
 5380 0927 30       		.uleb128 0x30
 5381 0928 9D040000 		.4byte	.LASF120
 5382 092c 01       		.byte	0x1
 5383 092d 0401     		.2byte	0x104
 5384 092f 00000000 		.4byte	.LFB38
 5385 0933 84000000 		.4byte	.LFE38-.LFB38
 5386 0937 01       		.uleb128 0x1
ARM GAS  C:\Users\VIDEOH~1\AppData\Local\Temp\ccpdN5tN.s 			page 123


 5387 0938 9C       		.byte	0x9c
 5388 0939 CC090000 		.4byte	0x9cc
 5389 093d 31       		.uleb128 0x31
 5390 093e FF020000 		.4byte	.LASF100
 5391 0942 01       		.byte	0x1
 5392 0943 0401     		.2byte	0x104
 5393 0945 CC090000 		.4byte	0x9cc
 5394 0949 A4020000 		.4byte	.LLST14
 5395 094d 32       		.uleb128 0x32
 5396 094e C1080000 		.4byte	.LASF121
 5397 0952 01       		.byte	0x1
 5398 0953 0501     		.2byte	0x105
 5399 0955 9F030000 		.4byte	0x39f
 5400 0959 05       		.uleb128 0x5
 5401 095a 03       		.byte	0x3
 5402 095b 04000000 		.4byte	last_tick.7895
 5403 095f 32       		.uleb128 0x32
 5404 0960 760D0000 		.4byte	.LASF122
 5405 0964 01       		.byte	0x1
 5406 0965 0601     		.2byte	0x106
 5407 0967 97000000 		.4byte	0x97
 5408 096b 05       		.uleb128 0x5
 5409 096c 03       		.byte	0x3
 5410 096d 00000000 		.4byte	long_press_sent.7896
 5411 0971 33       		.uleb128 0x33
 5412 0972 6E6F7700 		.ascii	"now\000"
 5413 0976 01       		.byte	0x1
 5414 0977 0801     		.2byte	0x108
 5415 0979 9F030000 		.4byte	0x39f
 5416 097d D0020000 		.4byte	.LLST15
 5417 0981 2F       		.uleb128 0x2f
 5418 0982 08000000 		.4byte	.LVL50
 5419 0986 7B280000 		.4byte	0x287b
 5420 098a 2D       		.uleb128 0x2d
 5421 098b 44000000 		.4byte	.LVL55
 5422 098f 87280000 		.4byte	0x2887
 5423 0993 A3090000 		.4byte	0x9a3
 5424 0997 2C       		.uleb128 0x2c
 5425 0998 01       		.uleb128 0x1
 5426 0999 51       		.byte	0x51
 5427 099a 02       		.uleb128 0x2
 5428 099b 74       		.byte	0x74
 5429 099c 00       		.sleb128 0
 5430 099d 2C       		.uleb128 0x2c
 5431 099e 01       		.uleb128 0x1
 5432 099f 53       		.byte	0x53
 5433 09a0 01       		.uleb128 0x1
 5434 09a1 30       		.byte	0x30
 5435 09a2 00       		.byte	0
 5436 09a3 2D       		.uleb128 0x2d
 5437 09a4 56000000 		.4byte	.LVL56
 5438 09a8 52080000 		.4byte	0x852
 5439 09ac BC090000 		.4byte	0x9bc
 5440 09b0 2C       		.uleb128 0x2c
 5441 09b1 01       		.uleb128 0x1
 5442 09b2 50       		.byte	0x50
 5443 09b3 02       		.uleb128 0x2
ARM GAS  C:\Users\VIDEOH~1\AppData\Local\Temp\ccpdN5tN.s 			page 124


 5444 09b4 7D       		.byte	0x7d
 5445 09b5 00       		.sleb128 0
 5446 09b6 2C       		.uleb128 0x2c
 5447 09b7 01       		.uleb128 0x1
 5448 09b8 51       		.byte	0x51
 5449 09b9 01       		.uleb128 0x1
 5450 09ba 30       		.byte	0x30
 5451 09bb 00       		.byte	0
 5452 09bc 2B       		.uleb128 0x2b
 5453 09bd 74000000 		.4byte	.LVL57
 5454 09c1 93280000 		.4byte	0x2893
 5455 09c5 2C       		.uleb128 0x2c
 5456 09c6 01       		.uleb128 0x1
 5457 09c7 50       		.byte	0x50
 5458 09c8 01       		.uleb128 0x1
 5459 09c9 38       		.byte	0x38
 5460 09ca 00       		.byte	0
 5461 09cb 00       		.byte	0
 5462 09cc 07       		.uleb128 0x7
 5463 09cd 04       		.byte	0x4
 5464 09ce 54040000 		.4byte	0x454
 5465 09d2 34       		.uleb128 0x34
 5466 09d3 EB080000 		.4byte	.LASF123
 5467 09d7 01       		.byte	0x1
 5468 09d8 6702     		.2byte	0x267
 5469 09da EE040000 		.4byte	0x4ee
 5470 09de 00000000 		.4byte	.LFB57
 5471 09e2 34010000 		.4byte	.LFE57-.LFB57
 5472 09e6 01       		.uleb128 0x1
 5473 09e7 9C       		.byte	0x9c
 5474 09e8 AE0B0000 		.4byte	0xbae
 5475 09ec 25       		.uleb128 0x25
 5476 09ed 61726700 		.ascii	"arg\000"
 5477 09f1 01       		.byte	0x1
 5478 09f2 6702     		.2byte	0x267
 5479 09f4 5F040000 		.4byte	0x45f
 5480 09f8 04030000 		.4byte	.LLST16
 5481 09fc 32       		.uleb128 0x32
 5482 09fd FF020000 		.4byte	.LASF100
 5483 0a01 01       		.byte	0x1
 5484 0a02 6C02     		.2byte	0x26c
 5485 0a04 54040000 		.4byte	0x454
 5486 0a08 02       		.uleb128 0x2
 5487 0a09 91       		.byte	0x91
 5488 0a0a 58       		.sleb128 -40
 5489 0a0b 33       		.uleb128 0x33
 5490 0a0c 6F6E00   		.ascii	"on\000"
 5491 0a0f 01       		.byte	0x1
 5492 0a10 6D02     		.2byte	0x26d
 5493 0a12 81000000 		.4byte	0x81
 5494 0a16 25030000 		.4byte	.LLST17
 5495 0a1a 35       		.uleb128 0x35
 5496 0a1b 40050000 		.4byte	.LASF124
 5497 0a1f 01       		.byte	0x1
 5498 0a20 6E02     		.2byte	0x26e
 5499 0a22 7A000000 		.4byte	0x7a
 5500 0a26 38030000 		.4byte	.LLST18
ARM GAS  C:\Users\VIDEOH~1\AppData\Local\Temp\ccpdN5tN.s 			page 125


 5501 0a2a 36       		.uleb128 0x36
 5502 0a2b AD010000 		.4byte	.LASF125
 5503 0a2f 01       		.byte	0x1
 5504 0a30 7002     		.2byte	0x270
 5505 0a32 81000000 		.4byte	0x81
 5506 0a36 00       		.byte	0
 5507 0a37 37       		.uleb128 0x37
 5508 0a38 62756600 		.ascii	"buf\000"
 5509 0a3c 01       		.byte	0x1
 5510 0a3d 7102     		.2byte	0x271
 5511 0a3f 02010000 		.4byte	0x102
 5512 0a43 02       		.uleb128 0x2
 5513 0a44 91       		.byte	0x91
 5514 0a45 50       		.sleb128 -48
 5515 0a46 2F       		.uleb128 0x2f
 5516 0a47 0A000000 		.4byte	.LVL61
 5517 0a4b 5A280000 		.4byte	0x285a
 5518 0a4f 2D       		.uleb128 0x2d
 5519 0a50 16000000 		.4byte	.LVL62
 5520 0a54 65280000 		.4byte	0x2865
 5521 0a58 750A0000 		.4byte	0xa75
 5522 0a5c 2C       		.uleb128 0x2c
 5523 0a5d 01       		.uleb128 0x1
 5524 0a5e 50       		.byte	0x50
 5525 0a5f 01       		.uleb128 0x1
 5526 0a60 37       		.byte	0x37
 5527 0a61 2C       		.uleb128 0x2c
 5528 0a62 01       		.uleb128 0x1
 5529 0a63 51       		.byte	0x51
 5530 0a64 01       		.uleb128 0x1
 5531 0a65 30       		.byte	0x30
 5532 0a66 2C       		.uleb128 0x2c
 5533 0a67 01       		.uleb128 0x1
 5534 0a68 52       		.byte	0x52
 5535 0a69 05       		.uleb128 0x5
 5536 0a6a 03       		.byte	0x3
 5537 0a6b 4B000000 		.4byte	.LC26
 5538 0a6f 2C       		.uleb128 0x2c
 5539 0a70 01       		.uleb128 0x1
 5540 0a71 53       		.byte	0x53
 5541 0a72 01       		.uleb128 0x1
 5542 0a73 31       		.byte	0x31
 5543 0a74 00       		.byte	0
 5544 0a75 2F       		.uleb128 0x2f
 5545 0a76 2C000000 		.4byte	.LVL64
 5546 0a7a 4F280000 		.4byte	0x284f
 5547 0a7e 2D       		.uleb128 0x2d
 5548 0a7f 44000000 		.4byte	.LVL68
 5549 0a83 65280000 		.4byte	0x2865
 5550 0a87 A50A0000 		.4byte	0xaa5
 5551 0a8b 2C       		.uleb128 0x2c
 5552 0a8c 01       		.uleb128 0x1
 5553 0a8d 50       		.byte	0x50
 5554 0a8e 01       		.uleb128 0x1
 5555 0a8f 34       		.byte	0x34
 5556 0a90 2C       		.uleb128 0x2c
 5557 0a91 01       		.uleb128 0x1
ARM GAS  C:\Users\VIDEOH~1\AppData\Local\Temp\ccpdN5tN.s 			page 126


 5558 0a92 51       		.byte	0x51
 5559 0a93 01       		.uleb128 0x1
 5560 0a94 41       		.byte	0x41
 5561 0a95 2C       		.uleb128 0x2c
 5562 0a96 01       		.uleb128 0x1
 5563 0a97 52       		.byte	0x52
 5564 0a98 05       		.uleb128 0x5
 5565 0a99 03       		.byte	0x3
 5566 0a9a 56000000 		.4byte	.LC29
 5567 0a9e 2C       		.uleb128 0x2c
 5568 0a9f 01       		.uleb128 0x1
 5569 0aa0 53       		.byte	0x53
 5570 0aa1 02       		.uleb128 0x2
 5571 0aa2 76       		.byte	0x76
 5572 0aa3 00       		.sleb128 0
 5573 0aa4 00       		.byte	0
 5574 0aa5 2D       		.uleb128 0x2d
 5575 0aa6 52000000 		.4byte	.LVL69
 5576 0aaa 65280000 		.4byte	0x2865
 5577 0aae CF0A0000 		.4byte	0xacf
 5578 0ab2 2C       		.uleb128 0x2c
 5579 0ab3 01       		.uleb128 0x1
 5580 0ab4 50       		.byte	0x50
 5581 0ab5 01       		.uleb128 0x1
 5582 0ab6 34       		.byte	0x34
 5583 0ab7 2C       		.uleb128 0x2c
 5584 0ab8 01       		.uleb128 0x1
 5585 0ab9 51       		.byte	0x51
 5586 0aba 02       		.uleb128 0x2
 5587 0abb 08       		.byte	0x8
 5588 0abc 4D       		.byte	0x4d
 5589 0abd 2C       		.uleb128 0x2c
 5590 0abe 01       		.uleb128 0x1
 5591 0abf 52       		.byte	0x52
 5592 0ac0 05       		.uleb128 0x5
 5593 0ac1 03       		.byte	0x3
 5594 0ac2 59000000 		.4byte	.LC31
 5595 0ac6 2C       		.uleb128 0x2c
 5596 0ac7 01       		.uleb128 0x1
 5597 0ac8 53       		.byte	0x53
 5598 0ac9 04       		.uleb128 0x4
 5599 0aca 76       		.byte	0x76
 5600 0acb 00       		.sleb128 0
 5601 0acc 31       		.byte	0x31
 5602 0acd 27       		.byte	0x27
 5603 0ace 00       		.byte	0
 5604 0acf 2D       		.uleb128 0x2d
 5605 0ad0 5C000000 		.4byte	.LVL70
 5606 0ad4 2E070000 		.4byte	0x72e
 5607 0ad8 F20A0000 		.4byte	0xaf2
 5608 0adc 2C       		.uleb128 0x2c
 5609 0add 01       		.uleb128 0x1
 5610 0ade 50       		.byte	0x50
 5611 0adf 02       		.uleb128 0x2
 5612 0ae0 74       		.byte	0x74
 5613 0ae1 00       		.sleb128 0
 5614 0ae2 2C       		.uleb128 0x2c
ARM GAS  C:\Users\VIDEOH~1\AppData\Local\Temp\ccpdN5tN.s 			page 127


 5615 0ae3 01       		.uleb128 0x1
 5616 0ae4 51       		.byte	0x51
 5617 0ae5 05       		.uleb128 0x5
 5618 0ae6 03       		.byte	0x3
 5619 0ae7 24000000 		.4byte	.LC12
 5620 0aeb 2C       		.uleb128 0x2c
 5621 0aec 01       		.uleb128 0x1
 5622 0aed 52       		.byte	0x52
 5623 0aee 02       		.uleb128 0x2
 5624 0aef 91       		.byte	0x91
 5625 0af0 50       		.sleb128 -48
 5626 0af1 00       		.byte	0
 5627 0af2 2D       		.uleb128 0x2d
 5628 0af3 6A000000 		.4byte	.LVL71
 5629 0af7 65280000 		.4byte	0x2865
 5630 0afb 160B0000 		.4byte	0xb16
 5631 0aff 2C       		.uleb128 0x2c
 5632 0b00 01       		.uleb128 0x1
 5633 0b01 50       		.byte	0x50
 5634 0b02 01       		.uleb128 0x1
 5635 0b03 31       		.byte	0x31
 5636 0b04 2C       		.uleb128 0x2c
 5637 0b05 01       		.uleb128 0x1
 5638 0b06 51       		.byte	0x51
 5639 0b07 02       		.uleb128 0x2
 5640 0b08 08       		.byte	0x8
 5641 0b09 28       		.byte	0x28
 5642 0b0a 2C       		.uleb128 0x2c
 5643 0b0b 01       		.uleb128 0x1
 5644 0b0c 52       		.byte	0x52
 5645 0b0d 02       		.uleb128 0x2
 5646 0b0e 91       		.byte	0x91
 5647 0b0f 50       		.sleb128 -48
 5648 0b10 2C       		.uleb128 0x2c
 5649 0b11 01       		.uleb128 0x1
 5650 0b12 53       		.byte	0x53
 5651 0b13 01       		.uleb128 0x1
 5652 0b14 30       		.byte	0x30
 5653 0b15 00       		.byte	0
 5654 0b16 2D       		.uleb128 0x2d
 5655 0b17 70000000 		.4byte	.LVL72
 5656 0b1b 27090000 		.4byte	0x927
 5657 0b1f 2A0B0000 		.4byte	0xb2a
 5658 0b23 2C       		.uleb128 0x2c
 5659 0b24 01       		.uleb128 0x1
 5660 0b25 50       		.byte	0x50
 5661 0b26 02       		.uleb128 0x2
 5662 0b27 77       		.byte	0x77
 5663 0b28 00       		.sleb128 0
 5664 0b29 00       		.byte	0
 5665 0b2a 2D       		.uleb128 0x2d
 5666 0b2b BE000000 		.4byte	.LVL76
 5667 0b2f 2E070000 		.4byte	0x72e
 5668 0b33 4D0B0000 		.4byte	0xb4d
 5669 0b37 2C       		.uleb128 0x2c
 5670 0b38 01       		.uleb128 0x1
 5671 0b39 50       		.byte	0x50
ARM GAS  C:\Users\VIDEOH~1\AppData\Local\Temp\ccpdN5tN.s 			page 128


 5672 0b3a 02       		.uleb128 0x2
 5673 0b3b 74       		.byte	0x74
 5674 0b3c 00       		.sleb128 0
 5675 0b3d 2C       		.uleb128 0x2c
 5676 0b3e 01       		.uleb128 0x1
 5677 0b3f 51       		.byte	0x51
 5678 0b40 05       		.uleb128 0x5
 5679 0b41 03       		.byte	0x3
 5680 0b42 24000000 		.4byte	.LC12
 5681 0b46 2C       		.uleb128 0x2c
 5682 0b47 01       		.uleb128 0x1
 5683 0b48 52       		.byte	0x52
 5684 0b49 02       		.uleb128 0x2
 5685 0b4a 91       		.byte	0x91
 5686 0b4b 50       		.sleb128 -48
 5687 0b4c 00       		.byte	0
 5688 0b4d 2D       		.uleb128 0x2d
 5689 0b4e CC000000 		.4byte	.LVL77
 5690 0b52 9E280000 		.4byte	0x289e
 5691 0b56 790B0000 		.4byte	0xb79
 5692 0b5a 2C       		.uleb128 0x2c
 5693 0b5b 01       		.uleb128 0x1
 5694 0b5c 50       		.byte	0x50
 5695 0b5d 02       		.uleb128 0x2
 5696 0b5e 76       		.byte	0x76
 5697 0b5f 00       		.sleb128 0
 5698 0b60 2C       		.uleb128 0x2c
 5699 0b61 01       		.uleb128 0x1
 5700 0b62 51       		.byte	0x51
 5701 0b63 02       		.uleb128 0x2
 5702 0b64 08       		.byte	0x8
 5703 0b65 50       		.byte	0x50
 5704 0b66 2C       		.uleb128 0x2c
 5705 0b67 01       		.uleb128 0x1
 5706 0b68 52       		.byte	0x52
 5707 0b69 01       		.uleb128 0x1
 5708 0b6a 31       		.byte	0x31
 5709 0b6b 2C       		.uleb128 0x2c
 5710 0b6c 01       		.uleb128 0x1
 5711 0b6d 53       		.byte	0x53
 5712 0b6e 02       		.uleb128 0x2
 5713 0b6f 08       		.byte	0x8
 5714 0b70 72       		.byte	0x72
 5715 0b71 2C       		.uleb128 0x2c
 5716 0b72 02       		.uleb128 0x2
 5717 0b73 7D       		.byte	0x7d
 5718 0b74 00       		.sleb128 0
 5719 0b75 02       		.uleb128 0x2
 5720 0b76 76       		.byte	0x76
 5721 0b77 00       		.sleb128 0
 5722 0b78 00       		.byte	0
 5723 0b79 2D       		.uleb128 0x2d
 5724 0b7a DA000000 		.4byte	.LVL78
 5725 0b7e 65280000 		.4byte	0x2865
 5726 0b82 9D0B0000 		.4byte	0xb9d
 5727 0b86 2C       		.uleb128 0x2c
 5728 0b87 01       		.uleb128 0x1
ARM GAS  C:\Users\VIDEOH~1\AppData\Local\Temp\ccpdN5tN.s 			page 129


 5729 0b88 50       		.byte	0x50
 5730 0b89 01       		.uleb128 0x1
 5731 0b8a 31       		.byte	0x31
 5732 0b8b 2C       		.uleb128 0x2c
 5733 0b8c 01       		.uleb128 0x1
 5734 0b8d 51       		.byte	0x51
 5735 0b8e 02       		.uleb128 0x2
 5736 0b8f 08       		.byte	0x8
 5737 0b90 28       		.byte	0x28
 5738 0b91 2C       		.uleb128 0x2c
 5739 0b92 01       		.uleb128 0x1
 5740 0b93 52       		.byte	0x52
 5741 0b94 02       		.uleb128 0x2
 5742 0b95 91       		.byte	0x91
 5743 0b96 50       		.sleb128 -48
 5744 0b97 2C       		.uleb128 0x2c
 5745 0b98 01       		.uleb128 0x1
 5746 0b99 53       		.byte	0x53
 5747 0b9a 01       		.uleb128 0x1
 5748 0b9b 31       		.byte	0x31
 5749 0b9c 00       		.byte	0
 5750 0b9d 2B       		.uleb128 0x2b
 5751 0b9e E0000000 		.4byte	.LVL79
 5752 0ba2 27090000 		.4byte	0x927
 5753 0ba6 2C       		.uleb128 0x2c
 5754 0ba7 01       		.uleb128 0x1
 5755 0ba8 50       		.byte	0x50
 5756 0ba9 02       		.uleb128 0x2
 5757 0baa 77       		.byte	0x77
 5758 0bab 00       		.sleb128 0
 5759 0bac 00       		.byte	0
 5760 0bad 00       		.byte	0
 5761 0bae 38       		.uleb128 0x38
 5762 0baf 0E070000 		.4byte	.LASF127
 5763 0bb3 01       		.byte	0x1
 5764 0bb4 8B03     		.2byte	0x38b
 5765 0bb6 00000000 		.4byte	.LFB65
 5766 0bba 1A000000 		.4byte	.LFE65-.LFB65
 5767 0bbe 01       		.uleb128 0x1
 5768 0bbf 9C       		.byte	0x9c
 5769 0bc0 050C0000 		.4byte	0xc05
 5770 0bc4 31       		.uleb128 0x31
 5771 0bc5 DF0C0000 		.4byte	.LASF128
 5772 0bc9 01       		.byte	0x1
 5773 0bca 8B03     		.2byte	0x38b
 5774 0bcc 7A000000 		.4byte	0x7a
 5775 0bd0 56030000 		.4byte	.LLST19
 5776 0bd4 25       		.uleb128 0x25
 5777 0bd5 616C6C00 		.ascii	"all\000"
 5778 0bd9 01       		.byte	0x1
 5779 0bda 8B03     		.2byte	0x38b
 5780 0bdc 7A000000 		.4byte	0x7a
 5781 0be0 77030000 		.4byte	.LLST20
 5782 0be4 2B       		.uleb128 0x2b
 5783 0be5 18000000 		.4byte	.LVL87
 5784 0be9 9E280000 		.4byte	0x289e
 5785 0bed 2C       		.uleb128 0x2c
ARM GAS  C:\Users\VIDEOH~1\AppData\Local\Temp\ccpdN5tN.s 			page 130


 5786 0bee 01       		.uleb128 0x1
 5787 0bef 50       		.byte	0x50
 5788 0bf0 01       		.uleb128 0x1
 5789 0bf1 30       		.byte	0x30
 5790 0bf2 2C       		.uleb128 0x2c
 5791 0bf3 01       		.uleb128 0x1
 5792 0bf4 51       		.byte	0x51
 5793 0bf5 01       		.uleb128 0x1
 5794 0bf6 32       		.byte	0x32
 5795 0bf7 2C       		.uleb128 0x2c
 5796 0bf8 01       		.uleb128 0x1
 5797 0bf9 52       		.byte	0x52
 5798 0bfa 01       		.uleb128 0x1
 5799 0bfb 31       		.byte	0x31
 5800 0bfc 2C       		.uleb128 0x2c
 5801 0bfd 02       		.uleb128 0x2
 5802 0bfe 7D       		.byte	0x7d
 5803 0bff 00       		.sleb128 0
 5804 0c00 02       		.uleb128 0x2
 5805 0c01 09       		.byte	0x9
 5806 0c02 FF       		.byte	0xff
 5807 0c03 00       		.byte	0
 5808 0c04 00       		.byte	0
 5809 0c05 1E       		.uleb128 0x1e
 5810 0c06 E9010000 		.4byte	.LASF129
 5811 0c0a 01       		.byte	0x1
 5812 0c0b 8F03     		.2byte	0x38f
 5813 0c0d 01       		.byte	0x1
 5814 0c0e 1F0C0000 		.4byte	0xc1f
 5815 0c12 1F       		.uleb128 0x1f
 5816 0c13 040A0000 		.4byte	.LASF130
 5817 0c17 01       		.byte	0x1
 5818 0c18 8F03     		.2byte	0x38f
 5819 0c1a 1F0C0000 		.4byte	0xc1f
 5820 0c1e 00       		.byte	0
 5821 0c1f 07       		.uleb128 0x7
 5822 0c20 04       		.byte	0x4
 5823 0c21 75030000 		.4byte	0x375
 5824 0c25 1E       		.uleb128 0x1e
 5825 0c26 A5030000 		.4byte	.LASF131
 5826 0c2a 01       		.byte	0x1
 5827 0c2b 6403     		.2byte	0x364
 5828 0c2d 01       		.byte	0x1
 5829 0c2e 6F0C0000 		.4byte	0xc6f
 5830 0c32 1F       		.uleb128 0x1f
 5831 0c33 040A0000 		.4byte	.LASF130
 5832 0c37 01       		.byte	0x1
 5833 0c38 6403     		.2byte	0x364
 5834 0c3a 1F0C0000 		.4byte	0xc1f
 5835 0c3e 22       		.uleb128 0x22
 5836 0c3f FF020000 		.4byte	.LASF100
 5837 0c43 01       		.byte	0x1
 5838 0c44 6E03     		.2byte	0x36e
 5839 0c46 54040000 		.4byte	0x454
 5840 0c4a 21       		.uleb128 0x21
 5841 0c4b 62756600 		.ascii	"buf\000"
 5842 0c4f 01       		.byte	0x1
ARM GAS  C:\Users\VIDEOH~1\AppData\Local\Temp\ccpdN5tN.s 			page 131


 5843 0c50 6F03     		.2byte	0x36f
 5844 0c52 6F0C0000 		.4byte	0xc6f
 5845 0c56 22       		.uleb128 0x22
 5846 0c57 DF0C0000 		.4byte	.LASF128
 5847 0c5b 01       		.byte	0x1
 5848 0c5c 7003     		.2byte	0x370
 5849 0c5e 7A000000 		.4byte	0x7a
 5850 0c62 22       		.uleb128 0x22
 5851 0c63 B3010000 		.4byte	.LASF132
 5852 0c67 01       		.byte	0x1
 5853 0c68 7003     		.2byte	0x370
 5854 0c6a 7A000000 		.4byte	0x7a
 5855 0c6e 00       		.byte	0
 5856 0c6f 09       		.uleb128 0x9
 5857 0c70 E1000000 		.4byte	0xe1
 5858 0c74 7F0C0000 		.4byte	0xc7f
 5859 0c78 0A       		.uleb128 0xa
 5860 0c79 E8000000 		.4byte	0xe8
 5861 0c7d 0F       		.byte	0xf
 5862 0c7e 00       		.byte	0
 5863 0c7f 1E       		.uleb128 0x1e
 5864 0c80 3C090000 		.4byte	.LASF133
 5865 0c84 01       		.byte	0x1
 5866 0c85 4203     		.2byte	0x342
 5867 0c87 01       		.byte	0x1
 5868 0c88 BD0C0000 		.4byte	0xcbd
 5869 0c8c 1F       		.uleb128 0x1f
 5870 0c8d 040A0000 		.4byte	.LASF130
 5871 0c91 01       		.byte	0x1
 5872 0c92 4203     		.2byte	0x342
 5873 0c94 1F0C0000 		.4byte	0xc1f
 5874 0c98 22       		.uleb128 0x22
 5875 0c99 FF020000 		.4byte	.LASF100
 5876 0c9d 01       		.byte	0x1
 5877 0c9e 4C03     		.2byte	0x34c
 5878 0ca0 54040000 		.4byte	0x454
 5879 0ca4 21       		.uleb128 0x21
 5880 0ca5 62756600 		.ascii	"buf\000"
 5881 0ca9 01       		.byte	0x1
 5882 0caa 4D03     		.2byte	0x34d
 5883 0cac 6F0C0000 		.4byte	0xc6f
 5884 0cb0 22       		.uleb128 0x22
 5885 0cb1 DF0C0000 		.4byte	.LASF128
 5886 0cb5 01       		.byte	0x1
 5887 0cb6 4E03     		.2byte	0x34e
 5888 0cb8 7A000000 		.4byte	0x7a
 5889 0cbc 00       		.byte	0
 5890 0cbd 1E       		.uleb128 0x1e
 5891 0cbe D2090000 		.4byte	.LASF134
 5892 0cc2 01       		.byte	0x1
 5893 0cc3 2403     		.2byte	0x324
 5894 0cc5 01       		.byte	0x1
 5895 0cc6 FD0C0000 		.4byte	0xcfd
 5896 0cca 1F       		.uleb128 0x1f
 5897 0ccb 040A0000 		.4byte	.LASF130
 5898 0ccf 01       		.byte	0x1
 5899 0cd0 2403     		.2byte	0x324
ARM GAS  C:\Users\VIDEOH~1\AppData\Local\Temp\ccpdN5tN.s 			page 132


 5900 0cd2 1F0C0000 		.4byte	0xc1f
 5901 0cd6 22       		.uleb128 0x22
 5902 0cd7 FF020000 		.4byte	.LASF100
 5903 0cdb 01       		.byte	0x1
 5904 0cdc 2C03     		.2byte	0x32c
 5905 0cde 54040000 		.4byte	0x454
 5906 0ce2 21       		.uleb128 0x21
 5907 0ce3 62756600 		.ascii	"buf\000"
 5908 0ce7 01       		.byte	0x1
 5909 0ce8 2D03     		.2byte	0x32d
 5910 0cea 6F0C0000 		.4byte	0xc6f
 5911 0cee 23       		.uleb128 0x23
 5912 0cef 22       		.uleb128 0x22
 5913 0cf0 B3010000 		.4byte	.LASF132
 5914 0cf4 01       		.byte	0x1
 5915 0cf5 3203     		.2byte	0x332
 5916 0cf7 7A000000 		.4byte	0x7a
 5917 0cfb 00       		.byte	0
 5918 0cfc 00       		.byte	0
 5919 0cfd 1E       		.uleb128 0x1e
 5920 0cfe 45040000 		.4byte	.LASF135
 5921 0d02 01       		.byte	0x1
 5922 0d03 0E03     		.2byte	0x30e
 5923 0d05 01       		.byte	0x1
 5924 0d06 230D0000 		.4byte	0xd23
 5925 0d0a 1F       		.uleb128 0x1f
 5926 0d0b 040A0000 		.4byte	.LASF130
 5927 0d0f 01       		.byte	0x1
 5928 0d10 0E03     		.2byte	0x30e
 5929 0d12 1F0C0000 		.4byte	0xc1f
 5930 0d16 22       		.uleb128 0x22
 5931 0d17 FF020000 		.4byte	.LASF100
 5932 0d1b 01       		.byte	0x1
 5933 0d1c 1903     		.2byte	0x319
 5934 0d1e 54040000 		.4byte	0x454
 5935 0d22 00       		.byte	0
 5936 0d23 34       		.uleb128 0x34
 5937 0d24 480B0000 		.4byte	.LASF136
 5938 0d28 01       		.byte	0x1
 5939 0d29 9B03     		.2byte	0x39b
 5940 0d2b EE040000 		.4byte	0x4ee
 5941 0d2f 00000000 		.4byte	.LFB67
 5942 0d33 20030000 		.4byte	.LFE67-.LFB67
 5943 0d37 01       		.uleb128 0x1
 5944 0d38 9C       		.byte	0x9c
 5945 0d39 F8130000 		.4byte	0x13f8
 5946 0d3d 25       		.uleb128 0x25
 5947 0d3e 61726700 		.ascii	"arg\000"
 5948 0d42 01       		.byte	0x1
 5949 0d43 9B03     		.2byte	0x39b
 5950 0d45 5F040000 		.4byte	0x45f
 5951 0d49 98030000 		.4byte	.LLST21
 5952 0d4d 32       		.uleb128 0x32
 5953 0d4e 040A0000 		.4byte	.LASF130
 5954 0d52 01       		.byte	0x1
 5955 0d53 9F03     		.2byte	0x39f
 5956 0d55 75030000 		.4byte	0x375
ARM GAS  C:\Users\VIDEOH~1\AppData\Local\Temp\ccpdN5tN.s 			page 133


 5957 0d59 03       		.uleb128 0x3
 5958 0d5a 91       		.byte	0x91
 5959 0d5b B07F     		.sleb128 -80
 5960 0d5d 39       		.uleb128 0x39
 5961 0d5e FD0C0000 		.4byte	0xcfd
 5962 0d62 2E000000 		.4byte	.LBB14
 5963 0d66 00000000 		.4byte	.Ldebug_ranges0+0
 5964 0d6a 01       		.byte	0x1
 5965 0d6b A603     		.2byte	0x3a6
 5966 0d6d 490E0000 		.4byte	0xe49
 5967 0d71 3A       		.uleb128 0x3a
 5968 0d72 0A0D0000 		.4byte	0xd0a
 5969 0d76 B9030000 		.4byte	.LLST22
 5970 0d7a 3B       		.uleb128 0x3b
 5971 0d7b 00000000 		.4byte	.Ldebug_ranges0+0
 5972 0d7f 3C       		.uleb128 0x3c
 5973 0d80 160D0000 		.4byte	0xd16
 5974 0d84 03       		.uleb128 0x3
 5975 0d85 91       		.byte	0x91
 5976 0d86 A07F     		.sleb128 -96
 5977 0d88 2D       		.uleb128 0x2d
 5978 0d89 4A000000 		.4byte	.LVL95
 5979 0d8d A9280000 		.4byte	0x28a9
 5980 0d91 9B0D0000 		.4byte	0xd9b
 5981 0d95 2C       		.uleb128 0x2c
 5982 0d96 01       		.uleb128 0x1
 5983 0d97 50       		.byte	0x50
 5984 0d98 01       		.uleb128 0x1
 5985 0d99 30       		.byte	0x30
 5986 0d9a 00       		.byte	0
 5987 0d9b 2D       		.uleb128 0x2d
 5988 0d9c 50000000 		.4byte	.LVL96
 5989 0da0 B4280000 		.4byte	0x28b4
 5990 0da4 AE0D0000 		.4byte	0xdae
 5991 0da8 2C       		.uleb128 0x2c
 5992 0da9 01       		.uleb128 0x1
 5993 0daa 50       		.byte	0x50
 5994 0dab 01       		.uleb128 0x1
 5995 0dac 30       		.byte	0x30
 5996 0dad 00       		.byte	0
 5997 0dae 2D       		.uleb128 0x2d
 5998 0daf 5C000000 		.4byte	.LVL97
 5999 0db3 65280000 		.4byte	0x2865
 6000 0db7 D40D0000 		.4byte	0xdd4
 6001 0dbb 2C       		.uleb128 0x2c
 6002 0dbc 01       		.uleb128 0x1
 6003 0dbd 50       		.byte	0x50
 6004 0dbe 01       		.uleb128 0x1
 6005 0dbf 35       		.byte	0x35
 6006 0dc0 2C       		.uleb128 0x2c
 6007 0dc1 01       		.uleb128 0x1
 6008 0dc2 51       		.byte	0x51
 6009 0dc3 01       		.uleb128 0x1
 6010 0dc4 4A       		.byte	0x4a
 6011 0dc5 2C       		.uleb128 0x2c
 6012 0dc6 01       		.uleb128 0x1
 6013 0dc7 52       		.byte	0x52
ARM GAS  C:\Users\VIDEOH~1\AppData\Local\Temp\ccpdN5tN.s 			page 134


 6014 0dc8 05       		.uleb128 0x5
 6015 0dc9 03       		.byte	0x3
 6016 0dca 67000000 		.4byte	.LC41
 6017 0dce 2C       		.uleb128 0x2c
 6018 0dcf 01       		.uleb128 0x1
 6019 0dd0 53       		.byte	0x53
 6020 0dd1 01       		.uleb128 0x1
 6021 0dd2 30       		.byte	0x30
 6022 0dd3 00       		.byte	0
 6023 0dd4 2D       		.uleb128 0x2d
 6024 0dd5 68000000 		.4byte	.LVL98
 6025 0dd9 65280000 		.4byte	0x2865
 6026 0ddd FB0D0000 		.4byte	0xdfb
 6027 0de1 2C       		.uleb128 0x2c
 6028 0de2 01       		.uleb128 0x1
 6029 0de3 50       		.byte	0x50
 6030 0de4 01       		.uleb128 0x1
 6031 0de5 33       		.byte	0x33
 6032 0de6 2C       		.uleb128 0x2c
 6033 0de7 01       		.uleb128 0x1
 6034 0de8 51       		.byte	0x51
 6035 0de9 02       		.uleb128 0x2
 6036 0dea 08       		.byte	0x8
 6037 0deb 20       		.byte	0x20
 6038 0dec 2C       		.uleb128 0x2c
 6039 0ded 01       		.uleb128 0x1
 6040 0dee 52       		.byte	0x52
 6041 0def 05       		.uleb128 0x5
 6042 0df0 03       		.byte	0x3
 6043 0df1 6E000000 		.4byte	.LC43
 6044 0df5 2C       		.uleb128 0x2c
 6045 0df6 01       		.uleb128 0x1
 6046 0df7 53       		.byte	0x53
 6047 0df8 01       		.uleb128 0x1
 6048 0df9 30       		.byte	0x30
 6049 0dfa 00       		.byte	0
 6050 0dfb 2D       		.uleb128 0x2d
 6051 0dfc 74000000 		.4byte	.LVL99
 6052 0e00 65280000 		.4byte	0x2865
 6053 0e04 220E0000 		.4byte	0xe22
 6054 0e08 2C       		.uleb128 0x2c
 6055 0e09 01       		.uleb128 0x1
 6056 0e0a 50       		.byte	0x50
 6057 0e0b 02       		.uleb128 0x2
 6058 0e0c 74       		.byte	0x74
 6059 0e0d 00       		.sleb128 0
 6060 0e0e 2C       		.uleb128 0x2c
 6061 0e0f 01       		.uleb128 0x1
 6062 0e10 51       		.byte	0x51
 6063 0e11 01       		.uleb128 0x1
 6064 0e12 4A       		.byte	0x4a
 6065 0e13 2C       		.uleb128 0x2c
 6066 0e14 01       		.uleb128 0x1
 6067 0e15 52       		.byte	0x52
 6068 0e16 05       		.uleb128 0x5
 6069 0e17 03       		.byte	0x3
 6070 0e18 74000000 		.4byte	.LC45
ARM GAS  C:\Users\VIDEOH~1\AppData\Local\Temp\ccpdN5tN.s 			page 135


 6071 0e1c 2C       		.uleb128 0x2c
 6072 0e1d 01       		.uleb128 0x1
 6073 0e1e 53       		.byte	0x53
 6074 0e1f 01       		.uleb128 0x1
 6075 0e20 30       		.byte	0x30
 6076 0e21 00       		.byte	0
 6077 0e22 2D       		.uleb128 0x2d
 6078 0e23 88000000 		.4byte	.LVL100
 6079 0e27 27090000 		.4byte	0x927
 6080 0e2b 360E0000 		.4byte	0xe36
 6081 0e2f 2C       		.uleb128 0x2c
 6082 0e30 01       		.uleb128 0x1
 6083 0e31 50       		.byte	0x50
 6084 0e32 02       		.uleb128 0x2
 6085 0e33 74       		.byte	0x74
 6086 0e34 00       		.sleb128 0
 6087 0e35 00       		.byte	0
 6088 0e36 2B       		.uleb128 0x2b
 6089 0e37 96000000 		.4byte	.LVL102
 6090 0e3b BF280000 		.4byte	0x28bf
 6091 0e3f 2C       		.uleb128 0x2c
 6092 0e40 01       		.uleb128 0x1
 6093 0e41 50       		.byte	0x50
 6094 0e42 03       		.uleb128 0x3
 6095 0e43 91       		.byte	0x91
 6096 0e44 B07F     		.sleb128 -80
 6097 0e46 00       		.byte	0
 6098 0e47 00       		.byte	0
 6099 0e48 00       		.byte	0
 6100 0e49 3D       		.uleb128 0x3d
 6101 0e4a BD0C0000 		.4byte	0xcbd
 6102 0e4e 96000000 		.4byte	.LBB18
 6103 0e52 74000000 		.4byte	.LBE18-.LBB18
 6104 0e56 01       		.byte	0x1
 6105 0e57 A703     		.2byte	0x3a7
 6106 0e59 5B0F0000 		.4byte	0xf5b
 6107 0e5d 3A       		.uleb128 0x3a
 6108 0e5e CA0C0000 		.4byte	0xcca
 6109 0e62 E8030000 		.4byte	.LLST23
 6110 0e66 3E       		.uleb128 0x3e
 6111 0e67 96000000 		.4byte	.LBB19
 6112 0e6b 74000000 		.4byte	.LBE19-.LBB19
 6113 0e6f 3C       		.uleb128 0x3c
 6114 0e70 D60C0000 		.4byte	0xcd6
 6115 0e74 03       		.uleb128 0x3
 6116 0e75 91       		.byte	0x91
 6117 0e76 907F     		.sleb128 -112
 6118 0e78 3C       		.uleb128 0x3c
 6119 0e79 E20C0000 		.4byte	0xce2
 6120 0e7d 03       		.uleb128 0x3
 6121 0e7e 91       		.byte	0x91
 6122 0e7f A07F     		.sleb128 -96
 6123 0e81 3F       		.uleb128 0x3f
 6124 0e82 C0000000 		.4byte	.LBB20
 6125 0e86 44000000 		.4byte	.LBE20-.LBB20
 6126 0e8a 110F0000 		.4byte	0xf11
 6127 0e8e 40       		.uleb128 0x40
ARM GAS  C:\Users\VIDEOH~1\AppData\Local\Temp\ccpdN5tN.s 			page 136


 6128 0e8f EF0C0000 		.4byte	0xcef
 6129 0e93 FE030000 		.4byte	.LLST24
 6130 0e97 2D       		.uleb128 0x2d
 6131 0e98 C6000000 		.4byte	.LVL106
 6132 0e9c 27090000 		.4byte	0x927
 6133 0ea0 AB0E0000 		.4byte	0xeab
 6134 0ea4 2C       		.uleb128 0x2c
 6135 0ea5 01       		.uleb128 0x1
 6136 0ea6 50       		.byte	0x50
 6137 0ea7 02       		.uleb128 0x2
 6138 0ea8 74       		.byte	0x74
 6139 0ea9 00       		.sleb128 0
 6140 0eaa 00       		.byte	0
 6141 0eab 2F       		.uleb128 0x2f
 6142 0eac CA000000 		.4byte	.LVL107
 6143 0eb0 CA280000 		.4byte	0x28ca
 6144 0eb4 2D       		.uleb128 0x2d
 6145 0eb5 DC000000 		.4byte	.LVL109
 6146 0eb9 A7060000 		.4byte	0x6a7
 6147 0ebd D20E0000 		.4byte	0xed2
 6148 0ec1 2C       		.uleb128 0x2c
 6149 0ec2 01       		.uleb128 0x1
 6150 0ec3 51       		.byte	0x51
 6151 0ec4 05       		.uleb128 0x5
 6152 0ec5 03       		.byte	0x3
 6153 0ec6 24000000 		.4byte	.LC12
 6154 0eca 2C       		.uleb128 0x2c
 6155 0ecb 01       		.uleb128 0x1
 6156 0ecc 52       		.byte	0x52
 6157 0ecd 03       		.uleb128 0x3
 6158 0ece 91       		.byte	0x91
 6159 0ecf A07F     		.sleb128 -96
 6160 0ed1 00       		.byte	0
 6161 0ed2 2D       		.uleb128 0x2d
 6162 0ed3 E4000000 		.4byte	.LVL110
 6163 0ed7 44280000 		.4byte	0x2844
 6164 0edb F00E0000 		.4byte	0xef0
 6165 0edf 2C       		.uleb128 0x2c
 6166 0ee0 01       		.uleb128 0x1
 6167 0ee1 50       		.byte	0x50
 6168 0ee2 03       		.uleb128 0x3
 6169 0ee3 91       		.byte	0x91
 6170 0ee4 A07F     		.sleb128 -96
 6171 0ee6 2C       		.uleb128 0x2c
 6172 0ee7 01       		.uleb128 0x1
 6173 0ee8 51       		.byte	0x51
 6174 0ee9 05       		.uleb128 0x5
 6175 0eea 03       		.byte	0x3
 6176 0eeb 85000000 		.4byte	.LC50
 6177 0eef 00       		.byte	0
 6178 0ef0 2B       		.uleb128 0x2b
 6179 0ef1 F0000000 		.4byte	.LVL111
 6180 0ef5 65280000 		.4byte	0x2865
 6181 0ef9 2C       		.uleb128 0x2c
 6182 0efa 01       		.uleb128 0x1
 6183 0efb 50       		.byte	0x50
 6184 0efc 01       		.uleb128 0x1
ARM GAS  C:\Users\VIDEOH~1\AppData\Local\Temp\ccpdN5tN.s 			page 137


 6185 0efd 33       		.byte	0x33
 6186 0efe 2C       		.uleb128 0x2c
 6187 0eff 01       		.uleb128 0x1
 6188 0f00 51       		.byte	0x51
 6189 0f01 01       		.uleb128 0x1
 6190 0f02 3E       		.byte	0x3e
 6191 0f03 2C       		.uleb128 0x2c
 6192 0f04 01       		.uleb128 0x1
 6193 0f05 52       		.byte	0x52
 6194 0f06 03       		.uleb128 0x3
 6195 0f07 91       		.byte	0x91
 6196 0f08 A07F     		.sleb128 -96
 6197 0f0a 2C       		.uleb128 0x2c
 6198 0f0b 01       		.uleb128 0x1
 6199 0f0c 53       		.byte	0x53
 6200 0f0d 01       		.uleb128 0x1
 6201 0f0e 30       		.byte	0x30
 6202 0f0f 00       		.byte	0
 6203 0f10 00       		.byte	0
 6204 0f11 2D       		.uleb128 0x2d
 6205 0f12 A0000000 		.4byte	.LVL103
 6206 0f16 A9280000 		.4byte	0x28a9
 6207 0f1a 240F0000 		.4byte	0xf24
 6208 0f1e 2C       		.uleb128 0x2c
 6209 0f1f 01       		.uleb128 0x1
 6210 0f20 50       		.byte	0x50
 6211 0f21 01       		.uleb128 0x1
 6212 0f22 30       		.byte	0x30
 6213 0f23 00       		.byte	0
 6214 0f24 2D       		.uleb128 0x2d
 6215 0f25 A6000000 		.4byte	.LVL104
 6216 0f29 B4280000 		.4byte	0x28b4
 6217 0f2d 370F0000 		.4byte	0xf37
 6218 0f31 2C       		.uleb128 0x2c
 6219 0f32 01       		.uleb128 0x1
 6220 0f33 50       		.byte	0x50
 6221 0f34 01       		.uleb128 0x1
 6222 0f35 30       		.byte	0x30
 6223 0f36 00       		.byte	0
 6224 0f37 2B       		.uleb128 0x2b
 6225 0f38 B2000000 		.4byte	.LVL105
 6226 0f3c 65280000 		.4byte	0x2865
 6227 0f40 2C       		.uleb128 0x2c
 6228 0f41 01       		.uleb128 0x1
 6229 0f42 50       		.byte	0x50
 6230 0f43 01       		.uleb128 0x1
 6231 0f44 35       		.byte	0x35
 6232 0f45 2C       		.uleb128 0x2c
 6233 0f46 01       		.uleb128 0x1
 6234 0f47 51       		.byte	0x51
 6235 0f48 01       		.uleb128 0x1
 6236 0f49 44       		.byte	0x44
 6237 0f4a 2C       		.uleb128 0x2c
 6238 0f4b 01       		.uleb128 0x1
 6239 0f4c 52       		.byte	0x52
 6240 0f4d 05       		.uleb128 0x5
 6241 0f4e 03       		.byte	0x3
ARM GAS  C:\Users\VIDEOH~1\AppData\Local\Temp\ccpdN5tN.s 			page 138


 6242 0f4f 7C000000 		.4byte	.LC47
 6243 0f53 2C       		.uleb128 0x2c
 6244 0f54 01       		.uleb128 0x1
 6245 0f55 53       		.byte	0x53
 6246 0f56 01       		.uleb128 0x1
 6247 0f57 30       		.byte	0x30
 6248 0f58 00       		.byte	0
 6249 0f59 00       		.byte	0
 6250 0f5a 00       		.byte	0
 6251 0f5b 3D       		.uleb128 0x3d
 6252 0f5c 7F0C0000 		.4byte	0xc7f
 6253 0f60 0A010000 		.4byte	.LBB21
 6254 0f64 9C000000 		.4byte	.LBE21-.LBB21
 6255 0f68 01       		.byte	0x1
 6256 0f69 A803     		.2byte	0x3a8
 6257 0f6b AF100000 		.4byte	0x10af
 6258 0f6f 3A       		.uleb128 0x3a
 6259 0f70 8C0C0000 		.4byte	0xc8c
 6260 0f74 1F040000 		.4byte	.LLST25
 6261 0f78 3E       		.uleb128 0x3e
 6262 0f79 0A010000 		.4byte	.LBB22
 6263 0f7d 9C000000 		.4byte	.LBE22-.LBB22
 6264 0f81 3C       		.uleb128 0x3c
 6265 0f82 980C0000 		.4byte	0xc98
 6266 0f86 03       		.uleb128 0x3
 6267 0f87 91       		.byte	0x91
 6268 0f88 907F     		.sleb128 -112
 6269 0f8a 3C       		.uleb128 0x3c
 6270 0f8b A40C0000 		.4byte	0xca4
 6271 0f8f 03       		.uleb128 0x3
 6272 0f90 91       		.byte	0x91
 6273 0f91 A07F     		.sleb128 -96
 6274 0f93 40       		.uleb128 0x40
 6275 0f94 B00C0000 		.4byte	0xcb0
 6276 0f98 35040000 		.4byte	.LLST26
 6277 0f9c 2D       		.uleb128 0x2d
 6278 0f9d 16010000 		.4byte	.LVL113
 6279 0fa1 A9280000 		.4byte	0x28a9
 6280 0fa5 B00F0000 		.4byte	0xfb0
 6281 0fa9 2C       		.uleb128 0x2c
 6282 0faa 01       		.uleb128 0x1
 6283 0fab 50       		.byte	0x50
 6284 0fac 02       		.uleb128 0x2
 6285 0fad 75       		.byte	0x75
 6286 0fae 00       		.sleb128 0
 6287 0faf 00       		.byte	0
 6288 0fb0 2F       		.uleb128 0x2f
 6289 0fb1 2A010000 		.4byte	.LVL115
 6290 0fb5 B4280000 		.4byte	0x28b4
 6291 0fb9 2D       		.uleb128 0x2d
 6292 0fba 38010000 		.4byte	.LVL116
 6293 0fbe 9E280000 		.4byte	0x289e
 6294 0fc2 E50F0000 		.4byte	0xfe5
 6295 0fc6 2C       		.uleb128 0x2c
 6296 0fc7 01       		.uleb128 0x1
 6297 0fc8 50       		.byte	0x50
 6298 0fc9 02       		.uleb128 0x2
ARM GAS  C:\Users\VIDEOH~1\AppData\Local\Temp\ccpdN5tN.s 			page 139


 6299 0fca 75       		.byte	0x75
 6300 0fcb 00       		.sleb128 0
 6301 0fcc 2C       		.uleb128 0x2c
 6302 0fcd 01       		.uleb128 0x1
 6303 0fce 51       		.byte	0x51
 6304 0fcf 02       		.uleb128 0x2
 6305 0fd0 75       		.byte	0x75
 6306 0fd1 00       		.sleb128 0
 6307 0fd2 2C       		.uleb128 0x2c
 6308 0fd3 01       		.uleb128 0x1
 6309 0fd4 52       		.byte	0x52
 6310 0fd5 01       		.uleb128 0x1
 6311 0fd6 35       		.byte	0x35
 6312 0fd7 2C       		.uleb128 0x2c
 6313 0fd8 01       		.uleb128 0x1
 6314 0fd9 53       		.byte	0x53
 6315 0fda 02       		.uleb128 0x2
 6316 0fdb 08       		.byte	0x8
 6317 0fdc 7F       		.byte	0x7f
 6318 0fdd 2C       		.uleb128 0x2c
 6319 0fde 02       		.uleb128 0x2
 6320 0fdf 7D       		.byte	0x7d
 6321 0fe0 00       		.sleb128 0
 6322 0fe1 02       		.uleb128 0x2
 6323 0fe2 75       		.byte	0x75
 6324 0fe3 00       		.sleb128 0
 6325 0fe4 00       		.byte	0
 6326 0fe5 2D       		.uleb128 0x2d
 6327 0fe6 44010000 		.4byte	.LVL117
 6328 0fea 65280000 		.4byte	0x2865
 6329 0fee 0C100000 		.4byte	0x100c
 6330 0ff2 2C       		.uleb128 0x2c
 6331 0ff3 01       		.uleb128 0x1
 6332 0ff4 50       		.byte	0x50
 6333 0ff5 01       		.uleb128 0x1
 6334 0ff6 35       		.byte	0x35
 6335 0ff7 2C       		.uleb128 0x2c
 6336 0ff8 01       		.uleb128 0x1
 6337 0ff9 51       		.byte	0x51
 6338 0ffa 01       		.uleb128 0x1
 6339 0ffb 44       		.byte	0x44
 6340 0ffc 2C       		.uleb128 0x2c
 6341 0ffd 01       		.uleb128 0x1
 6342 0ffe 52       		.byte	0x52
 6343 0fff 05       		.uleb128 0x5
 6344 1000 03       		.byte	0x3
 6345 1001 87000000 		.4byte	.LC52
 6346 1005 2C       		.uleb128 0x2c
 6347 1006 01       		.uleb128 0x1
 6348 1007 53       		.byte	0x53
 6349 1008 02       		.uleb128 0x2
 6350 1009 75       		.byte	0x75
 6351 100a 00       		.sleb128 0
 6352 100b 00       		.byte	0
 6353 100c 2D       		.uleb128 0x2d
 6354 100d 50010000 		.4byte	.LVL118
 6355 1011 65280000 		.4byte	0x2865
ARM GAS  C:\Users\VIDEOH~1\AppData\Local\Temp\ccpdN5tN.s 			page 140


 6356 1015 34100000 		.4byte	0x1034
 6357 1019 2C       		.uleb128 0x2c
 6358 101a 01       		.uleb128 0x1
 6359 101b 50       		.byte	0x50
 6360 101c 02       		.uleb128 0x2
 6361 101d 77       		.byte	0x77
 6362 101e 00       		.sleb128 0
 6363 101f 2C       		.uleb128 0x2c
 6364 1020 01       		.uleb128 0x1
 6365 1021 51       		.byte	0x51
 6366 1022 01       		.uleb128 0x1
 6367 1023 4A       		.byte	0x4a
 6368 1024 2C       		.uleb128 0x2c
 6369 1025 01       		.uleb128 0x1
 6370 1026 52       		.byte	0x52
 6371 1027 05       		.uleb128 0x5
 6372 1028 03       		.byte	0x3
 6373 1029 74000000 		.4byte	.LC45
 6374 102d 2C       		.uleb128 0x2c
 6375 102e 01       		.uleb128 0x1
 6376 102f 53       		.byte	0x53
 6377 1030 02       		.uleb128 0x2
 6378 1031 75       		.byte	0x75
 6379 1032 00       		.sleb128 0
 6380 1033 00       		.byte	0
 6381 1034 2D       		.uleb128 0x2d
 6382 1035 62010000 		.4byte	.LVL119
 6383 1039 27090000 		.4byte	0x927
 6384 103d 48100000 		.4byte	0x1048
 6385 1041 2C       		.uleb128 0x2c
 6386 1042 01       		.uleb128 0x1
 6387 1043 50       		.byte	0x50
 6388 1044 02       		.uleb128 0x2
 6389 1045 74       		.byte	0x74
 6390 1046 00       		.sleb128 0
 6391 1047 00       		.byte	0
 6392 1048 2F       		.uleb128 0x2f
 6393 1049 66010000 		.4byte	.LVL120
 6394 104d D5280000 		.4byte	0x28d5
 6395 1051 2D       		.uleb128 0x2d
 6396 1052 78010000 		.4byte	.LVL122
 6397 1056 A7060000 		.4byte	0x6a7
 6398 105a 6F100000 		.4byte	0x106f
 6399 105e 2C       		.uleb128 0x2c
 6400 105f 01       		.uleb128 0x1
 6401 1060 51       		.byte	0x51
 6402 1061 05       		.uleb128 0x5
 6403 1062 03       		.byte	0x3
 6404 1063 8F000000 		.4byte	.LC54
 6405 1067 2C       		.uleb128 0x2c
 6406 1068 01       		.uleb128 0x1
 6407 1069 52       		.byte	0x52
 6408 106a 03       		.uleb128 0x3
 6409 106b 91       		.byte	0x91
 6410 106c A07F     		.sleb128 -96
 6411 106e 00       		.byte	0
 6412 106f 2D       		.uleb128 0x2d
ARM GAS  C:\Users\VIDEOH~1\AppData\Local\Temp\ccpdN5tN.s 			page 141


 6413 1070 80010000 		.4byte	.LVL123
 6414 1074 44280000 		.4byte	0x2844
 6415 1078 8D100000 		.4byte	0x108d
 6416 107c 2C       		.uleb128 0x2c
 6417 107d 01       		.uleb128 0x1
 6418 107e 50       		.byte	0x50
 6419 107f 03       		.uleb128 0x3
 6420 1080 91       		.byte	0x91
 6421 1081 A07F     		.sleb128 -96
 6422 1083 2C       		.uleb128 0x2c
 6423 1084 01       		.uleb128 0x1
 6424 1085 51       		.byte	0x51
 6425 1086 05       		.uleb128 0x5
 6426 1087 03       		.byte	0x3
 6427 1088 85000000 		.4byte	.LC50
 6428 108c 00       		.byte	0
 6429 108d 2B       		.uleb128 0x2b
 6430 108e 8C010000 		.4byte	.LVL124
 6431 1092 65280000 		.4byte	0x2865
 6432 1096 2C       		.uleb128 0x2c
 6433 1097 01       		.uleb128 0x1
 6434 1098 50       		.byte	0x50
 6435 1099 01       		.uleb128 0x1
 6436 109a 33       		.byte	0x33
 6437 109b 2C       		.uleb128 0x2c
 6438 109c 01       		.uleb128 0x1
 6439 109d 51       		.byte	0x51
 6440 109e 01       		.uleb128 0x1
 6441 109f 3E       		.byte	0x3e
 6442 10a0 2C       		.uleb128 0x2c
 6443 10a1 01       		.uleb128 0x1
 6444 10a2 52       		.byte	0x52
 6445 10a3 03       		.uleb128 0x3
 6446 10a4 91       		.byte	0x91
 6447 10a5 A07F     		.sleb128 -96
 6448 10a7 2C       		.uleb128 0x2c
 6449 10a8 01       		.uleb128 0x1
 6450 10a9 53       		.byte	0x53
 6451 10aa 01       		.uleb128 0x1
 6452 10ab 30       		.byte	0x30
 6453 10ac 00       		.byte	0
 6454 10ad 00       		.byte	0
 6455 10ae 00       		.byte	0
 6456 10af 39       		.uleb128 0x39
 6457 10b0 250C0000 		.4byte	0xc25
 6458 10b4 A6010000 		.4byte	.LBB23
 6459 10b8 18000000 		.4byte	.Ldebug_ranges0+0x18
 6460 10bc 01       		.byte	0x1
 6461 10bd A903     		.2byte	0x3a9
 6462 10bf 10120000 		.4byte	0x1210
 6463 10c3 3A       		.uleb128 0x3a
 6464 10c4 320C0000 		.4byte	0xc32
 6465 10c8 56040000 		.4byte	.LLST27
 6466 10cc 3B       		.uleb128 0x3b
 6467 10cd 18000000 		.4byte	.Ldebug_ranges0+0x18
 6468 10d1 3C       		.uleb128 0x3c
 6469 10d2 3E0C0000 		.4byte	0xc3e
ARM GAS  C:\Users\VIDEOH~1\AppData\Local\Temp\ccpdN5tN.s 			page 142


 6470 10d6 03       		.uleb128 0x3
 6471 10d7 91       		.byte	0x91
 6472 10d8 907F     		.sleb128 -112
 6473 10da 3C       		.uleb128 0x3c
 6474 10db 4A0C0000 		.4byte	0xc4a
 6475 10df 03       		.uleb128 0x3
 6476 10e0 91       		.byte	0x91
 6477 10e1 A07F     		.sleb128 -96
 6478 10e3 40       		.uleb128 0x40
 6479 10e4 560C0000 		.4byte	0xc56
 6480 10e8 6C040000 		.4byte	.LLST28
 6481 10ec 40       		.uleb128 0x40
 6482 10ed 620C0000 		.4byte	0xc62
 6483 10f1 7F040000 		.4byte	.LLST29
 6484 10f5 2D       		.uleb128 0x2d
 6485 10f6 B0010000 		.4byte	.LVL126
 6486 10fa A9280000 		.4byte	0x28a9
 6487 10fe 08110000 		.4byte	0x1108
 6488 1102 2C       		.uleb128 0x2c
 6489 1103 01       		.uleb128 0x1
 6490 1104 50       		.byte	0x50
 6491 1105 01       		.uleb128 0x1
 6492 1106 30       		.byte	0x30
 6493 1107 00       		.byte	0
 6494 1108 2F       		.uleb128 0x2f
 6495 1109 C2010000 		.4byte	.LVL128
 6496 110d B4280000 		.4byte	0x28b4
 6497 1111 2D       		.uleb128 0x2d
 6498 1112 D0010000 		.4byte	.LVL129
 6499 1116 9E280000 		.4byte	0x289e
 6500 111a 3D110000 		.4byte	0x113d
 6501 111e 2C       		.uleb128 0x2c
 6502 111f 01       		.uleb128 0x1
 6503 1120 50       		.byte	0x50
 6504 1121 02       		.uleb128 0x2
 6505 1122 75       		.byte	0x75
 6506 1123 00       		.sleb128 0
 6507 1124 2C       		.uleb128 0x2c
 6508 1125 01       		.uleb128 0x1
 6509 1126 51       		.byte	0x51
 6510 1127 02       		.uleb128 0x2
 6511 1128 75       		.byte	0x75
 6512 1129 00       		.sleb128 0
 6513 112a 2C       		.uleb128 0x2c
 6514 112b 01       		.uleb128 0x1
 6515 112c 52       		.byte	0x52
 6516 112d 01       		.uleb128 0x1
 6517 112e 35       		.byte	0x35
 6518 112f 2C       		.uleb128 0x2c
 6519 1130 01       		.uleb128 0x1
 6520 1131 53       		.byte	0x53
 6521 1132 02       		.uleb128 0x2
 6522 1133 08       		.byte	0x8
 6523 1134 7F       		.byte	0x7f
 6524 1135 2C       		.uleb128 0x2c
 6525 1136 02       		.uleb128 0x2
 6526 1137 7D       		.byte	0x7d
ARM GAS  C:\Users\VIDEOH~1\AppData\Local\Temp\ccpdN5tN.s 			page 143


 6527 1138 00       		.sleb128 0
 6528 1139 02       		.uleb128 0x2
 6529 113a 75       		.byte	0x75
 6530 113b 00       		.sleb128 0
 6531 113c 00       		.byte	0
 6532 113d 2D       		.uleb128 0x2d
 6533 113e DC010000 		.4byte	.LVL130
 6534 1142 65280000 		.4byte	0x2865
 6535 1146 64110000 		.4byte	0x1164
 6536 114a 2C       		.uleb128 0x2c
 6537 114b 01       		.uleb128 0x1
 6538 114c 50       		.byte	0x50
 6539 114d 01       		.uleb128 0x1
 6540 114e 35       		.byte	0x35
 6541 114f 2C       		.uleb128 0x2c
 6542 1150 01       		.uleb128 0x1
 6543 1151 51       		.byte	0x51
 6544 1152 01       		.uleb128 0x1
 6545 1153 44       		.byte	0x44
 6546 1154 2C       		.uleb128 0x2c
 6547 1155 01       		.uleb128 0x1
 6548 1156 52       		.byte	0x52
 6549 1157 05       		.uleb128 0x5
 6550 1158 03       		.byte	0x3
 6551 1159 7C000000 		.4byte	.LC47
 6552 115d 2C       		.uleb128 0x2c
 6553 115e 01       		.uleb128 0x1
 6554 115f 53       		.byte	0x53
 6555 1160 02       		.uleb128 0x2
 6556 1161 75       		.byte	0x75
 6557 1162 00       		.sleb128 0
 6558 1163 00       		.byte	0
 6559 1164 2D       		.uleb128 0x2d
 6560 1165 E8010000 		.4byte	.LVL131
 6561 1169 65280000 		.4byte	0x2865
 6562 116d 8C110000 		.4byte	0x118c
 6563 1171 2C       		.uleb128 0x2c
 6564 1172 01       		.uleb128 0x1
 6565 1173 50       		.byte	0x50
 6566 1174 02       		.uleb128 0x2
 6567 1175 77       		.byte	0x77
 6568 1176 00       		.sleb128 0
 6569 1177 2C       		.uleb128 0x2c
 6570 1178 01       		.uleb128 0x1
 6571 1179 51       		.byte	0x51
 6572 117a 01       		.uleb128 0x1
 6573 117b 4A       		.byte	0x4a
 6574 117c 2C       		.uleb128 0x2c
 6575 117d 01       		.uleb128 0x1
 6576 117e 52       		.byte	0x52
 6577 117f 05       		.uleb128 0x5
 6578 1180 03       		.byte	0x3
 6579 1181 74000000 		.4byte	.LC45
 6580 1185 2C       		.uleb128 0x2c
 6581 1186 01       		.uleb128 0x1
 6582 1187 53       		.byte	0x53
 6583 1188 02       		.uleb128 0x2
ARM GAS  C:\Users\VIDEOH~1\AppData\Local\Temp\ccpdN5tN.s 			page 144


 6584 1189 75       		.byte	0x75
 6585 118a 00       		.sleb128 0
 6586 118b 00       		.byte	0
 6587 118c 2D       		.uleb128 0x2d
 6588 118d F8010000 		.4byte	.LVL132
 6589 1191 27090000 		.4byte	0x927
 6590 1195 A0110000 		.4byte	0x11a0
 6591 1199 2C       		.uleb128 0x2c
 6592 119a 01       		.uleb128 0x1
 6593 119b 50       		.byte	0x50
 6594 119c 02       		.uleb128 0x2
 6595 119d 74       		.byte	0x74
 6596 119e 00       		.sleb128 0
 6597 119f 00       		.byte	0
 6598 11a0 2F       		.uleb128 0x2f
 6599 11a1 FC010000 		.4byte	.LVL133
 6600 11a5 D5280000 		.4byte	0x28d5
 6601 11a9 2F       		.uleb128 0x2f
 6602 11aa 0A020000 		.4byte	.LVL135
 6603 11ae CA280000 		.4byte	0x28ca
 6604 11b2 2D       		.uleb128 0x2d
 6605 11b3 2C020000 		.4byte	.LVL138
 6606 11b7 A7060000 		.4byte	0x6a7
 6607 11bb D0110000 		.4byte	0x11d0
 6608 11bf 2C       		.uleb128 0x2c
 6609 11c0 01       		.uleb128 0x1
 6610 11c1 51       		.byte	0x51
 6611 11c2 05       		.uleb128 0x5
 6612 11c3 03       		.byte	0x3
 6613 11c4 24000000 		.4byte	.LC12
 6614 11c8 2C       		.uleb128 0x2c
 6615 11c9 01       		.uleb128 0x1
 6616 11ca 52       		.byte	0x52
 6617 11cb 03       		.uleb128 0x3
 6618 11cc 91       		.byte	0x91
 6619 11cd A07F     		.sleb128 -96
 6620 11cf 00       		.byte	0
 6621 11d0 2D       		.uleb128 0x2d
 6622 11d1 34020000 		.4byte	.LVL139
 6623 11d5 44280000 		.4byte	0x2844
 6624 11d9 EE110000 		.4byte	0x11ee
 6625 11dd 2C       		.uleb128 0x2c
 6626 11de 01       		.uleb128 0x1
 6627 11df 50       		.byte	0x50
 6628 11e0 03       		.uleb128 0x3
 6629 11e1 91       		.byte	0x91
 6630 11e2 A07F     		.sleb128 -96
 6631 11e4 2C       		.uleb128 0x2c
 6632 11e5 01       		.uleb128 0x1
 6633 11e6 51       		.byte	0x51
 6634 11e7 05       		.uleb128 0x5
 6635 11e8 03       		.byte	0x3
 6636 11e9 85000000 		.4byte	.LC50
 6637 11ed 00       		.byte	0
 6638 11ee 2B       		.uleb128 0x2b
 6639 11ef 40020000 		.4byte	.LVL140
 6640 11f3 65280000 		.4byte	0x2865
ARM GAS  C:\Users\VIDEOH~1\AppData\Local\Temp\ccpdN5tN.s 			page 145


 6641 11f7 2C       		.uleb128 0x2c
 6642 11f8 01       		.uleb128 0x1
 6643 11f9 50       		.byte	0x50
 6644 11fa 01       		.uleb128 0x1
 6645 11fb 33       		.byte	0x33
 6646 11fc 2C       		.uleb128 0x2c
 6647 11fd 01       		.uleb128 0x1
 6648 11fe 51       		.byte	0x51
 6649 11ff 01       		.uleb128 0x1
 6650 1200 3E       		.byte	0x3e
 6651 1201 2C       		.uleb128 0x2c
 6652 1202 01       		.uleb128 0x1
 6653 1203 52       		.byte	0x52
 6654 1204 03       		.uleb128 0x3
 6655 1205 91       		.byte	0x91
 6656 1206 A07F     		.sleb128 -96
 6657 1208 2C       		.uleb128 0x2c
 6658 1209 01       		.uleb128 0x1
 6659 120a 53       		.byte	0x53
 6660 120b 01       		.uleb128 0x1
 6661 120c 30       		.byte	0x30
 6662 120d 00       		.byte	0
 6663 120e 00       		.byte	0
 6664 120f 00       		.byte	0
 6665 1210 39       		.uleb128 0x39
 6666 1211 050C0000 		.4byte	0xc05
 6667 1215 5C020000 		.4byte	.LBB27
 6668 1219 38000000 		.4byte	.Ldebug_ranges0+0x38
 6669 121d 01       		.byte	0x1
 6670 121e AA03     		.2byte	0x3aa
 6671 1220 49130000 		.4byte	0x1349
 6672 1224 3A       		.uleb128 0x3a
 6673 1225 120C0000 		.4byte	0xc12
 6674 1229 9F040000 		.4byte	.LLST30
 6675 122d 2D       		.uleb128 0x2d
 6676 122e 70020000 		.4byte	.LVL142
 6677 1232 9E280000 		.4byte	0x289e
 6678 1236 59120000 		.4byte	0x1259
 6679 123a 2C       		.uleb128 0x2c
 6680 123b 01       		.uleb128 0x1
 6681 123c 50       		.byte	0x50
 6682 123d 02       		.uleb128 0x2
 6683 123e 74       		.byte	0x74
 6684 123f 00       		.sleb128 0
 6685 1240 2C       		.uleb128 0x2c
 6686 1241 01       		.uleb128 0x1
 6687 1242 51       		.byte	0x51
 6688 1243 02       		.uleb128 0x2
 6689 1244 74       		.byte	0x74
 6690 1245 00       		.sleb128 0
 6691 1246 2C       		.uleb128 0x2c
 6692 1247 01       		.uleb128 0x1
 6693 1248 52       		.byte	0x52
 6694 1249 01       		.uleb128 0x1
 6695 124a 35       		.byte	0x35
 6696 124b 2C       		.uleb128 0x2c
 6697 124c 01       		.uleb128 0x1
ARM GAS  C:\Users\VIDEOH~1\AppData\Local\Temp\ccpdN5tN.s 			page 146


 6698 124d 53       		.byte	0x53
 6699 124e 02       		.uleb128 0x2
 6700 124f 08       		.byte	0x8
 6701 1250 7F       		.byte	0x7f
 6702 1251 2C       		.uleb128 0x2c
 6703 1252 02       		.uleb128 0x2
 6704 1253 7D       		.byte	0x7d
 6705 1254 00       		.sleb128 0
 6706 1255 02       		.uleb128 0x2
 6707 1256 74       		.byte	0x74
 6708 1257 00       		.sleb128 0
 6709 1258 00       		.byte	0
 6710 1259 2D       		.uleb128 0x2d
 6711 125a 7C020000 		.4byte	.LVL143
 6712 125e 65280000 		.4byte	0x2865
 6713 1262 81120000 		.4byte	0x1281
 6714 1266 2C       		.uleb128 0x2c
 6715 1267 01       		.uleb128 0x1
 6716 1268 50       		.byte	0x50
 6717 1269 01       		.uleb128 0x1
 6718 126a 34       		.byte	0x34
 6719 126b 2C       		.uleb128 0x2c
 6720 126c 01       		.uleb128 0x1
 6721 126d 51       		.byte	0x51
 6722 126e 02       		.uleb128 0x2
 6723 126f 08       		.byte	0x8
 6724 1270 28       		.byte	0x28
 6725 1271 2C       		.uleb128 0x2c
 6726 1272 01       		.uleb128 0x1
 6727 1273 52       		.byte	0x52
 6728 1274 05       		.uleb128 0x5
 6729 1275 03       		.byte	0x3
 6730 1276 91000000 		.4byte	.LC56
 6731 127a 2C       		.uleb128 0x2c
 6732 127b 01       		.uleb128 0x1
 6733 127c 53       		.byte	0x53
 6734 127d 02       		.uleb128 0x2
 6735 127e 74       		.byte	0x74
 6736 127f 00       		.sleb128 0
 6737 1280 00       		.byte	0
 6738 1281 2D       		.uleb128 0x2d
 6739 1282 8A020000 		.4byte	.LVL144
 6740 1286 9E280000 		.4byte	0x289e
 6741 128a AE120000 		.4byte	0x12ae
 6742 128e 2C       		.uleb128 0x2c
 6743 128f 01       		.uleb128 0x1
 6744 1290 50       		.byte	0x50
 6745 1291 02       		.uleb128 0x2
 6746 1292 74       		.byte	0x74
 6747 1293 00       		.sleb128 0
 6748 1294 2C       		.uleb128 0x2c
 6749 1295 01       		.uleb128 0x1
 6750 1296 51       		.byte	0x51
 6751 1297 02       		.uleb128 0x2
 6752 1298 74       		.byte	0x74
 6753 1299 00       		.sleb128 0
 6754 129a 2C       		.uleb128 0x2c
ARM GAS  C:\Users\VIDEOH~1\AppData\Local\Temp\ccpdN5tN.s 			page 147


 6755 129b 01       		.uleb128 0x1
 6756 129c 52       		.byte	0x52
 6757 129d 02       		.uleb128 0x2
 6758 129e 75       		.byte	0x75
 6759 129f 00       		.sleb128 0
 6760 12a0 2C       		.uleb128 0x2c
 6761 12a1 01       		.uleb128 0x1
 6762 12a2 53       		.byte	0x53
 6763 12a3 02       		.uleb128 0x2
 6764 12a4 75       		.byte	0x75
 6765 12a5 00       		.sleb128 0
 6766 12a6 2C       		.uleb128 0x2c
 6767 12a7 02       		.uleb128 0x2
 6768 12a8 7D       		.byte	0x7d
 6769 12a9 00       		.sleb128 0
 6770 12aa 02       		.uleb128 0x2
 6771 12ab 77       		.byte	0x77
 6772 12ac 00       		.sleb128 0
 6773 12ad 00       		.byte	0
 6774 12ae 2D       		.uleb128 0x2d
 6775 12af 98020000 		.4byte	.LVL145
 6776 12b3 9E280000 		.4byte	0x289e
 6777 12b7 DB120000 		.4byte	0x12db
 6778 12bb 2C       		.uleb128 0x2c
 6779 12bc 01       		.uleb128 0x1
 6780 12bd 50       		.byte	0x50
 6781 12be 02       		.uleb128 0x2
 6782 12bf 74       		.byte	0x74
 6783 12c0 00       		.sleb128 0
 6784 12c1 2C       		.uleb128 0x2c
 6785 12c2 01       		.uleb128 0x1
 6786 12c3 51       		.byte	0x51
 6787 12c4 02       		.uleb128 0x2
 6788 12c5 08       		.byte	0x8
 6789 12c6 7E       		.byte	0x7e
 6790 12c7 2C       		.uleb128 0x2c
 6791 12c8 01       		.uleb128 0x1
 6792 12c9 52       		.byte	0x52
 6793 12ca 02       		.uleb128 0x2
 6794 12cb 75       		.byte	0x75
 6795 12cc 00       		.sleb128 0
 6796 12cd 2C       		.uleb128 0x2c
 6797 12ce 01       		.uleb128 0x1
 6798 12cf 53       		.byte	0x53
 6799 12d0 02       		.uleb128 0x2
 6800 12d1 08       		.byte	0x8
 6801 12d2 7F       		.byte	0x7f
 6802 12d3 2C       		.uleb128 0x2c
 6803 12d4 02       		.uleb128 0x2
 6804 12d5 7D       		.byte	0x7d
 6805 12d6 00       		.sleb128 0
 6806 12d7 02       		.uleb128 0x2
 6807 12d8 77       		.byte	0x77
 6808 12d9 00       		.sleb128 0
 6809 12da 00       		.byte	0
 6810 12db 2D       		.uleb128 0x2d
 6811 12dc A8020000 		.4byte	.LVL146
ARM GAS  C:\Users\VIDEOH~1\AppData\Local\Temp\ccpdN5tN.s 			page 148


 6812 12e0 9E280000 		.4byte	0x289e
 6813 12e4 07130000 		.4byte	0x1307
 6814 12e8 2C       		.uleb128 0x2c
 6815 12e9 01       		.uleb128 0x1
 6816 12ea 50       		.byte	0x50
 6817 12eb 02       		.uleb128 0x2
 6818 12ec 74       		.byte	0x74
 6819 12ed 00       		.sleb128 0
 6820 12ee 2C       		.uleb128 0x2c
 6821 12ef 01       		.uleb128 0x1
 6822 12f0 51       		.byte	0x51
 6823 12f1 01       		.uleb128 0x1
 6824 12f2 32       		.byte	0x32
 6825 12f3 2C       		.uleb128 0x2c
 6826 12f4 01       		.uleb128 0x1
 6827 12f5 52       		.byte	0x52
 6828 12f6 02       		.uleb128 0x2
 6829 12f7 75       		.byte	0x75
 6830 12f8 00       		.sleb128 0
 6831 12f9 2C       		.uleb128 0x2c
 6832 12fa 01       		.uleb128 0x1
 6833 12fb 53       		.byte	0x53
 6834 12fc 02       		.uleb128 0x2
 6835 12fd 08       		.byte	0x8
 6836 12fe 7D       		.byte	0x7d
 6837 12ff 2C       		.uleb128 0x2c
 6838 1300 02       		.uleb128 0x2
 6839 1301 7D       		.byte	0x7d
 6840 1302 00       		.sleb128 0
 6841 1303 02       		.uleb128 0x2
 6842 1304 09       		.byte	0x9
 6843 1305 81       		.byte	0x81
 6844 1306 00       		.byte	0
 6845 1307 2D       		.uleb128 0x2d
 6846 1308 B2020000 		.4byte	.LVL148
 6847 130c E0280000 		.4byte	0x28e0
 6848 1310 2E130000 		.4byte	0x132e
 6849 1314 2C       		.uleb128 0x2c
 6850 1315 01       		.uleb128 0x1
 6851 1316 50       		.byte	0x50
 6852 1317 03       		.uleb128 0x3
 6853 1318 91       		.byte	0x91
 6854 1319 B07F     		.sleb128 -80
 6855 131b 2C       		.uleb128 0x2c
 6856 131c 01       		.uleb128 0x1
 6857 131d 51       		.byte	0x51
 6858 131e 05       		.uleb128 0x5
 6859 131f 0C       		.byte	0xc
 6860 1320 80841E00 		.4byte	0x1e8480
 6861 1324 2C       		.uleb128 0x2c
 6862 1325 01       		.uleb128 0x1
 6863 1326 52       		.byte	0x52
 6864 1327 05       		.uleb128 0x5
 6865 1328 03       		.byte	0x3
 6866 1329 00000000 		.4byte	ui_calibration_progress
 6867 132d 00       		.byte	0
 6868 132e 2B       		.uleb128 0x2b
ARM GAS  C:\Users\VIDEOH~1\AppData\Local\Temp\ccpdN5tN.s 			page 149


 6869 132f BA020000 		.4byte	.LVL150
 6870 1333 EB280000 		.4byte	0x28eb
 6871 1337 2C       		.uleb128 0x2c
 6872 1338 01       		.uleb128 0x1
 6873 1339 50       		.byte	0x50
 6874 133a 03       		.uleb128 0x3
 6875 133b 91       		.byte	0x91
 6876 133c B07F     		.sleb128 -80
 6877 133e 2C       		.uleb128 0x2c
 6878 133f 01       		.uleb128 0x1
 6879 1340 51       		.byte	0x51
 6880 1341 05       		.uleb128 0x5
 6881 1342 0C       		.byte	0xc
 6882 1343 80841E00 		.4byte	0x1e8480
 6883 1347 00       		.byte	0
 6884 1348 00       		.byte	0
 6885 1349 2D       		.uleb128 0x2d
 6886 134a 0C000000 		.4byte	.LVL90
 6887 134e F6280000 		.4byte	0x28f6
 6888 1352 5C130000 		.4byte	0x135c
 6889 1356 2C       		.uleb128 0x2c
 6890 1357 01       		.uleb128 0x1
 6891 1358 50       		.byte	0x50
 6892 1359 01       		.uleb128 0x1
 6893 135a 30       		.byte	0x30
 6894 135b 00       		.byte	0
 6895 135c 2D       		.uleb128 0x2d
 6896 135d 12000000 		.4byte	.LVL91
 6897 1361 01290000 		.4byte	0x2901
 6898 1365 6F130000 		.4byte	0x136f
 6899 1369 2C       		.uleb128 0x2c
 6900 136a 01       		.uleb128 0x1
 6901 136b 50       		.byte	0x50
 6902 136c 01       		.uleb128 0x1
 6903 136d 32       		.byte	0x32
 6904 136e 00       		.byte	0
 6905 136f 2D       		.uleb128 0x2d
 6906 1370 1C000000 		.4byte	.LVL92
 6907 1374 0C290000 		.4byte	0x290c
 6908 1378 8A130000 		.4byte	0x138a
 6909 137c 2C       		.uleb128 0x2c
 6910 137d 01       		.uleb128 0x1
 6911 137e 50       		.byte	0x50
 6912 137f 03       		.uleb128 0x3
 6913 1380 91       		.byte	0x91
 6914 1381 B07F     		.sleb128 -80
 6915 1383 2C       		.uleb128 0x2c
 6916 1384 01       		.uleb128 0x1
 6917 1385 52       		.byte	0x52
 6918 1386 02       		.uleb128 0x2
 6919 1387 08       		.byte	0x8
 6920 1388 38       		.byte	0x38
 6921 1389 00       		.byte	0
 6922 138a 2F       		.uleb128 0x2f
 6923 138b 34000000 		.4byte	.LVL93
 6924 138f 5A280000 		.4byte	0x285a
 6925 1393 2D       		.uleb128 0x2d
ARM GAS  C:\Users\VIDEOH~1\AppData\Local\Temp\ccpdN5tN.s 			page 150


 6926 1394 40000000 		.4byte	.LVL94
 6927 1398 65280000 		.4byte	0x2865
 6928 139c BA130000 		.4byte	0x13ba
 6929 13a0 2C       		.uleb128 0x2c
 6930 13a1 01       		.uleb128 0x1
 6931 13a2 50       		.byte	0x50
 6932 13a3 01       		.uleb128 0x1
 6933 13a4 37       		.byte	0x37
 6934 13a5 2C       		.uleb128 0x2c
 6935 13a6 01       		.uleb128 0x1
 6936 13a7 51       		.byte	0x51
 6937 13a8 01       		.uleb128 0x1
 6938 13a9 38       		.byte	0x38
 6939 13aa 2C       		.uleb128 0x2c
 6940 13ab 01       		.uleb128 0x1
 6941 13ac 52       		.byte	0x52
 6942 13ad 05       		.uleb128 0x5
 6943 13ae 03       		.byte	0x3
 6944 13af 5D000000 		.4byte	.LC38
 6945 13b3 2C       		.uleb128 0x2c
 6946 13b4 01       		.uleb128 0x1
 6947 13b5 53       		.byte	0x53
 6948 13b6 02       		.uleb128 0x2
 6949 13b7 74       		.byte	0x74
 6950 13b8 00       		.sleb128 0
 6951 13b9 00       		.byte	0
 6952 13ba 2D       		.uleb128 0x2d
 6953 13bb C6020000 		.4byte	.LVL151
 6954 13bf 0C290000 		.4byte	0x290c
 6955 13c3 DB130000 		.4byte	0x13db
 6956 13c7 2C       		.uleb128 0x2c
 6957 13c8 01       		.uleb128 0x1
 6958 13c9 50       		.byte	0x50
 6959 13ca 02       		.uleb128 0x2
 6960 13cb 75       		.byte	0x75
 6961 13cc 00       		.sleb128 0
 6962 13cd 2C       		.uleb128 0x2c
 6963 13ce 01       		.uleb128 0x1
 6964 13cf 51       		.byte	0x51
 6965 13d0 03       		.uleb128 0x3
 6966 13d1 91       		.byte	0x91
 6967 13d2 B07F     		.sleb128 -80
 6968 13d4 2C       		.uleb128 0x2c
 6969 13d5 01       		.uleb128 0x1
 6970 13d6 52       		.byte	0x52
 6971 13d7 02       		.uleb128 0x2
 6972 13d8 08       		.byte	0x8
 6973 13d9 38       		.byte	0x38
 6974 13da 00       		.byte	0
 6975 13db 2B       		.uleb128 0x2b
 6976 13dc D2020000 		.4byte	.LVL152
 6977 13e0 15290000 		.4byte	0x2915
 6978 13e4 2C       		.uleb128 0x2c
 6979 13e5 01       		.uleb128 0x1
 6980 13e6 50       		.byte	0x50
 6981 13e7 02       		.uleb128 0x2
 6982 13e8 74       		.byte	0x74
ARM GAS  C:\Users\VIDEOH~1\AppData\Local\Temp\ccpdN5tN.s 			page 151


 6983 13e9 00       		.sleb128 0
 6984 13ea 2C       		.uleb128 0x2c
 6985 13eb 01       		.uleb128 0x1
 6986 13ec 51       		.byte	0x51
 6987 13ed 02       		.uleb128 0x2
 6988 13ee 75       		.byte	0x75
 6989 13ef 00       		.sleb128 0
 6990 13f0 2C       		.uleb128 0x2c
 6991 13f1 01       		.uleb128 0x1
 6992 13f2 52       		.byte	0x52
 6993 13f3 02       		.uleb128 0x2
 6994 13f4 08       		.byte	0x8
 6995 13f5 38       		.byte	0x38
 6996 13f6 00       		.byte	0
 6997 13f7 00       		.byte	0
 6998 13f8 24       		.uleb128 0x24
 6999 13f9 BC020000 		.4byte	.LASF137
 7000 13fd 01       		.byte	0x1
 7001 13fe A702     		.2byte	0x2a7
 7002 1400 EE040000 		.4byte	0x4ee
 7003 1404 00000000 		.4byte	.LFB58
 7004 1408 88000000 		.4byte	.LFE58-.LFB58
 7005 140c 01       		.uleb128 0x1
 7006 140d 9C       		.byte	0x9c
 7007 140e D4140000 		.4byte	0x14d4
 7008 1412 25       		.uleb128 0x25
 7009 1413 61726700 		.ascii	"arg\000"
 7010 1417 01       		.byte	0x1
 7011 1418 A702     		.2byte	0x2a7
 7012 141a 5F040000 		.4byte	0x45f
 7013 141e E7040000 		.4byte	.LLST31
 7014 1422 32       		.uleb128 0x32
 7015 1423 FF020000 		.4byte	.LASF100
 7016 1427 01       		.byte	0x1
 7017 1428 B302     		.2byte	0x2b3
 7018 142a 54040000 		.4byte	0x454
 7019 142e 02       		.uleb128 0x2
 7020 142f 91       		.byte	0x91
 7021 1430 60       		.sleb128 -32
 7022 1431 2D       		.uleb128 0x2d
 7023 1432 18000000 		.4byte	.LVL157
 7024 1436 9E280000 		.4byte	0x289e
 7025 143a 5B140000 		.4byte	0x145b
 7026 143e 2C       		.uleb128 0x2c
 7027 143f 01       		.uleb128 0x1
 7028 1440 50       		.byte	0x50
 7029 1441 01       		.uleb128 0x1
 7030 1442 30       		.byte	0x30
 7031 1443 2C       		.uleb128 0x2c
 7032 1444 01       		.uleb128 0x1
 7033 1445 51       		.byte	0x51
 7034 1446 01       		.uleb128 0x1
 7035 1447 30       		.byte	0x30
 7036 1448 2C       		.uleb128 0x2c
 7037 1449 01       		.uleb128 0x1
 7038 144a 52       		.byte	0x52
 7039 144b 01       		.uleb128 0x1
ARM GAS  C:\Users\VIDEOH~1\AppData\Local\Temp\ccpdN5tN.s 			page 152


 7040 144c 37       		.byte	0x37
 7041 144d 2C       		.uleb128 0x2c
 7042 144e 01       		.uleb128 0x1
 7043 144f 53       		.byte	0x53
 7044 1450 02       		.uleb128 0x2
 7045 1451 08       		.byte	0x8
 7046 1452 7F       		.byte	0x7f
 7047 1453 2C       		.uleb128 0x2c
 7048 1454 02       		.uleb128 0x2
 7049 1455 7D       		.byte	0x7d
 7050 1456 00       		.sleb128 0
 7051 1457 02       		.uleb128 0x2
 7052 1458 75       		.byte	0x75
 7053 1459 00       		.sleb128 0
 7054 145a 00       		.byte	0
 7055 145b 2D       		.uleb128 0x2d
 7056 145c 34000000 		.4byte	.LVL158
 7057 1460 65280000 		.4byte	0x2865
 7058 1464 6E140000 		.4byte	0x146e
 7059 1468 2C       		.uleb128 0x2c
 7060 1469 01       		.uleb128 0x1
 7061 146a 50       		.byte	0x50
 7062 146b 01       		.uleb128 0x1
 7063 146c 35       		.byte	0x35
 7064 146d 00       		.byte	0
 7065 146e 2D       		.uleb128 0x2d
 7066 146f 40000000 		.4byte	.LVL159
 7067 1473 65280000 		.4byte	0x2865
 7068 1477 94140000 		.4byte	0x1494
 7069 147b 2C       		.uleb128 0x2c
 7070 147c 01       		.uleb128 0x1
 7071 147d 50       		.byte	0x50
 7072 147e 01       		.uleb128 0x1
 7073 147f 31       		.byte	0x31
 7074 1480 2C       		.uleb128 0x2c
 7075 1481 01       		.uleb128 0x1
 7076 1482 51       		.byte	0x51
 7077 1483 01       		.uleb128 0x1
 7078 1484 40       		.byte	0x40
 7079 1485 2C       		.uleb128 0x2c
 7080 1486 01       		.uleb128 0x1
 7081 1487 52       		.byte	0x52
 7082 1488 05       		.uleb128 0x5
 7083 1489 03       		.byte	0x3
 7084 148a AD000000 		.4byte	.LC65
 7085 148e 2C       		.uleb128 0x2c
 7086 148f 01       		.uleb128 0x1
 7087 1490 53       		.byte	0x53
 7088 1491 01       		.uleb128 0x1
 7089 1492 31       		.byte	0x31
 7090 1493 00       		.byte	0
 7091 1494 2D       		.uleb128 0x2d
 7092 1495 52000000 		.4byte	.LVL160
 7093 1499 27090000 		.4byte	0x927
 7094 149d A8140000 		.4byte	0x14a8
 7095 14a1 2C       		.uleb128 0x2c
 7096 14a2 01       		.uleb128 0x1
ARM GAS  C:\Users\VIDEOH~1\AppData\Local\Temp\ccpdN5tN.s 			page 153


 7097 14a3 50       		.byte	0x50
 7098 14a4 02       		.uleb128 0x2
 7099 14a5 75       		.byte	0x75
 7100 14a6 00       		.sleb128 0
 7101 14a7 00       		.byte	0
 7102 14a8 2F       		.uleb128 0x2f
 7103 14a9 56000000 		.4byte	.LVL161
 7104 14ad 21290000 		.4byte	0x2921
 7105 14b1 2D       		.uleb128 0x2d
 7106 14b2 68000000 		.4byte	.LVL162
 7107 14b6 F6280000 		.4byte	0x28f6
 7108 14ba C4140000 		.4byte	0x14c4
 7109 14be 2C       		.uleb128 0x2c
 7110 14bf 01       		.uleb128 0x1
 7111 14c0 50       		.byte	0x50
 7112 14c1 01       		.uleb128 0x1
 7113 14c2 30       		.byte	0x30
 7114 14c3 00       		.byte	0
 7115 14c4 2B       		.uleb128 0x2b
 7116 14c5 6E000000 		.4byte	.LVL163
 7117 14c9 01290000 		.4byte	0x2901
 7118 14cd 2C       		.uleb128 0x2c
 7119 14ce 01       		.uleb128 0x1
 7120 14cf 50       		.byte	0x50
 7121 14d0 01       		.uleb128 0x1
 7122 14d1 32       		.byte	0x32
 7123 14d2 00       		.byte	0
 7124 14d3 00       		.byte	0
 7125 14d4 24       		.uleb128 0x24
 7126 14d5 C30A0000 		.4byte	.LASF138
 7127 14d9 01       		.byte	0x1
 7128 14da 1002     		.2byte	0x210
 7129 14dc EE040000 		.4byte	0x4ee
 7130 14e0 00000000 		.4byte	.LFB55
 7131 14e4 F8000000 		.4byte	.LFE55-.LFB55
 7132 14e8 01       		.uleb128 0x1
 7133 14e9 9C       		.byte	0x9c
 7134 14ea 85160000 		.4byte	0x1685
 7135 14ee 25       		.uleb128 0x25
 7136 14ef 61726700 		.ascii	"arg\000"
 7137 14f3 01       		.byte	0x1
 7138 14f4 1002     		.2byte	0x210
 7139 14f6 5F040000 		.4byte	0x45f
 7140 14fa 13050000 		.4byte	.LLST32
 7141 14fe 35       		.uleb128 0x35
 7142 14ff 94040000 		.4byte	.LASF139
 7143 1503 01       		.byte	0x1
 7144 1504 1A02     		.2byte	0x21a
 7145 1506 7A000000 		.4byte	0x7a
 7146 150a 34050000 		.4byte	.LLST33
 7147 150e 32       		.uleb128 0x32
 7148 150f FF020000 		.4byte	.LASF100
 7149 1513 01       		.byte	0x1
 7150 1514 1B02     		.2byte	0x21b
 7151 1516 54040000 		.4byte	0x454
 7152 151a 02       		.uleb128 0x2
 7153 151b 91       		.byte	0x91
ARM GAS  C:\Users\VIDEOH~1\AppData\Local\Temp\ccpdN5tN.s 			page 154


 7154 151c 58       		.sleb128 -40
 7155 151d 2F       		.uleb128 0x2f
 7156 151e 0C000000 		.4byte	.LVL167
 7157 1522 5A280000 		.4byte	0x285a
 7158 1526 2D       		.uleb128 0x2d
 7159 1527 1A000000 		.4byte	.LVL168
 7160 152b 9E280000 		.4byte	0x289e
 7161 152f 50150000 		.4byte	0x1550
 7162 1533 2C       		.uleb128 0x2c
 7163 1534 01       		.uleb128 0x1
 7164 1535 50       		.byte	0x50
 7165 1536 01       		.uleb128 0x1
 7166 1537 36       		.byte	0x36
 7167 1538 2C       		.uleb128 0x2c
 7168 1539 01       		.uleb128 0x1
 7169 153a 51       		.byte	0x51
 7170 153b 01       		.uleb128 0x1
 7171 153c 32       		.byte	0x32
 7172 153d 2C       		.uleb128 0x2c
 7173 153e 01       		.uleb128 0x1
 7174 153f 52       		.byte	0x52
 7175 1540 01       		.uleb128 0x1
 7176 1541 37       		.byte	0x37
 7177 1542 2C       		.uleb128 0x2c
 7178 1543 01       		.uleb128 0x1
 7179 1544 53       		.byte	0x53
 7180 1545 02       		.uleb128 0x2
 7181 1546 08       		.byte	0x8
 7182 1547 7F       		.byte	0x7f
 7183 1548 2C       		.uleb128 0x2c
 7184 1549 02       		.uleb128 0x2
 7185 154a 7D       		.byte	0x7d
 7186 154b 00       		.sleb128 0
 7187 154c 02       		.uleb128 0x2
 7188 154d 76       		.byte	0x76
 7189 154e 00       		.sleb128 0
 7190 154f 00       		.byte	0
 7191 1550 2D       		.uleb128 0x2d
 7192 1551 26000000 		.4byte	.LVL169
 7193 1555 65280000 		.4byte	0x2865
 7194 1559 76150000 		.4byte	0x1576
 7195 155d 2C       		.uleb128 0x2c
 7196 155e 01       		.uleb128 0x1
 7197 155f 50       		.byte	0x50
 7198 1560 01       		.uleb128 0x1
 7199 1561 37       		.byte	0x37
 7200 1562 2C       		.uleb128 0x2c
 7201 1563 01       		.uleb128 0x1
 7202 1564 51       		.byte	0x51
 7203 1565 01       		.uleb128 0x1
 7204 1566 40       		.byte	0x40
 7205 1567 2C       		.uleb128 0x2c
 7206 1568 01       		.uleb128 0x1
 7207 1569 52       		.byte	0x52
 7208 156a 05       		.uleb128 0x5
 7209 156b 03       		.byte	0x3
 7210 156c B5000000 		.4byte	.LC67
ARM GAS  C:\Users\VIDEOH~1\AppData\Local\Temp\ccpdN5tN.s 			page 155


 7211 1570 2C       		.uleb128 0x2c
 7212 1571 01       		.uleb128 0x1
 7213 1572 53       		.byte	0x53
 7214 1573 01       		.uleb128 0x1
 7215 1574 31       		.byte	0x31
 7216 1575 00       		.byte	0
 7217 1576 2D       		.uleb128 0x2d
 7218 1577 32000000 		.4byte	.LVL170
 7219 157b 65280000 		.4byte	0x2865
 7220 157f 9C150000 		.4byte	0x159c
 7221 1583 2C       		.uleb128 0x2c
 7222 1584 01       		.uleb128 0x1
 7223 1585 50       		.byte	0x50
 7224 1586 01       		.uleb128 0x1
 7225 1587 31       		.byte	0x31
 7226 1588 2C       		.uleb128 0x2c
 7227 1589 01       		.uleb128 0x1
 7228 158a 51       		.byte	0x51
 7229 158b 01       		.uleb128 0x1
 7230 158c 4C       		.byte	0x4c
 7231 158d 2C       		.uleb128 0x2c
 7232 158e 01       		.uleb128 0x1
 7233 158f 52       		.byte	0x52
 7234 1590 05       		.uleb128 0x5
 7235 1591 03       		.byte	0x3
 7236 1592 BE000000 		.4byte	.LC69
 7237 1596 2C       		.uleb128 0x2c
 7238 1597 01       		.uleb128 0x1
 7239 1598 53       		.byte	0x53
 7240 1599 01       		.uleb128 0x1
 7241 159a 30       		.byte	0x30
 7242 159b 00       		.byte	0
 7243 159c 2D       		.uleb128 0x2d
 7244 159d 3E000000 		.4byte	.LVL171
 7245 15a1 65280000 		.4byte	0x2865
 7246 15a5 C2150000 		.4byte	0x15c2
 7247 15a9 2C       		.uleb128 0x2c
 7248 15aa 01       		.uleb128 0x1
 7249 15ab 50       		.byte	0x50
 7250 15ac 01       		.uleb128 0x1
 7251 15ad 34       		.byte	0x34
 7252 15ae 2C       		.uleb128 0x2c
 7253 15af 01       		.uleb128 0x1
 7254 15b0 51       		.byte	0x51
 7255 15b1 01       		.uleb128 0x1
 7256 15b2 44       		.byte	0x44
 7257 15b3 2C       		.uleb128 0x2c
 7258 15b4 01       		.uleb128 0x1
 7259 15b5 52       		.byte	0x52
 7260 15b6 05       		.uleb128 0x5
 7261 15b7 03       		.byte	0x3
 7262 15b8 C6000000 		.4byte	.LC71
 7263 15bc 2C       		.uleb128 0x2c
 7264 15bd 01       		.uleb128 0x1
 7265 15be 53       		.byte	0x53
 7266 15bf 01       		.uleb128 0x1
 7267 15c0 30       		.byte	0x30
ARM GAS  C:\Users\VIDEOH~1\AppData\Local\Temp\ccpdN5tN.s 			page 156


 7268 15c1 00       		.byte	0
 7269 15c2 2D       		.uleb128 0x2d
 7270 15c3 4A000000 		.4byte	.LVL172
 7271 15c7 65280000 		.4byte	0x2865
 7272 15cb E9150000 		.4byte	0x15e9
 7273 15cf 2C       		.uleb128 0x2c
 7274 15d0 01       		.uleb128 0x1
 7275 15d1 50       		.byte	0x50
 7276 15d2 01       		.uleb128 0x1
 7277 15d3 34       		.byte	0x34
 7278 15d4 2C       		.uleb128 0x2c
 7279 15d5 01       		.uleb128 0x1
 7280 15d6 51       		.byte	0x51
 7281 15d7 02       		.uleb128 0x2
 7282 15d8 08       		.byte	0x8
 7283 15d9 60       		.byte	0x60
 7284 15da 2C       		.uleb128 0x2c
 7285 15db 01       		.uleb128 0x1
 7286 15dc 52       		.byte	0x52
 7287 15dd 05       		.uleb128 0x5
 7288 15de 03       		.byte	0x3
 7289 15df C8000000 		.4byte	.LC73
 7290 15e3 2C       		.uleb128 0x2c
 7291 15e4 01       		.uleb128 0x1
 7292 15e5 53       		.byte	0x53
 7293 15e6 01       		.uleb128 0x1
 7294 15e7 30       		.byte	0x30
 7295 15e8 00       		.byte	0
 7296 15e9 2D       		.uleb128 0x2d
 7297 15ea 66000000 		.4byte	.LVL174
 7298 15ee 9E280000 		.4byte	0x289e
 7299 15f2 16160000 		.4byte	0x1616
 7300 15f6 2C       		.uleb128 0x2c
 7301 15f7 01       		.uleb128 0x1
 7302 15f8 50       		.byte	0x50
 7303 15f9 01       		.uleb128 0x1
 7304 15fa 33       		.byte	0x33
 7305 15fb 2C       		.uleb128 0x2c
 7306 15fc 01       		.uleb128 0x1
 7307 15fd 51       		.byte	0x51
 7308 15fe 02       		.uleb128 0x2
 7309 15ff 08       		.byte	0x8
 7310 1600 20       		.byte	0x20
 7311 1601 2C       		.uleb128 0x2c
 7312 1602 01       		.uleb128 0x1
 7313 1603 52       		.byte	0x52
 7314 1604 01       		.uleb128 0x1
 7315 1605 34       		.byte	0x34
 7316 1606 2C       		.uleb128 0x2c
 7317 1607 01       		.uleb128 0x1
 7318 1608 53       		.byte	0x53
 7319 1609 02       		.uleb128 0x2
 7320 160a 76       		.byte	0x76
 7321 160b 60       		.sleb128 -32
 7322 160c 2C       		.uleb128 0x2c
 7323 160d 02       		.uleb128 0x2
 7324 160e 7D       		.byte	0x7d
ARM GAS  C:\Users\VIDEOH~1\AppData\Local\Temp\ccpdN5tN.s 			page 157


 7325 160f 00       		.sleb128 0
 7326 1610 04       		.uleb128 0x4
 7327 1611 91       		.byte	0x91
 7328 1612 54       		.sleb128 -44
 7329 1613 94       		.byte	0x94
 7330 1614 01       		.byte	0x1
 7331 1615 00       		.byte	0
 7332 1616 2D       		.uleb128 0x2d
 7333 1617 7C000000 		.4byte	.LVL175
 7334 161b 9E280000 		.4byte	0x289e
 7335 161f 41160000 		.4byte	0x1641
 7336 1623 2C       		.uleb128 0x2c
 7337 1624 01       		.uleb128 0x1
 7338 1625 50       		.byte	0x50
 7339 1626 01       		.uleb128 0x1
 7340 1627 33       		.byte	0x33
 7341 1628 2C       		.uleb128 0x2c
 7342 1629 01       		.uleb128 0x1
 7343 162a 51       		.byte	0x51
 7344 162b 02       		.uleb128 0x2
 7345 162c 76       		.byte	0x76
 7346 162d 00       		.sleb128 0
 7347 162e 2C       		.uleb128 0x2c
 7348 162f 01       		.uleb128 0x1
 7349 1630 52       		.byte	0x52
 7350 1631 01       		.uleb128 0x1
 7351 1632 34       		.byte	0x34
 7352 1633 2C       		.uleb128 0x2c
 7353 1634 01       		.uleb128 0x1
 7354 1635 53       		.byte	0x53
 7355 1636 02       		.uleb128 0x2
 7356 1637 08       		.byte	0x8
 7357 1638 5F       		.byte	0x5f
 7358 1639 2C       		.uleb128 0x2c
 7359 163a 02       		.uleb128 0x2
 7360 163b 7D       		.byte	0x7d
 7361 163c 00       		.sleb128 0
 7362 163d 02       		.uleb128 0x2
 7363 163e 09       		.byte	0x9
 7364 163f 81       		.byte	0x81
 7365 1640 00       		.byte	0
 7366 1641 2D       		.uleb128 0x2d
 7367 1642 84000000 		.4byte	.LVL176
 7368 1646 27090000 		.4byte	0x927
 7369 164a 55160000 		.4byte	0x1655
 7370 164e 2C       		.uleb128 0x2c
 7371 164f 01       		.uleb128 0x1
 7372 1650 50       		.byte	0x50
 7373 1651 02       		.uleb128 0x2
 7374 1652 76       		.byte	0x76
 7375 1653 00       		.sleb128 0
 7376 1654 00       		.byte	0
 7377 1655 2D       		.uleb128 0x2d
 7378 1656 AC000000 		.4byte	.LVL181
 7379 165a 2C290000 		.4byte	0x292c
 7380 165e 69160000 		.4byte	0x1669
 7381 1662 2C       		.uleb128 0x2c
ARM GAS  C:\Users\VIDEOH~1\AppData\Local\Temp\ccpdN5tN.s 			page 158


 7382 1663 01       		.uleb128 0x1
 7383 1664 50       		.byte	0x50
 7384 1665 02       		.uleb128 0x2
 7385 1666 74       		.byte	0x74
 7386 1667 00       		.sleb128 0
 7387 1668 00       		.byte	0
 7388 1669 2B       		.uleb128 0x2b
 7389 166a C2000000 		.4byte	.LVL182
 7390 166e 15290000 		.4byte	0x2915
 7391 1672 2C       		.uleb128 0x2c
 7392 1673 01       		.uleb128 0x1
 7393 1674 50       		.byte	0x50
 7394 1675 01       		.uleb128 0x1
 7395 1676 30       		.byte	0x30
 7396 1677 2C       		.uleb128 0x2c
 7397 1678 01       		.uleb128 0x1
 7398 1679 51       		.byte	0x51
 7399 167a 02       		.uleb128 0x2
 7400 167b 77       		.byte	0x77
 7401 167c 00       		.sleb128 0
 7402 167d 2C       		.uleb128 0x2c
 7403 167e 01       		.uleb128 0x1
 7404 167f 52       		.byte	0x52
 7405 1680 02       		.uleb128 0x2
 7406 1681 08       		.byte	0x8
 7407 1682 38       		.byte	0x38
 7408 1683 00       		.byte	0
 7409 1684 00       		.byte	0
 7410 1685 1E       		.uleb128 0x1e
 7411 1686 6B060000 		.4byte	.LASF140
 7412 168a 01       		.byte	0x1
 7413 168b 2501     		.2byte	0x125
 7414 168d 01       		.byte	0x1
 7415 168e ED160000 		.4byte	0x16ed
 7416 1692 1F       		.uleb128 0x1f
 7417 1693 0E0C0000 		.4byte	.LASF141
 7418 1697 01       		.byte	0x1
 7419 1698 2501     		.2byte	0x125
 7420 169a ED160000 		.4byte	0x16ed
 7421 169e 1F       		.uleb128 0x1f
 7422 169f 82080000 		.4byte	.LASF142
 7423 16a3 01       		.byte	0x1
 7424 16a4 2501     		.2byte	0x125
 7425 16a6 7A000000 		.4byte	0x7a
 7426 16aa 22       		.uleb128 0x22
 7427 16ab E9030000 		.4byte	.LASF143
 7428 16af 01       		.byte	0x1
 7429 16b0 2601     		.2byte	0x126
 7430 16b2 7A000000 		.4byte	0x7a
 7431 16b6 22       		.uleb128 0x22
 7432 16b7 2E080000 		.4byte	.LASF144
 7433 16bb 01       		.byte	0x1
 7434 16bc 2701     		.2byte	0x127
 7435 16be 7A000000 		.4byte	0x7a
 7436 16c2 22       		.uleb128 0x22
 7437 16c3 DF0C0000 		.4byte	.LASF128
 7438 16c7 01       		.byte	0x1
ARM GAS  C:\Users\VIDEOH~1\AppData\Local\Temp\ccpdN5tN.s 			page 159


 7439 16c8 3501     		.2byte	0x135
 7440 16ca F8160000 		.4byte	0x16f8
 7441 16ce 41       		.uleb128 0x41
 7442 16cf E0160000 		.4byte	0x16e0
 7443 16d3 22       		.uleb128 0x22
 7444 16d4 1D020000 		.4byte	.LASF145
 7445 16d8 01       		.byte	0x1
 7446 16d9 2A01     		.2byte	0x12a
 7447 16db BB000000 		.4byte	0xbb
 7448 16df 00       		.byte	0
 7449 16e0 23       		.uleb128 0x23
 7450 16e1 21       		.uleb128 0x21
 7451 16e2 6900     		.ascii	"i\000"
 7452 16e4 01       		.byte	0x1
 7453 16e5 3801     		.2byte	0x138
 7454 16e7 7A000000 		.4byte	0x7a
 7455 16eb 00       		.byte	0
 7456 16ec 00       		.byte	0
 7457 16ed 07       		.uleb128 0x7
 7458 16ee 04       		.byte	0x4
 7459 16ef F3160000 		.4byte	0x16f3
 7460 16f3 08       		.uleb128 0x8
 7461 16f4 64050000 		.4byte	0x564
 7462 16f8 07       		.uleb128 0x7
 7463 16f9 04       		.byte	0x4
 7464 16fa 5A050000 		.4byte	0x55a
 7465 16fe 34       		.uleb128 0x34
 7466 16ff 0E0C0000 		.4byte	.LASF141
 7467 1703 01       		.byte	0x1
 7468 1704 C102     		.2byte	0x2c1
 7469 1706 EE040000 		.4byte	0x4ee
 7470 170a 00000000 		.4byte	.LFB59
 7471 170e B0010000 		.4byte	.LFE59-.LFB59
 7472 1712 01       		.uleb128 0x1
 7473 1713 9C       		.byte	0x9c
 7474 1714 19190000 		.4byte	0x1919
 7475 1718 25       		.uleb128 0x25
 7476 1719 61726700 		.ascii	"arg\000"
 7477 171d 01       		.byte	0x1
 7478 171e C102     		.2byte	0x2c1
 7479 1720 5F040000 		.4byte	0x45f
 7480 1724 52050000 		.4byte	.LLST34
 7481 1728 35       		.uleb128 0x35
 7482 1729 0E0C0000 		.4byte	.LASF141
 7483 172d 01       		.byte	0x1
 7484 172e C202     		.2byte	0x2c2
 7485 1730 ED160000 		.4byte	0x16ed
 7486 1734 99050000 		.4byte	.LLST35
 7487 1738 35       		.uleb128 0x35
 7488 1739 82080000 		.4byte	.LASF142
 7489 173d 01       		.byte	0x1
 7490 173e C502     		.2byte	0x2c5
 7491 1740 7A000000 		.4byte	0x7a
 7492 1744 AD050000 		.4byte	.LLST36
 7493 1748 32       		.uleb128 0x32
 7494 1749 FF020000 		.4byte	.LASF100
 7495 174d 01       		.byte	0x1
ARM GAS  C:\Users\VIDEOH~1\AppData\Local\Temp\ccpdN5tN.s 			page 160


 7496 174e C602     		.2byte	0x2c6
 7497 1750 54040000 		.4byte	0x454
 7498 1754 02       		.uleb128 0x2
 7499 1755 91       		.byte	0x91
 7500 1756 58       		.sleb128 -40
 7501 1757 39       		.uleb128 0x39
 7502 1758 85160000 		.4byte	0x1685
 7503 175c 1E000000 		.4byte	.LBB40
 7504 1760 58000000 		.4byte	.Ldebug_ranges0+0x58
 7505 1764 01       		.byte	0x1
 7506 1765 C902     		.2byte	0x2c9
 7507 1767 E3180000 		.4byte	0x18e3
 7508 176b 3A       		.uleb128 0x3a
 7509 176c 9E160000 		.4byte	0x169e
 7510 1770 D7050000 		.4byte	.LLST37
 7511 1774 3A       		.uleb128 0x3a
 7512 1775 92160000 		.4byte	0x1692
 7513 1779 01060000 		.4byte	.LLST38
 7514 177d 3B       		.uleb128 0x3b
 7515 177e 58000000 		.4byte	.Ldebug_ranges0+0x58
 7516 1782 40       		.uleb128 0x40
 7517 1783 AA160000 		.4byte	0x16aa
 7518 1787 2C060000 		.4byte	.LLST39
 7519 178b 40       		.uleb128 0x40
 7520 178c B6160000 		.4byte	0x16b6
 7521 1790 63060000 		.4byte	.LLST40
 7522 1794 40       		.uleb128 0x40
 7523 1795 C2160000 		.4byte	0x16c2
 7524 1799 9B060000 		.4byte	.LLST41
 7525 179d 3F       		.uleb128 0x3f
 7526 179e 26000000 		.4byte	.LBB42
 7527 17a2 4E000000 		.4byte	.LBE42-.LBB42
 7528 17a6 2F180000 		.4byte	0x182f
 7529 17aa 40       		.uleb128 0x40
 7530 17ab D3160000 		.4byte	0x16d3
 7531 17af AE060000 		.4byte	.LLST42
 7532 17b3 2F       		.uleb128 0x2f
 7533 17b4 2A000000 		.4byte	.LVL191
 7534 17b8 37290000 		.4byte	0x2937
 7535 17bc 2D       		.uleb128 0x2d
 7536 17bd 4A000000 		.4byte	.LVL193
 7537 17c1 9E280000 		.4byte	0x289e
 7538 17c5 E6170000 		.4byte	0x17e6
 7539 17c9 2C       		.uleb128 0x2c
 7540 17ca 01       		.uleb128 0x1
 7541 17cb 50       		.byte	0x50
 7542 17cc 01       		.uleb128 0x1
 7543 17cd 36       		.byte	0x36
 7544 17ce 2C       		.uleb128 0x2c
 7545 17cf 01       		.uleb128 0x1
 7546 17d0 51       		.byte	0x51
 7547 17d1 01       		.uleb128 0x1
 7548 17d2 32       		.byte	0x32
 7549 17d3 2C       		.uleb128 0x2c
 7550 17d4 01       		.uleb128 0x1
 7551 17d5 52       		.byte	0x52
 7552 17d6 01       		.uleb128 0x1
ARM GAS  C:\Users\VIDEOH~1\AppData\Local\Temp\ccpdN5tN.s 			page 161


 7553 17d7 37       		.byte	0x37
 7554 17d8 2C       		.uleb128 0x2c
 7555 17d9 01       		.uleb128 0x1
 7556 17da 53       		.byte	0x53
 7557 17db 02       		.uleb128 0x2
 7558 17dc 75       		.byte	0x75
 7559 17dd 00       		.sleb128 0
 7560 17de 2C       		.uleb128 0x2c
 7561 17df 02       		.uleb128 0x2
 7562 17e0 7D       		.byte	0x7d
 7563 17e1 00       		.sleb128 0
 7564 17e2 02       		.uleb128 0x2
 7565 17e3 09       		.byte	0x9
 7566 17e4 FF       		.byte	0xff
 7567 17e5 00       		.byte	0
 7568 17e6 2D       		.uleb128 0x2d
 7569 17e7 58000000 		.4byte	.LVL194
 7570 17eb 65280000 		.4byte	0x2865
 7571 17ef 04180000 		.4byte	0x1804
 7572 17f3 2C       		.uleb128 0x2c
 7573 17f4 01       		.uleb128 0x1
 7574 17f5 50       		.byte	0x50
 7575 17f6 01       		.uleb128 0x1
 7576 17f7 37       		.byte	0x37
 7577 17f8 2C       		.uleb128 0x2c
 7578 17f9 01       		.uleb128 0x1
 7579 17fa 51       		.byte	0x51
 7580 17fb 02       		.uleb128 0x2
 7581 17fc 75       		.byte	0x75
 7582 17fd 00       		.sleb128 0
 7583 17fe 2C       		.uleb128 0x2c
 7584 17ff 01       		.uleb128 0x1
 7585 1800 53       		.byte	0x53
 7586 1801 01       		.uleb128 0x1
 7587 1802 31       		.byte	0x31
 7588 1803 00       		.byte	0
 7589 1804 2B       		.uleb128 0x2b
 7590 1805 6C000000 		.4byte	.LVL195
 7591 1809 9E280000 		.4byte	0x289e
 7592 180d 2C       		.uleb128 0x2c
 7593 180e 01       		.uleb128 0x1
 7594 180f 50       		.byte	0x50
 7595 1810 01       		.uleb128 0x1
 7596 1811 36       		.byte	0x36
 7597 1812 2C       		.uleb128 0x2c
 7598 1813 01       		.uleb128 0x1
 7599 1814 51       		.byte	0x51
 7600 1815 05       		.uleb128 0x5
 7601 1816 08       		.byte	0x8
 7602 1817 7E       		.byte	0x7e
 7603 1818 74       		.byte	0x74
 7604 1819 00       		.sleb128 0
 7605 181a 1C       		.byte	0x1c
 7606 181b 2C       		.uleb128 0x2c
 7607 181c 01       		.uleb128 0x1
 7608 181d 52       		.byte	0x52
 7609 181e 01       		.uleb128 0x1
ARM GAS  C:\Users\VIDEOH~1\AppData\Local\Temp\ccpdN5tN.s 			page 162


 7610 181f 37       		.byte	0x37
 7611 1820 2C       		.uleb128 0x2c
 7612 1821 01       		.uleb128 0x1
 7613 1822 53       		.byte	0x53
 7614 1823 02       		.uleb128 0x2
 7615 1824 76       		.byte	0x76
 7616 1825 00       		.sleb128 0
 7617 1826 2C       		.uleb128 0x2c
 7618 1827 02       		.uleb128 0x2
 7619 1828 7D       		.byte	0x7d
 7620 1829 00       		.sleb128 0
 7621 182a 02       		.uleb128 0x2
 7622 182b 09       		.byte	0x9
 7623 182c FF       		.byte	0xff
 7624 182d 00       		.byte	0
 7625 182e 00       		.byte	0
 7626 182f 42       		.uleb128 0x42
 7627 1830 70000000 		.4byte	.Ldebug_ranges0+0x70
 7628 1834 AD180000 		.4byte	0x18ad
 7629 1838 40       		.uleb128 0x40
 7630 1839 E1160000 		.4byte	0x16e1
 7631 183d CA060000 		.4byte	.LLST43
 7632 1841 2D       		.uleb128 0x2d
 7633 1842 CC000000 		.4byte	.LVL205
 7634 1846 65280000 		.4byte	0x2865
 7635 184a 60180000 		.4byte	0x1860
 7636 184e 2C       		.uleb128 0x2c
 7637 184f 01       		.uleb128 0x1
 7638 1850 50       		.byte	0x50
 7639 1851 02       		.uleb128 0x2
 7640 1852 74       		.byte	0x74
 7641 1853 00       		.sleb128 0
 7642 1854 2C       		.uleb128 0x2c
 7643 1855 01       		.uleb128 0x1
 7644 1856 51       		.byte	0x51
 7645 1857 01       		.uleb128 0x1
 7646 1858 32       		.byte	0x32
 7647 1859 2C       		.uleb128 0x2c
 7648 185a 01       		.uleb128 0x1
 7649 185b 53       		.byte	0x53
 7650 185c 02       		.uleb128 0x2
 7651 185d 76       		.byte	0x76
 7652 185e 00       		.sleb128 0
 7653 185f 00       		.byte	0
 7654 1860 2F       		.uleb128 0x2f
 7655 1861 D2000000 		.4byte	.LVL206
 7656 1865 37290000 		.4byte	0x2937
 7657 1869 2D       		.uleb128 0x2d
 7658 186a EC000000 		.4byte	.LVL207
 7659 186e 9E280000 		.4byte	0x289e
 7660 1872 90180000 		.4byte	0x1890
 7661 1876 2C       		.uleb128 0x2c
 7662 1877 01       		.uleb128 0x1
 7663 1878 50       		.byte	0x50
 7664 1879 02       		.uleb128 0x2
 7665 187a 74       		.byte	0x74
 7666 187b 7F       		.sleb128 -1
ARM GAS  C:\Users\VIDEOH~1\AppData\Local\Temp\ccpdN5tN.s 			page 163


 7667 187c 2C       		.uleb128 0x2c
 7668 187d 01       		.uleb128 0x1
 7669 187e 52       		.byte	0x52
 7670 187f 02       		.uleb128 0x2
 7671 1880 74       		.byte	0x74
 7672 1881 00       		.sleb128 0
 7673 1882 2C       		.uleb128 0x2c
 7674 1883 01       		.uleb128 0x1
 7675 1884 53       		.byte	0x53
 7676 1885 02       		.uleb128 0x2
 7677 1886 08       		.byte	0x8
 7678 1887 72       		.byte	0x72
 7679 1888 2C       		.uleb128 0x2c
 7680 1889 02       		.uleb128 0x2
 7681 188a 7D       		.byte	0x7d
 7682 188b 00       		.sleb128 0
 7683 188c 02       		.uleb128 0x2
 7684 188d 76       		.byte	0x76
 7685 188e 00       		.sleb128 0
 7686 188f 00       		.byte	0
 7687 1890 2B       		.uleb128 0x2b
 7688 1891 FE000000 		.4byte	.LVL209
 7689 1895 9E280000 		.4byte	0x289e
 7690 1899 2C       		.uleb128 0x2c
 7691 189a 01       		.uleb128 0x1
 7692 189b 50       		.byte	0x50
 7693 189c 02       		.uleb128 0x2
 7694 189d 74       		.byte	0x74
 7695 189e 7F       		.sleb128 -1
 7696 189f 2C       		.uleb128 0x2c
 7697 18a0 01       		.uleb128 0x1
 7698 18a1 52       		.byte	0x52
 7699 18a2 02       		.uleb128 0x2
 7700 18a3 74       		.byte	0x74
 7701 18a4 00       		.sleb128 0
 7702 18a5 2C       		.uleb128 0x2c
 7703 18a6 01       		.uleb128 0x1
 7704 18a7 53       		.byte	0x53
 7705 18a8 02       		.uleb128 0x2
 7706 18a9 08       		.byte	0x8
 7707 18aa 7F       		.byte	0x7f
 7708 18ab 00       		.byte	0
 7709 18ac 00       		.byte	0
 7710 18ad 2D       		.uleb128 0x2d
 7711 18ae 96000000 		.4byte	.LVL201
 7712 18b2 65280000 		.4byte	0x2865
 7713 18b6 CC180000 		.4byte	0x18cc
 7714 18ba 2C       		.uleb128 0x2c
 7715 18bb 01       		.uleb128 0x1
 7716 18bc 50       		.byte	0x50
 7717 18bd 02       		.uleb128 0x2
 7718 18be 74       		.byte	0x74
 7719 18bf 00       		.sleb128 0
 7720 18c0 2C       		.uleb128 0x2c
 7721 18c1 01       		.uleb128 0x1
 7722 18c2 51       		.byte	0x51
 7723 18c3 02       		.uleb128 0x2
ARM GAS  C:\Users\VIDEOH~1\AppData\Local\Temp\ccpdN5tN.s 			page 164


 7724 18c4 08       		.byte	0x8
 7725 18c5 73       		.byte	0x73
 7726 18c6 2C       		.uleb128 0x2c
 7727 18c7 01       		.uleb128 0x1
 7728 18c8 53       		.byte	0x53
 7729 18c9 01       		.uleb128 0x1
 7730 18ca 30       		.byte	0x30
 7731 18cb 00       		.byte	0
 7732 18cc 2B       		.uleb128 0x2b
 7733 18cd 26010000 		.4byte	.LVL213
 7734 18d1 65280000 		.4byte	0x2865
 7735 18d5 2C       		.uleb128 0x2c
 7736 18d6 01       		.uleb128 0x1
 7737 18d7 50       		.byte	0x50
 7738 18d8 01       		.uleb128 0x1
 7739 18d9 31       		.byte	0x31
 7740 18da 2C       		.uleb128 0x2c
 7741 18db 01       		.uleb128 0x1
 7742 18dc 51       		.byte	0x51
 7743 18dd 02       		.uleb128 0x2
 7744 18de 08       		.byte	0x8
 7745 18df 73       		.byte	0x73
 7746 18e0 00       		.byte	0
 7747 18e1 00       		.byte	0
 7748 18e2 00       		.byte	0
 7749 18e3 3F       		.uleb128 0x3f
 7750 18e4 6E010000 		.4byte	.LBB47
 7751 18e8 16000000 		.4byte	.LBE47-.LBB47
 7752 18ec FF180000 		.4byte	0x18ff
 7753 18f0 33       		.uleb128 0x33
 7754 18f1 6900     		.ascii	"i\000"
 7755 18f3 01       		.byte	0x1
 7756 18f4 D602     		.2byte	0x2d6
 7757 18f6 7A000000 		.4byte	0x7a
 7758 18fa 0C070000 		.4byte	.LLST44
 7759 18fe 00       		.byte	0
 7760 18ff 2F       		.uleb128 0x2f
 7761 1900 0C000000 		.4byte	.LVL188
 7762 1904 5A280000 		.4byte	0x285a
 7763 1908 2B       		.uleb128 0x2b
 7764 1909 2C010000 		.4byte	.LVL214
 7765 190d 27090000 		.4byte	0x927
 7766 1911 2C       		.uleb128 0x2c
 7767 1912 01       		.uleb128 0x1
 7768 1913 50       		.byte	0x50
 7769 1914 02       		.uleb128 0x2
 7770 1915 74       		.byte	0x74
 7771 1916 00       		.sleb128 0
 7772 1917 00       		.byte	0
 7773 1918 00       		.byte	0
 7774 1919 24       		.uleb128 0x24
 7775 191a C50C0000 		.4byte	.LASF146
 7776 191e 01       		.byte	0x1
 7777 191f C501     		.2byte	0x1c5
 7778 1921 EE040000 		.4byte	0x4ee
 7779 1925 00000000 		.4byte	.LFB51
 7780 1929 68000000 		.4byte	.LFE51-.LFB51
ARM GAS  C:\Users\VIDEOH~1\AppData\Local\Temp\ccpdN5tN.s 			page 165


 7781 192d 01       		.uleb128 0x1
 7782 192e 9C       		.byte	0x9c
 7783 192f BA190000 		.4byte	0x19ba
 7784 1933 25       		.uleb128 0x25
 7785 1934 61726700 		.ascii	"arg\000"
 7786 1938 01       		.byte	0x1
 7787 1939 C501     		.2byte	0x1c5
 7788 193b 5F040000 		.4byte	0x45f
 7789 193f 20070000 		.4byte	.LLST45
 7790 1943 22       		.uleb128 0x22
 7791 1944 24090000 		.4byte	.LASF108
 7792 1948 01       		.byte	0x1
 7793 1949 C601     		.2byte	0x1c6
 7794 194b 5D060000 		.4byte	0x65d
 7795 194f 35       		.uleb128 0x35
 7796 1950 67090000 		.4byte	.LASF147
 7797 1954 01       		.byte	0x1
 7798 1955 C801     		.2byte	0x1c8
 7799 1957 EE040000 		.4byte	0x4ee
 7800 195b 4C070000 		.4byte	.LLST46
 7801 195f 35       		.uleb128 0x35
 7802 1960 670B0000 		.4byte	.LASF110
 7803 1964 01       		.byte	0x1
 7804 1965 CC01     		.2byte	0x1cc
 7805 1967 EE040000 		.4byte	0x4ee
 7806 196b 89070000 		.4byte	.LLST47
 7807 196f 2D       		.uleb128 0x2d
 7808 1970 14000000 		.4byte	.LVL227
 7809 1974 FE160000 		.4byte	0x16fe
 7810 1978 89190000 		.4byte	0x1989
 7811 197c 2C       		.uleb128 0x2c
 7812 197d 01       		.uleb128 0x1
 7813 197e 50       		.byte	0x50
 7814 197f 02       		.uleb128 0x2
 7815 1980 75       		.byte	0x75
 7816 1981 00       		.sleb128 0
 7817 1982 2C       		.uleb128 0x2c
 7818 1983 01       		.uleb128 0x1
 7819 1984 51       		.byte	0x51
 7820 1985 02       		.uleb128 0x2
 7821 1986 76       		.byte	0x76
 7822 1987 00       		.sleb128 0
 7823 1988 00       		.byte	0
 7824 1989 2D       		.uleb128 0x2d
 7825 198a 28000000 		.4byte	.LVL229
 7826 198e FE160000 		.4byte	0x16fe
 7827 1992 A4190000 		.4byte	0x19a4
 7828 1996 2C       		.uleb128 0x2c
 7829 1997 01       		.uleb128 0x1
 7830 1998 50       		.byte	0x50
 7831 1999 02       		.uleb128 0x2
 7832 199a 75       		.byte	0x75
 7833 199b 00       		.sleb128 0
 7834 199c 2C       		.uleb128 0x2c
 7835 199d 01       		.uleb128 0x1
 7836 199e 51       		.byte	0x51
 7837 199f 03       		.uleb128 0x3
ARM GAS  C:\Users\VIDEOH~1\AppData\Local\Temp\ccpdN5tN.s 			page 166


 7838 19a0 76       		.byte	0x76
 7839 19a1 D400     		.sleb128 84
 7840 19a3 00       		.byte	0
 7841 19a4 2B       		.uleb128 0x2b
 7842 19a5 4E000000 		.4byte	.LVL236
 7843 19a9 15290000 		.4byte	0x2915
 7844 19ad 2C       		.uleb128 0x2c
 7845 19ae 01       		.uleb128 0x1
 7846 19af 50       		.byte	0x50
 7847 19b0 01       		.uleb128 0x1
 7848 19b1 30       		.byte	0x30
 7849 19b2 2C       		.uleb128 0x2c
 7850 19b3 01       		.uleb128 0x1
 7851 19b4 52       		.byte	0x52
 7852 19b5 02       		.uleb128 0x2
 7853 19b6 08       		.byte	0x8
 7854 19b7 38       		.byte	0x38
 7855 19b8 00       		.byte	0
 7856 19b9 00       		.byte	0
 7857 19ba 2E       		.uleb128 0x2e
 7858 19bb C2050000 		.4byte	.LASF148
 7859 19bf 01       		.byte	0x1
 7860 19c0 4901     		.2byte	0x149
 7861 19c2 00000000 		.4byte	.LFB40
 7862 19c6 10000000 		.4byte	.LFE40-.LFB40
 7863 19ca 01       		.uleb128 0x1
 7864 19cb 9C       		.byte	0x9c
 7865 19cc FB190000 		.4byte	0x19fb
 7866 19d0 25       		.uleb128 0x25
 7867 19d1 62756600 		.ascii	"buf\000"
 7868 19d5 01       		.byte	0x1
 7869 19d6 4901     		.2byte	0x149
 7870 19d8 F1000000 		.4byte	0xf1
 7871 19dc C5070000 		.4byte	.LLST48
 7872 19e0 2B       		.uleb128 0x2b
 7873 19e1 08000000 		.4byte	.LVL240
 7874 19e5 42290000 		.4byte	0x2942
 7875 19e9 2C       		.uleb128 0x2c
 7876 19ea 01       		.uleb128 0x1
 7877 19eb 50       		.byte	0x50
 7878 19ec 03       		.uleb128 0x3
 7879 19ed F3       		.byte	0xf3
 7880 19ee 01       		.uleb128 0x1
 7881 19ef 50       		.byte	0x50
 7882 19f0 2C       		.uleb128 0x2c
 7883 19f1 01       		.uleb128 0x1
 7884 19f2 51       		.byte	0x51
 7885 19f3 05       		.uleb128 0x5
 7886 19f4 03       		.byte	0x3
 7887 19f5 CE000000 		.4byte	.LC91
 7888 19f9 00       		.byte	0
 7889 19fa 00       		.byte	0
 7890 19fb 2E       		.uleb128 0x2e
 7891 19fc E3060000 		.4byte	.LASF149
 7892 1a00 01       		.byte	0x1
 7893 1a01 4D01     		.2byte	0x14d
 7894 1a03 00000000 		.4byte	.LFB41
ARM GAS  C:\Users\VIDEOH~1\AppData\Local\Temp\ccpdN5tN.s 			page 167


 7895 1a07 18000000 		.4byte	.LFE41-.LFB41
 7896 1a0b 01       		.uleb128 0x1
 7897 1a0c 9C       		.byte	0x9c
 7898 1a0d 441A0000 		.4byte	0x1a44
 7899 1a11 25       		.uleb128 0x25
 7900 1a12 62756600 		.ascii	"buf\000"
 7901 1a16 01       		.byte	0x1
 7902 1a17 4D01     		.2byte	0x14d
 7903 1a19 F1000000 		.4byte	0xf1
 7904 1a1d E6070000 		.4byte	.LLST49
 7905 1a21 2F       		.uleb128 0x2f
 7906 1a22 08000000 		.4byte	.LVL242
 7907 1a26 4D290000 		.4byte	0x294d
 7908 1a2a 2B       		.uleb128 0x2b
 7909 1a2b 10000000 		.4byte	.LVL243
 7910 1a2f 2E070000 		.4byte	0x72e
 7911 1a33 2C       		.uleb128 0x2c
 7912 1a34 01       		.uleb128 0x1
 7913 1a35 51       		.byte	0x51
 7914 1a36 05       		.uleb128 0x5
 7915 1a37 03       		.byte	0x3
 7916 1a38 8F000000 		.4byte	.LC54
 7917 1a3c 2C       		.uleb128 0x2c
 7918 1a3d 01       		.uleb128 0x1
 7919 1a3e 52       		.byte	0x52
 7920 1a3f 02       		.uleb128 0x2
 7921 1a40 74       		.byte	0x74
 7922 1a41 00       		.sleb128 0
 7923 1a42 00       		.byte	0
 7924 1a43 00       		.byte	0
 7925 1a44 2E       		.uleb128 0x2e
 7926 1a45 920D0000 		.4byte	.LASF150
 7927 1a49 01       		.byte	0x1
 7928 1a4a 5101     		.2byte	0x151
 7929 1a4c 00000000 		.4byte	.LFB42
 7930 1a50 18000000 		.4byte	.LFE42-.LFB42
 7931 1a54 01       		.uleb128 0x1
 7932 1a55 9C       		.byte	0x9c
 7933 1a56 8D1A0000 		.4byte	0x1a8d
 7934 1a5a 25       		.uleb128 0x25
 7935 1a5b 62756600 		.ascii	"buf\000"
 7936 1a5f 01       		.byte	0x1
 7937 1a60 5101     		.2byte	0x151
 7938 1a62 F1000000 		.4byte	0xf1
 7939 1a66 12080000 		.4byte	.LLST50
 7940 1a6a 2F       		.uleb128 0x2f
 7941 1a6b 08000000 		.4byte	.LVL246
 7942 1a6f 58290000 		.4byte	0x2958
 7943 1a73 2B       		.uleb128 0x2b
 7944 1a74 10000000 		.4byte	.LVL247
 7945 1a78 2E070000 		.4byte	0x72e
 7946 1a7c 2C       		.uleb128 0x2c
 7947 1a7d 01       		.uleb128 0x1
 7948 1a7e 51       		.byte	0x51
 7949 1a7f 05       		.uleb128 0x5
 7950 1a80 03       		.byte	0x3
 7951 1a81 8F000000 		.4byte	.LC54
ARM GAS  C:\Users\VIDEOH~1\AppData\Local\Temp\ccpdN5tN.s 			page 168


 7952 1a85 2C       		.uleb128 0x2c
 7953 1a86 01       		.uleb128 0x1
 7954 1a87 52       		.byte	0x52
 7955 1a88 02       		.uleb128 0x2
 7956 1a89 74       		.byte	0x74
 7957 1a8a 00       		.sleb128 0
 7958 1a8b 00       		.byte	0
 7959 1a8c 00       		.byte	0
 7960 1a8d 38       		.uleb128 0x38
 7961 1a8e 5B090000 		.4byte	.LASF151
 7962 1a92 01       		.byte	0x1
 7963 1a93 5901     		.2byte	0x159
 7964 1a95 00000000 		.4byte	.LFB44
 7965 1a99 38000000 		.4byte	.LFE44-.LFB44
 7966 1a9d 01       		.uleb128 0x1
 7967 1a9e 9C       		.byte	0x9c
 7968 1a9f EF1A0000 		.4byte	0x1aef
 7969 1aa3 25       		.uleb128 0x25
 7970 1aa4 62756600 		.ascii	"buf\000"
 7971 1aa8 01       		.byte	0x1
 7972 1aa9 5901     		.2byte	0x159
 7973 1aab F1000000 		.4byte	0xf1
 7974 1aaf 3E080000 		.4byte	.LLST51
 7975 1ab3 35       		.uleb128 0x35
 7976 1ab4 790C0000 		.4byte	.LASF152
 7977 1ab8 01       		.byte	0x1
 7978 1ab9 5A01     		.2byte	0x15a
 7979 1abb 7A000000 		.4byte	0x7a
 7980 1abf 6A080000 		.4byte	.LLST52
 7981 1ac3 2F       		.uleb128 0x2f
 7982 1ac4 08000000 		.4byte	.LVL250
 7983 1ac8 58290000 		.4byte	0x2958
 7984 1acc 2F       		.uleb128 0x2f
 7985 1acd 0E000000 		.4byte	.LVL251
 7986 1ad1 4F280000 		.4byte	0x284f
 7987 1ad5 2B       		.uleb128 0x2b
 7988 1ad6 30000000 		.4byte	.LVL257
 7989 1ada 2E070000 		.4byte	0x72e
 7990 1ade 2C       		.uleb128 0x2c
 7991 1adf 01       		.uleb128 0x1
 7992 1ae0 51       		.byte	0x51
 7993 1ae1 05       		.uleb128 0x5
 7994 1ae2 03       		.byte	0x3
 7995 1ae3 D5000000 		.4byte	.LC95
 7996 1ae7 2C       		.uleb128 0x2c
 7997 1ae8 01       		.uleb128 0x1
 7998 1ae9 52       		.byte	0x52
 7999 1aea 02       		.uleb128 0x2
 8000 1aeb 74       		.byte	0x74
 8001 1aec 00       		.sleb128 0
 8002 1aed 00       		.byte	0
 8003 1aee 00       		.byte	0
 8004 1aef 38       		.uleb128 0x38
 8005 1af0 1C0B0000 		.4byte	.LASF153
 8006 1af4 01       		.byte	0x1
 8007 1af5 5E01     		.2byte	0x15e
 8008 1af7 00000000 		.4byte	.LFB45
ARM GAS  C:\Users\VIDEOH~1\AppData\Local\Temp\ccpdN5tN.s 			page 169


 8009 1afb 48000000 		.4byte	.LFE45-.LFB45
 8010 1aff 01       		.uleb128 0x1
 8011 1b00 9C       		.byte	0x9c
 8012 1b01 6E1B0000 		.4byte	0x1b6e
 8013 1b05 25       		.uleb128 0x25
 8014 1b06 62756600 		.ascii	"buf\000"
 8015 1b0a 01       		.byte	0x1
 8016 1b0b 5E01     		.2byte	0x15e
 8017 1b0d F1000000 		.4byte	0xf1
 8018 1b11 A2080000 		.4byte	.LLST53
 8019 1b15 35       		.uleb128 0x35
 8020 1b16 DF0C0000 		.4byte	.LASF128
 8021 1b1a 01       		.byte	0x1
 8022 1b1b 5F01     		.2byte	0x15f
 8023 1b1d 7A000000 		.4byte	0x7a
 8024 1b21 CE080000 		.4byte	.LLST54
 8025 1b25 2F       		.uleb128 0x2f
 8026 1b26 08000000 		.4byte	.LVL260
 8027 1b2a 58290000 		.4byte	0x2958
 8028 1b2e 2F       		.uleb128 0x2f
 8029 1b2f 10000000 		.4byte	.LVL262
 8030 1b33 4F280000 		.4byte	0x284f
 8031 1b37 2D       		.uleb128 0x2d
 8032 1b38 2E000000 		.4byte	.LVL265
 8033 1b3c 2E070000 		.4byte	0x72e
 8034 1b40 541B0000 		.4byte	0x1b54
 8035 1b44 2C       		.uleb128 0x2c
 8036 1b45 01       		.uleb128 0x1
 8037 1b46 51       		.byte	0x51
 8038 1b47 05       		.uleb128 0x5
 8039 1b48 03       		.byte	0x3
 8040 1b49 D7000000 		.4byte	.LC97
 8041 1b4d 2C       		.uleb128 0x2c
 8042 1b4e 01       		.uleb128 0x1
 8043 1b4f 52       		.byte	0x52
 8044 1b50 02       		.uleb128 0x2
 8045 1b51 75       		.byte	0x75
 8046 1b52 00       		.sleb128 0
 8047 1b53 00       		.byte	0
 8048 1b54 2B       		.uleb128 0x2b
 8049 1b55 38000000 		.4byte	.LVL268
 8050 1b59 42290000 		.4byte	0x2942
 8051 1b5d 2C       		.uleb128 0x2c
 8052 1b5e 01       		.uleb128 0x1
 8053 1b5f 50       		.byte	0x50
 8054 1b60 02       		.uleb128 0x2
 8055 1b61 75       		.byte	0x75
 8056 1b62 00       		.sleb128 0
 8057 1b63 2C       		.uleb128 0x2c
 8058 1b64 01       		.uleb128 0x1
 8059 1b65 51       		.byte	0x51
 8060 1b66 05       		.uleb128 0x5
 8061 1b67 03       		.byte	0x3
 8062 1b68 D9000000 		.4byte	.LC99
 8063 1b6c 00       		.byte	0
 8064 1b6d 00       		.byte	0
 8065 1b6e 2E       		.uleb128 0x2e
ARM GAS  C:\Users\VIDEOH~1\AppData\Local\Temp\ccpdN5tN.s 			page 170


 8066 1b6f 5B060000 		.4byte	.LASF154
 8067 1b73 01       		.byte	0x1
 8068 1b74 6801     		.2byte	0x168
 8069 1b76 00000000 		.4byte	.LFB46
 8070 1b7a 18000000 		.4byte	.LFE46-.LFB46
 8071 1b7e 01       		.uleb128 0x1
 8072 1b7f 9C       		.byte	0x9c
 8073 1b80 B71B0000 		.4byte	0x1bb7
 8074 1b84 25       		.uleb128 0x25
 8075 1b85 62756600 		.ascii	"buf\000"
 8076 1b89 01       		.byte	0x1
 8077 1b8a 6801     		.2byte	0x168
 8078 1b8c F1000000 		.4byte	0xf1
 8079 1b90 02090000 		.4byte	.LLST55
 8080 1b94 2F       		.uleb128 0x2f
 8081 1b95 08000000 		.4byte	.LVL272
 8082 1b99 63290000 		.4byte	0x2963
 8083 1b9d 2B       		.uleb128 0x2b
 8084 1b9e 10000000 		.4byte	.LVL273
 8085 1ba2 2E070000 		.4byte	0x72e
 8086 1ba6 2C       		.uleb128 0x2c
 8087 1ba7 01       		.uleb128 0x1
 8088 1ba8 51       		.byte	0x51
 8089 1ba9 05       		.uleb128 0x5
 8090 1baa 03       		.byte	0x3
 8091 1bab DF000000 		.4byte	.LC101
 8092 1baf 2C       		.uleb128 0x2c
 8093 1bb0 01       		.uleb128 0x1
 8094 1bb1 52       		.byte	0x52
 8095 1bb2 02       		.uleb128 0x2
 8096 1bb3 74       		.byte	0x74
 8097 1bb4 00       		.sleb128 0
 8098 1bb5 00       		.byte	0
 8099 1bb6 00       		.byte	0
 8100 1bb7 2E       		.uleb128 0x2e
 8101 1bb8 FC0C0000 		.4byte	.LASF155
 8102 1bbc 01       		.byte	0x1
 8103 1bbd 6C01     		.2byte	0x16c
 8104 1bbf 00000000 		.4byte	.LFB47
 8105 1bc3 18000000 		.4byte	.LFE47-.LFB47
 8106 1bc7 01       		.uleb128 0x1
 8107 1bc8 9C       		.byte	0x9c
 8108 1bc9 001C0000 		.4byte	0x1c00
 8109 1bcd 25       		.uleb128 0x25
 8110 1bce 62756600 		.ascii	"buf\000"
 8111 1bd2 01       		.byte	0x1
 8112 1bd3 6C01     		.2byte	0x16c
 8113 1bd5 F1000000 		.4byte	0xf1
 8114 1bd9 2E090000 		.4byte	.LLST56
 8115 1bdd 2F       		.uleb128 0x2f
 8116 1bde 08000000 		.4byte	.LVL276
 8117 1be2 6E290000 		.4byte	0x296e
 8118 1be6 2B       		.uleb128 0x2b
 8119 1be7 10000000 		.4byte	.LVL277
 8120 1beb 2E070000 		.4byte	0x72e
 8121 1bef 2C       		.uleb128 0x2c
 8122 1bf0 01       		.uleb128 0x1
ARM GAS  C:\Users\VIDEOH~1\AppData\Local\Temp\ccpdN5tN.s 			page 171


 8123 1bf1 51       		.byte	0x51
 8124 1bf2 05       		.uleb128 0x5
 8125 1bf3 03       		.byte	0x3
 8126 1bf4 E2000000 		.4byte	.LC103
 8127 1bf8 2C       		.uleb128 0x2c
 8128 1bf9 01       		.uleb128 0x1
 8129 1bfa 52       		.byte	0x52
 8130 1bfb 02       		.uleb128 0x2
 8131 1bfc 74       		.byte	0x74
 8132 1bfd 00       		.sleb128 0
 8133 1bfe 00       		.byte	0
 8134 1bff 00       		.byte	0
 8135 1c00 43       		.uleb128 0x43
 8136 1c01 87050000 		.4byte	0x587
 8137 1c05 00000000 		.4byte	.LFB34
 8138 1c09 A4000000 		.4byte	.LFE34-.LFB34
 8139 1c0d 01       		.uleb128 0x1
 8140 1c0e 9C       		.byte	0x9c
 8141 1c0f BD1C0000 		.4byte	0x1cbd
 8142 1c13 3C       		.uleb128 0x3c
 8143 1c14 93050000 		.4byte	0x593
 8144 1c18 05       		.uleb128 0x5
 8145 1c19 03       		.byte	0x3
 8146 1c1a 08000000 		.4byte	event.7864
 8147 1c1e 3C       		.uleb128 0x3c
 8148 1c1f 9E050000 		.4byte	0x59e
 8149 1c23 05       		.uleb128 0x5
 8150 1c24 03       		.byte	0x3
 8151 1c25 04000000 		.4byte	last_levels.7865
 8152 1c29 3C       		.uleb128 0x3c
 8153 1c2a A9050000 		.4byte	0x5a9
 8154 1c2e 05       		.uleb128 0x5
 8155 1c2f 03       		.byte	0x3
 8156 1c30 08000000 		.4byte	count.7866
 8157 1c34 3C       		.uleb128 0x3c
 8158 1c35 B4050000 		.4byte	0x5b4
 8159 1c39 05       		.uleb128 0x5
 8160 1c3a 03       		.byte	0x3
 8161 1c3b 0C000000 		.4byte	before.7867
 8162 1c3f 40       		.uleb128 0x40
 8163 1c40 BF050000 		.4byte	0x5bf
 8164 1c44 5A090000 		.4byte	.LLST57
 8165 1c48 3F       		.uleb128 0x3f
 8166 1c49 40000000 		.4byte	.LBB51
 8167 1c4d 4E000000 		.4byte	.LBE51-.LBB51
 8168 1c51 AA1C0000 		.4byte	0x1caa
 8169 1c55 44       		.uleb128 0x44
 8170 1c56 BF050000 		.4byte	0x5bf
 8171 1c5a 3C       		.uleb128 0x3c
 8172 1c5b 93050000 		.4byte	0x593
 8173 1c5f 05       		.uleb128 0x5
 8174 1c60 03       		.byte	0x3
 8175 1c61 08000000 		.4byte	event.7864
 8176 1c65 3C       		.uleb128 0x3c
 8177 1c66 9E050000 		.4byte	0x59e
 8178 1c6a 05       		.uleb128 0x5
 8179 1c6b 03       		.byte	0x3
ARM GAS  C:\Users\VIDEOH~1\AppData\Local\Temp\ccpdN5tN.s 			page 172


 8180 1c6c 04000000 		.4byte	last_levels.7865
 8181 1c70 3C       		.uleb128 0x3c
 8182 1c71 A9050000 		.4byte	0x5a9
 8183 1c75 05       		.uleb128 0x5
 8184 1c76 03       		.byte	0x3
 8185 1c77 08000000 		.4byte	count.7866
 8186 1c7b 3C       		.uleb128 0x3c
 8187 1c7c B4050000 		.4byte	0x5b4
 8188 1c80 05       		.uleb128 0x5
 8189 1c81 03       		.byte	0x3
 8190 1c82 0C000000 		.4byte	before.7867
 8191 1c86 2F       		.uleb128 0x2f
 8192 1c87 48000000 		.4byte	.LVL282
 8193 1c8b 79290000 		.4byte	0x2979
 8194 1c8f 2B       		.uleb128 0x2b
 8195 1c90 78000000 		.4byte	.LVL283
 8196 1c94 85290000 		.4byte	0x2985
 8197 1c98 2C       		.uleb128 0x2c
 8198 1c99 01       		.uleb128 0x1
 8199 1c9a 51       		.byte	0x51
 8200 1c9b 02       		.uleb128 0x2
 8201 1c9c 74       		.byte	0x74
 8202 1c9d 08       		.sleb128 8
 8203 1c9e 2C       		.uleb128 0x2c
 8204 1c9f 01       		.uleb128 0x1
 8205 1ca0 52       		.byte	0x52
 8206 1ca1 01       		.uleb128 0x1
 8207 1ca2 30       		.byte	0x30
 8208 1ca3 2C       		.uleb128 0x2c
 8209 1ca4 01       		.uleb128 0x1
 8210 1ca5 53       		.byte	0x53
 8211 1ca6 01       		.uleb128 0x1
 8212 1ca7 30       		.byte	0x30
 8213 1ca8 00       		.byte	0
 8214 1ca9 00       		.byte	0
 8215 1caa 2F       		.uleb128 0x2f
 8216 1cab 06000000 		.4byte	.LVL279
 8217 1caf 91290000 		.4byte	0x2991
 8218 1cb3 2F       		.uleb128 0x2f
 8219 1cb4 0C000000 		.4byte	.LVL281
 8220 1cb8 9C290000 		.4byte	0x299c
 8221 1cbc 00       		.byte	0
 8222 1cbd 43       		.uleb128 0x43
 8223 1cbe CB050000 		.4byte	0x5cb
 8224 1cc2 00000000 		.4byte	.LFB71
 8225 1cc6 2C000000 		.4byte	.LFE71-.LFB71
 8226 1cca 01       		.uleb128 0x1
 8227 1ccb 9C       		.byte	0x9c
 8228 1ccc 4B1D0000 		.4byte	0x1d4b
 8229 1cd0 3A       		.uleb128 0x3a
 8230 1cd1 E4050000 		.4byte	0x5e4
 8231 1cd5 78090000 		.4byte	.LLST58
 8232 1cd9 3A       		.uleb128 0x3a
 8233 1cda F0050000 		.4byte	0x5f0
 8234 1cde 99090000 		.4byte	.LLST59
 8235 1ce2 3C       		.uleb128 0x3c
 8236 1ce3 FA050000 		.4byte	0x5fa
ARM GAS  C:\Users\VIDEOH~1\AppData\Local\Temp\ccpdN5tN.s 			page 173


 8237 1ce7 02       		.uleb128 0x2
 8238 1ce8 91       		.byte	0x91
 8239 1ce9 70       		.sleb128 -16
 8240 1cea 45       		.uleb128 0x45
 8241 1ceb D8050000 		.4byte	0x5d8
 8242 1cef 03       		.byte	0x3
 8243 1cf0 2D       		.uleb128 0x2d
 8244 1cf1 0E000000 		.4byte	.LVL288
 8245 1cf5 39280000 		.4byte	0x2839
 8246 1cf9 0D1D0000 		.4byte	0x1d0d
 8247 1cfd 2C       		.uleb128 0x2c
 8248 1cfe 01       		.uleb128 0x1
 8249 1cff 50       		.byte	0x50
 8250 1d00 02       		.uleb128 0x2
 8251 1d01 7D       		.byte	0x7d
 8252 1d02 00       		.sleb128 0
 8253 1d03 2C       		.uleb128 0x2c
 8254 1d04 01       		.uleb128 0x1
 8255 1d05 51       		.byte	0x51
 8256 1d06 05       		.uleb128 0x5
 8257 1d07 03       		.byte	0x3
 8258 1d08 E5000000 		.4byte	.LC116
 8259 1d0c 00       		.byte	0
 8260 1d0d 2D       		.uleb128 0x2d
 8261 1d0e 16000000 		.4byte	.LVL289
 8262 1d12 44280000 		.4byte	0x2844
 8263 1d16 2A1D0000 		.4byte	0x1d2a
 8264 1d1a 2C       		.uleb128 0x2c
 8265 1d1b 01       		.uleb128 0x1
 8266 1d1c 50       		.byte	0x50
 8267 1d1d 02       		.uleb128 0x2
 8268 1d1e 7D       		.byte	0x7d
 8269 1d1f 00       		.sleb128 0
 8270 1d20 2C       		.uleb128 0x2c
 8271 1d21 01       		.uleb128 0x1
 8272 1d22 51       		.byte	0x51
 8273 1d23 05       		.uleb128 0x5
 8274 1d24 03       		.byte	0x3
 8275 1d25 E9000000 		.4byte	.LC118
 8276 1d29 00       		.byte	0
 8277 1d2a 2B       		.uleb128 0x2b
 8278 1d2b 22000000 		.4byte	.LVL290
 8279 1d2f 65280000 		.4byte	0x2865
 8280 1d33 2C       		.uleb128 0x2c
 8281 1d34 01       		.uleb128 0x1
 8282 1d35 50       		.byte	0x50
 8283 1d36 01       		.uleb128 0x1
 8284 1d37 33       		.byte	0x33
 8285 1d38 2C       		.uleb128 0x2c
 8286 1d39 01       		.uleb128 0x1
 8287 1d3a 51       		.byte	0x51
 8288 1d3b 02       		.uleb128 0x2
 8289 1d3c 74       		.byte	0x74
 8290 1d3d 00       		.sleb128 0
 8291 1d3e 2C       		.uleb128 0x2c
 8292 1d3f 01       		.uleb128 0x1
 8293 1d40 52       		.byte	0x52
ARM GAS  C:\Users\VIDEOH~1\AppData\Local\Temp\ccpdN5tN.s 			page 174


 8294 1d41 02       		.uleb128 0x2
 8295 1d42 7D       		.byte	0x7d
 8296 1d43 00       		.sleb128 0
 8297 1d44 2C       		.uleb128 0x2c
 8298 1d45 01       		.uleb128 0x1
 8299 1d46 53       		.byte	0x53
 8300 1d47 01       		.uleb128 0x1
 8301 1d48 30       		.byte	0x30
 8302 1d49 00       		.byte	0
 8303 1d4a 00       		.byte	0
 8304 1d4b 46       		.uleb128 0x46
 8305 1d4c 67050000 		.4byte	.LASF156
 8306 1d50 01       		.byte	0x1
 8307 1d51 FB       		.byte	0xfb
 8308 1d52 01       		.byte	0x1
 8309 1d53 791D0000 		.4byte	0x1d79
 8310 1d57 47       		.uleb128 0x47
 8311 1d58 9A0C0000 		.4byte	.LASF157
 8312 1d5c 01       		.byte	0x1
 8313 1d5d FB       		.byte	0xfb
 8314 1d5e 7A000000 		.4byte	0x7a
 8315 1d62 47       		.uleb128 0x47
 8316 1d63 30030000 		.4byte	.LASF85
 8317 1d67 01       		.byte	0x1
 8318 1d68 FB       		.byte	0xfb
 8319 1d69 9F030000 		.4byte	0x39f
 8320 1d6d 1D       		.uleb128 0x1d
 8321 1d6e DF070000 		.4byte	.LASF158
 8322 1d72 01       		.byte	0x1
 8323 1d73 FD       		.byte	0xfd
 8324 1d74 7A000000 		.4byte	0x7a
 8325 1d78 00       		.byte	0
 8326 1d79 48       		.uleb128 0x48
 8327 1d7a 79010000 		.4byte	.LASF235
 8328 1d7e 01       		.byte	0x1
 8329 1d7f A801     		.2byte	0x1a8
 8330 1d81 BB000000 		.4byte	0xbb
 8331 1d85 01       		.byte	0x1
 8332 1d86 BB1D0000 		.4byte	0x1dbb
 8333 1d8a 22       		.uleb128 0x22
 8334 1d8b 4E0C0000 		.4byte	.LASF159
 8335 1d8f 01       		.byte	0x1
 8336 1d90 AA01     		.2byte	0x1aa
 8337 1d92 97000000 		.4byte	0x97
 8338 1d96 22       		.uleb128 0x22
 8339 1d97 CF0B0000 		.4byte	.LASF160
 8340 1d9b 01       		.byte	0x1
 8341 1d9c AB01     		.2byte	0x1ab
 8342 1d9e 97000000 		.4byte	0x97
 8343 1da2 22       		.uleb128 0x22
 8344 1da3 6C030000 		.4byte	.LASF161
 8345 1da7 01       		.byte	0x1
 8346 1da8 AC01     		.2byte	0x1ac
 8347 1daa 97000000 		.4byte	0x97
 8348 1dae 22       		.uleb128 0x22
 8349 1daf 90000000 		.4byte	.LASF162
 8350 1db3 01       		.byte	0x1
ARM GAS  C:\Users\VIDEOH~1\AppData\Local\Temp\ccpdN5tN.s 			page 175


 8351 1db4 AD01     		.2byte	0x1ad
 8352 1db6 A3000000 		.4byte	0xa3
 8353 1dba 00       		.byte	0
 8354 1dbb 34       		.uleb128 0x34
 8355 1dbc 8C040000 		.4byte	.LASF163
 8356 1dc0 01       		.byte	0x1
 8357 1dc1 E802     		.2byte	0x2e8
 8358 1dc3 EE040000 		.4byte	0x4ee
 8359 1dc7 00000000 		.4byte	.LFB60
 8360 1dcb 50020000 		.4byte	.LFE60-.LFB60
 8361 1dcf 01       		.uleb128 0x1
 8362 1dd0 9C       		.byte	0x9c
 8363 1dd1 00220000 		.4byte	0x2200
 8364 1dd5 25       		.uleb128 0x25
 8365 1dd6 61726700 		.ascii	"arg\000"
 8366 1dda 01       		.byte	0x1
 8367 1ddb E802     		.2byte	0x2e8
 8368 1ddd 5F040000 		.4byte	0x45f
 8369 1de1 BA090000 		.4byte	.LLST60
 8370 1de5 32       		.uleb128 0x32
 8371 1de6 65080000 		.4byte	.LASF164
 8372 1dea 01       		.byte	0x1
 8373 1deb E902     		.2byte	0x2e9
 8374 1ded 9F030000 		.4byte	0x39f
 8375 1df1 05       		.uleb128 0x5
 8376 1df2 03       		.byte	0x3
 8377 1df3 10000000 		.4byte	last_adjust_current_setpoint.8078
 8378 1df7 32       		.uleb128 0x32
 8379 1df8 FF020000 		.4byte	.LASF100
 8380 1dfc 01       		.byte	0x1
 8381 1dfd ED02     		.2byte	0x2ed
 8382 1dff 54040000 		.4byte	0x454
 8383 1e03 02       		.uleb128 0x2
 8384 1e04 91       		.byte	0x91
 8385 1e05 58       		.sleb128 -40
 8386 1e06 39       		.uleb128 0x39
 8387 1e07 4B1D0000 		.4byte	0x1d4b
 8388 1e0b 50000000 		.4byte	.LBB59
 8389 1e0f 88000000 		.4byte	.Ldebug_ranges0+0x88
 8390 1e13 01       		.byte	0x1
 8391 1e14 FE02     		.2byte	0x2fe
 8392 1e16 581E0000 		.4byte	0x1e58
 8393 1e1a 3A       		.uleb128 0x3a
 8394 1e1b 621D0000 		.4byte	0x1d62
 8395 1e1f DB090000 		.4byte	.LLST61
 8396 1e23 3A       		.uleb128 0x3a
 8397 1e24 571D0000 		.4byte	0x1d57
 8398 1e28 EF090000 		.4byte	.LLST62
 8399 1e2c 3B       		.uleb128 0x3b
 8400 1e2d 88000000 		.4byte	.Ldebug_ranges0+0x88
 8401 1e31 40       		.uleb128 0x40
 8402 1e32 6D1D0000 		.4byte	0x1d6d
 8403 1e36 020A0000 		.4byte	.LLST63
 8404 1e3a 2F       		.uleb128 0x2f
 8405 1e3b 72000000 		.4byte	.LVL302
 8406 1e3f F6280000 		.4byte	0x28f6
 8407 1e43 2B       		.uleb128 0x2b
ARM GAS  C:\Users\VIDEOH~1\AppData\Local\Temp\ccpdN5tN.s 			page 176


 8408 1e44 84000000 		.4byte	.LVL304
 8409 1e48 A7290000 		.4byte	0x29a7
 8410 1e4c 2C       		.uleb128 0x2c
 8411 1e4d 01       		.uleb128 0x1
 8412 1e4e 50       		.byte	0x50
 8413 1e4f 05       		.uleb128 0x5
 8414 1e50 03       		.byte	0x3
 8415 1e51 EB000000 		.4byte	.LC124
 8416 1e55 00       		.byte	0
 8417 1e56 00       		.byte	0
 8418 1e57 00       		.byte	0
 8419 1e58 3D       		.uleb128 0x3d
 8420 1e59 07060000 		.4byte	0x607
 8421 1e5d 9A000000 		.4byte	.LBB65
 8422 1e61 80010000 		.4byte	.LBE65-.LBB65
 8423 1e65 01       		.byte	0x1
 8424 1e66 0503     		.2byte	0x305
 8425 1e68 BE210000 		.4byte	0x21be
 8426 1e6c 49       		.uleb128 0x49
 8427 1e6d 14060000 		.4byte	0x614
 8428 1e71 3A       		.uleb128 0x3a
 8429 1e72 20060000 		.4byte	0x620
 8430 1e76 150A0000 		.4byte	.LLST64
 8431 1e7a 3E       		.uleb128 0x3e
 8432 1e7b 9A000000 		.4byte	.LBB66
 8433 1e7f 80010000 		.4byte	.LBE66-.LBB66
 8434 1e83 3C       		.uleb128 0x3c
 8435 1e84 2C060000 		.4byte	0x62c
 8436 1e88 02       		.uleb128 0x2
 8437 1e89 91       		.byte	0x91
 8438 1e8a 50       		.sleb128 -48
 8439 1e8b 40       		.uleb128 0x40
 8440 1e8c 38060000 		.4byte	0x638
 8441 1e90 3B0A0000 		.4byte	.LLST65
 8442 1e94 40       		.uleb128 0x40
 8443 1e95 44060000 		.4byte	0x644
 8444 1e99 580A0000 		.4byte	.LLST66
 8445 1e9d 3F       		.uleb128 0x3f
 8446 1e9e 4A010000 		.4byte	.LBB67
 8447 1ea2 54000000 		.4byte	.LBE67-.LBB67
 8448 1ea6 711F0000 		.4byte	0x1f71
 8449 1eaa 40       		.uleb128 0x40
 8450 1eab 51060000 		.4byte	0x651
 8451 1eaf 760A0000 		.4byte	.LLST67
 8452 1eb3 4A       		.uleb128 0x4a
 8453 1eb4 5C010000 		.4byte	.LVL322
 8454 1eb8 C31E0000 		.4byte	0x1ec3
 8455 1ebc 2C       		.uleb128 0x2c
 8456 1ebd 01       		.uleb128 0x1
 8457 1ebe 50       		.byte	0x50
 8458 1ebf 02       		.uleb128 0x2
 8459 1ec0 91       		.byte	0x91
 8460 1ec1 50       		.sleb128 -48
 8461 1ec2 00       		.byte	0
 8462 1ec3 2D       		.uleb128 0x2d
 8463 1ec4 6A010000 		.4byte	.LVL323
 8464 1ec8 9E280000 		.4byte	0x289e
ARM GAS  C:\Users\VIDEOH~1\AppData\Local\Temp\ccpdN5tN.s 			page 177


 8465 1ecc EE1E0000 		.4byte	0x1eee
 8466 1ed0 2C       		.uleb128 0x2c
 8467 1ed1 01       		.uleb128 0x1
 8468 1ed2 50       		.byte	0x50
 8469 1ed3 01       		.uleb128 0x1
 8470 1ed4 32       		.byte	0x32
 8471 1ed5 2C       		.uleb128 0x2c
 8472 1ed6 01       		.uleb128 0x1
 8473 1ed7 51       		.byte	0x51
 8474 1ed8 02       		.uleb128 0x2
 8475 1ed9 08       		.byte	0x8
 8476 1eda 30       		.byte	0x30
 8477 1edb 2C       		.uleb128 0x2c
 8478 1edc 01       		.uleb128 0x1
 8479 1edd 52       		.byte	0x52
 8480 1ede 01       		.uleb128 0x1
 8481 1edf 33       		.byte	0x33
 8482 1ee0 2C       		.uleb128 0x2c
 8483 1ee1 01       		.uleb128 0x1
 8484 1ee2 53       		.byte	0x53
 8485 1ee3 02       		.uleb128 0x2
 8486 1ee4 08       		.byte	0x8
 8487 1ee5 4F       		.byte	0x4f
 8488 1ee6 2C       		.uleb128 0x2c
 8489 1ee7 02       		.uleb128 0x2
 8490 1ee8 7D       		.byte	0x7d
 8491 1ee9 00       		.sleb128 0
 8492 1eea 02       		.uleb128 0x2
 8493 1eeb 75       		.byte	0x75
 8494 1eec 00       		.sleb128 0
 8495 1eed 00       		.byte	0
 8496 1eee 2D       		.uleb128 0x2d
 8497 1eef 76010000 		.4byte	.LVL324
 8498 1ef3 65280000 		.4byte	0x2865
 8499 1ef7 131F0000 		.4byte	0x1f13
 8500 1efb 2C       		.uleb128 0x2c
 8501 1efc 01       		.uleb128 0x1
 8502 1efd 50       		.byte	0x50
 8503 1efe 01       		.uleb128 0x1
 8504 1eff 33       		.byte	0x33
 8505 1f00 2C       		.uleb128 0x2c
 8506 1f01 01       		.uleb128 0x1
 8507 1f02 51       		.byte	0x51
 8508 1f03 02       		.uleb128 0x2
 8509 1f04 75       		.byte	0x75
 8510 1f05 00       		.sleb128 0
 8511 1f06 2C       		.uleb128 0x2c
 8512 1f07 01       		.uleb128 0x1
 8513 1f08 52       		.byte	0x52
 8514 1f09 02       		.uleb128 0x2
 8515 1f0a 91       		.byte	0x91
 8516 1f0b 50       		.sleb128 -48
 8517 1f0c 2C       		.uleb128 0x2c
 8518 1f0d 01       		.uleb128 0x1
 8519 1f0e 53       		.byte	0x53
 8520 1f0f 02       		.uleb128 0x2
 8521 1f10 75       		.byte	0x75
ARM GAS  C:\Users\VIDEOH~1\AppData\Local\Temp\ccpdN5tN.s 			page 178


 8522 1f11 00       		.sleb128 0
 8523 1f12 00       		.byte	0
 8524 1f13 4A       		.uleb128 0x4a
 8525 1f14 84010000 		.4byte	.LVL325
 8526 1f18 231F0000 		.4byte	0x1f23
 8527 1f1c 2C       		.uleb128 0x2c
 8528 1f1d 01       		.uleb128 0x1
 8529 1f1e 50       		.byte	0x50
 8530 1f1f 02       		.uleb128 0x2
 8531 1f20 91       		.byte	0x91
 8532 1f21 50       		.sleb128 -48
 8533 1f22 00       		.byte	0
 8534 1f23 2D       		.uleb128 0x2d
 8535 1f24 92010000 		.4byte	.LVL326
 8536 1f28 9E280000 		.4byte	0x289e
 8537 1f2c 4F1F0000 		.4byte	0x1f4f
 8538 1f30 2C       		.uleb128 0x2c
 8539 1f31 01       		.uleb128 0x1
 8540 1f32 50       		.byte	0x50
 8541 1f33 02       		.uleb128 0x2
 8542 1f34 75       		.byte	0x75
 8543 1f35 00       		.sleb128 0
 8544 1f36 2C       		.uleb128 0x2c
 8545 1f37 01       		.uleb128 0x1
 8546 1f38 51       		.byte	0x51
 8547 1f39 02       		.uleb128 0x2
 8548 1f3a 08       		.byte	0x8
 8549 1f3b 30       		.byte	0x30
 8550 1f3c 2C       		.uleb128 0x2c
 8551 1f3d 01       		.uleb128 0x1
 8552 1f3e 52       		.byte	0x52
 8553 1f3f 01       		.uleb128 0x1
 8554 1f40 31       		.byte	0x31
 8555 1f41 2C       		.uleb128 0x2c
 8556 1f42 01       		.uleb128 0x1
 8557 1f43 53       		.byte	0x53
 8558 1f44 02       		.uleb128 0x2
 8559 1f45 08       		.byte	0x8
 8560 1f46 4F       		.byte	0x4f
 8561 1f47 2C       		.uleb128 0x2c
 8562 1f48 02       		.uleb128 0x2
 8563 1f49 7D       		.byte	0x7d
 8564 1f4a 00       		.sleb128 0
 8565 1f4b 02       		.uleb128 0x2
 8566 1f4c 75       		.byte	0x75
 8567 1f4d 00       		.sleb128 0
 8568 1f4e 00       		.byte	0
 8569 1f4f 2B       		.uleb128 0x2b
 8570 1f50 9E010000 		.4byte	.LVL327
 8571 1f54 65280000 		.4byte	0x2865
 8572 1f58 2C       		.uleb128 0x2c
 8573 1f59 01       		.uleb128 0x1
 8574 1f5a 50       		.byte	0x50
 8575 1f5b 01       		.uleb128 0x1
 8576 1f5c 31       		.byte	0x31
 8577 1f5d 2C       		.uleb128 0x2c
 8578 1f5e 01       		.uleb128 0x1
ARM GAS  C:\Users\VIDEOH~1\AppData\Local\Temp\ccpdN5tN.s 			page 179


 8579 1f5f 51       		.byte	0x51
 8580 1f60 02       		.uleb128 0x2
 8581 1f61 75       		.byte	0x75
 8582 1f62 00       		.sleb128 0
 8583 1f63 2C       		.uleb128 0x2c
 8584 1f64 01       		.uleb128 0x1
 8585 1f65 52       		.byte	0x52
 8586 1f66 02       		.uleb128 0x2
 8587 1f67 91       		.byte	0x91
 8588 1f68 50       		.sleb128 -48
 8589 1f69 2C       		.uleb128 0x2c
 8590 1f6a 01       		.uleb128 0x1
 8591 1f6b 53       		.byte	0x53
 8592 1f6c 02       		.uleb128 0x2
 8593 1f6d 75       		.byte	0x75
 8594 1f6e 00       		.sleb128 0
 8595 1f6f 00       		.byte	0
 8596 1f70 00       		.byte	0
 8597 1f71 3D       		.uleb128 0x3d
 8598 1f72 791D0000 		.4byte	0x1d79
 8599 1f76 E0010000 		.4byte	.LBB68
 8600 1f7a 2E000000 		.4byte	.LBE68-.LBB68
 8601 1f7e 01       		.byte	0x1
 8602 1f7f A501     		.2byte	0x1a5
 8603 1f81 BD1F0000 		.4byte	0x1fbd
 8604 1f85 3E       		.uleb128 0x3e
 8605 1f86 E0010000 		.4byte	.LBB69
 8606 1f8a 2E000000 		.4byte	.LBE69-.LBB69
 8607 1f8e 40       		.uleb128 0x40
 8608 1f8f 8A1D0000 		.4byte	0x1d8a
 8609 1f93 AE0A0000 		.4byte	.LLST68
 8610 1f97 40       		.uleb128 0x40
 8611 1f98 961D0000 		.4byte	0x1d96
 8612 1f9c CD0A0000 		.4byte	.LLST69
 8613 1fa0 40       		.uleb128 0x40
 8614 1fa1 A21D0000 		.4byte	0x1da2
 8615 1fa5 030B0000 		.4byte	.LLST70
 8616 1fa9 40       		.uleb128 0x40
 8617 1faa AE1D0000 		.4byte	0x1dae
 8618 1fae 390B0000 		.4byte	.LLST71
 8619 1fb2 2F       		.uleb128 0x2f
 8620 1fb3 E4010000 		.4byte	.LVL335
 8621 1fb7 B2290000 		.4byte	0x29b2
 8622 1fbb 00       		.byte	0
 8623 1fbc 00       		.byte	0
 8624 1fbd 4B       		.uleb128 0x4b
 8625 1fbe BC000000 		.4byte	.LVL309
 8626 1fc2 08       		.uleb128 0x8
 8627 1fc3 77       		.byte	0x77
 8628 1fc4 00       		.sleb128 0
 8629 1fc5 75       		.byte	0x75
 8630 1fc6 00       		.sleb128 0
 8631 1fc7 22       		.byte	0x22
 8632 1fc8 23       		.byte	0x23
 8633 1fc9 08       		.uleb128 0x8
 8634 1fca 06       		.byte	0x6
 8635 1fcb D61F0000 		.4byte	0x1fd6
ARM GAS  C:\Users\VIDEOH~1\AppData\Local\Temp\ccpdN5tN.s 			page 180


 8636 1fcf 2C       		.uleb128 0x2c
 8637 1fd0 01       		.uleb128 0x1
 8638 1fd1 50       		.byte	0x50
 8639 1fd2 02       		.uleb128 0x2
 8640 1fd3 91       		.byte	0x91
 8641 1fd4 50       		.sleb128 -48
 8642 1fd5 00       		.byte	0
 8643 1fd6 2D       		.uleb128 0x2d
 8644 1fd7 CA000000 		.4byte	.LVL310
 8645 1fdb 9E280000 		.4byte	0x289e
 8646 1fdf 01200000 		.4byte	0x2001
 8647 1fe3 2C       		.uleb128 0x2c
 8648 1fe4 01       		.uleb128 0x1
 8649 1fe5 50       		.byte	0x50
 8650 1fe6 01       		.uleb128 0x1
 8651 1fe7 34       		.byte	0x34
 8652 1fe8 2C       		.uleb128 0x2c
 8653 1fe9 01       		.uleb128 0x1
 8654 1fea 51       		.byte	0x51
 8655 1feb 02       		.uleb128 0x2
 8656 1fec 08       		.byte	0x8
 8657 1fed 48       		.byte	0x48
 8658 1fee 2C       		.uleb128 0x2c
 8659 1fef 01       		.uleb128 0x1
 8660 1ff0 52       		.byte	0x52
 8661 1ff1 01       		.uleb128 0x1
 8662 1ff2 37       		.byte	0x37
 8663 1ff3 2C       		.uleb128 0x2c
 8664 1ff4 01       		.uleb128 0x1
 8665 1ff5 53       		.byte	0x53
 8666 1ff6 02       		.uleb128 0x2
 8667 1ff7 08       		.byte	0x8
 8668 1ff8 4D       		.byte	0x4d
 8669 1ff9 2C       		.uleb128 0x2c
 8670 1ffa 02       		.uleb128 0x2
 8671 1ffb 7D       		.byte	0x7d
 8672 1ffc 00       		.sleb128 0
 8673 1ffd 02       		.uleb128 0x2
 8674 1ffe 76       		.byte	0x76
 8675 1fff 00       		.sleb128 0
 8676 2000 00       		.byte	0
 8677 2001 2D       		.uleb128 0x2d
 8678 2002 D8000000 		.4byte	.LVL311
 8679 2006 9E280000 		.4byte	0x289e
 8680 200a 2C200000 		.4byte	0x202c
 8681 200e 2C       		.uleb128 0x2c
 8682 200f 01       		.uleb128 0x1
 8683 2010 50       		.byte	0x50
 8684 2011 01       		.uleb128 0x1
 8685 2012 34       		.byte	0x34
 8686 2013 2C       		.uleb128 0x2c
 8687 2014 01       		.uleb128 0x1
 8688 2015 51       		.byte	0x51
 8689 2016 02       		.uleb128 0x2
 8690 2017 08       		.byte	0x8
 8691 2018 4D       		.byte	0x4d
 8692 2019 2C       		.uleb128 0x2c
ARM GAS  C:\Users\VIDEOH~1\AppData\Local\Temp\ccpdN5tN.s 			page 181


 8693 201a 01       		.uleb128 0x1
 8694 201b 52       		.byte	0x52
 8695 201c 01       		.uleb128 0x1
 8696 201d 35       		.byte	0x35
 8697 201e 2C       		.uleb128 0x2c
 8698 201f 01       		.uleb128 0x1
 8699 2020 53       		.byte	0x53
 8700 2021 02       		.uleb128 0x2
 8701 2022 08       		.byte	0x8
 8702 2023 72       		.byte	0x72
 8703 2024 2C       		.uleb128 0x2c
 8704 2025 02       		.uleb128 0x2
 8705 2026 7D       		.byte	0x7d
 8706 2027 00       		.sleb128 0
 8707 2028 02       		.uleb128 0x2
 8708 2029 76       		.byte	0x76
 8709 202a 00       		.sleb128 0
 8710 202b 00       		.byte	0
 8711 202c 2D       		.uleb128 0x2d
 8712 202d E2000000 		.4byte	.LVL312
 8713 2031 BD290000 		.4byte	0x29bd
 8714 2035 4B200000 		.4byte	0x204b
 8715 2039 2C       		.uleb128 0x2c
 8716 203a 01       		.uleb128 0x1
 8717 203b 50       		.byte	0x50
 8718 203c 01       		.uleb128 0x1
 8719 203d 37       		.byte	0x37
 8720 203e 2C       		.uleb128 0x2c
 8721 203f 01       		.uleb128 0x1
 8722 2040 51       		.byte	0x51
 8723 2041 02       		.uleb128 0x2
 8724 2042 76       		.byte	0x76
 8725 2043 00       		.sleb128 0
 8726 2044 2C       		.uleb128 0x2c
 8727 2045 01       		.uleb128 0x1
 8728 2046 52       		.byte	0x52
 8729 2047 02       		.uleb128 0x2
 8730 2048 91       		.byte	0x91
 8731 2049 50       		.sleb128 -48
 8732 204a 00       		.byte	0
 8733 204b 2D       		.uleb128 0x2d
 8734 204c F2000000 		.4byte	.LVL313
 8735 2050 9E280000 		.4byte	0x289e
 8736 2054 76200000 		.4byte	0x2076
 8737 2058 2C       		.uleb128 0x2c
 8738 2059 01       		.uleb128 0x1
 8739 205a 50       		.byte	0x50
 8740 205b 01       		.uleb128 0x1
 8741 205c 34       		.byte	0x34
 8742 205d 2C       		.uleb128 0x2c
 8743 205e 01       		.uleb128 0x1
 8744 205f 51       		.byte	0x51
 8745 2060 02       		.uleb128 0x2
 8746 2061 76       		.byte	0x76
 8747 2062 00       		.sleb128 0
 8748 2063 2C       		.uleb128 0x2c
 8749 2064 01       		.uleb128 0x1
ARM GAS  C:\Users\VIDEOH~1\AppData\Local\Temp\ccpdN5tN.s 			page 182


 8750 2065 52       		.byte	0x52
 8751 2066 01       		.uleb128 0x1
 8752 2067 37       		.byte	0x37
 8753 2068 2C       		.uleb128 0x2c
 8754 2069 01       		.uleb128 0x1
 8755 206a 53       		.byte	0x53
 8756 206b 02       		.uleb128 0x2
 8757 206c 08       		.byte	0x8
 8758 206d 4D       		.byte	0x4d
 8759 206e 2C       		.uleb128 0x2c
 8760 206f 02       		.uleb128 0x2
 8761 2070 7D       		.byte	0x7d
 8762 2071 00       		.sleb128 0
 8763 2072 02       		.uleb128 0x2
 8764 2073 76       		.byte	0x76
 8765 2074 00       		.sleb128 0
 8766 2075 00       		.byte	0
 8767 2076 2D       		.uleb128 0x2d
 8768 2077 00010000 		.4byte	.LVL314
 8769 207b 9E280000 		.4byte	0x289e
 8770 207f A1200000 		.4byte	0x20a1
 8771 2083 2C       		.uleb128 0x2c
 8772 2084 01       		.uleb128 0x1
 8773 2085 50       		.byte	0x50
 8774 2086 01       		.uleb128 0x1
 8775 2087 34       		.byte	0x34
 8776 2088 2C       		.uleb128 0x2c
 8777 2089 01       		.uleb128 0x1
 8778 208a 51       		.byte	0x51
 8779 208b 02       		.uleb128 0x2
 8780 208c 08       		.byte	0x8
 8781 208d 4D       		.byte	0x4d
 8782 208e 2C       		.uleb128 0x2c
 8783 208f 01       		.uleb128 0x1
 8784 2090 52       		.byte	0x52
 8785 2091 01       		.uleb128 0x1
 8786 2092 35       		.byte	0x35
 8787 2093 2C       		.uleb128 0x2c
 8788 2094 01       		.uleb128 0x1
 8789 2095 53       		.byte	0x53
 8790 2096 02       		.uleb128 0x2
 8791 2097 08       		.byte	0x8
 8792 2098 72       		.byte	0x72
 8793 2099 2C       		.uleb128 0x2c
 8794 209a 02       		.uleb128 0x2
 8795 209b 7D       		.byte	0x7d
 8796 209c 00       		.sleb128 0
 8797 209d 02       		.uleb128 0x2
 8798 209e 76       		.byte	0x76
 8799 209f 00       		.sleb128 0
 8800 20a0 00       		.byte	0
 8801 20a1 2D       		.uleb128 0x2d
 8802 20a2 0C010000 		.4byte	.LVL315
 8803 20a6 37290000 		.4byte	0x2937
 8804 20aa B5200000 		.4byte	0x20b5
 8805 20ae 2C       		.uleb128 0x2c
 8806 20af 01       		.uleb128 0x1
ARM GAS  C:\Users\VIDEOH~1\AppData\Local\Temp\ccpdN5tN.s 			page 183


 8807 20b0 50       		.byte	0x50
 8808 20b1 02       		.uleb128 0x2
 8809 20b2 77       		.byte	0x77
 8810 20b3 00       		.sleb128 0
 8811 20b4 00       		.byte	0
 8812 20b5 2D       		.uleb128 0x2d
 8813 20b6 22010000 		.4byte	.LVL317
 8814 20ba 65280000 		.4byte	0x2865
 8815 20be D9200000 		.4byte	0x20d9
 8816 20c2 2C       		.uleb128 0x2c
 8817 20c3 01       		.uleb128 0x1
 8818 20c4 50       		.byte	0x50
 8819 20c5 01       		.uleb128 0x1
 8820 20c6 37       		.byte	0x37
 8821 20c7 2C       		.uleb128 0x2c
 8822 20c8 01       		.uleb128 0x1
 8823 20c9 51       		.byte	0x51
 8824 20ca 02       		.uleb128 0x2
 8825 20cb 75       		.byte	0x75
 8826 20cc 00       		.sleb128 0
 8827 20cd 2C       		.uleb128 0x2c
 8828 20ce 01       		.uleb128 0x1
 8829 20cf 52       		.byte	0x52
 8830 20d0 02       		.uleb128 0x2
 8831 20d1 77       		.byte	0x77
 8832 20d2 00       		.sleb128 0
 8833 20d3 2C       		.uleb128 0x2c
 8834 20d4 01       		.uleb128 0x1
 8835 20d5 53       		.byte	0x53
 8836 20d6 01       		.uleb128 0x1
 8837 20d7 31       		.byte	0x31
 8838 20d8 00       		.byte	0
 8839 20d9 2D       		.uleb128 0x2d
 8840 20da 36010000 		.4byte	.LVL318
 8841 20de 9E280000 		.4byte	0x289e
 8842 20e2 03210000 		.4byte	0x2103
 8843 20e6 2C       		.uleb128 0x2c
 8844 20e7 01       		.uleb128 0x1
 8845 20e8 50       		.byte	0x50
 8846 20e9 01       		.uleb128 0x1
 8847 20ea 36       		.byte	0x36
 8848 20eb 2C       		.uleb128 0x2c
 8849 20ec 01       		.uleb128 0x1
 8850 20ed 51       		.byte	0x51
 8851 20ee 02       		.uleb128 0x2
 8852 20ef 08       		.byte	0x8
 8853 20f0 5B       		.byte	0x5b
 8854 20f1 2C       		.uleb128 0x2c
 8855 20f2 01       		.uleb128 0x1
 8856 20f3 52       		.byte	0x52
 8857 20f4 01       		.uleb128 0x1
 8858 20f5 37       		.byte	0x37
 8859 20f6 2C       		.uleb128 0x2c
 8860 20f7 01       		.uleb128 0x1
 8861 20f8 53       		.byte	0x53
 8862 20f9 02       		.uleb128 0x2
 8863 20fa 75       		.byte	0x75
ARM GAS  C:\Users\VIDEOH~1\AppData\Local\Temp\ccpdN5tN.s 			page 184


 8864 20fb 00       		.sleb128 0
 8865 20fc 2C       		.uleb128 0x2c
 8866 20fd 02       		.uleb128 0x2
 8867 20fe 7D       		.byte	0x7d
 8868 20ff 00       		.sleb128 0
 8869 2100 01       		.uleb128 0x1
 8870 2101 30       		.byte	0x30
 8871 2102 00       		.byte	0
 8872 2103 2F       		.uleb128 0x2f
 8873 2104 3A010000 		.4byte	.LVL319
 8874 2108 21290000 		.4byte	0x2921
 8875 210c 2D       		.uleb128 0x2d
 8876 210d 4A010000 		.4byte	.LVL320
 8877 2111 65280000 		.4byte	0x2865
 8878 2115 33210000 		.4byte	0x2133
 8879 2119 2C       		.uleb128 0x2c
 8880 211a 01       		.uleb128 0x1
 8881 211b 50       		.byte	0x50
 8882 211c 01       		.uleb128 0x1
 8883 211d 31       		.byte	0x31
 8884 211e 2C       		.uleb128 0x2c
 8885 211f 01       		.uleb128 0x1
 8886 2120 51       		.byte	0x51
 8887 2121 02       		.uleb128 0x2
 8888 2122 08       		.byte	0x8
 8889 2123 5B       		.byte	0x5b
 8890 2124 2C       		.uleb128 0x2c
 8891 2125 01       		.uleb128 0x1
 8892 2126 52       		.byte	0x52
 8893 2127 05       		.uleb128 0x5
 8894 2128 03       		.byte	0x3
 8895 2129 59000000 		.4byte	.LC31
 8896 212d 2C       		.uleb128 0x2c
 8897 212e 01       		.uleb128 0x1
 8898 212f 53       		.byte	0x53
 8899 2130 01       		.uleb128 0x1
 8900 2131 31       		.byte	0x31
 8901 2132 00       		.byte	0
 8902 2133 2F       		.uleb128 0x2f
 8903 2134 A2010000 		.4byte	.LVL328
 8904 2138 C8290000 		.4byte	0x29c8
 8905 213c 2D       		.uleb128 0x2d
 8906 213d B6010000 		.4byte	.LVL330
 8907 2141 9E280000 		.4byte	0x289e
 8908 2145 66210000 		.4byte	0x2166
 8909 2149 2C       		.uleb128 0x2c
 8910 214a 01       		.uleb128 0x1
 8911 214b 50       		.byte	0x50
 8912 214c 01       		.uleb128 0x1
 8913 214d 30       		.byte	0x30
 8914 214e 2C       		.uleb128 0x2c
 8915 214f 01       		.uleb128 0x1
 8916 2150 51       		.byte	0x51
 8917 2151 02       		.uleb128 0x2
 8918 2152 08       		.byte	0x8
 8919 2153 5B       		.byte	0x5b
 8920 2154 2C       		.uleb128 0x2c
ARM GAS  C:\Users\VIDEOH~1\AppData\Local\Temp\ccpdN5tN.s 			page 185


 8921 2155 01       		.uleb128 0x1
 8922 2156 52       		.byte	0x52
 8923 2157 01       		.uleb128 0x1
 8924 2158 31       		.byte	0x31
 8925 2159 2C       		.uleb128 0x2c
 8926 215a 01       		.uleb128 0x1
 8927 215b 53       		.byte	0x53
 8928 215c 02       		.uleb128 0x2
 8929 215d 08       		.byte	0x8
 8930 215e 7F       		.byte	0x7f
 8931 215f 2C       		.uleb128 0x2c
 8932 2160 02       		.uleb128 0x2
 8933 2161 7D       		.byte	0x7d
 8934 2162 00       		.sleb128 0
 8935 2163 01       		.uleb128 0x1
 8936 2164 30       		.byte	0x30
 8937 2165 00       		.byte	0
 8938 2166 2F       		.uleb128 0x2f
 8939 2167 BC010000 		.4byte	.LVL332
 8940 216b D3290000 		.4byte	0x29d3
 8941 216f 2D       		.uleb128 0x2d
 8942 2170 D0010000 		.4byte	.LVL333
 8943 2174 65280000 		.4byte	0x2865
 8944 2178 88210000 		.4byte	0x2188
 8945 217c 2C       		.uleb128 0x2c
 8946 217d 01       		.uleb128 0x1
 8947 217e 50       		.byte	0x50
 8948 217f 01       		.uleb128 0x1
 8949 2180 35       		.byte	0x35
 8950 2181 2C       		.uleb128 0x2c
 8951 2182 01       		.uleb128 0x1
 8952 2183 51       		.byte	0x51
 8953 2184 02       		.uleb128 0x2
 8954 2185 08       		.byte	0x8
 8955 2186 73       		.byte	0x73
 8956 2187 00       		.byte	0
 8957 2188 2D       		.uleb128 0x2d
 8958 2189 E0010000 		.4byte	.LVL334
 8959 218d 9E280000 		.4byte	0x289e
 8960 2191 AC210000 		.4byte	0x21ac
 8961 2195 2C       		.uleb128 0x2c
 8962 2196 01       		.uleb128 0x1
 8963 2197 50       		.byte	0x50
 8964 2198 01       		.uleb128 0x1
 8965 2199 34       		.byte	0x34
 8966 219a 2C       		.uleb128 0x2c
 8967 219b 01       		.uleb128 0x1
 8968 219c 51       		.byte	0x51
 8969 219d 02       		.uleb128 0x2
 8970 219e 08       		.byte	0x8
 8971 219f 73       		.byte	0x73
 8972 21a0 2C       		.uleb128 0x2c
 8973 21a1 01       		.uleb128 0x1
 8974 21a2 52       		.byte	0x52
 8975 21a3 01       		.uleb128 0x1
 8976 21a4 35       		.byte	0x35
 8977 21a5 2C       		.uleb128 0x2c
ARM GAS  C:\Users\VIDEOH~1\AppData\Local\Temp\ccpdN5tN.s 			page 186


 8978 21a6 01       		.uleb128 0x1
 8979 21a7 53       		.byte	0x53
 8980 21a8 02       		.uleb128 0x2
 8981 21a9 08       		.byte	0x8
 8982 21aa 7F       		.byte	0x7f
 8983 21ab 00       		.byte	0
 8984 21ac 2B       		.uleb128 0x2b
 8985 21ad 18020000 		.4byte	.LVL345
 8986 21b1 BD1C0000 		.4byte	0x1cbd
 8987 21b5 2C       		.uleb128 0x2c
 8988 21b6 01       		.uleb128 0x1
 8989 21b7 50       		.byte	0x50
 8990 21b8 02       		.uleb128 0x2
 8991 21b9 08       		.byte	0x8
 8992 21ba 4F       		.byte	0x4f
 8993 21bb 00       		.byte	0
 8994 21bc 00       		.byte	0
 8995 21bd 00       		.byte	0
 8996 21be 2F       		.uleb128 0x2f
 8997 21bf 0A000000 		.4byte	.LVL292
 8998 21c3 5A280000 		.4byte	0x285a
 8999 21c7 2D       		.uleb128 0x2d
 9000 21c8 12000000 		.4byte	.LVL293
 9001 21cc 27090000 		.4byte	0x927
 9002 21d0 DB210000 		.4byte	0x21db
 9003 21d4 2C       		.uleb128 0x2c
 9004 21d5 01       		.uleb128 0x1
 9005 21d6 50       		.byte	0x50
 9006 21d7 02       		.uleb128 0x2
 9007 21d8 75       		.byte	0x75
 9008 21d9 00       		.sleb128 0
 9009 21da 00       		.byte	0
 9010 21db 2F       		.uleb128 0x2f
 9011 21dc 3A000000 		.4byte	.LVL294
 9012 21e0 21290000 		.4byte	0x2921
 9013 21e4 2F       		.uleb128 0x2f
 9014 21e5 48000000 		.4byte	.LVL295
 9015 21e9 01290000 		.4byte	0x2901
 9016 21ed 2F       		.uleb128 0x2f
 9017 21ee 4E000000 		.4byte	.LVL296
 9018 21f2 7B280000 		.4byte	0x287b
 9019 21f6 2F       		.uleb128 0x2f
 9020 21f7 98000000 		.4byte	.LVL305
 9021 21fb 7B280000 		.4byte	0x287b
 9022 21ff 00       		.byte	0
 9023 2200 24       		.uleb128 0x24
 9024 2201 36060000 		.4byte	.LASF165
 9025 2205 01       		.byte	0x1
 9026 2206 3A02     		.2byte	0x23a
 9027 2208 EE040000 		.4byte	0x4ee
 9028 220c 00000000 		.4byte	.LFB56
 9029 2210 F4000000 		.4byte	.LFE56-.LFB56
 9030 2214 01       		.uleb128 0x1
 9031 2215 9C       		.byte	0x9c
 9032 2216 47230000 		.4byte	0x2347
 9033 221a 25       		.uleb128 0x25
 9034 221b 61726700 		.ascii	"arg\000"
ARM GAS  C:\Users\VIDEOH~1\AppData\Local\Temp\ccpdN5tN.s 			page 187


 9035 221f 01       		.byte	0x1
 9036 2220 3A02     		.2byte	0x23a
 9037 2222 5F040000 		.4byte	0x45f
 9038 2226 4C0B0000 		.4byte	.LLST72
 9039 222a 35       		.uleb128 0x35
 9040 222b CB080000 		.4byte	.LASF166
 9041 222f 01       		.byte	0x1
 9042 2230 4102     		.2byte	0x241
 9043 2232 C7000000 		.4byte	0xc7
 9044 2236 6D0B0000 		.4byte	.LLST73
 9045 223a 35       		.uleb128 0x35
 9046 223b 7C040000 		.4byte	.LASF167
 9047 223f 01       		.byte	0x1
 9048 2240 4202     		.2byte	0x242
 9049 2242 C7000000 		.4byte	0xc7
 9050 2246 D40B0000 		.4byte	.LLST74
 9051 224a 32       		.uleb128 0x32
 9052 224b FF020000 		.4byte	.LASF100
 9053 224f 01       		.byte	0x1
 9054 2250 4302     		.2byte	0x243
 9055 2252 54040000 		.4byte	0x454
 9056 2256 02       		.uleb128 0x2
 9057 2257 91       		.byte	0x91
 9058 2258 58       		.sleb128 -40
 9059 2259 2F       		.uleb128 0x2f
 9060 225a 0A000000 		.4byte	.LVL349
 9061 225e 5A280000 		.4byte	0x285a
 9062 2262 2D       		.uleb128 0x2d
 9063 2263 1A000000 		.4byte	.LVL350
 9064 2267 9E280000 		.4byte	0x289e
 9065 226b 8C220000 		.4byte	0x228c
 9066 226f 2C       		.uleb128 0x2c
 9067 2270 01       		.uleb128 0x1
 9068 2271 50       		.byte	0x50
 9069 2272 01       		.uleb128 0x1
 9070 2273 36       		.byte	0x36
 9071 2274 2C       		.uleb128 0x2c
 9072 2275 01       		.uleb128 0x1
 9073 2276 51       		.byte	0x51
 9074 2277 01       		.uleb128 0x1
 9075 2278 32       		.byte	0x32
 9076 2279 2C       		.uleb128 0x2c
 9077 227a 01       		.uleb128 0x1
 9078 227b 52       		.byte	0x52
 9079 227c 01       		.uleb128 0x1
 9080 227d 37       		.byte	0x37
 9081 227e 2C       		.uleb128 0x2c
 9082 227f 01       		.uleb128 0x1
 9083 2280 53       		.byte	0x53
 9084 2281 02       		.uleb128 0x2
 9085 2282 08       		.byte	0x8
 9086 2283 7F       		.byte	0x7f
 9087 2284 2C       		.uleb128 0x2c
 9088 2285 02       		.uleb128 0x2
 9089 2286 7D       		.byte	0x7d
 9090 2287 00       		.sleb128 0
 9091 2288 02       		.uleb128 0x2
ARM GAS  C:\Users\VIDEOH~1\AppData\Local\Temp\ccpdN5tN.s 			page 188


 9092 2289 09       		.byte	0x9
 9093 228a FF       		.byte	0xff
 9094 228b 00       		.byte	0
 9095 228c 2D       		.uleb128 0x2d
 9096 228d 26000000 		.4byte	.LVL351
 9097 2291 65280000 		.4byte	0x2865
 9098 2295 B2220000 		.4byte	0x22b2
 9099 2299 2C       		.uleb128 0x2c
 9100 229a 01       		.uleb128 0x1
 9101 229b 50       		.byte	0x50
 9102 229c 01       		.uleb128 0x1
 9103 229d 37       		.byte	0x37
 9104 229e 2C       		.uleb128 0x2c
 9105 229f 01       		.uleb128 0x1
 9106 22a0 51       		.byte	0x51
 9107 22a1 01       		.uleb128 0x1
 9108 22a2 4C       		.byte	0x4c
 9109 22a3 2C       		.uleb128 0x2c
 9110 22a4 01       		.uleb128 0x1
 9111 22a5 52       		.byte	0x52
 9112 22a6 05       		.uleb128 0x5
 9113 22a7 03       		.byte	0x3
 9114 22a8 F8000000 		.4byte	.LC136
 9115 22ac 2C       		.uleb128 0x2c
 9116 22ad 01       		.uleb128 0x1
 9117 22ae 53       		.byte	0x53
 9118 22af 01       		.uleb128 0x1
 9119 22b0 31       		.byte	0x31
 9120 22b1 00       		.byte	0
 9121 22b2 2D       		.uleb128 0x2d
 9122 22b3 32000000 		.4byte	.LVL352
 9123 22b7 65280000 		.4byte	0x2865
 9124 22bb D8220000 		.4byte	0x22d8
 9125 22bf 2C       		.uleb128 0x2c
 9126 22c0 01       		.uleb128 0x1
 9127 22c1 50       		.byte	0x50
 9128 22c2 01       		.uleb128 0x1
 9129 22c3 31       		.byte	0x31
 9130 22c4 2C       		.uleb128 0x2c
 9131 22c5 01       		.uleb128 0x1
 9132 22c6 51       		.byte	0x51
 9133 22c7 01       		.uleb128 0x1
 9134 22c8 4C       		.byte	0x4c
 9135 22c9 2C       		.uleb128 0x2c
 9136 22ca 01       		.uleb128 0x1
 9137 22cb 52       		.byte	0x52
 9138 22cc 05       		.uleb128 0x5
 9139 22cd 03       		.byte	0x3
 9140 22ce BE000000 		.4byte	.LC69
 9141 22d2 2C       		.uleb128 0x2c
 9142 22d3 01       		.uleb128 0x1
 9143 22d4 53       		.byte	0x53
 9144 22d5 01       		.uleb128 0x1
 9145 22d6 30       		.byte	0x30
 9146 22d7 00       		.byte	0
 9147 22d8 2D       		.uleb128 0x2d
 9148 22d9 44000000 		.4byte	.LVL354
ARM GAS  C:\Users\VIDEOH~1\AppData\Local\Temp\ccpdN5tN.s 			page 189


 9149 22dd 65280000 		.4byte	0x2865
 9150 22e1 FE220000 		.4byte	0x22fe
 9151 22e5 2C       		.uleb128 0x2c
 9152 22e6 01       		.uleb128 0x1
 9153 22e7 50       		.byte	0x50
 9154 22e8 01       		.uleb128 0x1
 9155 22e9 35       		.byte	0x35
 9156 22ea 2C       		.uleb128 0x2c
 9157 22eb 01       		.uleb128 0x1
 9158 22ec 51       		.byte	0x51
 9159 22ed 01       		.uleb128 0x1
 9160 22ee 40       		.byte	0x40
 9161 22ef 2C       		.uleb128 0x2c
 9162 22f0 01       		.uleb128 0x1
 9163 22f1 52       		.byte	0x52
 9164 22f2 05       		.uleb128 0x5
 9165 22f3 03       		.byte	0x3
 9166 22f4 FF000000 		.4byte	.LC140
 9167 22f8 2C       		.uleb128 0x2c
 9168 22f9 01       		.uleb128 0x1
 9169 22fa 53       		.byte	0x53
 9170 22fb 01       		.uleb128 0x1
 9171 22fc 30       		.byte	0x30
 9172 22fd 00       		.byte	0
 9173 22fe 2D       		.uleb128 0x2d
 9174 22ff 52000000 		.4byte	.LVL357
 9175 2303 BD1C0000 		.4byte	0x1cbd
 9176 2307 17230000 		.4byte	0x2317
 9177 230b 2C       		.uleb128 0x2c
 9178 230c 01       		.uleb128 0x1
 9179 230d 50       		.byte	0x50
 9180 230e 01       		.uleb128 0x1
 9181 230f 4E       		.byte	0x4e
 9182 2310 2C       		.uleb128 0x2c
 9183 2311 01       		.uleb128 0x1
 9184 2312 51       		.byte	0x51
 9185 2313 02       		.uleb128 0x2
 9186 2314 74       		.byte	0x74
 9187 2315 00       		.sleb128 0
 9188 2316 00       		.byte	0
 9189 2317 2D       		.uleb128 0x2d
 9190 2318 5A000000 		.4byte	.LVL358
 9191 231c 27090000 		.4byte	0x927
 9192 2320 2B230000 		.4byte	0x232b
 9193 2324 2C       		.uleb128 0x2c
 9194 2325 01       		.uleb128 0x1
 9195 2326 50       		.byte	0x50
 9196 2327 02       		.uleb128 0x2
 9197 2328 77       		.byte	0x77
 9198 2329 00       		.sleb128 0
 9199 232a 00       		.byte	0
 9200 232b 2B       		.uleb128 0x2b
 9201 232c B6000000 		.4byte	.LVL366
 9202 2330 15290000 		.4byte	0x2915
 9203 2334 2C       		.uleb128 0x2c
 9204 2335 01       		.uleb128 0x1
 9205 2336 50       		.byte	0x50
ARM GAS  C:\Users\VIDEOH~1\AppData\Local\Temp\ccpdN5tN.s 			page 190


 9206 2337 01       		.uleb128 0x1
 9207 2338 30       		.byte	0x30
 9208 2339 2C       		.uleb128 0x2c
 9209 233a 01       		.uleb128 0x1
 9210 233b 51       		.byte	0x51
 9211 233c 02       		.uleb128 0x2
 9212 233d 76       		.byte	0x76
 9213 233e 00       		.sleb128 0
 9214 233f 2C       		.uleb128 0x2c
 9215 2340 01       		.uleb128 0x1
 9216 2341 52       		.byte	0x52
 9217 2342 02       		.uleb128 0x2
 9218 2343 08       		.byte	0x8
 9219 2344 38       		.byte	0x38
 9220 2345 00       		.byte	0
 9221 2346 00       		.byte	0
 9222 2347 1E       		.uleb128 0x1e
 9223 2348 4E0D0000 		.4byte	.LASF168
 9224 234c 01       		.byte	0x1
 9225 234d D701     		.2byte	0x1d7
 9226 234f 01       		.byte	0x1
 9227 2350 6D230000 		.4byte	0x236d
 9228 2354 1F       		.uleb128 0x1f
 9229 2355 06080000 		.4byte	.LASF169
 9230 2359 01       		.byte	0x1
 9231 235a D701     		.2byte	0x1d7
 9232 235c 81000000 		.4byte	0x81
 9233 2360 23       		.uleb128 0x23
 9234 2361 21       		.uleb128 0x21
 9235 2362 6900     		.ascii	"i\000"
 9236 2364 01       		.byte	0x1
 9237 2365 DA01     		.2byte	0x1da
 9238 2367 81000000 		.4byte	0x81
 9239 236b 00       		.byte	0
 9240 236c 00       		.byte	0
 9241 236d 4C       		.uleb128 0x4c
 9242 236e A2070000 		.4byte	.LASF236
 9243 2372 01       		.byte	0x1
 9244 2373 E301     		.2byte	0x1e3
 9245 2375 00000000 		.4byte	.LFB53
 9246 2379 F4000000 		.4byte	.LFE53-.LFB53
 9247 237d 01       		.uleb128 0x1
 9248 237e 9C       		.byte	0x9c
 9249 237f 11260000 		.4byte	0x2611
 9250 2383 35       		.uleb128 0x35
 9251 2384 45050000 		.4byte	.LASF170
 9252 2388 01       		.byte	0x1
 9253 2389 ED01     		.2byte	0x1ed
 9254 238b 8C000000 		.4byte	0x8c
 9255 238f 2D0C0000 		.4byte	.LLST75
 9256 2393 35       		.uleb128 0x35
 9257 2394 F3030000 		.4byte	.LASF171
 9258 2398 01       		.byte	0x1
 9259 2399 F201     		.2byte	0x1f2
 9260 239b 8C000000 		.4byte	0x8c
 9261 239f 530C0000 		.4byte	.LLST76
 9262 23a3 33       		.uleb128 0x33
ARM GAS  C:\Users\VIDEOH~1\AppData\Local\Temp\ccpdN5tN.s 			page 191


 9263 23a4 52646300 		.ascii	"Rdc\000"
 9264 23a8 01       		.byte	0x1
 9265 23a9 F801     		.2byte	0x1f8
 9266 23ab 7A000000 		.4byte	0x7a
 9267 23af 790C0000 		.4byte	.LLST77
 9268 23b3 37       		.uleb128 0x37
 9269 23b4 62756600 		.ascii	"buf\000"
 9270 23b8 01       		.byte	0x1
 9271 23b9 FF01     		.2byte	0x1ff
 9272 23bb 6F0C0000 		.4byte	0xc6f
 9273 23bf 02       		.uleb128 0x2
 9274 23c0 91       		.byte	0x91
 9275 23c1 48       		.sleb128 -56
 9276 23c2 32       		.uleb128 0x32
 9277 23c3 FF020000 		.4byte	.LASF100
 9278 23c7 01       		.byte	0x1
 9279 23c8 0302     		.2byte	0x203
 9280 23ca 54040000 		.4byte	0x454
 9281 23ce 02       		.uleb128 0x2
 9282 23cf 91       		.byte	0x91
 9283 23d0 58       		.sleb128 -40
 9284 23d1 3D       		.uleb128 0x3d
 9285 23d2 47230000 		.4byte	0x2347
 9286 23d6 26000000 		.4byte	.LBB76
 9287 23da 18000000 		.4byte	.LBE76-.LBB76
 9288 23de 01       		.byte	0x1
 9289 23df EC01     		.2byte	0x1ec
 9290 23e1 26240000 		.4byte	0x2426
 9291 23e5 3A       		.uleb128 0x3a
 9292 23e6 54230000 		.4byte	0x2354
 9293 23ea 9D0C0000 		.4byte	.LLST78
 9294 23ee 3F       		.uleb128 0x3f
 9295 23ef 2E000000 		.4byte	.LBB78
 9296 23f3 10000000 		.4byte	.LBE78-.LBB78
 9297 23f7 16240000 		.4byte	0x2416
 9298 23fb 40       		.uleb128 0x40
 9299 23fc 61230000 		.4byte	0x2361
 9300 2400 B10C0000 		.4byte	.LLST79
 9301 2404 2B       		.uleb128 0x2b
 9302 2405 3A000000 		.4byte	.LVL377
 9303 2409 DE290000 		.4byte	0x29de
 9304 240d 2C       		.uleb128 0x2c
 9305 240e 01       		.uleb128 0x1
 9306 240f 50       		.byte	0x50
 9307 2410 03       		.uleb128 0x3
 9308 2411 0A       		.byte	0xa
 9309 2412 E803     		.2byte	0x3e8
 9310 2414 00       		.byte	0
 9311 2415 00       		.byte	0
 9312 2416 2B       		.uleb128 0x2b
 9313 2417 2C000000 		.4byte	.LVL374
 9314 241b 93280000 		.4byte	0x2893
 9315 241f 2C       		.uleb128 0x2c
 9316 2420 01       		.uleb128 0x1
 9317 2421 50       		.byte	0x50
 9318 2422 01       		.uleb128 0x1
 9319 2423 38       		.byte	0x38
ARM GAS  C:\Users\VIDEOH~1\AppData\Local\Temp\ccpdN5tN.s 			page 192


 9320 2424 00       		.byte	0
 9321 2425 00       		.byte	0
 9322 2426 3D       		.uleb128 0x3d
 9323 2427 47230000 		.4byte	0x2347
 9324 242b 64000000 		.4byte	.LBB79
 9325 242f 1E000000 		.4byte	.LBE79-.LBB79
 9326 2433 01       		.byte	0x1
 9327 2434 F101     		.2byte	0x1f1
 9328 2436 A5240000 		.4byte	0x24a5
 9329 243a 3A       		.uleb128 0x3a
 9330 243b 54230000 		.4byte	0x2354
 9331 243f D40C0000 		.4byte	.LLST80
 9332 2443 3F       		.uleb128 0x3f
 9333 2444 6A000000 		.4byte	.LBB81
 9334 2448 18000000 		.4byte	.LBE81-.LBB81
 9335 244c 95240000 		.4byte	0x2495
 9336 2450 40       		.uleb128 0x40
 9337 2451 61230000 		.4byte	0x2361
 9338 2455 E80C0000 		.4byte	.LLST81
 9339 2459 2D       		.uleb128 0x2d
 9340 245a 72000000 		.4byte	.LVL386
 9341 245e DE290000 		.4byte	0x29de
 9342 2462 6E240000 		.4byte	0x246e
 9343 2466 2C       		.uleb128 0x2c
 9344 2467 01       		.uleb128 0x1
 9345 2468 50       		.byte	0x50
 9346 2469 03       		.uleb128 0x3
 9347 246a 0A       		.byte	0xa
 9348 246b E803     		.2byte	0x3e8
 9349 246d 00       		.byte	0
 9350 246e 2D       		.uleb128 0x2d
 9351 246f 7A000000 		.4byte	.LVL387
 9352 2473 DE290000 		.4byte	0x29de
 9353 2477 83240000 		.4byte	0x2483
 9354 247b 2C       		.uleb128 0x2c
 9355 247c 01       		.uleb128 0x1
 9356 247d 50       		.byte	0x50
 9357 247e 03       		.uleb128 0x3
 9358 247f 0A       		.byte	0xa
 9359 2480 E803     		.2byte	0x3e8
 9360 2482 00       		.byte	0
 9361 2483 2B       		.uleb128 0x2b
 9362 2484 82000000 		.4byte	.LVL388
 9363 2488 DE290000 		.4byte	0x29de
 9364 248c 2C       		.uleb128 0x2c
 9365 248d 01       		.uleb128 0x1
 9366 248e 50       		.byte	0x50
 9367 248f 03       		.uleb128 0x3
 9368 2490 0A       		.byte	0xa
 9369 2491 E803     		.2byte	0x3e8
 9370 2493 00       		.byte	0
 9371 2494 00       		.byte	0
 9372 2495 2B       		.uleb128 0x2b
 9373 2496 6A000000 		.4byte	.LVL385
 9374 249a 93280000 		.4byte	0x2893
 9375 249e 2C       		.uleb128 0x2c
 9376 249f 01       		.uleb128 0x1
ARM GAS  C:\Users\VIDEOH~1\AppData\Local\Temp\ccpdN5tN.s 			page 193


 9377 24a0 50       		.byte	0x50
 9378 24a1 01       		.uleb128 0x1
 9379 24a2 38       		.byte	0x38
 9380 24a3 00       		.byte	0
 9381 24a4 00       		.byte	0
 9382 24a5 2F       		.uleb128 0x2f
 9383 24a6 08000000 		.4byte	.LVL370
 9384 24aa 5A280000 		.4byte	0x285a
 9385 24ae 2D       		.uleb128 0x2d
 9386 24af 14000000 		.4byte	.LVL371
 9387 24b3 65280000 		.4byte	0x2865
 9388 24b7 D4240000 		.4byte	0x24d4
 9389 24bb 2C       		.uleb128 0x2c
 9390 24bc 01       		.uleb128 0x1
 9391 24bd 50       		.byte	0x50
 9392 24be 01       		.uleb128 0x1
 9393 24bf 37       		.byte	0x37
 9394 24c0 2C       		.uleb128 0x2c
 9395 24c1 01       		.uleb128 0x1
 9396 24c2 51       		.byte	0x51
 9397 24c3 01       		.uleb128 0x1
 9398 24c4 30       		.byte	0x30
 9399 24c5 2C       		.uleb128 0x2c
 9400 24c6 01       		.uleb128 0x1
 9401 24c7 52       		.byte	0x52
 9402 24c8 05       		.uleb128 0x5
 9403 24c9 03       		.byte	0x3
 9404 24ca 08010000 		.4byte	.LC150
 9405 24ce 2C       		.uleb128 0x2c
 9406 24cf 01       		.uleb128 0x1
 9407 24d0 53       		.byte	0x53
 9408 24d1 01       		.uleb128 0x1
 9409 24d2 31       		.byte	0x31
 9410 24d3 00       		.byte	0
 9411 24d4 2D       		.uleb128 0x2d
 9412 24d5 20000000 		.4byte	.LVL372
 9413 24d9 65280000 		.4byte	0x2865
 9414 24dd FA240000 		.4byte	0x24fa
 9415 24e1 2C       		.uleb128 0x2c
 9416 24e2 01       		.uleb128 0x1
 9417 24e3 50       		.byte	0x50
 9418 24e4 01       		.uleb128 0x1
 9419 24e5 35       		.byte	0x35
 9420 24e6 2C       		.uleb128 0x2c
 9421 24e7 01       		.uleb128 0x1
 9422 24e8 51       		.byte	0x51
 9423 24e9 01       		.uleb128 0x1
 9424 24ea 30       		.byte	0x30
 9425 24eb 2C       		.uleb128 0x2c
 9426 24ec 01       		.uleb128 0x1
 9427 24ed 52       		.byte	0x52
 9428 24ee 05       		.uleb128 0x5
 9429 24ef 03       		.byte	0x3
 9430 24f0 12010000 		.4byte	.LC152
 9431 24f4 2C       		.uleb128 0x2c
 9432 24f5 01       		.uleb128 0x1
 9433 24f6 53       		.byte	0x53
ARM GAS  C:\Users\VIDEOH~1\AppData\Local\Temp\ccpdN5tN.s 			page 194


 9434 24f7 01       		.uleb128 0x1
 9435 24f8 30       		.byte	0x30
 9436 24f9 00       		.byte	0
 9437 24fa 2D       		.uleb128 0x2d
 9438 24fb 26000000 		.4byte	.LVL373
 9439 24ff F6280000 		.4byte	0x28f6
 9440 2503 11250000 		.4byte	0x2511
 9441 2507 2C       		.uleb128 0x2c
 9442 2508 01       		.uleb128 0x1
 9443 2509 50       		.byte	0x50
 9444 250a 05       		.uleb128 0x5
 9445 250b 0C       		.byte	0xc
 9446 250c A0860100 		.4byte	0x186a0
 9447 2510 00       		.byte	0
 9448 2511 2F       		.uleb128 0x2f
 9449 2512 42000000 		.4byte	.LVL379
 9450 2516 4F280000 		.4byte	0x284f
 9451 251a 2D       		.uleb128 0x2d
 9452 251b 52000000 		.4byte	.LVL382
 9453 251f 65280000 		.4byte	0x2865
 9454 2523 3E250000 		.4byte	0x253e
 9455 2527 2C       		.uleb128 0x2c
 9456 2528 01       		.uleb128 0x1
 9457 2529 50       		.byte	0x50
 9458 252a 01       		.uleb128 0x1
 9459 252b 35       		.byte	0x35
 9460 252c 2C       		.uleb128 0x2c
 9461 252d 01       		.uleb128 0x1
 9462 252e 51       		.byte	0x51
 9463 252f 02       		.uleb128 0x2
 9464 2530 08       		.byte	0x8
 9465 2531 4C       		.byte	0x4c
 9466 2532 2C       		.uleb128 0x2c
 9467 2533 01       		.uleb128 0x1
 9468 2534 52       		.byte	0x52
 9469 2535 02       		.uleb128 0x2
 9470 2536 76       		.byte	0x76
 9471 2537 00       		.sleb128 0
 9472 2538 2C       		.uleb128 0x2c
 9473 2539 01       		.uleb128 0x1
 9474 253a 53       		.byte	0x53
 9475 253b 01       		.uleb128 0x1
 9476 253c 31       		.byte	0x31
 9477 253d 00       		.byte	0
 9478 253e 2D       		.uleb128 0x2d
 9479 253f 5E000000 		.4byte	.LVL383
 9480 2543 65280000 		.4byte	0x2865
 9481 2547 66250000 		.4byte	0x2566
 9482 254b 2C       		.uleb128 0x2c
 9483 254c 01       		.uleb128 0x1
 9484 254d 50       		.byte	0x50
 9485 254e 01       		.uleb128 0x1
 9486 254f 33       		.byte	0x33
 9487 2550 2C       		.uleb128 0x2c
 9488 2551 01       		.uleb128 0x1
 9489 2552 51       		.byte	0x51
 9490 2553 02       		.uleb128 0x2
ARM GAS  C:\Users\VIDEOH~1\AppData\Local\Temp\ccpdN5tN.s 			page 195


 9491 2554 74       		.byte	0x74
 9492 2555 00       		.sleb128 0
 9493 2556 2C       		.uleb128 0x2c
 9494 2557 01       		.uleb128 0x1
 9495 2558 52       		.byte	0x52
 9496 2559 05       		.uleb128 0x5
 9497 255a 03       		.byte	0x3
 9498 255b 22010000 		.4byte	.LC156
 9499 255f 2C       		.uleb128 0x2c
 9500 2560 01       		.uleb128 0x1
 9501 2561 53       		.byte	0x53
 9502 2562 02       		.uleb128 0x2
 9503 2563 74       		.byte	0x74
 9504 2564 00       		.sleb128 0
 9505 2565 00       		.byte	0
 9506 2566 2D       		.uleb128 0x2d
 9507 2567 64000000 		.4byte	.LVL384
 9508 256b F6280000 		.4byte	0x28f6
 9509 256f 7D250000 		.4byte	0x257d
 9510 2573 2C       		.uleb128 0x2c
 9511 2574 01       		.uleb128 0x1
 9512 2575 50       		.byte	0x50
 9513 2576 05       		.uleb128 0x5
 9514 2577 0C       		.byte	0xc
 9515 2578 40420F00 		.4byte	0xf4240
 9516 257c 00       		.byte	0
 9517 257d 2F       		.uleb128 0x2f
 9518 257e 86000000 		.4byte	.LVL389
 9519 2582 4F280000 		.4byte	0x284f
 9520 2586 2D       		.uleb128 0x2d
 9521 2587 8E000000 		.4byte	.LVL392
 9522 258b F6280000 		.4byte	0x28f6
 9523 258f 9A250000 		.4byte	0x259a
 9524 2593 2C       		.uleb128 0x2c
 9525 2594 01       		.uleb128 0x1
 9526 2595 50       		.byte	0x50
 9527 2596 02       		.uleb128 0x2
 9528 2597 74       		.byte	0x74
 9529 2598 00       		.sleb128 0
 9530 2599 00       		.byte	0
 9531 259a 2D       		.uleb128 0x2d
 9532 259b 9A000000 		.4byte	.LVL393
 9533 259f 65280000 		.4byte	0x2865
 9534 25a3 BE250000 		.4byte	0x25be
 9535 25a7 2C       		.uleb128 0x2c
 9536 25a8 01       		.uleb128 0x1
 9537 25a9 50       		.byte	0x50
 9538 25aa 01       		.uleb128 0x1
 9539 25ab 33       		.byte	0x33
 9540 25ac 2C       		.uleb128 0x2c
 9541 25ad 01       		.uleb128 0x1
 9542 25ae 51       		.byte	0x51
 9543 25af 02       		.uleb128 0x2
 9544 25b0 08       		.byte	0x8
 9545 25b1 4C       		.byte	0x4c
 9546 25b2 2C       		.uleb128 0x2c
 9547 25b3 01       		.uleb128 0x1
ARM GAS  C:\Users\VIDEOH~1\AppData\Local\Temp\ccpdN5tN.s 			page 196


 9548 25b4 52       		.byte	0x52
 9549 25b5 02       		.uleb128 0x2
 9550 25b6 76       		.byte	0x76
 9551 25b7 00       		.sleb128 0
 9552 25b8 2C       		.uleb128 0x2c
 9553 25b9 01       		.uleb128 0x1
 9554 25ba 53       		.byte	0x53
 9555 25bb 01       		.uleb128 0x1
 9556 25bc 31       		.byte	0x31
 9557 25bd 00       		.byte	0
 9558 25be 2D       		.uleb128 0x2d
 9559 25bf AE000000 		.4byte	.LVL396
 9560 25c3 2E070000 		.4byte	0x72e
 9561 25c7 DB250000 		.4byte	0x25db
 9562 25cb 2C       		.uleb128 0x2c
 9563 25cc 01       		.uleb128 0x1
 9564 25cd 51       		.byte	0x51
 9565 25ce 05       		.uleb128 0x5
 9566 25cf 03       		.byte	0x3
 9567 25d0 2D010000 		.4byte	.LC158
 9568 25d4 2C       		.uleb128 0x2c
 9569 25d5 01       		.uleb128 0x1
 9570 25d6 52       		.byte	0x52
 9571 25d7 02       		.uleb128 0x2
 9572 25d8 7D       		.byte	0x7d
 9573 25d9 00       		.sleb128 0
 9574 25da 00       		.byte	0
 9575 25db 2D       		.uleb128 0x2d
 9576 25dc BC000000 		.4byte	.LVL397
 9577 25e0 65280000 		.4byte	0x2865
 9578 25e4 00260000 		.4byte	0x2600
 9579 25e8 2C       		.uleb128 0x2c
 9580 25e9 01       		.uleb128 0x1
 9581 25ea 50       		.byte	0x50
 9582 25eb 01       		.uleb128 0x1
 9583 25ec 31       		.byte	0x31
 9584 25ed 2C       		.uleb128 0x2c
 9585 25ee 01       		.uleb128 0x1
 9586 25ef 51       		.byte	0x51
 9587 25f0 02       		.uleb128 0x2
 9588 25f1 74       		.byte	0x74
 9589 25f2 00       		.sleb128 0
 9590 25f3 2C       		.uleb128 0x2c
 9591 25f4 01       		.uleb128 0x1
 9592 25f5 52       		.byte	0x52
 9593 25f6 02       		.uleb128 0x2
 9594 25f7 7D       		.byte	0x7d
 9595 25f8 00       		.sleb128 0
 9596 25f9 2C       		.uleb128 0x2c
 9597 25fa 01       		.uleb128 0x1
 9598 25fb 53       		.byte	0x53
 9599 25fc 02       		.uleb128 0x2
 9600 25fd 74       		.byte	0x74
 9601 25fe 00       		.sleb128 0
 9602 25ff 00       		.byte	0
 9603 2600 2B       		.uleb128 0x2b
 9604 2601 CA000000 		.4byte	.LVL398
ARM GAS  C:\Users\VIDEOH~1\AppData\Local\Temp\ccpdN5tN.s 			page 197


 9605 2605 27090000 		.4byte	0x927
 9606 2609 2C       		.uleb128 0x2c
 9607 260a 01       		.uleb128 0x1
 9608 260b 50       		.byte	0x50
 9609 260c 02       		.uleb128 0x2
 9610 260d 75       		.byte	0x75
 9611 260e 00       		.sleb128 0
 9612 260f 00       		.byte	0
 9613 2610 00       		.byte	0
 9614 2611 4D       		.uleb128 0x4d
 9615 2612 B2060000 		.4byte	.LASF172
 9616 2616 01       		.byte	0x1
 9617 2617 9E       		.byte	0x9e
 9618 2618 00000000 		.4byte	.LFB33
 9619 261c 54000000 		.4byte	.LFE33-.LFB33
 9620 2620 01       		.uleb128 0x1
 9621 2621 9C       		.byte	0x9c
 9622 2622 84260000 		.4byte	0x2684
 9623 2626 4E       		.uleb128 0x4e
 9624 2627 FF020000 		.4byte	.LASF100
 9625 262b 01       		.byte	0x1
 9626 262c A0       		.byte	0xa0
 9627 262d 54040000 		.4byte	0x454
 9628 2631 05       		.uleb128 0x5
 9629 2632 03       		.byte	0x3
 9630 2633 18000000 		.4byte	event.7857
 9631 2637 4E       		.uleb128 0x4e
 9632 2638 820B0000 		.4byte	.LASF103
 9633 263c 01       		.byte	0x1
 9634 263d A1       		.byte	0xa1
 9635 263e 9F030000 		.4byte	0x39f
 9636 2642 05       		.uleb128 0x5
 9637 2643 03       		.byte	0x3
 9638 2644 14000000 		.4byte	before.7858
 9639 2648 2A       		.uleb128 0x2a
 9640 2649 34070000 		.4byte	.LASF173
 9641 264d 01       		.byte	0x1
 9642 264e A3       		.byte	0xa3
 9643 264f 7A000000 		.4byte	0x7a
 9644 2653 140D0000 		.4byte	.LLST82
 9645 2657 2F       		.uleb128 0x2f
 9646 2658 06000000 		.4byte	.LVL400
 9647 265c E9290000 		.4byte	0x29e9
 9648 2660 2F       		.uleb128 0x2f
 9649 2661 1A000000 		.4byte	.LVL402
 9650 2665 79290000 		.4byte	0x2979
 9651 2669 2B       		.uleb128 0x2b
 9652 266a 40000000 		.4byte	.LVL403
 9653 266e 85290000 		.4byte	0x2985
 9654 2672 2C       		.uleb128 0x2c
 9655 2673 01       		.uleb128 0x1
 9656 2674 51       		.byte	0x51
 9657 2675 02       		.uleb128 0x2
 9658 2676 74       		.byte	0x74
 9659 2677 18       		.sleb128 24
 9660 2678 2C       		.uleb128 0x2c
 9661 2679 01       		.uleb128 0x1
ARM GAS  C:\Users\VIDEOH~1\AppData\Local\Temp\ccpdN5tN.s 			page 198


 9662 267a 52       		.byte	0x52
 9663 267b 01       		.uleb128 0x1
 9664 267c 30       		.byte	0x30
 9665 267d 2C       		.uleb128 0x2c
 9666 267e 01       		.uleb128 0x1
 9667 267f 53       		.byte	0x53
 9668 2680 01       		.uleb128 0x1
 9669 2681 30       		.byte	0x30
 9670 2682 00       		.byte	0
 9671 2683 00       		.byte	0
 9672 2684 4F       		.uleb128 0x4f
 9673 2685 BB0A0000 		.4byte	.LASF237
 9674 2689 01       		.byte	0x1
 9675 268a BD03     		.2byte	0x3bd
 9676 268c 00000000 		.4byte	.LFB69
 9677 2690 48000000 		.4byte	.LFE69-.LFB69
 9678 2694 01       		.uleb128 0x1
 9679 2695 9C       		.byte	0x9c
 9680 2696 25270000 		.4byte	0x2725
 9681 269a 31       		.uleb128 0x31
 9682 269b BB010000 		.4byte	.LASF174
 9683 269f 01       		.byte	0x1
 9684 26a0 BD03     		.2byte	0x3bd
 9685 26a2 EF000000 		.4byte	0xef
 9686 26a6 320D0000 		.4byte	.LLST83
 9687 26aa 35       		.uleb128 0x35
 9688 26ab BA0C0000 		.4byte	.LASF175
 9689 26af 01       		.byte	0x1
 9690 26b0 C203     		.2byte	0x3c2
 9691 26b2 EE040000 		.4byte	0x4ee
 9692 26b6 530D0000 		.4byte	.LLST84
 9693 26ba 35       		.uleb128 0x35
 9694 26bb 2B0C0000 		.4byte	.LASF176
 9695 26bf 01       		.byte	0x1
 9696 26c0 C303     		.2byte	0x3c3
 9697 26c2 EE040000 		.4byte	0x4ee
 9698 26c6 890D0000 		.4byte	.LLST85
 9699 26ca 3F       		.uleb128 0x3f
 9700 26cb 1E000000 		.4byte	.LBB82
 9701 26cf 2A000000 		.4byte	.LBE82-.LBB82
 9702 26d3 F4260000 		.4byte	0x26f4
 9703 26d7 35       		.uleb128 0x35
 9704 26d8 13020000 		.4byte	.LASF94
 9705 26dc 01       		.byte	0x1
 9706 26dd C603     		.2byte	0x3c6
 9707 26df EE040000 		.4byte	0x4ee
 9708 26e3 E40D0000 		.4byte	.LLST86
 9709 26e7 50       		.uleb128 0x50
 9710 26e8 24000000 		.4byte	.LVL411
 9711 26ec 2C       		.uleb128 0x2c
 9712 26ed 01       		.uleb128 0x1
 9713 26ee 50       		.byte	0x50
 9714 26ef 02       		.uleb128 0x2
 9715 26f0 76       		.byte	0x76
 9716 26f1 00       		.sleb128 0
 9717 26f2 00       		.byte	0
 9718 26f3 00       		.byte	0
ARM GAS  C:\Users\VIDEOH~1\AppData\Local\Temp\ccpdN5tN.s 			page 199


 9719 26f4 2D       		.uleb128 0x2d
 9720 26f5 0C000000 		.4byte	.LVL407
 9721 26f9 F4290000 		.4byte	0x29f4
 9722 26fd 11270000 		.4byte	0x2711
 9723 2701 2C       		.uleb128 0x2c
 9724 2702 01       		.uleb128 0x1
 9725 2703 50       		.byte	0x50
 9726 2704 01       		.uleb128 0x1
 9727 2705 32       		.byte	0x32
 9728 2706 2C       		.uleb128 0x2c
 9729 2707 01       		.uleb128 0x1
 9730 2708 51       		.byte	0x51
 9731 2709 01       		.uleb128 0x1
 9732 270a 40       		.byte	0x40
 9733 270b 2C       		.uleb128 0x2c
 9734 270c 01       		.uleb128 0x1
 9735 270d 52       		.byte	0x52
 9736 270e 01       		.uleb128 0x1
 9737 270f 30       		.byte	0x30
 9738 2710 00       		.byte	0
 9739 2711 2B       		.uleb128 0x2b
 9740 2712 16000000 		.4byte	.LVL408
 9741 2716 002A0000 		.4byte	0x2a00
 9742 271a 2C       		.uleb128 0x2c
 9743 271b 01       		.uleb128 0x1
 9744 271c 50       		.byte	0x50
 9745 271d 05       		.uleb128 0x5
 9746 271e 03       		.byte	0x3
 9747 271f 00000000 		.4byte	quadrature_event_isr
 9748 2723 00       		.byte	0
 9749 2724 00       		.byte	0
 9750 2725 51       		.uleb128 0x51
 9751 2726 970B0000 		.4byte	.LASF177
 9752 272a 0A       		.byte	0xa
 9753 272b 82       		.byte	0x82
 9754 272c 84010000 		.4byte	0x184
 9755 2730 51       		.uleb128 0x51
 9756 2731 2B0C0000 		.4byte	.LASF176
 9757 2735 06       		.byte	0x6
 9758 2736 4E       		.byte	0x4e
 9759 2737 BD010000 		.4byte	0x1bd
 9760 273b 51       		.uleb128 0x51
 9761 273c A8050000 		.4byte	.LASF178
 9762 2740 06       		.byte	0x6
 9763 2741 81       		.byte	0x81
 9764 2742 75030000 		.4byte	0x375
 9765 2746 51       		.uleb128 0x51
 9766 2747 7F000000 		.4byte	.LASF179
 9767 274b 06       		.byte	0x6
 9768 274c 82       		.byte	0x82
 9769 274d 51270000 		.4byte	0x2751
 9770 2751 08       		.uleb128 0x8
 9771 2752 75030000 		.4byte	0x375
 9772 2756 52       		.uleb128 0x52
 9773 2757 310C0000 		.4byte	.LASF180
 9774 275b 01       		.byte	0x1
 9775 275c 26       		.byte	0x26
ARM GAS  C:\Users\VIDEOH~1\AppData\Local\Temp\ccpdN5tN.s 			page 200


 9776 275d AA030000 		.4byte	0x3aa
 9777 2761 05       		.uleb128 0x5
 9778 2762 03       		.byte	0x3
 9779 2763 00000000 		.4byte	ui_queue
 9780 2767 09       		.uleb128 0x9
 9781 2768 77270000 		.4byte	0x2777
 9782 276c 77270000 		.4byte	0x2777
 9783 2770 0A       		.uleb128 0xa
 9784 2771 E8000000 		.4byte	0xe8
 9785 2775 A5       		.byte	0xa5
 9786 2776 00       		.byte	0
 9787 2777 08       		.uleb128 0x8
 9788 2778 A3000000 		.4byte	0xa3
 9789 277c 52       		.uleb128 0x52
 9790 277d 9D080000 		.4byte	.LASF181
 9791 2781 01       		.byte	0x1
 9792 2782 18       		.byte	0x18
 9793 2783 8D270000 		.4byte	0x278d
 9794 2787 05       		.uleb128 0x5
 9795 2788 03       		.byte	0x3
 9796 2789 00000000 		.4byte	termistor_tbl
 9797 278d 08       		.uleb128 0x8
 9798 278e 67270000 		.4byte	0x2767
 9799 2792 52       		.uleb128 0x52
 9800 2793 CE070000 		.4byte	.LASF182
 9801 2797 01       		.byte	0x1
 9802 2798 64       		.byte	0x64
 9803 2799 F3160000 		.4byte	0x16f3
 9804 279d 05       		.uleb128 0x5
 9805 279e 03       		.byte	0x3
 9806 279f 00000000 		.4byte	set_readout_menu
 9807 27a3 52       		.uleb128 0x52
 9808 27a4 68040000 		.4byte	.LASF183
 9809 27a8 01       		.byte	0x1
 9810 27a9 74       		.byte	0x74
 9811 27aa F3160000 		.4byte	0x16f3
 9812 27ae 05       		.uleb128 0x5
 9813 27af 03       		.byte	0x3
 9814 27b0 00000000 		.4byte	choose_readout_menu
 9815 27b4 52       		.uleb128 0x52
 9816 27b5 0D0D0000 		.4byte	.LASF184
 9817 27b9 01       		.byte	0x1
 9818 27ba 7F       		.byte	0x7f
 9819 27bb F3160000 		.4byte	0x16f3
 9820 27bf 05       		.uleb128 0x5
 9821 27c0 03       		.byte	0x3
 9822 27c1 00000000 		.4byte	tools_menu
 9823 27c5 52       		.uleb128 0x52
 9824 27c6 130C0000 		.4byte	.LASF185
 9825 27ca 01       		.byte	0x1
 9826 27cb 89       		.byte	0x89
 9827 27cc F3160000 		.4byte	0x16f3
 9828 27d0 05       		.uleb128 0x5
 9829 27d1 03       		.byte	0x3
 9830 27d2 00000000 		.4byte	main_menu
 9831 27d6 52       		.uleb128 0x52
 9832 27d7 E7090000 		.4byte	.LASF186
ARM GAS  C:\Users\VIDEOH~1\AppData\Local\Temp\ccpdN5tN.s 			page 201


 9833 27db 01       		.byte	0x1
 9834 27dc 9C       		.byte	0x9c
 9835 27dd E7270000 		.4byte	0x27e7
 9836 27e1 05       		.uleb128 0x5
 9837 27e2 03       		.byte	0x3
 9838 27e3 00000000 		.4byte	long_button_press_tick_count
 9839 27e7 53       		.uleb128 0x53
 9840 27e8 9F030000 		.4byte	0x39f
 9841 27ec 09       		.uleb128 0x9
 9842 27ed E9040000 		.4byte	0x4e9
 9843 27f1 FC270000 		.4byte	0x27fc
 9844 27f5 0A       		.uleb128 0xa
 9845 27f6 E8000000 		.4byte	0xe8
 9846 27fa 03       		.byte	0x3
 9847 27fb 00       		.byte	0
 9848 27fc 52       		.uleb128 0x52
 9849 27fd FE080000 		.4byte	.LASF187
 9850 2801 01       		.byte	0x1
 9851 2802 B8       		.byte	0xb8
 9852 2803 0D280000 		.4byte	0x280d
 9853 2807 05       		.uleb128 0x5
 9854 2808 03       		.byte	0x3
 9855 2809 00000000 		.4byte	quadrature_states
 9856 280d 08       		.uleb128 0x8
 9857 280e EC270000 		.4byte	0x27ec
 9858 2812 09       		.uleb128 0x9
 9859 2813 6E060000 		.4byte	0x66e
 9860 2817 22280000 		.4byte	0x2822
 9861 281b 0A       		.uleb128 0xa
 9862 281c E8000000 		.4byte	0xe8
 9863 2820 08       		.byte	0x8
 9864 2821 00       		.byte	0
 9865 2822 54       		.uleb128 0x54
 9866 2823 40080000 		.4byte	.LASF188
 9867 2827 01       		.byte	0x1
 9868 2828 7001     		.2byte	0x170
 9869 282a 34280000 		.4byte	0x2834
 9870 282e 05       		.uleb128 0x5
 9871 282f 03       		.byte	0x3
 9872 2830 00000000 		.4byte	readout_functions
 9873 2834 08       		.uleb128 0x8
 9874 2835 12280000 		.4byte	0x2812
 9875 2839 55       		.uleb128 0x55
 9876 283a B6070000 		.4byte	.LASF189
 9877 283e B6070000 		.4byte	.LASF189
 9878 2842 0B       		.byte	0xb
 9879 2843 E7       		.byte	0xe7
 9880 2844 55       		.uleb128 0x55
 9881 2845 F2020000 		.4byte	.LASF190
 9882 2849 F2020000 		.4byte	.LASF190
 9883 284d 0C       		.byte	0xc
 9884 284e 1A       		.byte	0x1a
 9885 284f 55       		.uleb128 0x55
 9886 2850 91080000 		.4byte	.LASF191
 9887 2854 91080000 		.4byte	.LASF191
 9888 2858 06       		.byte	0x6
 9889 2859 89       		.byte	0x89
ARM GAS  C:\Users\VIDEOH~1\AppData\Local\Temp\ccpdN5tN.s 			page 202


 9890 285a 55       		.uleb128 0x55
 9891 285b EF0B0000 		.4byte	.LASF192
 9892 285f EF0B0000 		.4byte	.LASF192
 9893 2863 0D       		.byte	0xd
 9894 2864 14       		.byte	0x14
 9895 2865 55       		.uleb128 0x55
 9896 2866 C5030000 		.4byte	.LASF193
 9897 286a C5030000 		.4byte	.LASF193
 9898 286e 0D       		.byte	0xd
 9899 286f 12       		.byte	0x12
 9900 2870 55       		.uleb128 0x55
 9901 2871 55050000 		.4byte	.LASF194
 9902 2875 55050000 		.4byte	.LASF194
 9903 2879 0E       		.byte	0xe
 9904 287a 59       		.byte	0x59
 9905 287b 56       		.uleb128 0x56
 9906 287c D1060000 		.4byte	.LASF195
 9907 2880 D1060000 		.4byte	.LASF195
 9908 2884 0F       		.byte	0xf
 9909 2885 0804     		.2byte	0x408
 9910 2887 56       		.uleb128 0x56
 9911 2888 1B030000 		.4byte	.LASF196
 9912 288c 1B030000 		.4byte	.LASF196
 9913 2890 08       		.byte	0x8
 9914 2891 8D03     		.2byte	0x38d
 9915 2893 55       		.uleb128 0x55
 9916 2894 7A070000 		.4byte	.LASF197
 9917 2898 7A070000 		.4byte	.LASF197
 9918 289c 10       		.byte	0x10
 9919 289d 77       		.byte	0x77
 9920 289e 55       		.uleb128 0x55
 9921 289f 50020000 		.4byte	.LASF198
 9922 28a3 50020000 		.4byte	.LASF198
 9923 28a7 0D       		.byte	0xd
 9924 28a8 15       		.byte	0x15
 9925 28a9 55       		.uleb128 0x55
 9926 28aa 9C000000 		.4byte	.LASF199
 9927 28ae 9C000000 		.4byte	.LASF199
 9928 28b2 11       		.byte	0x11
 9929 28b3 54       		.byte	0x54
 9930 28b4 55       		.uleb128 0x55
 9931 28b5 A60D0000 		.4byte	.LASF200
 9932 28b9 A60D0000 		.4byte	.LASF200
 9933 28bd 12       		.byte	0x12
 9934 28be 54       		.byte	0x54
 9935 28bf 55       		.uleb128 0x55
 9936 28c0 16080000 		.4byte	.LASF201
 9937 28c4 16080000 		.4byte	.LASF201
 9938 28c8 13       		.byte	0x13
 9939 28c9 07       		.byte	0x7
 9940 28ca 55       		.uleb128 0x55
 9941 28cb 05030000 		.4byte	.LASF202
 9942 28cf 05030000 		.4byte	.LASF202
 9943 28d3 06       		.byte	0x6
 9944 28d4 88       		.byte	0x88
 9945 28d5 55       		.uleb128 0x55
 9946 28d6 03040000 		.4byte	.LASF203
ARM GAS  C:\Users\VIDEOH~1\AppData\Local\Temp\ccpdN5tN.s 			page 203


 9947 28da 03040000 		.4byte	.LASF203
 9948 28de 06       		.byte	0x6
 9949 28df 86       		.byte	0x86
 9950 28e0 55       		.uleb128 0x55
 9951 28e1 8C050000 		.4byte	.LASF204
 9952 28e5 8C050000 		.4byte	.LASF204
 9953 28e9 13       		.byte	0x13
 9954 28ea 0A       		.byte	0xa
 9955 28eb 55       		.uleb128 0x55
 9956 28ec 7F0C0000 		.4byte	.LASF205
 9957 28f0 7F0C0000 		.4byte	.LASF205
 9958 28f4 13       		.byte	0x13
 9959 28f5 0B       		.byte	0xb
 9960 28f6 55       		.uleb128 0x55
 9961 28f7 860D0000 		.4byte	.LASF206
 9962 28fb 860D0000 		.4byte	.LASF206
 9963 28ff 06       		.byte	0x6
 9964 2900 84       		.byte	0x84
 9965 2901 55       		.uleb128 0x55
 9966 2902 BE070000 		.4byte	.LASF207
 9967 2906 BE070000 		.4byte	.LASF207
 9968 290a 06       		.byte	0x6
 9969 290b 9B       		.byte	0x9b
 9970 290c 57       		.uleb128 0x57
 9971 290d B30C0000 		.4byte	.LASF238
 9972 2911 B30C0000 		.4byte	.LASF238
 9973 2915 56       		.uleb128 0x56
 9974 2916 D6030000 		.4byte	.LASF208
 9975 291a D6030000 		.4byte	.LASF208
 9976 291e 05       		.byte	0x5
 9977 291f 6C01     		.2byte	0x16c
 9978 2921 55       		.uleb128 0x55
 9979 2922 52010000 		.4byte	.LASF209
 9980 2926 52010000 		.4byte	.LASF209
 9981 292a 06       		.byte	0x6
 9982 292b 9C       		.byte	0x9c
 9983 292c 55       		.uleb128 0x55
 9984 292d 94090000 		.4byte	.LASF210
 9985 2931 94090000 		.4byte	.LASF210
 9986 2935 0D       		.byte	0xd
 9987 2936 11       		.byte	0x11
 9988 2937 55       		.uleb128 0x55
 9989 2938 95000000 		.4byte	.LASF211
 9990 293c 95000000 		.4byte	.LASF211
 9991 2940 0C       		.byte	0xc
 9992 2941 21       		.byte	0x21
 9993 2942 55       		.uleb128 0x55
 9994 2943 CF020000 		.4byte	.LASF212
 9995 2947 CF020000 		.4byte	.LASF212
 9996 294b 0C       		.byte	0xc
 9997 294c 1E       		.byte	0x1e
 9998 294d 55       		.uleb128 0x55
 9999 294e D6080000 		.4byte	.LASF213
 10000 2952 D6080000 		.4byte	.LASF213
 10001 2956 06       		.byte	0x6
 10002 2957 85       		.byte	0x85
 10003 2958 55       		.uleb128 0x55
ARM GAS  C:\Users\VIDEOH~1\AppData\Local\Temp\ccpdN5tN.s 			page 204


 10004 2959 B6040000 		.4byte	.LASF214
 10005 295d B6040000 		.4byte	.LASF214
 10006 2961 06       		.byte	0x6
 10007 2962 87       		.byte	0x87
 10008 2963 55       		.uleb128 0x55
 10009 2964 78090000 		.4byte	.LASF215
 10010 2968 78090000 		.4byte	.LASF215
 10011 296c 06       		.byte	0x6
 10012 296d 8B       		.byte	0x8b
 10013 296e 55       		.uleb128 0x55
 10014 296f D00A0000 		.4byte	.LASF216
 10015 2973 D00A0000 		.4byte	.LASF216
 10016 2977 06       		.byte	0x6
 10017 2978 8C       		.byte	0x8c
 10018 2979 56       		.uleb128 0x56
 10019 297a 8C030000 		.4byte	.LASF217
 10020 297e 8C030000 		.4byte	.LASF217
 10021 2982 0F       		.byte	0xf
 10022 2983 1804     		.2byte	0x418
 10023 2985 56       		.uleb128 0x56
 10024 2986 FE040000 		.4byte	.LASF218
 10025 298a FE040000 		.4byte	.LASF218
 10026 298e 08       		.byte	0x8
 10027 298f 3705     		.2byte	0x537
 10028 2991 55       		.uleb128 0x55
 10029 2992 EB070000 		.4byte	.LASF219
 10030 2996 EB070000 		.4byte	.LASF219
 10031 299a 14       		.byte	0x14
 10032 299b 32       		.byte	0x32
 10033 299c 55       		.uleb128 0x55
 10034 299d 36020000 		.4byte	.LASF220
 10035 29a1 36020000 		.4byte	.LASF220
 10036 29a5 14       		.byte	0x14
 10037 29a6 39       		.byte	0x39
 10038 29a7 55       		.uleb128 0x55
 10039 29a8 C8040000 		.4byte	.LASF221
 10040 29ac C8040000 		.4byte	.LASF221
 10041 29b0 15       		.byte	0x15
 10042 29b1 16       		.byte	0x16
 10043 29b2 55       		.uleb128 0x55
 10044 29b3 890B0000 		.4byte	.LASF222
 10045 29b7 890B0000 		.4byte	.LASF222
 10046 29bb 06       		.byte	0x6
 10047 29bc 8E       		.byte	0x8e
 10048 29bd 55       		.uleb128 0x55
 10049 29be 62010000 		.4byte	.LASF223
 10050 29c2 62010000 		.4byte	.LASF223
 10051 29c6 0D       		.byte	0xd
 10052 29c7 13       		.byte	0x13
 10053 29c8 55       		.uleb128 0x55
 10054 29c9 25020000 		.4byte	.LASF224
 10055 29cd 25020000 		.4byte	.LASF224
 10056 29d1 06       		.byte	0x6
 10057 29d2 8F       		.byte	0x8f
 10058 29d3 55       		.uleb128 0x55
 10059 29d4 A1020000 		.4byte	.LASF225
 10060 29d8 A1020000 		.4byte	.LASF225
ARM GAS  C:\Users\VIDEOH~1\AppData\Local\Temp\ccpdN5tN.s 			page 205


 10061 29dc 16       		.byte	0x16
 10062 29dd 30       		.byte	0x30
 10063 29de 55       		.uleb128 0x55
 10064 29df 1D000000 		.4byte	.LASF226
 10065 29e3 1D000000 		.4byte	.LASF226
 10066 29e7 17       		.byte	0x17
 10067 29e8 D9       		.byte	0xd9
 10068 29e9 55       		.uleb128 0x55
 10069 29ea AE000000 		.4byte	.LASF227
 10070 29ee AE000000 		.4byte	.LASF227
 10071 29f2 18       		.byte	0x18
 10072 29f3 32       		.byte	0x32
 10073 29f4 56       		.uleb128 0x56
 10074 29f5 94060000 		.4byte	.LASF228
 10075 29f9 94060000 		.4byte	.LASF228
 10076 29fd 08       		.byte	0x8
 10077 29fe 0006     		.2byte	0x600
 10078 2a00 55       		.uleb128 0x55
 10079 2a01 600D0000 		.4byte	.LASF229
 10080 2a05 600D0000 		.4byte	.LASF229
 10081 2a09 19       		.byte	0x19
 10082 2a0a 18       		.byte	0x18
 10083 2a0b 00       		.byte	0
 10084              		.section	.debug_abbrev,"",%progbits
 10085              	.Ldebug_abbrev0:
 10086 0000 01       		.uleb128 0x1
 10087 0001 11       		.uleb128 0x11
 10088 0002 01       		.byte	0x1
 10089 0003 25       		.uleb128 0x25
 10090 0004 0E       		.uleb128 0xe
 10091 0005 13       		.uleb128 0x13
 10092 0006 0B       		.uleb128 0xb
 10093 0007 03       		.uleb128 0x3
 10094 0008 0E       		.uleb128 0xe
 10095 0009 1B       		.uleb128 0x1b
 10096 000a 0E       		.uleb128 0xe
 10097 000b 55       		.uleb128 0x55
 10098 000c 17       		.uleb128 0x17
 10099 000d 11       		.uleb128 0x11
 10100 000e 01       		.uleb128 0x1
 10101 000f 10       		.uleb128 0x10
 10102 0010 17       		.uleb128 0x17
 10103 0011 00       		.byte	0
 10104 0012 00       		.byte	0
 10105 0013 02       		.uleb128 0x2
 10106 0014 24       		.uleb128 0x24
 10107 0015 00       		.byte	0
 10108 0016 0B       		.uleb128 0xb
 10109 0017 0B       		.uleb128 0xb
 10110 0018 3E       		.uleb128 0x3e
 10111 0019 0B       		.uleb128 0xb
 10112 001a 03       		.uleb128 0x3
 10113 001b 0E       		.uleb128 0xe
 10114 001c 00       		.byte	0
 10115 001d 00       		.byte	0
 10116 001e 03       		.uleb128 0x3
 10117 001f 16       		.uleb128 0x16
ARM GAS  C:\Users\VIDEOH~1\AppData\Local\Temp\ccpdN5tN.s 			page 206


 10118 0020 00       		.byte	0
 10119 0021 03       		.uleb128 0x3
 10120 0022 0E       		.uleb128 0xe
 10121 0023 3A       		.uleb128 0x3a
 10122 0024 0B       		.uleb128 0xb
 10123 0025 3B       		.uleb128 0x3b
 10124 0026 0B       		.uleb128 0xb
 10125 0027 49       		.uleb128 0x49
 10126 0028 13       		.uleb128 0x13
 10127 0029 00       		.byte	0
 10128 002a 00       		.byte	0
 10129 002b 04       		.uleb128 0x4
 10130 002c 24       		.uleb128 0x24
 10131 002d 00       		.byte	0
 10132 002e 0B       		.uleb128 0xb
 10133 002f 0B       		.uleb128 0xb
 10134 0030 3E       		.uleb128 0x3e
 10135 0031 0B       		.uleb128 0xb
 10136 0032 03       		.uleb128 0x3
 10137 0033 08       		.uleb128 0x8
 10138 0034 00       		.byte	0
 10139 0035 00       		.byte	0
 10140 0036 05       		.uleb128 0x5
 10141 0037 16       		.uleb128 0x16
 10142 0038 00       		.byte	0
 10143 0039 03       		.uleb128 0x3
 10144 003a 0E       		.uleb128 0xe
 10145 003b 3A       		.uleb128 0x3a
 10146 003c 0B       		.uleb128 0xb
 10147 003d 3B       		.uleb128 0x3b
 10148 003e 05       		.uleb128 0x5
 10149 003f 49       		.uleb128 0x49
 10150 0040 13       		.uleb128 0x13
 10151 0041 00       		.byte	0
 10152 0042 00       		.byte	0
 10153 0043 06       		.uleb128 0x6
 10154 0044 0F       		.uleb128 0xf
 10155 0045 00       		.byte	0
 10156 0046 0B       		.uleb128 0xb
 10157 0047 0B       		.uleb128 0xb
 10158 0048 00       		.byte	0
 10159 0049 00       		.byte	0
 10160 004a 07       		.uleb128 0x7
 10161 004b 0F       		.uleb128 0xf
 10162 004c 00       		.byte	0
 10163 004d 0B       		.uleb128 0xb
 10164 004e 0B       		.uleb128 0xb
 10165 004f 49       		.uleb128 0x49
 10166 0050 13       		.uleb128 0x13
 10167 0051 00       		.byte	0
 10168 0052 00       		.byte	0
 10169 0053 08       		.uleb128 0x8
 10170 0054 26       		.uleb128 0x26
 10171 0055 00       		.byte	0
 10172 0056 49       		.uleb128 0x49
 10173 0057 13       		.uleb128 0x13
 10174 0058 00       		.byte	0
ARM GAS  C:\Users\VIDEOH~1\AppData\Local\Temp\ccpdN5tN.s 			page 207


 10175 0059 00       		.byte	0
 10176 005a 09       		.uleb128 0x9
 10177 005b 01       		.uleb128 0x1
 10178 005c 01       		.byte	0x1
 10179 005d 49       		.uleb128 0x49
 10180 005e 13       		.uleb128 0x13
 10181 005f 01       		.uleb128 0x1
 10182 0060 13       		.uleb128 0x13
 10183 0061 00       		.byte	0
 10184 0062 00       		.byte	0
 10185 0063 0A       		.uleb128 0xa
 10186 0064 21       		.uleb128 0x21
 10187 0065 00       		.byte	0
 10188 0066 49       		.uleb128 0x49
 10189 0067 13       		.uleb128 0x13
 10190 0068 2F       		.uleb128 0x2f
 10191 0069 0B       		.uleb128 0xb
 10192 006a 00       		.byte	0
 10193 006b 00       		.byte	0
 10194 006c 0B       		.uleb128 0xb
 10195 006d 13       		.uleb128 0x13
 10196 006e 01       		.byte	0x1
 10197 006f 0B       		.uleb128 0xb
 10198 0070 0B       		.uleb128 0xb
 10199 0071 3A       		.uleb128 0x3a
 10200 0072 0B       		.uleb128 0xb
 10201 0073 3B       		.uleb128 0x3b
 10202 0074 05       		.uleb128 0x5
 10203 0075 01       		.uleb128 0x1
 10204 0076 13       		.uleb128 0x13
 10205 0077 00       		.byte	0
 10206 0078 00       		.byte	0
 10207 0079 0C       		.uleb128 0xc
 10208 007a 0D       		.uleb128 0xd
 10209 007b 00       		.byte	0
 10210 007c 03       		.uleb128 0x3
 10211 007d 0E       		.uleb128 0xe
 10212 007e 3A       		.uleb128 0x3a
 10213 007f 0B       		.uleb128 0xb
 10214 0080 3B       		.uleb128 0x3b
 10215 0081 05       		.uleb128 0x5
 10216 0082 49       		.uleb128 0x49
 10217 0083 13       		.uleb128 0x13
 10218 0084 38       		.uleb128 0x38
 10219 0085 0B       		.uleb128 0xb
 10220 0086 00       		.byte	0
 10221 0087 00       		.byte	0
 10222 0088 0D       		.uleb128 0xd
 10223 0089 13       		.uleb128 0x13
 10224 008a 01       		.byte	0x1
 10225 008b 0B       		.uleb128 0xb
 10226 008c 0B       		.uleb128 0xb
 10227 008d 3A       		.uleb128 0x3a
 10228 008e 0B       		.uleb128 0xb
 10229 008f 3B       		.uleb128 0x3b
 10230 0090 0B       		.uleb128 0xb
 10231 0091 01       		.uleb128 0x1
ARM GAS  C:\Users\VIDEOH~1\AppData\Local\Temp\ccpdN5tN.s 			page 208


 10232 0092 13       		.uleb128 0x13
 10233 0093 00       		.byte	0
 10234 0094 00       		.byte	0
 10235 0095 0E       		.uleb128 0xe
 10236 0096 0D       		.uleb128 0xd
 10237 0097 00       		.byte	0
 10238 0098 03       		.uleb128 0x3
 10239 0099 0E       		.uleb128 0xe
 10240 009a 3A       		.uleb128 0x3a
 10241 009b 0B       		.uleb128 0xb
 10242 009c 3B       		.uleb128 0x3b
 10243 009d 0B       		.uleb128 0xb
 10244 009e 49       		.uleb128 0x49
 10245 009f 13       		.uleb128 0x13
 10246 00a0 38       		.uleb128 0x38
 10247 00a1 0B       		.uleb128 0xb
 10248 00a2 00       		.byte	0
 10249 00a3 00       		.byte	0
 10250 00a4 0F       		.uleb128 0xf
 10251 00a5 04       		.uleb128 0x4
 10252 00a6 01       		.byte	0x1
 10253 00a7 0B       		.uleb128 0xb
 10254 00a8 0B       		.uleb128 0xb
 10255 00a9 49       		.uleb128 0x49
 10256 00aa 13       		.uleb128 0x13
 10257 00ab 3A       		.uleb128 0x3a
 10258 00ac 0B       		.uleb128 0xb
 10259 00ad 3B       		.uleb128 0x3b
 10260 00ae 0B       		.uleb128 0xb
 10261 00af 01       		.uleb128 0x1
 10262 00b0 13       		.uleb128 0x13
 10263 00b1 00       		.byte	0
 10264 00b2 00       		.byte	0
 10265 00b3 10       		.uleb128 0x10
 10266 00b4 28       		.uleb128 0x28
 10267 00b5 00       		.byte	0
 10268 00b6 03       		.uleb128 0x3
 10269 00b7 0E       		.uleb128 0xe
 10270 00b8 1C       		.uleb128 0x1c
 10271 00b9 0B       		.uleb128 0xb
 10272 00ba 00       		.byte	0
 10273 00bb 00       		.byte	0
 10274 00bc 11       		.uleb128 0x11
 10275 00bd 0D       		.uleb128 0xd
 10276 00be 00       		.byte	0
 10277 00bf 03       		.uleb128 0x3
 10278 00c0 08       		.uleb128 0x8
 10279 00c1 3A       		.uleb128 0x3a
 10280 00c2 0B       		.uleb128 0xb
 10281 00c3 3B       		.uleb128 0x3b
 10282 00c4 0B       		.uleb128 0xb
 10283 00c5 49       		.uleb128 0x49
 10284 00c6 13       		.uleb128 0x13
 10285 00c7 38       		.uleb128 0x38
 10286 00c8 0B       		.uleb128 0xb
 10287 00c9 00       		.byte	0
 10288 00ca 00       		.byte	0
ARM GAS  C:\Users\VIDEOH~1\AppData\Local\Temp\ccpdN5tN.s 			page 209


 10289 00cb 12       		.uleb128 0x12
 10290 00cc 17       		.uleb128 0x17
 10291 00cd 01       		.byte	0x1
 10292 00ce 0B       		.uleb128 0xb
 10293 00cf 0B       		.uleb128 0xb
 10294 00d0 3A       		.uleb128 0x3a
 10295 00d1 0B       		.uleb128 0xb
 10296 00d2 3B       		.uleb128 0x3b
 10297 00d3 0B       		.uleb128 0xb
 10298 00d4 01       		.uleb128 0x1
 10299 00d5 13       		.uleb128 0x13
 10300 00d6 00       		.byte	0
 10301 00d7 00       		.byte	0
 10302 00d8 13       		.uleb128 0x13
 10303 00d9 0D       		.uleb128 0xd
 10304 00da 00       		.byte	0
 10305 00db 03       		.uleb128 0x3
 10306 00dc 0E       		.uleb128 0xe
 10307 00dd 3A       		.uleb128 0x3a
 10308 00de 0B       		.uleb128 0xb
 10309 00df 3B       		.uleb128 0x3b
 10310 00e0 0B       		.uleb128 0xb
 10311 00e1 49       		.uleb128 0x49
 10312 00e2 13       		.uleb128 0x13
 10313 00e3 00       		.byte	0
 10314 00e4 00       		.byte	0
 10315 00e5 14       		.uleb128 0x14
 10316 00e6 26       		.uleb128 0x26
 10317 00e7 00       		.byte	0
 10318 00e8 00       		.byte	0
 10319 00e9 00       		.byte	0
 10320 00ea 15       		.uleb128 0x15
 10321 00eb 15       		.uleb128 0x15
 10322 00ec 01       		.byte	0x1
 10323 00ed 27       		.uleb128 0x27
 10324 00ee 19       		.uleb128 0x19
 10325 00ef 01       		.uleb128 0x1
 10326 00f0 13       		.uleb128 0x13
 10327 00f1 00       		.byte	0
 10328 00f2 00       		.byte	0
 10329 00f3 16       		.uleb128 0x16
 10330 00f4 05       		.uleb128 0x5
 10331 00f5 00       		.byte	0
 10332 00f6 49       		.uleb128 0x49
 10333 00f7 13       		.uleb128 0x13
 10334 00f8 00       		.byte	0
 10335 00f9 00       		.byte	0
 10336 00fa 17       		.uleb128 0x17
 10337 00fb 13       		.uleb128 0x13
 10338 00fc 01       		.byte	0x1
 10339 00fd 03       		.uleb128 0x3
 10340 00fe 0E       		.uleb128 0xe
 10341 00ff 0B       		.uleb128 0xb
 10342 0100 0B       		.uleb128 0xb
 10343 0101 3A       		.uleb128 0x3a
 10344 0102 0B       		.uleb128 0xb
 10345 0103 3B       		.uleb128 0x3b
ARM GAS  C:\Users\VIDEOH~1\AppData\Local\Temp\ccpdN5tN.s 			page 210


 10346 0104 0B       		.uleb128 0xb
 10347 0105 01       		.uleb128 0x1
 10348 0106 13       		.uleb128 0x13
 10349 0107 00       		.byte	0
 10350 0108 00       		.byte	0
 10351 0109 18       		.uleb128 0x18
 10352 010a 15       		.uleb128 0x15
 10353 010b 01       		.byte	0x1
 10354 010c 27       		.uleb128 0x27
 10355 010d 19       		.uleb128 0x19
 10356 010e 49       		.uleb128 0x49
 10357 010f 13       		.uleb128 0x13
 10358 0110 01       		.uleb128 0x1
 10359 0111 13       		.uleb128 0x13
 10360 0112 00       		.byte	0
 10361 0113 00       		.byte	0
 10362 0114 19       		.uleb128 0x19
 10363 0115 21       		.uleb128 0x21
 10364 0116 00       		.byte	0
 10365 0117 49       		.uleb128 0x49
 10366 0118 13       		.uleb128 0x13
 10367 0119 00       		.byte	0
 10368 011a 00       		.byte	0
 10369 011b 1A       		.uleb128 0x1a
 10370 011c 15       		.uleb128 0x15
 10371 011d 01       		.byte	0x1
 10372 011e 01       		.uleb128 0x1
 10373 011f 13       		.uleb128 0x13
 10374 0120 00       		.byte	0
 10375 0121 00       		.byte	0
 10376 0122 1B       		.uleb128 0x1b
 10377 0123 18       		.uleb128 0x18
 10378 0124 00       		.byte	0
 10379 0125 00       		.byte	0
 10380 0126 00       		.byte	0
 10381 0127 1C       		.uleb128 0x1c
 10382 0128 2E       		.uleb128 0x2e
 10383 0129 01       		.byte	0x1
 10384 012a 3F       		.uleb128 0x3f
 10385 012b 19       		.uleb128 0x19
 10386 012c 03       		.uleb128 0x3
 10387 012d 0E       		.uleb128 0xe
 10388 012e 3A       		.uleb128 0x3a
 10389 012f 0B       		.uleb128 0xb
 10390 0130 3B       		.uleb128 0x3b
 10391 0131 0B       		.uleb128 0xb
 10392 0132 27       		.uleb128 0x27
 10393 0133 19       		.uleb128 0x19
 10394 0134 20       		.uleb128 0x20
 10395 0135 0B       		.uleb128 0xb
 10396 0136 01       		.uleb128 0x1
 10397 0137 13       		.uleb128 0x13
 10398 0138 00       		.byte	0
 10399 0139 00       		.byte	0
 10400 013a 1D       		.uleb128 0x1d
 10401 013b 34       		.uleb128 0x34
 10402 013c 00       		.byte	0
ARM GAS  C:\Users\VIDEOH~1\AppData\Local\Temp\ccpdN5tN.s 			page 211


 10403 013d 03       		.uleb128 0x3
 10404 013e 0E       		.uleb128 0xe
 10405 013f 3A       		.uleb128 0x3a
 10406 0140 0B       		.uleb128 0xb
 10407 0141 3B       		.uleb128 0x3b
 10408 0142 0B       		.uleb128 0xb
 10409 0143 49       		.uleb128 0x49
 10410 0144 13       		.uleb128 0x13
 10411 0145 00       		.byte	0
 10412 0146 00       		.byte	0
 10413 0147 1E       		.uleb128 0x1e
 10414 0148 2E       		.uleb128 0x2e
 10415 0149 01       		.byte	0x1
 10416 014a 03       		.uleb128 0x3
 10417 014b 0E       		.uleb128 0xe
 10418 014c 3A       		.uleb128 0x3a
 10419 014d 0B       		.uleb128 0xb
 10420 014e 3B       		.uleb128 0x3b
 10421 014f 05       		.uleb128 0x5
 10422 0150 27       		.uleb128 0x27
 10423 0151 19       		.uleb128 0x19
 10424 0152 20       		.uleb128 0x20
 10425 0153 0B       		.uleb128 0xb
 10426 0154 01       		.uleb128 0x1
 10427 0155 13       		.uleb128 0x13
 10428 0156 00       		.byte	0
 10429 0157 00       		.byte	0
 10430 0158 1F       		.uleb128 0x1f
 10431 0159 05       		.uleb128 0x5
 10432 015a 00       		.byte	0
 10433 015b 03       		.uleb128 0x3
 10434 015c 0E       		.uleb128 0xe
 10435 015d 3A       		.uleb128 0x3a
 10436 015e 0B       		.uleb128 0xb
 10437 015f 3B       		.uleb128 0x3b
 10438 0160 05       		.uleb128 0x5
 10439 0161 49       		.uleb128 0x49
 10440 0162 13       		.uleb128 0x13
 10441 0163 00       		.byte	0
 10442 0164 00       		.byte	0
 10443 0165 20       		.uleb128 0x20
 10444 0166 05       		.uleb128 0x5
 10445 0167 00       		.byte	0
 10446 0168 03       		.uleb128 0x3
 10447 0169 08       		.uleb128 0x8
 10448 016a 3A       		.uleb128 0x3a
 10449 016b 0B       		.uleb128 0xb
 10450 016c 3B       		.uleb128 0x3b
 10451 016d 05       		.uleb128 0x5
 10452 016e 49       		.uleb128 0x49
 10453 016f 13       		.uleb128 0x13
 10454 0170 00       		.byte	0
 10455 0171 00       		.byte	0
 10456 0172 21       		.uleb128 0x21
 10457 0173 34       		.uleb128 0x34
 10458 0174 00       		.byte	0
 10459 0175 03       		.uleb128 0x3
ARM GAS  C:\Users\VIDEOH~1\AppData\Local\Temp\ccpdN5tN.s 			page 212


 10460 0176 08       		.uleb128 0x8
 10461 0177 3A       		.uleb128 0x3a
 10462 0178 0B       		.uleb128 0xb
 10463 0179 3B       		.uleb128 0x3b
 10464 017a 05       		.uleb128 0x5
 10465 017b 49       		.uleb128 0x49
 10466 017c 13       		.uleb128 0x13
 10467 017d 00       		.byte	0
 10468 017e 00       		.byte	0
 10469 017f 22       		.uleb128 0x22
 10470 0180 34       		.uleb128 0x34
 10471 0181 00       		.byte	0
 10472 0182 03       		.uleb128 0x3
 10473 0183 0E       		.uleb128 0xe
 10474 0184 3A       		.uleb128 0x3a
 10475 0185 0B       		.uleb128 0xb
 10476 0186 3B       		.uleb128 0x3b
 10477 0187 05       		.uleb128 0x5
 10478 0188 49       		.uleb128 0x49
 10479 0189 13       		.uleb128 0x13
 10480 018a 00       		.byte	0
 10481 018b 00       		.byte	0
 10482 018c 23       		.uleb128 0x23
 10483 018d 0B       		.uleb128 0xb
 10484 018e 01       		.byte	0x1
 10485 018f 00       		.byte	0
 10486 0190 00       		.byte	0
 10487 0191 24       		.uleb128 0x24
 10488 0192 2E       		.uleb128 0x2e
 10489 0193 01       		.byte	0x1
 10490 0194 03       		.uleb128 0x3
 10491 0195 0E       		.uleb128 0xe
 10492 0196 3A       		.uleb128 0x3a
 10493 0197 0B       		.uleb128 0xb
 10494 0198 3B       		.uleb128 0x3b
 10495 0199 05       		.uleb128 0x5
 10496 019a 27       		.uleb128 0x27
 10497 019b 19       		.uleb128 0x19
 10498 019c 49       		.uleb128 0x49
 10499 019d 13       		.uleb128 0x13
 10500 019e 11       		.uleb128 0x11
 10501 019f 01       		.uleb128 0x1
 10502 01a0 12       		.uleb128 0x12
 10503 01a1 06       		.uleb128 0x6
 10504 01a2 40       		.uleb128 0x40
 10505 01a3 18       		.uleb128 0x18
 10506 01a4 9742     		.uleb128 0x2117
 10507 01a6 19       		.uleb128 0x19
 10508 01a7 01       		.uleb128 0x1
 10509 01a8 13       		.uleb128 0x13
 10510 01a9 00       		.byte	0
 10511 01aa 00       		.byte	0
 10512 01ab 25       		.uleb128 0x25
 10513 01ac 05       		.uleb128 0x5
 10514 01ad 00       		.byte	0
 10515 01ae 03       		.uleb128 0x3
 10516 01af 08       		.uleb128 0x8
ARM GAS  C:\Users\VIDEOH~1\AppData\Local\Temp\ccpdN5tN.s 			page 213


 10517 01b0 3A       		.uleb128 0x3a
 10518 01b1 0B       		.uleb128 0xb
 10519 01b2 3B       		.uleb128 0x3b
 10520 01b3 05       		.uleb128 0x5
 10521 01b4 49       		.uleb128 0x49
 10522 01b5 13       		.uleb128 0x13
 10523 01b6 02       		.uleb128 0x2
 10524 01b7 17       		.uleb128 0x17
 10525 01b8 00       		.byte	0
 10526 01b9 00       		.byte	0
 10527 01ba 26       		.uleb128 0x26
 10528 01bb 898201   		.uleb128 0x4109
 10529 01be 00       		.byte	0
 10530 01bf 11       		.uleb128 0x11
 10531 01c0 01       		.uleb128 0x1
 10532 01c1 9342     		.uleb128 0x2113
 10533 01c3 18       		.uleb128 0x18
 10534 01c4 00       		.byte	0
 10535 01c5 00       		.byte	0
 10536 01c6 27       		.uleb128 0x27
 10537 01c7 2E       		.uleb128 0x2e
 10538 01c8 01       		.byte	0x1
 10539 01c9 03       		.uleb128 0x3
 10540 01ca 0E       		.uleb128 0xe
 10541 01cb 3A       		.uleb128 0x3a
 10542 01cc 0B       		.uleb128 0xb
 10543 01cd 3B       		.uleb128 0x3b
 10544 01ce 0B       		.uleb128 0xb
 10545 01cf 27       		.uleb128 0x27
 10546 01d0 19       		.uleb128 0x19
 10547 01d1 11       		.uleb128 0x11
 10548 01d2 01       		.uleb128 0x1
 10549 01d3 12       		.uleb128 0x12
 10550 01d4 06       		.uleb128 0x6
 10551 01d5 40       		.uleb128 0x40
 10552 01d6 18       		.uleb128 0x18
 10553 01d7 9642     		.uleb128 0x2116
 10554 01d9 19       		.uleb128 0x19
 10555 01da 01       		.uleb128 0x1
 10556 01db 13       		.uleb128 0x13
 10557 01dc 00       		.byte	0
 10558 01dd 00       		.byte	0
 10559 01de 28       		.uleb128 0x28
 10560 01df 05       		.uleb128 0x5
 10561 01e0 00       		.byte	0
 10562 01e1 03       		.uleb128 0x3
 10563 01e2 08       		.uleb128 0x8
 10564 01e3 3A       		.uleb128 0x3a
 10565 01e4 0B       		.uleb128 0xb
 10566 01e5 3B       		.uleb128 0x3b
 10567 01e6 0B       		.uleb128 0xb
 10568 01e7 49       		.uleb128 0x49
 10569 01e8 13       		.uleb128 0x13
 10570 01e9 02       		.uleb128 0x2
 10571 01ea 17       		.uleb128 0x17
 10572 01eb 00       		.byte	0
 10573 01ec 00       		.byte	0
ARM GAS  C:\Users\VIDEOH~1\AppData\Local\Temp\ccpdN5tN.s 			page 214


 10574 01ed 29       		.uleb128 0x29
 10575 01ee 05       		.uleb128 0x5
 10576 01ef 00       		.byte	0
 10577 01f0 03       		.uleb128 0x3
 10578 01f1 0E       		.uleb128 0xe
 10579 01f2 3A       		.uleb128 0x3a
 10580 01f3 0B       		.uleb128 0xb
 10581 01f4 3B       		.uleb128 0x3b
 10582 01f5 0B       		.uleb128 0xb
 10583 01f6 49       		.uleb128 0x49
 10584 01f7 13       		.uleb128 0x13
 10585 01f8 02       		.uleb128 0x2
 10586 01f9 17       		.uleb128 0x17
 10587 01fa 00       		.byte	0
 10588 01fb 00       		.byte	0
 10589 01fc 2A       		.uleb128 0x2a
 10590 01fd 34       		.uleb128 0x34
 10591 01fe 00       		.byte	0
 10592 01ff 03       		.uleb128 0x3
 10593 0200 0E       		.uleb128 0xe
 10594 0201 3A       		.uleb128 0x3a
 10595 0202 0B       		.uleb128 0xb
 10596 0203 3B       		.uleb128 0x3b
 10597 0204 0B       		.uleb128 0xb
 10598 0205 49       		.uleb128 0x49
 10599 0206 13       		.uleb128 0x13
 10600 0207 02       		.uleb128 0x2
 10601 0208 17       		.uleb128 0x17
 10602 0209 00       		.byte	0
 10603 020a 00       		.byte	0
 10604 020b 2B       		.uleb128 0x2b
 10605 020c 898201   		.uleb128 0x4109
 10606 020f 01       		.byte	0x1
 10607 0210 11       		.uleb128 0x11
 10608 0211 01       		.uleb128 0x1
 10609 0212 31       		.uleb128 0x31
 10610 0213 13       		.uleb128 0x13
 10611 0214 00       		.byte	0
 10612 0215 00       		.byte	0
 10613 0216 2C       		.uleb128 0x2c
 10614 0217 8A8201   		.uleb128 0x410a
 10615 021a 00       		.byte	0
 10616 021b 02       		.uleb128 0x2
 10617 021c 18       		.uleb128 0x18
 10618 021d 9142     		.uleb128 0x2111
 10619 021f 18       		.uleb128 0x18
 10620 0220 00       		.byte	0
 10621 0221 00       		.byte	0
 10622 0222 2D       		.uleb128 0x2d
 10623 0223 898201   		.uleb128 0x4109
 10624 0226 01       		.byte	0x1
 10625 0227 11       		.uleb128 0x11
 10626 0228 01       		.uleb128 0x1
 10627 0229 31       		.uleb128 0x31
 10628 022a 13       		.uleb128 0x13
 10629 022b 01       		.uleb128 0x1
 10630 022c 13       		.uleb128 0x13
ARM GAS  C:\Users\VIDEOH~1\AppData\Local\Temp\ccpdN5tN.s 			page 215


 10631 022d 00       		.byte	0
 10632 022e 00       		.byte	0
 10633 022f 2E       		.uleb128 0x2e
 10634 0230 2E       		.uleb128 0x2e
 10635 0231 01       		.byte	0x1
 10636 0232 3F       		.uleb128 0x3f
 10637 0233 19       		.uleb128 0x19
 10638 0234 03       		.uleb128 0x3
 10639 0235 0E       		.uleb128 0xe
 10640 0236 3A       		.uleb128 0x3a
 10641 0237 0B       		.uleb128 0xb
 10642 0238 3B       		.uleb128 0x3b
 10643 0239 05       		.uleb128 0x5
 10644 023a 27       		.uleb128 0x27
 10645 023b 19       		.uleb128 0x19
 10646 023c 11       		.uleb128 0x11
 10647 023d 01       		.uleb128 0x1
 10648 023e 12       		.uleb128 0x12
 10649 023f 06       		.uleb128 0x6
 10650 0240 40       		.uleb128 0x40
 10651 0241 18       		.uleb128 0x18
 10652 0242 9742     		.uleb128 0x2117
 10653 0244 19       		.uleb128 0x19
 10654 0245 01       		.uleb128 0x1
 10655 0246 13       		.uleb128 0x13
 10656 0247 00       		.byte	0
 10657 0248 00       		.byte	0
 10658 0249 2F       		.uleb128 0x2f
 10659 024a 898201   		.uleb128 0x4109
 10660 024d 00       		.byte	0
 10661 024e 11       		.uleb128 0x11
 10662 024f 01       		.uleb128 0x1
 10663 0250 31       		.uleb128 0x31
 10664 0251 13       		.uleb128 0x13
 10665 0252 00       		.byte	0
 10666 0253 00       		.byte	0
 10667 0254 30       		.uleb128 0x30
 10668 0255 2E       		.uleb128 0x2e
 10669 0256 01       		.byte	0x1
 10670 0257 03       		.uleb128 0x3
 10671 0258 0E       		.uleb128 0xe
 10672 0259 3A       		.uleb128 0x3a
 10673 025a 0B       		.uleb128 0xb
 10674 025b 3B       		.uleb128 0x3b
 10675 025c 05       		.uleb128 0x5
 10676 025d 27       		.uleb128 0x27
 10677 025e 19       		.uleb128 0x19
 10678 025f 11       		.uleb128 0x11
 10679 0260 01       		.uleb128 0x1
 10680 0261 12       		.uleb128 0x12
 10681 0262 06       		.uleb128 0x6
 10682 0263 40       		.uleb128 0x40
 10683 0264 18       		.uleb128 0x18
 10684 0265 9742     		.uleb128 0x2117
 10685 0267 19       		.uleb128 0x19
 10686 0268 01       		.uleb128 0x1
 10687 0269 13       		.uleb128 0x13
ARM GAS  C:\Users\VIDEOH~1\AppData\Local\Temp\ccpdN5tN.s 			page 216


 10688 026a 00       		.byte	0
 10689 026b 00       		.byte	0
 10690 026c 31       		.uleb128 0x31
 10691 026d 05       		.uleb128 0x5
 10692 026e 00       		.byte	0
 10693 026f 03       		.uleb128 0x3
 10694 0270 0E       		.uleb128 0xe
 10695 0271 3A       		.uleb128 0x3a
 10696 0272 0B       		.uleb128 0xb
 10697 0273 3B       		.uleb128 0x3b
 10698 0274 05       		.uleb128 0x5
 10699 0275 49       		.uleb128 0x49
 10700 0276 13       		.uleb128 0x13
 10701 0277 02       		.uleb128 0x2
 10702 0278 17       		.uleb128 0x17
 10703 0279 00       		.byte	0
 10704 027a 00       		.byte	0
 10705 027b 32       		.uleb128 0x32
 10706 027c 34       		.uleb128 0x34
 10707 027d 00       		.byte	0
 10708 027e 03       		.uleb128 0x3
 10709 027f 0E       		.uleb128 0xe
 10710 0280 3A       		.uleb128 0x3a
 10711 0281 0B       		.uleb128 0xb
 10712 0282 3B       		.uleb128 0x3b
 10713 0283 05       		.uleb128 0x5
 10714 0284 49       		.uleb128 0x49
 10715 0285 13       		.uleb128 0x13
 10716 0286 02       		.uleb128 0x2
 10717 0287 18       		.uleb128 0x18
 10718 0288 00       		.byte	0
 10719 0289 00       		.byte	0
 10720 028a 33       		.uleb128 0x33
 10721 028b 34       		.uleb128 0x34
 10722 028c 00       		.byte	0
 10723 028d 03       		.uleb128 0x3
 10724 028e 08       		.uleb128 0x8
 10725 028f 3A       		.uleb128 0x3a
 10726 0290 0B       		.uleb128 0xb
 10727 0291 3B       		.uleb128 0x3b
 10728 0292 05       		.uleb128 0x5
 10729 0293 49       		.uleb128 0x49
 10730 0294 13       		.uleb128 0x13
 10731 0295 02       		.uleb128 0x2
 10732 0296 17       		.uleb128 0x17
 10733 0297 00       		.byte	0
 10734 0298 00       		.byte	0
 10735 0299 34       		.uleb128 0x34
 10736 029a 2E       		.uleb128 0x2e
 10737 029b 01       		.byte	0x1
 10738 029c 03       		.uleb128 0x3
 10739 029d 0E       		.uleb128 0xe
 10740 029e 3A       		.uleb128 0x3a
 10741 029f 0B       		.uleb128 0xb
 10742 02a0 3B       		.uleb128 0x3b
 10743 02a1 05       		.uleb128 0x5
 10744 02a2 27       		.uleb128 0x27
ARM GAS  C:\Users\VIDEOH~1\AppData\Local\Temp\ccpdN5tN.s 			page 217


 10745 02a3 19       		.uleb128 0x19
 10746 02a4 49       		.uleb128 0x49
 10747 02a5 13       		.uleb128 0x13
 10748 02a6 11       		.uleb128 0x11
 10749 02a7 01       		.uleb128 0x1
 10750 02a8 12       		.uleb128 0x12
 10751 02a9 06       		.uleb128 0x6
 10752 02aa 40       		.uleb128 0x40
 10753 02ab 18       		.uleb128 0x18
 10754 02ac 9642     		.uleb128 0x2116
 10755 02ae 19       		.uleb128 0x19
 10756 02af 01       		.uleb128 0x1
 10757 02b0 13       		.uleb128 0x13
 10758 02b1 00       		.byte	0
 10759 02b2 00       		.byte	0
 10760 02b3 35       		.uleb128 0x35
 10761 02b4 34       		.uleb128 0x34
 10762 02b5 00       		.byte	0
 10763 02b6 03       		.uleb128 0x3
 10764 02b7 0E       		.uleb128 0xe
 10765 02b8 3A       		.uleb128 0x3a
 10766 02b9 0B       		.uleb128 0xb
 10767 02ba 3B       		.uleb128 0x3b
 10768 02bb 05       		.uleb128 0x5
 10769 02bc 49       		.uleb128 0x49
 10770 02bd 13       		.uleb128 0x13
 10771 02be 02       		.uleb128 0x2
 10772 02bf 17       		.uleb128 0x17
 10773 02c0 00       		.byte	0
 10774 02c1 00       		.byte	0
 10775 02c2 36       		.uleb128 0x36
 10776 02c3 34       		.uleb128 0x34
 10777 02c4 00       		.byte	0
 10778 02c5 03       		.uleb128 0x3
 10779 02c6 0E       		.uleb128 0xe
 10780 02c7 3A       		.uleb128 0x3a
 10781 02c8 0B       		.uleb128 0xb
 10782 02c9 3B       		.uleb128 0x3b
 10783 02ca 05       		.uleb128 0x5
 10784 02cb 49       		.uleb128 0x49
 10785 02cc 13       		.uleb128 0x13
 10786 02cd 1C       		.uleb128 0x1c
 10787 02ce 0B       		.uleb128 0xb
 10788 02cf 00       		.byte	0
 10789 02d0 00       		.byte	0
 10790 02d1 37       		.uleb128 0x37
 10791 02d2 34       		.uleb128 0x34
 10792 02d3 00       		.byte	0
 10793 02d4 03       		.uleb128 0x3
 10794 02d5 08       		.uleb128 0x8
 10795 02d6 3A       		.uleb128 0x3a
 10796 02d7 0B       		.uleb128 0xb
 10797 02d8 3B       		.uleb128 0x3b
 10798 02d9 05       		.uleb128 0x5
 10799 02da 49       		.uleb128 0x49
 10800 02db 13       		.uleb128 0x13
 10801 02dc 02       		.uleb128 0x2
ARM GAS  C:\Users\VIDEOH~1\AppData\Local\Temp\ccpdN5tN.s 			page 218


 10802 02dd 18       		.uleb128 0x18
 10803 02de 00       		.byte	0
 10804 02df 00       		.byte	0
 10805 02e0 38       		.uleb128 0x38
 10806 02e1 2E       		.uleb128 0x2e
 10807 02e2 01       		.byte	0x1
 10808 02e3 3F       		.uleb128 0x3f
 10809 02e4 19       		.uleb128 0x19
 10810 02e5 03       		.uleb128 0x3
 10811 02e6 0E       		.uleb128 0xe
 10812 02e7 3A       		.uleb128 0x3a
 10813 02e8 0B       		.uleb128 0xb
 10814 02e9 3B       		.uleb128 0x3b
 10815 02ea 05       		.uleb128 0x5
 10816 02eb 27       		.uleb128 0x27
 10817 02ec 19       		.uleb128 0x19
 10818 02ed 11       		.uleb128 0x11
 10819 02ee 01       		.uleb128 0x1
 10820 02ef 12       		.uleb128 0x12
 10821 02f0 06       		.uleb128 0x6
 10822 02f1 40       		.uleb128 0x40
 10823 02f2 18       		.uleb128 0x18
 10824 02f3 9642     		.uleb128 0x2116
 10825 02f5 19       		.uleb128 0x19
 10826 02f6 01       		.uleb128 0x1
 10827 02f7 13       		.uleb128 0x13
 10828 02f8 00       		.byte	0
 10829 02f9 00       		.byte	0
 10830 02fa 39       		.uleb128 0x39
 10831 02fb 1D       		.uleb128 0x1d
 10832 02fc 01       		.byte	0x1
 10833 02fd 31       		.uleb128 0x31
 10834 02fe 13       		.uleb128 0x13
 10835 02ff 52       		.uleb128 0x52
 10836 0300 01       		.uleb128 0x1
 10837 0301 55       		.uleb128 0x55
 10838 0302 17       		.uleb128 0x17
 10839 0303 58       		.uleb128 0x58
 10840 0304 0B       		.uleb128 0xb
 10841 0305 59       		.uleb128 0x59
 10842 0306 05       		.uleb128 0x5
 10843 0307 01       		.uleb128 0x1
 10844 0308 13       		.uleb128 0x13
 10845 0309 00       		.byte	0
 10846 030a 00       		.byte	0
 10847 030b 3A       		.uleb128 0x3a
 10848 030c 05       		.uleb128 0x5
 10849 030d 00       		.byte	0
 10850 030e 31       		.uleb128 0x31
 10851 030f 13       		.uleb128 0x13
 10852 0310 02       		.uleb128 0x2
 10853 0311 17       		.uleb128 0x17
 10854 0312 00       		.byte	0
 10855 0313 00       		.byte	0
 10856 0314 3B       		.uleb128 0x3b
 10857 0315 0B       		.uleb128 0xb
 10858 0316 01       		.byte	0x1
ARM GAS  C:\Users\VIDEOH~1\AppData\Local\Temp\ccpdN5tN.s 			page 219


 10859 0317 55       		.uleb128 0x55
 10860 0318 17       		.uleb128 0x17
 10861 0319 00       		.byte	0
 10862 031a 00       		.byte	0
 10863 031b 3C       		.uleb128 0x3c
 10864 031c 34       		.uleb128 0x34
 10865 031d 00       		.byte	0
 10866 031e 31       		.uleb128 0x31
 10867 031f 13       		.uleb128 0x13
 10868 0320 02       		.uleb128 0x2
 10869 0321 18       		.uleb128 0x18
 10870 0322 00       		.byte	0
 10871 0323 00       		.byte	0
 10872 0324 3D       		.uleb128 0x3d
 10873 0325 1D       		.uleb128 0x1d
 10874 0326 01       		.byte	0x1
 10875 0327 31       		.uleb128 0x31
 10876 0328 13       		.uleb128 0x13
 10877 0329 11       		.uleb128 0x11
 10878 032a 01       		.uleb128 0x1
 10879 032b 12       		.uleb128 0x12
 10880 032c 06       		.uleb128 0x6
 10881 032d 58       		.uleb128 0x58
 10882 032e 0B       		.uleb128 0xb
 10883 032f 59       		.uleb128 0x59
 10884 0330 05       		.uleb128 0x5
 10885 0331 01       		.uleb128 0x1
 10886 0332 13       		.uleb128 0x13
 10887 0333 00       		.byte	0
 10888 0334 00       		.byte	0
 10889 0335 3E       		.uleb128 0x3e
 10890 0336 0B       		.uleb128 0xb
 10891 0337 01       		.byte	0x1
 10892 0338 11       		.uleb128 0x11
 10893 0339 01       		.uleb128 0x1
 10894 033a 12       		.uleb128 0x12
 10895 033b 06       		.uleb128 0x6
 10896 033c 00       		.byte	0
 10897 033d 00       		.byte	0
 10898 033e 3F       		.uleb128 0x3f
 10899 033f 0B       		.uleb128 0xb
 10900 0340 01       		.byte	0x1
 10901 0341 11       		.uleb128 0x11
 10902 0342 01       		.uleb128 0x1
 10903 0343 12       		.uleb128 0x12
 10904 0344 06       		.uleb128 0x6
 10905 0345 01       		.uleb128 0x1
 10906 0346 13       		.uleb128 0x13
 10907 0347 00       		.byte	0
 10908 0348 00       		.byte	0
 10909 0349 40       		.uleb128 0x40
 10910 034a 34       		.uleb128 0x34
 10911 034b 00       		.byte	0
 10912 034c 31       		.uleb128 0x31
 10913 034d 13       		.uleb128 0x13
 10914 034e 02       		.uleb128 0x2
 10915 034f 17       		.uleb128 0x17
ARM GAS  C:\Users\VIDEOH~1\AppData\Local\Temp\ccpdN5tN.s 			page 220


 10916 0350 00       		.byte	0
 10917 0351 00       		.byte	0
 10918 0352 41       		.uleb128 0x41
 10919 0353 0B       		.uleb128 0xb
 10920 0354 01       		.byte	0x1
 10921 0355 01       		.uleb128 0x1
 10922 0356 13       		.uleb128 0x13
 10923 0357 00       		.byte	0
 10924 0358 00       		.byte	0
 10925 0359 42       		.uleb128 0x42
 10926 035a 0B       		.uleb128 0xb
 10927 035b 01       		.byte	0x1
 10928 035c 55       		.uleb128 0x55
 10929 035d 17       		.uleb128 0x17
 10930 035e 01       		.uleb128 0x1
 10931 035f 13       		.uleb128 0x13
 10932 0360 00       		.byte	0
 10933 0361 00       		.byte	0
 10934 0362 43       		.uleb128 0x43
 10935 0363 2E       		.uleb128 0x2e
 10936 0364 01       		.byte	0x1
 10937 0365 31       		.uleb128 0x31
 10938 0366 13       		.uleb128 0x13
 10939 0367 11       		.uleb128 0x11
 10940 0368 01       		.uleb128 0x1
 10941 0369 12       		.uleb128 0x12
 10942 036a 06       		.uleb128 0x6
 10943 036b 40       		.uleb128 0x40
 10944 036c 18       		.uleb128 0x18
 10945 036d 9742     		.uleb128 0x2117
 10946 036f 19       		.uleb128 0x19
 10947 0370 01       		.uleb128 0x1
 10948 0371 13       		.uleb128 0x13
 10949 0372 00       		.byte	0
 10950 0373 00       		.byte	0
 10951 0374 44       		.uleb128 0x44
 10952 0375 34       		.uleb128 0x34
 10953 0376 00       		.byte	0
 10954 0377 31       		.uleb128 0x31
 10955 0378 13       		.uleb128 0x13
 10956 0379 00       		.byte	0
 10957 037a 00       		.byte	0
 10958 037b 45       		.uleb128 0x45
 10959 037c 05       		.uleb128 0x5
 10960 037d 00       		.byte	0
 10961 037e 31       		.uleb128 0x31
 10962 037f 13       		.uleb128 0x13
 10963 0380 1C       		.uleb128 0x1c
 10964 0381 0B       		.uleb128 0xb
 10965 0382 00       		.byte	0
 10966 0383 00       		.byte	0
 10967 0384 46       		.uleb128 0x46
 10968 0385 2E       		.uleb128 0x2e
 10969 0386 01       		.byte	0x1
 10970 0387 03       		.uleb128 0x3
 10971 0388 0E       		.uleb128 0xe
 10972 0389 3A       		.uleb128 0x3a
ARM GAS  C:\Users\VIDEOH~1\AppData\Local\Temp\ccpdN5tN.s 			page 221


 10973 038a 0B       		.uleb128 0xb
 10974 038b 3B       		.uleb128 0x3b
 10975 038c 0B       		.uleb128 0xb
 10976 038d 27       		.uleb128 0x27
 10977 038e 19       		.uleb128 0x19
 10978 038f 20       		.uleb128 0x20
 10979 0390 0B       		.uleb128 0xb
 10980 0391 01       		.uleb128 0x1
 10981 0392 13       		.uleb128 0x13
 10982 0393 00       		.byte	0
 10983 0394 00       		.byte	0
 10984 0395 47       		.uleb128 0x47
 10985 0396 05       		.uleb128 0x5
 10986 0397 00       		.byte	0
 10987 0398 03       		.uleb128 0x3
 10988 0399 0E       		.uleb128 0xe
 10989 039a 3A       		.uleb128 0x3a
 10990 039b 0B       		.uleb128 0xb
 10991 039c 3B       		.uleb128 0x3b
 10992 039d 0B       		.uleb128 0xb
 10993 039e 49       		.uleb128 0x49
 10994 039f 13       		.uleb128 0x13
 10995 03a0 00       		.byte	0
 10996 03a1 00       		.byte	0
 10997 03a2 48       		.uleb128 0x48
 10998 03a3 2E       		.uleb128 0x2e
 10999 03a4 01       		.byte	0x1
 11000 03a5 03       		.uleb128 0x3
 11001 03a6 0E       		.uleb128 0xe
 11002 03a7 3A       		.uleb128 0x3a
 11003 03a8 0B       		.uleb128 0xb
 11004 03a9 3B       		.uleb128 0x3b
 11005 03aa 05       		.uleb128 0x5
 11006 03ab 27       		.uleb128 0x27
 11007 03ac 19       		.uleb128 0x19
 11008 03ad 49       		.uleb128 0x49
 11009 03ae 13       		.uleb128 0x13
 11010 03af 20       		.uleb128 0x20
 11011 03b0 0B       		.uleb128 0xb
 11012 03b1 01       		.uleb128 0x1
 11013 03b2 13       		.uleb128 0x13
 11014 03b3 00       		.byte	0
 11015 03b4 00       		.byte	0
 11016 03b5 49       		.uleb128 0x49
 11017 03b6 05       		.uleb128 0x5
 11018 03b7 00       		.byte	0
 11019 03b8 31       		.uleb128 0x31
 11020 03b9 13       		.uleb128 0x13
 11021 03ba 00       		.byte	0
 11022 03bb 00       		.byte	0
 11023 03bc 4A       		.uleb128 0x4a
 11024 03bd 898201   		.uleb128 0x4109
 11025 03c0 01       		.byte	0x1
 11026 03c1 11       		.uleb128 0x11
 11027 03c2 01       		.uleb128 0x1
 11028 03c3 01       		.uleb128 0x1
 11029 03c4 13       		.uleb128 0x13
ARM GAS  C:\Users\VIDEOH~1\AppData\Local\Temp\ccpdN5tN.s 			page 222


 11030 03c5 00       		.byte	0
 11031 03c6 00       		.byte	0
 11032 03c7 4B       		.uleb128 0x4b
 11033 03c8 898201   		.uleb128 0x4109
 11034 03cb 01       		.byte	0x1
 11035 03cc 11       		.uleb128 0x11
 11036 03cd 01       		.uleb128 0x1
 11037 03ce 9342     		.uleb128 0x2113
 11038 03d0 18       		.uleb128 0x18
 11039 03d1 01       		.uleb128 0x1
 11040 03d2 13       		.uleb128 0x13
 11041 03d3 00       		.byte	0
 11042 03d4 00       		.byte	0
 11043 03d5 4C       		.uleb128 0x4c
 11044 03d6 2E       		.uleb128 0x2e
 11045 03d7 01       		.byte	0x1
 11046 03d8 03       		.uleb128 0x3
 11047 03d9 0E       		.uleb128 0xe
 11048 03da 3A       		.uleb128 0x3a
 11049 03db 0B       		.uleb128 0xb
 11050 03dc 3B       		.uleb128 0x3b
 11051 03dd 05       		.uleb128 0x5
 11052 03de 11       		.uleb128 0x11
 11053 03df 01       		.uleb128 0x1
 11054 03e0 12       		.uleb128 0x12
 11055 03e1 06       		.uleb128 0x6
 11056 03e2 40       		.uleb128 0x40
 11057 03e3 18       		.uleb128 0x18
 11058 03e4 9642     		.uleb128 0x2116
 11059 03e6 19       		.uleb128 0x19
 11060 03e7 01       		.uleb128 0x1
 11061 03e8 13       		.uleb128 0x13
 11062 03e9 00       		.byte	0
 11063 03ea 00       		.byte	0
 11064 03eb 4D       		.uleb128 0x4d
 11065 03ec 2E       		.uleb128 0x2e
 11066 03ed 01       		.byte	0x1
 11067 03ee 3F       		.uleb128 0x3f
 11068 03ef 19       		.uleb128 0x19
 11069 03f0 03       		.uleb128 0x3
 11070 03f1 0E       		.uleb128 0xe
 11071 03f2 3A       		.uleb128 0x3a
 11072 03f3 0B       		.uleb128 0xb
 11073 03f4 3B       		.uleb128 0x3b
 11074 03f5 0B       		.uleb128 0xb
 11075 03f6 27       		.uleb128 0x27
 11076 03f7 19       		.uleb128 0x19
 11077 03f8 11       		.uleb128 0x11
 11078 03f9 01       		.uleb128 0x1
 11079 03fa 12       		.uleb128 0x12
 11080 03fb 06       		.uleb128 0x6
 11081 03fc 40       		.uleb128 0x40
 11082 03fd 18       		.uleb128 0x18
 11083 03fe 9742     		.uleb128 0x2117
 11084 0400 19       		.uleb128 0x19
 11085 0401 01       		.uleb128 0x1
 11086 0402 13       		.uleb128 0x13
ARM GAS  C:\Users\VIDEOH~1\AppData\Local\Temp\ccpdN5tN.s 			page 223


 11087 0403 00       		.byte	0
 11088 0404 00       		.byte	0
 11089 0405 4E       		.uleb128 0x4e
 11090 0406 34       		.uleb128 0x34
 11091 0407 00       		.byte	0
 11092 0408 03       		.uleb128 0x3
 11093 0409 0E       		.uleb128 0xe
 11094 040a 3A       		.uleb128 0x3a
 11095 040b 0B       		.uleb128 0xb
 11096 040c 3B       		.uleb128 0x3b
 11097 040d 0B       		.uleb128 0xb
 11098 040e 49       		.uleb128 0x49
 11099 040f 13       		.uleb128 0x13
 11100 0410 02       		.uleb128 0x2
 11101 0411 18       		.uleb128 0x18
 11102 0412 00       		.byte	0
 11103 0413 00       		.byte	0
 11104 0414 4F       		.uleb128 0x4f
 11105 0415 2E       		.uleb128 0x2e
 11106 0416 01       		.byte	0x1
 11107 0417 3F       		.uleb128 0x3f
 11108 0418 19       		.uleb128 0x19
 11109 0419 03       		.uleb128 0x3
 11110 041a 0E       		.uleb128 0xe
 11111 041b 3A       		.uleb128 0x3a
 11112 041c 0B       		.uleb128 0xb
 11113 041d 3B       		.uleb128 0x3b
 11114 041e 05       		.uleb128 0x5
 11115 041f 27       		.uleb128 0x27
 11116 0420 19       		.uleb128 0x19
 11117 0421 8701     		.uleb128 0x87
 11118 0423 19       		.uleb128 0x19
 11119 0424 11       		.uleb128 0x11
 11120 0425 01       		.uleb128 0x1
 11121 0426 12       		.uleb128 0x12
 11122 0427 06       		.uleb128 0x6
 11123 0428 40       		.uleb128 0x40
 11124 0429 18       		.uleb128 0x18
 11125 042a 9742     		.uleb128 0x2117
 11126 042c 19       		.uleb128 0x19
 11127 042d 01       		.uleb128 0x1
 11128 042e 13       		.uleb128 0x13
 11129 042f 00       		.byte	0
 11130 0430 00       		.byte	0
 11131 0431 50       		.uleb128 0x50
 11132 0432 898201   		.uleb128 0x4109
 11133 0435 01       		.byte	0x1
 11134 0436 11       		.uleb128 0x11
 11135 0437 01       		.uleb128 0x1
 11136 0438 00       		.byte	0
 11137 0439 00       		.byte	0
 11138 043a 51       		.uleb128 0x51
 11139 043b 34       		.uleb128 0x34
 11140 043c 00       		.byte	0
 11141 043d 03       		.uleb128 0x3
 11142 043e 0E       		.uleb128 0xe
 11143 043f 3A       		.uleb128 0x3a
ARM GAS  C:\Users\VIDEOH~1\AppData\Local\Temp\ccpdN5tN.s 			page 224


 11144 0440 0B       		.uleb128 0xb
 11145 0441 3B       		.uleb128 0x3b
 11146 0442 0B       		.uleb128 0xb
 11147 0443 49       		.uleb128 0x49
 11148 0444 13       		.uleb128 0x13
 11149 0445 3F       		.uleb128 0x3f
 11150 0446 19       		.uleb128 0x19
 11151 0447 3C       		.uleb128 0x3c
 11152 0448 19       		.uleb128 0x19
 11153 0449 00       		.byte	0
 11154 044a 00       		.byte	0
 11155 044b 52       		.uleb128 0x52
 11156 044c 34       		.uleb128 0x34
 11157 044d 00       		.byte	0
 11158 044e 03       		.uleb128 0x3
 11159 044f 0E       		.uleb128 0xe
 11160 0450 3A       		.uleb128 0x3a
 11161 0451 0B       		.uleb128 0xb
 11162 0452 3B       		.uleb128 0x3b
 11163 0453 0B       		.uleb128 0xb
 11164 0454 49       		.uleb128 0x49
 11165 0455 13       		.uleb128 0x13
 11166 0456 3F       		.uleb128 0x3f
 11167 0457 19       		.uleb128 0x19
 11168 0458 02       		.uleb128 0x2
 11169 0459 18       		.uleb128 0x18
 11170 045a 00       		.byte	0
 11171 045b 00       		.byte	0
 11172 045c 53       		.uleb128 0x53
 11173 045d 35       		.uleb128 0x35
 11174 045e 00       		.byte	0
 11175 045f 49       		.uleb128 0x49
 11176 0460 13       		.uleb128 0x13
 11177 0461 00       		.byte	0
 11178 0462 00       		.byte	0
 11179 0463 54       		.uleb128 0x54
 11180 0464 34       		.uleb128 0x34
 11181 0465 00       		.byte	0
 11182 0466 03       		.uleb128 0x3
 11183 0467 0E       		.uleb128 0xe
 11184 0468 3A       		.uleb128 0x3a
 11185 0469 0B       		.uleb128 0xb
 11186 046a 3B       		.uleb128 0x3b
 11187 046b 05       		.uleb128 0x5
 11188 046c 49       		.uleb128 0x49
 11189 046d 13       		.uleb128 0x13
 11190 046e 3F       		.uleb128 0x3f
 11191 046f 19       		.uleb128 0x19
 11192 0470 02       		.uleb128 0x2
 11193 0471 18       		.uleb128 0x18
 11194 0472 00       		.byte	0
 11195 0473 00       		.byte	0
 11196 0474 55       		.uleb128 0x55
 11197 0475 2E       		.uleb128 0x2e
 11198 0476 00       		.byte	0
 11199 0477 3F       		.uleb128 0x3f
 11200 0478 19       		.uleb128 0x19
ARM GAS  C:\Users\VIDEOH~1\AppData\Local\Temp\ccpdN5tN.s 			page 225


 11201 0479 3C       		.uleb128 0x3c
 11202 047a 19       		.uleb128 0x19
 11203 047b 6E       		.uleb128 0x6e
 11204 047c 0E       		.uleb128 0xe
 11205 047d 03       		.uleb128 0x3
 11206 047e 0E       		.uleb128 0xe
 11207 047f 3A       		.uleb128 0x3a
 11208 0480 0B       		.uleb128 0xb
 11209 0481 3B       		.uleb128 0x3b
 11210 0482 0B       		.uleb128 0xb
 11211 0483 00       		.byte	0
 11212 0484 00       		.byte	0
 11213 0485 56       		.uleb128 0x56
 11214 0486 2E       		.uleb128 0x2e
 11215 0487 00       		.byte	0
 11216 0488 3F       		.uleb128 0x3f
 11217 0489 19       		.uleb128 0x19
 11218 048a 3C       		.uleb128 0x3c
 11219 048b 19       		.uleb128 0x19
 11220 048c 6E       		.uleb128 0x6e
 11221 048d 0E       		.uleb128 0xe
 11222 048e 03       		.uleb128 0x3
 11223 048f 0E       		.uleb128 0xe
 11224 0490 3A       		.uleb128 0x3a
 11225 0491 0B       		.uleb128 0xb
 11226 0492 3B       		.uleb128 0x3b
 11227 0493 05       		.uleb128 0x5
 11228 0494 00       		.byte	0
 11229 0495 00       		.byte	0
 11230 0496 57       		.uleb128 0x57
 11231 0497 2E       		.uleb128 0x2e
 11232 0498 00       		.byte	0
 11233 0499 3F       		.uleb128 0x3f
 11234 049a 19       		.uleb128 0x19
 11235 049b 3C       		.uleb128 0x3c
 11236 049c 19       		.uleb128 0x19
 11237 049d 6E       		.uleb128 0x6e
 11238 049e 0E       		.uleb128 0xe
 11239 049f 03       		.uleb128 0x3
 11240 04a0 0E       		.uleb128 0xe
 11241 04a1 00       		.byte	0
 11242 04a2 00       		.byte	0
 11243 04a3 00       		.byte	0
 11244              		.section	.debug_loc,"",%progbits
 11245              	.Ldebug_loc0:
 11246              	.LLST0:
 11247 0000 00000000 		.4byte	.LVL0
 11248 0004 05000000 		.4byte	.LVL1-1
 11249 0008 0100     		.2byte	0x1
 11250 000a 51       		.byte	0x51
 11251 000b 05000000 		.4byte	.LVL1-1
 11252 000f 12000000 		.4byte	.LFE54
 11253 0013 0400     		.2byte	0x4
 11254 0015 F3       		.byte	0xf3
 11255 0016 01       		.uleb128 0x1
 11256 0017 51       		.byte	0x51
 11257 0018 9F       		.byte	0x9f
ARM GAS  C:\Users\VIDEOH~1\AppData\Local\Temp\ccpdN5tN.s 			page 226


 11258 0019 00000000 		.4byte	0
 11259 001d 00000000 		.4byte	0
 11260              	.LLST1:
 11261 0021 00000000 		.4byte	.LVL3
 11262 0025 0C000000 		.4byte	.LVL5
 11263 0029 0100     		.2byte	0x1
 11264 002b 50       		.byte	0x50
 11265 002c 0C000000 		.4byte	.LVL5
 11266 0030 36000000 		.4byte	.LVL10
 11267 0034 0700     		.2byte	0x7
 11268 0036 74       		.byte	0x74
 11269 0037 00       		.sleb128 0
 11270 0038 0A       		.byte	0xa
 11271 0039 E803     		.2byte	0x3e8
 11272 003b 1B       		.byte	0x1b
 11273 003c 9F       		.byte	0x9f
 11274 003d 36000000 		.4byte	.LVL10
 11275 0041 40000000 		.4byte	.LFE36
 11276 0045 0F00     		.2byte	0xf
 11277 0047 F3       		.byte	0xf3
 11278 0048 01       		.uleb128 0x1
 11279 0049 50       		.byte	0x50
 11280 004a 20       		.byte	0x20
 11281 004b 4F       		.byte	0x4f
 11282 004c 26       		.byte	0x26
 11283 004d F3       		.byte	0xf3
 11284 004e 01       		.uleb128 0x1
 11285 004f 50       		.byte	0x50
 11286 0050 1A       		.byte	0x1a
 11287 0051 0A       		.byte	0xa
 11288 0052 E803     		.2byte	0x3e8
 11289 0054 1B       		.byte	0x1b
 11290 0055 9F       		.byte	0x9f
 11291 0056 00000000 		.4byte	0
 11292 005a 00000000 		.4byte	0
 11293              	.LLST2:
 11294 005e 00000000 		.4byte	.LVL3
 11295 0062 08000000 		.4byte	.LVL4
 11296 0066 0100     		.2byte	0x1
 11297 0068 51       		.byte	0x51
 11298 0069 08000000 		.4byte	.LVL4
 11299 006d 36000000 		.4byte	.LVL12
 11300 0071 0100     		.2byte	0x1
 11301 0073 56       		.byte	0x56
 11302 0074 36000000 		.4byte	.LVL12
 11303 0078 40000000 		.4byte	.LFE36
 11304 007c 0400     		.2byte	0x4
 11305 007e F3       		.byte	0xf3
 11306 007f 01       		.uleb128 0x1
 11307 0080 51       		.byte	0x51
 11308 0081 9F       		.byte	0x9f
 11309 0082 00000000 		.4byte	0
 11310 0086 00000000 		.4byte	0
 11311              	.LLST3:
 11312 008a 00000000 		.4byte	.LVL3
 11313 008e 15000000 		.4byte	.LVL6-1
 11314 0092 0100     		.2byte	0x1
ARM GAS  C:\Users\VIDEOH~1\AppData\Local\Temp\ccpdN5tN.s 			page 227


 11315 0094 52       		.byte	0x52
 11316 0095 15000000 		.4byte	.LVL6-1
 11317 0099 36000000 		.4byte	.LVL11
 11318 009d 0100     		.2byte	0x1
 11319 009f 55       		.byte	0x55
 11320 00a0 36000000 		.4byte	.LVL11
 11321 00a4 40000000 		.4byte	.LFE36
 11322 00a8 0400     		.2byte	0x4
 11323 00aa F3       		.byte	0xf3
 11324 00ab 01       		.uleb128 0x1
 11325 00ac 52       		.byte	0x52
 11326 00ad 9F       		.byte	0x9f
 11327 00ae 00000000 		.4byte	0
 11328 00b2 00000000 		.4byte	0
 11329              	.LLST4:
 11330 00b6 0C000000 		.4byte	.LVL5
 11331 00ba 36000000 		.4byte	.LVL10
 11332 00be 0900     		.2byte	0x9
 11333 00c0 74       		.byte	0x74
 11334 00c1 00       		.sleb128 0
 11335 00c2 0C       		.byte	0xc
 11336 00c3 40420F00 		.4byte	0xf4240
 11337 00c7 1B       		.byte	0x1b
 11338 00c8 9F       		.byte	0x9f
 11339 00c9 36000000 		.4byte	.LVL10
 11340 00cd 40000000 		.4byte	.LFE36
 11341 00d1 1100     		.2byte	0x11
 11342 00d3 F3       		.byte	0xf3
 11343 00d4 01       		.uleb128 0x1
 11344 00d5 50       		.byte	0x50
 11345 00d6 20       		.byte	0x20
 11346 00d7 4F       		.byte	0x4f
 11347 00d8 26       		.byte	0x26
 11348 00d9 F3       		.byte	0xf3
 11349 00da 01       		.uleb128 0x1
 11350 00db 50       		.byte	0x50
 11351 00dc 1A       		.byte	0x1a
 11352 00dd 0C       		.byte	0xc
 11353 00de 40420F00 		.4byte	0xf4240
 11354 00e2 1B       		.byte	0x1b
 11355 00e3 9F       		.byte	0x9f
 11356 00e4 00000000 		.4byte	0
 11357 00e8 00000000 		.4byte	0
 11358              	.LLST5:
 11359 00ec 0C000000 		.4byte	.LVL5
 11360 00f0 36000000 		.4byte	.LVL10
 11361 00f4 0F00     		.2byte	0xf
 11362 00f6 74       		.byte	0x74
 11363 00f7 00       		.sleb128 0
 11364 00f8 0A       		.byte	0xa
 11365 00f9 E803     		.2byte	0x3e8
 11366 00fb 1B       		.byte	0x1b
 11367 00fc 0A       		.byte	0xa
 11368 00fd E803     		.2byte	0x3e8
 11369 00ff 14       		.byte	0x14
 11370 0100 14       		.byte	0x14
 11371 0101 1B       		.byte	0x1b
ARM GAS  C:\Users\VIDEOH~1\AppData\Local\Temp\ccpdN5tN.s 			page 228


 11372 0102 1E       		.byte	0x1e
 11373 0103 1C       		.byte	0x1c
 11374 0104 9F       		.byte	0x9f
 11375 0105 36000000 		.4byte	.LVL10
 11376 0109 40000000 		.4byte	.LFE36
 11377 010d 1700     		.2byte	0x17
 11378 010f F3       		.byte	0xf3
 11379 0110 01       		.uleb128 0x1
 11380 0111 50       		.byte	0x50
 11381 0112 20       		.byte	0x20
 11382 0113 4F       		.byte	0x4f
 11383 0114 26       		.byte	0x26
 11384 0115 F3       		.byte	0xf3
 11385 0116 01       		.uleb128 0x1
 11386 0117 50       		.byte	0x50
 11387 0118 1A       		.byte	0x1a
 11388 0119 0A       		.byte	0xa
 11389 011a E803     		.2byte	0x3e8
 11390 011c 1B       		.byte	0x1b
 11391 011d 0A       		.byte	0xa
 11392 011e E803     		.2byte	0x3e8
 11393 0120 14       		.byte	0x14
 11394 0121 14       		.byte	0x14
 11395 0122 1B       		.byte	0x1b
 11396 0123 1E       		.byte	0x1e
 11397 0124 1C       		.byte	0x1c
 11398 0125 9F       		.byte	0x9f
 11399 0126 00000000 		.4byte	0
 11400 012a 00000000 		.4byte	0
 11401              	.LLST6:
 11402 012e 00000000 		.4byte	.LVL13
 11403 0132 1D000000 		.4byte	.LVL15-1
 11404 0136 0100     		.2byte	0x1
 11405 0138 50       		.byte	0x50
 11406 0139 1D000000 		.4byte	.LVL15-1
 11407 013d 22000000 		.4byte	.LVL17
 11408 0141 0100     		.2byte	0x1
 11409 0143 54       		.byte	0x54
 11410 0144 22000000 		.4byte	.LVL17
 11411 0148 26000000 		.4byte	.LVL19
 11412 014c 0100     		.2byte	0x1
 11413 014e 50       		.byte	0x50
 11414 014f 00000000 		.4byte	0
 11415 0153 00000000 		.4byte	0
 11416              	.LLST7:
 11417 0157 00000000 		.4byte	.LVL13
 11418 015b 10000000 		.4byte	.LVL14
 11419 015f 0100     		.2byte	0x1
 11420 0161 51       		.byte	0x51
 11421 0162 10000000 		.4byte	.LVL14
 11422 0166 24000000 		.4byte	.LVL18
 11423 016a 0200     		.2byte	0x2
 11424 016c 91       		.byte	0x91
 11425 016d 64       		.sleb128 -28
 11426 016e 24000000 		.4byte	.LVL18
 11427 0172 26000000 		.4byte	.LVL19
 11428 0176 0100     		.2byte	0x1
ARM GAS  C:\Users\VIDEOH~1\AppData\Local\Temp\ccpdN5tN.s 			page 229


 11429 0178 51       		.byte	0x51
 11430 0179 26000000 		.4byte	.LVL19
 11431 017d 9C000000 		.4byte	.LFE35
 11432 0181 0200     		.2byte	0x2
 11433 0183 91       		.byte	0x91
 11434 0184 64       		.sleb128 -28
 11435 0185 00000000 		.4byte	0
 11436 0189 00000000 		.4byte	0
 11437              	.LLST8:
 11438 018d 00000000 		.4byte	.LVL13
 11439 0191 10000000 		.4byte	.LVL14
 11440 0195 0100     		.2byte	0x1
 11441 0197 52       		.byte	0x52
 11442 0198 10000000 		.4byte	.LVL14
 11443 019c 24000000 		.4byte	.LVL18
 11444 01a0 0100     		.2byte	0x1
 11445 01a2 55       		.byte	0x55
 11446 01a3 24000000 		.4byte	.LVL18
 11447 01a7 26000000 		.4byte	.LVL19
 11448 01ab 0100     		.2byte	0x1
 11449 01ad 52       		.byte	0x52
 11450 01ae 26000000 		.4byte	.LVL19
 11451 01b2 86000000 		.4byte	.LVL35
 11452 01b6 0100     		.2byte	0x1
 11453 01b8 55       		.byte	0x55
 11454 01b9 86000000 		.4byte	.LVL35
 11455 01bd 9C000000 		.4byte	.LFE35
 11456 01c1 0400     		.2byte	0x4
 11457 01c3 F3       		.byte	0xf3
 11458 01c4 01       		.uleb128 0x1
 11459 01c5 52       		.byte	0x52
 11460 01c6 9F       		.byte	0x9f
 11461 01c7 00000000 		.4byte	0
 11462 01cb 00000000 		.4byte	0
 11463              	.LLST9:
 11464 01cf 10000000 		.4byte	.LVL14
 11465 01d3 20000000 		.4byte	.LVL16
 11466 01d7 0100     		.2byte	0x1
 11467 01d9 57       		.byte	0x57
 11468 01da 20000000 		.4byte	.LVL16
 11469 01de 22000000 		.4byte	.LVL17
 11470 01e2 0300     		.2byte	0x3
 11471 01e4 77       		.byte	0x77
 11472 01e5 7F       		.sleb128 -1
 11473 01e6 9F       		.byte	0x9f
 11474 01e7 22000000 		.4byte	.LVL17
 11475 01eb 24000000 		.4byte	.LVL18
 11476 01ef 0100     		.2byte	0x1
 11477 01f1 57       		.byte	0x57
 11478 01f2 00000000 		.4byte	0
 11479 01f6 00000000 		.4byte	0
 11480              	.LLST10:
 11481 01fa 34000000 		.4byte	.LVL21
 11482 01fe 38000000 		.4byte	.LVL22
 11483 0202 0100     		.2byte	0x1
 11484 0204 50       		.byte	0x50
 11485 0205 38000000 		.4byte	.LVL22
ARM GAS  C:\Users\VIDEOH~1\AppData\Local\Temp\ccpdN5tN.s 			page 230


 11486 0209 60000000 		.4byte	.LVL28
 11487 020d 0100     		.2byte	0x1
 11488 020f 56       		.byte	0x56
 11489 0210 60000000 		.4byte	.LVL28
 11490 0214 65000000 		.4byte	.LVL29-1
 11491 0218 0100     		.2byte	0x1
 11492 021a 52       		.byte	0x52
 11493 021b 65000000 		.4byte	.LVL29-1
 11494 021f 86000000 		.4byte	.LVL36
 11495 0223 0100     		.2byte	0x1
 11496 0225 56       		.byte	0x56
 11497 0226 00000000 		.4byte	0
 11498 022a 00000000 		.4byte	0
 11499              	.LLST11:
 11500 022e 3E000000 		.4byte	.LVL24
 11501 0232 47000000 		.4byte	.LVL25-1
 11502 0236 0100     		.2byte	0x1
 11503 0238 50       		.byte	0x50
 11504 0239 50000000 		.4byte	.LVL26
 11505 023d 59000000 		.4byte	.LVL27-1
 11506 0241 0100     		.2byte	0x1
 11507 0243 50       		.byte	0x50
 11508 0244 68000000 		.4byte	.LVL30
 11509 0248 6E000000 		.4byte	.LVL31
 11510 024c 0100     		.2byte	0x1
 11511 024e 50       		.byte	0x50
 11512 024f 00000000 		.4byte	0
 11513 0253 00000000 		.4byte	0
 11514              	.LLST12:
 11515 0257 00000000 		.4byte	.LVL37
 11516 025b 07000000 		.4byte	.LVL38-1
 11517 025f 0100     		.2byte	0x1
 11518 0261 50       		.byte	0x50
 11519 0262 07000000 		.4byte	.LVL38-1
 11520 0266 10000000 		.4byte	.LVL40
 11521 026a 0100     		.2byte	0x1
 11522 026c 54       		.byte	0x54
 11523 026d 10000000 		.4byte	.LVL40
 11524 0271 18000000 		.4byte	.LFE43
 11525 0275 0400     		.2byte	0x4
 11526 0277 F3       		.byte	0xf3
 11527 0278 01       		.uleb128 0x1
 11528 0279 50       		.byte	0x50
 11529 027a 9F       		.byte	0x9f
 11530 027b 00000000 		.4byte	0
 11531 027f 00000000 		.4byte	0
 11532              	.LLST13:
 11533 0283 00000000 		.4byte	.LVL41
 11534 0287 07000000 		.4byte	.LVL42-1
 11535 028b 0100     		.2byte	0x1
 11536 028d 51       		.byte	0x51
 11537 028e 07000000 		.4byte	.LVL42-1
 11538 0292 58000000 		.4byte	.LFE68
 11539 0296 0400     		.2byte	0x4
 11540 0298 F3       		.byte	0xf3
 11541 0299 01       		.uleb128 0x1
 11542 029a 51       		.byte	0x51
ARM GAS  C:\Users\VIDEOH~1\AppData\Local\Temp\ccpdN5tN.s 			page 231


 11543 029b 9F       		.byte	0x9f
 11544 029c 00000000 		.4byte	0
 11545 02a0 00000000 		.4byte	0
 11546              	.LLST14:
 11547 02a4 00000000 		.4byte	.LVL49
 11548 02a8 07000000 		.4byte	.LVL50-1
 11549 02ac 0100     		.2byte	0x1
 11550 02ae 50       		.byte	0x50
 11551 02af 07000000 		.4byte	.LVL50-1
 11552 02b3 74000000 		.4byte	.LVL58
 11553 02b7 0100     		.2byte	0x1
 11554 02b9 54       		.byte	0x54
 11555 02ba 74000000 		.4byte	.LVL58
 11556 02be 84000000 		.4byte	.LFE38
 11557 02c2 0400     		.2byte	0x4
 11558 02c4 F3       		.byte	0xf3
 11559 02c5 01       		.uleb128 0x1
 11560 02c6 50       		.byte	0x50
 11561 02c7 9F       		.byte	0x9f
 11562 02c8 00000000 		.4byte	0
 11563 02cc 00000000 		.4byte	0
 11564              	.LLST15:
 11565 02d0 0C000000 		.4byte	.LVL51
 11566 02d4 30000000 		.4byte	.LVL52
 11567 02d8 0100     		.2byte	0x1
 11568 02da 50       		.byte	0x50
 11569 02db 30000000 		.4byte	.LVL52
 11570 02df 34000000 		.4byte	.LVL53
 11571 02e3 0100     		.2byte	0x1
 11572 02e5 55       		.byte	0x55
 11573 02e6 34000000 		.4byte	.LVL53
 11574 02ea 36000000 		.4byte	.LVL54
 11575 02ee 0100     		.2byte	0x1
 11576 02f0 50       		.byte	0x50
 11577 02f1 36000000 		.4byte	.LVL54
 11578 02f5 74000000 		.4byte	.LVL59
 11579 02f9 0100     		.2byte	0x1
 11580 02fb 55       		.byte	0x55
 11581 02fc 00000000 		.4byte	0
 11582 0300 00000000 		.4byte	0
 11583              	.LLST16:
 11584 0304 00000000 		.4byte	.LVL60
 11585 0308 09000000 		.4byte	.LVL61-1
 11586 030c 0100     		.2byte	0x1
 11587 030e 51       		.byte	0x51
 11588 030f 09000000 		.4byte	.LVL61-1
 11589 0313 34010000 		.4byte	.LFE57
 11590 0317 0400     		.2byte	0x4
 11591 0319 F3       		.byte	0xf3
 11592 031a 01       		.uleb128 0x1
 11593 031b 51       		.byte	0x51
 11594 031c 9F       		.byte	0x9f
 11595 031d 00000000 		.4byte	0
 11596 0321 00000000 		.4byte	0
 11597              	.LLST17:
 11598 0325 24000000 		.4byte	.LVL63
 11599 0329 AA000000 		.4byte	.LVL74
ARM GAS  C:\Users\VIDEOH~1\AppData\Local\Temp\ccpdN5tN.s 			page 232


 11600 032d 0100     		.2byte	0x1
 11601 032f 56       		.byte	0x56
 11602 0330 00000000 		.4byte	0
 11603 0334 00000000 		.4byte	0
 11604              	.LLST18:
 11605 0338 2E000000 		.4byte	.LVL65
 11606 033c EE000000 		.4byte	.LVL80
 11607 0340 0100     		.2byte	0x1
 11608 0342 54       		.byte	0x54
 11609 0343 F6000000 		.4byte	.LVL81
 11610 0347 14010000 		.4byte	.LVL82
 11611 034b 0100     		.2byte	0x1
 11612 034d 54       		.byte	0x54
 11613 034e 00000000 		.4byte	0
 11614 0352 00000000 		.4byte	0
 11615              	.LLST19:
 11616 0356 00000000 		.4byte	.LVL84
 11617 035a 04000000 		.4byte	.LVL85
 11618 035e 0100     		.2byte	0x1
 11619 0360 50       		.byte	0x50
 11620 0361 04000000 		.4byte	.LVL85
 11621 0365 1A000000 		.4byte	.LFE65
 11622 0369 0400     		.2byte	0x4
 11623 036b F3       		.byte	0xf3
 11624 036c 01       		.uleb128 0x1
 11625 036d 50       		.byte	0x50
 11626 036e 9F       		.byte	0x9f
 11627 036f 00000000 		.4byte	0
 11628 0373 00000000 		.4byte	0
 11629              	.LLST20:
 11630 0377 00000000 		.4byte	.LVL84
 11631 037b 07000000 		.4byte	.LVL86-1
 11632 037f 0100     		.2byte	0x1
 11633 0381 51       		.byte	0x51
 11634 0382 07000000 		.4byte	.LVL86-1
 11635 0386 1A000000 		.4byte	.LFE65
 11636 038a 0400     		.2byte	0x4
 11637 038c F3       		.byte	0xf3
 11638 038d 01       		.uleb128 0x1
 11639 038e 51       		.byte	0x51
 11640 038f 9F       		.byte	0x9f
 11641 0390 00000000 		.4byte	0
 11642 0394 00000000 		.4byte	0
 11643              	.LLST21:
 11644 0398 00000000 		.4byte	.LVL88
 11645 039c 0B000000 		.4byte	.LVL90-1
 11646 03a0 0100     		.2byte	0x1
 11647 03a2 51       		.byte	0x51
 11648 03a3 0B000000 		.4byte	.LVL90-1
 11649 03a7 20030000 		.4byte	.LFE67
 11650 03ab 0400     		.2byte	0x4
 11651 03ad F3       		.byte	0xf3
 11652 03ae 01       		.uleb128 0x1
 11653 03af 51       		.byte	0x51
 11654 03b0 9F       		.byte	0x9f
 11655 03b1 00000000 		.4byte	0
 11656 03b5 00000000 		.4byte	0
ARM GAS  C:\Users\VIDEOH~1\AppData\Local\Temp\ccpdN5tN.s 			page 233


 11657              	.LLST22:
 11658 03b9 40000000 		.4byte	.LVL94
 11659 03bd 92000000 		.4byte	.LVL101
 11660 03c1 0400     		.2byte	0x4
 11661 03c3 91       		.byte	0x91
 11662 03c4 B07F     		.sleb128 -80
 11663 03c6 9F       		.byte	0x9f
 11664 03c7 92000000 		.4byte	.LVL101
 11665 03cb 95000000 		.4byte	.LVL102-1
 11666 03cf 0100     		.2byte	0x1
 11667 03d1 50       		.byte	0x50
 11668 03d2 95000000 		.4byte	.LVL102-1
 11669 03d6 96000000 		.4byte	.LVL102
 11670 03da 0400     		.2byte	0x4
 11671 03dc 91       		.byte	0x91
 11672 03dd B07F     		.sleb128 -80
 11673 03df 9F       		.byte	0x9f
 11674 03e0 00000000 		.4byte	0
 11675 03e4 00000000 		.4byte	0
 11676              	.LLST23:
 11677 03e8 96000000 		.4byte	.LVL102
 11678 03ec 0A010000 		.4byte	.LVL112
 11679 03f0 0400     		.2byte	0x4
 11680 03f2 91       		.byte	0x91
 11681 03f3 B07F     		.sleb128 -80
 11682 03f5 9F       		.byte	0x9f
 11683 03f6 00000000 		.4byte	0
 11684 03fa 00000000 		.4byte	0
 11685              	.LLST24:
 11686 03fe CA000000 		.4byte	.LVL107
 11687 0402 D0000000 		.4byte	.LVL108
 11688 0406 0F00     		.2byte	0xf
 11689 0408 70       		.byte	0x70
 11690 0409 00       		.sleb128 0
 11691 040a 40       		.byte	0x40
 11692 040b 24       		.byte	0x24
 11693 040c 40       		.byte	0x40
 11694 040d 26       		.byte	0x26
 11695 040e 91       		.byte	0x91
 11696 040f 5C       		.sleb128 -36
 11697 0410 06       		.byte	0x6
 11698 0411 1C       		.byte	0x1c
 11699 0412 91       		.byte	0x91
 11700 0413 60       		.sleb128 -32
 11701 0414 06       		.byte	0x6
 11702 0415 1E       		.byte	0x1e
 11703 0416 9F       		.byte	0x9f
 11704 0417 00000000 		.4byte	0
 11705 041b 00000000 		.4byte	0
 11706              	.LLST25:
 11707 041f 0A010000 		.4byte	.LVL112
 11708 0423 A6010000 		.4byte	.LVL125
 11709 0427 0400     		.2byte	0x4
 11710 0429 91       		.byte	0x91
 11711 042a B07F     		.sleb128 -80
 11712 042c 9F       		.byte	0x9f
 11713 042d 00000000 		.4byte	0
ARM GAS  C:\Users\VIDEOH~1\AppData\Local\Temp\ccpdN5tN.s 			page 234


 11714 0431 00000000 		.4byte	0
 11715              	.LLST26:
 11716 0435 66010000 		.4byte	.LVL120
 11717 0439 6C010000 		.4byte	.LVL121
 11718 043d 0F00     		.2byte	0xf
 11719 043f 70       		.byte	0x70
 11720 0440 00       		.sleb128 0
 11721 0441 40       		.byte	0x40
 11722 0442 24       		.byte	0x24
 11723 0443 40       		.byte	0x40
 11724 0444 26       		.byte	0x26
 11725 0445 91       		.byte	0x91
 11726 0446 54       		.sleb128 -44
 11727 0447 06       		.byte	0x6
 11728 0448 1C       		.byte	0x1c
 11729 0449 91       		.byte	0x91
 11730 044a 58       		.sleb128 -40
 11731 044b 06       		.byte	0x6
 11732 044c 1E       		.byte	0x1e
 11733 044d 9F       		.byte	0x9f
 11734 044e 00000000 		.4byte	0
 11735 0452 00000000 		.4byte	0
 11736              	.LLST27:
 11737 0456 A6010000 		.4byte	.LVL125
 11738 045a 64020000 		.4byte	.LVL141
 11739 045e 0400     		.2byte	0x4
 11740 0460 91       		.byte	0x91
 11741 0461 B07F     		.sleb128 -80
 11742 0463 9F       		.byte	0x9f
 11743 0464 00000000 		.4byte	0
 11744 0468 00000000 		.4byte	0
 11745              	.LLST28:
 11746 046c 04020000 		.4byte	.LVL134
 11747 0470 1A020000 		.4byte	.LVL137
 11748 0474 0100     		.2byte	0x1
 11749 0476 55       		.byte	0x55
 11750 0477 00000000 		.4byte	0
 11751 047b 00000000 		.4byte	0
 11752              	.LLST29:
 11753 047f 18020000 		.4byte	.LVL136
 11754 0483 1A020000 		.4byte	.LVL137
 11755 0487 0E00     		.2byte	0xe
 11756 0489 75       		.byte	0x75
 11757 048a 00       		.sleb128 0
 11758 048b 0A       		.byte	0xa
 11759 048c 0004     		.2byte	0x400
 11760 048e 1B       		.byte	0x1b
 11761 048f 91       		.byte	0x91
 11762 0490 64       		.sleb128 -28
 11763 0491 06       		.byte	0x6
 11764 0492 1E       		.byte	0x1e
 11765 0493 73       		.byte	0x73
 11766 0494 00       		.sleb128 0
 11767 0495 22       		.byte	0x22
 11768 0496 9F       		.byte	0x9f
 11769 0497 00000000 		.4byte	0
 11770 049b 00000000 		.4byte	0
ARM GAS  C:\Users\VIDEOH~1\AppData\Local\Temp\ccpdN5tN.s 			page 235


 11771              	.LLST30:
 11772 049f 64020000 		.4byte	.LVL141
 11773 04a3 AC020000 		.4byte	.LVL147
 11774 04a7 0400     		.2byte	0x4
 11775 04a9 91       		.byte	0x91
 11776 04aa B07F     		.sleb128 -80
 11777 04ac 9F       		.byte	0x9f
 11778 04ad AC020000 		.4byte	.LVL147
 11779 04b1 B1020000 		.4byte	.LVL148-1
 11780 04b5 0100     		.2byte	0x1
 11781 04b7 50       		.byte	0x50
 11782 04b8 B1020000 		.4byte	.LVL148-1
 11783 04bc B4020000 		.4byte	.LVL149
 11784 04c0 0400     		.2byte	0x4
 11785 04c2 91       		.byte	0x91
 11786 04c3 B07F     		.sleb128 -80
 11787 04c5 9F       		.byte	0x9f
 11788 04c6 B4020000 		.4byte	.LVL149
 11789 04ca B9020000 		.4byte	.LVL150-1
 11790 04ce 0100     		.2byte	0x1
 11791 04d0 50       		.byte	0x50
 11792 04d1 B9020000 		.4byte	.LVL150-1
 11793 04d5 BA020000 		.4byte	.LVL150
 11794 04d9 0400     		.2byte	0x4
 11795 04db 91       		.byte	0x91
 11796 04dc B07F     		.sleb128 -80
 11797 04de 9F       		.byte	0x9f
 11798 04df 00000000 		.4byte	0
 11799 04e3 00000000 		.4byte	0
 11800              	.LLST31:
 11801 04e7 00000000 		.4byte	.LVL154
 11802 04eb 08000000 		.4byte	.LVL155
 11803 04ef 0100     		.2byte	0x1
 11804 04f1 51       		.byte	0x51
 11805 04f2 08000000 		.4byte	.LVL155
 11806 04f6 7A000000 		.4byte	.LVL165
 11807 04fa 0100     		.2byte	0x1
 11808 04fc 56       		.byte	0x56
 11809 04fd 7A000000 		.4byte	.LVL165
 11810 0501 88000000 		.4byte	.LFE58
 11811 0505 0400     		.2byte	0x4
 11812 0507 F3       		.byte	0xf3
 11813 0508 01       		.uleb128 0x1
 11814 0509 51       		.byte	0x51
 11815 050a 9F       		.byte	0x9f
 11816 050b 00000000 		.4byte	0
 11817 050f 00000000 		.4byte	0
 11818              	.LLST32:
 11819 0513 00000000 		.4byte	.LVL166
 11820 0517 0B000000 		.4byte	.LVL167-1
 11821 051b 0100     		.2byte	0x1
 11822 051d 51       		.byte	0x51
 11823 051e 0B000000 		.4byte	.LVL167-1
 11824 0522 F8000000 		.4byte	.LFE55
 11825 0526 0400     		.2byte	0x4
 11826 0528 F3       		.byte	0xf3
 11827 0529 01       		.uleb128 0x1
ARM GAS  C:\Users\VIDEOH~1\AppData\Local\Temp\ccpdN5tN.s 			page 236


 11828 052a 51       		.byte	0x51
 11829 052b 9F       		.byte	0x9f
 11830 052c 00000000 		.4byte	0
 11831 0530 00000000 		.4byte	0
 11832              	.LLST33:
 11833 0534 50000000 		.4byte	.LVL173
 11834 0538 A2000000 		.4byte	.LVL178
 11835 053c 0100     		.2byte	0x1
 11836 053e 54       		.byte	0x54
 11837 053f A4000000 		.4byte	.LVL179
 11838 0543 DA000000 		.4byte	.LVL183
 11839 0547 0100     		.2byte	0x1
 11840 0549 54       		.byte	0x54
 11841 054a 00000000 		.4byte	0
 11842 054e 00000000 		.4byte	0
 11843              	.LLST34:
 11844 0552 00000000 		.4byte	.LVL185
 11845 0556 0B000000 		.4byte	.LVL188-1
 11846 055a 0100     		.2byte	0x1
 11847 055c 51       		.byte	0x51
 11848 055d 0B000000 		.4byte	.LVL188-1
 11849 0561 3E010000 		.4byte	.LVL215
 11850 0565 0200     		.2byte	0x2
 11851 0567 91       		.byte	0x91
 11852 0568 48       		.sleb128 -56
 11853 0569 3E010000 		.4byte	.LVL215
 11854 056d 50010000 		.4byte	.LVL216
 11855 0571 0400     		.2byte	0x4
 11856 0573 F3       		.byte	0xf3
 11857 0574 01       		.uleb128 0x1
 11858 0575 51       		.byte	0x51
 11859 0576 9F       		.byte	0x9f
 11860 0577 50010000 		.4byte	.LVL216
 11861 057b 9A010000 		.4byte	.LVL221
 11862 057f 0200     		.2byte	0x2
 11863 0581 91       		.byte	0x91
 11864 0582 48       		.sleb128 -56
 11865 0583 9A010000 		.4byte	.LVL221
 11866 0587 B0010000 		.4byte	.LFE59
 11867 058b 0400     		.2byte	0x4
 11868 058d F3       		.byte	0xf3
 11869 058e 01       		.uleb128 0x1
 11870 058f 51       		.byte	0x51
 11871 0590 9F       		.byte	0x9f
 11872 0591 00000000 		.4byte	0
 11873 0595 00000000 		.4byte	0
 11874              	.LLST35:
 11875 0599 04000000 		.4byte	.LVL186
 11876 059d 08000000 		.4byte	.LVL187
 11877 05a1 0200     		.2byte	0x2
 11878 05a3 91       		.byte	0x91
 11879 05a4 48       		.sleb128 -56
 11880 05a5 00000000 		.4byte	0
 11881 05a9 00000000 		.4byte	0
 11882              	.LLST36:
 11883 05ad 0C000000 		.4byte	.LVL188
 11884 05b1 14000000 		.4byte	.LVL189
ARM GAS  C:\Users\VIDEOH~1\AppData\Local\Temp\ccpdN5tN.s 			page 237


 11885 05b5 0200     		.2byte	0x2
 11886 05b7 30       		.byte	0x30
 11887 05b8 9F       		.byte	0x9f
 11888 05b9 14000000 		.4byte	.LVL189
 11889 05bd 6A010000 		.4byte	.LVL217
 11890 05c1 0100     		.2byte	0x1
 11891 05c3 57       		.byte	0x57
 11892 05c4 6C010000 		.4byte	.LVL218
 11893 05c8 9E010000 		.4byte	.LVL222
 11894 05cc 0100     		.2byte	0x1
 11895 05ce 57       		.byte	0x57
 11896 05cf 00000000 		.4byte	0
 11897 05d3 00000000 		.4byte	0
 11898              	.LLST37:
 11899 05d7 1E000000 		.4byte	.LVL190
 11900 05db AC000000 		.4byte	.LVL203
 11901 05df 0100     		.2byte	0x1
 11902 05e1 57       		.byte	0x57
 11903 05e2 AC000000 		.4byte	.LVL203
 11904 05e6 AE000000 		.4byte	.LVL204
 11905 05ea 0100     		.2byte	0x1
 11906 05ec 51       		.byte	0x51
 11907 05ed AE000000 		.4byte	.LVL204
 11908 05f1 26010000 		.4byte	.LVL213
 11909 05f5 0200     		.2byte	0x2
 11910 05f7 91       		.byte	0x91
 11911 05f8 54       		.sleb128 -44
 11912 05f9 00000000 		.4byte	0
 11913 05fd 00000000 		.4byte	0
 11914              	.LLST38:
 11915 0601 1E000000 		.4byte	.LVL190
 11916 0605 74000000 		.4byte	.LVL196
 11917 0609 0200     		.2byte	0x2
 11918 060b 91       		.byte	0x91
 11919 060c 48       		.sleb128 -56
 11920 060d 74000000 		.4byte	.LVL196
 11921 0611 76000000 		.4byte	.LVL197
 11922 0615 0100     		.2byte	0x1
 11923 0617 53       		.byte	0x53
 11924 0618 76000000 		.4byte	.LVL197
 11925 061c 26010000 		.4byte	.LVL213
 11926 0620 0200     		.2byte	0x2
 11927 0622 91       		.byte	0x91
 11928 0623 48       		.sleb128 -56
 11929 0624 00000000 		.4byte	0
 11930 0628 00000000 		.4byte	0
 11931              	.LLST39:
 11932 062c 1E000000 		.4byte	.LVL190
 11933 0630 6C000000 		.4byte	.LVL195
 11934 0634 0200     		.2byte	0x2
 11935 0636 37       		.byte	0x37
 11936 0637 9F       		.byte	0x9f
 11937 0638 6C000000 		.4byte	.LVL195
 11938 063c 74000000 		.4byte	.LVL196
 11939 0640 0200     		.2byte	0x2
 11940 0642 35       		.byte	0x35
 11941 0643 9F       		.byte	0x9f
ARM GAS  C:\Users\VIDEOH~1\AppData\Local\Temp\ccpdN5tN.s 			page 238


 11942 0644 74000000 		.4byte	.LVL196
 11943 0648 7A000000 		.4byte	.LVL198
 11944 064c 0200     		.2byte	0x2
 11945 064e 37       		.byte	0x37
 11946 064f 9F       		.byte	0x9f
 11947 0650 7A000000 		.4byte	.LVL198
 11948 0654 84000000 		.4byte	.LVL200
 11949 0658 0100     		.2byte	0x1
 11950 065a 54       		.byte	0x54
 11951 065b 00000000 		.4byte	0
 11952 065f 00000000 		.4byte	0
 11953              	.LLST40:
 11954 0663 1E000000 		.4byte	.LVL190
 11955 0667 6C000000 		.4byte	.LVL195
 11956 066b 0200     		.2byte	0x2
 11957 066d 34       		.byte	0x34
 11958 066e 9F       		.byte	0x9f
 11959 066f 6C000000 		.4byte	.LVL195
 11960 0673 74000000 		.4byte	.LVL196
 11961 0677 0200     		.2byte	0x2
 11962 0679 33       		.byte	0x33
 11963 067a 9F       		.byte	0x9f
 11964 067b 74000000 		.4byte	.LVL196
 11965 067f 7A000000 		.4byte	.LVL198
 11966 0683 0200     		.2byte	0x2
 11967 0685 34       		.byte	0x34
 11968 0686 9F       		.byte	0x9f
 11969 0687 7A000000 		.4byte	.LVL198
 11970 068b 26010000 		.4byte	.LVL213
 11971 068f 0200     		.2byte	0x2
 11972 0691 91       		.byte	0x91
 11973 0692 4C       		.sleb128 -52
 11974 0693 00000000 		.4byte	0
 11975 0697 00000000 		.4byte	0
 11976              	.LLST41:
 11977 069b AC000000 		.4byte	.LVL203
 11978 069f 26010000 		.4byte	.LVL213
 11979 06a3 0100     		.2byte	0x1
 11980 06a5 55       		.byte	0x55
 11981 06a6 00000000 		.4byte	0
 11982 06aa 00000000 		.4byte	0
 11983              	.LLST42:
 11984 06ae 2A000000 		.4byte	.LVL191
 11985 06b2 30000000 		.4byte	.LVL192
 11986 06b6 0A00     		.2byte	0xa
 11987 06b8 08       		.byte	0x8
 11988 06b9 7F       		.byte	0x7f
 11989 06ba 70       		.byte	0x70
 11990 06bb 00       		.sleb128 0
 11991 06bc 3C       		.byte	0x3c
 11992 06bd 1E       		.byte	0x1e
 11993 06be 1C       		.byte	0x1c
 11994 06bf 31       		.byte	0x31
 11995 06c0 25       		.byte	0x25
 11996 06c1 9F       		.byte	0x9f
 11997 06c2 00000000 		.4byte	0
 11998 06c6 00000000 		.4byte	0
ARM GAS  C:\Users\VIDEOH~1\AppData\Local\Temp\ccpdN5tN.s 			page 239


 11999              	.LLST43:
 12000 06ca AC000000 		.4byte	.LVL203
 12001 06ce AE000000 		.4byte	.LVL204
 12002 06d2 0200     		.2byte	0x2
 12003 06d4 30       		.byte	0x30
 12004 06d5 9F       		.byte	0x9f
 12005 06d6 AE000000 		.4byte	.LVL204
 12006 06da 06010000 		.4byte	.LVL210
 12007 06de 0200     		.2byte	0x2
 12008 06e0 91       		.byte	0x91
 12009 06e1 50       		.sleb128 -48
 12010 06e2 06010000 		.4byte	.LVL210
 12011 06e6 0A010000 		.4byte	.LVL211
 12012 06ea 0100     		.2byte	0x1
 12013 06ec 53       		.byte	0x53
 12014 06ed 0A010000 		.4byte	.LVL211
 12015 06f1 14010000 		.4byte	.LVL212
 12016 06f5 0100     		.2byte	0x1
 12017 06f7 52       		.byte	0x52
 12018 06f8 14010000 		.4byte	.LVL212
 12019 06fc 26010000 		.4byte	.LVL213
 12020 0700 0200     		.2byte	0x2
 12021 0702 91       		.byte	0x91
 12022 0703 50       		.sleb128 -48
 12023 0704 00000000 		.4byte	0
 12024 0708 00000000 		.4byte	0
 12025              	.LLST44:
 12026 070c 6C010000 		.4byte	.LVL218
 12027 0710 84010000 		.4byte	.LVL220
 12028 0714 0200     		.2byte	0x2
 12029 0716 30       		.byte	0x30
 12030 0717 9F       		.byte	0x9f
 12031 0718 00000000 		.4byte	0
 12032 071c 00000000 		.4byte	0
 12033              	.LLST45:
 12034 0720 00000000 		.4byte	.LVL223
 12035 0724 10000000 		.4byte	.LVL226
 12036 0728 0100     		.2byte	0x1
 12037 072a 51       		.byte	0x51
 12038 072b 10000000 		.4byte	.LVL226
 12039 072f 3A000000 		.4byte	.LVL234
 12040 0733 0100     		.2byte	0x1
 12041 0735 57       		.byte	0x57
 12042 0736 3A000000 		.4byte	.LVL234
 12043 073a 68000000 		.4byte	.LFE51
 12044 073e 0400     		.2byte	0x4
 12045 0740 F3       		.byte	0xf3
 12046 0741 01       		.uleb128 0x1
 12047 0742 51       		.byte	0x51
 12048 0743 9F       		.byte	0x9f
 12049 0744 00000000 		.4byte	0
 12050 0748 00000000 		.4byte	0
 12051              	.LLST46:
 12052 074c 18000000 		.4byte	.LVL228
 12053 0750 27000000 		.4byte	.LVL229-1
 12054 0754 0700     		.2byte	0x7
 12055 0756 93       		.byte	0x93
ARM GAS  C:\Users\VIDEOH~1\AppData\Local\Temp\ccpdN5tN.s 			page 240


 12056 0757 04       		.uleb128 0x4
 12057 0758 53       		.byte	0x53
 12058 0759 93       		.byte	0x93
 12059 075a 04       		.uleb128 0x4
 12060 075b 93       		.byte	0x93
 12061 075c 04       		.uleb128 0x4
 12062 075d 27000000 		.4byte	.LVL229-1
 12063 0761 34000000 		.4byte	.LVL232
 12064 0765 0800     		.2byte	0x8
 12065 0767 93       		.byte	0x93
 12066 0768 04       		.uleb128 0x4
 12067 0769 91       		.byte	0x91
 12068 076a 54       		.sleb128 -44
 12069 076b 93       		.byte	0x93
 12070 076c 04       		.uleb128 0x4
 12071 076d 93       		.byte	0x93
 12072 076e 04       		.uleb128 0x4
 12073 076f 36000000 		.4byte	.LVL233
 12074 0773 56000000 		.4byte	.LVL237
 12075 0777 0800     		.2byte	0x8
 12076 0779 93       		.byte	0x93
 12077 077a 04       		.uleb128 0x4
 12078 077b 91       		.byte	0x91
 12079 077c 54       		.sleb128 -44
 12080 077d 93       		.byte	0x93
 12081 077e 04       		.uleb128 0x4
 12082 077f 93       		.byte	0x93
 12083 0780 04       		.uleb128 0x4
 12084 0781 00000000 		.4byte	0
 12085 0785 00000000 		.4byte	0
 12086              	.LLST47:
 12087 0789 2A000000 		.4byte	.LVL230
 12088 078d 2E000000 		.4byte	.LVL231
 12089 0791 0700     		.2byte	0x7
 12090 0793 93       		.byte	0x93
 12091 0794 04       		.uleb128 0x4
 12092 0795 53       		.byte	0x53
 12093 0796 93       		.byte	0x93
 12094 0797 04       		.uleb128 0x4
 12095 0798 93       		.byte	0x93
 12096 0799 04       		.uleb128 0x4
 12097 079a 36000000 		.4byte	.LVL233
 12098 079e 48000000 		.4byte	.LVL235
 12099 07a2 0700     		.2byte	0x7
 12100 07a4 93       		.byte	0x93
 12101 07a5 04       		.uleb128 0x4
 12102 07a6 53       		.byte	0x53
 12103 07a7 93       		.byte	0x93
 12104 07a8 04       		.uleb128 0x4
 12105 07a9 93       		.byte	0x93
 12106 07aa 04       		.uleb128 0x4
 12107 07ab 48000000 		.4byte	.LVL235
 12108 07af 56000000 		.4byte	.LVL237
 12109 07b3 0800     		.2byte	0x8
 12110 07b5 93       		.byte	0x93
 12111 07b6 04       		.uleb128 0x4
 12112 07b7 91       		.byte	0x91
ARM GAS  C:\Users\VIDEOH~1\AppData\Local\Temp\ccpdN5tN.s 			page 241


 12113 07b8 60       		.sleb128 -32
 12114 07b9 93       		.byte	0x93
 12115 07ba 04       		.uleb128 0x4
 12116 07bb 93       		.byte	0x93
 12117 07bc 04       		.uleb128 0x4
 12118 07bd 00000000 		.4byte	0
 12119 07c1 00000000 		.4byte	0
 12120              	.LLST48:
 12121 07c5 00000000 		.4byte	.LVL239
 12122 07c9 07000000 		.4byte	.LVL240-1
 12123 07cd 0100     		.2byte	0x1
 12124 07cf 50       		.byte	0x50
 12125 07d0 07000000 		.4byte	.LVL240-1
 12126 07d4 10000000 		.4byte	.LFE40
 12127 07d8 0400     		.2byte	0x4
 12128 07da F3       		.byte	0xf3
 12129 07db 01       		.uleb128 0x1
 12130 07dc 50       		.byte	0x50
 12131 07dd 9F       		.byte	0x9f
 12132 07de 00000000 		.4byte	0
 12133 07e2 00000000 		.4byte	0
 12134              	.LLST49:
 12135 07e6 00000000 		.4byte	.LVL241
 12136 07ea 07000000 		.4byte	.LVL242-1
 12137 07ee 0100     		.2byte	0x1
 12138 07f0 50       		.byte	0x50
 12139 07f1 07000000 		.4byte	.LVL242-1
 12140 07f5 10000000 		.4byte	.LVL244
 12141 07f9 0100     		.2byte	0x1
 12142 07fb 54       		.byte	0x54
 12143 07fc 10000000 		.4byte	.LVL244
 12144 0800 18000000 		.4byte	.LFE41
 12145 0804 0400     		.2byte	0x4
 12146 0806 F3       		.byte	0xf3
 12147 0807 01       		.uleb128 0x1
 12148 0808 50       		.byte	0x50
 12149 0809 9F       		.byte	0x9f
 12150 080a 00000000 		.4byte	0
 12151 080e 00000000 		.4byte	0
 12152              	.LLST50:
 12153 0812 00000000 		.4byte	.LVL245
 12154 0816 07000000 		.4byte	.LVL246-1
 12155 081a 0100     		.2byte	0x1
 12156 081c 50       		.byte	0x50
 12157 081d 07000000 		.4byte	.LVL246-1
 12158 0821 10000000 		.4byte	.LVL248
 12159 0825 0100     		.2byte	0x1
 12160 0827 54       		.byte	0x54
 12161 0828 10000000 		.4byte	.LVL248
 12162 082c 18000000 		.4byte	.LFE42
 12163 0830 0400     		.2byte	0x4
 12164 0832 F3       		.byte	0xf3
 12165 0833 01       		.uleb128 0x1
 12166 0834 50       		.byte	0x50
 12167 0835 9F       		.byte	0x9f
 12168 0836 00000000 		.4byte	0
 12169 083a 00000000 		.4byte	0
ARM GAS  C:\Users\VIDEOH~1\AppData\Local\Temp\ccpdN5tN.s 			page 242


 12170              	.LLST51:
 12171 083e 00000000 		.4byte	.LVL249
 12172 0842 07000000 		.4byte	.LVL250-1
 12173 0846 0100     		.2byte	0x1
 12174 0848 50       		.byte	0x50
 12175 0849 07000000 		.4byte	.LVL250-1
 12176 084d 30000000 		.4byte	.LVL258
 12177 0851 0100     		.2byte	0x1
 12178 0853 54       		.byte	0x54
 12179 0854 30000000 		.4byte	.LVL258
 12180 0858 38000000 		.4byte	.LFE44
 12181 085c 0400     		.2byte	0x4
 12182 085e F3       		.byte	0xf3
 12183 085f 01       		.uleb128 0x1
 12184 0860 50       		.byte	0x50
 12185 0861 9F       		.byte	0x9f
 12186 0862 00000000 		.4byte	0
 12187 0866 00000000 		.4byte	0
 12188              	.LLST52:
 12189 086a 12000000 		.4byte	.LVL252
 12190 086e 16000000 		.4byte	.LVL253
 12191 0872 0E00     		.2byte	0xe
 12192 0874 75       		.byte	0x75
 12193 0875 00       		.sleb128 0
 12194 0876 0A       		.byte	0xa
 12195 0877 E803     		.2byte	0x3e8
 12196 0879 1B       		.byte	0x1b
 12197 087a 70       		.byte	0x70
 12198 087b 00       		.sleb128 0
 12199 087c 0A       		.byte	0xa
 12200 087d E803     		.2byte	0x3e8
 12201 087f 1B       		.byte	0x1b
 12202 0880 1E       		.byte	0x1e
 12203 0881 9F       		.byte	0x9f
 12204 0882 16000000 		.4byte	.LVL253
 12205 0886 1E000000 		.4byte	.LVL255
 12206 088a 0E00     		.2byte	0xe
 12207 088c 75       		.byte	0x75
 12208 088d 00       		.sleb128 0
 12209 088e 0A       		.byte	0xa
 12210 088f E803     		.2byte	0x3e8
 12211 0891 1B       		.byte	0x1b
 12212 0892 76       		.byte	0x76
 12213 0893 00       		.sleb128 0
 12214 0894 0A       		.byte	0xa
 12215 0895 E803     		.2byte	0x3e8
 12216 0897 1B       		.byte	0x1b
 12217 0898 1E       		.byte	0x1e
 12218 0899 9F       		.byte	0x9f
 12219 089a 00000000 		.4byte	0
 12220 089e 00000000 		.4byte	0
 12221              	.LLST53:
 12222 08a2 00000000 		.4byte	.LVL259
 12223 08a6 07000000 		.4byte	.LVL260-1
 12224 08aa 0100     		.2byte	0x1
 12225 08ac 50       		.byte	0x50
 12226 08ad 07000000 		.4byte	.LVL260-1
ARM GAS  C:\Users\VIDEOH~1\AppData\Local\Temp\ccpdN5tN.s 			page 243


 12227 08b1 38000000 		.4byte	.LVL269
 12228 08b5 0100     		.2byte	0x1
 12229 08b7 55       		.byte	0x55
 12230 08b8 38000000 		.4byte	.LVL269
 12231 08bc 48000000 		.4byte	.LFE45
 12232 08c0 0400     		.2byte	0x4
 12233 08c2 F3       		.byte	0xf3
 12234 08c3 01       		.uleb128 0x1
 12235 08c4 50       		.byte	0x50
 12236 08c5 9F       		.byte	0x9f
 12237 08c6 00000000 		.4byte	0
 12238 08ca 00000000 		.4byte	0
 12239              	.LLST54:
 12240 08ce 0A000000 		.4byte	.LVL261
 12241 08d2 0F000000 		.4byte	.LVL262-1
 12242 08d6 0100     		.2byte	0x1
 12243 08d8 50       		.byte	0x50
 12244 08d9 0F000000 		.4byte	.LVL262-1
 12245 08dd 30000000 		.4byte	.LVL266
 12246 08e1 0100     		.2byte	0x1
 12247 08e3 56       		.byte	0x56
 12248 08e4 30000000 		.4byte	.LVL266
 12249 08e8 34000000 		.4byte	.LVL267
 12250 08ec 0100     		.2byte	0x1
 12251 08ee 50       		.byte	0x50
 12252 08ef 34000000 		.4byte	.LVL267
 12253 08f3 38000000 		.4byte	.LVL270
 12254 08f7 0100     		.2byte	0x1
 12255 08f9 56       		.byte	0x56
 12256 08fa 00000000 		.4byte	0
 12257 08fe 00000000 		.4byte	0
 12258              	.LLST55:
 12259 0902 00000000 		.4byte	.LVL271
 12260 0906 07000000 		.4byte	.LVL272-1
 12261 090a 0100     		.2byte	0x1
 12262 090c 50       		.byte	0x50
 12263 090d 07000000 		.4byte	.LVL272-1
 12264 0911 10000000 		.4byte	.LVL274
 12265 0915 0100     		.2byte	0x1
 12266 0917 54       		.byte	0x54
 12267 0918 10000000 		.4byte	.LVL274
 12268 091c 18000000 		.4byte	.LFE46
 12269 0920 0400     		.2byte	0x4
 12270 0922 F3       		.byte	0xf3
 12271 0923 01       		.uleb128 0x1
 12272 0924 50       		.byte	0x50
 12273 0925 9F       		.byte	0x9f
 12274 0926 00000000 		.4byte	0
 12275 092a 00000000 		.4byte	0
 12276              	.LLST56:
 12277 092e 00000000 		.4byte	.LVL275
 12278 0932 07000000 		.4byte	.LVL276-1
 12279 0936 0100     		.2byte	0x1
 12280 0938 50       		.byte	0x50
 12281 0939 07000000 		.4byte	.LVL276-1
 12282 093d 10000000 		.4byte	.LVL278
 12283 0941 0100     		.2byte	0x1
ARM GAS  C:\Users\VIDEOH~1\AppData\Local\Temp\ccpdN5tN.s 			page 244


 12284 0943 54       		.byte	0x54
 12285 0944 10000000 		.4byte	.LVL278
 12286 0948 18000000 		.4byte	.LFE47
 12287 094c 0400     		.2byte	0x4
 12288 094e F3       		.byte	0xf3
 12289 094f 01       		.uleb128 0x1
 12290 0950 50       		.byte	0x50
 12291 0951 9F       		.byte	0x9f
 12292 0952 00000000 		.4byte	0
 12293 0956 00000000 		.4byte	0
 12294              	.LLST57:
 12295 095a 08000000 		.4byte	.LVL280
 12296 095e 0B000000 		.4byte	.LVL281-1
 12297 0962 0100     		.2byte	0x1
 12298 0964 50       		.byte	0x50
 12299 0965 0B000000 		.4byte	.LVL281-1
 12300 0969 8E000000 		.4byte	.LVL284
 12301 096d 0100     		.2byte	0x1
 12302 096f 56       		.byte	0x56
 12303 0970 00000000 		.4byte	0
 12304 0974 00000000 		.4byte	0
 12305              	.LLST58:
 12306 0978 00000000 		.4byte	.LVL285
 12307 097c 08000000 		.4byte	.LVL286
 12308 0980 0100     		.2byte	0x1
 12309 0982 50       		.byte	0x50
 12310 0983 08000000 		.4byte	.LVL286
 12311 0987 2C000000 		.4byte	.LFE71
 12312 098b 0400     		.2byte	0x4
 12313 098d F3       		.byte	0xf3
 12314 098e 01       		.uleb128 0x1
 12315 098f 50       		.byte	0x50
 12316 0990 9F       		.byte	0x9f
 12317 0991 00000000 		.4byte	0
 12318 0995 00000000 		.4byte	0
 12319              	.LLST59:
 12320 0999 00000000 		.4byte	.LVL285
 12321 099d 0A000000 		.4byte	.LVL287
 12322 09a1 0100     		.2byte	0x1
 12323 09a3 51       		.byte	0x51
 12324 09a4 0A000000 		.4byte	.LVL287
 12325 09a8 2C000000 		.4byte	.LFE71
 12326 09ac 0400     		.2byte	0x4
 12327 09ae F3       		.byte	0xf3
 12328 09af 01       		.uleb128 0x1
 12329 09b0 51       		.byte	0x51
 12330 09b1 9F       		.byte	0x9f
 12331 09b2 00000000 		.4byte	0
 12332 09b6 00000000 		.4byte	0
 12333              	.LLST60:
 12334 09ba 00000000 		.4byte	.LVL291
 12335 09be 09000000 		.4byte	.LVL292-1
 12336 09c2 0100     		.2byte	0x1
 12337 09c4 51       		.byte	0x51
 12338 09c5 09000000 		.4byte	.LVL292-1
 12339 09c9 50020000 		.4byte	.LFE60
 12340 09cd 0400     		.2byte	0x4
ARM GAS  C:\Users\VIDEOH~1\AppData\Local\Temp\ccpdN5tN.s 			page 245


 12341 09cf F3       		.byte	0xf3
 12342 09d0 01       		.uleb128 0x1
 12343 09d1 51       		.byte	0x51
 12344 09d2 9F       		.byte	0x9f
 12345 09d3 00000000 		.4byte	0
 12346 09d7 00000000 		.4byte	0
 12347              	.LLST61:
 12348 09db 58000000 		.4byte	.LVL297
 12349 09df 5B000000 		.4byte	.LVL298-1
 12350 09e3 0200     		.2byte	0x2
 12351 09e5 91       		.byte	0x91
 12352 09e6 60       		.sleb128 -32
 12353 09e7 00000000 		.4byte	0
 12354 09eb 00000000 		.4byte	0
 12355              	.LLST62:
 12356 09ef 58000000 		.4byte	.LVL297
 12357 09f3 66000000 		.4byte	.LVL301
 12358 09f7 0100     		.2byte	0x1
 12359 09f9 56       		.byte	0x56
 12360 09fa 00000000 		.4byte	0
 12361 09fe 00000000 		.4byte	0
 12362              	.LLST63:
 12363 0a02 5C000000 		.4byte	.LVL298
 12364 0a06 64000000 		.4byte	.LVL300
 12365 0a0a 0100     		.2byte	0x1
 12366 0a0c 50       		.byte	0x50
 12367 0a0d 00000000 		.4byte	0
 12368 0a11 00000000 		.4byte	0
 12369              	.LLST64:
 12370 0a15 98000000 		.4byte	.LVL305
 12371 0a19 A0000000 		.4byte	.LVL306
 12372 0a1d 1400     		.2byte	0x14
 12373 0a1f 70       		.byte	0x70
 12374 0a20 00       		.sleb128 0
 12375 0a21 03       		.byte	0x3
 12376 0a22 10000000 		.4byte	last_adjust_current_setpoint.8078
 12377 0a26 06       		.byte	0x6
 12378 0a27 1C       		.byte	0x1c
 12379 0a28 40       		.byte	0x40
 12380 0a29 4B       		.byte	0x4b
 12381 0a2a 24       		.byte	0x24
 12382 0a2b 22       		.byte	0x22
 12383 0a2c 0C       		.byte	0xc
 12384 0a2d 63000080 		.4byte	0x80000063
 12385 0a31 2C       		.byte	0x2c
 12386 0a32 9F       		.byte	0x9f
 12387 0a33 00000000 		.4byte	0
 12388 0a37 00000000 		.4byte	0
 12389              	.LLST65:
 12390 0a3b A8000000 		.4byte	.LVL307
 12391 0a3f AC000000 		.4byte	.LVL308
 12392 0a43 0B00     		.2byte	0xb
 12393 0a45 75       		.byte	0x75
 12394 0a46 00       		.sleb128 0
 12395 0a47 33       		.byte	0x33
 12396 0a48 24       		.byte	0x24
 12397 0a49 03       		.byte	0x3
ARM GAS  C:\Users\VIDEOH~1\AppData\Local\Temp\ccpdN5tN.s 			page 246


 12398 0a4a 00000000 		.4byte	readout_functions
 12399 0a4e 22       		.byte	0x22
 12400 0a4f 9F       		.byte	0x9f
 12401 0a50 00000000 		.4byte	0
 12402 0a54 00000000 		.4byte	0
 12403              	.LLST66:
 12404 0a58 12010000 		.4byte	.LVL316
 12405 0a5c 50010000 		.4byte	.LVL321
 12406 0a60 0100     		.2byte	0x1
 12407 0a62 56       		.byte	0x56
 12408 0a63 A8010000 		.4byte	.LVL329
 12409 0a67 B8010000 		.4byte	.LVL331
 12410 0a6b 0100     		.2byte	0x1
 12411 0a6d 56       		.byte	0x56
 12412 0a6e 00000000 		.4byte	0
 12413 0a72 00000000 		.4byte	0
 12414              	.LLST67:
 12415 0a76 4A010000 		.4byte	.LVL320
 12416 0a7a 76010000 		.4byte	.LVL324
 12417 0a7e 0200     		.2byte	0x2
 12418 0a80 30       		.byte	0x30
 12419 0a81 9F       		.byte	0x9f
 12420 0a82 76010000 		.4byte	.LVL324
 12421 0a86 9E010000 		.4byte	.LVL327
 12422 0a8a 0200     		.2byte	0x2
 12423 0a8c 31       		.byte	0x31
 12424 0a8d 9F       		.byte	0x9f
 12425 0a8e 9E010000 		.4byte	.LVL327
 12426 0a92 A8010000 		.4byte	.LVL329
 12427 0a96 0200     		.2byte	0x2
 12428 0a98 32       		.byte	0x32
 12429 0a99 9F       		.byte	0x9f
 12430 0a9a B8010000 		.4byte	.LVL331
 12431 0a9e 1A020000 		.4byte	.LVL346
 12432 0aa2 0200     		.2byte	0x2
 12433 0aa4 32       		.byte	0x32
 12434 0aa5 9F       		.byte	0x9f
 12435 0aa6 00000000 		.4byte	0
 12436 0aaa 00000000 		.4byte	0
 12437              	.LLST68:
 12438 0aae E0010000 		.4byte	.LVL334
 12439 0ab2 EA010000 		.4byte	.LVL336
 12440 0ab6 0200     		.2byte	0x2
 12441 0ab8 30       		.byte	0x30
 12442 0ab9 9F       		.byte	0x9f
 12443 0aba EA010000 		.4byte	.LVL336
 12444 0abe 17020000 		.4byte	.LVL345-1
 12445 0ac2 0100     		.2byte	0x1
 12446 0ac4 52       		.byte	0x52
 12447 0ac5 00000000 		.4byte	0
 12448 0ac9 00000000 		.4byte	0
 12449              	.LLST69:
 12450 0acd E0010000 		.4byte	.LVL334
 12451 0ad1 EA010000 		.4byte	.LVL336
 12452 0ad5 0300     		.2byte	0x3
 12453 0ad7 09       		.byte	0x9
 12454 0ad8 A5       		.byte	0xa5
ARM GAS  C:\Users\VIDEOH~1\AppData\Local\Temp\ccpdN5tN.s 			page 247


 12455 0ad9 9F       		.byte	0x9f
 12456 0ada EA010000 		.4byte	.LVL336
 12457 0ade FA010000 		.4byte	.LVL339
 12458 0ae2 0100     		.2byte	0x1
 12459 0ae4 53       		.byte	0x53
 12460 0ae5 FA010000 		.4byte	.LVL339
 12461 0ae9 00020000 		.4byte	.LVL340
 12462 0aed 0100     		.2byte	0x1
 12463 0aef 51       		.byte	0x51
 12464 0af0 00020000 		.4byte	.LVL340
 12465 0af4 0E020000 		.4byte	.LVL344
 12466 0af8 0100     		.2byte	0x1
 12467 0afa 53       		.byte	0x53
 12468 0afb 00000000 		.4byte	0
 12469 0aff 00000000 		.4byte	0
 12470              	.LLST70:
 12471 0b03 E0010000 		.4byte	.LVL334
 12472 0b07 EA010000 		.4byte	.LVL336
 12473 0b0b 0300     		.2byte	0x3
 12474 0b0d 08       		.byte	0x8
 12475 0b0e 52       		.byte	0x52
 12476 0b0f 9F       		.byte	0x9f
 12477 0b10 EA010000 		.4byte	.LVL336
 12478 0b14 EE010000 		.4byte	.LVL337
 12479 0b18 0100     		.2byte	0x1
 12480 0b1a 51       		.byte	0x51
 12481 0b1b F0010000 		.4byte	.LVL338
 12482 0b1f 04020000 		.4byte	.LVL342
 12483 0b23 0100     		.2byte	0x1
 12484 0b25 51       		.byte	0x51
 12485 0b26 08020000 		.4byte	.LVL343
 12486 0b2a 0E020000 		.4byte	.LVL344
 12487 0b2e 0100     		.2byte	0x1
 12488 0b30 51       		.byte	0x51
 12489 0b31 00000000 		.4byte	0
 12490 0b35 00000000 		.4byte	0
 12491              	.LLST71:
 12492 0b39 E4010000 		.4byte	.LVL335
 12493 0b3d 0E020000 		.4byte	.LVL344
 12494 0b41 0100     		.2byte	0x1
 12495 0b43 50       		.byte	0x50
 12496 0b44 00000000 		.4byte	0
 12497 0b48 00000000 		.4byte	0
 12498              	.LLST72:
 12499 0b4c 00000000 		.4byte	.LVL348
 12500 0b50 09000000 		.4byte	.LVL349-1
 12501 0b54 0100     		.2byte	0x1
 12502 0b56 51       		.byte	0x51
 12503 0b57 09000000 		.4byte	.LVL349-1
 12504 0b5b F4000000 		.4byte	.LFE56
 12505 0b5f 0400     		.2byte	0x4
 12506 0b61 F3       		.byte	0xf3
 12507 0b62 01       		.uleb128 0x1
 12508 0b63 51       		.byte	0x51
 12509 0b64 9F       		.byte	0x9f
 12510 0b65 00000000 		.4byte	0
 12511 0b69 00000000 		.4byte	0
ARM GAS  C:\Users\VIDEOH~1\AppData\Local\Temp\ccpdN5tN.s 			page 248


 12512              	.LLST73:
 12513 0b6d 3A000000 		.4byte	.LVL353
 12514 0b71 6A000000 		.4byte	.LVL359
 12515 0b75 0100     		.2byte	0x1
 12516 0b77 54       		.byte	0x54
 12517 0b78 70000000 		.4byte	.LVL360
 12518 0b7c 76000000 		.4byte	.LVL361
 12519 0b80 0100     		.2byte	0x1
 12520 0b82 54       		.byte	0x54
 12521 0b83 76000000 		.4byte	.LVL361
 12522 0b87 7C000000 		.4byte	.LVL362
 12523 0b8b 0100     		.2byte	0x1
 12524 0b8d 52       		.byte	0x52
 12525 0b8e 7C000000 		.4byte	.LVL362
 12526 0b92 7E000000 		.4byte	.LVL363
 12527 0b96 0100     		.2byte	0x1
 12528 0b98 53       		.byte	0x53
 12529 0b99 7E000000 		.4byte	.LVL363
 12530 0b9d 8C000000 		.4byte	.LVL364
 12531 0ba1 0700     		.2byte	0x7
 12532 0ba3 77       		.byte	0x77
 12533 0ba4 04       		.sleb128 4
 12534 0ba5 06       		.byte	0x6
 12535 0ba6 74       		.byte	0x74
 12536 0ba7 00       		.sleb128 0
 12537 0ba8 22       		.byte	0x22
 12538 0ba9 9F       		.byte	0x9f
 12539 0baa 8C000000 		.4byte	.LVL364
 12540 0bae 9C000000 		.4byte	.LVL365
 12541 0bb2 0100     		.2byte	0x1
 12542 0bb4 54       		.byte	0x54
 12543 0bb5 9C000000 		.4byte	.LVL365
 12544 0bb9 B5000000 		.4byte	.LVL366-1
 12545 0bbd 0200     		.2byte	0x2
 12546 0bbf 76       		.byte	0x76
 12547 0bc0 08       		.sleb128 8
 12548 0bc1 BE000000 		.4byte	.LVL367
 12549 0bc5 C8000000 		.4byte	.LVL368
 12550 0bc9 0100     		.2byte	0x1
 12551 0bcb 54       		.byte	0x54
 12552 0bcc 00000000 		.4byte	0
 12553 0bd0 00000000 		.4byte	0
 12554              	.LLST74:
 12555 0bd4 3A000000 		.4byte	.LVL353
 12556 0bd8 46000000 		.4byte	.LVL355
 12557 0bdc 0400     		.2byte	0x4
 12558 0bde 0B       		.byte	0xb
 12559 0bdf 0180     		.2byte	0x8001
 12560 0be1 9F       		.byte	0x9f
 12561 0be2 46000000 		.4byte	.LVL355
 12562 0be6 4A000000 		.4byte	.LVL356
 12563 0bea 0100     		.2byte	0x1
 12564 0bec 52       		.byte	0x52
 12565 0bed 4A000000 		.4byte	.LVL356
 12566 0bf1 6A000000 		.4byte	.LVL359
 12567 0bf5 0100     		.2byte	0x1
 12568 0bf7 54       		.byte	0x54
ARM GAS  C:\Users\VIDEOH~1\AppData\Local\Temp\ccpdN5tN.s 			page 249


 12569 0bf8 70000000 		.4byte	.LVL360
 12570 0bfc 7C000000 		.4byte	.LVL362
 12571 0c00 0100     		.2byte	0x1
 12572 0c02 54       		.byte	0x54
 12573 0c03 8C000000 		.4byte	.LVL364
 12574 0c07 9C000000 		.4byte	.LVL365
 12575 0c0b 0100     		.2byte	0x1
 12576 0c0d 54       		.byte	0x54
 12577 0c0e 9C000000 		.4byte	.LVL365
 12578 0c12 B5000000 		.4byte	.LVL366-1
 12579 0c16 0200     		.2byte	0x2
 12580 0c18 76       		.byte	0x76
 12581 0c19 08       		.sleb128 8
 12582 0c1a BE000000 		.4byte	.LVL367
 12583 0c1e C8000000 		.4byte	.LVL368
 12584 0c22 0100     		.2byte	0x1
 12585 0c24 54       		.byte	0x54
 12586 0c25 00000000 		.4byte	0
 12587 0c29 00000000 		.4byte	0
 12588              	.LLST75:
 12589 0c2d 46000000 		.4byte	.LVL380
 12590 0c31 4E000000 		.4byte	.LVL381
 12591 0c35 0500     		.2byte	0x5
 12592 0c37 70       		.byte	0x70
 12593 0c38 00       		.sleb128 0
 12594 0c39 3A       		.byte	0x3a
 12595 0c3a 1E       		.byte	0x1e
 12596 0c3b 9F       		.byte	0x9f
 12597 0c3c 4E000000 		.4byte	.LVL381
 12598 0c40 9E000000 		.4byte	.LVL394
 12599 0c44 0500     		.2byte	0x5
 12600 0c46 75       		.byte	0x75
 12601 0c47 00       		.sleb128 0
 12602 0c48 3A       		.byte	0x3a
 12603 0c49 1E       		.byte	0x1e
 12604 0c4a 9F       		.byte	0x9f
 12605 0c4b 00000000 		.4byte	0
 12606 0c4f 00000000 		.4byte	0
 12607              	.LLST76:
 12608 0c53 88000000 		.4byte	.LVL390
 12609 0c57 8A000000 		.4byte	.LVL391
 12610 0c5b 0500     		.2byte	0x5
 12611 0c5d 70       		.byte	0x70
 12612 0c5e 00       		.sleb128 0
 12613 0c5f 3A       		.byte	0x3a
 12614 0c60 1E       		.byte	0x1e
 12615 0c61 9F       		.byte	0x9f
 12616 0c62 8A000000 		.4byte	.LVL391
 12617 0c66 D4000000 		.4byte	.LVL399
 12618 0c6a 0500     		.2byte	0x5
 12619 0c6c 77       		.byte	0x77
 12620 0c6d 00       		.sleb128 0
 12621 0c6e 3A       		.byte	0x3a
 12622 0c6f 1E       		.byte	0x1e
 12623 0c70 9F       		.byte	0x9f
 12624 0c71 00000000 		.4byte	0
 12625 0c75 00000000 		.4byte	0
ARM GAS  C:\Users\VIDEOH~1\AppData\Local\Temp\ccpdN5tN.s 			page 250


 12626              	.LLST77:
 12627 0c79 8E000000 		.4byte	.LVL392
 12628 0c7d 9E000000 		.4byte	.LVL394
 12629 0c81 1200     		.2byte	0x12
 12630 0c83 75       		.byte	0x75
 12631 0c84 00       		.sleb128 0
 12632 0c85 3A       		.byte	0x3a
 12633 0c86 1E       		.byte	0x1e
 12634 0c87 77       		.byte	0x77
 12635 0c88 00       		.sleb128 0
 12636 0c89 3A       		.byte	0x3a
 12637 0c8a 1E       		.byte	0x1e
 12638 0c8b 1C       		.byte	0x1c
 12639 0c8c F7       		.byte	0xf7
 12640 0c8d 25       		.uleb128 0x25
 12641 0c8e 39       		.byte	0x39
 12642 0c8f F7       		.byte	0xf7
 12643 0c90 25       		.uleb128 0x25
 12644 0c91 1B       		.byte	0x1b
 12645 0c92 F7       		.byte	0xf7
 12646 0c93 00       		.uleb128 0
 12647 0c94 9F       		.byte	0x9f
 12648 0c95 00000000 		.4byte	0
 12649 0c99 00000000 		.4byte	0
 12650              	.LLST78:
 12651 0c9d 26000000 		.4byte	.LVL373
 12652 0ca1 3E000000 		.4byte	.LVL378
 12653 0ca5 0200     		.2byte	0x2
 12654 0ca7 3A       		.byte	0x3a
 12655 0ca8 9F       		.byte	0x9f
 12656 0ca9 00000000 		.4byte	0
 12657 0cad 00000000 		.4byte	0
 12658              	.LLST79:
 12659 0cb1 2C000000 		.4byte	.LVL374
 12660 0cb5 2E000000 		.4byte	.LVL375
 12661 0cb9 0200     		.2byte	0x2
 12662 0cbb 30       		.byte	0x30
 12663 0cbc 9F       		.byte	0x9f
 12664 0cbd 2E000000 		.4byte	.LVL375
 12665 0cc1 32000000 		.4byte	.LVL376
 12666 0cc5 0500     		.2byte	0x5
 12667 0cc7 3A       		.byte	0x3a
 12668 0cc8 74       		.byte	0x74
 12669 0cc9 00       		.sleb128 0
 12670 0cca 1C       		.byte	0x1c
 12671 0ccb 9F       		.byte	0x9f
 12672 0ccc 00000000 		.4byte	0
 12673 0cd0 00000000 		.4byte	0
 12674              	.LLST80:
 12675 0cd4 64000000 		.4byte	.LVL384
 12676 0cd8 82000000 		.4byte	.LVL388
 12677 0cdc 0200     		.2byte	0x2
 12678 0cde 33       		.byte	0x33
 12679 0cdf 9F       		.byte	0x9f
 12680 0ce0 00000000 		.4byte	0
 12681 0ce4 00000000 		.4byte	0
 12682              	.LLST81:
ARM GAS  C:\Users\VIDEOH~1\AppData\Local\Temp\ccpdN5tN.s 			page 251


 12683 0ce8 6A000000 		.4byte	.LVL385
 12684 0cec 72000000 		.4byte	.LVL386
 12685 0cf0 0200     		.2byte	0x2
 12686 0cf2 30       		.byte	0x30
 12687 0cf3 9F       		.byte	0x9f
 12688 0cf4 72000000 		.4byte	.LVL386
 12689 0cf8 7A000000 		.4byte	.LVL387
 12690 0cfc 0200     		.2byte	0x2
 12691 0cfe 31       		.byte	0x31
 12692 0cff 9F       		.byte	0x9f
 12693 0d00 7A000000 		.4byte	.LVL387
 12694 0d04 82000000 		.4byte	.LVL388
 12695 0d08 0200     		.2byte	0x2
 12696 0d0a 32       		.byte	0x32
 12697 0d0b 9F       		.byte	0x9f
 12698 0d0c 00000000 		.4byte	0
 12699 0d10 00000000 		.4byte	0
 12700              	.LLST82:
 12701 0d14 0A000000 		.4byte	.LVL401
 12702 0d18 19000000 		.4byte	.LVL402-1
 12703 0d1c 0100     		.2byte	0x1
 12704 0d1e 50       		.byte	0x50
 12705 0d1f 19000000 		.4byte	.LVL402-1
 12706 0d23 46000000 		.4byte	.LVL404
 12707 0d27 0100     		.2byte	0x1
 12708 0d29 55       		.byte	0x55
 12709 0d2a 00000000 		.4byte	0
 12710 0d2e 00000000 		.4byte	0
 12711              	.LLST83:
 12712 0d32 00000000 		.4byte	.LVL405
 12713 0d36 08000000 		.4byte	.LVL406
 12714 0d3a 0100     		.2byte	0x1
 12715 0d3c 50       		.byte	0x50
 12716 0d3d 08000000 		.4byte	.LVL406
 12717 0d41 48000000 		.4byte	.LFE69
 12718 0d45 0400     		.2byte	0x4
 12719 0d47 F3       		.byte	0xf3
 12720 0d48 01       		.uleb128 0x1
 12721 0d49 50       		.byte	0x50
 12722 0d4a 9F       		.byte	0x9f
 12723 0d4b 00000000 		.4byte	0
 12724 0d4f 00000000 		.4byte	0
 12725              	.LLST84:
 12726 0d53 16000000 		.4byte	.LVL408
 12727 0d57 1A000000 		.4byte	.LVL409
 12728 0d5b 1200     		.2byte	0x12
 12729 0d5d 03       		.byte	0x3
 12730 0d5e 00000000 		.4byte	cc_load
 12731 0d62 9F       		.byte	0x9f
 12732 0d63 93       		.byte	0x93
 12733 0d64 04       		.uleb128 0x4
 12734 0d65 30       		.byte	0x30
 12735 0d66 9F       		.byte	0x9f
 12736 0d67 93       		.byte	0x93
 12737 0d68 04       		.uleb128 0x4
 12738 0d69 31       		.byte	0x31
 12739 0d6a 9F       		.byte	0x9f
ARM GAS  C:\Users\VIDEOH~1\AppData\Local\Temp\ccpdN5tN.s 			page 252


 12740 0d6b 93       		.byte	0x93
 12741 0d6c 01       		.uleb128 0x1
 12742 0d6d 93       		.byte	0x93
 12743 0d6e 03       		.uleb128 0x3
 12744 0d6f 1E000000 		.4byte	.LVL410
 12745 0d73 48000000 		.4byte	.LFE69
 12746 0d77 0800     		.2byte	0x8
 12747 0d79 54       		.byte	0x54
 12748 0d7a 93       		.byte	0x93
 12749 0d7b 04       		.uleb128 0x4
 12750 0d7c 55       		.byte	0x55
 12751 0d7d 93       		.byte	0x93
 12752 0d7e 04       		.uleb128 0x4
 12753 0d7f 93       		.byte	0x93
 12754 0d80 04       		.uleb128 0x4
 12755 0d81 00000000 		.4byte	0
 12756 0d85 00000000 		.4byte	0
 12757              	.LLST85:
 12758 0d89 16000000 		.4byte	.LVL408
 12759 0d8d 1A000000 		.4byte	.LVL409
 12760 0d91 1200     		.2byte	0x12
 12761 0d93 03       		.byte	0x3
 12762 0d94 00000000 		.4byte	cc_load
 12763 0d98 9F       		.byte	0x9f
 12764 0d99 93       		.byte	0x93
 12765 0d9a 04       		.uleb128 0x4
 12766 0d9b 30       		.byte	0x30
 12767 0d9c 9F       		.byte	0x9f
 12768 0d9d 93       		.byte	0x93
 12769 0d9e 04       		.uleb128 0x4
 12770 0d9f 31       		.byte	0x31
 12771 0da0 9F       		.byte	0x9f
 12772 0da1 93       		.byte	0x93
 12773 0da2 01       		.uleb128 0x1
 12774 0da3 93       		.byte	0x93
 12775 0da4 03       		.uleb128 0x3
 12776 0da5 1E000000 		.4byte	.LVL410
 12777 0da9 23000000 		.4byte	.LVL411-1
 12778 0dad 0800     		.2byte	0x8
 12779 0daf 53       		.byte	0x53
 12780 0db0 93       		.byte	0x93
 12781 0db1 04       		.uleb128 0x4
 12782 0db2 51       		.byte	0x51
 12783 0db3 93       		.byte	0x93
 12784 0db4 04       		.uleb128 0x4
 12785 0db5 93       		.byte	0x93
 12786 0db6 04       		.uleb128 0x4
 12787 0db7 2A000000 		.4byte	.LVL413
 12788 0dbb 30000000 		.4byte	.LVL414
 12789 0dbf 0500     		.2byte	0x5
 12790 0dc1 53       		.byte	0x53
 12791 0dc2 93       		.byte	0x93
 12792 0dc3 04       		.uleb128 0x4
 12793 0dc4 93       		.byte	0x93
 12794 0dc5 08       		.uleb128 0x8
 12795 0dc6 30000000 		.4byte	.LVL414
 12796 0dca 36000000 		.4byte	.LVL415
ARM GAS  C:\Users\VIDEOH~1\AppData\Local\Temp\ccpdN5tN.s 			page 253


 12797 0dce 0C00     		.2byte	0xc
 12798 0dd0 53       		.byte	0x53
 12799 0dd1 93       		.byte	0x93
 12800 0dd2 04       		.uleb128 0x4
 12801 0dd3 51       		.byte	0x51
 12802 0dd4 93       		.byte	0x93
 12803 0dd5 04       		.uleb128 0x4
 12804 0dd6 91       		.byte	0x91
 12805 0dd7 6C       		.sleb128 -20
 12806 0dd8 93       		.byte	0x93
 12807 0dd9 01       		.uleb128 0x1
 12808 0dda 93       		.byte	0x93
 12809 0ddb 03       		.uleb128 0x3
 12810 0ddc 00000000 		.4byte	0
 12811 0de0 00000000 		.4byte	0
 12812              	.LLST86:
 12813 0de4 26000000 		.4byte	.LVL412
 12814 0de8 3A000000 		.4byte	.LVL416
 12815 0dec 0500     		.2byte	0x5
 12816 0dee 53       		.byte	0x53
 12817 0def 93       		.byte	0x93
 12818 0df0 04       		.uleb128 0x4
 12819 0df1 93       		.byte	0x93
 12820 0df2 08       		.uleb128 0x8
 12821 0df3 3A000000 		.4byte	.LVL416
 12822 0df7 48000000 		.4byte	.LFE69
 12823 0dfb 0600     		.2byte	0x6
 12824 0dfd 76       		.byte	0x76
 12825 0dfe 00       		.sleb128 0
 12826 0dff 93       		.byte	0x93
 12827 0e00 04       		.uleb128 0x4
 12828 0e01 93       		.byte	0x93
 12829 0e02 08       		.uleb128 0x8
 12830 0e03 00000000 		.4byte	0
 12831 0e07 00000000 		.4byte	0
 12832              		.section	.debug_aranges,"",%progbits
 12833 0000 EC000000 		.4byte	0xec
 12834 0004 0200     		.2byte	0x2
 12835 0006 00000000 		.4byte	.Ldebug_info0
 12836 000a 04       		.byte	0x4
 12837 000b 00       		.byte	0
 12838 000c 0000     		.2byte	0
 12839 000e 0000     		.2byte	0
 12840 0010 00000000 		.4byte	.LFB54
 12841 0014 12000000 		.4byte	.LFE54-.LFB54
 12842 0018 00000000 		.4byte	.LFB36
 12843 001c 40000000 		.4byte	.LFE36-.LFB36
 12844 0020 00000000 		.4byte	.LFB35
 12845 0024 9C000000 		.4byte	.LFE35-.LFB35
 12846 0028 00000000 		.4byte	.LFB43
 12847 002c 18000000 		.4byte	.LFE43-.LFB43
 12848 0030 00000000 		.4byte	.LFB68
 12849 0034 58000000 		.4byte	.LFE68-.LFB68
 12850 0038 00000000 		.4byte	.LFB38
 12851 003c 84000000 		.4byte	.LFE38-.LFB38
 12852 0040 00000000 		.4byte	.LFB57
 12853 0044 34010000 		.4byte	.LFE57-.LFB57
ARM GAS  C:\Users\VIDEOH~1\AppData\Local\Temp\ccpdN5tN.s 			page 254


 12854 0048 00000000 		.4byte	.LFB65
 12855 004c 1A000000 		.4byte	.LFE65-.LFB65
 12856 0050 00000000 		.4byte	.LFB67
 12857 0054 20030000 		.4byte	.LFE67-.LFB67
 12858 0058 00000000 		.4byte	.LFB58
 12859 005c 88000000 		.4byte	.LFE58-.LFB58
 12860 0060 00000000 		.4byte	.LFB55
 12861 0064 F8000000 		.4byte	.LFE55-.LFB55
 12862 0068 00000000 		.4byte	.LFB59
 12863 006c B0010000 		.4byte	.LFE59-.LFB59
 12864 0070 00000000 		.4byte	.LFB51
 12865 0074 68000000 		.4byte	.LFE51-.LFB51
 12866 0078 00000000 		.4byte	.LFB40
 12867 007c 10000000 		.4byte	.LFE40-.LFB40
 12868 0080 00000000 		.4byte	.LFB41
 12869 0084 18000000 		.4byte	.LFE41-.LFB41
 12870 0088 00000000 		.4byte	.LFB42
 12871 008c 18000000 		.4byte	.LFE42-.LFB42
 12872 0090 00000000 		.4byte	.LFB44
 12873 0094 38000000 		.4byte	.LFE44-.LFB44
 12874 0098 00000000 		.4byte	.LFB45
 12875 009c 48000000 		.4byte	.LFE45-.LFB45
 12876 00a0 00000000 		.4byte	.LFB46
 12877 00a4 18000000 		.4byte	.LFE46-.LFB46
 12878 00a8 00000000 		.4byte	.LFB47
 12879 00ac 18000000 		.4byte	.LFE47-.LFB47
 12880 00b0 00000000 		.4byte	.LFB34
 12881 00b4 A4000000 		.4byte	.LFE34-.LFB34
 12882 00b8 00000000 		.4byte	.LFB71
 12883 00bc 2C000000 		.4byte	.LFE71-.LFB71
 12884 00c0 00000000 		.4byte	.LFB60
 12885 00c4 50020000 		.4byte	.LFE60-.LFB60
 12886 00c8 00000000 		.4byte	.LFB56
 12887 00cc F4000000 		.4byte	.LFE56-.LFB56
 12888 00d0 00000000 		.4byte	.LFB53
 12889 00d4 F4000000 		.4byte	.LFE53-.LFB53
 12890 00d8 00000000 		.4byte	.LFB33
 12891 00dc 54000000 		.4byte	.LFE33-.LFB33
 12892 00e0 00000000 		.4byte	.LFB69
 12893 00e4 48000000 		.4byte	.LFE69-.LFB69
 12894 00e8 00000000 		.4byte	0
 12895 00ec 00000000 		.4byte	0
 12896              		.section	.debug_ranges,"",%progbits
 12897              	.Ldebug_ranges0:
 12898 0000 2E000000 		.4byte	.LBB14
 12899 0004 30000000 		.4byte	.LBE14
 12900 0008 40000000 		.4byte	.LBB17
 12901 000c 96000000 		.4byte	.LBE17
 12902 0010 00000000 		.4byte	0
 12903 0014 00000000 		.4byte	0
 12904 0018 A6010000 		.4byte	.LBB23
 12905 001c 5C020000 		.4byte	.LBE23
 12906 0020 5E020000 		.4byte	.LBB31
 12907 0024 60020000 		.4byte	.LBE31
 12908 0028 62020000 		.4byte	.LBB33
 12909 002c 64020000 		.4byte	.LBE33
 12910 0030 00000000 		.4byte	0
ARM GAS  C:\Users\VIDEOH~1\AppData\Local\Temp\ccpdN5tN.s 			page 255


 12911 0034 00000000 		.4byte	0
 12912 0038 5C020000 		.4byte	.LBB27
 12913 003c 5E020000 		.4byte	.LBE27
 12914 0040 60020000 		.4byte	.LBB32
 12915 0044 62020000 		.4byte	.LBE32
 12916 0048 64020000 		.4byte	.LBB34
 12917 004c BA020000 		.4byte	.LBE34
 12918 0050 00000000 		.4byte	0
 12919 0054 00000000 		.4byte	0
 12920 0058 1E000000 		.4byte	.LBB40
 12921 005c 20010000 		.4byte	.LBE40
 12922 0060 22010000 		.4byte	.LBB46
 12923 0064 26010000 		.4byte	.LBE46
 12924 0068 00000000 		.4byte	0
 12925 006c 00000000 		.4byte	0
 12926 0070 A6000000 		.4byte	.LBB43
 12927 0074 A8000000 		.4byte	.LBE43
 12928 0078 AC000000 		.4byte	.LBB44
 12929 007c 10010000 		.4byte	.LBE44
 12930 0080 00000000 		.4byte	0
 12931 0084 00000000 		.4byte	0
 12932 0088 50000000 		.4byte	.LBB59
 12933 008c 52000000 		.4byte	.LBE59
 12934 0090 54000000 		.4byte	.LBB63
 12935 0094 56000000 		.4byte	.LBE63
 12936 0098 58000000 		.4byte	.LBB64
 12937 009c 86000000 		.4byte	.LBE64
 12938 00a0 00000000 		.4byte	0
 12939 00a4 00000000 		.4byte	0
 12940 00a8 00000000 		.4byte	.LFB54
 12941 00ac 12000000 		.4byte	.LFE54
 12942 00b0 00000000 		.4byte	.LFB36
 12943 00b4 40000000 		.4byte	.LFE36
 12944 00b8 00000000 		.4byte	.LFB35
 12945 00bc 9C000000 		.4byte	.LFE35
 12946 00c0 00000000 		.4byte	.LFB43
 12947 00c4 18000000 		.4byte	.LFE43
 12948 00c8 00000000 		.4byte	.LFB68
 12949 00cc 58000000 		.4byte	.LFE68
 12950 00d0 00000000 		.4byte	.LFB38
 12951 00d4 84000000 		.4byte	.LFE38
 12952 00d8 00000000 		.4byte	.LFB57
 12953 00dc 34010000 		.4byte	.LFE57
 12954 00e0 00000000 		.4byte	.LFB65
 12955 00e4 1A000000 		.4byte	.LFE65
 12956 00e8 00000000 		.4byte	.LFB67
 12957 00ec 20030000 		.4byte	.LFE67
 12958 00f0 00000000 		.4byte	.LFB58
 12959 00f4 88000000 		.4byte	.LFE58
 12960 00f8 00000000 		.4byte	.LFB55
 12961 00fc F8000000 		.4byte	.LFE55
 12962 0100 00000000 		.4byte	.LFB59
 12963 0104 B0010000 		.4byte	.LFE59
 12964 0108 00000000 		.4byte	.LFB51
 12965 010c 68000000 		.4byte	.LFE51
 12966 0110 00000000 		.4byte	.LFB40
 12967 0114 10000000 		.4byte	.LFE40
ARM GAS  C:\Users\VIDEOH~1\AppData\Local\Temp\ccpdN5tN.s 			page 256


 12968 0118 00000000 		.4byte	.LFB41
 12969 011c 18000000 		.4byte	.LFE41
 12970 0120 00000000 		.4byte	.LFB42
 12971 0124 18000000 		.4byte	.LFE42
 12972 0128 00000000 		.4byte	.LFB44
 12973 012c 38000000 		.4byte	.LFE44
 12974 0130 00000000 		.4byte	.LFB45
 12975 0134 48000000 		.4byte	.LFE45
 12976 0138 00000000 		.4byte	.LFB46
 12977 013c 18000000 		.4byte	.LFE46
 12978 0140 00000000 		.4byte	.LFB47
 12979 0144 18000000 		.4byte	.LFE47
 12980 0148 00000000 		.4byte	.LFB34
 12981 014c A4000000 		.4byte	.LFE34
 12982 0150 00000000 		.4byte	.LFB71
 12983 0154 2C000000 		.4byte	.LFE71
 12984 0158 00000000 		.4byte	.LFB60
 12985 015c 50020000 		.4byte	.LFE60
 12986 0160 00000000 		.4byte	.LFB56
 12987 0164 F4000000 		.4byte	.LFE56
 12988 0168 00000000 		.4byte	.LFB53
 12989 016c F4000000 		.4byte	.LFE53
 12990 0170 00000000 		.4byte	.LFB33
 12991 0174 54000000 		.4byte	.LFE33
 12992 0178 00000000 		.4byte	.LFB69
 12993 017c 48000000 		.4byte	.LFE69
 12994 0180 00000000 		.4byte	0
 12995 0184 00000000 		.4byte	0
 12996              		.section	.debug_line,"",%progbits
 12997              	.Ldebug_line0:
 12998 0000 2B070000 		.section	.debug_str,"MS",%progbits,1
 12998      0200DD02 
 12998      00000201 
 12998      FB0E0D00 
 12998      01010101 
 12999              	.LASF104:
 13000 0000 6C657665 		.ascii	"levels\000"
 13000      6C7300
 13001              	.LASF61:
 13002 0007 636F6F6C 		.ascii	"cooler_on_temperature\000"
 13002      65725F6F 
 13002      6E5F7465 
 13002      6D706572 
 13002      61747572 
 13003              	.LASF226:
 13004 001d 43794465 		.ascii	"CyDelay\000"
 13004      6C617900 
 13005              	.LASF75:
 13006 0025 55495F45 		.ascii	"UI_EVENT_UPDOWN\000"
 13006      56454E54 
 13006      5F555044 
 13006      4F574E00 
 13007              	.LASF56:
 13008 0035 6164635F 		.ascii	"adc_voltage_gain\000"
 13008      766F6C74 
 13008      6167655F 
 13008      6761696E 
ARM GAS  C:\Users\VIDEOH~1\AppData\Local\Temp\ccpdN5tN.s 			page 257


 13008      00
 13009              	.LASF116:
 13010 0046 666F726D 		.ascii	"format_number\000"
 13010      61745F6E 
 13010      756D6265 
 13010      7200
 13011              	.LASF30:
 13012 0054 63795F73 		.ascii	"cy_stc_eeprom_context_t\000"
 13012      74635F65 
 13012      6570726F 
 13012      6D5F636F 
 13012      6E746578 
 13013              	.LASF62:
 13014 006c 636F6F6C 		.ascii	"cooler_on_adc_data\000"
 13014      65725F6F 
 13014      6E5F6164 
 13014      635F6461 
 13014      746100
 13015              	.LASF179:
 13016 007f 64656661 		.ascii	"default_settings\000"
 13016      756C745F 
 13016      73657474 
 13016      696E6773 
 13016      00
 13017              	.LASF162:
 13018 0090 7465726D 		.ascii	"term\000"
 13018      00
 13019              	.LASF211:
 13020 0095 7374726C 		.ascii	"strlen\000"
 13020      656E00
 13021              	.LASF199:
 13022 009c 49444143 		.ascii	"IDAC_Low_SetValue\000"
 13022      5F4C6F77 
 13022      5F536574 
 13022      56616C75 
 13022      6500
 13023              	.LASF227:
 13024 00ae 51756164 		.ascii	"QuadButton_Read\000"
 13024      42757474 
 13024      6F6E5F52 
 13024      65616400 
 13025              	.LASF73:
 13026 00be 55495F45 		.ascii	"UI_EVENT_BUTTONPRESS\000"
 13026      56454E54 
 13026      5F425554 
 13026      544F4E50 
 13026      52455353 
 13027              	.LASF81:
 13028 00d3 4C494D49 		.ascii	"LIMIT_TYPE_UNDERVOLT\000"
 13028      545F5459 
 13028      50455F55 
 13028      4E444552 
 13028      564F4C54 
 13029              	.LASF59:
 13030 00e8 73657474 		.ascii	"settings_version\000"
 13030      696E6773 
 13030      5F766572 
ARM GAS  C:\Users\VIDEOH~1\AppData\Local\Temp\ccpdN5tN.s 			page 258


 13030      73696F6E 
 13030      00
 13031              	.LASF84:
 13032 00f9 696E745F 		.ascii	"int_arg\000"
 13032      61726700 
 13033              	.LASF232:
 13034 0101 443A5C31 		.ascii	"D:\\1_work\\my_project\\ReloadPro\\psoc42boot\\Relo"
 13034      5F776F72 
 13034      6B5C6D79 
 13034      5F70726F 
 13034      6A656374 
 13035 012f 61642050 		.ascii	"ad Pro.cydsn\000"
 13035      726F2E63 
 13035      7964736E 
 13035      00
 13036              	.LASF98:
 13037 013c 6D656E75 		.ascii	"menudata\000"
 13037      64617461 
 13037      00
 13038              	.LASF0:
 13039 0145 756E7369 		.ascii	"unsigned int\000"
 13039      676E6564 
 13039      20696E74 
 13039      00
 13040              	.LASF209:
 13041 0152 6765745F 		.ascii	"get_output_mode\000"
 13041      6F757470 
 13041      75745F6D 
 13041      6F646500 
 13042              	.LASF223:
 13043 0162 44697370 		.ascii	"Display_DrawBigNumbers\000"
 13043      6C61795F 
 13043      44726177 
 13043      4269674E 
 13043      756D6265 
 13044              	.LASF235:
 13045 0179 6765745F 		.ascii	"get_temperature_calc\000"
 13045      74656D70 
 13045      65726174 
 13045      7572655F 
 13045      63616C63 
 13046              	.LASF17:
 13047 018e 696E7431 		.ascii	"int16\000"
 13047      3600
 13048              	.LASF86:
 13049 0194 7768656E 		.ascii	"when\000"
 13049      00
 13050              	.LASF63:
 13051 0199 636F6F6C 		.ascii	"cooler_off_adc_data\000"
 13051      65725F6F 
 13051      66665F61 
 13051      64635F64 
 13051      61746100 
 13052              	.LASF125:
 13053 01ad 73746167 		.ascii	"stage\000"
 13053      6500
 13054              	.LASF132:
ARM GAS  C:\Users\VIDEOH~1\AppData\Local\Temp\ccpdN5tN.s 			page 259


 13055 01b3 766F6C74 		.ascii	"voltage\000"
 13055      61676500 
 13056              	.LASF174:
 13057 01bb 70765061 		.ascii	"pvParameters\000"
 13057      72616D65 
 13057      74657273 
 13057      00
 13058              	.LASF80:
 13059 01c8 4C494D49 		.ascii	"LIMIT_TYPE_OVERTEMP\000"
 13059      545F5459 
 13059      50455F4F 
 13059      56455254 
 13059      454D5000 
 13060              	.LASF70:
 13061 01dc 706F7274 		.ascii	"portTickType\000"
 13061      5469636B 
 13061      54797065 
 13061      00
 13062              	.LASF129:
 13063 01e9 75695F63 		.ascii	"ui_calibrate_dacs\000"
 13063      616C6962 
 13063      72617465 
 13063      5F646163 
 13063      7300
 13064              	.LASF88:
 13065 01fb 66756E63 		.ascii	"func\000"
 13065      00
 13066              	.LASF48:
 13067 0200 64697370 		.ascii	"display_settings_t\000"
 13067      6C61795F 
 13067      73657474 
 13067      696E6773 
 13067      5F7400
 13068              	.LASF94:
 13069 0213 6E65775F 		.ascii	"new_state\000"
 13069      73746174 
 13069      6500
 13070              	.LASF145:
 13071 021d 70616464 		.ascii	"padding\000"
 13071      696E6700 
 13072              	.LASF224:
 13073 0225 6765745F 		.ascii	"get_cooler_state\000"
 13073      636F6F6C 
 13073      65725F73 
 13073      74617465 
 13073      00
 13074              	.LASF220:
 13075 0236 51756164 		.ascii	"Quadrature_ClearInterrupt\000"
 13075      72617475 
 13075      72655F43 
 13075      6C656172 
 13075      496E7465 
 13076              	.LASF198:
 13077 0250 44697370 		.ascii	"Display_Clear\000"
 13077      6C61795F 
 13077      436C6561 
 13077      7200
ARM GAS  C:\Users\VIDEOH~1\AppData\Local\Temp\ccpdN5tN.s 			page 260


 13078              	.LASF90:
 13079 025e 72656164 		.ascii	"readout_function_impl\000"
 13079      6F75745F 
 13079      66756E63 
 13079      74696F6E 
 13079      5F696D70 
 13080              	.LASF114:
 13081 0274 72656D61 		.ascii	"remainder\000"
 13081      696E6465 
 13081      7200
 13082              	.LASF74:
 13083 027e 55495F45 		.ascii	"UI_EVENT_LONG_BUTTONPRESS\000"
 13083      56454E54 
 13083      5F4C4F4E 
 13083      475F4255 
 13083      54544F4E 
 13084              	.LASF44:
 13085 0298 72656164 		.ascii	"readouts\000"
 13085      6F757473 
 13085      00
 13086              	.LASF225:
 13087 02a1 436F6F6C 		.ascii	"CoolerStatusReg_Read\000"
 13087      65725374 
 13087      61747573 
 13087      5265675F 
 13087      52656164 
 13088              	.LASF96:
 13089 02b6 7469746C 		.ascii	"title\000"
 13089      6500
 13090              	.LASF137:
 13091 02bc 6F766572 		.ascii	"overlimit\000"
 13091      6C696D69 
 13091      7400
 13092              	.LASF12:
 13093 02c6 75696E74 		.ascii	"uint32_t\000"
 13093      33325F74 
 13093      00
 13094              	.LASF212:
 13095 02cf 73747263 		.ascii	"strcpy\000"
 13095      707900
 13096              	.LASF23:
 13097 02d6 6E756D62 		.ascii	"numberOfRows\000"
 13097      65724F66 
 13097      526F7773 
 13097      00
 13098              	.LASF68:
 13099 02e3 4F555450 		.ascii	"OUTPUT_MODE_ON\000"
 13099      55545F4D 
 13099      4F44455F 
 13099      4F4E00
 13100              	.LASF190:
 13101 02f2 73747263 		.ascii	"strcat\000"
 13101      617400
 13102              	.LASF18:
 13103 02f9 666C6F61 		.ascii	"float\000"
 13103      7400
 13104              	.LASF100:
ARM GAS  C:\Users\VIDEOH~1\AppData\Local\Temp\ccpdN5tN.s 			page 261


 13105 02ff 6576656E 		.ascii	"event\000"
 13105      7400
 13106              	.LASF202:
 13107 0305 6765745F 		.ascii	"get_raw_voltage\000"
 13107      7261775F 
 13107      766F6C74 
 13107      61676500 
 13108              	.LASF102:
 13109 0315 636F756E 		.ascii	"count\000"
 13109      7400
 13110              	.LASF196:
 13111 031b 78517565 		.ascii	"xQueueGenericReceive\000"
 13111      75654765 
 13111      6E657269 
 13111      63526563 
 13111      65697665 
 13112              	.LASF85:
 13113 0330 64757261 		.ascii	"duration\000"
 13113      74696F6E 
 13113      00
 13114              	.LASF25:
 13115 0339 65657072 		.ascii	"eepromSize\000"
 13115      6F6D5369 
 13115      7A6500
 13116              	.LASF77:
 13117 0344 55495F45 		.ascii	"UI_EVENT_LIMIT\000"
 13117      56454E54 
 13117      5F4C494D 
 13117      495400
 13118              	.LASF38:
 13119 0353 52454144 		.ascii	"READOUT_VOLTAGE\000"
 13119      4F55545F 
 13119      564F4C54 
 13119      41474500 
 13120              	.LASF87:
 13121 0363 75695F65 		.ascii	"ui_event\000"
 13121      76656E74 
 13121      00
 13122              	.LASF161:
 13123 036c 6D656469 		.ascii	"median_i\000"
 13123      616E5F69 
 13123      00
 13124              	.LASF10:
 13125 0375 6C6F6E67 		.ascii	"long long unsigned int\000"
 13125      206C6F6E 
 13125      6720756E 
 13125      7369676E 
 13125      65642069 
 13126              	.LASF217:
 13127 038c 78546173 		.ascii	"xTaskGetTickCountFromISR\000"
 13127      6B476574 
 13127      5469636B 
 13127      436F756E 
 13127      7446726F 
 13128              	.LASF131:
 13129 03a5 75695F63 		.ascii	"ui_calibrate_voltage_correction\000"
 13129      616C6962 
ARM GAS  C:\Users\VIDEOH~1\AppData\Local\Temp\ccpdN5tN.s 			page 262


 13129      72617465 
 13129      5F766F6C 
 13129      74616765 
 13130              	.LASF193:
 13131 03c5 44697370 		.ascii	"Display_DrawText\000"
 13131      6C61795F 
 13131      44726177 
 13131      54657874 
 13131      00
 13132              	.LASF208:
 13133 03d6 43795F45 		.ascii	"Cy_Em_EEPROM_Write\000"
 13133      6D5F4545 
 13133      50524F4D 
 13133      5F577269 
 13133      746500
 13134              	.LASF143:
 13135 03e9 73746172 		.ascii	"start_row\000"
 13135      745F726F 
 13135      7700
 13136              	.LASF171:
 13137 03f3 66756C6C 		.ascii	"fullLoadVoltage\000"
 13137      4C6F6164 
 13137      566F6C74 
 13137      61676500 
 13138              	.LASF203:
 13139 0403 6765745F 		.ascii	"get_raw_current_usage\000"
 13139      7261775F 
 13139      63757272 
 13139      656E745F 
 13139      75736167 
 13140              	.LASF92:
 13141 0419 73746174 		.ascii	"state_func\000"
 13141      655F6675 
 13141      6E6300
 13142              	.LASF57:
 13143 0424 766F6C74 		.ascii	"voltage_correction_ratio\000"
 13143      6167655F 
 13143      636F7272 
 13143      65637469 
 13143      6F6E5F72 
 13144              	.LASF93:
 13145 043d 63617074 		.ascii	"caption\000"
 13145      696F6E00 
 13146              	.LASF135:
 13147 0445 75695F63 		.ascii	"ui_calibrate_offsets\000"
 13147      616C6962 
 13147      72617465 
 13147      5F6F6666 
 13147      73657473 
 13148              	.LASF28:
 13149 045a 626C6F63 		.ascii	"blockingWrite\000"
 13149      6B696E67 
 13149      57726974 
 13149      6500
 13150              	.LASF183:
 13151 0468 63686F6F 		.ascii	"choose_readout_menu\000"
 13151      73655F72 
ARM GAS  C:\Users\VIDEOH~1\AppData\Local\Temp\ccpdN5tN.s 			page 263


 13151      6561646F 
 13151      75745F6D 
 13151      656E7500 
 13152              	.LASF167:
 13153 047c 636F6F6C 		.ascii	"cooler_tmp_show\000"
 13153      65725F74 
 13153      6D705F73 
 13153      686F7700 
 13154              	.LASF163:
 13155 048c 63635F6C 		.ascii	"cc_load\000"
 13155      6F616400 
 13156              	.LASF139:
 13157 0494 636F6E74 		.ascii	"contrast\000"
 13157      72617374 
 13157      00
 13158              	.LASF120:
 13159 049d 6E657874 		.ascii	"next_event\000"
 13159      5F657665 
 13159      6E7400
 13160              	.LASF50:
 13161 04a8 6461635F 		.ascii	"dac_high_gain\000"
 13161      68696768 
 13161      5F676169 
 13161      6E00
 13162              	.LASF214:
 13163 04b6 6765745F 		.ascii	"get_current_usage\000"
 13163      63757272 
 13163      656E745F 
 13163      75736167 
 13163      6500
 13164              	.LASF221:
 13165 04c8 75617274 		.ascii	"uart_printf\000"
 13165      5F707269 
 13165      6E746600 
 13166              	.LASF58:
 13167 04d4 63616C69 		.ascii	"calibration_settings_t\000"
 13167      62726174 
 13167      696F6E5F 
 13167      73657474 
 13167      696E6773 
 13168              	.LASF29:
 13169 04eb 75736572 		.ascii	"userFlashStartAddr\000"
 13169      466C6173 
 13169      68537461 
 13169      72744164 
 13169      647200
 13170              	.LASF218:
 13171 04fe 78517565 		.ascii	"xQueueGenericSendFromISR\000"
 13171      75654765 
 13171      6E657269 
 13171      6353656E 
 13171      6446726F 
 13172              	.LASF42:
 13173 0517 52454144 		.ascii	"READOUT_TOTAL_POWER\000"
 13173      4F55545F 
 13173      544F5441 
 13173      4C5F504F 
ARM GAS  C:\Users\VIDEOH~1\AppData\Local\Temp\ccpdN5tN.s 			page 264


 13173      57455200 
 13174              	.LASF115:
 13175 052b 666F726D 		.ascii	"format_number_simple\000"
 13175      61745F6E 
 13175      756D6265 
 13175      725F7369 
 13175      6D706C65 
 13176              	.LASF124:
 13177 0540 766C696D 		.ascii	"vlim\000"
 13177      00
 13178              	.LASF170:
 13179 0545 68616C66 		.ascii	"halfLoadVoltage\000"
 13179      4C6F6164 
 13179      566F6C74 
 13179      61676500 
 13180              	.LASF194:
 13181 0555 426F6F74 		.ascii	"Bootloadable_Load\000"
 13181      6C6F6164 
 13181      61626C65 
 13181      5F4C6F61 
 13181      6400
 13182              	.LASF156:
 13183 0567 61646A75 		.ascii	"adjust_current_setpoint\000"
 13183      73745F63 
 13183      75727265 
 13183      6E745F73 
 13183      6574706F 
 13184              	.LASF35:
 13185 057f 52454144 		.ascii	"READOUT_NONE\000"
 13185      4F55545F 
 13185      4E4F4E45 
 13185      00
 13186              	.LASF204:
 13187 058c 63616C69 		.ascii	"calibrate_opamp_offset_trim\000"
 13187      62726174 
 13187      655F6F70 
 13187      616D705F 
 13187      6F666673 
 13188              	.LASF178:
 13189 05a8 73657474 		.ascii	"settings\000"
 13189      696E6773 
 13189      00
 13190              	.LASF31:
 13191 05b1 63757272 		.ascii	"current_setpoint\000"
 13191      656E745F 
 13191      73657470 
 13191      6F696E74 
 13191      00
 13192              	.LASF148:
 13193 05c2 7072696E 		.ascii	"print_nothing\000"
 13193      745F6E6F 
 13193      7468696E 
 13193      6700
 13194              	.LASF36:
 13195 05d0 52454144 		.ascii	"READOUT_CURRENT_SETPOINT\000"
 13195      4F55545F 
 13195      43555252 
ARM GAS  C:\Users\VIDEOH~1\AppData\Local\Temp\ccpdN5tN.s 			page 265


 13195      454E545F 
 13195      53455450 
 13196              	.LASF20:
 13197 05e9 63686172 		.ascii	"char\000"
 13197      00
 13198              	.LASF34:
 13199 05ee 73746174 		.ascii	"state_t\000"
 13199      655F7400 
 13200              	.LASF55:
 13201 05f6 6164635F 		.ascii	"adc_voltage_offset\000"
 13201      766F6C74 
 13201      6167655F 
 13201      6F666673 
 13201      657400
 13202              	.LASF14:
 13203 0609 75696E74 		.ascii	"uint16\000"
 13203      313600
 13204              	.LASF16:
 13205 0610 696E7438 		.ascii	"int8\000"
 13205      00
 13206              	.LASF107:
 13207 0615 64726177 		.ascii	"draw_status\000"
 13207      5F737461 
 13207      74757300 
 13208              	.LASF65:
 13209 0621 63616C69 		.ascii	"calibration_settings\000"
 13209      62726174 
 13209      696F6E5F 
 13209      73657474 
 13209      696E6773 
 13210              	.LASF165:
 13211 0636 7365745F 		.ascii	"set_cooler\000"
 13211      636F6F6C 
 13211      657200
 13212              	.LASF233:
 13213 0641 73746174 		.ascii	"state_func_t\000"
 13213      655F6675 
 13213      6E635F74 
 13213      00
 13214              	.LASF11:
 13215 064e 75696E74 		.ascii	"uint8_t\000"
 13215      385F7400 
 13216              	.LASF83:
 13217 0656 74797065 		.ascii	"type\000"
 13217      00
 13218              	.LASF154:
 13219 065b 7072696E 		.ascii	"print_amp_hours\000"
 13219      745F616D 
 13219      705F686F 
 13219      75727300 
 13220              	.LASF140:
 13221 066b 64726177 		.ascii	"draw_menu\000"
 13221      5F6D656E 
 13221      7500
 13222              	.LASF109:
 13223 0675 666F7263 		.ascii	"force_current_setpoint_readout\000"
 13223      655F6375 
ARM GAS  C:\Users\VIDEOH~1\AppData\Local\Temp\ccpdN5tN.s 			page 266


 13223      7272656E 
 13223      745F7365 
 13223      74706F69 
 13224              	.LASF228:
 13225 0694 78517565 		.ascii	"xQueueGenericCreate\000"
 13225      75654765 
 13225      6E657269 
 13225      63437265 
 13225      61746500 
 13226              	.LASF22:
 13227 06a8 776C456E 		.ascii	"wlEndAddr\000"
 13227      64416464 
 13227      7200
 13228              	.LASF172:
 13229 06b2 76417070 		.ascii	"vApplicationTickHook\000"
 13229      6C696361 
 13229      74696F6E 
 13229      5469636B 
 13229      486F6F6B 
 13230              	.LASF111:
 13231 06c7 6C616265 		.ascii	"labelsize\000"
 13231      6C73697A 
 13231      6500
 13232              	.LASF195:
 13233 06d1 78546173 		.ascii	"xTaskGetTickCount\000"
 13233      6B476574 
 13233      5469636B 
 13233      436F756E 
 13233      7400
 13234              	.LASF149:
 13235 06e3 7072696E 		.ascii	"print_setpoint\000"
 13235      745F7365 
 13235      74706F69 
 13235      6E7400
 13236              	.LASF9:
 13237 06f2 6C6F6E67 		.ascii	"long long int\000"
 13237      206C6F6E 
 13237      6720696E 
 13237      7400
 13238              	.LASF72:
 13239 0700 55495F45 		.ascii	"UI_EVENT_NONE\000"
 13239      56454E54 
 13239      5F4E4F4E 
 13239      4500
 13240              	.LASF127:
 13241 070e 75695F63 		.ascii	"ui_calibration_progress\000"
 13241      616C6962 
 13241      72617469 
 13241      6F6E5F70 
 13241      726F6772 
 13242              	.LASF105:
 13243 0726 70616765 		.ascii	"page\000"
 13243      00
 13244              	.LASF95:
 13245 072b 6D656E75 		.ascii	"menuitem\000"
 13245      6974656D 
 13245      00
ARM GAS  C:\Users\VIDEOH~1\AppData\Local\Temp\ccpdN5tN.s 			page 267


 13246              	.LASF173:
 13247 0734 62757474 		.ascii	"button_now\000"
 13247      6F6E5F6E 
 13247      6F7700
 13248              	.LASF37:
 13249 073f 52454144 		.ascii	"READOUT_CURRENT_USAGE\000"
 13249      4F55545F 
 13249      43555252 
 13249      454E545F 
 13249      55534147 
 13250              	.LASF32:
 13251 0755 6C6F7765 		.ascii	"lower_voltage_limit\000"
 13251      725F766F 
 13251      6C746167 
 13251      655F6C69 
 13251      6D697400 
 13252              	.LASF54:
 13253 0769 6164635F 		.ascii	"adc_current_gain\000"
 13253      63757272 
 13253      656E745F 
 13253      6761696E 
 13253      00
 13254              	.LASF197:
 13255 077a 43795379 		.ascii	"CySysWdtResetCounters\000"
 13255      73576474 
 13255      52657365 
 13255      74436F75 
 13255      6E746572 
 13256              	.LASF46:
 13257 0790 6E616D65 		.ascii	"named\000"
 13257      6400
 13258              	.LASF33:
 13259 0796 63616C69 		.ascii	"calibrating\000"
 13259      62726174 
 13259      696E6700 
 13260              	.LASF236:
 13261 07a2 6D656173 		.ascii	"measure_Battery_ISR\000"
 13261      7572655F 
 13261      42617474 
 13261      6572795F 
 13261      49535200 
 13262              	.LASF189:
 13263 07b6 73707269 		.ascii	"sprintf\000"
 13263      6E746600 
 13264              	.LASF207:
 13265 07be 7365745F 		.ascii	"set_output_mode\000"
 13265      6F757470 
 13265      75745F6D 
 13265      6F646500 
 13266              	.LASF182:
 13267 07ce 7365745F 		.ascii	"set_readout_menu\000"
 13267      72656164 
 13267      6F75745F 
 13267      6D656E75 
 13267      00
 13268              	.LASF158:
 13269 07df 73746570 		.ascii	"step\000"
ARM GAS  C:\Users\VIDEOH~1\AppData\Local\Temp\ccpdN5tN.s 			page 268


 13269      00
 13270              	.LASF15:
 13271 07e4 75696E74 		.ascii	"uint32\000"
 13271      333200
 13272              	.LASF219:
 13273 07eb 51756164 		.ascii	"Quadrature_Read\000"
 13273      72617475 
 13273      72655F52 
 13273      65616400 
 13274              	.LASF82:
 13275 07fb 6C696D69 		.ascii	"limit_type\000"
 13275      745F7479 
 13275      706500
 13276              	.LASF169:
 13277 0806 7365636F 		.ascii	"seconds\000"
 13277      6E647300 
 13278              	.LASF119:
 13279 080e 75706772 		.ascii	"upgrade\000"
 13279      61646500 
 13280              	.LASF201:
 13281 0816 63616C69 		.ascii	"calibrate_offsets\000"
 13281      62726174 
 13281      655F6F66 
 13281      66736574 
 13281      7300
 13282              	.LASF113:
 13283 0828 77686F6C 		.ascii	"whole\000"
 13283      6500
 13284              	.LASF144:
 13285 082e 68656967 		.ascii	"height\000"
 13285      687400
 13286              	.LASF51:
 13287 0835 6461635F 		.ascii	"dac_offset\000"
 13287      6F666673 
 13287      657400
 13288              	.LASF188:
 13289 0840 72656164 		.ascii	"readout_functions\000"
 13289      6F75745F 
 13289      66756E63 
 13289      74696F6E 
 13289      7300
 13290              	.LASF53:
 13291 0852 6164635F 		.ascii	"adc_current_offset\000"
 13291      63757272 
 13291      656E745F 
 13291      6F666673 
 13291      657400
 13292              	.LASF164:
 13293 0865 6C617374 		.ascii	"last_adjust_current_setpoint\000"
 13293      5F61646A 
 13293      7573745F 
 13293      63757272 
 13293      656E745F 
 13294              	.LASF142:
 13295 0882 73656C65 		.ascii	"selected\000"
 13295      63746564 
 13295      00
ARM GAS  C:\Users\VIDEOH~1\AppData\Local\Temp\ccpdN5tN.s 			page 269


 13296              	.LASF97:
 13297 088b 6974656D 		.ascii	"items\000"
 13297      7300
 13298              	.LASF191:
 13299 0891 6765745F 		.ascii	"get_voltage\000"
 13299      766F6C74 
 13299      61676500 
 13300              	.LASF181:
 13301 089d 7465726D 		.ascii	"termistor_tbl\000"
 13301      6973746F 
 13301      725F7462 
 13301      6C00
 13302              	.LASF41:
 13303 08ab 52454144 		.ascii	"READOUT_TOTAL_CURRENT\000"
 13303      4F55545F 
 13303      544F5441 
 13303      4C5F4355 
 13303      5252454E 
 13304              	.LASF121:
 13305 08c1 6C617374 		.ascii	"last_tick\000"
 13305      5F746963 
 13305      6B00
 13306              	.LASF166:
 13307 08cb 636F6F6C 		.ascii	"cooler_tmp\000"
 13307      65725F74 
 13307      6D7000
 13308              	.LASF213:
 13309 08d6 6765745F 		.ascii	"get_current_setpoint\000"
 13309      63757272 
 13309      656E745F 
 13309      73657470 
 13309      6F696E74 
 13310              	.LASF123:
 13311 08eb 75695F73 		.ascii	"ui_set_min_voltage\000"
 13311      65745F6D 
 13311      696E5F76 
 13311      6F6C7461 
 13311      676500
 13312              	.LASF187:
 13313 08fe 71756164 		.ascii	"quadrature_states\000"
 13313      72617475 
 13313      72655F73 
 13313      74617465 
 13313      7300
 13314              	.LASF49:
 13315 0910 6461635F 		.ascii	"dac_low_gain\000"
 13315      6C6F775F 
 13315      6761696E 
 13315      00
 13316              	.LASF112:
 13317 091d 73756666 		.ascii	"suffix\000"
 13317      697800
 13318              	.LASF108:
 13319 0924 636F6E66 		.ascii	"config\000"
 13319      696700
 13320              	.LASF45:
 13321 092b 64697370 		.ascii	"display_config_t\000"
ARM GAS  C:\Users\VIDEOH~1\AppData\Local\Temp\ccpdN5tN.s 			page 270


 13321      6C61795F 
 13321      636F6E66 
 13321      69675F74 
 13321      00
 13322              	.LASF133:
 13323 093c 75695F63 		.ascii	"ui_calibrate_current\000"
 13323      616C6962 
 13323      72617465 
 13323      5F637572 
 13323      72656E74 
 13324              	.LASF3:
 13325 0951 73686F72 		.ascii	"short int\000"
 13325      7420696E 
 13325      7400
 13326              	.LASF151:
 13327 095b 7072696E 		.ascii	"print_power\000"
 13327      745F706F 
 13327      77657200 
 13328              	.LASF147:
 13329 0967 64697370 		.ascii	"display\000"
 13329      6C617900 
 13330              	.LASF5:
 13331 096f 6C6F6E67 		.ascii	"long int\000"
 13331      20696E74 
 13331      00
 13332              	.LASF215:
 13333 0978 6765745F 		.ascii	"get_microamp_hours\000"
 13333      6D696372 
 13333      6F616D70 
 13333      5F686F75 
 13333      727300
 13334              	.LASF47:
 13335 098b 6E756D62 		.ascii	"numbered\000"
 13335      65726564 
 13335      00
 13336              	.LASF210:
 13337 0994 44697370 		.ascii	"Display_SetContrast\000"
 13337      6C61795F 
 13337      53657443 
 13337      6F6E7472 
 13337      61737400 
 13338              	.LASF43:
 13339 09a8 72656164 		.ascii	"readout_function\000"
 13339      6F75745F 
 13339      66756E63 
 13339      74696F6E 
 13339      00
 13340              	.LASF99:
 13341 09b9 766F6964 		.ascii	"void_func\000"
 13341      5F66756E 
 13341      6300
 13342              	.LASF118:
 13343 09c3 63616C6C 		.ascii	"call_void_func\000"
 13343      5F766F69 
 13343      645F6675 
 13343      6E6300
 13344              	.LASF134:
ARM GAS  C:\Users\VIDEOH~1\AppData\Local\Temp\ccpdN5tN.s 			page 271


 13345 09d2 75695F63 		.ascii	"ui_calibrate_voltage\000"
 13345      616C6962 
 13345      72617465 
 13345      5F766F6C 
 13345      74616765 
 13346              	.LASF186:
 13347 09e7 6C6F6E67 		.ascii	"long_button_press_tick_count\000"
 13347      5F627574 
 13347      746F6E5F 
 13347      70726573 
 13347      735F7469 
 13348              	.LASF130:
 13349 0a04 6E65775F 		.ascii	"new_settings\000"
 13349      73657474 
 13349      696E6773 
 13349      00
 13350              	.LASF230:
 13351 0a11 474E5520 		.ascii	"GNU C99 5.4.1 20160609 (release) [ARM/embedded-5-br"
 13351      43393920 
 13351      352E342E 
 13351      31203230 
 13351      31363036 
 13352 0a44 616E6368 		.ascii	"anch revision 237715] -mcpu=cortex-m0 -mthumb -g -O"
 13352      20726576 
 13352      6973696F 
 13352      6E203233 
 13352      37373135 
 13353 0a77 73202D73 		.ascii	"s -std=gnu99 -ffunction-sections -ffat-lto-objects\000"
 13353      74643D67 
 13353      6E753939 
 13353      202D6666 
 13353      756E6374 
 13354              	.LASF101:
 13355 0aaa 6C617374 		.ascii	"last_levels\000"
 13355      5F6C6576 
 13355      656C7300 
 13356              	.LASF231:
 13357 0ab6 75692E63 		.ascii	"ui.c\000"
 13357      00
 13358              	.LASF237:
 13359 0abb 76546173 		.ascii	"vTaskUI\000"
 13359      6B554900 
 13360              	.LASF138:
 13361 0ac3 7365745F 		.ascii	"set_contrast\000"
 13361      636F6E74 
 13361      72617374 
 13361      00
 13362              	.LASF216:
 13363 0ad0 6765745F 		.ascii	"get_microwatt_hours\000"
 13363      6D696372 
 13363      6F776174 
 13363      745F686F 
 13363      75727300 
 13364              	.LASF6:
 13365 0ae4 5F5F7569 		.ascii	"__uint8_t\000"
 13365      6E74385F 
 13365      7400
ARM GAS  C:\Users\VIDEOH~1\AppData\Local\Temp\ccpdN5tN.s 			page 272


 13366              	.LASF106:
 13367 0aee 73686F77 		.ascii	"show_temperature\000"
 13367      5F74656D 
 13367      70657261 
 13367      74757265 
 13367      00
 13368              	.LASF67:
 13369 0aff 4F555450 		.ascii	"OUTPUT_MODE_OFF\000"
 13369      55545F4D 
 13369      4F44455F 
 13369      4F464600 
 13370              	.LASF60:
 13371 0b0f 6C63645F 		.ascii	"lcd_contrast\000"
 13371      636F6E74 
 13371      72617374 
 13371      00
 13372              	.LASF153:
 13373 0b1c 7072696E 		.ascii	"print_resistance\000"
 13373      745F7265 
 13373      73697374 
 13373      616E6365 
 13373      00
 13374              	.LASF21:
 13375 0b2d 73697A65 		.ascii	"sizetype\000"
 13375      74797065 
 13375      00
 13376              	.LASF8:
 13377 0b36 6C6F6E67 		.ascii	"long unsigned int\000"
 13377      20756E73 
 13377      69676E65 
 13377      6420696E 
 13377      7400
 13378              	.LASF136:
 13379 0b48 75695F63 		.ascii	"ui_calibrate\000"
 13379      616C6962 
 13379      72617465 
 13379      00
 13380              	.LASF52:
 13381 0b55 6F70616D 		.ascii	"opamp_offset_trim\000"
 13381      705F6F66 
 13381      66736574 
 13381      5F747269 
 13381      6D00
 13382              	.LASF110:
 13383 0b67 72656164 		.ascii	"readout\000"
 13383      6F757400 
 13384              	.LASF26:
 13385 0b6f 77656172 		.ascii	"wearLevelingFactor\000"
 13385      4C657665 
 13385      6C696E67 
 13385      46616374 
 13385      6F7200
 13386              	.LASF103:
 13387 0b82 6265666F 		.ascii	"before\000"
 13387      726500
 13388              	.LASF222:
 13389 0b89 6765745F 		.ascii	"get_termistor\000"
ARM GAS  C:\Users\VIDEOH~1\AppData\Local\Temp\ccpdN5tN.s 			page 273


 13389      7465726D 
 13389      6973746F 
 13389      7200
 13390              	.LASF177:
 13391 0b97 45455052 		.ascii	"EEPROM_context\000"
 13391      4F4D5F63 
 13391      6F6E7465 
 13391      787400
 13392              	.LASF71:
 13393 0ba6 78517565 		.ascii	"xQueueHandle\000"
 13393      75654861 
 13393      6E646C65 
 13393      00
 13394              	.LASF39:
 13395 0bb3 52454144 		.ascii	"READOUT_POWER\000"
 13395      4F55545F 
 13395      504F5745 
 13395      5200
 13396              	.LASF2:
 13397 0bc1 756E7369 		.ascii	"unsigned char\000"
 13397      676E6564 
 13397      20636861 
 13397      7200
 13398              	.LASF160:
 13399 0bcf 68696768 		.ascii	"high_i\000"
 13399      5F6900
 13400              	.LASF91:
 13401 0bd6 69735F6D 		.ascii	"is_main_state\000"
 13401      61696E5F 
 13401      73746174 
 13401      6500
 13402              	.LASF7:
 13403 0be4 5F5F7569 		.ascii	"__uint32_t\000"
 13403      6E743332 
 13403      5F7400
 13404              	.LASF192:
 13405 0bef 44697370 		.ascii	"Display_ClearAll\000"
 13405      6C61795F 
 13405      436C6561 
 13405      72416C6C 
 13405      00
 13406              	.LASF27:
 13407 0c00 72656475 		.ascii	"redundantCopy\000"
 13407      6E64616E 
 13407      74436F70 
 13407      7900
 13408              	.LASF141:
 13409 0c0e 6D656E75 		.ascii	"menu\000"
 13409      00
 13410              	.LASF185:
 13411 0c13 6D61696E 		.ascii	"main_menu\000"
 13411      5F6D656E 
 13411      7500
 13412              	.LASF76:
 13413 0c1d 55495F45 		.ascii	"UI_EVENT_TICK\000"
 13413      56454E54 
 13413      5F544943 
ARM GAS  C:\Users\VIDEOH~1\AppData\Local\Temp\ccpdN5tN.s 			page 274


 13413      4B00
 13414              	.LASF176:
 13415 0c2b 73746174 		.ascii	"state\000"
 13415      6500
 13416              	.LASF180:
 13417 0c31 75695F71 		.ascii	"ui_queue\000"
 13417      75657565 
 13417      00
 13418              	.LASF79:
 13419 0c3a 75695F65 		.ascii	"ui_event_type\000"
 13419      76656E74 
 13419      5F747970 
 13419      6500
 13420              	.LASF89:
 13421 0c48 6C616265 		.ascii	"label\000"
 13421      6C00
 13422              	.LASF159:
 13423 0c4e 6C6F775F 		.ascii	"low_i\000"
 13423      6900
 13424              	.LASF78:
 13425 0c54 55495F45 		.ascii	"UI_EVENT_BOOTLOAD\000"
 13425      56454E54 
 13425      5F424F4F 
 13425      544C4F41 
 13425      4400
 13426              	.LASF40:
 13427 0c66 52454144 		.ascii	"READOUT_RESISTANCE\000"
 13427      4F55545F 
 13427      52455349 
 13427      5354414E 
 13427      434500
 13428              	.LASF152:
 13429 0c79 706F7765 		.ascii	"power\000"
 13429      7200
 13430              	.LASF205:
 13431 0c7f 63616C69 		.ascii	"calibrate_dacs\000"
 13431      62726174 
 13431      655F6461 
 13431      637300
 13432              	.LASF1:
 13433 0c8e 7369676E 		.ascii	"signed char\000"
 13433      65642063 
 13433      68617200 
 13434              	.LASF157:
 13435 0c9a 64656C74 		.ascii	"delta\000"
 13435      6100
 13436              	.LASF4:
 13437 0ca0 73686F72 		.ascii	"short unsigned int\000"
 13437      7420756E 
 13437      7369676E 
 13437      65642069 
 13437      6E7400
 13438              	.LASF238:
 13439 0cb3 6D656D63 		.ascii	"memcpy\000"
 13439      707900
 13440              	.LASF175:
 13441 0cba 6D61696E 		.ascii	"main_state\000"
ARM GAS  C:\Users\VIDEOH~1\AppData\Local\Temp\ccpdN5tN.s 			page 275


 13441      5F737461 
 13441      746500
 13442              	.LASF146:
 13443 0cc5 64697370 		.ascii	"display_config\000"
 13443      6C61795F 
 13443      636F6E66 
 13443      696700
 13444              	.LASF66:
 13445 0cd4 73657474 		.ascii	"settings_t\000"
 13445      696E6773 
 13445      5F7400
 13446              	.LASF128:
 13447 0cdf 63757272 		.ascii	"current\000"
 13447      656E7400 
 13448              	.LASF69:
 13449 0ce7 4F555450 		.ascii	"OUTPUT_MODE_FEEDBACK\000"
 13449      55545F4D 
 13449      4F44455F 
 13449      46454544 
 13449      4241434B 
 13450              	.LASF155:
 13451 0cfc 7072696E 		.ascii	"print_watt_hours\000"
 13451      745F7761 
 13451      74745F68 
 13451      6F757273 
 13451      00
 13452              	.LASF184:
 13453 0d0d 746F6F6C 		.ascii	"tools_menu\000"
 13453      735F6D65 
 13453      6E7500
 13454              	.LASF13:
 13455 0d18 75696E74 		.ascii	"uint8\000"
 13455      3800
 13456              	.LASF19:
 13457 0d1e 646F7562 		.ascii	"double\000"
 13457      6C6500
 13458              	.LASF24:
 13459 0d25 6C617374 		.ascii	"lastWrRowAddr\000"
 13459      5772526F 
 13459      77416464 
 13459      7200
 13460              	.LASF64:
 13461 0d33 64697370 		.ascii	"display_settings\000"
 13461      6C61795F 
 13461      73657474 
 13461      696E6773 
 13461      00
 13462              	.LASF117:
 13463 0d44 6D61676E 		.ascii	"magnitude\000"
 13463      69747564 
 13463      6500
 13464              	.LASF168:
 13465 0d4e 64656C61 		.ascii	"delayWithWatchDog\000"
 13465      79576974 
 13465      68576174 
 13465      6368446F 
 13465      6700
ARM GAS  C:\Users\VIDEOH~1\AppData\Local\Temp\ccpdN5tN.s 			page 276


 13466              	.LASF229:
 13467 0d60 51756164 		.ascii	"QuadratureISR_StartEx\000"
 13467      72617475 
 13467      72654953 
 13467      525F5374 
 13467      61727445 
 13468              	.LASF122:
 13469 0d76 6C6F6E67 		.ascii	"long_press_sent\000"
 13469      5F707265 
 13469      73735F73 
 13469      656E7400 
 13470              	.LASF206:
 13471 0d86 7365745F 		.ascii	"set_current\000"
 13471      63757272 
 13471      656E7400 
 13472              	.LASF150:
 13473 0d92 7072696E 		.ascii	"print_current_usage\000"
 13473      745F6375 
 13473      7272656E 
 13473      745F7573 
 13473      61676500 
 13474              	.LASF200:
 13475 0da6 49444143 		.ascii	"IDAC_High_SetValue\000"
 13475      5F486967 
 13475      685F5365 
 13475      7456616C 
 13475      756500
 13476              	.LASF126:
 13477 0db9 7072696E 		.ascii	"print_voltage\000"
 13477      745F766F 
 13477      6C746167 
 13477      6500
 13478              	.LASF234:
 13479 0dc7 71756164 		.ascii	"quadrature_event_isr\000"
 13479      72617475 
 13479      72655F65 
 13479      76656E74 
 13479      5F697372 
 13480              		.ident	"GCC: (GNU Tools for ARM Embedded Processors) 5.4.1 20160609 (release) [ARM/embedded-5-bran
