ARM GAS  C:\Users\VIDEOH~1\AppData\Local\Temp\ccpdN5tN.s 			page 1


   1              		.syntax unified
   2              		.cpu cortex-m0
   3              		.fpu softvfp
   4              		.eabi_attribute 20, 1
   5              		.eabi_attribute 21, 1
   6              		.eabi_attribute 23, 3
   7              		.eabi_attribute 24, 1
   8              		.eabi_attribute 25, 1
   9              		.eabi_attribute 26, 1
  10              		.eabi_attribute 30, 4
  11              		.eabi_attribute 34, 0
  12              		.eabi_attribute 18, 4
  13              		.thumb
  14              		.syntax unified
  15              		.file	"ui.c"
  16              		.text
  17              	.Ltext0:
  18              		.cfi_sections	.debug_frame
  19              		.section	.text.call_void_func,"ax",%progbits
  20              		.align	1
  21              		.code	16
  22              		.thumb_func
  23              		.type	call_void_func, %function
  24              	call_void_func:
  25              	.LFB54:
  26              		.file 1 "ui.c"
   1:ui.c          **** /* ========================================
   2:ui.c          ****  *
   3:ui.c          ****  * Copyright Arachnid Labs, 2013
   4:ui.c          ****  * All Rights Reserved
   5:ui.c          ****  * UNPUBLISHED, LICENSED SOFTWARE.
   6:ui.c          ****  *
   7:ui.c          ****  * CONFIDENTIAL AND PROPRIETARY INFORMATION
   8:ui.c          ****  * WHICH IS THE PROPERTY OF your company.
   9:ui.c          ****  *
  10:ui.c          ****  * ========================================
  11:ui.c          **** */
  12:ui.c          **** 
  13:ui.c          **** #include "comms.h"
  14:ui.c          **** #include "calibrate.h"
  15:ui.c          **** #include "tasks.h"
  16:ui.c          **** #include "Display_font.h"
  17:ui.c          **** #include "config.h"
  18:ui.c          **** #include <FreeRTOS.h>
  19:ui.c          **** #include <task.h>
  20:ui.c          **** #include <queue.h>
  21:ui.c          **** #include <stdio.h>
  22:ui.c          **** #include <stdlib.h>
  23:ui.c          **** 
  24:ui.c          **** const uint16 termistor_tbl[166]={71,75,79,83,88,92,98,103,109,116,122,130,137,145,153,162,171,180,\
  25:ui.c          ****     190,200,210,221,232,243,254,266,278,291,304,318,331,345,360,375,390,406,422,439,455,473,490,\
  26:ui.c          ****     509,528,547,566,586,606,627,648,669,690,712,733,755,777,799,822,844,867,889,911,934,957,979,\
  27:ui.c          ****     1001,1024,1046,1068,1090,1112,1134,1155,1176,1197,1218,1238,1259,1278,1298,1317,1336,1355,\
  28:ui.c          ****     1373,1391,1409,1426,1443,1459,1476,1491,1507,1522,1537,1551,1565,1579,1592,1605,1618,1630,\
  29:ui.c          ****     1642,1654,1665,1676,1687,1697,1708,1717,1727,1736,1745,1754,1762,1771,1779,1786,1794,1801,1808,
  30:ui.c          ****     1815,1822,1828,1834,1840,1846,1852,1857,1863,1868,1873,1877,1882,1887,1891,1895,1900,1904,1907,
  31:ui.c          ****     1911,1915,1919,1922,1925,1928,1932,1935,1938,1941,1943,1946,1949,1952,1954,1957,1959,1961,1964,
ARM GAS  C:\Users\VIDEOH~1\AppData\Local\Temp\ccpdN5tN.s 			page 2


  32:ui.c          ****     1966,1968,1970,1972,1974,1976,1978,1980,1982};
  33:ui.c          **** 
  34:ui.c          **** 
  35:ui.c          **** static int8 get_temperature_calc(void);
  36:ui.c          **** static void show_temperature(uint8 page,uint8 col,int8 t);
  37:ui.c          **** 
  38:ui.c          **** xQueueHandle ui_queue;
  39:ui.c          **** 
  40:ui.c          **** typedef struct {
  41:ui.c          **** 	void (*func)(char *);
  42:ui.c          **** 	char *label;
  43:ui.c          **** } readout_function_impl;
  44:ui.c          **** 
  45:ui.c          **** typedef struct state_func_t {
  46:ui.c          **** 	struct state_func_t (*func)(const void*);
  47:ui.c          **** 	const void *arg;
  48:ui.c          **** 	const int8 is_main_state;
  49:ui.c          **** } state_func;
  50:ui.c          **** 
  51:ui.c          **** typedef enum {
  52:ui.c          **** 	VALUE_TYPE_CURRENT_RANGE,
  53:ui.c          **** } value_type;
  54:ui.c          **** 
  55:ui.c          **** typedef struct {
  56:ui.c          **** 	const char *caption;
  57:ui.c          **** 	const state_func new_state;
  58:ui.c          **** } menuitem;
  59:ui.c          **** 
  60:ui.c          **** typedef struct {
  61:ui.c          **** 	const char *title;
  62:ui.c          **** 	const menuitem items[];
  63:ui.c          **** } menudata;
  64:ui.c          **** 
  65:ui.c          **** typedef struct {
  66:ui.c          **** 	const value_type type;
  67:ui.c          **** 	const void *target;
  68:ui.c          **** 	const int value;
  69:ui.c          **** } valueconfig;
  70:ui.c          **** 
  71:ui.c          **** typedef void (*void_func)();
  72:ui.c          **** 
  73:ui.c          **** static state_func cc_load(const void*);
  74:ui.c          **** static state_func menu(const void*);
  75:ui.c          **** static state_func ui_set_min_voltage(const void*);
  76:ui.c          **** static state_func ui_calibrate(const void*);
  77:ui.c          **** static state_func display_config(const void*);
  78:ui.c          **** static state_func set_contrast(const void *);
  79:ui.c          **** static state_func overlimit(const void*);
  80:ui.c          **** static state_func call_void_func(const void*);
  81:ui.c          **** static state_func upgrade(const void*);
  82:ui.c          **** static state_func set_cooler(const void *arg);
  83:ui.c          **** static void measure_Battery_ISR();
  84:ui.c          **** 
  85:ui.c          **** #define STATE_MAIN_MENU {menu, &main_menu, 0}/*Initally we start on this menu entry*/
  86:ui.c          **** #define STATE_TOOLS_MENU {menu,&tools_menu,0}/*Tools menu*/
  87:ui.c          **** /*Following are all the details for the menu items*/
  88:ui.c          **** #define STATE_MAIN                  {NULL, NULL, 0}
ARM GAS  C:\Users\VIDEOH~1\AppData\Local\Temp\ccpdN5tN.s 			page 3


  89:ui.c          **** #define STATE_CC_LOAD               {cc_load, NULL, 1}
  90:ui.c          **** #define STATE_MIN_VOLTAGE           {ui_set_min_voltage, NULL, 0}
  91:ui.c          **** #define STATE_CALIBRATE             {ui_calibrate, NULL, 0}
  92:ui.c          **** #define STATE_CONFIGURE_CC_DISPLAY  {display_config, 0, 0}
  93:ui.c          **** #define STATE_SET_CONTRAST          {set_contrast, NULL, 0}
  94:ui.c          **** #define STATE_SET_COOLER            {set_cooler, NULL, 0}
  95:ui.c          **** #define STATE_LIMIT                 {overlimit, NULL, 0}
  96:ui.c          **** #define STATE_RESET_TOTALS          {call_void_func, (void_func)reset_running_totals, 0}
  97:ui.c          **** #define STATE_UPGRADE               {upgrade, NULL, 0}
  98:ui.c          **** #define STATE_BATTERY_ISR           {"Batt ISR", {call_void_func,measure_Battery_ISR , 0}}
  99:ui.c          **** 
 100:ui.c          **** const menudata set_readout_menu = {
 101:ui.c          **** 	"SETTINGS",
 102:ui.c          **** 	{
 103:ui.c          **** 		{"SetCur", {NULL, (void*)READOUT_CURRENT_SETPOINT, 0}},
 104:ui.c          **** 		{"ActualCur", {NULL, (void*)READOUT_CURRENT_USAGE, 0}},
 105:ui.c          **** 		{"Voltage", {NULL, (void*)READOUT_VOLTAGE, 0}},
 106:ui.c          **** 		{"Power", {NULL, (void*)READOUT_POWER, 0}},
 107:ui.c          **** 		{"Resist", {NULL, (void*)READOUT_RESISTANCE, 0}},
 108:ui.c          **** 		{"TotalCur", {NULL, (void*)READOUT_TOTAL_CURRENT, 0}},
 109:ui.c          **** 		{"TotalPwr", {NULL, (void*)READOUT_TOTAL_POWER, 0}},
 110:ui.c          **** 		{"None", {NULL, (void*)READOUT_NONE, 0}},
 111:ui.c          ****         {"EXIT", STATE_MAIN},
 112:ui.c          **** 		{NULL, {NULL, NULL, 0}},
 113:ui.c          **** 	}
 114:ui.c          **** };
 115:ui.c          **** 
 116:ui.c          **** const menudata choose_readout_menu = {
 117:ui.c          **** 	"Readouts",
 118:ui.c          **** 	{
 119:ui.c          **** 		{"MainDisp", {NULL, (void*)1, 0}},
 120:ui.c          **** 		{"UpDisp", {NULL, (void*)2, 0}},
 121:ui.c          **** 		{"DownDisp", {NULL, (void*)3, 0}},
 122:ui.c          ****         {"EXIT", STATE_MAIN},
 123:ui.c          **** 		{NULL, {NULL, NULL, 0}},
 124:ui.c          **** 	}
 125:ui.c          **** };
 126:ui.c          **** 
 127:ui.c          **** const menudata tools_menu = {
 128:ui.c          **** 	NULL,
 129:ui.c          **** 	{
 130:ui.c          **** 		STATE_BATTERY_ISR,
 131:ui.c          ****         {"EXIT", STATE_MAIN},
 132:ui.c          **** 		{NULL, {NULL, NULL, 0}},
 133:ui.c          **** 	}
 134:ui.c          **** };
 135:ui.c          **** 
 136:ui.c          **** 
 137:ui.c          **** const menudata main_menu = {
 138:ui.c          **** 	NULL,
 139:ui.c          **** 	{
 140:ui.c          **** 		{"C/C Load", STATE_CC_LOAD},
 141:ui.c          **** 		{"Readouts", STATE_CONFIGURE_CC_DISPLAY},
 142:ui.c          ****         {"MinVolt", STATE_MIN_VOLTAGE},
 143:ui.c          **** 		{"Reset", STATE_RESET_TOTALS},
 144:ui.c          ****         {"Tools",STATE_TOOLS_MENU},
 145:ui.c          **** 		{"Contrast", STATE_SET_CONTRAST},
ARM GAS  C:\Users\VIDEOH~1\AppData\Local\Temp\ccpdN5tN.s 			page 4


 146:ui.c          **** 		{"Cooler", STATE_SET_COOLER},
 147:ui.c          **** 		{"Calibrate", STATE_CALIBRATE},
 148:ui.c          **** 		{"UpgrMode", STATE_UPGRADE},
 149:ui.c          ****         {"EXIT", STATE_MAIN},
 150:ui.c          **** 		{NULL, {NULL, NULL, 0}},
 151:ui.c          **** 	}
 152:ui.c          **** };
 153:ui.c          **** 
 154:ui.c          **** 
 155:ui.c          **** 
 156:ui.c          **** volatile portTickType long_button_press_tick_count = portMAX_DELAY;
 157:ui.c          **** 
 158:ui.c          **** void vApplicationTickHook( void )
 159:ui.c          **** {
 160:ui.c          **** 	static ui_event event = {.type = UI_EVENT_BUTTONPRESS, .when = 0};
 161:ui.c          ****     static portTickType before = 0;
 162:ui.c          **** 
 163:ui.c          ****     int button_now = QuadButton_Read();
 164:ui.c          ****     if (button_now != event.int_arg)
 165:ui.c          ****     {
 166:ui.c          ****         before = event.when;
 167:ui.c          ****         event.when = xTaskGetTickCountFromISR();
 168:ui.c          **** 
 169:ui.c          ****     	event.int_arg = button_now;
 170:ui.c          **** 
 171:ui.c          ****         // it is suggested to have debounce timer of 5-30 ms in different sources, so going with co
 172:ui.c          ****     	if(event.int_arg) {
 173:ui.c          ****             long_button_press_tick_count = portMAX_DELAY;
 174:ui.c          ****             if(event.when - before >= (30 * configTICK_RATE_HZ / 1000)) {
 175:ui.c          ****     		    xQueueSendToBackFromISR(ui_queue, &event, NULL);
 176:ui.c          ****             }
 177:ui.c          ****     	} else {
 178:ui.c          ****             long_button_press_tick_count = event.when + configTICK_RATE_HZ;
 179:ui.c          ****         }
 180:ui.c          ****     }
 181:ui.c          **** }
 182:ui.c          **** 
 183:ui.c          **** // Maps current state (index) to next state for a forward transition.
 184:ui.c          **** const int8 quadrature_states[] = {0x1, 0x3, 0x0, 0x2};
 185:ui.c          **** 
 186:ui.c          **** CY_ISR(quadrature_event_isr) {
 187:ui.c          **** 	static ui_event event = {.type = UI_EVENT_UPDOWN, .when = 0, .int_arg = 0};
 188:ui.c          ****     static int8 last_levels = 3;
 189:ui.c          **** 	static int8 count = 0;
 190:ui.c          ****     static portTickType before = 0;
 191:ui.c          **** 
 192:ui.c          **** 	int levels = Quadrature_Read();
 193:ui.c          **** 	Quadrature_ClearInterrupt();
 194:ui.c          **** 
 195:ui.c          **** 	if(quadrature_states[last_levels] == levels) {
 196:ui.c          **** 		count += 1;
 197:ui.c          **** 		last_levels = levels;
 198:ui.c          **** 	} else if(quadrature_states[levels] == last_levels) {
 199:ui.c          **** 		count -= 1;
 200:ui.c          **** 		last_levels = levels;
 201:ui.c          **** 	}
 202:ui.c          **** 
ARM GAS  C:\Users\VIDEOH~1\AppData\Local\Temp\ccpdN5tN.s 			page 5


 203:ui.c          **** 	if(abs(count) >= 4) {
 204:ui.c          ****         before = event.when;
 205:ui.c          ****         event.when = xTaskGetTickCountFromISR();
 206:ui.c          **** 
 207:ui.c          ****         // calculate step size that is inversely proportional to the time that has passed since las
 208:ui.c          ****         event.duration = event.when - before;
 209:ui.c          ****         if(event.duration < 1)
 210:ui.c          ****             event.duration = 1;
 211:ui.c          **** 
 212:ui.c          ****         event.int_arg = count / 4;
 213:ui.c          **** 		xQueueSendToBackFromISR(ui_queue, &event, NULL);
 214:ui.c          **** 		count = count % 4;
 215:ui.c          **** 	}
 216:ui.c          **** }
 217:ui.c          **** 
 218:ui.c          **** static void format_number(int num, const char *suffix, char *out) {
 219:ui.c          **** 	if(num < 0)
 220:ui.c          **** 		num = 0;
 221:ui.c          **** 
 222:ui.c          **** 	int magnitude = 1;
 223:ui.c          **** 	while(num >= 1000000) {
 224:ui.c          **** 		num /= 1000;
 225:ui.c          **** 		magnitude++;
 226:ui.c          **** 	}
 227:ui.c          **** 
 228:ui.c          **** 	int whole = num / 1000, remainder = num % 1000;
 229:ui.c          **** 	if(whole < 10) {
 230:ui.c          **** 		// Format: x.xx
 231:ui.c          **** 		sprintf(out, "%1d.%02d", whole, remainder / 10);
 232:ui.c          **** 	} else if(whole < 100) {
 233:ui.c          **** 		// Format: xx.x
 234:ui.c          **** 		sprintf(out, "%02d.%1d", whole, remainder / 100);
 235:ui.c          **** 	} else {
 236:ui.c          **** 		// Format: xxx
 237:ui.c          **** 		sprintf(out, "%03d", whole);
 238:ui.c          **** 	}
 239:ui.c          **** 
 240:ui.c          **** 	if(magnitude == 1) strcat(out, "m");
 241:ui.c          ****     strcat(out, suffix);
 242:ui.c          **** }
 243:ui.c          **** 
 244:ui.c          **** static void format_number_simple(int num, const char *suffix, char *out) {
 245:ui.c          **** 	if(num < 0) num = 0;
 246:ui.c          **** 	num /= 1000;
 247:ui.c          **** 	int whole = num / 1000, remainder = num % 1000;
 248:ui.c          **** 	sprintf(out, "%3d.%03d%s", whole, remainder, suffix);
 249:ui.c          **** }
 250:ui.c          **** 
 251:ui.c          **** static void adjust_current_setpoint(int delta, portTickType duration) {
 252:ui.c          ****     // Implement encoder acceleration
 253:ui.c          ****     int step = (((ENCODER_ACCEL_CONSTANT * configTICK_RATE_HZ) / 1000) / duration);
 254:ui.c          ****     if(step < 1)
 255:ui.c          ****         step = 1;
 256:ui.c          **** 	set_current(state.current_setpoint + delta * step * CURRENT_STEP);
 257:ui.c          ****     uart_printf("set %d\r\n", state.current_setpoint / 1000);
 258:ui.c          **** }
 259:ui.c          **** 
ARM GAS  C:\Users\VIDEOH~1\AppData\Local\Temp\ccpdN5tN.s 			page 6


 260:ui.c          **** static void next_event(ui_event *event) {
 261:ui.c          **** 	static portTickType last_tick = 0;
 262:ui.c          ****     static uint8 long_press_sent = 0;
 263:ui.c          **** 
 264:ui.c          ****     portTickType now = xTaskGetTickCount();
 265:ui.c          **** 
 266:ui.c          ****     if(now > long_button_press_tick_count && !long_press_sent) {
 267:ui.c          ****         event->type = UI_EVENT_LONG_BUTTONPRESS;
 268:ui.c          ****         event->when = now;
 269:ui.c          ****         event->int_arg = 0;
 270:ui.c          ****         long_press_sent = 1;
 271:ui.c          ****     } else if(now - last_tick >  configTICK_RATE_HZ / UI_TASK_FREQUENCY
 272:ui.c          ****         || !xQueueReceive(ui_queue, event, configTICK_RATE_HZ / UI_TASK_FREQUENCY - (now - last_tic
 273:ui.c          **** 		event->type = UI_EVENT_TICK;
 274:ui.c          **** 		event->when = now;
 275:ui.c          **** 		last_tick = now;
 276:ui.c          **** #ifdef USE_WATCHDOG
 277:ui.c          ****         CySysWdtResetCounters(CY_SYS_WDT_COUNTER0_RESET);
 278:ui.c          **** #endif
 279:ui.c          **** 	} else if(event->type == UI_EVENT_BOOTLOAD) {
 280:ui.c          ****         // Bootloading overrides everything
 281:ui.c          ****         upgrade(NULL); // Never returns
 282:ui.c          ****     } else if(event->type == UI_EVENT_BUTTONPRESS && long_press_sent) {
 283:ui.c          ****         long_press_sent = 0;
 284:ui.c          **** 		event->type = UI_EVENT_TICK;
 285:ui.c          **** 		event->when = now;
 286:ui.c          **** 		last_tick = now;
 287:ui.c          **** #ifdef USE_WATCHDOG
 288:ui.c          ****         CySysWdtResetCounters(CY_SYS_WDT_COUNTER0_RESET);
 289:ui.c          **** #endif
 290:ui.c          ****     }
 291:ui.c          **** }
 292:ui.c          **** 
 293:ui.c          **** static void draw_menu(const menudata *menu, int selected) {
 294:ui.c          **** 	int start_row = 7;
 295:ui.c          **** 	int height = 4;
 296:ui.c          **** 
 297:ui.c          **** 	if(menu->title) {
 298:ui.c          **** 		int8 padding = (127 - strlen(menu->title) * 12) / 2;
 299:ui.c          **** 		Display_Clear(6, 2, 7, padding + 1, 0xFF);
 300:ui.c          **** 		Display_DrawText(7, padding + 1, menu->title, 1);
 301:ui.c          **** 		Display_Clear(6, 127 - padding - 1, 7, 127, 0xFF);
 302:ui.c          **** 		start_row-=2;
 303:ui.c          **** 		height--;
 304:ui.c          **** 	}
 305:ui.c          **** 
 306:ui.c          **** 	Display_DrawText(start_row, 115, ((selected / height) > 0)?FONT_GLYPH_UARR:" ", 0);
 307:ui.c          **** 
 308:ui.c          **** 	// Find the block of items the selected element is in
 309:ui.c          **** 	const menuitem *current = &menu->items[selected - selected % height];
 310:ui.c          **** 	selected %= height;
 311:ui.c          **** 
 312:ui.c          **** 	for(int i = 0; i < height; i++) {
 313:ui.c          **** 		if(current->caption != NULL) {
 314:ui.c          **** 			Display_DrawText(start_row-i*2, 2, current->caption, i == selected);
 315:ui.c          **** 			Display_Clear(start_row-i*2-1, strlen(current->caption) * 12 + 1,  start_row -i*2, 114, (i == se
 316:ui.c          **** 			current++;
ARM GAS  C:\Users\VIDEOH~1\AppData\Local\Temp\ccpdN5tN.s 			page 7


 317:ui.c          **** 		} else {
 318:ui.c          **** 			Display_Clear(start_row-i*2-1, 0, start_row -i*2, 127, 0);
 319:ui.c          **** 		}
 320:ui.c          **** 	}
 321:ui.c          **** 
 322:ui.c          **** 	if(current->caption != NULL) {
 323:ui.c          **** 		Display_DrawText(1, 115, FONT_GLYPH_DARR, 0);
 324:ui.c          **** 	} else {
 325:ui.c          **** 		Display_DrawText(1, 115, " ", 0);
 326:ui.c          **** 	}
 327:ui.c          **** }
 328:ui.c          **** 
 329:ui.c          **** void print_nothing(char *buf) {
 330:ui.c          **** 	strcpy(buf, "      ");
 331:ui.c          **** }
 332:ui.c          **** 
 333:ui.c          **** void print_setpoint(char *buf) {
 334:ui.c          **** 	format_number(get_current_setpoint(), "A", buf);
 335:ui.c          **** }
 336:ui.c          **** 
 337:ui.c          **** void print_current_usage(char *buf) {
 338:ui.c          **** 	format_number(get_current_usage(), "A", buf);
 339:ui.c          **** }
 340:ui.c          **** 
 341:ui.c          **** void print_voltage(char *buf) {
 342:ui.c          **** 	format_number(get_voltage(), "V", buf);
 343:ui.c          **** }
 344:ui.c          **** 
 345:ui.c          **** void print_power(char *buf) {
 346:ui.c          **** 	int power = (get_current_usage() / 1000) * (get_voltage() / 1000);
 347:ui.c          **** 	format_number(power, "W", buf);
 348:ui.c          **** }
 349:ui.c          **** 
 350:ui.c          **** void print_resistance(char *buf) {
 351:ui.c          **** 	int current = get_current_usage();
 352:ui.c          **** 	if(current > 0) {
 353:ui.c          **** 		format_number(((get_voltage() * 10) / (current / 100000)), FONT_GLYPH_OHM, buf);
 354:ui.c          **** 	} else {
 355:ui.c          **** 		strcpy(buf, "----" FONT_GLYPH_OHM);
 356:ui.c          **** 	}
 357:ui.c          **** }
 358:ui.c          **** 
 359:ui.c          **** 
 360:ui.c          **** void print_amp_hours(char *buf) {
 361:ui.c          **** 	format_number(get_microamp_hours(), "Ah", buf);
 362:ui.c          **** }
 363:ui.c          **** 
 364:ui.c          **** void print_watt_hours(char *buf) {
 365:ui.c          **** 	format_number(get_microwatt_hours(), "Wh", buf);
 366:ui.c          **** }
 367:ui.c          **** 
 368:ui.c          **** const readout_function_impl readout_functions[] = {
 369:ui.c          **** 	{print_nothing, ""},
 370:ui.c          **** 	{print_setpoint, "SET"},
 371:ui.c          **** 	{print_current_usage, "ACT"},
 372:ui.c          **** 	{print_voltage, ""},
 373:ui.c          **** 	{print_power, ""},
ARM GAS  C:\Users\VIDEOH~1\AppData\Local\Temp\ccpdN5tN.s 			page 8


 374:ui.c          **** 	{print_resistance, ""},
 375:ui.c          **** 	{print_amp_hours, ""},
 376:ui.c          **** 	{print_watt_hours, ""},
 377:ui.c          **** 	{print_nothing, ""}
 378:ui.c          **** };
 379:ui.c          **** 
 380:ui.c          **** static void draw_status(const display_config_t *config, uint8 force_current_setpoint_readout) {
 381:ui.c          **** 	char buf[8];
 382:ui.c          **** 	// Draw the main info
 383:ui.c          **** 	const readout_function_impl *readout = &readout_functions[force_current_setpoint_readout?READOUT_C
 384:ui.c          **** 	if(readout->func != print_nothing) {
 385:ui.c          **** 		readout->func(buf);
 386:ui.c          ****     	Display_Clear(4, 72, 7, 77, 0);
 387:ui.c          **** 		Display_Clear(4, 77, 5, 114, 0);
 388:ui.c          **** 		Display_DrawBigNumbers(7, 0, buf);
 389:ui.c          **** 	} else {
 390:ui.c          **** 		Display_Clear(4, 0, 7, 77, 0);
 391:ui.c          **** 		Display_Clear(4, 77, 5, 114, 0);
 392:ui.c          **** 	}
 393:ui.c          **** 
 394:ui.c          **** 	// Draw the type in the top right
 395:ui.c          **** 	uint8 labelsize = strlen(readout->label) * 12;
 396:ui.c          **** 	Display_DrawText(7, 127 - labelsize, readout->label, 1);
 397:ui.c          **** 	if(labelsize < 36) Display_Clear(6, 91, 7, 127 - labelsize, 0);
 398:ui.c          **** 
 399:ui.c          ****     // Draw the state in the middle right
 400:ui.c          ****     if(get_output_mode() == OUTPUT_MODE_OFF) {
 401:ui.c          ****     	Display_DrawText(1, 91, "OFF", 1);
 402:ui.c          ****     } else {
 403:ui.c          ****         Display_Clear(0, 91, 1, 127, 0);
 404:ui.c          ****     }
 405:ui.c          **** 
 406:ui.c          **** 	// Draw the two smaller displays
 407:ui.c          **** 	for(int i = 0; i < 2; i++) {
 408:ui.c          **** 		readout = &readout_functions[config->readouts[i + 1]];
 409:ui.c          **** 		readout->func(buf);
 410:ui.c          **** 		Display_Clear(2-i*2,48,3-i*2,79,0);
 411:ui.c          **** 		Display_DrawText(3-i*2, 0, buf, 0);
 412:ui.c          **** 	}
 413:ui.c          ****     //COOLER
 414:ui.c          ****     if(get_cooler_state()) 
 415:ui.c          ****     {   if(CoolerStatusReg_Read()&1)
 416:ui.c          ****             Display_DrawText(5, 115,FONT_GLYPH_GOOD_COOLER, 0);
 417:ui.c          ****         else
 418:ui.c          ****             Display_DrawText(5, 115,FONT_GLYPH_BAD_COOLER, 0);
 419:ui.c          ****     }
 420:ui.c          ****     else Display_Clear(4,115,5,127,0);
 421:ui.c          ****     show_temperature(3,79,get_temperature_calc());
 422:ui.c          **** }
 423:ui.c          **** 
 424:ui.c          **** static int8 get_temperature_calc(void)
 425:ui.c          **** {
 426:ui.c          ****     uint8 low_i=0;
 427:ui.c          ****     uint8 high_i=TEMPERATURE_MAX-TEMPERATURE_MIN;
 428:ui.c          ****     uint8 median_i=high_i>>1;
 429:ui.c          ****     uint16 term=get_termistor();
 430:ui.c          ****     do
ARM GAS  C:\Users\VIDEOH~1\AppData\Local\Temp\ccpdN5tN.s 			page 9


 431:ui.c          ****     {
 432:ui.c          ****         median_i+=low_i;
 433:ui.c          ****         if(term>termistor_tbl[median_i]) low_i=median_i;
 434:ui.c          ****         else 
 435:ui.c          ****         {
 436:ui.c          ****             high_i=median_i;
 437:ui.c          ****             if(term==termistor_tbl[median_i]) break;
 438:ui.c          ****         }
 439:ui.c          ****         median_i=(high_i-low_i)>>1;
 440:ui.c          ****     }while(median_i);
 441:ui.c          ****     return (int16)high_i+TEMPERATURE_MIN;
 442:ui.c          **** }
 443:ui.c          **** 
 444:ui.c          **** void show_temperature(uint8 page,uint8 col,int8 t)
 445:ui.c          **** {
 446:ui.c          ****     char out[8];
 447:ui.c          ****     sprintf(out,"%3d",t);
 448:ui.c          ****     strcat(out,FONT_GLYPH_CELSIUS);
 449:ui.c          ****     //Display_Clear(page-1,col,page,col+48,0);
 450:ui.c          ****     Display_DrawText(page, col,out, 0);
 451:ui.c          **** }
 452:ui.c          **** 
 453:ui.c          **** static state_func display_config(const void *arg) {
 454:ui.c          **** 	const display_config_t *config = &settings.display_settings.numbered[(int)arg];
 455:ui.c          **** 
 456:ui.c          **** 	state_func display = menu(&choose_readout_menu);
 457:ui.c          **** 	if(display.arg == NULL)
 458:ui.c          **** 		return display;
 459:ui.c          **** 
 460:ui.c          **** 	state_func readout = menu(&set_readout_menu);
 461:ui.c          **** 	if(readout.arg == NULL)
 462:ui.c          **** 		return readout;
 463:ui.c          **** 
 464:ui.c          ****     memcpy((uint8*)&(config->readouts[(int)display.arg - 1]),(uint8*)&((readout_function){(readout_
 465:ui.c          **** 	EEPROM_Write(0,(void*)&settings,sizeof(settings_t));
 466:ui.c          **** 
 467:ui.c          **** 	return (state_func)STATE_MAIN;
 468:ui.c          **** }
 469:ui.c          **** 
 470:ui.c          **** //Delay and resets the watchdog every second
 471:ui.c          **** static void delayWithWatchDog(uint8_t seconds)
 472:ui.c          **** {
 473:ui.c          ****     CySysWdtResetCounters(CY_SYS_WDT_COUNTER0_RESET);
 474:ui.c          ****      for(uint8_t i=0;i<seconds;i++)
 475:ui.c          ****     {
 476:ui.c          ****         CyDelay(1000);
 477:ui.c          ****         #if USE_WATCHDOG
 478:ui.c          ****         CySysWdtResetCounters(CY_SYS_WDT_COUNTER0_RESET);
 479:ui.c          ****         #endif
 480:ui.c          ****     }
 481:ui.c          **** }
 482:ui.c          **** // Handles measuring the battery ISR with two current steps
 483:ui.c          **** static void measure_Battery_ISR()
 484:ui.c          **** {
 485:ui.c          ****     Display_ClearAll();
 486:ui.c          ****     Display_DrawText(7, 0, "BATT TEST", 1);
 487:ui.c          ****     //This is based roughly on what i can find of the  IEC 61951-1:2005 online
ARM GAS  C:\Users\VIDEOH~1\AppData\Local\Temp\ccpdN5tN.s 			page 10


 488:ui.c          ****     //We use a current of 1A for testing.
 489:ui.c          ****     //First we measure light load
 490:ui.c          ****     Display_DrawText(5, 0, "L Load RUN", 0);
 491:ui.c          ****     set_current(100000);//100mA
 492:ui.c          ****     delayWithWatchDog(10);//light load for 10 seconds
 493:ui.c          ****     uint32_t halfLoadVoltage = get_voltage()*10; //measure in the middle (in 10x vuV)
 494:ui.c          ****     Display_DrawText(5, 76, "PASS", 1);
 495:ui.c          ****     Display_DrawText(3, 0, "F Load RUN", 0);
 496:ui.c          ****     set_current(1000000);//1A
 497:ui.c          ****     delayWithWatchDog(3);//full load for 3 seconds
 498:ui.c          ****     uint32_t fullLoadVoltage = get_voltage()*10;
 499:ui.c          ****     set_current(0);//stop pulling current
 500:ui.c          ****     //Test done
 501:ui.c          ****     //Compute results
 502:ui.c          ****     //Ohms = V/A => We compute two values using the low current
 503:ui.c          ****     //Using Rdc = (V1-V2)/(I2-I1)
 504:ui.c          ****     int Rdc = (halfLoadVoltage-fullLoadVoltage)/(9);
 505:ui.c          ****     //would be divide by 900*100, but we want to shift into milli ohms by 1000*1000
 506:ui.c          ****     //so we move the divisor by 100 and shift the top by 10 previously
 507:ui.c          ****     //Basically we avoid doing the divide as we need to multiple to get the answer scaled correctly
 508:ui.c          ****     //So we basically just remove 1000 from that multiple ^ and then the other part is avoid as we 
 509:ui.c          ****     //So we want an answer that is 10^3 larger than 'correct'
 510:ui.c          ****     Display_DrawText(3, 76, "PASS", 1);
 511:ui.c          ****     char buf[16];
 512:ui.c          ****     format_number(Rdc, FONT_GLYPH_OHM " " FONT_GLYPH_ENTER "Back", buf);//draw it in with the right
 513:ui.c          ****     Display_DrawText(1, 0, buf, 0);
 514:ui.c          ****     //wait for user to acknowledge
 515:ui.c          ****     ui_event event;
 516:ui.c          **** 	event.type = UI_EVENT_NONE;
 517:ui.c          **** 	while(event.type != UI_EVENT_BUTTONPRESS || event.int_arg != 1) {
 518:ui.c          **** 		next_event(&event);
 519:ui.c          **** 	}
 520:ui.c          ****      //were done :)
 521:ui.c          **** }
 522:ui.c          **** 
 523:ui.c          **** static state_func call_void_func(const void *arg) {
  27              		.loc 1 523 0
  28              		.cfi_startproc
  29              		@ args = 0, pretend = 0, frame = 0
  30              		@ frame_needed = 0, uses_anonymous_args = 0
  31              	.LVL0:
  32 0000 10B5     		push	{r4, lr}
  33              		.cfi_def_cfa_offset 8
  34              		.cfi_offset 4, -8
  35              		.cfi_offset 14, -4
  36              		.loc 1 523 0
  37 0002 0400     		movs	r4, r0
 524:ui.c          **** 	((void_func)arg)();
  38              		.loc 1 524 0
  39 0004 8847     		blx	r1
  40              	.LVL1:
 525:ui.c          **** 	return (state_func)STATE_MAIN;
  41              		.loc 1 525 0
  42 0006 0023     		movs	r3, #0
 526:ui.c          **** }
  43              		.loc 1 526 0
  44 0008 2000     		movs	r0, r4
ARM GAS  C:\Users\VIDEOH~1\AppData\Local\Temp\ccpdN5tN.s 			page 11


 525:ui.c          **** 	return (state_func)STATE_MAIN;
  45              		.loc 1 525 0
  46 000a 2360     		str	r3, [r4]
  47 000c 6360     		str	r3, [r4, #4]
  48 000e 2372     		strb	r3, [r4, #8]
  49              		.loc 1 526 0
  50              		@ sp needed
  51              	.LVL2:
  52 0010 10BD     		pop	{r4, pc}
  53              		.cfi_endproc
  54              	.LFE54:
  55              		.size	call_void_func, .-call_void_func
  56              		.global	__aeabi_idiv
  57              		.global	__aeabi_idivmod
  58              		.section	.text.format_number_simple,"ax",%progbits
  59              		.align	1
  60              		.code	16
  61              		.thumb_func
  62              		.type	format_number_simple, %function
  63              	format_number_simple:
  64              	.LFB36:
 244:ui.c          **** 	if(num < 0) num = 0;
  65              		.loc 1 244 0
  66              		.cfi_startproc
  67              		@ args = 0, pretend = 0, frame = 0
  68              		@ frame_needed = 0, uses_anonymous_args = 0
  69              	.LVL3:
  70 0000 F7B5     		push	{r0, r1, r2, r4, r5, r6, r7, lr}
  71              		.cfi_def_cfa_offset 32
  72              		.cfi_offset 0, -32
  73              		.cfi_offset 1, -28
  74              		.cfi_offset 2, -24
  75              		.cfi_offset 4, -20
  76              		.cfi_offset 5, -16
  77              		.cfi_offset 6, -12
  78              		.cfi_offset 7, -8
  79              		.cfi_offset 14, -4
  80 0002 C443     		mvns	r4, r0
 244:ui.c          **** 	if(num < 0) num = 0;
  81              		.loc 1 244 0
  82 0004 0E00     		movs	r6, r1
 248:ui.c          **** }
  83              		.loc 1 248 0
  84 0006 FA21     		movs	r1, #250
  85              	.LVL4:
  86 0008 E417     		asrs	r4, r4, #31
  87 000a 0440     		ands	r4, r0
  88              	.LVL5:
  89 000c 8900     		lsls	r1, r1, #2
  90 000e 2000     		movs	r0, r4
 244:ui.c          **** 	if(num < 0) num = 0;
  91              		.loc 1 244 0
  92 0010 1500     		movs	r5, r2
 248:ui.c          **** }
  93              		.loc 1 248 0
  94 0012 FFF7FEFF 		bl	__aeabi_idiv
  95              	.LVL6:
ARM GAS  C:\Users\VIDEOH~1\AppData\Local\Temp\ccpdN5tN.s 			page 12


  96 0016 FA21     		movs	r1, #250
  97 0018 8900     		lsls	r1, r1, #2
  98 001a FFF7FEFF 		bl	__aeabi_idivmod
  99              	.LVL7:
 100 001e 2000     		movs	r0, r4
 101 0020 0F00     		movs	r7, r1
 102 0022 0549     		ldr	r1, .L4
 103 0024 FFF7FEFF 		bl	__aeabi_idiv
 104              	.LVL8:
 105 0028 0096     		str	r6, [sp]
 106 002a 0200     		movs	r2, r0
 107 002c 3B00     		movs	r3, r7
 108 002e 2800     		movs	r0, r5
 109 0030 0249     		ldr	r1, .L4+4
 110 0032 FFF7FEFF 		bl	sprintf
 111              	.LVL9:
 249:ui.c          **** 
 112              		.loc 1 249 0
 113              		@ sp needed
 114              	.LVL10:
 115              	.LVL11:
 116              	.LVL12:
 117 0036 F7BD     		pop	{r0, r1, r2, r4, r5, r6, r7, pc}
 118              	.L5:
 119              		.align	2
 120              	.L4:
 121 0038 40420F00 		.word	1000000
 122 003c 00000000 		.word	.LC2
 123              		.cfi_endproc
 124              	.LFE36:
 125              		.size	format_number_simple, .-format_number_simple
 126              		.section	.text.format_number,"ax",%progbits
 127              		.align	1
 128              		.code	16
 129              		.thumb_func
 130              		.type	format_number, %function
 131              	format_number:
 132              	.LFB35:
 218:ui.c          **** 	if(num < 0)
 133              		.loc 1 218 0
 134              		.cfi_startproc
 135              		@ args = 0, pretend = 0, frame = 8
 136              		@ frame_needed = 0, uses_anonymous_args = 0
 137              	.LVL13:
 138 0000 F7B5     		push	{r0, r1, r2, r4, r5, r6, r7, lr}
 139              		.cfi_def_cfa_offset 32
 140              		.cfi_offset 0, -32
 141              		.cfi_offset 1, -28
 142              		.cfi_offset 2, -24
 143              		.cfi_offset 4, -20
 144              		.cfi_offset 5, -16
 145              		.cfi_offset 6, -12
 146              		.cfi_offset 7, -8
 147              		.cfi_offset 14, -4
 218:ui.c          **** 	if(num < 0)
 148              		.loc 1 218 0
 149 0002 0400     		movs	r4, r0
ARM GAS  C:\Users\VIDEOH~1\AppData\Local\Temp\ccpdN5tN.s 			page 13


 150 0004 0191     		str	r1, [sp, #4]
 151 0006 1500     		movs	r5, r2
 152 0008 0127     		movs	r7, #1
 219:ui.c          **** 		num = 0;
 153              		.loc 1 219 0
 154 000a 0028     		cmp	r0, #0
 155 000c 0ADB     		blt	.L14
 223:ui.c          **** 		num /= 1000;
 156              		.loc 1 223 0
 157 000e 1E4E     		ldr	r6, .L17
 158              	.LVL14:
 159              	.L8:
 160 0010 B442     		cmp	r4, r6
 161 0012 08DD     		ble	.L7
 224:ui.c          **** 		magnitude++;
 162              		.loc 1 224 0
 163 0014 FA21     		movs	r1, #250
 164 0016 2000     		movs	r0, r4
 165 0018 8900     		lsls	r1, r1, #2
 166 001a FFF7FEFF 		bl	__aeabi_idiv
 167              	.LVL15:
 225:ui.c          **** 	}
 168              		.loc 1 225 0
 169 001e 0137     		adds	r7, r7, #1
 170              	.LVL16:
 224:ui.c          **** 		magnitude++;
 171              		.loc 1 224 0
 172 0020 0400     		movs	r4, r0
 173              	.LVL17:
 174 0022 F5E7     		b	.L8
 175              	.LVL18:
 176              	.L14:
 220:ui.c          **** 
 177              		.loc 1 220 0
 178 0024 0024     		movs	r4, #0
 179              	.LVL19:
 180              	.L7:
 228:ui.c          **** 	if(whole < 10) {
 181              		.loc 1 228 0
 182 0026 FA21     		movs	r1, #250
 183 0028 2000     		movs	r0, r4
 184 002a 8900     		lsls	r1, r1, #2
 185 002c FFF7FEFF 		bl	__aeabi_idiv
 186              	.LVL20:
 187 0030 FA21     		movs	r1, #250
 188 0032 0600     		movs	r6, r0
 189              	.LVL21:
 190 0034 8900     		lsls	r1, r1, #2
 191 0036 2000     		movs	r0, r4
 192              	.LVL22:
 193 0038 FFF7FEFF 		bl	__aeabi_idivmod
 194              	.LVL23:
 195 003c 0800     		movs	r0, r1
 196              	.LVL24:
 229:ui.c          **** 		// Format: x.xx
 197              		.loc 1 229 0
 198 003e 092E     		cmp	r6, #9
ARM GAS  C:\Users\VIDEOH~1\AppData\Local\Temp\ccpdN5tN.s 			page 14


 199 0040 06DC     		bgt	.L10
 231:ui.c          **** 	} else if(whole < 100) {
 200              		.loc 1 231 0
 201 0042 0A21     		movs	r1, #10
 202 0044 FFF7FEFF 		bl	__aeabi_idiv
 203              	.LVL25:
 204 0048 3200     		movs	r2, r6
 205 004a 0300     		movs	r3, r0
 206 004c 0F49     		ldr	r1, .L17+4
 207 004e 07E0     		b	.L15
 208              	.LVL26:
 209              	.L10:
 232:ui.c          **** 		// Format: xx.x
 210              		.loc 1 232 0
 211 0050 632E     		cmp	r6, #99
 212 0052 09DC     		bgt	.L12
 234:ui.c          **** 	} else {
 213              		.loc 1 234 0
 214 0054 6421     		movs	r1, #100
 215 0056 FFF7FEFF 		bl	__aeabi_idiv
 216              	.LVL27:
 217 005a 3200     		movs	r2, r6
 218 005c 0300     		movs	r3, r0
 219 005e 0C49     		ldr	r1, .L17+8
 220              	.LVL28:
 221              	.L15:
 222 0060 2800     		movs	r0, r5
 223 0062 FFF7FEFF 		bl	sprintf
 224              	.LVL29:
 225 0066 04E0     		b	.L11
 226              	.LVL30:
 227              	.L12:
 237:ui.c          **** 	}
 228              		.loc 1 237 0
 229 0068 3200     		movs	r2, r6
 230 006a 0A49     		ldr	r1, .L17+12
 231 006c 2800     		movs	r0, r5
 232              	.LVL31:
 233 006e FFF7FEFF 		bl	sprintf
 234              	.LVL32:
 235              	.L11:
 240:ui.c          ****     strcat(out, suffix);
 236              		.loc 1 240 0
 237 0072 012F     		cmp	r7, #1
 238 0074 03D1     		bne	.L13
 240:ui.c          ****     strcat(out, suffix);
 239              		.loc 1 240 0 is_stmt 0 discriminator 1
 240 0076 0849     		ldr	r1, .L17+16
 241 0078 2800     		movs	r0, r5
 242 007a FFF7FEFF 		bl	strcat
 243              	.LVL33:
 244              	.L13:
 241:ui.c          **** }
 245              		.loc 1 241 0 is_stmt 1
 246 007e 2800     		movs	r0, r5
 247 0080 0199     		ldr	r1, [sp, #4]
 248 0082 FFF7FEFF 		bl	strcat
ARM GAS  C:\Users\VIDEOH~1\AppData\Local\Temp\ccpdN5tN.s 			page 15


 249              	.LVL34:
 242:ui.c          **** 
 250              		.loc 1 242 0
 251              		@ sp needed
 252              	.LVL35:
 253              	.LVL36:
 254 0086 F7BD     		pop	{r0, r1, r2, r4, r5, r6, r7, pc}
 255              	.L18:
 256              		.align	2
 257              	.L17:
 258 0088 3F420F00 		.word	999999
 259 008c 0B000000 		.word	.LC4
 260 0090 14000000 		.word	.LC6
 261 0094 1D000000 		.word	.LC8
 262 0098 22000000 		.word	.LC10
 263              		.cfi_endproc
 264              	.LFE35:
 265              		.size	format_number, .-format_number
 266              		.section	.text.print_voltage,"ax",%progbits
 267              		.align	1
 268              		.global	print_voltage
 269              		.code	16
 270              		.thumb_func
 271              		.type	print_voltage, %function
 272              	print_voltage:
 273              	.LFB43:
 341:ui.c          **** 	format_number(get_voltage(), "V", buf);
 274              		.loc 1 341 0
 275              		.cfi_startproc
 276              		@ args = 0, pretend = 0, frame = 0
 277              		@ frame_needed = 0, uses_anonymous_args = 0
 278              	.LVL37:
 279 0000 10B5     		push	{r4, lr}
 280              		.cfi_def_cfa_offset 8
 281              		.cfi_offset 4, -8
 282              		.cfi_offset 14, -4
 341:ui.c          **** 	format_number(get_voltage(), "V", buf);
 283              		.loc 1 341 0
 284 0002 0400     		movs	r4, r0
 342:ui.c          **** }
 285              		.loc 1 342 0
 286 0004 FFF7FEFF 		bl	get_voltage
 287              	.LVL38:
 288 0008 2200     		movs	r2, r4
 289 000a 0249     		ldr	r1, .L20
 290 000c FFF7FEFF 		bl	format_number
 291              	.LVL39:
 343:ui.c          **** 
 292              		.loc 1 343 0
 293              		@ sp needed
 294              	.LVL40:
 295 0010 10BD     		pop	{r4, pc}
 296              	.L21:
 297 0012 C046     		.align	2
 298              	.L20:
 299 0014 24000000 		.word	.LC12
 300              		.cfi_endproc
ARM GAS  C:\Users\VIDEOH~1\AppData\Local\Temp\ccpdN5tN.s 			page 16


 301              	.LFE43:
 302              		.size	print_voltage, .-print_voltage
 303              		.section	.text.upgrade,"ax",%progbits
 304              		.align	1
 305              		.code	16
 306              		.thumb_func
 307              		.type	upgrade, %function
 308              	upgrade:
 309              	.LFB68:
 527:ui.c          **** //Set the LCD contrast
 528:ui.c          **** static state_func set_contrast(const void *arg) {
 529:ui.c          **** 	Display_ClearAll();
 530:ui.c          **** 	Display_Clear(6, 2, 7, 127, 0xFF);
 531:ui.c          **** 	Display_DrawText(7, 16, "Contrast", 1);
 532:ui.c          **** 	Display_DrawText(1, 28, FONT_GLYPH_ENTER ": Done", 0);
 533:ui.c          **** 
 534:ui.c          **** 	// Left and right ends of the bar
 535:ui.c          ****     Display_DrawText(4,20,FONT_GLYPH_MENU_LARR,0);
 536:ui.c          ****     Display_DrawText(4,96,FONT_GLYPH_MENU_RARR,0);
 537:ui.c          **** 
 538:ui.c          ****     int contrast = settings.lcd_contrast;
 539:ui.c          **** 	ui_event event;
 540:ui.c          **** 	while(1) {
 541:ui.c          **** 		Display_Clear(3, 32, 4,contrast - CONTRAST_MIN+32, 0xFF);
 542:ui.c          ****         if(contrast!=CONTRAST_MAX)
 543:ui.c          **** 		    Display_Clear(3, contrast - CONTRAST_MIN+32+1, 4, 95, 0x81);
 544:ui.c          **** 
 545:ui.c          **** 		next_event(&event);
 546:ui.c          **** 		switch(event.type) {
 547:ui.c          **** 		case UI_EVENT_UPDOWN:
 548:ui.c          **** 			contrast += event.int_arg;
 549:ui.c          **** 			if(contrast > CONTRAST_MAX) {
 550:ui.c          **** 				contrast = CONTRAST_MAX;
 551:ui.c          **** 			} else if(contrast < CONTRAST_MIN) {
 552:ui.c          **** 				contrast = CONTRAST_MIN;
 553:ui.c          **** 			}
 554:ui.c          **** 			Display_SetContrast(contrast);
 555:ui.c          **** 			break;
 556:ui.c          **** 		case UI_EVENT_BUTTONPRESS:
 557:ui.c          **** 			if(event.int_arg == 1) {
 558:ui.c          ****                 settings.lcd_contrast=contrast;
 559:ui.c          **** 				EEPROM_Write(0,(void*)&settings, sizeof(settings_t));
 560:ui.c          **** 				return (state_func)STATE_MAIN;
 561:ui.c          **** 			}
 562:ui.c          **** 			break;
 563:ui.c          **** 		case UI_EVENT_LIMIT:
 564:ui.c          **** 			return (state_func){overlimit, (void *)event.int_arg, 0};
 565:ui.c          **** 		default:
 566:ui.c          **** 			break;
 567:ui.c          **** 		}
 568:ui.c          **** 	}
 569:ui.c          **** }
 570:ui.c          **** static state_func set_cooler(const void *arg) {
 571:ui.c          **** 	Display_ClearAll();
 572:ui.c          **** 	Display_Clear(6, 2, 7, 127, 0xFF);
 573:ui.c          **** 	Display_DrawText(7, 28, "Cooler", 1);
 574:ui.c          **** 	Display_DrawText(1, 28, FONT_GLYPH_ENTER ": Done", 0);
ARM GAS  C:\Users\VIDEOH~1\AppData\Local\Temp\ccpdN5tN.s 			page 17


 575:ui.c          **** 
 576:ui.c          **** 
 577:ui.c          ****     int16 cooler_tmp = settings.cooler_on_temperature;
 578:ui.c          ****     int16 cooler_tmp_show=-32767;
 579:ui.c          **** 	ui_event event;
 580:ui.c          ****     Display_DrawText(5, 16, "SET TEMP", 0);
 581:ui.c          **** 	while(1) {
 582:ui.c          ****         if(cooler_tmp!=cooler_tmp_show)
 583:ui.c          ****         {
 584:ui.c          ****             cooler_tmp_show=cooler_tmp;
 585:ui.c          ****             show_temperature(3,30,cooler_tmp);
 586:ui.c          ****         }
 587:ui.c          **** 
 588:ui.c          **** 		next_event(&event);
 589:ui.c          **** 		switch(event.type) {
 590:ui.c          **** 		case UI_EVENT_UPDOWN:
 591:ui.c          **** 			cooler_tmp += event.int_arg;
 592:ui.c          **** 			if(cooler_tmp > TEMPERATURE_MAX) {
 593:ui.c          **** 				cooler_tmp = TEMPERATURE_MAX;
 594:ui.c          **** 			} else if(cooler_tmp < TEMPERATURE_MIN) {
 595:ui.c          **** 				cooler_tmp = TEMPERATURE_MIN;
 596:ui.c          **** 			}
 597:ui.c          **** 			break;
 598:ui.c          **** 		case UI_EVENT_BUTTONPRESS:
 599:ui.c          **** 			if(event.int_arg == 1) {
 600:ui.c          ****                 settings.cooler_on_temperature=cooler_tmp;
 601:ui.c          ****                 settings.cooler_on_adc_data=termistor_tbl[cooler_tmp+40];
 602:ui.c          ****                 settings.cooler_off_adc_data=termistor_tbl[cooler_tmp+40-COOLER_OFF_DELTA];
 603:ui.c          **** 				EEPROM_Write(0,(void*)&settings, sizeof(settings_t));
 604:ui.c          **** 				return (state_func)STATE_MAIN;
 605:ui.c          **** 			}
 606:ui.c          **** 			break;
 607:ui.c          **** 		case UI_EVENT_LIMIT:
 608:ui.c          **** 			return (state_func){overlimit, (void *)event.int_arg, 0};
 609:ui.c          **** 		default:
 610:ui.c          **** 			break;
 611:ui.c          **** 		}
 612:ui.c          **** 	}
 613:ui.c          **** }
 614:ui.c          **** 
 615:ui.c          **** static state_func ui_set_min_voltage(const void *arg) {
 616:ui.c          ****     Display_ClearAll();
 617:ui.c          **** 	//Display_Clear(5, 2, 7, 127, 0xFF);
 618:ui.c          **** 	Display_DrawText(7, 0, "MinVoltage", 1);
 619:ui.c          **** 
 620:ui.c          ****     ui_event event;
 621:ui.c          ****     uint8_t on = state.lower_voltage_limit != -1;
 622:ui.c          ****     int vlim = on?state.lower_voltage_limit:get_voltage();
 623:ui.c          ****     vlim -= vlim % 100000;
 624:ui.c          ****     uint8_t stage = 0;
 625:ui.c          ****     char buf[8];
 626:ui.c          **** 
 627:ui.c          ****     while(stage == 0) {
 628:ui.c          ****         Display_DrawText(4, 17, "ON", on);
 629:ui.c          ****         Display_DrawText(4, 77, "OFF", !on);
 630:ui.c          ****         format_number(vlim, "V", buf);
 631:ui.c          ****         Display_DrawText(1, 40, buf, 0);
ARM GAS  C:\Users\VIDEOH~1\AppData\Local\Temp\ccpdN5tN.s 			page 18


 632:ui.c          **** 
 633:ui.c          ****         next_event(&event);
 634:ui.c          ****         switch(event.type) {
 635:ui.c          ****         case UI_EVENT_UPDOWN:
 636:ui.c          ****             on ^= event.int_arg & 1;
 637:ui.c          ****             break;
 638:ui.c          ****         case UI_EVENT_BUTTONPRESS:
 639:ui.c          ****             if(event.int_arg != 1)
 640:ui.c          ****                 break;
 641:ui.c          ****             if(on) {
 642:ui.c          ****                 stage = 1;
 643:ui.c          ****             } else {
 644:ui.c          ****                 state.lower_voltage_limit = -1;
 645:ui.c          ****                 return (state_func)STATE_MAIN;
 646:ui.c          ****             }
 647:ui.c          ****             break;
 648:ui.c          ****         case UI_EVENT_LIMIT:
 649:ui.c          ****             return (state_func){overlimit, (void *)event.int_arg, 0};
 650:ui.c          ****         default:
 651:ui.c          ****             break;
 652:ui.c          ****         }
 653:ui.c          ****     }
 654:ui.c          **** 
 655:ui.c          ****     while(1) {
 656:ui.c          ****         format_number(vlim, "V", buf);
 657:ui.c          **** 	    Display_Clear(0, 80, 1, 114, 0);
 658:ui.c          ****         Display_DrawText(1, 40, buf, 1);
 659:ui.c          **** 
 660:ui.c          ****         next_event(&event);
 661:ui.c          ****         switch(event.type) {
 662:ui.c          ****         case UI_EVENT_UPDOWN:
 663:ui.c          ****             vlim += 100000 * event.int_arg;
 664:ui.c          ****             if(vlim<0) vlim=0;
 665:ui.c          ****             break;
 666:ui.c          ****         case UI_EVENT_BUTTONPRESS:
 667:ui.c          ****             if(event.int_arg != 1)
 668:ui.c          ****                 break;
 669:ui.c          ****             state.lower_voltage_limit = vlim;
 670:ui.c          ****             return (state_func)STATE_MAIN;
 671:ui.c          ****         case UI_EVENT_LIMIT:
 672:ui.c          ****             return (state_func){overlimit, (void *)event.int_arg, 0};
 673:ui.c          ****         default:
 674:ui.c          ****             break;
 675:ui.c          ****         }
 676:ui.c          ****     }
 677:ui.c          **** }
 678:ui.c          **** 
 679:ui.c          **** static state_func overlimit(const void *arg) {
 680:ui.c          **** 	Display_Clear(0, 0, 7, 127, 0xFF);
 681:ui.c          ****     switch((limit_type)arg) {
 682:ui.c          ****     case LIMIT_TYPE_OVERTEMP:
 683:ui.c          ****     	Display_DrawText(5, 0, "!OVERTEMP!", 1);
 684:ui.c          ****         break;
 685:ui.c          ****     case LIMIT_TYPE_UNDERVOLT:
 686:ui.c          ****         Display_DrawText(5, 0, "!UNDERVOLT!", 1);
 687:ui.c          ****         break;
 688:ui.c          ****     }
ARM GAS  C:\Users\VIDEOH~1\AppData\Local\Temp\ccpdN5tN.s 			page 19


 689:ui.c          **** 	Display_DrawText(1, 16, FONT_GLYPH_ENTER ":Reset", 1);
 690:ui.c          **** 
 691:ui.c          **** 	ui_event event;
 692:ui.c          **** 	event.type = UI_EVENT_NONE;
 693:ui.c          **** 	while(event.type != UI_EVENT_BUTTONPRESS || event.int_arg != 1) {
 694:ui.c          **** 		next_event(&event);
 695:ui.c          **** 		if(get_output_mode() == OUTPUT_MODE_FEEDBACK)
 696:ui.c          **** 			return (state_func)STATE_MAIN;
 697:ui.c          **** 	}
 698:ui.c          **** 
 699:ui.c          **** 	set_current(0);
 700:ui.c          **** 	set_output_mode(OUTPUT_MODE_FEEDBACK);
 701:ui.c          **** 	return (state_func)STATE_MAIN;
 702:ui.c          ****     CyDelay(1000);
 703:ui.c          **** }
 704:ui.c          **** 
 705:ui.c          **** static state_func menu(const void *arg) {
 706:ui.c          **** 	const menudata *menu = (const menudata *)arg;
 707:ui.c          **** 
 708:ui.c          **** 	Display_ClearAll();
 709:ui.c          **** 	int selected = 0;
 710:ui.c          **** 	ui_event event;
 711:ui.c          **** 	event.type = UI_EVENT_NONE;
 712:ui.c          **** 	while(event.type != UI_EVENT_BUTTONPRESS || event.int_arg != 1) {
 713:ui.c          **** 		draw_menu(menu, selected);
 714:ui.c          **** 		next_event(&event);
 715:ui.c          **** 		switch(event.type) {
 716:ui.c          **** 		case UI_EVENT_UPDOWN:
 717:ui.c          **** 			if(event.int_arg < 0) {
 718:ui.c          **** 				// Move up the menu
 719:ui.c          **** 				if(selected + event.int_arg >= 0) {
 720:ui.c          **** 					selected += event.int_arg;
 721:ui.c          **** 				} else {
 722:ui.c          **** 					selected = 0;
 723:ui.c          **** 				}
 724:ui.c          **** 			} else {
 725:ui.c          **** 				// Move down the menu (but not past the end)
 726:ui.c          **** 				for(int i = 0; i < event.int_arg; i++) {
 727:ui.c          **** 					if(menu->items[selected + 1].caption == NULL)
 728:ui.c          **** 						break;
 729:ui.c          **** 					selected++;
 730:ui.c          **** 				}
 731:ui.c          **** 			}
 732:ui.c          **** 			break;
 733:ui.c          **** 		case UI_EVENT_LIMIT:
 734:ui.c          **** 			return (state_func){overlimit, (void *)event.int_arg, 0};
 735:ui.c          **** 		default:
 736:ui.c          **** 			break;
 737:ui.c          **** 		}
 738:ui.c          **** 	}
 739:ui.c          ****     
 740:ui.c          **** 	return menu->items[selected].new_state;
 741:ui.c          **** }
 742:ui.c          **** 
 743:ui.c          **** 
 744:ui.c          **** static state_func cc_load(const void *arg) {
 745:ui.c          **** 	static portTickType last_adjust_current_setpoint = 0;
ARM GAS  C:\Users\VIDEOH~1\AppData\Local\Temp\ccpdN5tN.s 			page 20


 746:ui.c          **** 
 747:ui.c          **** 	Display_ClearAll();
 748:ui.c          **** 
 749:ui.c          **** 	ui_event event;
 750:ui.c          **** 	while(1) {
 751:ui.c          **** 		next_event(&event);
 752:ui.c          **** 		switch(event.type) {
 753:ui.c          **** 		case UI_EVENT_BUTTONPRESS:
 754:ui.c          **** 			if(event.int_arg == 1)
 755:ui.c          **** 				return (state_func)STATE_MAIN_MENU;
 756:ui.c          ****             break;
 757:ui.c          ****         case UI_EVENT_LONG_BUTTONPRESS:
 758:ui.c          ****             if(get_output_mode() != OUTPUT_MODE_FEEDBACK) {
 759:ui.c          ****                 set_output_mode(OUTPUT_MODE_FEEDBACK);
 760:ui.c          ****             } else {
 761:ui.c          ****                 set_output_mode(OUTPUT_MODE_OFF);
 762:ui.c          ****             }
 763:ui.c          ****             break;
 764:ui.c          **** 		case UI_EVENT_UPDOWN:
 765:ui.c          **** 			last_adjust_current_setpoint = xTaskGetTickCount();
 766:ui.c          **** 			adjust_current_setpoint(event.int_arg, event.duration);
 767:ui.c          **** 			break;
 768:ui.c          **** 		case UI_EVENT_LIMIT:
 769:ui.c          **** 			return (state_func){overlimit, (void *)event.int_arg, 0};
 770:ui.c          **** 		default:
 771:ui.c          **** 			break;
 772:ui.c          **** 		}
 773:ui.c          **** 		draw_status(&settings.display_settings.named.cc, (xTaskGetTickCount() - last_adjust_current_setpo
 774:ui.c          **** 		//CyDelay(200);
 775:ui.c          **** 	}
 776:ui.c          **** }
 777:ui.c          **** 
 778:ui.c          **** #define CALIBRATION_CURRENT 2000000
 779:ui.c          **** 
 780:ui.c          **** // Calibrates the ADC voltage and current offsets.
 781:ui.c          **** // Run with nothing attached to the terminals.
 782:ui.c          **** static void ui_calibrate_offsets(settings_t *new_settings) {
 783:ui.c          ****     state.calibrating = 1;
 784:ui.c          **** 
 785:ui.c          ****     IDAC_Low_SetValue(0);
 786:ui.c          ****     IDAC_High_SetValue(0);
 787:ui.c          **** 
 788:ui.c          **** 	Display_DrawText(5, 26, "Remove", 0);
 789:ui.c          **** 	Display_DrawText(3, 32, "Leads", 0);
 790:ui.c          **** 	Display_DrawText(1, 26, FONT_GLYPH_ENTER ": Next", 0);
 791:ui.c          **** 
 792:ui.c          **** 	// Wait for a button press
 793:ui.c          **** 	ui_event event;
 794:ui.c          **** 	event.type = UI_EVENT_NONE;
 795:ui.c          **** 	while(event.type != UI_EVENT_BUTTONPRESS || event.int_arg != 1)
 796:ui.c          **** 		next_event(&event);
 797:ui.c          **** 
 798:ui.c          **** 	calibrate_offsets(new_settings);
 799:ui.c          ****     state.calibrating = 0;
 800:ui.c          **** }
 801:ui.c          **** 
 802:ui.c          **** // Calibrate the ADC voltage gain.
ARM GAS  C:\Users\VIDEOH~1\AppData\Local\Temp\ccpdN5tN.s 			page 21


 803:ui.c          **** // Run with a known voltage across the terminals
 804:ui.c          **** static void ui_calibrate_voltage(settings_t *new_settings) {
 805:ui.c          ****     state.calibrating = 1;
 806:ui.c          **** 
 807:ui.c          ****     IDAC_Low_SetValue(0);
 808:ui.c          ****     IDAC_High_SetValue(0);
 809:ui.c          **** 
 810:ui.c          **** 	Display_DrawText(5, 20, "Adj Volt", 0);
 811:ui.c          **** 
 812:ui.c          **** 	ui_event event;
 813:ui.c          **** 	char buf[16];
 814:ui.c          **** 	event.type = UI_EVENT_NONE;
 815:ui.c          **** 	while(event.type != UI_EVENT_BUTTONPRESS || event.int_arg != 1) {
 816:ui.c          **** 		next_event(&event);
 817:ui.c          **** 
 818:ui.c          **** 		int voltage = (get_raw_voltage() - new_settings->calibration_settings.adc_voltage_offset) * new_s
 819:ui.c          **** 		format_number_simple(voltage, "V", buf);
 820:ui.c          **** 		strcat(buf, " ");
 821:ui.c          **** 		Display_DrawText(3, 14, buf, 0);
 822:ui.c          **** 
 823:ui.c          **** 		switch(event.type) {
 824:ui.c          **** 		case UI_EVENT_UPDOWN:
 825:ui.c          **** 			new_settings->calibration_settings.adc_voltage_gain += event.int_arg;
 826:ui.c          **** 			break;
 827:ui.c          **** 		default:
 828:ui.c          **** 			break;
 829:ui.c          **** 		}
 830:ui.c          **** 	}
 831:ui.c          ****     state.calibrating = 0;
 832:ui.c          **** }
 833:ui.c          **** 
 834:ui.c          **** static void ui_calibrate_current(settings_t *new_settings) {
 835:ui.c          ****     state.calibrating = 1;
 836:ui.c          **** 
 837:ui.c          ****     IDAC_Low_SetValue(0);
 838:ui.c          ****     IDAC_High_SetValue((CALIBRATION_CURRENT - new_settings->calibration_settings.dac_offset) / new_
 839:ui.c          **** 
 840:ui.c          ****     Display_Clear(0, 0, 5, 127, 0);
 841:ui.c          **** 	Display_DrawText(5, 20, "Adj Cur", 0);
 842:ui.c          **** 	Display_DrawText(1, 26, FONT_GLYPH_ENTER ": Next", 0);
 843:ui.c          **** 
 844:ui.c          **** 	ui_event event;
 845:ui.c          **** 	char buf[16];
 846:ui.c          **** 	int current;
 847:ui.c          **** 
 848:ui.c          **** 	event.type = UI_EVENT_NONE;
 849:ui.c          **** 	while(event.type != UI_EVENT_BUTTONPRESS || event.int_arg != 1) {
 850:ui.c          **** 		next_event(&event);
 851:ui.c          **** 
 852:ui.c          **** 		current = (get_raw_current_usage() - new_settings->calibration_settings.adc_current_offset) * new
 853:ui.c          **** 		format_number_simple(current, "A", buf);
 854:ui.c          **** 		strcat(buf, " ");
 855:ui.c          **** 		Display_DrawText(3, 14, buf, 0);
 856:ui.c          **** 
 857:ui.c          **** 		switch(event.type) {
 858:ui.c          **** 		case UI_EVENT_UPDOWN:
 859:ui.c          **** 			new_settings->calibration_settings.adc_current_gain += event.int_arg;
ARM GAS  C:\Users\VIDEOH~1\AppData\Local\Temp\ccpdN5tN.s 			page 22


 860:ui.c          **** 			break;
 861:ui.c          **** 		default:
 862:ui.c          **** 			break;
 863:ui.c          **** 		}
 864:ui.c          **** 	}
 865:ui.c          ****     state.calibrating = 0;
 866:ui.c          **** }
 867:ui.c          **** 
 868:ui.c          **** static void ui_calibrate_voltage_correction(settings_t *new_settings) {
 869:ui.c          **** 	state.calibrating = 1;
 870:ui.c          **** 
 871:ui.c          **** 	IDAC_Low_SetValue(0);
 872:ui.c          **** 	IDAC_High_SetValue((CALIBRATION_CURRENT - new_settings->calibration_settings.dac_offset) / new_set
 873:ui.c          **** 
 874:ui.c          **** 	Display_Clear(0, 0, 5, 127, 0);
 875:ui.c          **** 	Display_DrawText(5, 20, "Adj Volt", 0);
 876:ui.c          **** 	Display_DrawText(1, 26, FONT_GLYPH_ENTER ": Next", 0);
 877:ui.c          **** 
 878:ui.c          **** 	ui_event event;
 879:ui.c          **** 	char buf[16];
 880:ui.c          **** 	int current, voltage;
 881:ui.c          **** 
 882:ui.c          **** 	event.type = UI_EVENT_NONE;
 883:ui.c          **** 	while(event.type != UI_EVENT_BUTTONPRESS || event.int_arg != 1) {
 884:ui.c          **** 		next_event(&event);
 885:ui.c          **** 
 886:ui.c          **** 		current = (get_raw_current_usage() - new_settings->calibration_settings.adc_current_offset) * new
 887:ui.c          **** 		voltage = (get_raw_voltage() - new_settings->calibration_settings.adc_voltage_offset) * new_setti
 888:ui.c          **** 		voltage += (current / 1024) * new_settings->calibration_settings.voltage_correction_ratio;
 889:ui.c          **** 		format_number_simple(voltage, "V", buf);
 890:ui.c          **** 		strcat(buf, " ");
 891:ui.c          **** 		Display_DrawText(3, 14, buf, 0);
 892:ui.c          **** 
 893:ui.c          **** 		switch(event.type) {
 894:ui.c          **** 		case UI_EVENT_UPDOWN:
 895:ui.c          **** 			new_settings->calibration_settings.voltage_correction_ratio += event.int_arg;
 896:ui.c          **** 			break;
 897:ui.c          **** 		default:
 898:ui.c          **** 			break;
 899:ui.c          **** 		}
 900:ui.c          **** 	}
 901:ui.c          **** 	state.calibrating = 0;
 902:ui.c          **** }
 903:ui.c          **** 
 904:ui.c          **** // Calibrates the opamp and current DAC offsets.
 905:ui.c          **** // Run with a voltage source attached
 906:ui.c          **** 
 907:ui.c          **** void ui_calibration_progress(int current, int all) {
 908:ui.c          **** 	Display_Clear(0, 2, 1, 128 * current / all, 0xFF);
 909:ui.c          **** }
 910:ui.c          **** 
 911:ui.c          **** static void ui_calibrate_dacs(settings_t *new_settings) {
 912:ui.c          **** 	Display_Clear(0, 0, 5, 127, 0);
 913:ui.c          **** 	Display_DrawText(4, 40, "Wait", 0);
 914:ui.c          **** 
 915:ui.c          ****     // Draw a progress bar
 916:ui.c          ****     Display_Clear(0, 0, 1, 1, 0xFF);
ARM GAS  C:\Users\VIDEOH~1\AppData\Local\Temp\ccpdN5tN.s 			page 23


 917:ui.c          **** 	Display_Clear(0, 126, 1, 127, 0xFF);
 918:ui.c          ****     Display_Clear(0, 2, 1, 125, 0x81);
 919:ui.c          ****     calibrate_opamp_offset_trim(new_settings, CALIBRATION_CURRENT,ui_calibration_progress);
 920:ui.c          **** 	calibrate_dacs(new_settings, CALIBRATION_CURRENT);
 921:ui.c          **** }
 922:ui.c          **** 
 923:ui.c          **** static state_func ui_calibrate(const void *arg) {
 924:ui.c          **** 	set_current(0);
 925:ui.c          **** 	set_output_mode(OUTPUT_MODE_FEEDBACK);
 926:ui.c          **** 
 927:ui.c          **** 	settings_t new_settings;
 928:ui.c          **** 	memcpy(&new_settings, &settings, sizeof(settings_t));
 929:ui.c          **** 	memcpy(&new_settings.calibration_settings, &default_settings.calibration_settings, sizeof(calibrat
 930:ui.c          **** 
 931:ui.c          **** 	Display_ClearAll();
 932:ui.c          **** 	Display_DrawText(7, 8, "CALIBRATE", 1);
 933:ui.c          **** 
 934:ui.c          **** 	ui_calibrate_offsets(&new_settings);
 935:ui.c          **** 	ui_calibrate_voltage(&new_settings);
 936:ui.c          **** 	ui_calibrate_current(&new_settings);
 937:ui.c          **** 	ui_calibrate_voltage_correction(&new_settings);
 938:ui.c          **** 	ui_calibrate_dacs(&new_settings);
 939:ui.c          ****     memcpy((uint8*)&settings,(uint8*)&new_settings, sizeof(settings_t));
 940:ui.c          **** 	EEPROM_Write(0,(uint8*)&settings, sizeof(settings_t));
 941:ui.c          **** 
 942:ui.c          **** 	return (state_func){NULL, NULL, 0};
 943:ui.c          **** }
 944:ui.c          **** 
 945:ui.c          **** static state_func upgrade(const void *arg) {
 310              		.loc 1 945 0
 311              		.cfi_startproc
 312              		@ args = 0, pretend = 0, frame = 0
 313              		@ frame_needed = 0, uses_anonymous_args = 0
 314              	.LVL41:
 315 0000 10B5     		push	{r4, lr}
 316              		.cfi_def_cfa_offset 8
 317              		.cfi_offset 4, -8
 318              		.cfi_offset 14, -4
 319              		.loc 1 945 0
 320 0002 0400     		movs	r4, r0
 946:ui.c          **** #ifdef Bootloadable_START_BTLDR
 947:ui.c          ****     Display_ClearAll();
 321              		.loc 1 947 0
 322 0004 FFF7FEFF 		bl	Display_ClearAll
 323              	.LVL42:
 948:ui.c          ****     Display_DrawText(7, 10, "!UPGRADE!", 1);
 324              		.loc 1 948 0
 325 0008 0123     		movs	r3, #1
 326 000a 0F4A     		ldr	r2, .L23
 327 000c 0A21     		movs	r1, #10
 328 000e 0720     		movs	r0, #7
 329 0010 FFF7FEFF 		bl	Display_DrawText
 330              	.LVL43:
 949:ui.c          ****     Display_DrawText(5, 20, "READY TO", 0);
 331              		.loc 1 949 0
 332 0014 0023     		movs	r3, #0
 333 0016 0D4A     		ldr	r2, .L23+4
ARM GAS  C:\Users\VIDEOH~1\AppData\Local\Temp\ccpdN5tN.s 			page 24


 334 0018 1421     		movs	r1, #20
 335 001a 0520     		movs	r0, #5
 336 001c FFF7FEFF 		bl	Display_DrawText
 337              	.LVL44:
 950:ui.c          ****     Display_DrawText(3, 20, "FIRMWARE", 0);
 338              		.loc 1 950 0
 339 0020 0023     		movs	r3, #0
 340 0022 0B4A     		ldr	r2, .L23+8
 341 0024 1421     		movs	r1, #20
 342 0026 0320     		movs	r0, #3
 343 0028 FFF7FEFF 		bl	Display_DrawText
 344              	.LVL45:
 951:ui.c          ****     Display_DrawText(1, 20, "DOWNLOAD", 0);
 345              		.loc 1 951 0
 346 002c 0023     		movs	r3, #0
 347 002e 094A     		ldr	r2, .L23+12
 348 0030 1421     		movs	r1, #20
 349 0032 0120     		movs	r0, #1
 350 0034 FFF7FEFF 		bl	Display_DrawText
 351              	.LVL46:
 952:ui.c          ****     Bootloadable_Load();  // Never returns...
 352              		.loc 1 952 0
 353 0038 FFF7FEFF 		bl	Bootloadable_Load
 354              	.LVL47:
 953:ui.c          **** #endif
 954:ui.c          ****     return (state_func){NULL, NULL, 0}; // ...yet, we should make compiler happy
 355              		.loc 1 954 0
 356 003c 0023     		movs	r3, #0
 955:ui.c          **** }
 357              		.loc 1 955 0
 358 003e 2000     		movs	r0, r4
 954:ui.c          **** }
 359              		.loc 1 954 0
 360 0040 2360     		str	r3, [r4]
 361 0042 6360     		str	r3, [r4, #4]
 362 0044 2372     		strb	r3, [r4, #8]
 363              		.loc 1 955 0
 364              		@ sp needed
 365              	.LVL48:
 366 0046 10BD     		pop	{r4, pc}
 367              	.L24:
 368              		.align	2
 369              	.L23:
 370 0048 26000000 		.word	.LC14
 371 004c 30000000 		.word	.LC16
 372 0050 39000000 		.word	.LC18
 373 0054 42000000 		.word	.LC20
 374              		.cfi_endproc
 375              	.LFE68:
 376              		.size	upgrade, .-upgrade
 377              		.section	.text.next_event,"ax",%progbits
 378              		.align	1
 379              		.code	16
 380              		.thumb_func
 381              		.type	next_event, %function
 382              	next_event:
 383              	.LFB38:
ARM GAS  C:\Users\VIDEOH~1\AppData\Local\Temp\ccpdN5tN.s 			page 25


 260:ui.c          **** 	static portTickType last_tick = 0;
 384              		.loc 1 260 0
 385              		.cfi_startproc
 386              		@ args = 0, pretend = 0, frame = 16
 387              		@ frame_needed = 0, uses_anonymous_args = 0
 388              	.LVL49:
 389 0000 7FB5     		push	{r0, r1, r2, r3, r4, r5, r6, lr}
 390              		.cfi_def_cfa_offset 32
 391              		.cfi_offset 0, -32
 392              		.cfi_offset 1, -28
 393              		.cfi_offset 2, -24
 394              		.cfi_offset 3, -20
 395              		.cfi_offset 4, -16
 396              		.cfi_offset 5, -12
 397              		.cfi_offset 6, -8
 398              		.cfi_offset 14, -4
 260:ui.c          **** 	static portTickType last_tick = 0;
 399              		.loc 1 260 0
 400 0002 0400     		movs	r4, r0
 264:ui.c          **** 
 401              		.loc 1 264 0
 402 0004 FFF7FEFF 		bl	xTaskGetTickCount
 403              	.LVL50:
 266:ui.c          ****         event->type = UI_EVENT_LONG_BUTTONPRESS;
 404              		.loc 1 266 0
 405 0008 1B4B     		ldr	r3, .L38
 264:ui.c          **** 
 406              		.loc 1 264 0
 407 000a 0500     		movs	r5, r0
 408              	.LVL51:
 266:ui.c          ****         event->type = UI_EVENT_LONG_BUTTONPRESS;
 409              		.loc 1 266 0
 410 000c 1B68     		ldr	r3, [r3]
 411 000e 1B4E     		ldr	r6, .L38+4
 412 0010 9842     		cmp	r0, r3
 413 0012 09D9     		bls	.L26
 266:ui.c          ****         event->type = UI_EVENT_LONG_BUTTONPRESS;
 414              		.loc 1 266 0 is_stmt 0 discriminator 1
 415 0014 3378     		ldrb	r3, [r6]
 416 0016 002B     		cmp	r3, #0
 417 0018 06D1     		bne	.L26
 267:ui.c          ****         event->when = now;
 418              		.loc 1 267 0 is_stmt 1
 419 001a 0222     		movs	r2, #2
 269:ui.c          ****         long_press_sent = 1;
 420              		.loc 1 269 0
 421 001c 6360     		str	r3, [r4, #4]
 270:ui.c          ****     } else if(now - last_tick >  configTICK_RATE_HZ / UI_TASK_FREQUENCY
 422              		.loc 1 270 0
 423 001e 0133     		adds	r3, r3, #1
 267:ui.c          ****         event->when = now;
 424              		.loc 1 267 0
 425 0020 2270     		strb	r2, [r4]
 268:ui.c          ****         event->int_arg = 0;
 426              		.loc 1 268 0
 427 0022 E060     		str	r0, [r4, #12]
 270:ui.c          ****     } else if(now - last_tick >  configTICK_RATE_HZ / UI_TASK_FREQUENCY
ARM GAS  C:\Users\VIDEOH~1\AppData\Local\Temp\ccpdN5tN.s 			page 26


 428              		.loc 1 270 0
 429 0024 3370     		strb	r3, [r6]
 430 0026 25E0     		b	.L25
 431              	.L26:
 271:ui.c          ****         || !xQueueReceive(ui_queue, event, configTICK_RATE_HZ / UI_TASK_FREQUENCY - (now - last_tic
 432              		.loc 1 271 0
 433 0028 7268     		ldr	r2, [r6, #4]
 434 002a AB1A     		subs	r3, r5, r2
 435 002c 322B     		cmp	r3, #50
 436 002e 01D9     		bls	.L28
 437              	.LVL52:
 438              	.L29:
 273:ui.c          **** 		event->when = now;
 439              		.loc 1 273 0
 440 0030 0423     		movs	r3, #4
 441 0032 19E0     		b	.L37
 442              	.LVL53:
 443              	.L28:
 272:ui.c          **** 		event->type = UI_EVENT_TICK;
 444              		.loc 1 272 0
 445 0034 1248     		ldr	r0, .L38+8
 446              	.LVL54:
 447 0036 3232     		adds	r2, r2, #50
 448 0038 521B     		subs	r2, r2, r5
 449 003a 0023     		movs	r3, #0
 450 003c 2100     		movs	r1, r4
 451 003e 0068     		ldr	r0, [r0]
 452 0040 FFF7FEFF 		bl	xQueueGenericReceive
 453              	.LVL55:
 454 0044 0028     		cmp	r0, #0
 455 0046 F3D0     		beq	.L29
 279:ui.c          ****         // Bootloading overrides everything
 456              		.loc 1 279 0
 457 0048 2378     		ldrb	r3, [r4]
 458 004a 062B     		cmp	r3, #6
 459 004c 04D1     		bne	.L30
 281:ui.c          ****     } else if(event->type == UI_EVENT_BUTTONPRESS && long_press_sent) {
 460              		.loc 1 281 0
 461 004e 0021     		movs	r1, #0
 462 0050 6846     		mov	r0, sp
 463 0052 FFF7FEFF 		bl	upgrade
 464              	.LVL56:
 465 0056 0DE0     		b	.L25
 466              	.L30:
 282:ui.c          ****         long_press_sent = 0;
 467              		.loc 1 282 0
 468 0058 012B     		cmp	r3, #1
 469 005a 0BD1     		bne	.L25
 282:ui.c          ****         long_press_sent = 0;
 470              		.loc 1 282 0 is_stmt 0 discriminator 1
 471 005c 3378     		ldrb	r3, [r6]
 472 005e 002B     		cmp	r3, #0
 473 0060 08D0     		beq	.L25
 283:ui.c          **** 		event->type = UI_EVENT_TICK;
 474              		.loc 1 283 0 is_stmt 1
 475 0062 0023     		movs	r3, #0
 476 0064 3370     		strb	r3, [r6]
ARM GAS  C:\Users\VIDEOH~1\AppData\Local\Temp\ccpdN5tN.s 			page 27


 284:ui.c          **** 		event->when = now;
 477              		.loc 1 284 0
 478 0066 0433     		adds	r3, r3, #4
 479              	.L37:
 480 0068 2370     		strb	r3, [r4]
 285:ui.c          **** 		last_tick = now;
 481              		.loc 1 285 0
 482 006a E560     		str	r5, [r4, #12]
 288:ui.c          **** #endif
 483              		.loc 1 288 0
 484 006c 0820     		movs	r0, #8
 286:ui.c          **** #ifdef USE_WATCHDOG
 485              		.loc 1 286 0
 486 006e 7560     		str	r5, [r6, #4]
 288:ui.c          **** #endif
 487              		.loc 1 288 0
 488 0070 FFF7FEFF 		bl	CySysWdtResetCounters
 489              	.LVL57:
 490              	.L25:
 291:ui.c          **** 
 491              		.loc 1 291 0
 492              		@ sp needed
 493              	.LVL58:
 494              	.LVL59:
 495 0074 7FBD     		pop	{r0, r1, r2, r3, r4, r5, r6, pc}
 496              	.L39:
 497 0076 C046     		.align	2
 498              	.L38:
 499 0078 00000000 		.word	.LANCHOR0
 500 007c 00000000 		.word	.LANCHOR1
 501 0080 00000000 		.word	ui_queue
 502              		.cfi_endproc
 503              	.LFE38:
 504              		.size	next_event, .-next_event
 505              		.section	.text.ui_set_min_voltage,"ax",%progbits
 506              		.align	1
 507              		.code	16
 508              		.thumb_func
 509              		.type	ui_set_min_voltage, %function
 510              	ui_set_min_voltage:
 511              	.LFB57:
 615:ui.c          ****     Display_ClearAll();
 512              		.loc 1 615 0
 513              		.cfi_startproc
 514              		@ args = 0, pretend = 0, frame = 32
 515              		@ frame_needed = 0, uses_anonymous_args = 0
 516              	.LVL60:
 517 0000 F0B5     		push	{r4, r5, r6, r7, lr}
 518              		.cfi_def_cfa_offset 20
 519              		.cfi_offset 4, -20
 520              		.cfi_offset 5, -16
 521              		.cfi_offset 6, -12
 522              		.cfi_offset 7, -8
 523              		.cfi_offset 14, -4
 524 0002 8BB0     		sub	sp, sp, #44
 525              		.cfi_def_cfa_offset 64
 615:ui.c          ****     Display_ClearAll();
ARM GAS  C:\Users\VIDEOH~1\AppData\Local\Temp\ccpdN5tN.s 			page 28


 526              		.loc 1 615 0
 527 0004 0500     		movs	r5, r0
 616:ui.c          **** 	//Display_Clear(5, 2, 7, 127, 0xFF);
 528              		.loc 1 616 0
 529 0006 FFF7FEFF 		bl	Display_ClearAll
 530              	.LVL61:
 618:ui.c          **** 
 531              		.loc 1 618 0
 532 000a 0123     		movs	r3, #1
 533 000c 424A     		ldr	r2, .L61
 534 000e 0021     		movs	r1, #0
 535 0010 0720     		movs	r0, #7
 536 0012 FFF7FEFF 		bl	Display_DrawText
 537              	.LVL62:
 621:ui.c          ****     int vlim = on?state.lower_voltage_limit:get_voltage();
 538              		.loc 1 621 0
 539 0016 414B     		ldr	r3, .L61+4
 540 0018 5C68     		ldr	r4, [r3, #4]
 541 001a 0393     		str	r3, [sp, #12]
 542 001c 661C     		adds	r6, r4, #1
 543 001e 721E     		subs	r2, r6, #1
 544 0020 9641     		sbcs	r6, r6, r2
 545 0022 F6B2     		uxtb	r6, r6
 546              	.LVL63:
 622:ui.c          ****     vlim -= vlim % 100000;
 547              		.loc 1 622 0
 548 0024 631C     		adds	r3, r4, #1
 549 0026 02D1     		bne	.L41
 622:ui.c          ****     vlim -= vlim % 100000;
 550              		.loc 1 622 0 is_stmt 0 discriminator 2
 551 0028 FFF7FEFF 		bl	get_voltage
 552              	.LVL64:
 553 002c 0400     		movs	r4, r0
 554              	.L41:
 555              	.LVL65:
 623:ui.c          ****     uint8_t stage = 0;
 556              		.loc 1 623 0 is_stmt 1 discriminator 4
 557 002e 2000     		movs	r0, r4
 558 0030 3B49     		ldr	r1, .L61+8
 559 0032 FFF7FEFF 		bl	__aeabi_idivmod
 560              	.LVL66:
 561 0036 641A     		subs	r4, r4, r1
 562              	.LVL67:
 563              	.L42:
 628:ui.c          ****         Display_DrawText(4, 77, "OFF", !on);
 564              		.loc 1 628 0
 565 0038 3300     		movs	r3, r6
 566 003a 3A4A     		ldr	r2, .L61+12
 567 003c 1121     		movs	r1, #17
 568 003e 0420     		movs	r0, #4
 569 0040 FFF7FEFF 		bl	Display_DrawText
 570              	.LVL68:
 629:ui.c          ****         format_number(vlim, "V", buf);
 571              		.loc 1 629 0
 572 0044 0123     		movs	r3, #1
 573 0046 384A     		ldr	r2, .L61+16
 574 0048 7340     		eors	r3, r6
ARM GAS  C:\Users\VIDEOH~1\AppData\Local\Temp\ccpdN5tN.s 			page 29


 575 004a 4D21     		movs	r1, #77
 576 004c 0420     		movs	r0, #4
 577 004e FFF7FEFF 		bl	Display_DrawText
 578              	.LVL69:
 630:ui.c          ****         Display_DrawText(1, 40, buf, 0);
 579              		.loc 1 630 0
 580 0052 04AA     		add	r2, sp, #16
 581 0054 3549     		ldr	r1, .L61+20
 582 0056 2000     		movs	r0, r4
 583 0058 FFF7FEFF 		bl	format_number
 584              	.LVL70:
 633:ui.c          ****         switch(event.type) {
 585              		.loc 1 633 0
 586 005c 06AF     		add	r7, sp, #24
 631:ui.c          **** 
 587              		.loc 1 631 0
 588 005e 0023     		movs	r3, #0
 589 0060 04AA     		add	r2, sp, #16
 590 0062 2821     		movs	r1, #40
 591 0064 0120     		movs	r0, #1
 592 0066 FFF7FEFF 		bl	Display_DrawText
 593              	.LVL71:
 633:ui.c          ****         switch(event.type) {
 594              		.loc 1 633 0
 595 006a 3800     		movs	r0, r7
 596 006c FFF7FEFF 		bl	next_event
 597              	.LVL72:
 634:ui.c          ****         case UI_EVENT_UPDOWN:
 598              		.loc 1 634 0
 599 0070 3B78     		ldrb	r3, [r7]
 600 0072 032B     		cmp	r3, #3
 601 0074 04D0     		beq	.L44
 602 0076 052B     		cmp	r3, #5
 603 0078 10D0     		beq	.L45
 604 007a 012B     		cmp	r3, #1
 605 007c DCD1     		bne	.L42
 606 007e 04E0     		b	.L58
 607              	.L44:
 636:ui.c          ****             break;
 608              		.loc 1 636 0
 609 0080 0122     		movs	r2, #1
 610 0082 7B68     		ldr	r3, [r7, #4]
 611 0084 1340     		ands	r3, r2
 612 0086 5E40     		eors	r6, r3
 613              	.LVL73:
 637:ui.c          ****         case UI_EVENT_BUTTONPRESS:
 614              		.loc 1 637 0
 615 0088 D6E7     		b	.L42
 616              	.L58:
 639:ui.c          ****                 break;
 617              		.loc 1 639 0
 618 008a 7B68     		ldr	r3, [r7, #4]
 619 008c 012B     		cmp	r3, #1
 620 008e D3D1     		bne	.L42
 641:ui.c          ****                 stage = 1;
 621              		.loc 1 641 0
 622 0090 002E     		cmp	r6, #0
ARM GAS  C:\Users\VIDEOH~1\AppData\Local\Temp\ccpdN5tN.s 			page 30


 623 0092 0ED1     		bne	.L49
 644:ui.c          ****                 return (state_func)STATE_MAIN;
 624              		.loc 1 644 0
 625 0094 039A     		ldr	r2, [sp, #12]
 626 0096 023B     		subs	r3, r3, #2
 627 0098 5360     		str	r3, [r2, #4]
 628 009a 31E0     		b	.L57
 629              	.L45:
 649:ui.c          ****         default:
 630              		.loc 1 649 0
 631 009c 7B68     		ldr	r3, [r7, #4]
 632 009e 6B60     		str	r3, [r5, #4]
 633 00a0 234B     		ldr	r3, .L61+24
 634 00a2 2B60     		str	r3, [r5]
 635 00a4 0023     		movs	r3, #0
 636 00a6 2B72     		strb	r3, [r5, #8]
 637 00a8 32E0     		b	.L40
 638              	.LVL74:
 639              	.L60:
 661:ui.c          ****         case UI_EVENT_UPDOWN:
 640              		.loc 1 661 0
 641 00aa 052B     		cmp	r3, #5
 642 00ac 2BD0     		beq	.L53
 643 00ae 012B     		cmp	r3, #1
 644 00b0 21D0     		beq	.L59
 645              	.LVL75:
 646              	.L49:
 657:ui.c          ****         Display_DrawText(1, 40, buf, 1);
 647              		.loc 1 657 0
 648 00b2 0026     		movs	r6, #0
 656:ui.c          **** 	    Display_Clear(0, 80, 1, 114, 0);
 649              		.loc 1 656 0
 650 00b4 04AA     		add	r2, sp, #16
 651 00b6 1D49     		ldr	r1, .L61+20
 652 00b8 2000     		movs	r0, r4
 653 00ba FFF7FEFF 		bl	format_number
 654              	.LVL76:
 657:ui.c          ****         Display_DrawText(1, 40, buf, 1);
 655              		.loc 1 657 0
 656 00be 7223     		movs	r3, #114
 657 00c0 0122     		movs	r2, #1
 658 00c2 5021     		movs	r1, #80
 659 00c4 3000     		movs	r0, r6
 660 00c6 0096     		str	r6, [sp]
 661 00c8 FFF7FEFF 		bl	Display_Clear
 662              	.LVL77:
 658:ui.c          **** 
 663              		.loc 1 658 0
 664 00cc 0123     		movs	r3, #1
 665 00ce 04AA     		add	r2, sp, #16
 666 00d0 1800     		movs	r0, r3
 667 00d2 2821     		movs	r1, #40
 660:ui.c          ****         switch(event.type) {
 668              		.loc 1 660 0
 669 00d4 06AF     		add	r7, sp, #24
 658:ui.c          **** 
 670              		.loc 1 658 0
ARM GAS  C:\Users\VIDEOH~1\AppData\Local\Temp\ccpdN5tN.s 			page 31


 671 00d6 FFF7FEFF 		bl	Display_DrawText
 672              	.LVL78:
 660:ui.c          ****         switch(event.type) {
 673              		.loc 1 660 0
 674 00da 3800     		movs	r0, r7
 675 00dc FFF7FEFF 		bl	next_event
 676              	.LVL79:
 661:ui.c          ****         case UI_EVENT_UPDOWN:
 677              		.loc 1 661 0
 678 00e0 3B78     		ldrb	r3, [r7]
 679 00e2 032B     		cmp	r3, #3
 680 00e4 E1D1     		bne	.L60
 663:ui.c          ****             if(vlim<0) vlim=0;
 681              		.loc 1 663 0
 682 00e6 7A68     		ldr	r2, [r7, #4]
 683 00e8 0D4B     		ldr	r3, .L61+8
 684 00ea 5343     		muls	r3, r2
 685 00ec 1C19     		adds	r4, r3, r4
 686              	.LVL80:
 687 00ee E343     		mvns	r3, r4
 688 00f0 DB17     		asrs	r3, r3, #31
 689 00f2 1C40     		ands	r4, r3
 690 00f4 DDE7     		b	.L49
 691              	.LVL81:
 692              	.L59:
 667:ui.c          ****                 break;
 693              		.loc 1 667 0
 694 00f6 7B68     		ldr	r3, [r7, #4]
 695 00f8 012B     		cmp	r3, #1
 696 00fa DAD1     		bne	.L49
 669:ui.c          ****             return (state_func)STATE_MAIN;
 697              		.loc 1 669 0
 698 00fc 039B     		ldr	r3, [sp, #12]
 699 00fe 5C60     		str	r4, [r3, #4]
 700              	.L57:
 670:ui.c          ****         case UI_EVENT_LIMIT:
 701              		.loc 1 670 0
 702 0100 2E60     		str	r6, [r5]
 703 0102 6E60     		str	r6, [r5, #4]
 704 0104 03E0     		b	.L56
 705              	.L53:
 672:ui.c          ****         default:
 706              		.loc 1 672 0
 707 0106 7B68     		ldr	r3, [r7, #4]
 708 0108 6B60     		str	r3, [r5, #4]
 709 010a 094B     		ldr	r3, .L61+24
 710 010c 2B60     		str	r3, [r5]
 711              	.L56:
 712 010e 2E72     		strb	r6, [r5, #8]
 713              	.L40:
 677:ui.c          **** 
 714              		.loc 1 677 0
 715 0110 2800     		movs	r0, r5
 716 0112 0BB0     		add	sp, sp, #44
 717              		@ sp needed
 718              	.LVL82:
 719              	.LVL83:
ARM GAS  C:\Users\VIDEOH~1\AppData\Local\Temp\ccpdN5tN.s 			page 32


 720 0114 F0BD     		pop	{r4, r5, r6, r7, pc}
 721              	.L62:
 722 0116 C046     		.align	2
 723              	.L61:
 724 0118 4B000000 		.word	.LC26
 725 011c 00000000 		.word	state
 726 0120 A0860100 		.word	100000
 727 0124 56000000 		.word	.LC29
 728 0128 59000000 		.word	.LC31
 729 012c 24000000 		.word	.LC12
 730 0130 00000000 		.word	overlimit
 731              		.cfi_endproc
 732              	.LFE57:
 733              		.size	ui_set_min_voltage, .-ui_set_min_voltage
 734              		.section	.text.ui_calibration_progress,"ax",%progbits
 735              		.align	1
 736              		.global	ui_calibration_progress
 737              		.code	16
 738              		.thumb_func
 739              		.type	ui_calibration_progress, %function
 740              	ui_calibration_progress:
 741              	.LFB65:
 907:ui.c          **** 	Display_Clear(0, 2, 1, 128 * current / all, 0xFF);
 742              		.loc 1 907 0
 743              		.cfi_startproc
 744              		@ args = 0, pretend = 0, frame = 0
 745              		@ frame_needed = 0, uses_anonymous_args = 0
 746              	.LVL84:
 747 0000 07B5     		push	{r0, r1, r2, lr}
 748              		.cfi_def_cfa_offset 16
 749              		.cfi_offset 0, -16
 750              		.cfi_offset 1, -12
 751              		.cfi_offset 2, -8
 752              		.cfi_offset 14, -4
 908:ui.c          **** }
 753              		.loc 1 908 0
 754 0002 C001     		lsls	r0, r0, #7
 755              	.LVL85:
 756 0004 FFF7FEFF 		bl	__aeabi_idiv
 757              	.LVL86:
 758 0008 FF22     		movs	r2, #255
 759 000a C3B2     		uxtb	r3, r0
 760 000c 0092     		str	r2, [sp]
 761 000e 0221     		movs	r1, #2
 762 0010 FE3A     		subs	r2, r2, #254
 763 0012 0020     		movs	r0, #0
 764 0014 FFF7FEFF 		bl	Display_Clear
 765              	.LVL87:
 909:ui.c          **** 
 766              		.loc 1 909 0
 767              		@ sp needed
 768 0018 07BD     		pop	{r0, r1, r2, pc}
 769              		.cfi_endproc
 770              	.LFE65:
 771              		.size	ui_calibration_progress, .-ui_calibration_progress
 772              		.section	.text.ui_calibrate,"ax",%progbits
 773              		.align	1
ARM GAS  C:\Users\VIDEOH~1\AppData\Local\Temp\ccpdN5tN.s 			page 33


 774              		.code	16
 775              		.thumb_func
 776              		.type	ui_calibrate, %function
 777              	ui_calibrate:
 778              	.LFB67:
 923:ui.c          **** 	set_current(0);
 779              		.loc 1 923 0
 780              		.cfi_startproc
 781              		@ args = 0, pretend = 0, frame = 96
 782              		@ frame_needed = 0, uses_anonymous_args = 0
 783              	.LVL88:
 784 0000 F0B5     		push	{r4, r5, r6, r7, lr}
 785              		.cfi_def_cfa_offset 20
 786              		.cfi_offset 4, -20
 787              		.cfi_offset 5, -16
 788              		.cfi_offset 6, -12
 789              		.cfi_offset 7, -8
 790              		.cfi_offset 14, -4
 791 0002 0600     		movs	r6, r0
 792 0004 9BB0     		sub	sp, sp, #108
 793              		.cfi_def_cfa_offset 128
 924:ui.c          **** 	set_output_mode(OUTPUT_MODE_FEEDBACK);
 794              		.loc 1 924 0
 795 0006 0020     		movs	r0, #0
 796              	.LVL89:
 797 0008 FFF7FEFF 		bl	set_current
 798              	.LVL90:
 925:ui.c          **** 
 799              		.loc 1 925 0
 800 000c 0220     		movs	r0, #2
 801 000e FFF7FEFF 		bl	set_output_mode
 802              	.LVL91:
 928:ui.c          **** 	memcpy(&new_settings.calibration_settings, &default_settings.calibration_settings, sizeof(calibrat
 803              		.loc 1 928 0
 804 0012 B349     		ldr	r1, .L83
 805 0014 3822     		movs	r2, #56
 806 0016 0CA8     		add	r0, sp, #48
 807 0018 FFF7FEFF 		bl	memcpy
 808              	.LVL92:
 929:ui.c          **** 
 809              		.loc 1 929 0
 810 001c B14B     		ldr	r3, .L83+4
 811 001e 11AA     		add	r2, sp, #68
 812 0020 1433     		adds	r3, r3, #20
 813 0022 13CB     		ldmia	r3!, {r0, r1, r4}
 814 0024 13C2     		stmia	r2!, {r0, r1, r4}
 815 0026 13CB     		ldmia	r3!, {r0, r1, r4}
 816 0028 13C2     		stmia	r2!, {r0, r1, r4}
 817 002a 13CB     		ldmia	r3!, {r0, r1, r4}
 818 002c 13C2     		stmia	r2!, {r0, r1, r4}
 819              	.LBB14:
 820              	.LBB15:
 783:ui.c          **** 
 821              		.loc 1 783 0
 822 002e 0124     		movs	r4, #1
 823              	.LBE15:
 824              	.LBE14:
ARM GAS  C:\Users\VIDEOH~1\AppData\Local\Temp\ccpdN5tN.s 			page 34


 931:ui.c          **** 	Display_DrawText(7, 8, "CALIBRATE", 1);
 825              		.loc 1 931 0
 826 0030 FFF7FEFF 		bl	Display_ClearAll
 827              	.LVL93:
 932:ui.c          **** 
 828              		.loc 1 932 0
 829 0034 0123     		movs	r3, #1
 830 0036 AC4A     		ldr	r2, .L83+8
 831 0038 0821     		movs	r1, #8
 832 003a 0720     		movs	r0, #7
 833 003c FFF7FEFF 		bl	Display_DrawText
 834              	.LVL94:
 835              	.LBB17:
 836              	.LBB16:
 783:ui.c          **** 
 837              		.loc 1 783 0
 838 0040 AA4D     		ldr	r5, .L83+12
 785:ui.c          ****     IDAC_High_SetValue(0);
 839              		.loc 1 785 0
 840 0042 0020     		movs	r0, #0
 783:ui.c          **** 
 841              		.loc 1 783 0
 842 0044 2C72     		strb	r4, [r5, #8]
 785:ui.c          ****     IDAC_High_SetValue(0);
 843              		.loc 1 785 0
 844 0046 FFF7FEFF 		bl	IDAC_Low_SetValue
 845              	.LVL95:
 786:ui.c          **** 
 846              		.loc 1 786 0
 847 004a 0020     		movs	r0, #0
 848 004c FFF7FEFF 		bl	IDAC_High_SetValue
 849              	.LVL96:
 788:ui.c          **** 	Display_DrawText(3, 32, "Leads", 0);
 850              		.loc 1 788 0
 851 0050 0023     		movs	r3, #0
 852 0052 A74A     		ldr	r2, .L83+16
 853 0054 1A21     		movs	r1, #26
 854 0056 0520     		movs	r0, #5
 855 0058 FFF7FEFF 		bl	Display_DrawText
 856              	.LVL97:
 789:ui.c          **** 	Display_DrawText(1, 26, FONT_GLYPH_ENTER ": Next", 0);
 857              		.loc 1 789 0
 858 005c 0023     		movs	r3, #0
 859 005e A54A     		ldr	r2, .L83+20
 860 0060 2021     		movs	r1, #32
 861 0062 0320     		movs	r0, #3
 862 0064 FFF7FEFF 		bl	Display_DrawText
 863              	.LVL98:
 790:ui.c          **** 
 864              		.loc 1 790 0
 865 0068 0023     		movs	r3, #0
 866 006a 2000     		movs	r0, r4
 867 006c A24A     		ldr	r2, .L83+24
 868 006e 1A21     		movs	r1, #26
 869 0070 FFF7FEFF 		bl	Display_DrawText
 870              	.LVL99:
 794:ui.c          **** 	while(event.type != UI_EVENT_BUTTONPRESS || event.int_arg != 1)
ARM GAS  C:\Users\VIDEOH~1\AppData\Local\Temp\ccpdN5tN.s 			page 35


 871              		.loc 1 794 0
 872 0074 0023     		movs	r3, #0
 873 0076 08AC     		add	r4, sp, #32
 874 0078 2370     		strb	r3, [r4]
 875 007a 0295     		str	r5, [sp, #8]
 876              	.L65:
 795:ui.c          **** 		next_event(&event);
 877              		.loc 1 795 0
 878 007c 2378     		ldrb	r3, [r4]
 879 007e 012B     		cmp	r3, #1
 880 0080 03D0     		beq	.L79
 881              	.L66:
 796:ui.c          **** 
 882              		.loc 1 796 0
 883 0082 2000     		movs	r0, r4
 884 0084 FFF7FEFF 		bl	next_event
 885              	.LVL100:
 886 0088 F8E7     		b	.L65
 887              	.L79:
 795:ui.c          **** 		next_event(&event);
 888              		.loc 1 795 0
 889 008a 6568     		ldr	r5, [r4, #4]
 890 008c 012D     		cmp	r5, #1
 891 008e F8D1     		bne	.L66
 798:ui.c          ****     state.calibrating = 0;
 892              		.loc 1 798 0
 893 0090 0CA8     		add	r0, sp, #48
 894              	.LVL101:
 895 0092 FFF7FEFF 		bl	calibrate_offsets
 896              	.LVL102:
 897              	.LBE16:
 898              	.LBE17:
 899              	.LBB18:
 900              	.LBB19:
 805:ui.c          **** 
 901              		.loc 1 805 0
 902 0096 029B     		ldr	r3, [sp, #8]
 807:ui.c          ****     IDAC_High_SetValue(0);
 903              		.loc 1 807 0
 904 0098 0020     		movs	r0, #0
 805:ui.c          **** 
 905              		.loc 1 805 0
 906 009a 1D72     		strb	r5, [r3, #8]
 807:ui.c          ****     IDAC_High_SetValue(0);
 907              		.loc 1 807 0
 908 009c FFF7FEFF 		bl	IDAC_Low_SetValue
 909              	.LVL103:
 808:ui.c          **** 
 910              		.loc 1 808 0
 911 00a0 0020     		movs	r0, #0
 912 00a2 FFF7FEFF 		bl	IDAC_High_SetValue
 913              	.LVL104:
 810:ui.c          **** 
 914              		.loc 1 810 0
 915 00a6 0023     		movs	r3, #0
 916 00a8 944A     		ldr	r2, .L83+28
 917 00aa 1421     		movs	r1, #20
ARM GAS  C:\Users\VIDEOH~1\AppData\Local\Temp\ccpdN5tN.s 			page 36


 918 00ac 0520     		movs	r0, #5
 919 00ae FFF7FEFF 		bl	Display_DrawText
 920              	.LVL105:
 814:ui.c          **** 	while(event.type != UI_EVENT_BUTTONPRESS || event.int_arg != 1) {
 921              		.loc 1 814 0
 922 00b2 0022     		movs	r2, #0
 923 00b4 04AB     		add	r3, sp, #16
 924 00b6 1A70     		strb	r2, [r3]
 925              	.L68:
 815:ui.c          **** 		next_event(&event);
 926              		.loc 1 815 0
 927 00b8 04AC     		add	r4, sp, #16
 928 00ba 2378     		ldrb	r3, [r4]
 929 00bc 012B     		cmp	r3, #1
 930 00be 21D0     		beq	.L80
 931              	.L70:
 932              	.LBB20:
 816:ui.c          **** 
 933              		.loc 1 816 0
 934 00c0 2000     		movs	r0, r4
 935 00c2 FFF7FEFF 		bl	next_event
 936              	.LVL106:
 818:ui.c          **** 		format_number_simple(voltage, "V", buf);
 937              		.loc 1 818 0
 938 00c6 FFF7FEFF 		bl	get_raw_voltage
 939              	.LVL107:
 819:ui.c          **** 		strcat(buf, " ");
 940              		.loc 1 819 0
 941 00ca 179B     		ldr	r3, [sp, #92]
 942 00cc 08AA     		add	r2, sp, #32
 943 00ce C01A     		subs	r0, r0, r3
 944              	.LVL108:
 945 00d0 189B     		ldr	r3, [sp, #96]
 946 00d2 8B49     		ldr	r1, .L83+32
 947 00d4 5843     		muls	r0, r3
 948 00d6 0393     		str	r3, [sp, #12]
 949 00d8 FFF7FEFF 		bl	format_number_simple
 950              	.LVL109:
 820:ui.c          **** 		Display_DrawText(3, 14, buf, 0);
 951              		.loc 1 820 0
 952 00dc 8949     		ldr	r1, .L83+36
 953 00de 08A8     		add	r0, sp, #32
 954 00e0 FFF7FEFF 		bl	strcat
 955              	.LVL110:
 821:ui.c          **** 
 956              		.loc 1 821 0
 957 00e4 0023     		movs	r3, #0
 958 00e6 08AA     		add	r2, sp, #32
 959 00e8 0E21     		movs	r1, #14
 960 00ea 0320     		movs	r0, #3
 961 00ec FFF7FEFF 		bl	Display_DrawText
 962              	.LVL111:
 823:ui.c          **** 		case UI_EVENT_UPDOWN:
 963              		.loc 1 823 0
 964 00f0 2378     		ldrb	r3, [r4]
 965 00f2 032B     		cmp	r3, #3
 966 00f4 E0D1     		bne	.L68
ARM GAS  C:\Users\VIDEOH~1\AppData\Local\Temp\ccpdN5tN.s 			page 37


 825:ui.c          **** 			break;
 967              		.loc 1 825 0
 968 00f6 189B     		ldr	r3, [sp, #96]
 969 00f8 0393     		str	r3, [sp, #12]
 970 00fa 039A     		ldr	r2, [sp, #12]
 971 00fc 6368     		ldr	r3, [r4, #4]
 972 00fe D318     		adds	r3, r2, r3
 973 0100 1893     		str	r3, [sp, #96]
 974 0102 D9E7     		b	.L68
 975              	.L80:
 976              	.LBE20:
 815:ui.c          **** 		next_event(&event);
 977              		.loc 1 815 0
 978 0104 6768     		ldr	r7, [r4, #4]
 979 0106 012F     		cmp	r7, #1
 980 0108 DAD1     		bne	.L70
 981              	.LVL112:
 982              	.LBE19:
 983              	.LBE18:
 984              	.LBB21:
 985              	.LBB22:
 840:ui.c          **** 	Display_DrawText(5, 20, "Adj Cur", 0);
 986              		.loc 1 840 0
 987 010a 0025     		movs	r5, #0
 835:ui.c          **** 
 988              		.loc 1 835 0
 989 010c 029B     		ldr	r3, [sp, #8]
 837:ui.c          ****     IDAC_High_SetValue((CALIBRATION_CURRENT - new_settings->calibration_settings.dac_offset) / new_
 990              		.loc 1 837 0
 991 010e 0020     		movs	r0, #0
 835:ui.c          **** 
 992              		.loc 1 835 0
 993 0110 1F72     		strb	r7, [r3, #8]
 837:ui.c          ****     IDAC_High_SetValue((CALIBRATION_CURRENT - new_settings->calibration_settings.dac_offset) / new_
 994              		.loc 1 837 0
 995 0112 FFF7FEFF 		bl	IDAC_Low_SetValue
 996              	.LVL113:
 838:ui.c          **** 
 997              		.loc 1 838 0
 998 0116 139B     		ldr	r3, [sp, #76]
 999 0118 1299     		ldr	r1, [sp, #72]
 1000 011a 0393     		str	r3, [sp, #12]
 1001 011c 039A     		ldr	r2, [sp, #12]
 1002 011e 7A4B     		ldr	r3, .L83+40
 1003 0120 981A     		subs	r0, r3, r2
 1004 0122 FFF7FEFF 		bl	__aeabi_idiv
 1005              	.LVL114:
 1006 0126 FFF7FEFF 		bl	IDAC_High_SetValue
 1007              	.LVL115:
 840:ui.c          **** 	Display_DrawText(5, 20, "Adj Cur", 0);
 1008              		.loc 1 840 0
 1009 012a 2900     		movs	r1, r5
 1010 012c 2800     		movs	r0, r5
 1011 012e 0095     		str	r5, [sp]
 1012 0130 7F23     		movs	r3, #127
 1013 0132 0522     		movs	r2, #5
 1014 0134 FFF7FEFF 		bl	Display_Clear
ARM GAS  C:\Users\VIDEOH~1\AppData\Local\Temp\ccpdN5tN.s 			page 38


 1015              	.LVL116:
 841:ui.c          **** 	Display_DrawText(1, 26, FONT_GLYPH_ENTER ": Next", 0);
 1016              		.loc 1 841 0
 1017 0138 2B00     		movs	r3, r5
 1018 013a 744A     		ldr	r2, .L83+44
 1019 013c 1421     		movs	r1, #20
 1020 013e 0520     		movs	r0, #5
 1021 0140 FFF7FEFF 		bl	Display_DrawText
 1022              	.LVL117:
 842:ui.c          **** 
 1023              		.loc 1 842 0
 1024 0144 2B00     		movs	r3, r5
 1025 0146 6C4A     		ldr	r2, .L83+24
 1026 0148 1A21     		movs	r1, #26
 1027 014a 3800     		movs	r0, r7
 1028 014c FFF7FEFF 		bl	Display_DrawText
 1029              	.LVL118:
 848:ui.c          **** 	while(event.type != UI_EVENT_BUTTONPRESS || event.int_arg != 1) {
 1030              		.loc 1 848 0
 1031 0150 2570     		strb	r5, [r4]
 1032 0152 6D4D     		ldr	r5, .L83+40
 1033              	.L72:
 849:ui.c          **** 		next_event(&event);
 1034              		.loc 1 849 0
 1035 0154 04AC     		add	r4, sp, #16
 1036 0156 2378     		ldrb	r3, [r4]
 1037 0158 012B     		cmp	r3, #1
 1038 015a 21D0     		beq	.L81
 1039              	.L74:
 850:ui.c          **** 
 1040              		.loc 1 850 0
 1041 015c 2000     		movs	r0, r4
 1042 015e FFF7FEFF 		bl	next_event
 1043              	.LVL119:
 852:ui.c          **** 		format_number_simple(current, "A", buf);
 1044              		.loc 1 852 0
 1045 0162 FFF7FEFF 		bl	get_raw_current_usage
 1046              	.LVL120:
 853:ui.c          **** 		strcat(buf, " ");
 1047              		.loc 1 853 0
 1048 0166 159B     		ldr	r3, [sp, #84]
 1049 0168 08AA     		add	r2, sp, #32
 1050 016a C01A     		subs	r0, r0, r3
 1051              	.LVL121:
 1052 016c 169B     		ldr	r3, [sp, #88]
 1053 016e 6849     		ldr	r1, .L83+48
 1054 0170 5843     		muls	r0, r3
 1055 0172 0393     		str	r3, [sp, #12]
 1056 0174 FFF7FEFF 		bl	format_number_simple
 1057              	.LVL122:
 854:ui.c          **** 		Display_DrawText(3, 14, buf, 0);
 1058              		.loc 1 854 0
 1059 0178 6249     		ldr	r1, .L83+36
 1060 017a 08A8     		add	r0, sp, #32
 1061 017c FFF7FEFF 		bl	strcat
 1062              	.LVL123:
 855:ui.c          **** 
ARM GAS  C:\Users\VIDEOH~1\AppData\Local\Temp\ccpdN5tN.s 			page 39


 1063              		.loc 1 855 0
 1064 0180 0023     		movs	r3, #0
 1065 0182 08AA     		add	r2, sp, #32
 1066 0184 0E21     		movs	r1, #14
 1067 0186 0320     		movs	r0, #3
 1068 0188 FFF7FEFF 		bl	Display_DrawText
 1069              	.LVL124:
 857:ui.c          **** 		case UI_EVENT_UPDOWN:
 1070              		.loc 1 857 0
 1071 018c 2378     		ldrb	r3, [r4]
 1072 018e 032B     		cmp	r3, #3
 1073 0190 E0D1     		bne	.L72
 859:ui.c          **** 			break;
 1074              		.loc 1 859 0
 1075 0192 169B     		ldr	r3, [sp, #88]
 1076 0194 0393     		str	r3, [sp, #12]
 1077 0196 039A     		ldr	r2, [sp, #12]
 1078 0198 6368     		ldr	r3, [r4, #4]
 1079 019a D318     		adds	r3, r2, r3
 1080 019c 1693     		str	r3, [sp, #88]
 1081 019e D9E7     		b	.L72
 1082              	.L81:
 849:ui.c          **** 		next_event(&event);
 1083              		.loc 1 849 0
 1084 01a0 6768     		ldr	r7, [r4, #4]
 1085 01a2 012F     		cmp	r7, #1
 1086 01a4 DAD1     		bne	.L74
 1087              	.LVL125:
 1088              	.LBE22:
 1089              	.LBE21:
 1090              	.LBB23:
 1091              	.LBB24:
 869:ui.c          **** 
 1092              		.loc 1 869 0
 1093 01a6 029B     		ldr	r3, [sp, #8]
 871:ui.c          **** 	IDAC_High_SetValue((CALIBRATION_CURRENT - new_settings->calibration_settings.dac_offset) / new_set
 1094              		.loc 1 871 0
 1095 01a8 0020     		movs	r0, #0
 869:ui.c          **** 
 1096              		.loc 1 869 0
 1097 01aa 1F72     		strb	r7, [r3, #8]
 871:ui.c          **** 	IDAC_High_SetValue((CALIBRATION_CURRENT - new_settings->calibration_settings.dac_offset) / new_set
 1098              		.loc 1 871 0
 1099 01ac FFF7FEFF 		bl	IDAC_Low_SetValue
 1100              	.LVL126:
 872:ui.c          **** 
 1101              		.loc 1 872 0
 1102 01b0 139B     		ldr	r3, [sp, #76]
 1103 01b2 1299     		ldr	r1, [sp, #72]
 1104 01b4 E81A     		subs	r0, r5, r3
 874:ui.c          **** 	Display_DrawText(5, 20, "Adj Volt", 0);
 1105              		.loc 1 874 0
 1106 01b6 0025     		movs	r5, #0
 872:ui.c          **** 
 1107              		.loc 1 872 0
 1108 01b8 0393     		str	r3, [sp, #12]
 1109 01ba FFF7FEFF 		bl	__aeabi_idiv
ARM GAS  C:\Users\VIDEOH~1\AppData\Local\Temp\ccpdN5tN.s 			page 40


 1110              	.LVL127:
 1111 01be FFF7FEFF 		bl	IDAC_High_SetValue
 1112              	.LVL128:
 874:ui.c          **** 	Display_DrawText(5, 20, "Adj Volt", 0);
 1113              		.loc 1 874 0
 1114 01c2 7F23     		movs	r3, #127
 1115 01c4 0522     		movs	r2, #5
 1116 01c6 2900     		movs	r1, r5
 1117 01c8 2800     		movs	r0, r5
 1118 01ca 0095     		str	r5, [sp]
 1119 01cc FFF7FEFF 		bl	Display_Clear
 1120              	.LVL129:
 875:ui.c          **** 	Display_DrawText(1, 26, FONT_GLYPH_ENTER ": Next", 0);
 1121              		.loc 1 875 0
 1122 01d0 2B00     		movs	r3, r5
 1123 01d2 4A4A     		ldr	r2, .L83+28
 1124 01d4 1421     		movs	r1, #20
 1125 01d6 0520     		movs	r0, #5
 1126 01d8 FFF7FEFF 		bl	Display_DrawText
 1127              	.LVL130:
 876:ui.c          **** 
 1128              		.loc 1 876 0
 1129 01dc 2B00     		movs	r3, r5
 1130 01de 464A     		ldr	r2, .L83+24
 1131 01e0 1A21     		movs	r1, #26
 1132 01e2 3800     		movs	r0, r7
 1133 01e4 FFF7FEFF 		bl	Display_DrawText
 1134              	.LVL131:
 882:ui.c          **** 	while(event.type != UI_EVENT_BUTTONPRESS || event.int_arg != 1) {
 1135              		.loc 1 882 0
 1136 01e8 2570     		strb	r5, [r4]
 1137              	.L76:
 883:ui.c          **** 		next_event(&event);
 1138              		.loc 1 883 0
 1139 01ea 04AC     		add	r4, sp, #16
 1140 01ec 2378     		ldrb	r3, [r4]
 1141 01ee 012B     		cmp	r3, #1
 1142 01f0 30D0     		beq	.L82
 1143              	.L78:
 884:ui.c          **** 
 1144              		.loc 1 884 0
 1145 01f2 2000     		movs	r0, r4
 1146 01f4 FFF7FEFF 		bl	next_event
 1147              	.LVL132:
 886:ui.c          **** 		voltage = (get_raw_voltage() - new_settings->calibration_settings.adc_voltage_offset) * new_setti
 1148              		.loc 1 886 0
 1149 01f8 FFF7FEFF 		bl	get_raw_current_usage
 1150              	.LVL133:
 1151 01fc 159B     		ldr	r3, [sp, #84]
 1152 01fe C51A     		subs	r5, r0, r3
 1153 0200 169B     		ldr	r3, [sp, #88]
 1154 0202 5D43     		muls	r5, r3
 1155              	.LVL134:
 1156 0204 0393     		str	r3, [sp, #12]
 887:ui.c          **** 		voltage += (current / 1024) * new_settings->calibration_settings.voltage_correction_ratio;
 1157              		.loc 1 887 0
 1158 0206 FFF7FEFF 		bl	get_raw_voltage
ARM GAS  C:\Users\VIDEOH~1\AppData\Local\Temp\ccpdN5tN.s 			page 41


 1159              	.LVL135:
 1160 020a 179B     		ldr	r3, [sp, #92]
 1161 020c 189A     		ldr	r2, [sp, #96]
 1162 020e C31A     		subs	r3, r0, r3
 889:ui.c          **** 		strcat(buf, " ");
 1163              		.loc 1 889 0
 1164 0210 E817     		asrs	r0, r5, #31
 1165 0212 8005     		lsls	r0, r0, #22
 1166 0214 800D     		lsrs	r0, r0, #22
 887:ui.c          **** 		voltage += (current / 1024) * new_settings->calibration_settings.voltage_correction_ratio;
 1167              		.loc 1 887 0
 1168 0216 5343     		muls	r3, r2
 1169              	.LVL136:
 889:ui.c          **** 		strcat(buf, " ");
 1170              		.loc 1 889 0
 1171 0218 4519     		adds	r5, r0, r5
 1172              	.LVL137:
 1173 021a 199A     		ldr	r2, [sp, #100]
 1174 021c AD12     		asrs	r5, r5, #10
 1175 021e 5543     		muls	r5, r2
 1176 0220 0392     		str	r2, [sp, #12]
 1177 0222 E818     		adds	r0, r5, r3
 1178 0224 08AA     		add	r2, sp, #32
 1179 0226 3649     		ldr	r1, .L83+32
 1180 0228 FFF7FEFF 		bl	format_number_simple
 1181              	.LVL138:
 890:ui.c          **** 		Display_DrawText(3, 14, buf, 0);
 1182              		.loc 1 890 0
 1183 022c 3549     		ldr	r1, .L83+36
 1184 022e 08A8     		add	r0, sp, #32
 1185 0230 FFF7FEFF 		bl	strcat
 1186              	.LVL139:
 891:ui.c          **** 
 1187              		.loc 1 891 0
 1188 0234 0023     		movs	r3, #0
 1189 0236 08AA     		add	r2, sp, #32
 1190 0238 0E21     		movs	r1, #14
 1191 023a 0320     		movs	r0, #3
 1192 023c FFF7FEFF 		bl	Display_DrawText
 1193              	.LVL140:
 893:ui.c          **** 		case UI_EVENT_UPDOWN:
 1194              		.loc 1 893 0
 1195 0240 2378     		ldrb	r3, [r4]
 1196 0242 032B     		cmp	r3, #3
 1197 0244 D1D1     		bne	.L76
 895:ui.c          **** 			break;
 1198              		.loc 1 895 0
 1199 0246 199B     		ldr	r3, [sp, #100]
 1200 0248 0393     		str	r3, [sp, #12]
 1201 024a 039A     		ldr	r2, [sp, #12]
 1202 024c 6368     		ldr	r3, [r4, #4]
 1203 024e D318     		adds	r3, r2, r3
 1204 0250 1993     		str	r3, [sp, #100]
 1205 0252 CAE7     		b	.L76
 1206              	.L82:
 883:ui.c          **** 		next_event(&event);
 1207              		.loc 1 883 0
ARM GAS  C:\Users\VIDEOH~1\AppData\Local\Temp\ccpdN5tN.s 			page 42


 1208 0254 6568     		ldr	r5, [r4, #4]
 1209 0256 012D     		cmp	r5, #1
 1210 0258 CBD1     		bne	.L78
 901:ui.c          **** }
 1211              		.loc 1 901 0
 1212 025a 0024     		movs	r4, #0
 1213              	.LBE24:
 1214              	.LBE23:
 1215              	.LBB27:
 1216              	.LBB28:
 916:ui.c          **** 	Display_Clear(0, 126, 1, 127, 0xFF);
 1217              		.loc 1 916 0
 1218 025c FF27     		movs	r7, #255
 1219              	.LBE28:
 1220              	.LBE27:
 1221              	.LBB31:
 1222              	.LBB25:
 901:ui.c          **** }
 1223              		.loc 1 901 0
 1224 025e 029B     		ldr	r3, [sp, #8]
 1225              	.LBE25:
 1226              	.LBE31:
 1227              	.LBB32:
 1228              	.LBB29:
 912:ui.c          **** 	Display_DrawText(4, 40, "Wait", 0);
 1229              		.loc 1 912 0
 1230 0260 2100     		movs	r1, r4
 1231              	.LBE29:
 1232              	.LBE32:
 1233              	.LBB33:
 1234              	.LBB26:
 901:ui.c          **** }
 1235              		.loc 1 901 0
 1236 0262 1C72     		strb	r4, [r3, #8]
 1237              	.LVL141:
 1238              	.LBE26:
 1239              	.LBE33:
 1240              	.LBB34:
 1241              	.LBB30:
 912:ui.c          **** 	Display_DrawText(4, 40, "Wait", 0);
 1242              		.loc 1 912 0
 1243 0264 2000     		movs	r0, r4
 1244 0266 0094     		str	r4, [sp]
 1245 0268 7F23     		movs	r3, #127
 1246 026a 0522     		movs	r2, #5
 1247 026c FFF7FEFF 		bl	Display_Clear
 1248              	.LVL142:
 913:ui.c          **** 
 1249              		.loc 1 913 0
 1250 0270 2300     		movs	r3, r4
 1251 0272 284A     		ldr	r2, .L83+52
 1252 0274 2821     		movs	r1, #40
 1253 0276 0420     		movs	r0, #4
 1254 0278 FFF7FEFF 		bl	Display_DrawText
 1255              	.LVL143:
 916:ui.c          **** 	Display_Clear(0, 126, 1, 127, 0xFF);
 1256              		.loc 1 916 0
ARM GAS  C:\Users\VIDEOH~1\AppData\Local\Temp\ccpdN5tN.s 			page 43


 1257 027c 2B00     		movs	r3, r5
 1258 027e 2A00     		movs	r2, r5
 1259 0280 2100     		movs	r1, r4
 1260 0282 2000     		movs	r0, r4
 1261 0284 0097     		str	r7, [sp]
 1262 0286 FFF7FEFF 		bl	Display_Clear
 1263              	.LVL144:
 917:ui.c          ****     Display_Clear(0, 2, 1, 125, 0x81);
 1264              		.loc 1 917 0
 1265 028a 2A00     		movs	r2, r5
 1266 028c 2000     		movs	r0, r4
 1267 028e 0097     		str	r7, [sp]
 1268 0290 7F23     		movs	r3, #127
 1269 0292 7E21     		movs	r1, #126
 1270 0294 FFF7FEFF 		bl	Display_Clear
 1271              	.LVL145:
 918:ui.c          ****     calibrate_opamp_offset_trim(new_settings, CALIBRATION_CURRENT,ui_calibration_progress);
 1272              		.loc 1 918 0
 1273 0298 8123     		movs	r3, #129
 1274 029a 2A00     		movs	r2, r5
 1275 029c 0093     		str	r3, [sp]
 1276 029e 2000     		movs	r0, r4
 1277 02a0 043B     		subs	r3, r3, #4
 1278 02a2 0221     		movs	r1, #2
 1279 02a4 FFF7FEFF 		bl	Display_Clear
 1280              	.LVL146:
 919:ui.c          **** 	calibrate_dacs(new_settings, CALIBRATION_CURRENT);
 1281              		.loc 1 919 0
 1282 02a8 1B4A     		ldr	r2, .L83+56
 1283 02aa 0CA8     		add	r0, sp, #48
 1284              	.LVL147:
 1285 02ac 1649     		ldr	r1, .L83+40
 1286 02ae FFF7FEFF 		bl	calibrate_opamp_offset_trim
 1287              	.LVL148:
 920:ui.c          **** }
 1288              		.loc 1 920 0
 1289 02b2 0CA8     		add	r0, sp, #48
 1290              	.LVL149:
 1291 02b4 1449     		ldr	r1, .L83+40
 1292 02b6 FFF7FEFF 		bl	calibrate_dacs
 1293              	.LVL150:
 1294              	.LBE30:
 1295              	.LBE34:
 939:ui.c          **** 	EEPROM_Write(0,(uint8*)&settings, sizeof(settings_t));
 1296              		.loc 1 939 0
 1297 02ba 094D     		ldr	r5, .L83
 1298 02bc 0CA9     		add	r1, sp, #48
 1299 02be 3822     		movs	r2, #56
 1300 02c0 2800     		movs	r0, r5
 1301 02c2 FFF7FEFF 		bl	memcpy
 1302              	.LVL151:
 940:ui.c          **** 
 1303              		.loc 1 940 0
 1304 02c6 154B     		ldr	r3, .L83+60
 1305 02c8 3822     		movs	r2, #56
 1306 02ca 2900     		movs	r1, r5
 1307 02cc 2000     		movs	r0, r4
ARM GAS  C:\Users\VIDEOH~1\AppData\Local\Temp\ccpdN5tN.s 			page 44


 1308 02ce FFF7FEFF 		bl	Cy_Em_EEPROM_Write
 1309              	.LVL152:
 943:ui.c          **** 
 1310              		.loc 1 943 0
 1311 02d2 3000     		movs	r0, r6
 942:ui.c          **** }
 1312              		.loc 1 942 0
 1313 02d4 3460     		str	r4, [r6]
 1314 02d6 7460     		str	r4, [r6, #4]
 1315 02d8 3472     		strb	r4, [r6, #8]
 943:ui.c          **** 
 1316              		.loc 1 943 0
 1317 02da 1BB0     		add	sp, sp, #108
 1318              		@ sp needed
 1319              	.LVL153:
 1320 02dc F0BD     		pop	{r4, r5, r6, r7, pc}
 1321              	.L84:
 1322 02de C046     		.align	2
 1323              	.L83:
 1324 02e0 00000000 		.word	settings
 1325 02e4 00000000 		.word	default_settings
 1326 02e8 5D000000 		.word	.LC38
 1327 02ec 00000000 		.word	state
 1328 02f0 67000000 		.word	.LC41
 1329 02f4 6E000000 		.word	.LC43
 1330 02f8 74000000 		.word	.LC45
 1331 02fc 7C000000 		.word	.LC47
 1332 0300 24000000 		.word	.LC12
 1333 0304 85000000 		.word	.LC50
 1334 0308 80841E00 		.word	2000000
 1335 030c 87000000 		.word	.LC52
 1336 0310 8F000000 		.word	.LC54
 1337 0314 91000000 		.word	.LC56
 1338 0318 00000000 		.word	ui_calibration_progress
 1339 031c 00000000 		.word	EEPROM_context
 1340              		.cfi_endproc
 1341              	.LFE67:
 1342              		.size	ui_calibrate, .-ui_calibrate
 1343              		.section	.text.overlimit,"ax",%progbits
 1344              		.align	1
 1345              		.code	16
 1346              		.thumb_func
 1347              		.type	overlimit, %function
 1348              	overlimit:
 1349              	.LFB58:
 679:ui.c          **** 	Display_Clear(0, 0, 7, 127, 0xFF);
 1350              		.loc 1 679 0
 1351              		.cfi_startproc
 1352              		@ args = 0, pretend = 0, frame = 16
 1353              		@ frame_needed = 0, uses_anonymous_args = 0
 1354              	.LVL154:
 1355 0000 70B5     		push	{r4, r5, r6, lr}
 1356              		.cfi_def_cfa_offset 16
 1357              		.cfi_offset 4, -16
 1358              		.cfi_offset 5, -12
 1359              		.cfi_offset 6, -8
 1360              		.cfi_offset 14, -4
ARM GAS  C:\Users\VIDEOH~1\AppData\Local\Temp\ccpdN5tN.s 			page 45


 1361 0002 0E00     		movs	r6, r1
 680:ui.c          ****     switch((limit_type)arg) {
 1362              		.loc 1 680 0
 1363 0004 FF25     		movs	r5, #255
 1364 0006 0021     		movs	r1, #0
 1365              	.LVL155:
 679:ui.c          **** 	Display_Clear(0, 0, 7, 127, 0xFF);
 1366              		.loc 1 679 0
 1367 0008 86B0     		sub	sp, sp, #24
 1368              		.cfi_def_cfa_offset 40
 679:ui.c          **** 	Display_Clear(0, 0, 7, 127, 0xFF);
 1369              		.loc 1 679 0
 1370 000a 0400     		movs	r4, r0
 680:ui.c          ****     switch((limit_type)arg) {
 1371              		.loc 1 680 0
 1372 000c 0095     		str	r5, [sp]
 1373 000e 0800     		movs	r0, r1
 1374              	.LVL156:
 1375 0010 7F23     		movs	r3, #127
 1376 0012 0722     		movs	r2, #7
 1377 0014 FFF7FEFF 		bl	Display_Clear
 1378              	.LVL157:
 681:ui.c          ****     case LIMIT_TYPE_OVERTEMP:
 1379              		.loc 1 681 0
 1380 0018 3100     		movs	r1, r6
 1381 001a 2940     		ands	r1, r5
 1382 001c 05D0     		beq	.L87
 1383 001e 0129     		cmp	r1, #1
 1384 0020 08D1     		bne	.L86
 686:ui.c          ****         break;
 1385              		.loc 1 686 0
 1386 0022 0B00     		movs	r3, r1
 1387 0024 154A     		ldr	r2, .L96
 1388 0026 0021     		movs	r1, #0
 1389 0028 01E0     		b	.L93
 1390              	.L87:
 683:ui.c          ****         break;
 1391              		.loc 1 683 0
 1392 002a 0123     		movs	r3, #1
 1393 002c 144A     		ldr	r2, .L96+4
 1394              	.L93:
 686:ui.c          ****         break;
 1395              		.loc 1 686 0
 1396 002e 0520     		movs	r0, #5
 1397 0030 FFF7FEFF 		bl	Display_DrawText
 1398              	.LVL158:
 1399              	.L86:
 689:ui.c          **** 
 1400              		.loc 1 689 0
 1401 0034 0123     		movs	r3, #1
 1402 0036 134A     		ldr	r2, .L96+8
 1403 0038 1800     		movs	r0, r3
 1404 003a 1021     		movs	r1, #16
 1405 003c FFF7FEFF 		bl	Display_DrawText
 1406              	.LVL159:
 692:ui.c          **** 	while(event.type != UI_EVENT_BUTTONPRESS || event.int_arg != 1) {
 1407              		.loc 1 692 0
ARM GAS  C:\Users\VIDEOH~1\AppData\Local\Temp\ccpdN5tN.s 			page 46


 1408 0040 0023     		movs	r3, #0
 1409 0042 02AD     		add	r5, sp, #8
 1410 0044 2B70     		strb	r3, [r5]
 1411              	.L89:
 693:ui.c          **** 		next_event(&event);
 1412              		.loc 1 693 0
 1413 0046 2B78     		ldrb	r3, [r5]
 1414 0048 012B     		cmp	r3, #1
 1415 004a 07D0     		beq	.L95
 1416              	.L91:
 694:ui.c          **** 		if(get_output_mode() == OUTPUT_MODE_FEEDBACK)
 1417              		.loc 1 694 0
 1418 004c 2800     		movs	r0, r5
 1419 004e FFF7FEFF 		bl	next_event
 1420              	.LVL160:
 695:ui.c          **** 			return (state_func)STATE_MAIN;
 1421              		.loc 1 695 0
 1422 0052 FFF7FEFF 		bl	get_output_mode
 1423              	.LVL161:
 1424 0056 0228     		cmp	r0, #2
 1425 0058 F5D1     		bne	.L89
 1426 005a 08E0     		b	.L94
 1427              	.L95:
 693:ui.c          **** 		next_event(&event);
 1428              		.loc 1 693 0 discriminator 1
 1429 005c 6B68     		ldr	r3, [r5, #4]
 1430 005e 012B     		cmp	r3, #1
 1431 0060 F4D1     		bne	.L91
 699:ui.c          **** 	set_output_mode(OUTPUT_MODE_FEEDBACK);
 1432              		.loc 1 699 0
 1433 0062 0020     		movs	r0, #0
 1434 0064 FFF7FEFF 		bl	set_current
 1435              	.LVL162:
 700:ui.c          **** 	return (state_func)STATE_MAIN;
 1436              		.loc 1 700 0
 1437 0068 0220     		movs	r0, #2
 1438 006a FFF7FEFF 		bl	set_output_mode
 1439              	.LVL163:
 1440              	.L94:
 701:ui.c          ****     CyDelay(1000);
 1441              		.loc 1 701 0
 1442 006e 0023     		movs	r3, #0
 703:ui.c          **** 
 1443              		.loc 1 703 0
 1444 0070 2000     		movs	r0, r4
 701:ui.c          ****     CyDelay(1000);
 1445              		.loc 1 701 0
 1446 0072 2360     		str	r3, [r4]
 1447 0074 6360     		str	r3, [r4, #4]
 1448 0076 2372     		strb	r3, [r4, #8]
 703:ui.c          **** 
 1449              		.loc 1 703 0
 1450 0078 06B0     		add	sp, sp, #24
 1451              		@ sp needed
 1452              	.LVL164:
 1453              	.LVL165:
 1454 007a 70BD     		pop	{r4, r5, r6, pc}
ARM GAS  C:\Users\VIDEOH~1\AppData\Local\Temp\ccpdN5tN.s 			page 47


 1455              	.L97:
 1456              		.align	2
 1457              	.L96:
 1458 007c A1000000 		.word	.LC63
 1459 0080 96000000 		.word	.LC61
 1460 0084 AD000000 		.word	.LC65
 1461              		.cfi_endproc
 1462              	.LFE58:
 1463              		.size	overlimit, .-overlimit
 1464              		.section	.text.set_contrast,"ax",%progbits
 1465              		.align	1
 1466              		.code	16
 1467              		.thumb_func
 1468              		.type	set_contrast, %function
 1469              	set_contrast:
 1470              	.LFB55:
 528:ui.c          **** 	Display_ClearAll();
 1471              		.loc 1 528 0
 1472              		.cfi_startproc
 1473              		@ args = 0, pretend = 0, frame = 24
 1474              		@ frame_needed = 0, uses_anonymous_args = 0
 1475              	.LVL166:
 1476 0000 F0B5     		push	{r4, r5, r6, r7, lr}
 1477              		.cfi_def_cfa_offset 20
 1478              		.cfi_offset 4, -20
 1479              		.cfi_offset 5, -16
 1480              		.cfi_offset 6, -12
 1481              		.cfi_offset 7, -8
 1482              		.cfi_offset 14, -4
 530:ui.c          **** 	Display_DrawText(7, 16, "Contrast", 1);
 1483              		.loc 1 530 0
 1484 0002 FF26     		movs	r6, #255
 528:ui.c          **** 	Display_ClearAll();
 1485              		.loc 1 528 0
 1486 0004 89B0     		sub	sp, sp, #36
 1487              		.cfi_def_cfa_offset 56
 528:ui.c          **** 	Display_ClearAll();
 1488              		.loc 1 528 0
 1489 0006 0500     		movs	r5, r0
 529:ui.c          **** 	Display_Clear(6, 2, 7, 127, 0xFF);
 1490              		.loc 1 529 0
 1491 0008 FFF7FEFF 		bl	Display_ClearAll
 1492              	.LVL167:
 530:ui.c          **** 	Display_DrawText(7, 16, "Contrast", 1);
 1493              		.loc 1 530 0
 1494 000c 7F23     		movs	r3, #127
 1495 000e 0722     		movs	r2, #7
 1496 0010 0221     		movs	r1, #2
 1497 0012 0620     		movs	r0, #6
 1498 0014 0096     		str	r6, [sp]
 1499 0016 FFF7FEFF 		bl	Display_Clear
 1500              	.LVL168:
 531:ui.c          **** 	Display_DrawText(1, 28, FONT_GLYPH_ENTER ": Done", 0);
 1501              		.loc 1 531 0
 1502 001a 0123     		movs	r3, #1
 1503 001c 2F4A     		ldr	r2, .L113
 1504 001e 1021     		movs	r1, #16
ARM GAS  C:\Users\VIDEOH~1\AppData\Local\Temp\ccpdN5tN.s 			page 48


 1505 0020 0720     		movs	r0, #7
 1506 0022 FFF7FEFF 		bl	Display_DrawText
 1507              	.LVL169:
 532:ui.c          **** 
 1508              		.loc 1 532 0
 1509 0026 0023     		movs	r3, #0
 1510 0028 2D4A     		ldr	r2, .L113+4
 1511 002a 1C21     		movs	r1, #28
 1512 002c 0120     		movs	r0, #1
 1513 002e FFF7FEFF 		bl	Display_DrawText
 1514              	.LVL170:
 535:ui.c          ****     Display_DrawText(4,96,FONT_GLYPH_MENU_RARR,0);
 1515              		.loc 1 535 0
 1516 0032 0023     		movs	r3, #0
 1517 0034 2B4A     		ldr	r2, .L113+8
 1518 0036 1421     		movs	r1, #20
 1519 0038 0420     		movs	r0, #4
 1520 003a FFF7FEFF 		bl	Display_DrawText
 1521              	.LVL171:
 536:ui.c          **** 
 1522              		.loc 1 536 0
 1523 003e 0023     		movs	r3, #0
 1524 0040 294A     		ldr	r2, .L113+12
 1525 0042 6021     		movs	r1, #96
 1526 0044 0420     		movs	r0, #4
 1527 0046 FFF7FEFF 		bl	Display_DrawText
 1528              	.LVL172:
 538:ui.c          **** 	ui_event event;
 1529              		.loc 1 538 0
 1530 004a 284F     		ldr	r7, .L113+16
 541:ui.c          ****         if(contrast!=CONTRAST_MAX)
 1531              		.loc 1 541 0
 1532 004c 0396     		str	r6, [sp, #12]
 538:ui.c          **** 	ui_event event;
 1533              		.loc 1 538 0
 1534 004e 7C68     		ldr	r4, [r7, #4]
 1535              	.LVL173:
 1536              	.L99:
 541:ui.c          ****         if(contrast!=CONTRAST_MAX)
 1537              		.loc 1 541 0
 1538 0050 E6B2     		uxtb	r6, r4
 1539 0052 3300     		movs	r3, r6
 1540 0054 039A     		ldr	r2, [sp, #12]
 1541 0056 203B     		subs	r3, r3, #32
 1542 0058 0092     		str	r2, [sp]
 1543 005a DBB2     		uxtb	r3, r3
 1544 005c 0422     		movs	r2, #4
 1545 005e 2021     		movs	r1, #32
 1546 0060 0320     		movs	r0, #3
 1547 0062 FFF7FEFF 		bl	Display_Clear
 1548              	.LVL174:
 542:ui.c          **** 		    Display_Clear(3, contrast - CONTRAST_MIN+32+1, 4, 95, 0x81);
 1549              		.loc 1 542 0
 1550 0066 7F2C     		cmp	r4, #127
 1551 0068 08D0     		beq	.L101
 543:ui.c          **** 
 1552              		.loc 1 543 0
ARM GAS  C:\Users\VIDEOH~1\AppData\Local\Temp\ccpdN5tN.s 			page 49


 1553 006a 8123     		movs	r3, #129
 1554 006c 1F3E     		subs	r6, r6, #31
 1555 006e 0093     		str	r3, [sp]
 1556 0070 F1B2     		uxtb	r1, r6
 1557 0072 223B     		subs	r3, r3, #34
 1558 0074 0422     		movs	r2, #4
 1559 0076 0320     		movs	r0, #3
 1560 0078 FFF7FEFF 		bl	Display_Clear
 1561              	.LVL175:
 1562              	.L101:
 545:ui.c          **** 		switch(event.type) {
 1563              		.loc 1 545 0
 1564 007c 04AE     		add	r6, sp, #16
 1565 007e 3000     		movs	r0, r6
 1566 0080 FFF7FEFF 		bl	next_event
 1567              	.LVL176:
 546:ui.c          **** 		case UI_EVENT_UPDOWN:
 1568              		.loc 1 546 0
 1569 0084 3378     		ldrb	r3, [r6]
 1570 0086 032B     		cmp	r3, #3
 1571 0088 04D0     		beq	.L102
 1572 008a 052B     		cmp	r3, #5
 1573 008c 1DD0     		beq	.L103
 1574 008e 012B     		cmp	r3, #1
 1575 0090 DED1     		bne	.L99
 1576 0092 0CE0     		b	.L112
 1577              	.L102:
 548:ui.c          **** 			if(contrast > CONTRAST_MAX) {
 1578              		.loc 1 548 0
 1579 0094 7368     		ldr	r3, [r6, #4]
 1580 0096 E418     		adds	r4, r4, r3
 1581              	.LVL177:
 549:ui.c          **** 				contrast = CONTRAST_MAX;
 1582              		.loc 1 549 0
 1583 0098 7F2C     		cmp	r4, #127
 1584 009a 03DC     		bgt	.L107
 551:ui.c          **** 				contrast = CONTRAST_MIN;
 1585              		.loc 1 551 0
 1586 009c 3F2C     		cmp	r4, #63
 1587 009e 02DC     		bgt	.L105
 552:ui.c          **** 			}
 1588              		.loc 1 552 0
 1589 00a0 4024     		movs	r4, #64
 1590              	.LVL178:
 1591 00a2 00E0     		b	.L105
 1592              	.LVL179:
 1593              	.L107:
 550:ui.c          **** 			} else if(contrast < CONTRAST_MIN) {
 1594              		.loc 1 550 0
 1595 00a4 7F24     		movs	r4, #127
 1596              	.LVL180:
 1597              	.L105:
 554:ui.c          **** 			break;
 1598              		.loc 1 554 0
 1599 00a6 E0B2     		uxtb	r0, r4
 1600 00a8 FFF7FEFF 		bl	Display_SetContrast
 1601              	.LVL181:
ARM GAS  C:\Users\VIDEOH~1\AppData\Local\Temp\ccpdN5tN.s 			page 50


 555:ui.c          **** 		case UI_EVENT_BUTTONPRESS:
 1602              		.loc 1 555 0
 1603 00ac D0E7     		b	.L99
 1604              	.L112:
 557:ui.c          ****                 settings.lcd_contrast=contrast;
 1605              		.loc 1 557 0
 1606 00ae 7368     		ldr	r3, [r6, #4]
 1607 00b0 012B     		cmp	r3, #1
 1608 00b2 CDD1     		bne	.L99
 559:ui.c          **** 				return (state_func)STATE_MAIN;
 1609              		.loc 1 559 0
 1610 00b4 0E4B     		ldr	r3, .L113+20
 1611 00b6 3822     		movs	r2, #56
 1612 00b8 3900     		movs	r1, r7
 1613 00ba 0020     		movs	r0, #0
 558:ui.c          **** 				EEPROM_Write(0,(void*)&settings, sizeof(settings_t));
 1614              		.loc 1 558 0
 1615 00bc 7C60     		str	r4, [r7, #4]
 559:ui.c          **** 				return (state_func)STATE_MAIN;
 1616              		.loc 1 559 0
 1617 00be FFF7FEFF 		bl	Cy_Em_EEPROM_Write
 1618              	.LVL182:
 560:ui.c          **** 			}
 1619              		.loc 1 560 0
 1620 00c2 0023     		movs	r3, #0
 1621 00c4 2B60     		str	r3, [r5]
 1622 00c6 6B60     		str	r3, [r5, #4]
 1623 00c8 04E0     		b	.L111
 1624              	.L103:
 564:ui.c          **** 		default:
 1625              		.loc 1 564 0
 1626 00ca 7368     		ldr	r3, [r6, #4]
 1627 00cc 6B60     		str	r3, [r5, #4]
 1628 00ce 094B     		ldr	r3, .L113+24
 1629 00d0 2B60     		str	r3, [r5]
 1630 00d2 0023     		movs	r3, #0
 1631              	.L111:
 569:ui.c          **** static state_func set_cooler(const void *arg) {
 1632              		.loc 1 569 0
 1633 00d4 2800     		movs	r0, r5
 564:ui.c          **** 		default:
 1634              		.loc 1 564 0
 1635 00d6 2B72     		strb	r3, [r5, #8]
 569:ui.c          **** static state_func set_cooler(const void *arg) {
 1636              		.loc 1 569 0
 1637 00d8 09B0     		add	sp, sp, #36
 1638              		@ sp needed
 1639              	.LVL183:
 1640              	.LVL184:
 1641 00da F0BD     		pop	{r4, r5, r6, r7, pc}
 1642              	.L114:
 1643              		.align	2
 1644              	.L113:
 1645 00dc B5000000 		.word	.LC67
 1646 00e0 BE000000 		.word	.LC69
 1647 00e4 C6000000 		.word	.LC71
 1648 00e8 C8000000 		.word	.LC73
ARM GAS  C:\Users\VIDEOH~1\AppData\Local\Temp\ccpdN5tN.s 			page 51


 1649 00ec 00000000 		.word	settings
 1650 00f0 00000000 		.word	EEPROM_context
 1651 00f4 00000000 		.word	overlimit
 1652              		.cfi_endproc
 1653              	.LFE55:
 1654              		.size	set_contrast, .-set_contrast
 1655              		.section	.text.menu,"ax",%progbits
 1656              		.align	1
 1657              		.code	16
 1658              		.thumb_func
 1659              		.type	menu, %function
 1660              	menu:
 1661              	.LFB59:
 705:ui.c          **** 	const menudata *menu = (const menudata *)arg;
 1662              		.loc 1 705 0
 1663              		.cfi_startproc
 1664              		@ args = 0, pretend = 0, frame = 40
 1665              		@ frame_needed = 0, uses_anonymous_args = 0
 1666              	.LVL185:
 1667 0000 F0B5     		push	{r4, r5, r6, r7, lr}
 1668              		.cfi_def_cfa_offset 20
 1669              		.cfi_offset 4, -20
 1670              		.cfi_offset 5, -16
 1671              		.cfi_offset 6, -12
 1672              		.cfi_offset 7, -8
 1673              		.cfi_offset 14, -4
 1674 0002 8DB0     		sub	sp, sp, #52
 1675              		.cfi_def_cfa_offset 72
 1676              	.LVL186:
 705:ui.c          **** 	const menudata *menu = (const menudata *)arg;
 1677              		.loc 1 705 0
 1678 0004 0390     		str	r0, [sp, #12]
 1679 0006 0491     		str	r1, [sp, #16]
 1680              	.LVL187:
 708:ui.c          **** 	int selected = 0;
 1681              		.loc 1 708 0
 1682 0008 FFF7FEFF 		bl	Display_ClearAll
 1683              	.LVL188:
 711:ui.c          **** 	while(event.type != UI_EVENT_BUTTONPRESS || event.int_arg != 1) {
 1684              		.loc 1 711 0
 1685 000c 0023     		movs	r3, #0
 709:ui.c          **** 	ui_event event;
 1686              		.loc 1 709 0
 1687 000e 1F00     		movs	r7, r3
 711:ui.c          **** 	while(event.type != UI_EVENT_BUTTONPRESS || event.int_arg != 1) {
 1688              		.loc 1 711 0
 1689 0010 08AA     		add	r2, sp, #32
 1690 0012 1370     		strb	r3, [r2]
 1691              	.LVL189:
 1692              	.L116:
 712:ui.c          **** 		draw_menu(menu, selected);
 1693              		.loc 1 712 0
 1694 0014 08AB     		add	r3, sp, #32
 1695 0016 1A78     		ldrb	r2, [r3]
 1696 0018 012A     		cmp	r2, #1
 1697 001a 00D1     		bne	.LCB1586
 1698 001c B2E0     		b	.L140	@long jump
ARM GAS  C:\Users\VIDEOH~1\AppData\Local\Temp\ccpdN5tN.s 			page 52


 1699              	.LCB1586:
 1700              	.L132:
 1701              	.LVL190:
 1702              	.LBB40:
 1703              	.LBB41:
 297:ui.c          **** 		int8 padding = (127 - strlen(menu->title) * 12) / 2;
 1704              		.loc 1 297 0
 1705 001e 049B     		ldr	r3, [sp, #16]
 1706 0020 1868     		ldr	r0, [r3]
 1707 0022 0028     		cmp	r0, #0
 1708 0024 26D0     		beq	.L133
 1709              	.LBB42:
 298:ui.c          **** 		Display_Clear(6, 2, 7, padding + 1, 0xFF);
 1710              		.loc 1 298 0
 1711 0026 FFF7FEFF 		bl	strlen
 1712              	.LVL191:
 299:ui.c          **** 		Display_DrawText(7, padding + 1, menu->title, 1);
 1713              		.loc 1 299 0
 1714 002a 0C23     		movs	r3, #12
 1715 002c 7F26     		movs	r6, #127
 1716 002e 5843     		muls	r0, r3
 1717              	.LVL192:
 1718 0030 341A     		subs	r4, r6, r0
 1719 0032 6408     		lsrs	r4, r4, #1
 1720 0034 E4B2     		uxtb	r4, r4
 1721 0036 651C     		adds	r5, r4, #1
 1722 0038 EDB2     		uxtb	r5, r5
 1723 003a F333     		adds	r3, r3, #243
 1724 003c 0093     		str	r3, [sp]
 1725 003e 0722     		movs	r2, #7
 1726 0040 2B00     		movs	r3, r5
 1727 0042 0221     		movs	r1, #2
 1728 0044 0620     		movs	r0, #6
 1729 0046 FFF7FEFF 		bl	Display_Clear
 1730              	.LVL193:
 300:ui.c          **** 		Display_Clear(6, 127 - padding - 1, 7, 127, 0xFF);
 1731              		.loc 1 300 0
 1732 004a 049A     		ldr	r2, [sp, #16]
 1733 004c 0123     		movs	r3, #1
 1734 004e 1268     		ldr	r2, [r2]
 1735 0050 2900     		movs	r1, r5
 1736 0052 0720     		movs	r0, #7
 1737 0054 FFF7FEFF 		bl	Display_DrawText
 1738              	.LVL194:
 301:ui.c          **** 		start_row-=2;
 1739              		.loc 1 301 0
 1740 0058 7E21     		movs	r1, #126
 1741 005a FF23     		movs	r3, #255
 1742 005c 091B     		subs	r1, r1, r4
 1743 005e 0093     		str	r3, [sp]
 1744 0060 C9B2     		uxtb	r1, r1
 1745 0062 3300     		movs	r3, r6
 1746 0064 0722     		movs	r2, #7
 1747 0066 0620     		movs	r0, #6
 1748 0068 FFF7FEFF 		bl	Display_Clear
 1749              	.LVL195:
 303:ui.c          **** 	}
ARM GAS  C:\Users\VIDEOH~1\AppData\Local\Temp\ccpdN5tN.s 			page 53


 1750              		.loc 1 303 0
 1751 006c 0323     		movs	r3, #3
 302:ui.c          **** 		height--;
 1752              		.loc 1 302 0
 1753 006e 0524     		movs	r4, #5
 303:ui.c          **** 	}
 1754              		.loc 1 303 0
 1755 0070 0593     		str	r3, [sp, #20]
 1756 0072 02E0     		b	.L117
 1757              	.LVL196:
 1758              	.L133:
 1759              	.LBE42:
 295:ui.c          **** 
 1760              		.loc 1 295 0
 1761 0074 0423     		movs	r3, #4
 1762              	.LVL197:
 294:ui.c          **** 	int height = 4;
 1763              		.loc 1 294 0
 1764 0076 0724     		movs	r4, #7
 295:ui.c          **** 
 1765              		.loc 1 295 0
 1766 0078 0593     		str	r3, [sp, #20]
 1767              	.LVL198:
 1768              	.L117:
 306:ui.c          **** 
 1769              		.loc 1 306 0
 1770 007a 0599     		ldr	r1, [sp, #20]
 1771 007c 3800     		movs	r0, r7
 1772 007e FFF7FEFF 		bl	__aeabi_idiv
 1773              	.LVL199:
 1774 0082 E4B2     		uxtb	r4, r4
 1775              	.LVL200:
 1776 0084 464A     		ldr	r2, .L141
 1777 0086 0028     		cmp	r0, #0
 1778 0088 00D1     		bne	.L118
 1779 008a 464A     		ldr	r2, .L141+4
 1780              	.L118:
 1781 008c 0023     		movs	r3, #0
 1782 008e 7321     		movs	r1, #115
 1783 0090 2000     		movs	r0, r4
 1784 0092 FFF7FEFF 		bl	Display_DrawText
 1785              	.LVL201:
 309:ui.c          **** 	selected %= height;
 1786              		.loc 1 309 0
 1787 0096 0599     		ldr	r1, [sp, #20]
 1788 0098 3800     		movs	r0, r7
 1789 009a FFF7FEFF 		bl	__aeabi_idivmod
 1790              	.LVL202:
 1791 009e 049B     		ldr	r3, [sp, #16]
 1792 00a0 7D1A     		subs	r5, r7, r1
 1793 00a2 2D01     		lsls	r5, r5, #4
 1794 00a4 5D19     		adds	r5, r3, r5
 1795              	.LBB43:
 312:ui.c          **** 		if(current->caption != NULL) {
 1796              		.loc 1 312 0
 1797 00a6 0023     		movs	r3, #0
 1798              	.LBE43:
ARM GAS  C:\Users\VIDEOH~1\AppData\Local\Temp\ccpdN5tN.s 			page 54


 309:ui.c          **** 	selected %= height;
 1799              		.loc 1 309 0
 1800 00a8 0791     		str	r1, [sp, #28]
 1801 00aa 0435     		adds	r5, r5, #4
 1802              	.LVL203:
 1803              	.LBB44:
 312:ui.c          **** 		if(current->caption != NULL) {
 1804              		.loc 1 312 0
 1805 00ac 0693     		str	r3, [sp, #24]
 1806              	.LVL204:
 1807              	.L121:
 313:ui.c          **** 			Display_DrawText(start_row-i*2, 2, current->caption, i == selected);
 1808              		.loc 1 313 0
 1809 00ae 2968     		ldr	r1, [r5]
 1810 00b0 0029     		cmp	r1, #0
 1811 00b2 1DD0     		beq	.L119
 314:ui.c          **** 			Display_Clear(start_row-i*2-1, strlen(current->caption) * 12 + 1,  start_row -i*2, 114, (i == se
 1812              		.loc 1 314 0
 1813 00b4 079B     		ldr	r3, [sp, #28]
 1814 00b6 069A     		ldr	r2, [sp, #24]
 1815 00b8 2000     		movs	r0, r4
 1816 00ba 9E1A     		subs	r6, r3, r2
 1817 00bc 7342     		rsbs	r3, r6, #0
 1818 00be 5E41     		adcs	r6, r6, r3
 1819 00c0 F6B2     		uxtb	r6, r6
 1820 00c2 3300     		movs	r3, r6
 1821 00c4 0A00     		movs	r2, r1
 1822 00c6 0221     		movs	r1, #2
 1823 00c8 FFF7FEFF 		bl	Display_DrawText
 1824              	.LVL205:
 315:ui.c          **** 			current++;
 1825              		.loc 1 315 0
 1826 00cc 2868     		ldr	r0, [r5]
 1827 00ce FFF7FEFF 		bl	strlen
 1828              	.LVL206:
 1829 00d2 0C21     		movs	r1, #12
 1830 00d4 4143     		muls	r1, r0
 1831 00d6 7642     		rsbs	r6, r6, #0
 1832 00d8 0131     		adds	r1, r1, #1
 1833 00da 601E     		subs	r0, r4, #1
 1834 00dc F6B2     		uxtb	r6, r6
 1835 00de C9B2     		uxtb	r1, r1
 1836 00e0 C0B2     		uxtb	r0, r0
 1837 00e2 0096     		str	r6, [sp]
 1838 00e4 7223     		movs	r3, #114
 1839 00e6 2200     		movs	r2, r4
 1840 00e8 FFF7FEFF 		bl	Display_Clear
 1841              	.LVL207:
 316:ui.c          **** 		} else {
 1842              		.loc 1 316 0
 1843 00ec 1035     		adds	r5, r5, #16
 1844              	.LVL208:
 1845 00ee 06E0     		b	.L120
 1846              	.L119:
 318:ui.c          **** 		}
 1847              		.loc 1 318 0
 1848 00f0 601E     		subs	r0, r4, #1
ARM GAS  C:\Users\VIDEOH~1\AppData\Local\Temp\ccpdN5tN.s 			page 55


 1849 00f2 C0B2     		uxtb	r0, r0
 1850 00f4 0091     		str	r1, [sp]
 1851 00f6 7F23     		movs	r3, #127
 1852 00f8 2200     		movs	r2, r4
 1853 00fa FFF7FEFF 		bl	Display_Clear
 1854              	.LVL209:
 1855              	.L120:
 312:ui.c          **** 		if(current->caption != NULL) {
 1856              		.loc 1 312 0
 1857 00fe 069B     		ldr	r3, [sp, #24]
 1858 0100 023C     		subs	r4, r4, #2
 1859 0102 0133     		adds	r3, r3, #1
 1860 0104 0693     		str	r3, [sp, #24]
 1861              	.LVL210:
 1862 0106 069A     		ldr	r2, [sp, #24]
 1863 0108 059B     		ldr	r3, [sp, #20]
 1864              	.LVL211:
 1865 010a E4B2     		uxtb	r4, r4
 1866 010c 9342     		cmp	r3, r2
 1867 010e CED1     		bne	.L121
 1868              	.LBE44:
 322:ui.c          **** 		Display_DrawText(1, 115, FONT_GLYPH_DARR, 0);
 1869              		.loc 1 322 0
 1870 0110 2B68     		ldr	r3, [r5]
 325:ui.c          **** 	}
 1871              		.loc 1 325 0
 1872 0112 244A     		ldr	r2, .L141+4
 1873              	.LVL212:
 322:ui.c          **** 		Display_DrawText(1, 115, FONT_GLYPH_DARR, 0);
 1874              		.loc 1 322 0
 1875 0114 002B     		cmp	r3, #0
 1876 0116 01D0     		beq	.L139
 323:ui.c          **** 	} else {
 1877              		.loc 1 323 0
 1878 0118 0023     		movs	r3, #0
 1879 011a 234A     		ldr	r2, .L141+8
 1880              	.L139:
 325:ui.c          **** 	}
 1881              		.loc 1 325 0
 1882 011c 7321     		movs	r1, #115
 1883 011e 0120     		movs	r0, #1
 1884              	.LBE41:
 1885              	.LBE40:
 714:ui.c          **** 		switch(event.type) {
 1886              		.loc 1 714 0
 1887 0120 08AC     		add	r4, sp, #32
 1888              	.LBB46:
 1889              	.LBB45:
 325:ui.c          **** 	}
 1890              		.loc 1 325 0
 1891 0122 FFF7FEFF 		bl	Display_DrawText
 1892              	.LVL213:
 1893              	.LBE45:
 1894              	.LBE46:
 714:ui.c          **** 		switch(event.type) {
 1895              		.loc 1 714 0
 1896 0126 2000     		movs	r0, r4
ARM GAS  C:\Users\VIDEOH~1\AppData\Local\Temp\ccpdN5tN.s 			page 56


 1897 0128 FFF7FEFF 		bl	next_event
 1898              	.LVL214:
 715:ui.c          **** 		case UI_EVENT_UPDOWN:
 1899              		.loc 1 715 0
 1900 012c 2378     		ldrb	r3, [r4]
 1901 012e 032B     		cmp	r3, #3
 1902 0130 0ED0     		beq	.L125
 1903 0132 052B     		cmp	r3, #5
 1904 0134 00D0     		beq	.LCB1804
 1905 0136 6DE7     		b	.L116	@long jump
 1906              	.LCB1804:
 734:ui.c          **** 		default:
 1907              		.loc 1 734 0
 1908 0138 6368     		ldr	r3, [r4, #4]
 1909 013a 039A     		ldr	r2, [sp, #12]
 1910 013c 0493     		str	r3, [sp, #16]
 1911              	.LVL215:
 1912 013e 1B4B     		ldr	r3, .L141+12
 1913 0140 1360     		str	r3, [r2]
 1914 0142 1300     		movs	r3, r2
 1915 0144 049A     		ldr	r2, [sp, #16]
 1916 0146 5A60     		str	r2, [r3, #4]
 1917 0148 0023     		movs	r3, #0
 1918 014a 039A     		ldr	r2, [sp, #12]
 1919 014c 1372     		strb	r3, [r2, #8]
 1920 014e 24E0     		b	.L115
 1921              	.LVL216:
 1922              	.L125:
 717:ui.c          **** 				// Move up the menu
 1923              		.loc 1 717 0
 1924 0150 6368     		ldr	r3, [r4, #4]
 1925 0152 DA19     		adds	r2, r3, r7
 1926 0154 002B     		cmp	r3, #0
 1927 0156 04DB     		blt	.L127
 1928 0158 3B01     		lsls	r3, r7, #4
 1929 015a 0499     		ldr	r1, [sp, #16]
 1930 015c 1433     		adds	r3, r3, #20
 1931 015e CB18     		adds	r3, r1, r3
 1932 0160 0DE0     		b	.L128
 1933              	.L127:
 1934 0162 D343     		mvns	r3, r2
 1935 0164 DB17     		asrs	r3, r3, #31
 1936 0166 1A40     		ands	r2, r3
 1937 0168 1700     		movs	r7, r2
 1938              	.LVL217:
 1939 016a 53E7     		b	.L116
 1940              	.LVL218:
 1941              	.L130:
 1942 016c 1033     		adds	r3, r3, #16
 1943              	.LBB47:
 727:ui.c          **** 						break;
 1944              		.loc 1 727 0
 1945 016e 1800     		movs	r0, r3
 1946 0170 1038     		subs	r0, r0, #16
 1947 0172 0068     		ldr	r0, [r0]
 1948 0174 791C     		adds	r1, r7, #1
 1949 0176 0028     		cmp	r0, #0
ARM GAS  C:\Users\VIDEOH~1\AppData\Local\Temp\ccpdN5tN.s 			page 57


 1950 0178 00D1     		bne	.LCB1852
 1951 017a 4BE7     		b	.L116	@long jump
 1952              	.LCB1852:
 729:ui.c          **** 				}
 1953              		.loc 1 729 0
 1954 017c 0F00     		movs	r7, r1
 1955              	.LVL219:
 1956              	.L128:
 726:ui.c          **** 					if(menu->items[selected + 1].caption == NULL)
 1957              		.loc 1 726 0 discriminator 1
 1958 017e 9742     		cmp	r7, r2
 1959 0180 F4D1     		bne	.L130
 1960 0182 47E7     		b	.L116
 1961              	.LVL220:
 1962              	.L140:
 1963              	.LBE47:
 712:ui.c          **** 		draw_menu(menu, selected);
 1964              		.loc 1 712 0 discriminator 1
 1965 0184 099B     		ldr	r3, [sp, #36]
 1966 0186 012B     		cmp	r3, #1
 1967 0188 00D0     		beq	.LCB1873
 1968 018a 48E7     		b	.L132	@long jump
 1969              	.LCB1873:
 740:ui.c          **** }
 1970              		.loc 1 740 0
 1971 018c 049A     		ldr	r2, [sp, #16]
 1972 018e 3B01     		lsls	r3, r7, #4
 1973 0190 D318     		adds	r3, r2, r3
 1974 0192 039A     		ldr	r2, [sp, #12]
 1975 0194 0833     		adds	r3, r3, #8
 1976 0196 13CB     		ldmia	r3!, {r0, r1, r4}
 1977 0198 13C2     		stmia	r2!, {r0, r1, r4}
 1978              	.LVL221:
 1979              	.L115:
 741:ui.c          **** 
 1980              		.loc 1 741 0
 1981 019a 0398     		ldr	r0, [sp, #12]
 1982 019c 0DB0     		add	sp, sp, #52
 1983              		@ sp needed
 1984              	.LVL222:
 1985 019e F0BD     		pop	{r4, r5, r6, r7, pc}
 1986              	.L142:
 1987              		.align	2
 1988              	.L141:
 1989 01a0 CA000000 		.word	.LC81
 1990 01a4 85000000 		.word	.LC50
 1991 01a8 CC000000 		.word	.LC84
 1992 01ac 00000000 		.word	overlimit
 1993              		.cfi_endproc
 1994              	.LFE59:
 1995              		.size	menu, .-menu
 1996              		.section	.text.display_config,"ax",%progbits
 1997              		.align	1
 1998              		.code	16
 1999              		.thumb_func
 2000              		.type	display_config, %function
 2001              	display_config:
ARM GAS  C:\Users\VIDEOH~1\AppData\Local\Temp\ccpdN5tN.s 			page 58


 2002              	.LFB51:
 453:ui.c          **** 	const display_config_t *config = &settings.display_settings.numbered[(int)arg];
 2003              		.loc 1 453 0
 2004              		.cfi_startproc
 2005              		@ args = 0, pretend = 0, frame = 32
 2006              		@ frame_needed = 0, uses_anonymous_args = 0
 2007              	.LVL223:
 2008 0000 F0B5     		push	{r4, r5, r6, r7, lr}
 2009              		.cfi_def_cfa_offset 20
 2010              		.cfi_offset 4, -20
 2011              		.cfi_offset 5, -16
 2012              		.cfi_offset 6, -12
 2013              		.cfi_offset 7, -8
 2014              		.cfi_offset 14, -4
 456:ui.c          **** 	if(display.arg == NULL)
 2015              		.loc 1 456 0
 2016 0002 164E     		ldr	r6, .L148
 453:ui.c          **** 	const display_config_t *config = &settings.display_settings.numbered[(int)arg];
 2017              		.loc 1 453 0
 2018 0004 89B0     		sub	sp, sp, #36
 2019              		.cfi_def_cfa_offset 56
 456:ui.c          **** 	if(display.arg == NULL)
 2020              		.loc 1 456 0
 2021 0006 02AD     		add	r5, sp, #8
 453:ui.c          **** 	const display_config_t *config = &settings.display_settings.numbered[(int)arg];
 2022              		.loc 1 453 0
 2023 0008 0400     		movs	r4, r0
 2024 000a 0F00     		movs	r7, r1
 2025              	.LVL224:
 456:ui.c          **** 	if(display.arg == NULL)
 2026              		.loc 1 456 0
 2027 000c 2800     		movs	r0, r5
 2028              	.LVL225:
 2029 000e 3100     		movs	r1, r6
 2030              	.LVL226:
 2031 0010 FFF7FEFF 		bl	menu
 2032              	.LVL227:
 2033 0014 039B     		ldr	r3, [sp, #12]
 2034 0016 0193     		str	r3, [sp, #4]
 2035              	.LVL228:
 457:ui.c          **** 		return display;
 2036              		.loc 1 457 0
 2037 0018 002B     		cmp	r3, #0
 2038 001a 08D0     		beq	.L147
 460:ui.c          **** 	if(readout.arg == NULL)
 2039              		.loc 1 460 0
 2040 001c 3100     		movs	r1, r6
 2041 001e 05AD     		add	r5, sp, #20
 2042 0020 5431     		adds	r1, r1, #84
 2043 0022 2800     		movs	r0, r5
 2044 0024 FFF7FEFF 		bl	menu
 2045              	.LVL229:
 2046 0028 069B     		ldr	r3, [sp, #24]
 2047              	.LVL230:
 461:ui.c          **** 		return readout;
 2048              		.loc 1 461 0
 2049 002a 002B     		cmp	r3, #0
ARM GAS  C:\Users\VIDEOH~1\AppData\Local\Temp\ccpdN5tN.s 			page 59


 2050 002c 03D1     		bne	.L146
 2051              	.LVL231:
 2052              	.L147:
 462:ui.c          **** 
 2053              		.loc 1 462 0
 2054 002e 2300     		movs	r3, r4
 2055 0030 07CD     		ldmia	r5!, {r0, r1, r2}
 2056 0032 07C3     		stmia	r3!, {r0, r1, r2}
 2057              	.LVL232:
 2058 0034 0FE0     		b	.L143
 2059              	.LVL233:
 2060              	.L146:
 464:ui.c          **** 	EEPROM_Write(0,(void*)&settings,sizeof(settings_t));
 2061              		.loc 1 464 0
 2062 0036 0322     		movs	r2, #3
 2063 0038 5743     		muls	r7, r2
 2064              	.LVL234:
 2065 003a 019A     		ldr	r2, [sp, #4]
 2066 003c 0849     		ldr	r1, .L148+4
 2067 003e D719     		adds	r7, r2, r7
 2068 0040 CF19     		adds	r7, r1, r7
 2069 0042 7B73     		strb	r3, [r7, #13]
 465:ui.c          **** 
 2070              		.loc 1 465 0
 2071 0044 3822     		movs	r2, #56
 2072 0046 074B     		ldr	r3, .L148+8
 2073              	.LVL235:
 2074 0048 0020     		movs	r0, #0
 2075 004a FFF7FEFF 		bl	Cy_Em_EEPROM_Write
 2076              	.LVL236:
 467:ui.c          **** }
 2077              		.loc 1 467 0
 2078 004e 0023     		movs	r3, #0
 2079 0050 2360     		str	r3, [r4]
 2080 0052 6360     		str	r3, [r4, #4]
 2081 0054 2372     		strb	r3, [r4, #8]
 2082              	.LVL237:
 2083              	.L143:
 468:ui.c          **** 
 2084              		.loc 1 468 0
 2085 0056 2000     		movs	r0, r4
 2086 0058 09B0     		add	sp, sp, #36
 2087              		@ sp needed
 2088              	.LVL238:
 2089 005a F0BD     		pop	{r4, r5, r6, r7, pc}
 2090              	.L149:
 2091              		.align	2
 2092              	.L148:
 2093 005c 00000000 		.word	.LANCHOR2
 2094 0060 00000000 		.word	settings
 2095 0064 00000000 		.word	EEPROM_context
 2096              		.cfi_endproc
 2097              	.LFE51:
 2098              		.size	display_config, .-display_config
 2099              		.section	.text.print_nothing,"ax",%progbits
 2100              		.align	1
 2101              		.global	print_nothing
ARM GAS  C:\Users\VIDEOH~1\AppData\Local\Temp\ccpdN5tN.s 			page 60


 2102              		.code	16
 2103              		.thumb_func
 2104              		.type	print_nothing, %function
 2105              	print_nothing:
 2106              	.LFB40:
 329:ui.c          **** 	strcpy(buf, "      ");
 2107              		.loc 1 329 0
 2108              		.cfi_startproc
 2109              		@ args = 0, pretend = 0, frame = 0
 2110              		@ frame_needed = 0, uses_anonymous_args = 0
 2111              	.LVL239:
 2112 0000 10B5     		push	{r4, lr}
 2113              		.cfi_def_cfa_offset 8
 2114              		.cfi_offset 4, -8
 2115              		.cfi_offset 14, -4
 330:ui.c          **** }
 2116              		.loc 1 330 0
 2117 0002 0249     		ldr	r1, .L151
 2118 0004 FFF7FEFF 		bl	strcpy
 2119              	.LVL240:
 331:ui.c          **** 
 2120              		.loc 1 331 0
 2121              		@ sp needed
 2122 0008 10BD     		pop	{r4, pc}
 2123              	.L152:
 2124 000a C046     		.align	2
 2125              	.L151:
 2126 000c CE000000 		.word	.LC91
 2127              		.cfi_endproc
 2128              	.LFE40:
 2129              		.size	print_nothing, .-print_nothing
 2130              		.section	.text.print_setpoint,"ax",%progbits
 2131              		.align	1
 2132              		.global	print_setpoint
 2133              		.code	16
 2134              		.thumb_func
 2135              		.type	print_setpoint, %function
 2136              	print_setpoint:
 2137              	.LFB41:
 333:ui.c          **** 	format_number(get_current_setpoint(), "A", buf);
 2138              		.loc 1 333 0
 2139              		.cfi_startproc
 2140              		@ args = 0, pretend = 0, frame = 0
 2141              		@ frame_needed = 0, uses_anonymous_args = 0
 2142              	.LVL241:
 2143 0000 10B5     		push	{r4, lr}
 2144              		.cfi_def_cfa_offset 8
 2145              		.cfi_offset 4, -8
 2146              		.cfi_offset 14, -4
 333:ui.c          **** 	format_number(get_current_setpoint(), "A", buf);
 2147              		.loc 1 333 0
 2148 0002 0400     		movs	r4, r0
 334:ui.c          **** }
 2149              		.loc 1 334 0
 2150 0004 FFF7FEFF 		bl	get_current_setpoint
 2151              	.LVL242:
 2152 0008 2200     		movs	r2, r4
ARM GAS  C:\Users\VIDEOH~1\AppData\Local\Temp\ccpdN5tN.s 			page 61


 2153 000a 0249     		ldr	r1, .L154
 2154 000c FFF7FEFF 		bl	format_number
 2155              	.LVL243:
 335:ui.c          **** 
 2156              		.loc 1 335 0
 2157              		@ sp needed
 2158              	.LVL244:
 2159 0010 10BD     		pop	{r4, pc}
 2160              	.L155:
 2161 0012 C046     		.align	2
 2162              	.L154:
 2163 0014 8F000000 		.word	.LC54
 2164              		.cfi_endproc
 2165              	.LFE41:
 2166              		.size	print_setpoint, .-print_setpoint
 2167              		.section	.text.print_current_usage,"ax",%progbits
 2168              		.align	1
 2169              		.global	print_current_usage
 2170              		.code	16
 2171              		.thumb_func
 2172              		.type	print_current_usage, %function
 2173              	print_current_usage:
 2174              	.LFB42:
 337:ui.c          **** 	format_number(get_current_usage(), "A", buf);
 2175              		.loc 1 337 0
 2176              		.cfi_startproc
 2177              		@ args = 0, pretend = 0, frame = 0
 2178              		@ frame_needed = 0, uses_anonymous_args = 0
 2179              	.LVL245:
 2180 0000 10B5     		push	{r4, lr}
 2181              		.cfi_def_cfa_offset 8
 2182              		.cfi_offset 4, -8
 2183              		.cfi_offset 14, -4
 337:ui.c          **** 	format_number(get_current_usage(), "A", buf);
 2184              		.loc 1 337 0
 2185 0002 0400     		movs	r4, r0
 338:ui.c          **** }
 2186              		.loc 1 338 0
 2187 0004 FFF7FEFF 		bl	get_current_usage
 2188              	.LVL246:
 2189 0008 2200     		movs	r2, r4
 2190 000a 0249     		ldr	r1, .L157
 2191 000c FFF7FEFF 		bl	format_number
 2192              	.LVL247:
 339:ui.c          **** 
 2193              		.loc 1 339 0
 2194              		@ sp needed
 2195              	.LVL248:
 2196 0010 10BD     		pop	{r4, pc}
 2197              	.L158:
 2198 0012 C046     		.align	2
 2199              	.L157:
 2200 0014 8F000000 		.word	.LC54
 2201              		.cfi_endproc
 2202              	.LFE42:
 2203              		.size	print_current_usage, .-print_current_usage
 2204              		.section	.text.print_power,"ax",%progbits
ARM GAS  C:\Users\VIDEOH~1\AppData\Local\Temp\ccpdN5tN.s 			page 62


 2205              		.align	1
 2206              		.global	print_power
 2207              		.code	16
 2208              		.thumb_func
 2209              		.type	print_power, %function
 2210              	print_power:
 2211              	.LFB44:
 345:ui.c          **** 	int power = (get_current_usage() / 1000) * (get_voltage() / 1000);
 2212              		.loc 1 345 0
 2213              		.cfi_startproc
 2214              		@ args = 0, pretend = 0, frame = 0
 2215              		@ frame_needed = 0, uses_anonymous_args = 0
 2216              	.LVL249:
 2217 0000 70B5     		push	{r4, r5, r6, lr}
 2218              		.cfi_def_cfa_offset 16
 2219              		.cfi_offset 4, -16
 2220              		.cfi_offset 5, -12
 2221              		.cfi_offset 6, -8
 2222              		.cfi_offset 14, -4
 345:ui.c          **** 	int power = (get_current_usage() / 1000) * (get_voltage() / 1000);
 2223              		.loc 1 345 0
 2224 0002 0400     		movs	r4, r0
 346:ui.c          **** 	format_number(power, "W", buf);
 2225              		.loc 1 346 0
 2226 0004 FFF7FEFF 		bl	get_current_usage
 2227              	.LVL250:
 2228 0008 0500     		movs	r5, r0
 2229 000a FFF7FEFF 		bl	get_voltage
 2230              	.LVL251:
 347:ui.c          **** }
 2231              		.loc 1 347 0
 2232 000e FA21     		movs	r1, #250
 346:ui.c          **** 	format_number(power, "W", buf);
 2233              		.loc 1 346 0
 2234 0010 0600     		movs	r6, r0
 2235              	.LVL252:
 347:ui.c          **** }
 2236              		.loc 1 347 0
 2237 0012 8900     		lsls	r1, r1, #2
 2238 0014 2800     		movs	r0, r5
 2239              	.LVL253:
 2240 0016 FFF7FEFF 		bl	__aeabi_idiv
 2241              	.LVL254:
 2242 001a FA21     		movs	r1, #250
 2243 001c 0500     		movs	r5, r0
 2244              	.LVL255:
 2245 001e 8900     		lsls	r1, r1, #2
 2246 0020 3000     		movs	r0, r6
 2247 0022 FFF7FEFF 		bl	__aeabi_idiv
 2248              	.LVL256:
 2249 0026 2200     		movs	r2, r4
 2250 0028 6843     		muls	r0, r5
 2251 002a 0249     		ldr	r1, .L160
 2252 002c FFF7FEFF 		bl	format_number
 2253              	.LVL257:
 348:ui.c          **** 
 2254              		.loc 1 348 0
ARM GAS  C:\Users\VIDEOH~1\AppData\Local\Temp\ccpdN5tN.s 			page 63


 2255              		@ sp needed
 2256              	.LVL258:
 2257 0030 70BD     		pop	{r4, r5, r6, pc}
 2258              	.L161:
 2259 0032 C046     		.align	2
 2260              	.L160:
 2261 0034 D5000000 		.word	.LC95
 2262              		.cfi_endproc
 2263              	.LFE44:
 2264              		.size	print_power, .-print_power
 2265              		.section	.text.print_resistance,"ax",%progbits
 2266              		.align	1
 2267              		.global	print_resistance
 2268              		.code	16
 2269              		.thumb_func
 2270              		.type	print_resistance, %function
 2271              	print_resistance:
 2272              	.LFB45:
 350:ui.c          **** 	int current = get_current_usage();
 2273              		.loc 1 350 0
 2274              		.cfi_startproc
 2275              		@ args = 0, pretend = 0, frame = 0
 2276              		@ frame_needed = 0, uses_anonymous_args = 0
 2277              	.LVL259:
 2278 0000 70B5     		push	{r4, r5, r6, lr}
 2279              		.cfi_def_cfa_offset 16
 2280              		.cfi_offset 4, -16
 2281              		.cfi_offset 5, -12
 2282              		.cfi_offset 6, -8
 2283              		.cfi_offset 14, -4
 350:ui.c          **** 	int current = get_current_usage();
 2284              		.loc 1 350 0
 2285 0002 0500     		movs	r5, r0
 351:ui.c          **** 	if(current > 0) {
 2286              		.loc 1 351 0
 2287 0004 FFF7FEFF 		bl	get_current_usage
 2288              	.LVL260:
 2289 0008 061E     		subs	r6, r0, #0
 2290              	.LVL261:
 352:ui.c          **** 		format_number(((get_voltage() * 10) / (current / 100000)), FONT_GLYPH_OHM, buf);
 2291              		.loc 1 352 0
 2292 000a 11DD     		ble	.L163
 353:ui.c          **** 	} else {
 2293              		.loc 1 353 0
 2294 000c FFF7FEFF 		bl	get_voltage
 2295              	.LVL262:
 2296 0010 0A23     		movs	r3, #10
 2297 0012 4343     		muls	r3, r0
 2298 0014 0949     		ldr	r1, .L165
 2299 0016 3000     		movs	r0, r6
 2300 0018 1C00     		movs	r4, r3
 2301 001a FFF7FEFF 		bl	__aeabi_idiv
 2302              	.LVL263:
 2303 001e 0100     		movs	r1, r0
 2304 0020 2000     		movs	r0, r4
 2305 0022 FFF7FEFF 		bl	__aeabi_idiv
 2306              	.LVL264:
ARM GAS  C:\Users\VIDEOH~1\AppData\Local\Temp\ccpdN5tN.s 			page 64


 2307 0026 2A00     		movs	r2, r5
 2308 0028 0549     		ldr	r1, .L165+4
 2309 002a FFF7FEFF 		bl	format_number
 2310              	.LVL265:
 2311 002e 03E0     		b	.L162
 2312              	.LVL266:
 2313              	.L163:
 355:ui.c          **** 	}
 2314              		.loc 1 355 0
 2315 0030 0449     		ldr	r1, .L165+8
 2316 0032 2800     		movs	r0, r5
 2317              	.LVL267:
 2318 0034 FFF7FEFF 		bl	strcpy
 2319              	.LVL268:
 2320              	.L162:
 357:ui.c          **** 
 2321              		.loc 1 357 0
 2322              		@ sp needed
 2323              	.LVL269:
 2324              	.LVL270:
 2325 0038 70BD     		pop	{r4, r5, r6, pc}
 2326              	.L166:
 2327 003a C046     		.align	2
 2328              	.L165:
 2329 003c A0860100 		.word	100000
 2330 0040 D7000000 		.word	.LC97
 2331 0044 D9000000 		.word	.LC99
 2332              		.cfi_endproc
 2333              	.LFE45:
 2334              		.size	print_resistance, .-print_resistance
 2335              		.section	.text.print_amp_hours,"ax",%progbits
 2336              		.align	1
 2337              		.global	print_amp_hours
 2338              		.code	16
 2339              		.thumb_func
 2340              		.type	print_amp_hours, %function
 2341              	print_amp_hours:
 2342              	.LFB46:
 360:ui.c          **** 	format_number(get_microamp_hours(), "Ah", buf);
 2343              		.loc 1 360 0
 2344              		.cfi_startproc
 2345              		@ args = 0, pretend = 0, frame = 0
 2346              		@ frame_needed = 0, uses_anonymous_args = 0
 2347              	.LVL271:
 2348 0000 10B5     		push	{r4, lr}
 2349              		.cfi_def_cfa_offset 8
 2350              		.cfi_offset 4, -8
 2351              		.cfi_offset 14, -4
 360:ui.c          **** 	format_number(get_microamp_hours(), "Ah", buf);
 2352              		.loc 1 360 0
 2353 0002 0400     		movs	r4, r0
 361:ui.c          **** }
 2354              		.loc 1 361 0
 2355 0004 FFF7FEFF 		bl	get_microamp_hours
 2356              	.LVL272:
 2357 0008 2200     		movs	r2, r4
 2358 000a 0249     		ldr	r1, .L168
ARM GAS  C:\Users\VIDEOH~1\AppData\Local\Temp\ccpdN5tN.s 			page 65


 2359 000c FFF7FEFF 		bl	format_number
 2360              	.LVL273:
 362:ui.c          **** 
 2361              		.loc 1 362 0
 2362              		@ sp needed
 2363              	.LVL274:
 2364 0010 10BD     		pop	{r4, pc}
 2365              	.L169:
 2366 0012 C046     		.align	2
 2367              	.L168:
 2368 0014 DF000000 		.word	.LC101
 2369              		.cfi_endproc
 2370              	.LFE46:
 2371              		.size	print_amp_hours, .-print_amp_hours
 2372              		.section	.text.print_watt_hours,"ax",%progbits
 2373              		.align	1
 2374              		.global	print_watt_hours
 2375              		.code	16
 2376              		.thumb_func
 2377              		.type	print_watt_hours, %function
 2378              	print_watt_hours:
 2379              	.LFB47:
 364:ui.c          **** 	format_number(get_microwatt_hours(), "Wh", buf);
 2380              		.loc 1 364 0
 2381              		.cfi_startproc
 2382              		@ args = 0, pretend = 0, frame = 0
 2383              		@ frame_needed = 0, uses_anonymous_args = 0
 2384              	.LVL275:
 2385 0000 10B5     		push	{r4, lr}
 2386              		.cfi_def_cfa_offset 8
 2387              		.cfi_offset 4, -8
 2388              		.cfi_offset 14, -4
 364:ui.c          **** 	format_number(get_microwatt_hours(), "Wh", buf);
 2389              		.loc 1 364 0
 2390 0002 0400     		movs	r4, r0
 365:ui.c          **** }
 2391              		.loc 1 365 0
 2392 0004 FFF7FEFF 		bl	get_microwatt_hours
 2393              	.LVL276:
 2394 0008 2200     		movs	r2, r4
 2395 000a 0249     		ldr	r1, .L171
 2396 000c FFF7FEFF 		bl	format_number
 2397              	.LVL277:
 366:ui.c          **** 
 2398              		.loc 1 366 0
 2399              		@ sp needed
 2400              	.LVL278:
 2401 0010 10BD     		pop	{r4, pc}
 2402              	.L172:
 2403 0012 C046     		.align	2
 2404              	.L171:
 2405 0014 E2000000 		.word	.LC103
 2406              		.cfi_endproc
 2407              	.LFE47:
 2408              		.size	print_watt_hours, .-print_watt_hours
 2409              		.section	.text.quadrature_event_isr,"ax",%progbits
 2410              		.align	1
ARM GAS  C:\Users\VIDEOH~1\AppData\Local\Temp\ccpdN5tN.s 			page 66


 2411              		.global	quadrature_event_isr
 2412              		.code	16
 2413              		.thumb_func
 2414              		.type	quadrature_event_isr, %function
 2415              	quadrature_event_isr:
 2416              	.LFB34:
 186:ui.c          **** 	static ui_event event = {.type = UI_EVENT_UPDOWN, .when = 0, .int_arg = 0};
 2417              		.loc 1 186 0
 2418              		.cfi_startproc
 2419              		@ args = 0, pretend = 0, frame = 0
 2420              		@ frame_needed = 0, uses_anonymous_args = 0
 2421 0000 70B5     		push	{r4, r5, r6, lr}
 2422              		.cfi_def_cfa_offset 16
 2423              		.cfi_offset 4, -16
 2424              		.cfi_offset 5, -12
 2425              		.cfi_offset 6, -8
 2426              		.cfi_offset 14, -4
 192:ui.c          **** 	Quadrature_ClearInterrupt();
 2427              		.loc 1 192 0
 2428 0002 FFF7FEFF 		bl	Quadrature_Read
 2429              	.LVL279:
 2430 0006 0600     		movs	r6, r0
 2431              	.LVL280:
 193:ui.c          **** 
 2432              		.loc 1 193 0
 2433 0008 FFF7FEFF 		bl	Quadrature_ClearInterrupt
 2434              	.LVL281:
 195:ui.c          **** 		count += 1;
 2435              		.loc 1 195 0
 2436 000c 0422     		movs	r2, #4
 2437 000e 204C     		ldr	r4, .L181
 2438 0010 204B     		ldr	r3, .L181+4
 2439 0012 A256     		ldrsb	r2, [r4, r2]
 2440 0014 7833     		adds	r3, r3, #120
 2441 0016 9956     		ldrsb	r1, [r3, r2]
 2442 0018 1F4D     		ldr	r5, .L181+8
 2443 001a 8E42     		cmp	r6, r1
 2444 001c 02D1     		bne	.L174
 196:ui.c          **** 		last_levels = levels;
 2445              		.loc 1 196 0
 2446 001e 2B7A     		ldrb	r3, [r5, #8]
 2447 0020 0133     		adds	r3, r3, #1
 2448 0022 04E0     		b	.L180
 2449              	.L174:
 198:ui.c          **** 		count -= 1;
 2450              		.loc 1 198 0
 2451 0024 9B57     		ldrsb	r3, [r3, r6]
 2452 0026 9342     		cmp	r3, r2
 2453 0028 03D1     		bne	.L175
 199:ui.c          **** 		last_levels = levels;
 2454              		.loc 1 199 0
 2455 002a 2B7A     		ldrb	r3, [r5, #8]
 2456 002c 013B     		subs	r3, r3, #1
 2457              	.L180:
 2458 002e 2B72     		strb	r3, [r5, #8]
 200:ui.c          **** 	}
 2459              		.loc 1 200 0
ARM GAS  C:\Users\VIDEOH~1\AppData\Local\Temp\ccpdN5tN.s 			page 67


 2460 0030 2671     		strb	r6, [r4, #4]
 2461              	.L175:
 203:ui.c          ****         before = event.when;
 2462              		.loc 1 203 0
 2463 0032 0823     		movs	r3, #8
 2464 0034 EB56     		ldrsb	r3, [r5, r3]
 2465 0036 DA17     		asrs	r2, r3, #31
 2466 0038 9B18     		adds	r3, r3, r2
 2467 003a 5340     		eors	r3, r2
 2468 003c 032B     		cmp	r3, #3
 2469 003e 26DD     		ble	.L173
 2470              	.LBB50:
 2471              	.LBB51:
 204:ui.c          ****         event.when = xTaskGetTickCountFromISR();
 2472              		.loc 1 204 0
 2473 0040 6369     		ldr	r3, [r4, #20]
 2474 0042 EB60     		str	r3, [r5, #12]
 205:ui.c          **** 
 2475              		.loc 1 205 0
 2476 0044 FFF7FEFF 		bl	xTaskGetTickCountFromISR
 2477              	.LVL282:
 208:ui.c          ****         if(event.duration < 1)
 2478              		.loc 1 208 0
 2479 0048 EB68     		ldr	r3, [r5, #12]
 205:ui.c          **** 
 2480              		.loc 1 205 0
 2481 004a 6061     		str	r0, [r4, #20]
 208:ui.c          ****         if(event.duration < 1)
 2482              		.loc 1 208 0
 2483 004c C01A     		subs	r0, r0, r3
 209:ui.c          ****             event.duration = 1;
 2484              		.loc 1 209 0
 2485 004e 01D0     		beq	.L177
 208:ui.c          ****         if(event.duration < 1)
 2486              		.loc 1 208 0
 2487 0050 2061     		str	r0, [r4, #16]
 2488 0052 01E0     		b	.L178
 2489              	.L177:
 210:ui.c          **** 
 2490              		.loc 1 210 0
 2491 0054 0123     		movs	r3, #1
 2492 0056 2361     		str	r3, [r4, #16]
 2493              	.L178:
 212:ui.c          **** 		xQueueSendToBackFromISR(ui_queue, &event, NULL);
 2494              		.loc 1 212 0
 2495 0058 0823     		movs	r3, #8
 2496 005a 0322     		movs	r2, #3
 2497 005c EB56     		ldrsb	r3, [r5, r3]
 213:ui.c          **** 		count = count % 4;
 2498              		.loc 1 213 0
 2499 005e 0F48     		ldr	r0, .L181+12
 212:ui.c          **** 		xQueueSendToBackFromISR(ui_queue, &event, NULL);
 2500              		.loc 1 212 0
 2501 0060 D917     		asrs	r1, r3, #31
 2502 0062 0A40     		ands	r2, r1
 2503 0064 D318     		adds	r3, r2, r3
 2504 0066 9B10     		asrs	r3, r3, #2
ARM GAS  C:\Users\VIDEOH~1\AppData\Local\Temp\ccpdN5tN.s 			page 68


 2505 0068 E360     		str	r3, [r4, #12]
 213:ui.c          **** 		count = count % 4;
 2506              		.loc 1 213 0
 2507 006a 2100     		movs	r1, r4
 2508 006c 0023     		movs	r3, #0
 2509 006e 0831     		adds	r1, r1, #8
 2510 0070 1A00     		movs	r2, r3
 2511 0072 0068     		ldr	r0, [r0]
 2512 0074 FFF7FEFF 		bl	xQueueGenericSendFromISR
 2513              	.LVL283:
 214:ui.c          **** 	}
 2514              		.loc 1 214 0
 2515 0078 0822     		movs	r2, #8
 2516 007a 094B     		ldr	r3, .L181+16
 2517 007c AA56     		ldrsb	r2, [r5, r2]
 2518 007e 1340     		ands	r3, r2
 2519 0080 04D5     		bpl	.L179
 2520 0082 0422     		movs	r2, #4
 2521 0084 013B     		subs	r3, r3, #1
 2522 0086 5242     		rsbs	r2, r2, #0
 2523 0088 1343     		orrs	r3, r2
 2524 008a 0133     		adds	r3, r3, #1
 2525              	.L179:
 2526 008c 2B72     		strb	r3, [r5, #8]
 2527              	.L173:
 2528              	.LBE51:
 2529              	.LBE50:
 216:ui.c          **** 
 2530              		.loc 1 216 0
 2531              		@ sp needed
 2532              	.LVL284:
 2533 008e 70BD     		pop	{r4, r5, r6, pc}
 2534              	.L182:
 2535              		.align	2
 2536              	.L181:
 2537 0090 00000000 		.word	.LANCHOR0
 2538 0094 80000000 		.word	.LANCHOR3
 2539 0098 00000000 		.word	.LANCHOR1
 2540 009c 00000000 		.word	ui_queue
 2541 00a0 03000080 		.word	-2147483645
 2542              		.cfi_endproc
 2543              	.LFE34:
 2544              		.size	quadrature_event_isr, .-quadrature_event_isr
 2545              		.section	.text.show_temperature.constprop.2,"ax",%progbits
 2546              		.align	1
 2547              		.code	16
 2548              		.thumb_func
 2549              		.type	show_temperature.constprop.2, %function
 2550              	show_temperature.constprop.2:
 2551              	.LFB71:
 444:ui.c          **** {
 2552              		.loc 1 444 0
 2553              		.cfi_startproc
 2554              		@ args = 0, pretend = 0, frame = 8
 2555              		@ frame_needed = 0, uses_anonymous_args = 0
 2556              	.LVL285:
 2557 0000 13B5     		push	{r0, r1, r4, lr}
ARM GAS  C:\Users\VIDEOH~1\AppData\Local\Temp\ccpdN5tN.s 			page 69


 2558              		.cfi_def_cfa_offset 16
 2559              		.cfi_offset 0, -16
 2560              		.cfi_offset 1, -12
 2561              		.cfi_offset 4, -8
 2562              		.cfi_offset 14, -4
 444:ui.c          **** {
 2563              		.loc 1 444 0
 2564 0002 0400     		movs	r4, r0
 2565 0004 0A00     		movs	r2, r1
 447:ui.c          ****     strcat(out,FONT_GLYPH_CELSIUS);
 2566              		.loc 1 447 0
 2567 0006 6846     		mov	r0, sp
 2568              	.LVL286:
 2569 0008 0649     		ldr	r1, .L184
 2570              	.LVL287:
 2571 000a FFF7FEFF 		bl	sprintf
 2572              	.LVL288:
 448:ui.c          ****     //Display_Clear(page-1,col,page,col+48,0);
 2573              		.loc 1 448 0
 2574 000e 0649     		ldr	r1, .L184+4
 2575 0010 6846     		mov	r0, sp
 2576 0012 FFF7FEFF 		bl	strcat
 2577              	.LVL289:
 450:ui.c          **** }
 2578              		.loc 1 450 0
 2579 0016 0023     		movs	r3, #0
 2580 0018 6A46     		mov	r2, sp
 2581 001a 2100     		movs	r1, r4
 2582 001c 0320     		movs	r0, #3
 2583 001e FFF7FEFF 		bl	Display_DrawText
 2584              	.LVL290:
 451:ui.c          **** 
 2585              		.loc 1 451 0
 2586              		@ sp needed
 2587 0022 13BD     		pop	{r0, r1, r4, pc}
 2588              	.L185:
 2589              		.align	2
 2590              	.L184:
 2591 0024 E5000000 		.word	.LC116
 2592 0028 E9000000 		.word	.LC118
 2593              		.cfi_endproc
 2594              	.LFE71:
 2595              		.size	show_temperature.constprop.2, .-show_temperature.constprop.2
 2596              		.global	__aeabi_uidiv
 2597              		.section	.text.cc_load,"ax",%progbits
 2598              		.align	1
 2599              		.code	16
 2600              		.thumb_func
 2601              		.type	cc_load, %function
 2602              	cc_load:
 2603              	.LFB60:
 744:ui.c          **** 	static portTickType last_adjust_current_setpoint = 0;
 2604              		.loc 1 744 0
 2605              		.cfi_startproc
 2606              		@ args = 0, pretend = 0, frame = 24
 2607              		@ frame_needed = 0, uses_anonymous_args = 0
 2608              	.LVL291:
ARM GAS  C:\Users\VIDEOH~1\AppData\Local\Temp\ccpdN5tN.s 			page 70


 2609 0000 F0B5     		push	{r4, r5, r6, r7, lr}
 2610              		.cfi_def_cfa_offset 20
 2611              		.cfi_offset 4, -20
 2612              		.cfi_offset 5, -16
 2613              		.cfi_offset 6, -12
 2614              		.cfi_offset 7, -8
 2615              		.cfi_offset 14, -4
 2616 0002 89B0     		sub	sp, sp, #36
 2617              		.cfi_def_cfa_offset 56
 744:ui.c          **** 	static portTickType last_adjust_current_setpoint = 0;
 2618              		.loc 1 744 0
 2619 0004 0400     		movs	r4, r0
 747:ui.c          **** 
 2620              		.loc 1 747 0
 2621 0006 FFF7FEFF 		bl	Display_ClearAll
 2622              	.LVL292:
 2623              	.L209:
 751:ui.c          **** 		switch(event.type) {
 2624              		.loc 1 751 0
 2625 000a 04AD     		add	r5, sp, #16
 2626 000c 2800     		movs	r0, r5
 2627 000e FFF7FEFF 		bl	next_event
 2628              	.LVL293:
 752:ui.c          **** 		case UI_EVENT_BUTTONPRESS:
 2629              		.loc 1 752 0
 2630 0012 2878     		ldrb	r0, [r5]
 2631 0014 0138     		subs	r0, r0, #1
 2632 0016 0428     		cmp	r0, #4
 2633 0018 3CD8     		bhi	.L187
 2634 001a FFF7FEFF 		bl	__gnu_thumb1_case_uqi
 2635              	.L189:
 2636 001e 03       		.byte	(.L188-.L189)/2
 2637 001f 0C       		.byte	(.L190-.L189)/2
 2638 0020 16       		.byte	(.L191-.L189)/2
 2639 0021 3B       		.byte	(.L187-.L189)/2
 2640 0022 34       		.byte	(.L192-.L189)/2
 2641 0023 00       		.p2align 1
 2642              	.L188:
 754:ui.c          **** 				return (state_func)STATE_MAIN_MENU;
 2643              		.loc 1 754 0
 2644 0024 6B68     		ldr	r3, [r5, #4]
 2645 0026 012B     		cmp	r3, #1
 2646 0028 34D1     		bne	.L187
 755:ui.c          ****             break;
 2647              		.loc 1 755 0
 2648 002a 2200     		movs	r2, r4
 2649 002c 7C4B     		ldr	r3, .L217
 2650 002e 7C33     		adds	r3, r3, #124
 2651 0030 23CB     		ldmia	r3!, {r0, r1, r5}
 2652 0032 23C2     		stmia	r2!, {r0, r1, r5}
 2653 0034 F1E0     		b	.L186
 2654              	.L190:
 758:ui.c          ****                 set_output_mode(OUTPUT_MODE_FEEDBACK);
 2655              		.loc 1 758 0
 2656 0036 FFF7FEFF 		bl	get_output_mode
 2657              	.LVL294:
 2658 003a 0228     		cmp	r0, #2
ARM GAS  C:\Users\VIDEOH~1\AppData\Local\Temp\ccpdN5tN.s 			page 71


 2659 003c 01D0     		beq	.L194
 759:ui.c          ****             } else {
 2660              		.loc 1 759 0
 2661 003e 0220     		movs	r0, #2
 2662 0040 00E0     		b	.L214
 2663              	.L194:
 761:ui.c          ****             }
 2664              		.loc 1 761 0
 2665 0042 0020     		movs	r0, #0
 2666              	.L214:
 2667 0044 FFF7FEFF 		bl	set_output_mode
 2668              	.LVL295:
 2669 0048 24E0     		b	.L187
 2670              	.L191:
 765:ui.c          **** 			adjust_current_setpoint(event.int_arg, event.duration);
 2671              		.loc 1 765 0
 2672 004a FFF7FEFF 		bl	xTaskGetTickCount
 2673              	.LVL296:
 2674 004e 754B     		ldr	r3, .L217+4
 2675              	.LBB59:
 2676              	.LBB60:
 253:ui.c          ****     if(step < 1)
 2677              		.loc 1 253 0
 2678 0050 A968     		ldr	r1, [r5, #8]
 2679              	.LBE60:
 2680              	.LBE59:
 765:ui.c          **** 			adjust_current_setpoint(event.int_arg, event.duration);
 2681              		.loc 1 765 0
 2682 0052 1861     		str	r0, [r3, #16]
 2683              	.LBB63:
 2684              	.LBB61:
 253:ui.c          ****     if(step < 1)
 2685              		.loc 1 253 0
 2686 0054 2820     		movs	r0, #40
 2687              	.LBE61:
 2688              	.LBE63:
 766:ui.c          **** 			break;
 2689              		.loc 1 766 0
 2690 0056 6E68     		ldr	r6, [r5, #4]
 2691              	.LVL297:
 2692              	.LBB64:
 2693              	.LBB62:
 253:ui.c          ****     if(step < 1)
 2694              		.loc 1 253 0
 2695 0058 FFF7FEFF 		bl	__aeabi_uidiv
 2696              	.LVL298:
 254:ui.c          ****         step = 1;
 2697              		.loc 1 254 0
 2698 005c 0028     		cmp	r0, #0
 2699 005e 00D1     		bne	.L195
 255:ui.c          **** 	set_current(state.current_setpoint + delta * step * CURRENT_STEP);
 2700              		.loc 1 255 0
 2701 0060 0130     		adds	r0, r0, #1
 2702              	.LVL299:
 2703              	.L195:
 256:ui.c          ****     uart_printf("set %d\r\n", state.current_setpoint / 1000);
 2704              		.loc 1 256 0
ARM GAS  C:\Users\VIDEOH~1\AppData\Local\Temp\ccpdN5tN.s 			page 72


 2705 0062 7043     		muls	r0, r6
 2706              	.LVL300:
 2707 0064 704E     		ldr	r6, .L217+8
 2708              	.LVL301:
 2709 0066 714D     		ldr	r5, .L217+12
 2710 0068 7043     		muls	r0, r6
 2711 006a 2B68     		ldr	r3, [r5]
 2712 006c C018     		adds	r0, r0, r3
 2713 006e FFF7FEFF 		bl	set_current
 2714              	.LVL302:
 257:ui.c          **** }
 2715              		.loc 1 257 0
 2716 0072 FA21     		movs	r1, #250
 2717 0074 2868     		ldr	r0, [r5]
 2718 0076 8900     		lsls	r1, r1, #2
 2719 0078 FFF7FEFF 		bl	__aeabi_idiv
 2720              	.LVL303:
 2721 007c 0100     		movs	r1, r0
 2722 007e 6C48     		ldr	r0, .L217+16
 2723 0080 FFF7FEFF 		bl	uart_printf
 2724              	.LVL304:
 2725 0084 06E0     		b	.L187
 2726              	.L192:
 2727              	.LBE62:
 2728              	.LBE64:
 769:ui.c          **** 		default:
 2729              		.loc 1 769 0
 2730 0086 6B68     		ldr	r3, [r5, #4]
 2731 0088 6360     		str	r3, [r4, #4]
 2732 008a 6A4B     		ldr	r3, .L217+20
 2733 008c 2360     		str	r3, [r4]
 2734 008e 0023     		movs	r3, #0
 2735 0090 2372     		strb	r3, [r4, #8]
 2736 0092 C2E0     		b	.L186
 2737              	.L187:
 773:ui.c          **** 		//CyDelay(200);
 2738              		.loc 1 773 0
 2739 0094 FFF7FEFF 		bl	xTaskGetTickCount
 2740              	.LVL305:
 2741 0098 624B     		ldr	r3, .L217+4
 2742              	.LBB65:
 2743              	.LBB66:
 383:ui.c          **** 	if(readout->func != print_nothing) {
 2744              		.loc 1 383 0
 2745 009a 0125     		movs	r5, #1
 2746 009c 1B69     		ldr	r3, [r3, #16]
 2747 009e C01A     		subs	r0, r0, r3
 2748              	.LVL306:
 2749 00a0 6328     		cmp	r0, #99
 2750 00a2 01D9     		bls	.L196
 2751 00a4 644B     		ldr	r3, .L217+24
 2752 00a6 9D7B     		ldrb	r5, [r3, #14]
 2753              	.L196:
 2754              	.LVL307:
 384:ui.c          **** 		readout->func(buf);
 2755              		.loc 1 384 0
 2756 00a8 644F     		ldr	r7, .L217+28
ARM GAS  C:\Users\VIDEOH~1\AppData\Local\Temp\ccpdN5tN.s 			page 73


 2757 00aa ED00     		lsls	r5, r5, #3
 2758              	.LVL308:
 2759 00ac 7B19     		adds	r3, r7, r5
 2760 00ae 9B68     		ldr	r3, [r3, #8]
 2761 00b0 634A     		ldr	r2, .L217+32
 2762 00b2 0026     		movs	r6, #0
 2763 00b4 9342     		cmp	r3, r2
 2764 00b6 15D0     		beq	.L197
 385:ui.c          ****     	Display_Clear(4, 72, 7, 77, 0);
 2765              		.loc 1 385 0
 2766 00b8 02A8     		add	r0, sp, #8
 2767 00ba 9847     		blx	r3
 2768              	.LVL309:
 386:ui.c          **** 		Display_Clear(4, 77, 5, 114, 0);
 2769              		.loc 1 386 0
 2770 00bc 0096     		str	r6, [sp]
 2771 00be 4D23     		movs	r3, #77
 2772 00c0 0722     		movs	r2, #7
 2773 00c2 4821     		movs	r1, #72
 2774 00c4 0420     		movs	r0, #4
 2775 00c6 FFF7FEFF 		bl	Display_Clear
 2776              	.LVL310:
 387:ui.c          **** 		Display_DrawBigNumbers(7, 0, buf);
 2777              		.loc 1 387 0
 2778 00ca 0096     		str	r6, [sp]
 2779 00cc 7223     		movs	r3, #114
 2780 00ce 0522     		movs	r2, #5
 2781 00d0 4D21     		movs	r1, #77
 2782 00d2 0420     		movs	r0, #4
 2783 00d4 FFF7FEFF 		bl	Display_Clear
 2784              	.LVL311:
 388:ui.c          **** 	} else {
 2785              		.loc 1 388 0
 2786 00d8 02AA     		add	r2, sp, #8
 2787 00da 3100     		movs	r1, r6
 2788 00dc 0720     		movs	r0, #7
 2789 00de FFF7FEFF 		bl	Display_DrawBigNumbers
 2790              	.LVL312:
 2791 00e2 0DE0     		b	.L198
 2792              	.L197:
 390:ui.c          **** 		Display_Clear(4, 77, 5, 114, 0);
 2793              		.loc 1 390 0
 2794 00e4 4D23     		movs	r3, #77
 2795 00e6 0722     		movs	r2, #7
 2796 00e8 3100     		movs	r1, r6
 2797 00ea 0420     		movs	r0, #4
 2798 00ec 0096     		str	r6, [sp]
 2799 00ee FFF7FEFF 		bl	Display_Clear
 2800              	.LVL313:
 391:ui.c          **** 	}
 2801              		.loc 1 391 0
 2802 00f2 0096     		str	r6, [sp]
 2803 00f4 7223     		movs	r3, #114
 2804 00f6 0522     		movs	r2, #5
 2805 00f8 4D21     		movs	r1, #77
 2806 00fa 0420     		movs	r0, #4
 2807 00fc FFF7FEFF 		bl	Display_Clear
ARM GAS  C:\Users\VIDEOH~1\AppData\Local\Temp\ccpdN5tN.s 			page 74


 2808              	.LVL314:
 2809              	.L198:
 395:ui.c          **** 	Display_DrawText(7, 127 - labelsize, readout->label, 1);
 2810              		.loc 1 395 0
 2811 0100 7D19     		adds	r5, r7, r5
 2812 0102 EF68     		ldr	r7, [r5, #12]
 396:ui.c          **** 	if(labelsize < 36) Display_Clear(6, 91, 7, 127 - labelsize, 0);
 2813              		.loc 1 396 0
 2814 0104 7F25     		movs	r5, #127
 395:ui.c          **** 	Display_DrawText(7, 127 - labelsize, readout->label, 1);
 2815              		.loc 1 395 0
 2816 0106 3800     		movs	r0, r7
 2817 0108 FFF7FEFF 		bl	strlen
 2818              	.LVL315:
 2819 010c 0C23     		movs	r3, #12
 2820 010e 5843     		muls	r0, r3
 2821 0110 C6B2     		uxtb	r6, r0
 2822              	.LVL316:
 396:ui.c          **** 	if(labelsize < 36) Display_Clear(6, 91, 7, 127 - labelsize, 0);
 2823              		.loc 1 396 0
 2824 0112 AD1B     		subs	r5, r5, r6
 2825 0114 EDB2     		uxtb	r5, r5
 2826 0116 0B3B     		subs	r3, r3, #11
 2827 0118 3A00     		movs	r2, r7
 2828 011a 2900     		movs	r1, r5
 2829 011c 0720     		movs	r0, #7
 2830 011e FFF7FEFF 		bl	Display_DrawText
 2831              	.LVL317:
 397:ui.c          **** 
 2832              		.loc 1 397 0
 2833 0122 232E     		cmp	r6, #35
 2834 0124 07D8     		bhi	.L199
 2835 0126 0023     		movs	r3, #0
 2836 0128 0722     		movs	r2, #7
 2837 012a 0093     		str	r3, [sp]
 2838 012c 5B21     		movs	r1, #91
 2839 012e 2B00     		movs	r3, r5
 2840 0130 0620     		movs	r0, #6
 2841 0132 FFF7FEFF 		bl	Display_Clear
 2842              	.LVL318:
 2843              	.L199:
 400:ui.c          ****     	Display_DrawText(1, 91, "OFF", 1);
 2844              		.loc 1 400 0
 2845 0136 FFF7FEFF 		bl	get_output_mode
 2846              	.LVL319:
 2847 013a 0028     		cmp	r0, #0
 2848 013c 34D1     		bne	.L200
 401:ui.c          ****     } else {
 2849              		.loc 1 401 0
 2850 013e 0123     		movs	r3, #1
 2851 0140 404A     		ldr	r2, .L217+36
 2852 0142 5B21     		movs	r1, #91
 2853 0144 1800     		movs	r0, r3
 2854 0146 FFF7FEFF 		bl	Display_DrawText
 2855              	.LVL320:
 2856              	.L203:
 2857              	.LBB67:
ARM GAS  C:\Users\VIDEOH~1\AppData\Local\Temp\ccpdN5tN.s 			page 75


 410:ui.c          **** 		Display_DrawText(3-i*2, 0, buf, 0);
 2858              		.loc 1 410 0
 2859 014a 0025     		movs	r5, #0
 409:ui.c          **** 		Display_Clear(2-i*2,48,3-i*2,79,0);
 2860              		.loc 1 409 0
 2861 014c 3A4B     		ldr	r3, .L217+24
 2862 014e 3B4E     		ldr	r6, .L217+28
 2863              	.LVL321:
 2864 0150 DB7B     		ldrb	r3, [r3, #15]
 2865 0152 02A8     		add	r0, sp, #8
 2866 0154 DB00     		lsls	r3, r3, #3
 2867 0156 F318     		adds	r3, r6, r3
 2868 0158 9B68     		ldr	r3, [r3, #8]
 2869 015a 9847     		blx	r3
 2870              	.LVL322:
 410:ui.c          **** 		Display_DrawText(3-i*2, 0, buf, 0);
 2871              		.loc 1 410 0
 2872 015c 4F23     		movs	r3, #79
 2873 015e 0322     		movs	r2, #3
 2874 0160 3021     		movs	r1, #48
 2875 0162 0220     		movs	r0, #2
 2876 0164 0095     		str	r5, [sp]
 2877 0166 FFF7FEFF 		bl	Display_Clear
 2878              	.LVL323:
 411:ui.c          **** 	}
 2879              		.loc 1 411 0
 2880 016a 02AA     		add	r2, sp, #8
 2881 016c 2900     		movs	r1, r5
 2882 016e 2B00     		movs	r3, r5
 2883 0170 0320     		movs	r0, #3
 2884 0172 FFF7FEFF 		bl	Display_DrawText
 2885              	.LVL324:
 409:ui.c          **** 		Display_Clear(2-i*2,48,3-i*2,79,0);
 2886              		.loc 1 409 0
 2887 0176 304B     		ldr	r3, .L217+24
 2888 0178 02A8     		add	r0, sp, #8
 2889 017a 1B7C     		ldrb	r3, [r3, #16]
 2890 017c DB00     		lsls	r3, r3, #3
 2891 017e F318     		adds	r3, r6, r3
 2892 0180 9B68     		ldr	r3, [r3, #8]
 2893 0182 9847     		blx	r3
 2894              	.LVL325:
 410:ui.c          **** 		Display_DrawText(3-i*2, 0, buf, 0);
 2895              		.loc 1 410 0
 2896 0184 4F23     		movs	r3, #79
 2897 0186 0122     		movs	r2, #1
 2898 0188 3021     		movs	r1, #48
 2899 018a 2800     		movs	r0, r5
 2900 018c 0095     		str	r5, [sp]
 2901 018e FFF7FEFF 		bl	Display_Clear
 2902              	.LVL326:
 411:ui.c          **** 	}
 2903              		.loc 1 411 0
 2904 0192 2B00     		movs	r3, r5
 2905 0194 02AA     		add	r2, sp, #8
 2906 0196 2900     		movs	r1, r5
 2907 0198 0120     		movs	r0, #1
ARM GAS  C:\Users\VIDEOH~1\AppData\Local\Temp\ccpdN5tN.s 			page 76


 2908 019a FFF7FEFF 		bl	Display_DrawText
 2909              	.LVL327:
 2910              	.LBE67:
 414:ui.c          ****     {   if(CoolerStatusReg_Read()&1)
 2911              		.loc 1 414 0
 2912 019e FFF7FEFF 		bl	get_cooler_state
 2913              	.LVL328:
 2914 01a2 A842     		cmp	r0, r5
 2915 01a4 08D1     		bne	.L201
 2916 01a6 14E0     		b	.L216
 2917              	.LVL329:
 2918              	.L200:
 403:ui.c          ****     }
 2919              		.loc 1 403 0
 2920 01a8 0020     		movs	r0, #0
 2921 01aa 7F23     		movs	r3, #127
 2922 01ac 0090     		str	r0, [sp]
 2923 01ae 0122     		movs	r2, #1
 2924 01b0 5B21     		movs	r1, #91
 2925 01b2 FFF7FEFF 		bl	Display_Clear
 2926              	.LVL330:
 2927 01b6 C8E7     		b	.L203
 2928              	.LVL331:
 2929              	.L201:
 415:ui.c          ****             Display_DrawText(5, 115,FONT_GLYPH_GOOD_COOLER, 0);
 2930              		.loc 1 415 0
 2931 01b8 FFF7FEFF 		bl	CoolerStatusReg_Read
 2932              	.LVL332:
 2933 01bc 0123     		movs	r3, #1
 418:ui.c          ****     }
 2934              		.loc 1 418 0
 2935 01be 224A     		ldr	r2, .L217+40
 415:ui.c          ****             Display_DrawText(5, 115,FONT_GLYPH_GOOD_COOLER, 0);
 2936              		.loc 1 415 0
 2937 01c0 0340     		ands	r3, r0
 2938 01c2 01D0     		beq	.L215
 416:ui.c          ****         else
 2939              		.loc 1 416 0
 2940 01c4 2B00     		movs	r3, r5
 2941 01c6 214A     		ldr	r2, .L217+44
 2942              	.L215:
 418:ui.c          ****     }
 2943              		.loc 1 418 0
 2944 01c8 7321     		movs	r1, #115
 2945 01ca 0520     		movs	r0, #5
 2946 01cc FFF7FEFF 		bl	Display_DrawText
 2947              	.LVL333:
 2948 01d0 06E0     		b	.L205
 2949              	.L216:
 420:ui.c          ****     show_temperature(3,79,get_temperature_calc());
 2950              		.loc 1 420 0
 2951 01d2 0090     		str	r0, [sp]
 2952 01d4 7F23     		movs	r3, #127
 2953 01d6 0522     		movs	r2, #5
 2954 01d8 7321     		movs	r1, #115
 2955 01da 0420     		movs	r0, #4
 2956 01dc FFF7FEFF 		bl	Display_Clear
ARM GAS  C:\Users\VIDEOH~1\AppData\Local\Temp\ccpdN5tN.s 			page 77


 2957              	.LVL334:
 2958              	.L205:
 2959              	.LBB68:
 2960              	.LBB69:
 429:ui.c          ****     do
 2961              		.loc 1 429 0
 2962 01e0 FFF7FEFF 		bl	get_termistor
 2963              	.LVL335:
 428:ui.c          ****     uint16 term=get_termistor();
 2964              		.loc 1 428 0
 2965 01e4 5221     		movs	r1, #82
 427:ui.c          ****     uint8 median_i=high_i>>1;
 2966              		.loc 1 427 0
 2967 01e6 A523     		movs	r3, #165
 426:ui.c          ****     uint8 high_i=TEMPERATURE_MAX-TEMPERATURE_MIN;
 2968              		.loc 1 426 0
 2969 01e8 0022     		movs	r2, #0
 2970              	.LVL336:
 2971              	.L208:
 433:ui.c          ****         else 
 2972              		.loc 1 433 0
 2973 01ea 3500     		movs	r5, r6
 432:ui.c          ****         if(term>termistor_tbl[median_i]) low_i=median_i;
 2974              		.loc 1 432 0
 2975 01ec 5118     		adds	r1, r2, r1
 2976              	.LVL337:
 2977 01ee C9B2     		uxtb	r1, r1
 2978              	.LVL338:
 433:ui.c          ****         else 
 2979              		.loc 1 433 0
 2980 01f0 5035     		adds	r5, r5, #80
 2981 01f2 4F00     		lsls	r7, r1, #1
 2982 01f4 7D5B     		ldrh	r5, [r7, r5]
 2983 01f6 A842     		cmp	r0, r5
 2984 01f8 02D8     		bhi	.L211
 2985              	.LVL339:
 437:ui.c          ****         }
 2986              		.loc 1 437 0
 2987 01fa 08D0     		beq	.L207
 432:ui.c          ****         if(term>termistor_tbl[median_i]) low_i=median_i;
 2988              		.loc 1 432 0
 2989 01fc 0B00     		movs	r3, r1
 2990 01fe 00E0     		b	.L206
 2991              	.LVL340:
 2992              	.L211:
 2993 0200 0A00     		movs	r2, r1
 2994              	.LVL341:
 2995              	.L206:
 439:ui.c          ****     }while(median_i);
 2996              		.loc 1 439 0
 2997 0202 991A     		subs	r1, r3, r2
 2998              	.LVL342:
 2999 0204 4910     		asrs	r1, r1, #1
 3000 0206 C9B2     		uxtb	r1, r1
 3001              	.LVL343:
 440:ui.c          ****     return (int16)high_i+TEMPERATURE_MIN;
 3002              		.loc 1 440 0
ARM GAS  C:\Users\VIDEOH~1\AppData\Local\Temp\ccpdN5tN.s 			page 78


 3003 0208 0029     		cmp	r1, #0
 3004 020a EED1     		bne	.L208
 3005 020c 1900     		movs	r1, r3
 3006              	.LVL344:
 3007              	.L207:
 3008              	.LBE69:
 3009              	.LBE68:
 421:ui.c          **** }
 3010              		.loc 1 421 0
 3011 020e 2839     		subs	r1, r1, #40
 3012 0210 49B2     		sxtb	r1, r1
 3013 0212 4F20     		movs	r0, #79
 3014 0214 FFF7FEFF 		bl	show_temperature.constprop.2
 3015              	.LVL345:
 3016 0218 F7E6     		b	.L209
 3017              	.LVL346:
 3018              	.L186:
 3019              	.LBE66:
 3020              	.LBE65:
 776:ui.c          **** 
 3021              		.loc 1 776 0
 3022 021a 2000     		movs	r0, r4
 3023 021c 09B0     		add	sp, sp, #36
 3024              		@ sp needed
 3025              	.LVL347:
 3026 021e F0BD     		pop	{r4, r5, r6, r7, pc}
 3027              	.L218:
 3028              		.align	2
 3029              	.L217:
 3030 0220 80000000 		.word	.LANCHOR3
 3031 0224 00000000 		.word	.LANCHOR1
 3032 0228 10270000 		.word	10000
 3033 022c 00000000 		.word	state
 3034 0230 EB000000 		.word	.LC124
 3035 0234 00000000 		.word	overlimit
 3036 0238 00000000 		.word	settings
 3037 023c 00010000 		.word	.LANCHOR4
 3038 0240 00000000 		.word	print_nothing
 3039 0244 59000000 		.word	.LC31
 3040 0248 F6000000 		.word	.LC133
 3041 024c F4000000 		.word	.LC131
 3042              		.cfi_endproc
 3043              	.LFE60:
 3044              		.size	cc_load, .-cc_load
 3045              		.section	.rodata.cst2,"aM",%progbits,2
 3046              		.align	1
 3047              	.LC149:
 3048 0000 D8FF     		.short	-40
 3049              		.section	.text.set_cooler,"ax",%progbits
 3050              		.align	1
 3051              		.code	16
 3052              		.thumb_func
 3053              		.type	set_cooler, %function
 3054              	set_cooler:
 3055              	.LFB56:
 570:ui.c          **** 	Display_ClearAll();
 3056              		.loc 1 570 0
ARM GAS  C:\Users\VIDEOH~1\AppData\Local\Temp\ccpdN5tN.s 			page 79


 3057              		.cfi_startproc
 3058              		@ args = 0, pretend = 0, frame = 16
 3059              		@ frame_needed = 0, uses_anonymous_args = 0
 3060              	.LVL348:
 3061 0000 F0B5     		push	{r4, r5, r6, r7, lr}
 3062              		.cfi_def_cfa_offset 20
 3063              		.cfi_offset 4, -20
 3064              		.cfi_offset 5, -16
 3065              		.cfi_offset 6, -12
 3066              		.cfi_offset 7, -8
 3067              		.cfi_offset 14, -4
 3068 0002 87B0     		sub	sp, sp, #28
 3069              		.cfi_def_cfa_offset 48
 570:ui.c          **** 	Display_ClearAll();
 3070              		.loc 1 570 0
 3071 0004 0500     		movs	r5, r0
 571:ui.c          **** 	Display_Clear(6, 2, 7, 127, 0xFF);
 3072              		.loc 1 571 0
 3073 0006 FFF7FEFF 		bl	Display_ClearAll
 3074              	.LVL349:
 572:ui.c          **** 	Display_DrawText(7, 28, "Cooler", 1);
 3075              		.loc 1 572 0
 3076 000a FF23     		movs	r3, #255
 3077 000c 0722     		movs	r2, #7
 3078 000e 0093     		str	r3, [sp]
 3079 0010 0221     		movs	r1, #2
 3080 0012 803B     		subs	r3, r3, #128
 3081 0014 0620     		movs	r0, #6
 3082 0016 FFF7FEFF 		bl	Display_Clear
 3083              	.LVL350:
 573:ui.c          **** 	Display_DrawText(1, 28, FONT_GLYPH_ENTER ": Done", 0);
 3084              		.loc 1 573 0
 3085 001a 0123     		movs	r3, #1
 3086 001c 2C4A     		ldr	r2, .L234
 3087 001e 1C21     		movs	r1, #28
 3088 0020 0720     		movs	r0, #7
 3089 0022 FFF7FEFF 		bl	Display_DrawText
 3090              	.LVL351:
 574:ui.c          **** 
 3091              		.loc 1 574 0
 3092 0026 0023     		movs	r3, #0
 3093 0028 2A4A     		ldr	r2, .L234+4
 3094 002a 1C21     		movs	r1, #28
 3095 002c 0120     		movs	r0, #1
 3096 002e FFF7FEFF 		bl	Display_DrawText
 3097              	.LVL352:
 577:ui.c          ****     int16 cooler_tmp_show=-32767;
 3098              		.loc 1 577 0
 3099 0032 294E     		ldr	r6, .L234+8
 580:ui.c          **** 	while(1) {
 3100              		.loc 1 580 0
 3101 0034 294A     		ldr	r2, .L234+12
 577:ui.c          ****     int16 cooler_tmp_show=-32767;
 3102              		.loc 1 577 0
 3103 0036 0823     		movs	r3, #8
 3104 0038 F45E     		ldrsh	r4, [r6, r3]
 3105              	.LVL353:
ARM GAS  C:\Users\VIDEOH~1\AppData\Local\Temp\ccpdN5tN.s 			page 80


 580:ui.c          **** 	while(1) {
 3106              		.loc 1 580 0
 3107 003a 1021     		movs	r1, #16
 3108 003c 0023     		movs	r3, #0
 3109 003e 0520     		movs	r0, #5
 3110 0040 FFF7FEFF 		bl	Display_DrawText
 3111              	.LVL354:
 578:ui.c          **** 	ui_event event;
 3112              		.loc 1 578 0
 3113 0044 264A     		ldr	r2, .L234+16
 3114              	.LVL355:
 3115              	.L220:
 582:ui.c          ****         {
 3116              		.loc 1 582 0
 3117 0046 9442     		cmp	r4, r2
 3118 0048 03D0     		beq	.L222
 3119              	.LVL356:
 585:ui.c          ****         }
 3120              		.loc 1 585 0
 3121 004a 61B2     		sxtb	r1, r4
 3122 004c 1E20     		movs	r0, #30
 3123 004e FFF7FEFF 		bl	show_temperature.constprop.2
 3124              	.LVL357:
 3125              	.L222:
 588:ui.c          **** 		switch(event.type) {
 3126              		.loc 1 588 0
 3127 0052 02AF     		add	r7, sp, #8
 3128 0054 3800     		movs	r0, r7
 3129 0056 FFF7FEFF 		bl	next_event
 3130              	.LVL358:
 589:ui.c          **** 		case UI_EVENT_UPDOWN:
 3131              		.loc 1 589 0
 3132 005a 3B78     		ldrb	r3, [r7]
 3133 005c 032B     		cmp	r3, #3
 3134 005e 07D0     		beq	.L223
 3135 0060 052B     		cmp	r3, #5
 3136 0062 2CD0     		beq	.L224
 3137 0064 012B     		cmp	r3, #1
 3138 0066 11D0     		beq	.L233
 3139              	.L230:
 3140 0068 2300     		movs	r3, r4
 3141              	.LVL359:
 3142              	.L221:
 3143 006a 2200     		movs	r2, r4
 3144 006c 1C00     		movs	r4, r3
 3145 006e EAE7     		b	.L220
 3146              	.LVL360:
 3147              	.L223:
 591:ui.c          **** 			if(cooler_tmp > TEMPERATURE_MAX) {
 3148              		.loc 1 591 0
 3149 0070 7A68     		ldr	r2, [r7, #4]
 3150 0072 1219     		adds	r2, r2, r4
 3151 0074 12B2     		sxth	r2, r2
 3152              	.LVL361:
 3153 0076 131C     		adds	r3, r2, #0
 3154 0078 2832     		adds	r2, r2, #40
 3155 007a 01DA     		bge	.L226
ARM GAS  C:\Users\VIDEOH~1\AppData\Local\Temp\ccpdN5tN.s 			page 81


 3156              	.LVL362:
 3157 007c 194B     		ldr	r3, .L234+20
 3158              	.LVL363:
 3159 007e 1B88     		ldrh	r3, [r3]
 3160              	.L226:
 3161 0080 1AB2     		sxth	r2, r3
 3162 0082 7D2A     		cmp	r2, #125
 3163 0084 00DD     		ble	.L227
 3164 0086 7D23     		movs	r3, #125
 3165              	.L227:
 3166 0088 1BB2     		sxth	r3, r3
 3167 008a EEE7     		b	.L221
 3168              	.LVL364:
 3169              	.L233:
 599:ui.c          ****                 settings.cooler_on_temperature=cooler_tmp;
 3170              		.loc 1 599 0
 3171 008c 7B68     		ldr	r3, [r7, #4]
 3172 008e 012B     		cmp	r3, #1
 3173 0090 EAD1     		bne	.L230
 601:ui.c          ****                 settings.cooler_off_adc_data=termistor_tbl[cooler_tmp+40-COOLER_OFF_DELTA];
 3174              		.loc 1 601 0
 3175 0092 2200     		movs	r2, r4
 3176 0094 144B     		ldr	r3, .L234+24
 600:ui.c          ****                 settings.cooler_on_adc_data=termistor_tbl[cooler_tmp+40];
 3177              		.loc 1 600 0
 3178 0096 3481     		strh	r4, [r6, #8]
 601:ui.c          ****                 settings.cooler_off_adc_data=termistor_tbl[cooler_tmp+40-COOLER_OFF_DELTA];
 3179              		.loc 1 601 0
 3180 0098 2832     		adds	r2, r2, #40
 602:ui.c          **** 				EEPROM_Write(0,(void*)&settings, sizeof(settings_t));
 3181              		.loc 1 602 0
 3182 009a 2634     		adds	r4, r4, #38
 3183              	.LVL365:
 601:ui.c          ****                 settings.cooler_off_adc_data=termistor_tbl[cooler_tmp+40-COOLER_OFF_DELTA];
 3184              		.loc 1 601 0
 3185 009c 5033     		adds	r3, r3, #80
 3186 009e 5200     		lsls	r2, r2, #1
 602:ui.c          **** 				EEPROM_Write(0,(void*)&settings, sizeof(settings_t));
 3187              		.loc 1 602 0
 3188 00a0 6400     		lsls	r4, r4, #1
 601:ui.c          ****                 settings.cooler_off_adc_data=termistor_tbl[cooler_tmp+40-COOLER_OFF_DELTA];
 3189              		.loc 1 601 0
 3190 00a2 D25A     		ldrh	r2, [r2, r3]
 602:ui.c          **** 				EEPROM_Write(0,(void*)&settings, sizeof(settings_t));
 3191              		.loc 1 602 0
 3192 00a4 E35A     		ldrh	r3, [r4, r3]
 601:ui.c          ****                 settings.cooler_off_adc_data=termistor_tbl[cooler_tmp+40-COOLER_OFF_DELTA];
 3193              		.loc 1 601 0
 3194 00a6 7281     		strh	r2, [r6, #10]
 602:ui.c          **** 				EEPROM_Write(0,(void*)&settings, sizeof(settings_t));
 3195              		.loc 1 602 0
 3196 00a8 B381     		strh	r3, [r6, #12]
 603:ui.c          **** 				return (state_func)STATE_MAIN;
 3197              		.loc 1 603 0
 3198 00aa 3822     		movs	r2, #56
 3199 00ac 0F4B     		ldr	r3, .L234+28
 3200 00ae 3100     		movs	r1, r6
ARM GAS  C:\Users\VIDEOH~1\AppData\Local\Temp\ccpdN5tN.s 			page 82


 3201 00b0 0020     		movs	r0, #0
 3202 00b2 FFF7FEFF 		bl	Cy_Em_EEPROM_Write
 3203              	.LVL366:
 604:ui.c          **** 			}
 3204              		.loc 1 604 0
 3205 00b6 0023     		movs	r3, #0
 3206 00b8 2B60     		str	r3, [r5]
 3207 00ba 6B60     		str	r3, [r5, #4]
 3208 00bc 04E0     		b	.L232
 3209              	.LVL367:
 3210              	.L224:
 608:ui.c          **** 		default:
 3211              		.loc 1 608 0
 3212 00be 7B68     		ldr	r3, [r7, #4]
 3213 00c0 6B60     		str	r3, [r5, #4]
 3214 00c2 0B4B     		ldr	r3, .L234+32
 3215 00c4 2B60     		str	r3, [r5]
 3216 00c6 0023     		movs	r3, #0
 3217              	.LVL368:
 3218              	.L232:
 613:ui.c          **** 
 3219              		.loc 1 613 0
 3220 00c8 2800     		movs	r0, r5
 608:ui.c          **** 		default:
 3221              		.loc 1 608 0
 3222 00ca 2B72     		strb	r3, [r5, #8]
 613:ui.c          **** 
 3223              		.loc 1 613 0
 3224 00cc 07B0     		add	sp, sp, #28
 3225              		@ sp needed
 3226              	.LVL369:
 3227 00ce F0BD     		pop	{r4, r5, r6, r7, pc}
 3228              	.L235:
 3229              		.align	2
 3230              	.L234:
 3231 00d0 F8000000 		.word	.LC136
 3232 00d4 BE000000 		.word	.LC69
 3233 00d8 00000000 		.word	settings
 3234 00dc FF000000 		.word	.LC140
 3235 00e0 0180FFFF 		.word	-32767
 3236 00e4 00000000 		.word	.LC149
 3237 00e8 00010000 		.word	.LANCHOR4
 3238 00ec 00000000 		.word	EEPROM_context
 3239 00f0 00000000 		.word	overlimit
 3240              		.cfi_endproc
 3241              	.LFE56:
 3242              		.size	set_cooler, .-set_cooler
 3243              		.section	.text.measure_Battery_ISR,"ax",%progbits
 3244              		.align	1
 3245              		.code	16
 3246              		.thumb_func
 3247              		.type	measure_Battery_ISR, %function
 3248              	measure_Battery_ISR:
 3249              	.LFB53:
 484:ui.c          ****     Display_ClearAll();
 3250              		.loc 1 484 0
 3251              		.cfi_startproc
ARM GAS  C:\Users\VIDEOH~1\AppData\Local\Temp\ccpdN5tN.s 			page 83


 3252              		@ args = 0, pretend = 0, frame = 32
 3253              		@ frame_needed = 0, uses_anonymous_args = 0
 3254 0000 F0B5     		push	{r4, r5, r6, r7, lr}
 3255              		.cfi_def_cfa_offset 20
 3256              		.cfi_offset 4, -20
 3257              		.cfi_offset 5, -16
 3258              		.cfi_offset 6, -12
 3259              		.cfi_offset 7, -8
 3260              		.cfi_offset 14, -4
 3261 0002 89B0     		sub	sp, sp, #36
 3262              		.cfi_def_cfa_offset 56
 485:ui.c          ****     Display_DrawText(7, 0, "BATT TEST", 1);
 3263              		.loc 1 485 0
 3264 0004 FFF7FEFF 		bl	Display_ClearAll
 3265              	.LVL370:
 486:ui.c          ****     //This is based roughly on what i can find of the  IEC 61951-1:2005 online
 3266              		.loc 1 486 0
 3267 0008 0123     		movs	r3, #1
 3268 000a 334A     		ldr	r2, .L242
 3269 000c 0021     		movs	r1, #0
 3270 000e 0720     		movs	r0, #7
 3271 0010 FFF7FEFF 		bl	Display_DrawText
 3272              	.LVL371:
 490:ui.c          ****     set_current(100000);//100mA
 3273              		.loc 1 490 0
 3274 0014 0023     		movs	r3, #0
 3275 0016 314A     		ldr	r2, .L242+4
 3276 0018 1900     		movs	r1, r3
 3277 001a 0520     		movs	r0, #5
 3278 001c FFF7FEFF 		bl	Display_DrawText
 3279              	.LVL372:
 491:ui.c          ****     delayWithWatchDog(10);//light load for 10 seconds
 3280              		.loc 1 491 0
 3281 0020 2F48     		ldr	r0, .L242+8
 3282 0022 FFF7FEFF 		bl	set_current
 3283              	.LVL373:
 3284              	.LBB76:
 3285              	.LBB77:
 473:ui.c          ****      for(uint8_t i=0;i<seconds;i++)
 3286              		.loc 1 473 0
 3287 0026 0820     		movs	r0, #8
 3288 0028 FFF7FEFF 		bl	CySysWdtResetCounters
 3289              	.LVL374:
 3290 002c 0A24     		movs	r4, #10
 3291              	.LVL375:
 3292              	.L237:
 3293              	.LBB78:
 476:ui.c          ****         #if USE_WATCHDOG
 3294              		.loc 1 476 0
 3295 002e FA20     		movs	r0, #250
 3296 0030 013C     		subs	r4, r4, #1
 3297              	.LVL376:
 3298 0032 8000     		lsls	r0, r0, #2
 3299 0034 E4B2     		uxtb	r4, r4
 3300 0036 FFF7FEFF 		bl	CyDelay
 3301              	.LVL377:
 474:ui.c          ****     {
ARM GAS  C:\Users\VIDEOH~1\AppData\Local\Temp\ccpdN5tN.s 			page 84


 3302              		.loc 1 474 0
 3303 003a 002C     		cmp	r4, #0
 3304 003c F7D1     		bne	.L237
 3305              	.LVL378:
 3306              	.LBE78:
 3307              	.LBE77:
 3308              	.LBE76:
 493:ui.c          ****     Display_DrawText(5, 76, "PASS", 1);
 3309              		.loc 1 493 0
 3310 003e FFF7FEFF 		bl	get_voltage
 3311              	.LVL379:
 494:ui.c          ****     Display_DrawText(3, 0, "F Load RUN", 0);
 3312              		.loc 1 494 0
 3313 0042 284E     		ldr	r6, .L242+12
 493:ui.c          ****     Display_DrawText(5, 76, "PASS", 1);
 3314              		.loc 1 493 0
 3315 0044 0500     		movs	r5, r0
 3316              	.LVL380:
 494:ui.c          ****     Display_DrawText(3, 0, "F Load RUN", 0);
 3317              		.loc 1 494 0
 3318 0046 0123     		movs	r3, #1
 3319 0048 3200     		movs	r2, r6
 3320 004a 4C21     		movs	r1, #76
 3321 004c 0520     		movs	r0, #5
 3322              	.LVL381:
 3323 004e FFF7FEFF 		bl	Display_DrawText
 3324              	.LVL382:
 495:ui.c          ****     set_current(1000000);//1A
 3325              		.loc 1 495 0
 3326 0052 2300     		movs	r3, r4
 3327 0054 244A     		ldr	r2, .L242+16
 3328 0056 2100     		movs	r1, r4
 3329 0058 0320     		movs	r0, #3
 3330 005a FFF7FEFF 		bl	Display_DrawText
 3331              	.LVL383:
 496:ui.c          ****     delayWithWatchDog(3);//full load for 3 seconds
 3332              		.loc 1 496 0
 3333 005e 2348     		ldr	r0, .L242+20
 3334 0060 FFF7FEFF 		bl	set_current
 3335              	.LVL384:
 3336              	.LBB79:
 3337              	.LBB80:
 473:ui.c          ****      for(uint8_t i=0;i<seconds;i++)
 3338              		.loc 1 473 0
 3339 0064 0820     		movs	r0, #8
 3340 0066 FFF7FEFF 		bl	CySysWdtResetCounters
 3341              	.LVL385:
 3342              	.LBB81:
 476:ui.c          ****         #if USE_WATCHDOG
 3343              		.loc 1 476 0
 3344 006a FA20     		movs	r0, #250
 3345 006c 8000     		lsls	r0, r0, #2
 3346 006e FFF7FEFF 		bl	CyDelay
 3347              	.LVL386:
 3348 0072 FA20     		movs	r0, #250
 3349 0074 8000     		lsls	r0, r0, #2
 3350 0076 FFF7FEFF 		bl	CyDelay
ARM GAS  C:\Users\VIDEOH~1\AppData\Local\Temp\ccpdN5tN.s 			page 85


 3351              	.LVL387:
 3352 007a FA20     		movs	r0, #250
 3353 007c 8000     		lsls	r0, r0, #2
 3354 007e FFF7FEFF 		bl	CyDelay
 3355              	.LVL388:
 3356              	.LBE81:
 3357              	.LBE80:
 3358              	.LBE79:
 498:ui.c          ****     set_current(0);//stop pulling current
 3359              		.loc 1 498 0
 3360 0082 FFF7FEFF 		bl	get_voltage
 3361              	.LVL389:
 3362 0086 0700     		movs	r7, r0
 3363              	.LVL390:
 499:ui.c          ****     //Test done
 3364              		.loc 1 499 0
 3365 0088 2000     		movs	r0, r4
 3366              	.LVL391:
 3367 008a FFF7FEFF 		bl	set_current
 3368              	.LVL392:
 510:ui.c          ****     char buf[16];
 3369              		.loc 1 510 0
 3370 008e 0123     		movs	r3, #1
 3371 0090 3200     		movs	r2, r6
 3372 0092 4C21     		movs	r1, #76
 3373 0094 0320     		movs	r0, #3
 3374 0096 FFF7FEFF 		bl	Display_DrawText
 3375              	.LVL393:
 512:ui.c          ****     Display_DrawText(1, 0, buf, 0);
 3376              		.loc 1 512 0
 3377 009a 0A20     		movs	r0, #10
 3378 009c ED1B     		subs	r5, r5, r7
 3379              	.LVL394:
 3380 009e 6843     		muls	r0, r5
 3381 00a0 0921     		movs	r1, #9
 3382 00a2 FFF7FEFF 		bl	__aeabi_uidiv
 3383              	.LVL395:
 3384 00a6 6A46     		mov	r2, sp
 3385 00a8 1149     		ldr	r1, .L242+24
 3386 00aa FFF7FEFF 		bl	format_number
 3387              	.LVL396:
 516:ui.c          **** 	while(event.type != UI_EVENT_BUTTONPRESS || event.int_arg != 1) {
 3388              		.loc 1 516 0
 3389 00ae 04AD     		add	r5, sp, #16
 513:ui.c          ****     //wait for user to acknowledge
 3390              		.loc 1 513 0
 3391 00b0 2300     		movs	r3, r4
 3392 00b2 6A46     		mov	r2, sp
 3393 00b4 2100     		movs	r1, r4
 3394 00b6 0120     		movs	r0, #1
 3395 00b8 FFF7FEFF 		bl	Display_DrawText
 3396              	.LVL397:
 516:ui.c          **** 	while(event.type != UI_EVENT_BUTTONPRESS || event.int_arg != 1) {
 3397              		.loc 1 516 0
 3398 00bc 2C70     		strb	r4, [r5]
 3399              	.L238:
 517:ui.c          **** 		next_event(&event);
ARM GAS  C:\Users\VIDEOH~1\AppData\Local\Temp\ccpdN5tN.s 			page 86


 3400              		.loc 1 517 0
 3401 00be 2B78     		ldrb	r3, [r5]
 3402 00c0 012B     		cmp	r3, #1
 3403 00c2 03D0     		beq	.L241
 3404              	.L239:
 518:ui.c          **** 	}
 3405              		.loc 1 518 0
 3406 00c4 2800     		movs	r0, r5
 3407 00c6 FFF7FEFF 		bl	next_event
 3408              	.LVL398:
 3409 00ca F8E7     		b	.L238
 3410              	.L241:
 517:ui.c          **** 		next_event(&event);
 3411              		.loc 1 517 0 discriminator 1
 3412 00cc 6B68     		ldr	r3, [r5, #4]
 3413 00ce 012B     		cmp	r3, #1
 3414 00d0 F8D1     		bne	.L239
 521:ui.c          **** 
 3415              		.loc 1 521 0
 3416 00d2 09B0     		add	sp, sp, #36
 3417              		@ sp needed
 3418              	.LVL399:
 3419 00d4 F0BD     		pop	{r4, r5, r6, r7, pc}
 3420              	.L243:
 3421 00d6 C046     		.align	2
 3422              	.L242:
 3423 00d8 08010000 		.word	.LC150
 3424 00dc 12010000 		.word	.LC152
 3425 00e0 A0860100 		.word	100000
 3426 00e4 1D010000 		.word	.LC154
 3427 00e8 22010000 		.word	.LC156
 3428 00ec 40420F00 		.word	1000000
 3429 00f0 2D010000 		.word	.LC158
 3430              		.cfi_endproc
 3431              	.LFE53:
 3432              		.size	measure_Battery_ISR, .-measure_Battery_ISR
 3433              		.section	.text.vApplicationTickHook,"ax",%progbits
 3434              		.align	1
 3435              		.global	vApplicationTickHook
 3436              		.code	16
 3437              		.thumb_func
 3438              		.type	vApplicationTickHook, %function
 3439              	vApplicationTickHook:
 3440              	.LFB33:
 159:ui.c          **** 	static ui_event event = {.type = UI_EVENT_BUTTONPRESS, .when = 0};
 3441              		.loc 1 159 0
 3442              		.cfi_startproc
 3443              		@ args = 0, pretend = 0, frame = 0
 3444              		@ frame_needed = 0, uses_anonymous_args = 0
 3445 0000 70B5     		push	{r4, r5, r6, lr}
 3446              		.cfi_def_cfa_offset 16
 3447              		.cfi_offset 4, -16
 3448              		.cfi_offset 5, -12
 3449              		.cfi_offset 6, -8
 3450              		.cfi_offset 14, -4
 163:ui.c          ****     if (button_now != event.int_arg)
 3451              		.loc 1 163 0
ARM GAS  C:\Users\VIDEOH~1\AppData\Local\Temp\ccpdN5tN.s 			page 87


 3452 0002 FFF7FEFF 		bl	QuadButton_Read
 3453              	.LVL400:
 164:ui.c          ****     {
 3454              		.loc 1 164 0
 3455 0006 104C     		ldr	r4, .L249
 163:ui.c          ****     if (button_now != event.int_arg)
 3456              		.loc 1 163 0
 3457 0008 0500     		movs	r5, r0
 3458              	.LVL401:
 164:ui.c          ****     {
 3459              		.loc 1 164 0
 3460 000a E369     		ldr	r3, [r4, #28]
 3461 000c 9842     		cmp	r0, r3
 3462 000e 1AD0     		beq	.L244
 166:ui.c          ****         event.when = xTaskGetTickCountFromISR();
 3463              		.loc 1 166 0
 3464 0010 0E4E     		ldr	r6, .L249+4
 3465 0012 636A     		ldr	r3, [r4, #36]
 3466 0014 7361     		str	r3, [r6, #20]
 167:ui.c          **** 
 3467              		.loc 1 167 0
 3468 0016 FFF7FEFF 		bl	xTaskGetTickCountFromISR
 3469              	.LVL402:
 169:ui.c          **** 
 3470              		.loc 1 169 0
 3471 001a E561     		str	r5, [r4, #28]
 167:ui.c          **** 
 3472              		.loc 1 167 0
 3473 001c 6062     		str	r0, [r4, #36]
 172:ui.c          ****             long_button_press_tick_count = portMAX_DELAY;
 3474              		.loc 1 172 0
 3475 001e 002D     		cmp	r5, #0
 3476 0020 0FD0     		beq	.L247
 173:ui.c          ****             if(event.when - before >= (30 * configTICK_RATE_HZ / 1000)) {
 3477              		.loc 1 173 0
 3478 0022 0123     		movs	r3, #1
 3479 0024 5B42     		rsbs	r3, r3, #0
 3480 0026 2360     		str	r3, [r4]
 174:ui.c          ****     		    xQueueSendToBackFromISR(ui_queue, &event, NULL);
 3481              		.loc 1 174 0
 3482 0028 7369     		ldr	r3, [r6, #20]
 3483 002a C01A     		subs	r0, r0, r3
 3484 002c 0228     		cmp	r0, #2
 3485 002e 0AD9     		bls	.L244
 175:ui.c          ****             }
 3486              		.loc 1 175 0
 3487 0030 2100     		movs	r1, r4
 3488 0032 0023     		movs	r3, #0
 3489 0034 0648     		ldr	r0, .L249+8
 3490 0036 1831     		adds	r1, r1, #24
 3491 0038 1A00     		movs	r2, r3
 3492 003a 0068     		ldr	r0, [r0]
 3493 003c FFF7FEFF 		bl	xQueueGenericSendFromISR
 3494              	.LVL403:
 3495 0040 01E0     		b	.L244
 3496              	.L247:
 178:ui.c          ****         }
ARM GAS  C:\Users\VIDEOH~1\AppData\Local\Temp\ccpdN5tN.s 			page 88


 3497              		.loc 1 178 0
 3498 0042 6430     		adds	r0, r0, #100
 3499 0044 2060     		str	r0, [r4]
 3500              	.L244:
 181:ui.c          **** 
 3501              		.loc 1 181 0
 3502              		@ sp needed
 3503              	.LVL404:
 3504 0046 70BD     		pop	{r4, r5, r6, pc}
 3505              	.L250:
 3506              		.align	2
 3507              	.L249:
 3508 0048 00000000 		.word	.LANCHOR0
 3509 004c 00000000 		.word	.LANCHOR1
 3510 0050 00000000 		.word	ui_queue
 3511              		.cfi_endproc
 3512              	.LFE33:
 3513              		.size	vApplicationTickHook, .-vApplicationTickHook
 3514              		.section	.text.vTaskUI,"ax",%progbits
 3515              		.align	1
 3516              		.global	vTaskUI
 3517              		.code	16
 3518              		.thumb_func
 3519              		.type	vTaskUI, %function
 3520              	vTaskUI:
 3521              	.LFB69:
 956:ui.c          **** 
 957:ui.c          **** void vTaskUI( void *pvParameters ) {
 3522              		.loc 1 957 0
 3523              		.cfi_startproc
 3524              		@ args = 0, pretend = 0, frame = 16
 3525              		@ frame_needed = 0, uses_anonymous_args = 0
 3526              	.LVL405:
 3527 0000 7FB5     		push	{r0, r1, r2, r3, r4, r5, r6, lr}
 3528              		.cfi_def_cfa_offset 32
 3529              		.cfi_offset 0, -32
 3530              		.cfi_offset 1, -28
 3531              		.cfi_offset 2, -24
 3532              		.cfi_offset 3, -20
 3533              		.cfi_offset 4, -16
 3534              		.cfi_offset 5, -12
 3535              		.cfi_offset 6, -8
 3536              		.cfi_offset 14, -4
 958:ui.c          **** 	ui_queue = xQueueCreate(2, sizeof(ui_event));
 3537              		.loc 1 958 0
 3538 0002 1021     		movs	r1, #16
 3539 0004 0022     		movs	r2, #0
 3540 0006 0220     		movs	r0, #2
 3541              	.LVL406:
 3542 0008 FFF7FEFF 		bl	xQueueGenericCreate
 3543              	.LVL407:
 3544 000c 0B4B     		ldr	r3, .L257
 3545 000e 1860     		str	r0, [r3]
 959:ui.c          **** 
 960:ui.c          **** 	QuadratureISR_StartEx(quadrature_event_isr);
 3546              		.loc 1 960 0
 3547 0010 0B48     		ldr	r0, .L257+4
ARM GAS  C:\Users\VIDEOH~1\AppData\Local\Temp\ccpdN5tN.s 			page 89


 3548 0012 FFF7FEFF 		bl	QuadratureISR_StartEx
 3549              	.LVL408:
 961:ui.c          **** 
 962:ui.c          **** 	state_func main_state = STATE_CC_LOAD;
 963:ui.c          **** 	state_func state = STATE_CC_LOAD;
 3550              		.loc 1 963 0
 3551 0016 0021     		movs	r1, #0
 3552 0018 0A4B     		ldr	r3, .L257+8
 3553              	.LVL409:
 3554              	.L256:
 962:ui.c          **** 	state_func state = STATE_CC_LOAD;
 3555              		.loc 1 962 0
 3556 001a 0D00     		movs	r5, r1
 3557 001c 1C00     		movs	r4, r3
 3558              	.L253:
 3559              	.LVL410:
 3560              	.LBB82:
 964:ui.c          **** 
 965:ui.c          **** 	while(1) {
 966:ui.c          **** 		state_func new_state = state.func(state.arg);
 3561              		.loc 1 966 0
 3562 001e 01AE     		add	r6, sp, #4
 3563 0020 3000     		movs	r0, r6
 3564 0022 9847     		blx	r3
 3565              	.LVL411:
 3566 0024 019B     		ldr	r3, [sp, #4]
 3567              	.LVL412:
 967:ui.c          **** 		if(new_state.func == NULL) {
 3568              		.loc 1 967 0
 3569 0026 002B     		cmp	r3, #0
 3570 0028 05D0     		beq	.L254
 3571              	.LVL413:
 968:ui.c          **** 			memcpy(&state, &main_state, sizeof(state_func));
 969:ui.c          **** 		} else {
 970:ui.c          **** 			memcpy(&state, &new_state, sizeof(state_func));
 971:ui.c          **** 		}
 972:ui.c          **** 
 973:ui.c          **** 		if(state.is_main_state) {
 3572              		.loc 1 973 0
 3573 002a 0822     		movs	r2, #8
 3574 002c B256     		ldrsb	r2, [r6, r2]
 970:ui.c          **** 		}
 3575              		.loc 1 970 0
 3576 002e 0299     		ldr	r1, [sp, #8]
 3577              	.LVL414:
 3578              		.loc 1 973 0
 3579 0030 002A     		cmp	r2, #0
 3580 0032 F4D0     		beq	.L253
 3581 0034 F1E7     		b	.L256
 3582              	.LVL415:
 3583              	.L254:
 968:ui.c          **** 			memcpy(&state, &main_state, sizeof(state_func));
 3584              		.loc 1 968 0
 3585 0036 2900     		movs	r1, r5
 3586 0038 2300     		movs	r3, r4
 3587              	.LVL416:
 3588 003a F0E7     		b	.L253
ARM GAS  C:\Users\VIDEOH~1\AppData\Local\Temp\ccpdN5tN.s 			page 90


 3589              	.L258:
 3590              		.align	2
 3591              	.L257:
 3592 003c 00000000 		.word	ui_queue
 3593 0040 00000000 		.word	quadrature_event_isr
 3594 0044 00000000 		.word	cc_load
 3595              	.LBE82:
 3596              		.cfi_endproc
 3597              	.LFE69:
 3598              		.size	vTaskUI, .-vTaskUI
 3599              		.global	readout_functions
 3600              		.global	quadrature_states
 3601              		.global	long_button_press_tick_count
 3602              		.global	main_menu
 3603              		.global	tools_menu
 3604              		.global	choose_readout_menu
 3605              		.global	set_readout_menu
 3606              		.comm	ui_queue,4,4
 3607              		.global	termistor_tbl
 3608              		.section	.rodata
 3609              		.align	2
 3610              		.set	.LANCHOR2,. + 0
 3611              		.set	.LANCHOR3,. + 128
 3612              		.set	.LANCHOR4,. + 256
 3613              		.type	choose_readout_menu, %object
 3614              		.size	choose_readout_menu, 84
 3615              	choose_readout_menu:
 3616 0000 47010000 		.word	.LC171
 3617 0004 85010000 		.word	.LC179
 3618 0008 00000000 		.word	0
 3619 000c 01000000 		.word	1
 3620 0010 00       		.byte	0
 3621 0011 000000   		.space	3
 3622 0014 8E010000 		.word	.LC180
 3623 0018 00000000 		.word	0
 3624 001c 02000000 		.word	2
 3625 0020 00       		.byte	0
 3626 0021 000000   		.space	3
 3627 0024 95010000 		.word	.LC181
 3628 0028 00000000 		.word	0
 3629 002c 03000000 		.word	3
 3630 0030 00       		.byte	0
 3631 0031 000000   		.space	3
 3632 0034 77010000 		.word	.LC177
 3633 0038 00000000 		.word	0
 3634 003c 00000000 		.word	0
 3635 0040 00       		.byte	0
 3636 0041 000000   		.space	3
 3637 0044 00000000 		.word	0
 3638 0048 00000000 		.word	0
 3639 004c 00000000 		.word	0
 3640 0050 00       		.byte	0
 3641 0051 000000   		.space	3
 3642              		.type	set_readout_menu, %object
 3643              		.size	set_readout_menu, 164
 3644              	set_readout_menu:
 3645 0054 9E010000 		.word	.LC182
ARM GAS  C:\Users\VIDEOH~1\AppData\Local\Temp\ccpdN5tN.s 			page 91


 3646 0058 A7010000 		.word	.LC183
 3647 005c 00000000 		.word	0
 3648 0060 01000000 		.word	1
 3649 0064 00       		.byte	0
 3650 0065 000000   		.space	3
 3651 0068 AE010000 		.word	.LC184
 3652 006c 00000000 		.word	0
 3653 0070 02000000 		.word	2
 3654 0074 00       		.byte	0
 3655 0075 000000   		.space	3
 3656 0078 B8010000 		.word	.LC185
 3657 007c 00000000 		.word	0
 3658 0080 03000000 		.word	3
 3659 0084 00       		.byte	0
 3660 0085 000000   		.space	3
 3661 0088 C0010000 		.word	.LC186
 3662 008c 00000000 		.word	0
 3663 0090 04000000 		.word	4
 3664 0094 00       		.byte	0
 3665 0095 000000   		.space	3
 3666 0098 C6010000 		.word	.LC187
 3667 009c 00000000 		.word	0
 3668 00a0 05000000 		.word	5
 3669 00a4 00       		.byte	0
 3670 00a5 000000   		.space	3
 3671 00a8 CD010000 		.word	.LC188
 3672 00ac 00000000 		.word	0
 3673 00b0 06000000 		.word	6
 3674 00b4 00       		.byte	0
 3675 00b5 000000   		.space	3
 3676 00b8 D6010000 		.word	.LC189
 3677 00bc 00000000 		.word	0
 3678 00c0 07000000 		.word	7
 3679 00c4 00       		.byte	0
 3680 00c5 000000   		.space	3
 3681 00c8 DF010000 		.word	.LC190
 3682 00cc 00000000 		.word	0
 3683 00d0 08000000 		.word	8
 3684 00d4 00       		.byte	0
 3685 00d5 000000   		.space	3
 3686 00d8 77010000 		.word	.LC177
 3687 00dc 00000000 		.word	0
 3688 00e0 00000000 		.word	0
 3689 00e4 00       		.byte	0
 3690 00e5 000000   		.space	3
 3691 00e8 00000000 		.word	0
 3692 00ec 00000000 		.word	0
 3693 00f0 00000000 		.word	0
 3694 00f4 00       		.byte	0
 3695 00f5 000000   		.space	3
 3696              		.type	quadrature_states, %object
 3697              		.size	quadrature_states, 4
 3698              	quadrature_states:
 3699 00f8 01       		.byte	1
 3700 00f9 03       		.byte	3
 3701 00fa 00       		.byte	0
 3702 00fb 02       		.byte	2
ARM GAS  C:\Users\VIDEOH~1\AppData\Local\Temp\ccpdN5tN.s 			page 92


 3703              	.LC120:
 3704 00fc 00000000 		.word	menu
 3705 0100 00000000 		.word	main_menu
 3706 0104 00       		.byte	0
 3707 0105 000000   		.space	3
 3708              		.type	readout_functions, %object
 3709              		.size	readout_functions, 72
 3710              	readout_functions:
 3711 0108 00000000 		.word	print_nothing
 3712 010c 35010000 		.word	.LC167
 3713 0110 00000000 		.word	print_setpoint
 3714 0114 36010000 		.word	.LC168
 3715 0118 00000000 		.word	print_current_usage
 3716 011c 3A010000 		.word	.LC169
 3717 0120 00000000 		.word	print_voltage
 3718 0124 35010000 		.word	.LC167
 3719 0128 00000000 		.word	print_power
 3720 012c 35010000 		.word	.LC167
 3721 0130 00000000 		.word	print_resistance
 3722 0134 35010000 		.word	.LC167
 3723 0138 00000000 		.word	print_amp_hours
 3724 013c 35010000 		.word	.LC167
 3725 0140 00000000 		.word	print_watt_hours
 3726 0144 35010000 		.word	.LC167
 3727 0148 00000000 		.word	print_nothing
 3728 014c 35010000 		.word	.LC167
 3729              		.type	termistor_tbl, %object
 3730              		.size	termistor_tbl, 332
 3731              	termistor_tbl:
 3732 0150 4700     		.short	71
 3733 0152 4B00     		.short	75
 3734 0154 4F00     		.short	79
 3735 0156 5300     		.short	83
 3736 0158 5800     		.short	88
 3737 015a 5C00     		.short	92
 3738 015c 6200     		.short	98
 3739 015e 6700     		.short	103
 3740 0160 6D00     		.short	109
 3741 0162 7400     		.short	116
 3742 0164 7A00     		.short	122
 3743 0166 8200     		.short	130
 3744 0168 8900     		.short	137
 3745 016a 9100     		.short	145
 3746 016c 9900     		.short	153
 3747 016e A200     		.short	162
 3748 0170 AB00     		.short	171
 3749 0172 B400     		.short	180
 3750 0174 BE00     		.short	190
 3751 0176 C800     		.short	200
 3752 0178 D200     		.short	210
 3753 017a DD00     		.short	221
 3754 017c E800     		.short	232
 3755 017e F300     		.short	243
 3756 0180 FE00     		.short	254
 3757 0182 0A01     		.short	266
 3758 0184 1601     		.short	278
 3759 0186 2301     		.short	291
ARM GAS  C:\Users\VIDEOH~1\AppData\Local\Temp\ccpdN5tN.s 			page 93


 3760 0188 3001     		.short	304
 3761 018a 3E01     		.short	318
 3762 018c 4B01     		.short	331
 3763 018e 5901     		.short	345
 3764 0190 6801     		.short	360
 3765 0192 7701     		.short	375
 3766 0194 8601     		.short	390
 3767 0196 9601     		.short	406
 3768 0198 A601     		.short	422
 3769 019a B701     		.short	439
 3770 019c C701     		.short	455
 3771 019e D901     		.short	473
 3772 01a0 EA01     		.short	490
 3773 01a2 FD01     		.short	509
 3774 01a4 1002     		.short	528
 3775 01a6 2302     		.short	547
 3776 01a8 3602     		.short	566
 3777 01aa 4A02     		.short	586
 3778 01ac 5E02     		.short	606
 3779 01ae 7302     		.short	627
 3780 01b0 8802     		.short	648
 3781 01b2 9D02     		.short	669
 3782 01b4 B202     		.short	690
 3783 01b6 C802     		.short	712
 3784 01b8 DD02     		.short	733
 3785 01ba F302     		.short	755
 3786 01bc 0903     		.short	777
 3787 01be 1F03     		.short	799
 3788 01c0 3603     		.short	822
 3789 01c2 4C03     		.short	844
 3790 01c4 6303     		.short	867
 3791 01c6 7903     		.short	889
 3792 01c8 8F03     		.short	911
 3793 01ca A603     		.short	934
 3794 01cc BD03     		.short	957
 3795 01ce D303     		.short	979
 3796 01d0 E903     		.short	1001
 3797 01d2 0004     		.short	1024
 3798 01d4 1604     		.short	1046
 3799 01d6 2C04     		.short	1068
 3800 01d8 4204     		.short	1090
 3801 01da 5804     		.short	1112
 3802 01dc 6E04     		.short	1134
 3803 01de 8304     		.short	1155
 3804 01e0 9804     		.short	1176
 3805 01e2 AD04     		.short	1197
 3806 01e4 C204     		.short	1218
 3807 01e6 D604     		.short	1238
 3808 01e8 EB04     		.short	1259
 3809 01ea FE04     		.short	1278
 3810 01ec 1205     		.short	1298
 3811 01ee 2505     		.short	1317
 3812 01f0 3805     		.short	1336
 3813 01f2 4B05     		.short	1355
 3814 01f4 5D05     		.short	1373
 3815 01f6 6F05     		.short	1391
 3816 01f8 8105     		.short	1409
ARM GAS  C:\Users\VIDEOH~1\AppData\Local\Temp\ccpdN5tN.s 			page 94


 3817 01fa 9205     		.short	1426
 3818 01fc A305     		.short	1443
 3819 01fe B305     		.short	1459
 3820 0200 C405     		.short	1476
 3821 0202 D305     		.short	1491
 3822 0204 E305     		.short	1507
 3823 0206 F205     		.short	1522
 3824 0208 0106     		.short	1537
 3825 020a 0F06     		.short	1551
 3826 020c 1D06     		.short	1565
 3827 020e 2B06     		.short	1579
 3828 0210 3806     		.short	1592
 3829 0212 4506     		.short	1605
 3830 0214 5206     		.short	1618
 3831 0216 5E06     		.short	1630
 3832 0218 6A06     		.short	1642
 3833 021a 7606     		.short	1654
 3834 021c 8106     		.short	1665
 3835 021e 8C06     		.short	1676
 3836 0220 9706     		.short	1687
 3837 0222 A106     		.short	1697
 3838 0224 AC06     		.short	1708
 3839 0226 B506     		.short	1717
 3840 0228 BF06     		.short	1727
 3841 022a C806     		.short	1736
 3842 022c D106     		.short	1745
 3843 022e DA06     		.short	1754
 3844 0230 E206     		.short	1762
 3845 0232 EB06     		.short	1771
 3846 0234 F306     		.short	1779
 3847 0236 FA06     		.short	1786
 3848 0238 0207     		.short	1794
 3849 023a 0907     		.short	1801
 3850 023c 1007     		.short	1808
 3851 023e 1707     		.short	1815
 3852 0240 1E07     		.short	1822
 3853 0242 2407     		.short	1828
 3854 0244 2A07     		.short	1834
 3855 0246 3007     		.short	1840
 3856 0248 3607     		.short	1846
 3857 024a 3C07     		.short	1852
 3858 024c 4107     		.short	1857
 3859 024e 4707     		.short	1863
 3860 0250 4C07     		.short	1868
 3861 0252 5107     		.short	1873
 3862 0254 5507     		.short	1877
 3863 0256 5A07     		.short	1882
 3864 0258 5F07     		.short	1887
 3865 025a 6307     		.short	1891
 3866 025c 6707     		.short	1895
 3867 025e 6C07     		.short	1900
 3868 0260 7007     		.short	1904
 3869 0262 7307     		.short	1907
 3870 0264 7707     		.short	1911
 3871 0266 7B07     		.short	1915
 3872 0268 7F07     		.short	1919
 3873 026a 8207     		.short	1922
ARM GAS  C:\Users\VIDEOH~1\AppData\Local\Temp\ccpdN5tN.s 			page 95


 3874 026c 8507     		.short	1925
 3875 026e 8807     		.short	1928
 3876 0270 8C07     		.short	1932
 3877 0272 8F07     		.short	1935
 3878 0274 9207     		.short	1938
 3879 0276 9507     		.short	1941
 3880 0278 9707     		.short	1943
 3881 027a 9A07     		.short	1946
 3882 027c 9D07     		.short	1949
 3883 027e A007     		.short	1952
 3884 0280 A207     		.short	1954
 3885 0282 A507     		.short	1957
 3886 0284 A707     		.short	1959
 3887 0286 A907     		.short	1961
 3888 0288 AC07     		.short	1964
 3889 028a AE07     		.short	1966
 3890 028c B007     		.short	1968
 3891 028e B207     		.short	1970
 3892 0290 B407     		.short	1972
 3893 0292 B607     		.short	1974
 3894 0294 B807     		.short	1976
 3895 0296 BA07     		.short	1978
 3896 0298 BC07     		.short	1980
 3897 029a BE07     		.short	1982
 3898              		.type	main_menu, %object
 3899              		.size	main_menu, 180
 3900              	main_menu:
 3901 029c 00000000 		.word	0
 3902 02a0 3E010000 		.word	.LC170
 3903 02a4 00000000 		.word	cc_load
 3904 02a8 00000000 		.word	0
 3905 02ac 01       		.byte	1
 3906 02ad 000000   		.space	3
 3907 02b0 47010000 		.word	.LC171
 3908 02b4 00000000 		.word	display_config
 3909 02b8 00000000 		.word	0
 3910 02bc 00       		.byte	0
 3911 02bd 000000   		.space	3
 3912 02c0 50010000 		.word	.LC172
 3913 02c4 00000000 		.word	ui_set_min_voltage
 3914 02c8 00000000 		.word	0
 3915 02cc 00       		.byte	0
 3916 02cd 000000   		.space	3
 3917 02d0 58010000 		.word	.LC173
 3918 02d4 00000000 		.word	call_void_func
 3919 02d8 00000000 		.word	reset_running_totals
 3920 02dc 00       		.byte	0
 3921 02dd 000000   		.space	3
 3922 02e0 5E010000 		.word	.LC174
 3923 02e4 00000000 		.word	menu
 3924 02e8 00000000 		.word	tools_menu
 3925 02ec 00       		.byte	0
 3926 02ed 000000   		.space	3
 3927 02f0 B5000000 		.word	.LC67
 3928 02f4 00000000 		.word	set_contrast
 3929 02f8 00000000 		.word	0
 3930 02fc 00       		.byte	0
ARM GAS  C:\Users\VIDEOH~1\AppData\Local\Temp\ccpdN5tN.s 			page 96


 3931 02fd 000000   		.space	3
 3932 0300 F8000000 		.word	.LC136
 3933 0304 00000000 		.word	set_cooler
 3934 0308 00000000 		.word	0
 3935 030c 00       		.byte	0
 3936 030d 000000   		.space	3
 3937 0310 64010000 		.word	.LC175
 3938 0314 00000000 		.word	ui_calibrate
 3939 0318 00000000 		.word	0
 3940 031c 00       		.byte	0
 3941 031d 000000   		.space	3
 3942 0320 6E010000 		.word	.LC176
 3943 0324 00000000 		.word	upgrade
 3944 0328 00000000 		.word	0
 3945 032c 00       		.byte	0
 3946 032d 000000   		.space	3
 3947 0330 77010000 		.word	.LC177
 3948 0334 00000000 		.word	0
 3949 0338 00000000 		.word	0
 3950 033c 00       		.byte	0
 3951 033d 000000   		.space	3
 3952 0340 00000000 		.word	0
 3953 0344 00000000 		.word	0
 3954 0348 00000000 		.word	0
 3955 034c 00       		.byte	0
 3956 034d 000000   		.space	3
 3957              		.type	tools_menu, %object
 3958              		.size	tools_menu, 52
 3959              	tools_menu:
 3960 0350 00000000 		.word	0
 3961 0354 7C010000 		.word	.LC178
 3962 0358 00000000 		.word	call_void_func
 3963 035c 00000000 		.word	measure_Battery_ISR
 3964 0360 00       		.byte	0
 3965 0361 000000   		.space	3
 3966 0364 77010000 		.word	.LC177
 3967 0368 00000000 		.word	0
 3968 036c 00000000 		.word	0
 3969 0370 00       		.byte	0
 3970 0371 000000   		.space	3
 3971 0374 00000000 		.word	0
 3972 0378 00000000 		.word	0
 3973 037c 00000000 		.word	0
 3974 0380 00       		.byte	0
 3975 0381 000000   		.space	3
 3976              		.section	.rodata.str1.1,"aMS",%progbits,1
 3977              	.LC2:
 3978 0000 2533642E 		.ascii	"%3d.%03d%s\000"
 3978      25303364 
 3978      257300
 3979              	.LC4:
 3980 000b 2531642E 		.ascii	"%1d.%02d\000"
 3980      25303264 
 3980      00
 3981              	.LC6:
 3982 0014 25303264 		.ascii	"%02d.%1d\000"
 3982      2E253164 
ARM GAS  C:\Users\VIDEOH~1\AppData\Local\Temp\ccpdN5tN.s 			page 97


 3982      00
 3983              	.LC8:
 3984 001d 25303364 		.ascii	"%03d\000"
 3984      00
 3985              	.LC10:
 3986 0022 6D00     		.ascii	"m\000"
 3987              	.LC12:
 3988 0024 5600     		.ascii	"V\000"
 3989              	.LC14:
 3990 0026 21555047 		.ascii	"!UPGRADE!\000"
 3990      52414445 
 3990      2100
 3991              	.LC16:
 3992 0030 52454144 		.ascii	"READY TO\000"
 3992      5920544F 
 3992      00
 3993              	.LC18:
 3994 0039 4649524D 		.ascii	"FIRMWARE\000"
 3994      57415245 
 3994      00
 3995              	.LC20:
 3996 0042 444F574E 		.ascii	"DOWNLOAD\000"
 3996      4C4F4144 
 3996      00
 3997              	.LC26:
 3998 004b 4D696E56 		.ascii	"MinVoltage\000"
 3998      6F6C7461 
 3998      676500
 3999              	.LC29:
 4000 0056 4F4E00   		.ascii	"ON\000"
 4001              	.LC31:
 4002 0059 4F464600 		.ascii	"OFF\000"
 4003              	.LC38:
 4004 005d 43414C49 		.ascii	"CALIBRATE\000"
 4004      42524154 
 4004      4500
 4005              	.LC41:
 4006 0067 52656D6F 		.ascii	"Remove\000"
 4006      766500
 4007              	.LC43:
 4008 006e 4C656164 		.ascii	"Leads\000"
 4008      7300
 4009              	.LC45:
 4010 0074 853A204E 		.ascii	"\205: Next\000"
 4010      65787400 
 4011              	.LC47:
 4012 007c 41646A20 		.ascii	"Adj Volt\000"
 4012      566F6C74 
 4012      00
 4013              	.LC50:
 4014 0085 2000     		.ascii	" \000"
 4015              	.LC52:
 4016 0087 41646A20 		.ascii	"Adj Cur\000"
 4016      43757200 
 4017              	.LC54:
 4018 008f 4100     		.ascii	"A\000"
 4019              	.LC56:
ARM GAS  C:\Users\VIDEOH~1\AppData\Local\Temp\ccpdN5tN.s 			page 98


 4020 0091 57616974 		.ascii	"Wait\000"
 4020      00
 4021              	.LC61:
 4022 0096 214F5645 		.ascii	"!OVERTEMP!\000"
 4022      5254454D 
 4022      502100
 4023              	.LC63:
 4024 00a1 21554E44 		.ascii	"!UNDERVOLT!\000"
 4024      4552564F 
 4024      4C542100 
 4025              	.LC65:
 4026 00ad 853A5265 		.ascii	"\205:Reset\000"
 4026      73657400 
 4027              	.LC67:
 4028 00b5 436F6E74 		.ascii	"Contrast\000"
 4028      72617374 
 4028      00
 4029              	.LC69:
 4030 00be 853A2044 		.ascii	"\205: Done\000"
 4030      6F6E6500 
 4031              	.LC71:
 4032 00c6 8600     		.ascii	"\206\000"
 4033              	.LC73:
 4034 00c8 8700     		.ascii	"\207\000"
 4035              	.LC81:
 4036 00ca 8200     		.ascii	"\202\000"
 4037              	.LC84:
 4038 00cc 8300     		.ascii	"\203\000"
 4039              	.LC91:
 4040 00ce 20202020 		.ascii	"      \000"
 4040      202000
 4041              	.LC95:
 4042 00d5 5700     		.ascii	"W\000"
 4043              	.LC97:
 4044 00d7 7F00     		.ascii	"\177\000"
 4045              	.LC99:
 4046 00d9 2D2D2D2D 		.ascii	"----\177\000"
 4046      7F00
 4047              	.LC101:
 4048 00df 416800   		.ascii	"Ah\000"
 4049              	.LC103:
 4050 00e2 576800   		.ascii	"Wh\000"
 4051              	.LC116:
 4052 00e5 25336400 		.ascii	"%3d\000"
 4053              	.LC118:
 4054 00e9 8A00     		.ascii	"\212\000"
 4055              	.LC124:
 4056 00eb 73657420 		.ascii	"set %d\015\012\000"
 4056      25640D0A 
 4056      00
 4057              	.LC131:
 4058 00f4 8800     		.ascii	"\210\000"
 4059              	.LC133:
 4060 00f6 8900     		.ascii	"\211\000"
 4061              	.LC136:
 4062 00f8 436F6F6C 		.ascii	"Cooler\000"
 4062      657200
ARM GAS  C:\Users\VIDEOH~1\AppData\Local\Temp\ccpdN5tN.s 			page 99


 4063              	.LC140:
 4064 00ff 53455420 		.ascii	"SET TEMP\000"
 4064      54454D50 
 4064      00
 4065              	.LC150:
 4066 0108 42415454 		.ascii	"BATT TEST\000"
 4066      20544553 
 4066      5400
 4067              	.LC152:
 4068 0112 4C204C6F 		.ascii	"L Load RUN\000"
 4068      61642052 
 4068      554E00
 4069              	.LC154:
 4070 011d 50415353 		.ascii	"PASS\000"
 4070      00
 4071              	.LC156:
 4072 0122 46204C6F 		.ascii	"F Load RUN\000"
 4072      61642052 
 4072      554E00
 4073              	.LC158:
 4074 012d 7F208542 		.ascii	"\177 \205Back\000"
 4074      61636B00 
 4075              	.LC167:
 4076 0135 00       		.ascii	"\000"
 4077              	.LC168:
 4078 0136 53455400 		.ascii	"SET\000"
 4079              	.LC169:
 4080 013a 41435400 		.ascii	"ACT\000"
 4081              	.LC170:
 4082 013e 432F4320 		.ascii	"C/C Load\000"
 4082      4C6F6164 
 4082      00
 4083              	.LC171:
 4084 0147 52656164 		.ascii	"Readouts\000"
 4084      6F757473 
 4084      00
 4085              	.LC172:
 4086 0150 4D696E56 		.ascii	"MinVolt\000"
 4086      6F6C7400 
 4087              	.LC173:
 4088 0158 52657365 		.ascii	"Reset\000"
 4088      7400
 4089              	.LC174:
 4090 015e 546F6F6C 		.ascii	"Tools\000"
 4090      7300
 4091              	.LC175:
 4092 0164 43616C69 		.ascii	"Calibrate\000"
 4092      62726174 
 4092      6500
 4093              	.LC176:
 4094 016e 55706772 		.ascii	"UpgrMode\000"
 4094      4D6F6465 
 4094      00
 4095              	.LC177:
 4096 0177 45584954 		.ascii	"EXIT\000"
 4096      00
 4097              	.LC178:
ARM GAS  C:\Users\VIDEOH~1\AppData\Local\Temp\ccpdN5tN.s 			page 100


 4098 017c 42617474 		.ascii	"Batt ISR\000"
 4098      20495352 
 4098      00
 4099              	.LC179:
 4100 0185 4D61696E 		.ascii	"MainDisp\000"
 4100      44697370 
 4100      00
 4101              	.LC180:
 4102 018e 55704469 		.ascii	"UpDisp\000"
 4102      737000
 4103              	.LC181:
 4104 0195 446F776E 		.ascii	"DownDisp\000"
 4104      44697370 
 4104      00
 4105              	.LC182:
 4106 019e 53455454 		.ascii	"SETTINGS\000"
 4106      494E4753 
 4106      00
 4107              	.LC183:
 4108 01a7 53657443 		.ascii	"SetCur\000"
 4108      757200
 4109              	.LC184:
 4110 01ae 41637475 		.ascii	"ActualCur\000"
 4110      616C4375 
 4110      7200
 4111              	.LC185:
 4112 01b8 566F6C74 		.ascii	"Voltage\000"
 4112      61676500 
 4113              	.LC186:
 4114 01c0 506F7765 		.ascii	"Power\000"
 4114      7200
 4115              	.LC187:
 4116 01c6 52657369 		.ascii	"Resist\000"
 4116      737400
 4117              	.LC188:
 4118 01cd 546F7461 		.ascii	"TotalCur\000"
 4118      6C437572 
 4118      00
 4119              	.LC189:
 4120 01d6 546F7461 		.ascii	"TotalPwr\000"
 4120      6C507772 
 4120      00
 4121              	.LC190:
 4122 01df 4E6F6E65 		.ascii	"None\000"
 4122      00
 4123              		.data
 4124              		.align	2
 4125              		.set	.LANCHOR0,. + 0
 4126              		.type	long_button_press_tick_count, %object
 4127              		.size	long_button_press_tick_count, 4
 4128              	long_button_press_tick_count:
 4129 0000 FFFFFFFF 		.word	-1
 4130              		.type	last_levels.7865, %object
 4131              		.size	last_levels.7865, 1
 4132              	last_levels.7865:
 4133 0004 03       		.byte	3
 4134 0005 000000   		.space	3
ARM GAS  C:\Users\VIDEOH~1\AppData\Local\Temp\ccpdN5tN.s 			page 101


 4135              		.type	event.7864, %object
 4136              		.size	event.7864, 16
 4137              	event.7864:
 4138 0008 03       		.byte	3
 4139 0009 000000   		.space	3
 4140 000c 00000000 		.word	0
 4141 0010 00000000 		.space	4
 4142 0014 00000000 		.word	0
 4143              		.type	event.7857, %object
 4144              		.size	event.7857, 16
 4145              	event.7857:
 4146 0018 01       		.byte	1
 4147 0019 00000000 		.space	11
 4147      00000000 
 4147      000000
 4148 0024 00000000 		.word	0
 4149              		.bss
 4150              		.align	2
 4151              		.set	.LANCHOR1,. + 0
 4152              		.type	long_press_sent.7896, %object
 4153              		.size	long_press_sent.7896, 1
 4154              	long_press_sent.7896:
 4155 0000 00       		.space	1
 4156 0001 000000   		.space	3
 4157              		.type	last_tick.7895, %object
 4158              		.size	last_tick.7895, 4
 4159              	last_tick.7895:
 4160 0004 00000000 		.space	4
 4161              		.type	count.7866, %object
 4162              		.size	count.7866, 1
 4163              	count.7866:
 4164 0008 00       		.space	1
 4165 0009 000000   		.space	3
 4166              		.type	before.7867, %object
 4167              		.size	before.7867, 4
 4168              	before.7867:
 4169 000c 00000000 		.space	4
 4170              		.type	last_adjust_current_setpoint.8078, %object
 4171              		.size	last_adjust_current_setpoint.8078, 4
 4172              	last_adjust_current_setpoint.8078:
 4173 0010 00000000 		.space	4
 4174              		.type	before.7858, %object
 4175              		.size	before.7858, 4
 4176              	before.7858:
 4177 0014 00000000 		.space	4
 4178              		.text
 4179              	.Letext0:
 4180              		.file 2 "c:\\program files (x86)\\cypress\\psoc creator\\4.2\\psoc creator\\import\\gnu\\arm\\5.4.
 4181              		.file 3 "c:\\program files (x86)\\cypress\\psoc creator\\4.2\\psoc creator\\import\\gnu\\arm\\5.4.
 4182              		.file 4 "Generated_Source\\PSoC4/cytypes.h"
 4183              		.file 5 "Generated_Source\\PSoC4/cy_em_eeprom.h"
 4184              		.file 6 "config.h"
 4185              		.file 7 ".\\freertos\\include/portmacro.h"
 4186              		.file 8 ".\\freertos\\include/queue.h"
 4187              		.file 9 "tasks.h"
 4188              		.file 10 "Generated_Source\\PSoC4/EEPROM.h"
 4189              		.file 11 "c:\\program files (x86)\\cypress\\psoc creator\\4.2\\psoc creator\\import\\gnu\\arm\\5.4
ARM GAS  C:\Users\VIDEOH~1\AppData\Local\Temp\ccpdN5tN.s 			page 102


 4190              		.file 12 "c:\\program files (x86)\\cypress\\psoc creator\\4.2\\psoc creator\\import\\gnu\\arm\\5.4
 4191              		.file 13 "Generated_Source\\PSoC4/Display.h"
 4192              		.file 14 "Generated_Source\\PSoC4/Bootloadable.h"
 4193              		.file 15 ".\\freertos\\include/task.h"
 4194              		.file 16 "Generated_Source\\PSoC4/CyLFClk.h"
 4195              		.file 17 "Generated_Source\\PSoC4/IDAC_Low.h"
 4196              		.file 18 "Generated_Source\\PSoC4/IDAC_High.h"
 4197              		.file 19 "calibrate.h"
 4198              		.file 20 "Generated_Source\\PSoC4/Quadrature.h"
 4199              		.file 21 "comms.h"
 4200              		.file 22 "Generated_Source\\PSoC4/CoolerStatusReg.h"
 4201              		.file 23 "Generated_Source\\PSoC4/CyLib.h"
 4202              		.file 24 "Generated_Source\\PSoC4/QuadButton.h"
 4203              		.file 25 "Generated_Source\\PSoC4/QuadratureISR.h"